	.cpu cortex-m4
	.arch armv7e-m
	.fpu fpv4-sp-d16
	.eabi_attribute 27, 1
	.eabi_attribute 28, 1
	.eabi_attribute 20, 1
	.eabi_attribute 21, 1
	.eabi_attribute 23, 3
	.eabi_attribute 24, 1
	.eabi_attribute 25, 1
	.eabi_attribute 26, 1
	.eabi_attribute 30, 4
	.eabi_attribute 34, 1
	.eabi_attribute 38, 1
	.eabi_attribute 18, 4
	.file	"fault.c"
	.text
.Ltext0:
	.cfi_sections	.debug_frame
	.file 1 "/home/g/mise-work/zmk-firmware/zmk/zephyr/arch/arm/core/cortex_m/fault.c"
	.section	.text.z_log_msg_static_create.constprop.0,"ax",%progbits
	.align	1
	.syntax unified
	.thumb
	.thumb_func
	.type	z_log_msg_static_create.constprop.0, %function
z_log_msg_static_create.constprop.0:
.LVL0:
.LFB499:
	.file 2 "/home/g/mise-work/zmk-firmware/zmk/app/build/zephyr/include/generated/syscalls/log_msg.h"
	.loc 2 26 20 view -0
	.cfi_startproc
	@ args = 0, pretend = 0, frame = 0
	@ frame_needed = 0, uses_anonymous_args = 0
	@ link register save eliminated.
	.loc 2 38 2 view .LVU1
	.loc 2 38 7 view .LVU2
	.loc 2 38 5 view .LVU3
	.loc 2 39 2 view .LVU4
	movs	r3, #0
	b	z_impl_z_log_msg_static_create
.LVL1:
	.loc 2 39 2 is_stmt 0 view .LVU5
	.cfi_endproc
.LFE499:
	.size	z_log_msg_static_create.constprop.0, .-z_log_msg_static_create.constprop.0
	.section	.rodata.mem_manage_fault.constprop.0.str1.1,"aMS",%progbits,1
.LC0:
	.ascii	"***** MPU FAULT *****\000"
.LC1:
	.ascii	"  Stacking error (context area might be not valid)\000"
.LC2:
	.ascii	"  Unstacking error\000"
.LC3:
	.ascii	"  Data Access Violation\000"
.LC4:
	.ascii	"  MMFAR Address: 0x%x\000"
.LC5:
	.ascii	"  Instruction Access Violation\000"
.LC6:
	.ascii	"  Floating-point lazy state preservation error\000"
	.section	.text.mem_manage_fault.constprop.0,"ax",%progbits
	.align	1
	.syntax unified
	.thumb
	.thumb_func
	.type	mem_manage_fault.constprop.0, %function
mem_manage_fault.constprop.0:
.LVL2:
.LFB500:
	.loc 1 231 17 is_stmt 1 view -0
	.cfi_startproc
	@ args = 0, pretend = 0, frame = 24
	@ frame_needed = 1, uses_anonymous_args = 0
	.loc 1 234 2 view .LVU7
	.loc 1 235 2 view .LVU8
	.loc 1 237 2 view .LVU9
.LBB1519:
	.loc 1 237 7 view .LVU10
	.loc 1 237 56 view .LVU11
	.loc 1 237 13 view .LVU12
	.loc 1 237 1 view .LVU13
	.loc 1 237 40 view .LVU14
	.loc 1 237 175 view .LVU15
	.loc 1 237 186 view .LVU16
	.loc 1 237 274 view .LVU17
	.loc 1 237 2 view .LVU18
	.loc 1 237 2 view .LVU19
.LBB1520:
	.loc 1 237 7 view .LVU20
	.loc 1 237 1 view .LVU21
.LBE1520:
.LBE1519:
	.loc 1 237 2 view .LVU22
	.loc 1 237 11 view .LVU23
	.loc 1 237 106 view .LVU24
	.loc 1 237 2 view .LVU25
.LBB1541:
.LBB1535:
	.loc 1 237 11 view .LVU26
	.loc 1 237 101 view .LVU27
	.loc 1 237 103 view .LVU28
.LBB1521:
	.loc 1 237 108 view .LVU29
	.loc 1 237 119 view .LVU30
	.loc 1 237 208 view .LVU31
	.loc 1 237 25 view .LVU32
.LBE1521:
.LBE1535:
.LBE1541:
	.loc 1 237 2 view .LVU33
	.loc 1 237 367 view .LVU34
	.loc 1 237 74 view .LVU35
	.loc 1 237 1 view .LVU36
	.loc 1 237 1 view .LVU37
	.loc 1 237 1 view .LVU38
	.loc 1 237 37 view .LVU39
	.loc 1 237 3 view .LVU40
	.loc 1 237 29 view .LVU41
	.loc 1 237 55 view .LVU42
	.loc 1 237 78 view .LVU43
	.loc 1 237 140 view .LVU44
	.loc 1 237 197 view .LVU45
	.loc 1 237 262 view .LVU46
	.loc 1 237 287 view .LVU47
	.loc 1 237 288 view .LVU48
	.loc 1 237 290 view .LVU49
	.loc 1 237 320 view .LVU50
	.loc 1 237 350 view .LVU51
	.loc 1 237 382 view .LVU52
	.loc 1 237 414 view .LVU53
	.loc 1 237 446 view .LVU54
	.loc 1 237 643 view .LVU55
	.loc 1 237 667 view .LVU56
	.loc 1 237 668 view .LVU57
	.loc 1 237 670 view .LVU58
	.loc 1 237 699 view .LVU59
	.loc 1 237 728 view .LVU60
	.loc 1 237 759 view .LVU61
	.loc 1 237 790 view .LVU62
	.loc 1 237 821 view .LVU63
	.loc 1 237 1028 view .LVU64
	.loc 1 237 3 view .LVU65
	.loc 1 237 21 view .LVU66
	.loc 1 237 41 view .LVU67
	.loc 1 237 3 view .LVU68
	.loc 1 237 41 view .LVU69
	.loc 1 237 12 view .LVU70
	.loc 1 237 12 view .LVU71
	.loc 1 237 60 view .LVU72
	.loc 1 237 91 view .LVU73
	.loc 1 237 125 view .LVU74
	.loc 1 237 130 view .LVU75
	.loc 1 237 375 view .LVU76
	.loc 1 237 1408 view .LVU77
	.loc 1 237 1473 view .LVU78
	.loc 1 237 1497 view .LVU79
	.loc 1 237 1546 view .LVU80
	.loc 1 237 1557 view .LVU81
	.loc 1 237 1664 view .LVU82
	.loc 1 237 1680 view .LVU83
	.loc 1 237 1720 view .LVU84
	.loc 1 237 1745 view .LVU85
	.loc 1 237 3024 view .LVU86
	.loc 1 237 3065 view .LVU87
	.loc 1 237 6 view .LVU88
	.loc 1 237 29 view .LVU89
	.loc 1 237 128 view .LVU90
	.loc 1 237 4 view .LVU91
	.loc 1 237 27 view .LVU92
	.loc 1 237 51 view .LVU93
	.loc 1 237 79 view .LVU94
	.loc 1 237 255 view .LVU95
	.loc 1 237 15 view .LVU96
.LBB1542:
.LBB1536:
.LBB1530:
	.loc 1 237 28 view .LVU97
	.loc 1 237 2 view .LVU98
	.loc 1 237 2 view .LVU99
	.loc 1 237 69 view .LVU100
	.loc 1 237 69 is_stmt 0 view .LVU101
.LBE1530:
.LBE1536:
.LBE1542:
	.loc 1 231 17 view .LVU102
	push	{r4, r5, r6, r7, r8, lr}
	.cfi_def_cfa_offset 24
	.cfi_offset 4, -24
	.cfi_offset 5, -20
	.cfi_offset 6, -16
	.cfi_offset 7, -12
	.cfi_offset 8, -8
	.cfi_offset 14, -4
	sub	sp, sp, #24
	.cfi_def_cfa_offset 48
	mov	r6, r0
	add	r7, sp, #0
	.cfi_def_cfa_register 7
.LVL3:
.LBB1543:
.LBB1537:
.LBB1531:
	.loc 1 237 73 is_stmt 1 view .LVU103
	.loc 1 237 483 view .LVU104
	.loc 1 237 4 view .LVU105
	.loc 1 237 6 view .LVU106
	.loc 1 237 11 view .LVU107
.LBE1531:
.LBE1537:
.LBE1543:
	.loc 1 231 17 is_stmt 0 view .LVU108
	mov	r5, r1
.LBB1544:
.LBB1538:
.LBB1532:
	.loc 1 237 11 view .LVU109
	.loc 1 237 9 is_stmt 1 view .LVU110
	.loc 1 237 4 view .LVU111
	.loc 1 237 22 view .LVU112
.LBB1522:
	.loc 1 237 2 view .LVU113
	.loc 1 237 367 view .LVU114
	.loc 1 237 74 view .LVU115
.LVL4:
	.loc 1 237 1 view .LVU116
	.loc 1 237 1 view .LVU117
	.loc 1 237 1 view .LVU118
	.loc 1 237 37 view .LVU119
	.loc 1 237 66 view .LVU120
	.loc 1 237 92 view .LVU121
	.loc 1 237 118 view .LVU122
	.loc 1 237 141 view .LVU123
	.loc 1 237 203 view .LVU124
	.loc 1 237 260 view .LVU125
	.loc 1 237 325 view .LVU126
	.loc 1 237 350 view .LVU127
	.loc 1 237 351 view .LVU128
	.loc 1 237 353 view .LVU129
	.loc 1 237 383 view .LVU130
	.loc 1 237 413 view .LVU131
	.loc 1 237 445 view .LVU132
	.loc 1 237 477 view .LVU133
	.loc 1 237 509 view .LVU134
	.loc 1 237 706 view .LVU135
	.loc 1 237 730 view .LVU136
	.loc 1 237 731 view .LVU137
	.loc 1 237 733 view .LVU138
	.loc 1 237 762 view .LVU139
	.loc 1 237 791 view .LVU140
	.loc 1 237 822 view .LVU141
	.loc 1 237 853 view .LVU142
	.loc 1 237 884 view .LVU143
	.loc 1 237 1091 view .LVU144
	.loc 1 237 3 view .LVU145
	.loc 1 237 21 view .LVU146
	.loc 1 237 41 view .LVU147
	.loc 1 237 3 view .LVU148
	.loc 1 237 41 view .LVU149
	.loc 1 237 12 view .LVU150
	.loc 1 237 12 view .LVU151
	.loc 1 237 60 view .LVU152
	.loc 1 237 91 view .LVU153
	.loc 1 237 125 view .LVU154
.LBB1523:
	.loc 1 237 130 view .LVU155
	.loc 1 237 375 view .LVU156
	.loc 1 237 1408 view .LVU157
	.loc 1 237 1473 view .LVU158
.LBE1523:
.LBE1522:
.LBE1532:
.LBE1538:
.LBE1544:
	.loc 1 237 1497 view .LVU159
	.loc 1 237 1546 view .LVU160
	.loc 1 237 1557 view .LVU161
	.loc 1 237 1664 view .LVU162
.LBB1545:
.LBB1539:
.LBB1533:
.LBB1527:
.LBB1524:
	.loc 1 237 1680 view .LVU163
	.loc 1 237 1720 view .LVU164
	.loc 1 237 1745 view .LVU165
	.loc 1 237 3024 view .LVU166
	.loc 1 237 3062 view .LVU167
	.loc 1 237 3067 view .LVU168
	.loc 1 237 3631 view .LVU169
	.loc 1 237 0 is_stmt 0 view .LVU170
	ldr	r3, .L32
	str	r3, [r7, #20]
	.loc 1 237 3065 is_stmt 1 view .LVU171
	.loc 1 237 6 view .LVU172
.LVL5:
	.loc 1 237 29 view .LVU173
	.loc 1 237 29 is_stmt 0 view .LVU174
.LBE1524:
	.loc 1 237 128 is_stmt 1 view .LVU175
	.loc 1 237 4 view .LVU176
	.loc 1 237 27 view .LVU177
	.loc 1 237 51 view .LVU178
	.loc 1 237 79 view .LVU179
.LBE1527:
.LBE1533:
.LBE1539:
.LBE1545:
	.loc 1 237 5 view .LVU180
	.loc 1 237 44 view .LVU181
	.loc 1 237 49 view .LVU182
	.loc 1 237 79 view .LVU183
	.loc 1 237 146 view .LVU184
	.loc 1 237 151 view .LVU185
	.loc 1 237 181 view .LVU186
.LBB1546:
.LBB1540:
.LBB1534:
.LBB1528:
	.loc 1 237 255 view .LVU187
	.loc 1 237 15 view .LVU188
.LBB1525:
	.loc 1 237 5 view .LVU189
	.loc 1 237 163 view .LVU190
	.loc 1 237 165 view .LVU191
	.loc 1 237 175 is_stmt 0 view .LVU192
	movs	r4, #2
.LBE1525:
.LBE1528:
	.loc 1 237 148 view .LVU193
	ldr	r0, .L32+4
.LVL6:
.LBB1529:
.LBB1526:
	.loc 1 237 175 view .LVU194
	str	r4, [r7, #16]
.LVL7:
	.loc 1 237 175 view .LVU195
.LBE1526:
.LBE1529:
	.loc 1 237 25 is_stmt 1 view .LVU196
	.loc 1 237 6 view .LVU197
	.loc 1 237 146 view .LVU198
	.loc 1 237 148 view .LVU199
	add	r2, r7, #16
.LVL8:
	.loc 1 237 148 is_stmt 0 view .LVU200
	mov	r1, #4160
.LVL9:
	.loc 1 237 148 view .LVU201
	bl	z_log_msg_static_create.constprop.0
.LVL10:
	.loc 1 237 148 view .LVU202
.LBE1534:
	.loc 1 237 106 is_stmt 1 view .LVU203
	.loc 1 237 4 view .LVU204
.LVL11:
	.loc 1 237 41 view .LVU205
.LBE1540:
	.loc 1 237 5 view .LVU206
	.loc 1 237 277 view .LVU207
	.loc 1 237 4 view .LVU208
	.loc 1 237 17 view .LVU209
.LBE1546:
	.loc 1 237 5 view .LVU210
	.loc 1 239 2 view .LVU211
	.loc 1 239 50 is_stmt 0 view .LVU212
	ldr	r3, .L32+8
	ldr	r3, [r3, #40]
	.loc 1 239 5 view .LVU213
	lsls	r3, r3, #27
	bpl	.L13
	.loc 1 240 3 is_stmt 1 view .LVU214
.LVL12:
	.loc 1 241 3 view .LVU215
.LBB1547:
	.loc 1 241 8 view .LVU216
	.loc 1 241 57 view .LVU217
	.loc 1 241 14 view .LVU218
	.loc 1 241 2 view .LVU219
	.loc 1 241 41 view .LVU220
	.loc 1 241 176 view .LVU221
	.loc 1 241 187 view .LVU222
	.loc 1 241 275 view .LVU223
	.loc 1 241 3 view .LVU224
	.loc 1 241 3 view .LVU225
.LBB1548:
	.loc 1 241 8 view .LVU226
	.loc 1 241 2 view .LVU227
.LBE1548:
.LBE1547:
	.loc 1 241 3 view .LVU228
	.loc 1 241 12 view .LVU229
	.loc 1 241 107 view .LVU230
	.loc 1 241 3 view .LVU231
.LBB1561:
.LBB1558:
	.loc 1 241 12 view .LVU232
	.loc 1 241 102 view .LVU233
	.loc 1 241 104 view .LVU234
.LBB1549:
	.loc 1 241 109 view .LVU235
	.loc 1 241 120 view .LVU236
	.loc 1 241 209 view .LVU237
	.loc 1 241 26 view .LVU238
.LBE1549:
.LBE1558:
.LBE1561:
	.loc 1 241 3 view .LVU239
	.loc 1 241 368 view .LVU240
	.loc 1 241 75 view .LVU241
	.loc 1 241 2 view .LVU242
	.loc 1 241 2 view .LVU243
	.loc 1 241 2 view .LVU244
	.loc 1 241 38 view .LVU245
	.loc 1 241 4 view .LVU246
	.loc 1 241 30 view .LVU247
	.loc 1 241 56 view .LVU248
	.loc 1 241 79 view .LVU249
	.loc 1 241 141 view .LVU250
	.loc 1 241 198 view .LVU251
	.loc 1 241 263 view .LVU252
	.loc 1 241 288 view .LVU253
	.loc 1 241 289 view .LVU254
	.loc 1 241 291 view .LVU255
	.loc 1 241 321 view .LVU256
	.loc 1 241 351 view .LVU257
	.loc 1 241 383 view .LVU258
	.loc 1 241 415 view .LVU259
	.loc 1 241 447 view .LVU260
	.loc 1 241 644 view .LVU261
	.loc 1 241 668 view .LVU262
	.loc 1 241 669 view .LVU263
	.loc 1 241 671 view .LVU264
	.loc 1 241 700 view .LVU265
	.loc 1 241 729 view .LVU266
	.loc 1 241 760 view .LVU267
	.loc 1 241 791 view .LVU268
	.loc 1 241 822 view .LVU269
	.loc 1 241 1029 view .LVU270
	.loc 1 241 4 view .LVU271
	.loc 1 241 22 view .LVU272
	.loc 1 241 42 view .LVU273
	.loc 1 241 4 view .LVU274
	.loc 1 241 42 view .LVU275
	.loc 1 241 13 view .LVU276
	.loc 1 241 13 view .LVU277
	.loc 1 241 61 view .LVU278
	.loc 1 241 92 view .LVU279
	.loc 1 241 126 view .LVU280
	.loc 1 241 131 view .LVU281
	.loc 1 241 408 view .LVU282
	.loc 1 241 1569 view .LVU283
	.loc 1 241 1634 view .LVU284
	.loc 1 241 1658 view .LVU285
	.loc 1 241 1739 view .LVU286
	.loc 1 241 1750 view .LVU287
	.loc 1 241 1889 view .LVU288
	.loc 1 241 1905 view .LVU289
	.loc 1 241 1945 view .LVU290
	.loc 1 241 1970 view .LVU291
	.loc 1 241 3313 view .LVU292
	.loc 1 241 3354 view .LVU293
	.loc 1 241 7 view .LVU294
	.loc 1 241 30 view .LVU295
	.loc 1 241 129 view .LVU296
	.loc 1 241 5 view .LVU297
	.loc 1 241 28 view .LVU298
	.loc 1 241 52 view .LVU299
	.loc 1 241 80 view .LVU300
	.loc 1 241 256 view .LVU301
	.loc 1 241 16 view .LVU302
.LBB1562:
.LBB1559:
.LBB1556:
	.loc 1 241 29 view .LVU303
	.loc 1 241 3 view .LVU304
	.loc 1 241 3 view .LVU305
	.loc 1 241 70 view .LVU306
	.loc 1 241 74 view .LVU307
	.loc 1 241 484 view .LVU308
	.loc 1 241 5 view .LVU309
	.loc 1 241 7 view .LVU310
	.loc 1 241 12 view .LVU311
	.loc 1 241 10 view .LVU312
	.loc 1 241 5 view .LVU313
	.loc 1 241 23 view .LVU314
.LBB1550:
	.loc 1 241 3 view .LVU315
	.loc 1 241 368 view .LVU316
	.loc 1 241 75 view .LVU317
.LVL13:
	.loc 1 241 2 view .LVU318
	.loc 1 241 2 view .LVU319
	.loc 1 241 2 view .LVU320
	.loc 1 241 38 view .LVU321
	.loc 1 241 67 view .LVU322
	.loc 1 241 93 view .LVU323
	.loc 1 241 119 view .LVU324
	.loc 1 241 142 view .LVU325
	.loc 1 241 204 view .LVU326
	.loc 1 241 261 view .LVU327
	.loc 1 241 326 view .LVU328
	.loc 1 241 351 view .LVU329
	.loc 1 241 352 view .LVU330
	.loc 1 241 354 view .LVU331
	.loc 1 241 384 view .LVU332
	.loc 1 241 414 view .LVU333
	.loc 1 241 446 view .LVU334
	.loc 1 241 478 view .LVU335
	.loc 1 241 510 view .LVU336
	.loc 1 241 707 view .LVU337
	.loc 1 241 731 view .LVU338
	.loc 1 241 732 view .LVU339
	.loc 1 241 734 view .LVU340
	.loc 1 241 763 view .LVU341
	.loc 1 241 792 view .LVU342
	.loc 1 241 823 view .LVU343
	.loc 1 241 854 view .LVU344
	.loc 1 241 885 view .LVU345
	.loc 1 241 1092 view .LVU346
	.loc 1 241 4 view .LVU347
	.loc 1 241 22 view .LVU348
	.loc 1 241 42 view .LVU349
	.loc 1 241 4 view .LVU350
	.loc 1 241 42 view .LVU351
	.loc 1 241 13 view .LVU352
	.loc 1 241 13 view .LVU353
	.loc 1 241 61 view .LVU354
	.loc 1 241 92 view .LVU355
	.loc 1 241 126 view .LVU356
.LBB1551:
	.loc 1 241 131 view .LVU357
	.loc 1 241 408 view .LVU358
	.loc 1 241 1569 view .LVU359
	.loc 1 241 1634 view .LVU360
.LBE1551:
.LBE1550:
.LBE1556:
.LBE1559:
.LBE1562:
	.loc 1 241 1658 view .LVU361
	.loc 1 241 1739 view .LVU362
	.loc 1 241 1750 view .LVU363
	.loc 1 241 1889 view .LVU364
.LBB1563:
.LBB1560:
.LBB1557:
.LBB1554:
.LBB1552:
	.loc 1 241 1905 view .LVU365
	.loc 1 241 1945 view .LVU366
	.loc 1 241 1970 view .LVU367
	.loc 1 241 3313 view .LVU368
	.loc 1 241 3351 view .LVU369
	.loc 1 241 3356 view .LVU370
	.loc 1 241 0 view .LVU371
	ldr	r3, .L32+12
.LBE1552:
.LBE1554:
	.loc 1 241 149 is_stmt 0 view .LVU372
	ldr	r0, .L32+4
.LBB1555:
.LBB1553:
	.loc 1 241 176 view .LVU373
	strd	r4, r3, [r7, #16]
	.loc 1 241 176 view .LVU374
.LBE1553:
.LBE1555:
	.loc 1 241 26 is_stmt 1 view .LVU375
	.loc 1 241 7 view .LVU376
	.loc 1 241 147 view .LVU377
	.loc 1 241 149 view .LVU378
	add	r2, r7, #16
.LVL14:
	.loc 1 241 149 is_stmt 0 view .LVU379
	mov	r1, #4160
	bl	z_log_msg_static_create.constprop.0
.LVL15:
	.loc 1 241 149 view .LVU380
.LBE1557:
	.loc 1 241 107 is_stmt 1 view .LVU381
	.loc 1 241 5 view .LVU382
.LVL16:
	.loc 1 241 42 view .LVU383
.LBE1560:
	.loc 1 241 6 view .LVU384
	.loc 1 241 278 view .LVU385
	.loc 1 241 5 view .LVU386
	.loc 1 241 18 view .LVU387
.LBE1563:
	.loc 1 240 10 is_stmt 0 view .LVU388
	movs	r0, #17
.LVL17:
.L3:
	.loc 1 241 6 is_stmt 1 view .LVU389
	.loc 1 244 2 view .LVU390
	.loc 1 244 50 is_stmt 0 view .LVU391
	ldr	r3, .L32+8
	ldr	r3, [r3, #40]
	.loc 1 244 5 view .LVU392
	lsls	r4, r3, #28
	bpl	.L4
	.loc 1 245 3 is_stmt 1 view .LVU393
.LVL18:
	.loc 1 246 3 view .LVU394
.LBB1564:
	.loc 1 246 8 view .LVU395
	.loc 1 246 57 view .LVU396
	.loc 1 246 14 view .LVU397
	.loc 1 246 2 view .LVU398
	.loc 1 246 41 view .LVU399
	.loc 1 246 176 view .LVU400
	.loc 1 246 187 view .LVU401
	.loc 1 246 275 view .LVU402
	.loc 1 246 3 view .LVU403
	.loc 1 246 3 view .LVU404
.LBB1565:
	.loc 1 246 8 view .LVU405
	.loc 1 246 2 view .LVU406
.LBE1565:
.LBE1564:
	.loc 1 246 3 view .LVU407
	.loc 1 246 12 view .LVU408
	.loc 1 246 107 view .LVU409
	.loc 1 246 3 view .LVU410
.LBB1582:
.LBB1578:
	.loc 1 246 12 view .LVU411
	.loc 1 246 102 view .LVU412
	.loc 1 246 104 view .LVU413
.LBB1566:
	.loc 1 246 109 view .LVU414
	.loc 1 246 120 view .LVU415
	.loc 1 246 209 view .LVU416
	.loc 1 246 26 view .LVU417
.LBE1566:
.LBE1578:
.LBE1582:
	.loc 1 246 3 view .LVU418
	.loc 1 246 368 view .LVU419
	.loc 1 246 75 view .LVU420
	.loc 1 246 2 view .LVU421
	.loc 1 246 2 view .LVU422
	.loc 1 246 2 view .LVU423
	.loc 1 246 38 view .LVU424
	.loc 1 246 4 view .LVU425
	.loc 1 246 30 view .LVU426
	.loc 1 246 56 view .LVU427
	.loc 1 246 79 view .LVU428
	.loc 1 246 141 view .LVU429
	.loc 1 246 198 view .LVU430
	.loc 1 246 263 view .LVU431
	.loc 1 246 288 view .LVU432
	.loc 1 246 289 view .LVU433
	.loc 1 246 291 view .LVU434
	.loc 1 246 321 view .LVU435
	.loc 1 246 351 view .LVU436
	.loc 1 246 383 view .LVU437
	.loc 1 246 415 view .LVU438
	.loc 1 246 447 view .LVU439
	.loc 1 246 644 view .LVU440
	.loc 1 246 668 view .LVU441
	.loc 1 246 669 view .LVU442
	.loc 1 246 671 view .LVU443
	.loc 1 246 700 view .LVU444
	.loc 1 246 729 view .LVU445
	.loc 1 246 760 view .LVU446
	.loc 1 246 791 view .LVU447
	.loc 1 246 822 view .LVU448
	.loc 1 246 1029 view .LVU449
	.loc 1 246 4 view .LVU450
	.loc 1 246 22 view .LVU451
	.loc 1 246 42 view .LVU452
	.loc 1 246 4 view .LVU453
	.loc 1 246 42 view .LVU454
	.loc 1 246 13 view .LVU455
	.loc 1 246 13 view .LVU456
	.loc 1 246 61 view .LVU457
	.loc 1 246 92 view .LVU458
	.loc 1 246 126 view .LVU459
	.loc 1 246 131 view .LVU460
	.loc 1 246 373 view .LVU461
	.loc 1 246 1394 view .LVU462
	.loc 1 246 1459 view .LVU463
	.loc 1 246 1483 view .LVU464
	.loc 1 246 1529 view .LVU465
	.loc 1 246 1540 view .LVU466
	.loc 1 246 1644 view .LVU467
	.loc 1 246 1660 view .LVU468
	.loc 1 246 1700 view .LVU469
	.loc 1 246 1725 view .LVU470
	.loc 1 246 2998 view .LVU471
	.loc 1 246 3039 view .LVU472
	.loc 1 246 7 view .LVU473
	.loc 1 246 30 view .LVU474
	.loc 1 246 129 view .LVU475
	.loc 1 246 5 view .LVU476
	.loc 1 246 28 view .LVU477
	.loc 1 246 52 view .LVU478
	.loc 1 246 80 view .LVU479
	.loc 1 246 256 view .LVU480
	.loc 1 246 16 view .LVU481
.LBB1583:
.LBB1579:
.LBB1575:
	.loc 1 246 29 view .LVU482
	.loc 1 246 3 view .LVU483
	.loc 1 246 3 view .LVU484
	.loc 1 246 70 view .LVU485
	.loc 1 246 74 view .LVU486
	.loc 1 246 484 view .LVU487
	.loc 1 246 5 view .LVU488
	.loc 1 246 7 view .LVU489
	.loc 1 246 12 view .LVU490
	.loc 1 246 10 view .LVU491
	.loc 1 246 5 view .LVU492
	.loc 1 246 23 view .LVU493
.LBB1567:
	.loc 1 246 3 view .LVU494
	.loc 1 246 368 view .LVU495
	.loc 1 246 75 view .LVU496
.LVL19:
	.loc 1 246 2 view .LVU497
	.loc 1 246 2 view .LVU498
	.loc 1 246 2 view .LVU499
	.loc 1 246 38 view .LVU500
	.loc 1 246 67 view .LVU501
	.loc 1 246 93 view .LVU502
	.loc 1 246 119 view .LVU503
	.loc 1 246 142 view .LVU504
	.loc 1 246 204 view .LVU505
	.loc 1 246 261 view .LVU506
	.loc 1 246 326 view .LVU507
	.loc 1 246 351 view .LVU508
	.loc 1 246 352 view .LVU509
	.loc 1 246 354 view .LVU510
	.loc 1 246 384 view .LVU511
	.loc 1 246 414 view .LVU512
	.loc 1 246 446 view .LVU513
	.loc 1 246 478 view .LVU514
	.loc 1 246 510 view .LVU515
	.loc 1 246 707 view .LVU516
	.loc 1 246 731 view .LVU517
	.loc 1 246 732 view .LVU518
	.loc 1 246 734 view .LVU519
	.loc 1 246 763 view .LVU520
	.loc 1 246 792 view .LVU521
	.loc 1 246 823 view .LVU522
	.loc 1 246 854 view .LVU523
	.loc 1 246 885 view .LVU524
	.loc 1 246 1092 view .LVU525
	.loc 1 246 4 view .LVU526
	.loc 1 246 22 view .LVU527
	.loc 1 246 42 view .LVU528
	.loc 1 246 4 view .LVU529
	.loc 1 246 42 view .LVU530
	.loc 1 246 13 view .LVU531
	.loc 1 246 13 view .LVU532
	.loc 1 246 61 view .LVU533
	.loc 1 246 92 view .LVU534
	.loc 1 246 126 view .LVU535
.LBB1568:
	.loc 1 246 131 view .LVU536
	.loc 1 246 373 view .LVU537
	.loc 1 246 1394 view .LVU538
	.loc 1 246 1459 view .LVU539
.LBE1568:
.LBE1567:
.LBE1575:
.LBE1579:
.LBE1583:
	.loc 1 246 1483 view .LVU540
	.loc 1 246 1529 view .LVU541
	.loc 1 246 1540 view .LVU542
	.loc 1 246 1644 view .LVU543
.LBB1584:
.LBB1580:
.LBB1576:
.LBB1572:
.LBB1569:
	.loc 1 246 1660 view .LVU544
	.loc 1 246 1700 view .LVU545
	.loc 1 246 1725 view .LVU546
	.loc 1 246 2998 view .LVU547
	.loc 1 246 3036 view .LVU548
	.loc 1 246 3041 view .LVU549
	.loc 1 246 3587 view .LVU550
	.loc 1 246 0 is_stmt 0 view .LVU551
	ldr	r3, .L32+16
	str	r3, [r7, #20]
	.loc 1 246 3039 is_stmt 1 view .LVU552
	.loc 1 246 7 view .LVU553
.LVL20:
	.loc 1 246 30 view .LVU554
	.loc 1 246 30 is_stmt 0 view .LVU555
.LBE1569:
	.loc 1 246 129 is_stmt 1 view .LVU556
	.loc 1 246 5 view .LVU557
	.loc 1 246 28 view .LVU558
	.loc 1 246 52 view .LVU559
	.loc 1 246 80 view .LVU560
.LBE1572:
.LBE1576:
.LBE1580:
.LBE1584:
	.loc 1 246 6 view .LVU561
	.loc 1 246 45 view .LVU562
	.loc 1 246 50 view .LVU563
	.loc 1 246 80 view .LVU564
	.loc 1 246 147 view .LVU565
	.loc 1 246 152 view .LVU566
	.loc 1 246 182 view .LVU567
.LBB1585:
.LBB1581:
.LBB1577:
.LBB1573:
	.loc 1 246 256 view .LVU568
	.loc 1 246 16 view .LVU569
.LBB1570:
	.loc 1 246 6 view .LVU570
	.loc 1 246 164 view .LVU571
	.loc 1 246 166 view .LVU572
	.loc 1 246 176 is_stmt 0 view .LVU573
	movs	r3, #2
.LBE1570:
.LBE1573:
	.loc 1 246 149 view .LVU574
	ldr	r0, .L32+4
.LBB1574:
.LBB1571:
	.loc 1 246 176 view .LVU575
	str	r3, [r7, #16]
.LVL21:
	.loc 1 246 176 view .LVU576
.LBE1571:
.LBE1574:
	.loc 1 246 26 is_stmt 1 view .LVU577
	.loc 1 246 7 view .LVU578
	.loc 1 246 147 view .LVU579
	.loc 1 246 149 view .LVU580
	add	r2, r7, #16
.LVL22:
	.loc 1 246 149 is_stmt 0 view .LVU581
	mov	r1, #4160
	bl	z_log_msg_static_create.constprop.0
.LVL23:
	.loc 1 246 149 view .LVU582
.LBE1577:
	.loc 1 246 107 is_stmt 1 view .LVU583
	.loc 1 246 5 view .LVU584
.LVL24:
	.loc 1 246 42 view .LVU585
.LBE1581:
	.loc 1 246 6 view .LVU586
	.loc 1 246 278 view .LVU587
	.loc 1 246 5 view .LVU588
	.loc 1 246 18 view .LVU589
.LBE1585:
	.loc 1 245 10 is_stmt 0 view .LVU590
	movs	r0, #18
.LVL25:
.L4:
	.loc 1 246 6 is_stmt 1 view .LVU591
	.loc 1 248 2 view .LVU592
	.loc 1 248 50 is_stmt 0 view .LVU593
	ldr	r4, .L32+8
	ldr	r3, [r4, #40]
	.loc 1 248 5 view .LVU594
	lsls	r1, r3, #30
	bpl	.L5
.LBB1586:
	.loc 1 249 3 is_stmt 1 view .LVU595
.LVL26:
	.loc 1 250 3 view .LVU596
.LBB1587:
	.loc 1 250 8 view .LVU597
	.loc 1 250 57 view .LVU598
	.loc 1 250 14 view .LVU599
	.loc 1 250 2 view .LVU600
	.loc 1 250 41 view .LVU601
	.loc 1 250 176 view .LVU602
	.loc 1 250 187 view .LVU603
	.loc 1 250 275 view .LVU604
	.loc 1 250 3 view .LVU605
	.loc 1 250 3 view .LVU606
.LBB1588:
	.loc 1 250 8 view .LVU607
	.loc 1 250 2 view .LVU608
.LBE1588:
.LBE1587:
.LBE1586:
	.loc 1 250 3 view .LVU609
	.loc 1 250 12 view .LVU610
	.loc 1 250 107 view .LVU611
	.loc 1 250 3 view .LVU612
.LBB1623:
.LBB1603:
.LBB1599:
	.loc 1 250 12 view .LVU613
	.loc 1 250 102 view .LVU614
	.loc 1 250 104 view .LVU615
.LBB1589:
	.loc 1 250 107 is_stmt 0 view .LVU616
	mov	r8, sp
	.loc 1 250 109 is_stmt 1 view .LVU617
	.loc 1 250 120 view .LVU618
.LVL27:
	.loc 1 250 209 view .LVU619
	.loc 1 250 26 view .LVU620
.LBE1589:
.LBE1599:
.LBE1603:
.LBE1623:
	.loc 1 250 3 view .LVU621
	.loc 1 250 368 view .LVU622
	.loc 1 250 75 view .LVU623
	.loc 1 250 2 view .LVU624
	.loc 1 250 2 view .LVU625
	.loc 1 250 2 view .LVU626
	.loc 1 250 38 view .LVU627
	.loc 1 250 4 view .LVU628
	.loc 1 250 30 view .LVU629
	.loc 1 250 56 view .LVU630
	.loc 1 250 79 view .LVU631
	.loc 1 250 141 view .LVU632
	.loc 1 250 198 view .LVU633
	.loc 1 250 263 view .LVU634
	.loc 1 250 288 view .LVU635
	.loc 1 250 289 view .LVU636
	.loc 1 250 291 view .LVU637
	.loc 1 250 321 view .LVU638
	.loc 1 250 351 view .LVU639
	.loc 1 250 383 view .LVU640
	.loc 1 250 415 view .LVU641
	.loc 1 250 447 view .LVU642
	.loc 1 250 644 view .LVU643
	.loc 1 250 668 view .LVU644
	.loc 1 250 669 view .LVU645
	.loc 1 250 671 view .LVU646
	.loc 1 250 700 view .LVU647
	.loc 1 250 729 view .LVU648
	.loc 1 250 760 view .LVU649
	.loc 1 250 791 view .LVU650
	.loc 1 250 822 view .LVU651
	.loc 1 250 1029 view .LVU652
	.loc 1 250 4 view .LVU653
	.loc 1 250 22 view .LVU654
	.loc 1 250 42 view .LVU655
	.loc 1 250 4 view .LVU656
	.loc 1 250 42 view .LVU657
	.loc 1 250 13 view .LVU658
	.loc 1 250 13 view .LVU659
	.loc 1 250 61 view .LVU660
	.loc 1 250 92 view .LVU661
	.loc 1 250 126 view .LVU662
	.loc 1 250 131 view .LVU663
	.loc 1 250 378 view .LVU664
	.loc 1 250 1419 view .LVU665
	.loc 1 250 1484 view .LVU666
	.loc 1 250 1508 view .LVU667
	.loc 1 250 1559 view .LVU668
	.loc 1 250 1570 view .LVU669
	.loc 1 250 1679 view .LVU670
	.loc 1 250 1695 view .LVU671
	.loc 1 250 1735 view .LVU672
	.loc 1 250 1760 view .LVU673
	.loc 1 250 3043 view .LVU674
	.loc 1 250 3084 view .LVU675
	.loc 1 250 7 view .LVU676
	.loc 1 250 30 view .LVU677
	.loc 1 250 129 view .LVU678
	.loc 1 250 5 view .LVU679
	.loc 1 250 28 view .LVU680
	.loc 1 250 52 view .LVU681
	.loc 1 250 80 view .LVU682
	.loc 1 250 256 view .LVU683
	.loc 1 250 16 view .LVU684
.LBB1624:
.LBB1604:
.LBB1600:
.LBB1596:
	.loc 1 250 29 view .LVU685
	.loc 1 250 3 view .LVU686
	.loc 1 250 3 view .LVU687
	.loc 1 250 70 view .LVU688
	.loc 1 250 74 view .LVU689
	.loc 1 250 484 view .LVU690
	.loc 1 250 5 view .LVU691
	.loc 1 250 7 view .LVU692
	.loc 1 250 12 view .LVU693
	.loc 1 250 10 view .LVU694
	.loc 1 250 5 view .LVU695
	.loc 1 250 23 view .LVU696
.LBB1590:
	.loc 1 250 3 view .LVU697
	.loc 1 250 368 view .LVU698
	.loc 1 250 75 view .LVU699
.LVL28:
	.loc 1 250 2 view .LVU700
	.loc 1 250 2 view .LVU701
	.loc 1 250 2 view .LVU702
	.loc 1 250 38 view .LVU703
	.loc 1 250 67 view .LVU704
	.loc 1 250 93 view .LVU705
	.loc 1 250 119 view .LVU706
	.loc 1 250 142 view .LVU707
	.loc 1 250 204 view .LVU708
	.loc 1 250 261 view .LVU709
	.loc 1 250 326 view .LVU710
	.loc 1 250 351 view .LVU711
	.loc 1 250 352 view .LVU712
	.loc 1 250 354 view .LVU713
	.loc 1 250 384 view .LVU714
	.loc 1 250 414 view .LVU715
	.loc 1 250 446 view .LVU716
	.loc 1 250 478 view .LVU717
	.loc 1 250 510 view .LVU718
	.loc 1 250 707 view .LVU719
	.loc 1 250 731 view .LVU720
	.loc 1 250 732 view .LVU721
	.loc 1 250 734 view .LVU722
	.loc 1 250 763 view .LVU723
	.loc 1 250 792 view .LVU724
	.loc 1 250 823 view .LVU725
	.loc 1 250 854 view .LVU726
	.loc 1 250 885 view .LVU727
	.loc 1 250 1092 view .LVU728
	.loc 1 250 4 view .LVU729
	.loc 1 250 22 view .LVU730
	.loc 1 250 42 view .LVU731
	.loc 1 250 4 view .LVU732
	.loc 1 250 42 view .LVU733
	.loc 1 250 13 view .LVU734
	.loc 1 250 13 view .LVU735
	.loc 1 250 61 view .LVU736
	.loc 1 250 92 view .LVU737
	.loc 1 250 126 view .LVU738
.LBB1591:
	.loc 1 250 131 view .LVU739
	.loc 1 250 378 view .LVU740
	.loc 1 250 1419 view .LVU741
	.loc 1 250 1484 view .LVU742
.LBE1591:
.LBE1590:
.LBE1596:
.LBE1600:
.LBE1604:
.LBE1624:
	.loc 1 250 1508 view .LVU743
	.loc 1 250 1559 view .LVU744
	.loc 1 250 1570 view .LVU745
	.loc 1 250 1679 view .LVU746
.LBB1625:
.LBB1605:
.LBB1601:
.LBB1597:
.LBB1594:
.LBB1592:
	.loc 1 250 1695 view .LVU747
	.loc 1 250 1735 view .LVU748
	.loc 1 250 1760 view .LVU749
	.loc 1 250 3043 view .LVU750
	.loc 1 250 3081 view .LVU751
	.loc 1 250 3086 view .LVU752
	.loc 1 250 3662 view .LVU753
	.loc 1 250 0 is_stmt 0 view .LVU754
	ldr	r3, .L32+20
	str	r3, [r7, #20]
	.loc 1 250 3084 is_stmt 1 view .LVU755
	.loc 1 250 7 view .LVU756
.LVL29:
	.loc 1 250 30 view .LVU757
	.loc 1 250 30 is_stmt 0 view .LVU758
.LBE1592:
	.loc 1 250 129 is_stmt 1 view .LVU759
	.loc 1 250 5 view .LVU760
	.loc 1 250 28 view .LVU761
	.loc 1 250 52 view .LVU762
	.loc 1 250 80 view .LVU763
.LBE1594:
.LBE1597:
.LBE1601:
.LBE1605:
.LBE1625:
	.loc 1 250 6 view .LVU764
	.loc 1 250 45 view .LVU765
	.loc 1 250 50 view .LVU766
	.loc 1 250 80 view .LVU767
	.loc 1 250 147 view .LVU768
	.loc 1 250 152 view .LVU769
	.loc 1 250 182 view .LVU770
.LBB1626:
.LBB1606:
.LBB1602:
.LBB1598:
.LBB1595:
	.loc 1 250 256 view .LVU771
	.loc 1 250 16 view .LVU772
.LBB1593:
	.loc 1 250 6 view .LVU773
	.loc 1 250 164 view .LVU774
	.loc 1 250 166 view .LVU775
	.loc 1 250 176 is_stmt 0 view .LVU776
	movs	r3, #2
	str	r3, [r7, #16]
.LVL30:
	.loc 1 250 176 view .LVU777
.LBE1593:
.LBE1595:
	.loc 1 250 26 is_stmt 1 view .LVU778
	.loc 1 250 7 view .LVU779
	.loc 1 250 147 view .LVU780
	.loc 1 250 149 view .LVU781
	add	r2, r7, #16
.LVL31:
	.loc 1 250 149 is_stmt 0 view .LVU782
	ldr	r0, .L32+4
	mov	r1, #4160
	bl	z_log_msg_static_create.constprop.0
.LVL32:
	.loc 1 250 149 view .LVU783
.LBE1598:
	.loc 1 250 107 is_stmt 1 view .LVU784
	.loc 1 250 5 view .LVU785
.LVL33:
	.loc 1 250 42 view .LVU786
.LBE1602:
	.loc 1 250 6 view .LVU787
	.loc 1 250 278 view .LVU788
	.loc 1 250 5 view .LVU789
	.loc 1 250 18 view .LVU790
.LBE1606:
	.loc 1 250 6 view .LVU791
	.loc 1 259 3 view .LVU792
	.loc 1 259 12 is_stmt 0 view .LVU793
	ldr	r3, [r4, #52]
.LVL34:
	.loc 1 261 3 is_stmt 1 view .LVU794
	.loc 1 261 51 is_stmt 0 view .LVU795
	ldr	r2, [r4, #40]
	.loc 1 261 6 view .LVU796
	lsls	r2, r2, #24
	bpl	.L7
	.loc 1 262 4 is_stmt 1 view .LVU797
.LVL35:
	.loc 1 263 4 view .LVU798
.LBB1607:
	.loc 1 263 9 view .LVU799
	.loc 1 263 58 view .LVU800
	.loc 1 263 15 view .LVU801
	.loc 1 263 3 view .LVU802
	.loc 1 263 42 view .LVU803
	.loc 1 263 177 view .LVU804
	.loc 1 263 188 view .LVU805
	.loc 1 263 276 view .LVU806
.LBB1608:
	.loc 1 263 4 view .LVU807
	.loc 1 263 6 view .LVU808
	.loc 1 263 4 view .LVU809
.LBB1609:
	.loc 1 263 9 view .LVU810
	.loc 1 263 3 view .LVU811
.LBE1609:
.LBE1608:
.LBE1607:
.LBE1626:
	.loc 1 263 4 view .LVU812
	.loc 1 263 13 view .LVU813
	.loc 1 263 108 view .LVU814
	.loc 1 263 4 view .LVU815
.LBB1627:
.LBB1621:
.LBB1619:
.LBB1617:
	.loc 1 263 13 view .LVU816
	.loc 1 263 103 view .LVU817
	.loc 1 263 105 view .LVU818
.LBB1610:
	.loc 1 263 110 view .LVU819
	.loc 1 263 121 view .LVU820
	.loc 1 263 210 view .LVU821
	.loc 1 263 27 view .LVU822
.LBE1610:
.LBE1617:
.LBE1619:
.LBE1621:
.LBE1627:
	.loc 1 263 4 view .LVU823
	.loc 1 263 369 view .LVU824
	.loc 1 263 76 view .LVU825
	.loc 1 263 3 view .LVU826
	.loc 1 263 3 view .LVU827
	.loc 1 263 3 view .LVU828
	.loc 1 263 39 view .LVU829
	.loc 1 263 5 view .LVU830
	.loc 1 263 31 view .LVU831
	.loc 1 263 57 view .LVU832
	.loc 1 263 524 view .LVU833
	.loc 1 263 586 view .LVU834
	.loc 1 263 1107 view .LVU835
	.loc 1 263 1172 view .LVU836
	.loc 1 263 1197 view .LVU837
	.loc 1 263 1198 view .LVU838
	.loc 1 263 1200 view .LVU839
	.loc 1 263 1230 view .LVU840
	.loc 1 263 1260 view .LVU841
	.loc 1 263 1292 view .LVU842
	.loc 1 263 1324 view .LVU843
	.loc 1 263 1356 view .LVU844
	.loc 1 263 1553 view .LVU845
	.loc 1 263 1577 view .LVU846
	.loc 1 263 1578 view .LVU847
	.loc 1 263 1580 view .LVU848
	.loc 1 263 1609 view .LVU849
	.loc 1 263 1638 view .LVU850
	.loc 1 263 1669 view .LVU851
	.loc 1 263 1700 view .LVU852
	.loc 1 263 1731 view .LVU853
	.loc 1 263 1938 view .LVU854
	.loc 1 263 5 view .LVU855
	.loc 1 263 23 view .LVU856
	.loc 1 263 43 view .LVU857
	.loc 1 263 5 view .LVU858
	.loc 1 263 43 view .LVU859
	.loc 1 263 14 view .LVU860
	.loc 1 263 14 view .LVU861
	.loc 1 263 62 view .LVU862
	.loc 1 263 93 view .LVU863
	.loc 1 263 127 view .LVU864
	.loc 1 263 132 view .LVU865
	.loc 1 263 377 view .LVU866
	.loc 1 263 1410 view .LVU867
	.loc 1 263 1475 view .LVU868
	.loc 1 263 1499 view .LVU869
	.loc 1 263 1548 view .LVU870
	.loc 1 263 1559 view .LVU871
	.loc 1 263 1666 view .LVU872
	.loc 1 263 1682 view .LVU873
	.loc 1 263 1722 view .LVU874
	.loc 1 263 1747 view .LVU875
	.loc 1 263 3026 view .LVU876
	.loc 1 263 3067 view .LVU877
	.loc 1 263 8 view .LVU878
	.loc 1 263 31 view .LVU879
	.loc 1 263 130 view .LVU880
	.loc 1 263 7 view .LVU881
	.loc 1 263 12 view .LVU882
	.loc 1 263 237 view .LVU883
	.loc 1 263 1190 view .LVU884
	.loc 1 263 1255 view .LVU885
	.loc 1 263 1279 view .LVU886
	.loc 1 263 1308 view .LVU887
	.loc 1 263 1319 view .LVU888
	.loc 1 263 1406 view .LVU889
	.loc 1 263 1422 view .LVU890
	.loc 1 263 1462 view .LVU891
	.loc 1 263 2726 view .LVU892
	.loc 1 263 2767 view .LVU893
	.loc 1 263 8 view .LVU894
	.loc 1 263 31 view .LVU895
	.loc 1 263 10 view .LVU896
	.loc 1 263 6 view .LVU897
	.loc 1 263 29 view .LVU898
	.loc 1 263 53 view .LVU899
	.loc 1 263 81 view .LVU900
	.loc 1 263 257 view .LVU901
	.loc 1 263 17 view .LVU902
.LBB1628:
.LBB1622:
.LBB1620:
.LBB1618:
.LBB1616:
	.loc 1 263 30 view .LVU903
	.loc 1 263 4 view .LVU904
	.loc 1 263 4 view .LVU905
	.loc 1 263 71 view .LVU906
	.loc 1 263 83 is_stmt 0 view .LVU907
	sub	sp, sp, #32
	mov	r2, sp
.LVL36:
	.loc 1 263 75 is_stmt 1 view .LVU908
	.loc 1 263 485 view .LVU909
	.loc 1 263 6 view .LVU910
	.loc 1 263 8 view .LVU911
	.loc 1 263 13 view .LVU912
	.loc 1 263 11 view .LVU913
	.loc 1 263 6 view .LVU914
	.loc 1 263 24 view .LVU915
.LBB1611:
	.loc 1 263 4 view .LVU916
	.loc 1 263 369 view .LVU917
	.loc 1 263 76 view .LVU918
.LVL37:
	.loc 1 263 3 view .LVU919
	.loc 1 263 3 view .LVU920
	.loc 1 263 3 view .LVU921
	.loc 1 263 39 view .LVU922
	.loc 1 263 68 view .LVU923
	.loc 1 263 94 view .LVU924
	.loc 1 263 120 view .LVU925
	.loc 1 263 587 view .LVU926
	.loc 1 263 649 view .LVU927
	.loc 1 263 1170 view .LVU928
	.loc 1 263 1235 view .LVU929
	.loc 1 263 1260 view .LVU930
	.loc 1 263 1261 view .LVU931
	.loc 1 263 1263 view .LVU932
	.loc 1 263 1293 view .LVU933
	.loc 1 263 1323 view .LVU934
	.loc 1 263 1355 view .LVU935
	.loc 1 263 1387 view .LVU936
	.loc 1 263 1419 view .LVU937
	.loc 1 263 1616 view .LVU938
	.loc 1 263 1640 view .LVU939
	.loc 1 263 1641 view .LVU940
	.loc 1 263 1643 view .LVU941
	.loc 1 263 1672 view .LVU942
	.loc 1 263 1701 view .LVU943
	.loc 1 263 1732 view .LVU944
	.loc 1 263 1763 view .LVU945
	.loc 1 263 1794 view .LVU946
	.loc 1 263 2001 view .LVU947
.LBB1612:
	.loc 1 263 3064 view .LVU948
	.loc 1 263 3069 view .LVU949
	.loc 1 263 3633 view .LVU950
	.loc 1 263 0 is_stmt 0 view .LVU951
	ldr	r1, .L32+24
.LBE1612:
.LBE1611:
	.loc 1 263 150 view .LVU952
	ldr	r0, .L32+4
.LBB1615:
.LBB1613:
	.loc 1 263 3812 view .LVU953
	strd	r1, r3, [r2, #20]
	.loc 1 263 2767 is_stmt 1 view .LVU954
	.loc 1 263 8 view .LVU955
.LVL38:
	.loc 1 263 31 view .LVU956
	.loc 1 263 31 is_stmt 0 view .LVU957
.LBE1613:
	.loc 1 263 10 is_stmt 1 view .LVU958
	.loc 1 263 6 view .LVU959
	.loc 1 263 29 view .LVU960
	.loc 1 263 53 view .LVU961
	.loc 1 263 81 view .LVU962
	.loc 1 263 257 view .LVU963
	.loc 1 263 17 view .LVU964
.LBB1614:
	.loc 1 263 7 view .LVU965
	.loc 1 263 165 view .LVU966
	.loc 1 263 167 view .LVU967
	.loc 1 263 177 is_stmt 0 view .LVU968
	movs	r3, #3
.LVL39:
	.loc 1 263 177 view .LVU969
	str	r3, [r2, #16]!
.LVL40:
	.loc 1 263 177 view .LVU970
.LBE1614:
.LBE1615:
	.loc 1 263 27 is_stmt 1 view .LVU971
	.loc 1 263 8 view .LVU972
	.loc 1 263 148 view .LVU973
	.loc 1 263 150 view .LVU974
	mov	r1, #6208
	bl	z_log_msg_static_create.constprop.0
.LVL41:
	.loc 1 263 150 is_stmt 0 view .LVU975
	mov	sp, r8
.LVL42:
	.loc 1 263 150 view .LVU976
.LBE1616:
	.loc 1 263 108 is_stmt 1 view .LVU977
	.loc 1 263 6 view .LVU978
	.loc 1 263 43 view .LVU979
.LBE1618:
	.loc 1 263 7 view .LVU980
.LBE1620:
	.loc 1 263 279 view .LVU981
	.loc 1 263 6 view .LVU982
	.loc 1 263 19 view .LVU983
.LBE1622:
	.loc 1 263 7 view .LVU984
	.loc 1 264 4 view .LVU985
	.loc 1 264 7 is_stmt 0 view .LVU986
	cbz	r6, .L7
	.loc 1 266 5 is_stmt 1 view .LVU987
	.loc 1 266 48 is_stmt 0 view .LVU988
	ldr	r3, [r4, #40]
	.loc 1 266 55 view .LVU989
	bic	r3, r3, #128
	str	r3, [r4, #40]
.LVL43:
.L7:
	.loc 1 249 10 view .LVU990
	movs	r0, #19
.LVL44:
.L5:
	.loc 1 249 10 view .LVU991
.LBE1628:
	.loc 1 270 2 is_stmt 1 view .LVU992
	.loc 1 270 50 is_stmt 0 view .LVU993
	ldr	r3, .L32+8
	ldr	r3, [r3, #40]
	.loc 1 270 5 view .LVU994
	lsls	r6, r3, #31
.LVL45:
	.loc 1 270 5 view .LVU995
	bpl	.L9
	.loc 1 271 3 is_stmt 1 view .LVU996
.LVL46:
	.loc 1 272 3 view .LVU997
.LBB1629:
	.loc 1 272 8 view .LVU998
	.loc 1 272 57 view .LVU999
	.loc 1 272 14 view .LVU1000
	.loc 1 272 2 view .LVU1001
	.loc 1 272 41 view .LVU1002
	.loc 1 272 176 view .LVU1003
	.loc 1 272 187 view .LVU1004
	.loc 1 272 275 view .LVU1005
	.loc 1 272 3 view .LVU1006
	.loc 1 272 3 view .LVU1007
.LBB1630:
	.loc 1 272 8 view .LVU1008
	.loc 1 272 2 view .LVU1009
.LBE1630:
.LBE1629:
	.loc 1 272 3 view .LVU1010
	.loc 1 272 12 view .LVU1011
	.loc 1 272 107 view .LVU1012
	.loc 1 272 3 view .LVU1013
.LBB1647:
.LBB1643:
	.loc 1 272 12 view .LVU1014
	.loc 1 272 102 view .LVU1015
	.loc 1 272 104 view .LVU1016
.LBB1631:
	.loc 1 272 109 view .LVU1017
	.loc 1 272 120 view .LVU1018
	.loc 1 272 209 view .LVU1019
	.loc 1 272 26 view .LVU1020
.LBE1631:
.LBE1643:
.LBE1647:
	.loc 1 272 3 view .LVU1021
	.loc 1 272 368 view .LVU1022
	.loc 1 272 75 view .LVU1023
	.loc 1 272 2 view .LVU1024
	.loc 1 272 2 view .LVU1025
	.loc 1 272 2 view .LVU1026
	.loc 1 272 38 view .LVU1027
	.loc 1 272 4 view .LVU1028
	.loc 1 272 30 view .LVU1029
	.loc 1 272 56 view .LVU1030
	.loc 1 272 79 view .LVU1031
	.loc 1 272 141 view .LVU1032
	.loc 1 272 198 view .LVU1033
	.loc 1 272 263 view .LVU1034
	.loc 1 272 288 view .LVU1035
	.loc 1 272 289 view .LVU1036
	.loc 1 272 291 view .LVU1037
	.loc 1 272 321 view .LVU1038
	.loc 1 272 351 view .LVU1039
	.loc 1 272 383 view .LVU1040
	.loc 1 272 415 view .LVU1041
	.loc 1 272 447 view .LVU1042
	.loc 1 272 644 view .LVU1043
	.loc 1 272 668 view .LVU1044
	.loc 1 272 669 view .LVU1045
	.loc 1 272 671 view .LVU1046
	.loc 1 272 700 view .LVU1047
	.loc 1 272 729 view .LVU1048
	.loc 1 272 760 view .LVU1049
	.loc 1 272 791 view .LVU1050
	.loc 1 272 822 view .LVU1051
	.loc 1 272 1029 view .LVU1052
	.loc 1 272 4 view .LVU1053
	.loc 1 272 22 view .LVU1054
	.loc 1 272 42 view .LVU1055
	.loc 1 272 4 view .LVU1056
	.loc 1 272 42 view .LVU1057
	.loc 1 272 13 view .LVU1058
	.loc 1 272 13 view .LVU1059
	.loc 1 272 61 view .LVU1060
	.loc 1 272 92 view .LVU1061
	.loc 1 272 126 view .LVU1062
	.loc 1 272 131 view .LVU1063
	.loc 1 272 385 view .LVU1064
	.loc 1 272 1454 view .LVU1065
	.loc 1 272 1519 view .LVU1066
	.loc 1 272 1543 view .LVU1067
	.loc 1 272 1601 view .LVU1068
	.loc 1 272 1612 view .LVU1069
	.loc 1 272 1728 view .LVU1070
	.loc 1 272 1744 view .LVU1071
	.loc 1 272 1784 view .LVU1072
	.loc 1 272 1809 view .LVU1073
	.loc 1 272 3106 view .LVU1074
	.loc 1 272 3147 view .LVU1075
	.loc 1 272 7 view .LVU1076
	.loc 1 272 30 view .LVU1077
	.loc 1 272 129 view .LVU1078
	.loc 1 272 5 view .LVU1079
	.loc 1 272 28 view .LVU1080
	.loc 1 272 52 view .LVU1081
	.loc 1 272 80 view .LVU1082
	.loc 1 272 256 view .LVU1083
	.loc 1 272 16 view .LVU1084
.LBB1648:
.LBB1644:
.LBB1640:
	.loc 1 272 29 view .LVU1085
	.loc 1 272 3 view .LVU1086
	.loc 1 272 3 view .LVU1087
	.loc 1 272 70 view .LVU1088
	.loc 1 272 74 view .LVU1089
	.loc 1 272 484 view .LVU1090
	.loc 1 272 5 view .LVU1091
	.loc 1 272 7 view .LVU1092
	.loc 1 272 12 view .LVU1093
	.loc 1 272 10 view .LVU1094
	.loc 1 272 5 view .LVU1095
	.loc 1 272 23 view .LVU1096
.LBB1632:
	.loc 1 272 3 view .LVU1097
	.loc 1 272 368 view .LVU1098
	.loc 1 272 75 view .LVU1099
.LVL47:
	.loc 1 272 2 view .LVU1100
	.loc 1 272 2 view .LVU1101
	.loc 1 272 2 view .LVU1102
	.loc 1 272 38 view .LVU1103
	.loc 1 272 67 view .LVU1104
	.loc 1 272 93 view .LVU1105
	.loc 1 272 119 view .LVU1106
	.loc 1 272 142 view .LVU1107
	.loc 1 272 204 view .LVU1108
	.loc 1 272 261 view .LVU1109
	.loc 1 272 326 view .LVU1110
	.loc 1 272 351 view .LVU1111
	.loc 1 272 352 view .LVU1112
	.loc 1 272 354 view .LVU1113
	.loc 1 272 384 view .LVU1114
	.loc 1 272 414 view .LVU1115
	.loc 1 272 446 view .LVU1116
	.loc 1 272 478 view .LVU1117
	.loc 1 272 510 view .LVU1118
	.loc 1 272 707 view .LVU1119
	.loc 1 272 731 view .LVU1120
	.loc 1 272 732 view .LVU1121
	.loc 1 272 734 view .LVU1122
	.loc 1 272 763 view .LVU1123
	.loc 1 272 792 view .LVU1124
	.loc 1 272 823 view .LVU1125
	.loc 1 272 854 view .LVU1126
	.loc 1 272 885 view .LVU1127
	.loc 1 272 1092 view .LVU1128
	.loc 1 272 4 view .LVU1129
	.loc 1 272 22 view .LVU1130
	.loc 1 272 42 view .LVU1131
	.loc 1 272 4 view .LVU1132
	.loc 1 272 42 view .LVU1133
	.loc 1 272 13 view .LVU1134
	.loc 1 272 13 view .LVU1135
	.loc 1 272 61 view .LVU1136
	.loc 1 272 92 view .LVU1137
	.loc 1 272 126 view .LVU1138
.LBB1633:
	.loc 1 272 131 view .LVU1139
	.loc 1 272 385 view .LVU1140
	.loc 1 272 1454 view .LVU1141
	.loc 1 272 1519 view .LVU1142
.LBE1633:
.LBE1632:
.LBE1640:
.LBE1644:
.LBE1648:
	.loc 1 272 1543 view .LVU1143
	.loc 1 272 1601 view .LVU1144
	.loc 1 272 1612 view .LVU1145
	.loc 1 272 1728 view .LVU1146
.LBB1649:
.LBB1645:
.LBB1641:
.LBB1637:
.LBB1634:
	.loc 1 272 1744 view .LVU1147
	.loc 1 272 1784 view .LVU1148
	.loc 1 272 1809 view .LVU1149
	.loc 1 272 3106 view .LVU1150
	.loc 1 272 3144 view .LVU1151
	.loc 1 272 3149 view .LVU1152
	.loc 1 272 3767 view .LVU1153
	.loc 1 272 0 is_stmt 0 view .LVU1154
	ldr	r3, .L32+28
	str	r3, [r7, #20]
	.loc 1 272 3147 is_stmt 1 view .LVU1155
	.loc 1 272 7 view .LVU1156
.LVL48:
	.loc 1 272 30 view .LVU1157
	.loc 1 272 30 is_stmt 0 view .LVU1158
.LBE1634:
	.loc 1 272 129 is_stmt 1 view .LVU1159
	.loc 1 272 5 view .LVU1160
	.loc 1 272 28 view .LVU1161
	.loc 1 272 52 view .LVU1162
	.loc 1 272 80 view .LVU1163
.LBE1637:
.LBE1641:
.LBE1645:
.LBE1649:
	.loc 1 272 6 view .LVU1164
	.loc 1 272 45 view .LVU1165
	.loc 1 272 50 view .LVU1166
	.loc 1 272 80 view .LVU1167
	.loc 1 272 147 view .LVU1168
	.loc 1 272 152 view .LVU1169
	.loc 1 272 182 view .LVU1170
.LBB1650:
.LBB1646:
.LBB1642:
.LBB1638:
	.loc 1 272 256 view .LVU1171
	.loc 1 272 16 view .LVU1172
.LBB1635:
	.loc 1 272 6 view .LVU1173
	.loc 1 272 164 view .LVU1174
	.loc 1 272 166 view .LVU1175
	.loc 1 272 176 is_stmt 0 view .LVU1176
	movs	r3, #2
.LBE1635:
.LBE1638:
	.loc 1 272 149 view .LVU1177
	ldr	r0, .L32+4
.LBB1639:
.LBB1636:
	.loc 1 272 176 view .LVU1178
	str	r3, [r7, #16]
.LVL49:
	.loc 1 272 176 view .LVU1179
.LBE1636:
.LBE1639:
	.loc 1 272 26 is_stmt 1 view .LVU1180
	.loc 1 272 7 view .LVU1181
	.loc 1 272 147 view .LVU1182
	.loc 1 272 149 view .LVU1183
	add	r2, r7, #16
.LVL50:
	.loc 1 272 149 is_stmt 0 view .LVU1184
	mov	r1, #4160
	bl	z_log_msg_static_create.constprop.0
.LVL51:
	.loc 1 272 149 view .LVU1185
.LBE1642:
	.loc 1 272 107 is_stmt 1 view .LVU1186
	.loc 1 272 5 view .LVU1187
.LVL52:
	.loc 1 272 42 view .LVU1188
.LBE1646:
	.loc 1 272 6 view .LVU1189
	.loc 1 272 278 view .LVU1190
	.loc 1 272 5 view .LVU1191
	.loc 1 272 18 view .LVU1192
.LBE1650:
	.loc 1 271 10 is_stmt 0 view .LVU1193
	movs	r0, #20
.LVL53:
.L9:
	.loc 1 272 6 is_stmt 1 view .LVU1194
	.loc 1 275 2 view .LVU1195
	.loc 1 275 50 is_stmt 0 view .LVU1196
	ldr	r3, .L32+8
	ldr	r3, [r3, #40]
	.loc 1 275 5 view .LVU1197
	lsls	r4, r3, #26
	bpl	.L10
	.loc 1 276 3 is_stmt 1 view .LVU1198
.LVL54:
	.loc 1 277 3 view .LVU1199
.LBB1651:
	.loc 1 277 8 view .LVU1200
	.loc 1 277 57 view .LVU1201
	.loc 1 277 14 view .LVU1202
	.loc 1 277 2 view .LVU1203
	.loc 1 277 41 view .LVU1204
	.loc 1 277 176 view .LVU1205
	.loc 1 277 187 view .LVU1206
	.loc 1 277 275 view .LVU1207
	.loc 1 277 3 view .LVU1208
	.loc 1 277 3 view .LVU1209
.LBB1652:
	.loc 1 277 8 view .LVU1210
	.loc 1 277 2 view .LVU1211
.LBE1652:
.LBE1651:
	.loc 1 277 3 view .LVU1212
	.loc 1 277 12 view .LVU1213
	.loc 1 277 107 view .LVU1214
	.loc 1 277 3 view .LVU1215
.LBB1669:
.LBB1665:
	.loc 1 277 12 view .LVU1216
	.loc 1 277 102 view .LVU1217
	.loc 1 277 104 view .LVU1218
.LBB1653:
	.loc 1 277 109 view .LVU1219
	.loc 1 277 120 view .LVU1220
	.loc 1 277 209 view .LVU1221
	.loc 1 277 26 view .LVU1222
.LBE1653:
.LBE1665:
.LBE1669:
	.loc 1 277 3 view .LVU1223
	.loc 1 277 368 view .LVU1224
	.loc 1 277 75 view .LVU1225
	.loc 1 277 2 view .LVU1226
	.loc 1 277 2 view .LVU1227
	.loc 1 277 2 view .LVU1228
	.loc 1 277 38 view .LVU1229
	.loc 1 277 4 view .LVU1230
	.loc 1 277 30 view .LVU1231
	.loc 1 277 56 view .LVU1232
	.loc 1 277 79 view .LVU1233
	.loc 1 277 141 view .LVU1234
	.loc 1 277 198 view .LVU1235
	.loc 1 277 263 view .LVU1236
	.loc 1 277 288 view .LVU1237
	.loc 1 277 289 view .LVU1238
	.loc 1 277 291 view .LVU1239
	.loc 1 277 321 view .LVU1240
	.loc 1 277 351 view .LVU1241
	.loc 1 277 383 view .LVU1242
	.loc 1 277 415 view .LVU1243
	.loc 1 277 447 view .LVU1244
	.loc 1 277 644 view .LVU1245
	.loc 1 277 668 view .LVU1246
	.loc 1 277 669 view .LVU1247
	.loc 1 277 671 view .LVU1248
	.loc 1 277 700 view .LVU1249
	.loc 1 277 729 view .LVU1250
	.loc 1 277 760 view .LVU1251
	.loc 1 277 791 view .LVU1252
	.loc 1 277 822 view .LVU1253
	.loc 1 277 1029 view .LVU1254
	.loc 1 277 4 view .LVU1255
	.loc 1 277 22 view .LVU1256
	.loc 1 277 42 view .LVU1257
	.loc 1 277 4 view .LVU1258
	.loc 1 277 42 view .LVU1259
	.loc 1 277 13 view .LVU1260
	.loc 1 277 13 view .LVU1261
	.loc 1 277 61 view .LVU1262
	.loc 1 277 92 view .LVU1263
	.loc 1 277 126 view .LVU1264
	.loc 1 277 131 view .LVU1265
	.loc 1 277 401 view .LVU1266
	.loc 1 277 1534 view .LVU1267
	.loc 1 277 1599 view .LVU1268
	.loc 1 277 1623 view .LVU1269
	.loc 1 277 1697 view .LVU1270
	.loc 1 277 1708 view .LVU1271
	.loc 1 277 1840 view .LVU1272
	.loc 1 277 1856 view .LVU1273
	.loc 1 277 1896 view .LVU1274
	.loc 1 277 1921 view .LVU1275
	.loc 1 277 3250 view .LVU1276
	.loc 1 277 3291 view .LVU1277
	.loc 1 277 7 view .LVU1278
	.loc 1 277 30 view .LVU1279
	.loc 1 277 129 view .LVU1280
	.loc 1 277 5 view .LVU1281
	.loc 1 277 28 view .LVU1282
	.loc 1 277 52 view .LVU1283
	.loc 1 277 80 view .LVU1284
	.loc 1 277 256 view .LVU1285
	.loc 1 277 16 view .LVU1286
.LBB1670:
.LBB1666:
.LBB1662:
	.loc 1 277 29 view .LVU1287
	.loc 1 277 3 view .LVU1288
	.loc 1 277 3 view .LVU1289
	.loc 1 277 70 view .LVU1290
	.loc 1 277 74 view .LVU1291
	.loc 1 277 484 view .LVU1292
	.loc 1 277 5 view .LVU1293
	.loc 1 277 7 view .LVU1294
	.loc 1 277 12 view .LVU1295
	.loc 1 277 10 view .LVU1296
	.loc 1 277 5 view .LVU1297
	.loc 1 277 23 view .LVU1298
.LBB1654:
	.loc 1 277 3 view .LVU1299
	.loc 1 277 368 view .LVU1300
	.loc 1 277 75 view .LVU1301
.LVL55:
	.loc 1 277 2 view .LVU1302
	.loc 1 277 2 view .LVU1303
	.loc 1 277 2 view .LVU1304
	.loc 1 277 38 view .LVU1305
	.loc 1 277 67 view .LVU1306
	.loc 1 277 93 view .LVU1307
	.loc 1 277 119 view .LVU1308
	.loc 1 277 142 view .LVU1309
	.loc 1 277 204 view .LVU1310
	.loc 1 277 261 view .LVU1311
	.loc 1 277 326 view .LVU1312
	.loc 1 277 351 view .LVU1313
	.loc 1 277 352 view .LVU1314
	.loc 1 277 354 view .LVU1315
	.loc 1 277 384 view .LVU1316
	.loc 1 277 414 view .LVU1317
	.loc 1 277 446 view .LVU1318
	.loc 1 277 478 view .LVU1319
	.loc 1 277 510 view .LVU1320
	.loc 1 277 707 view .LVU1321
	.loc 1 277 731 view .LVU1322
	.loc 1 277 732 view .LVU1323
	.loc 1 277 734 view .LVU1324
	.loc 1 277 763 view .LVU1325
	.loc 1 277 792 view .LVU1326
	.loc 1 277 823 view .LVU1327
	.loc 1 277 854 view .LVU1328
	.loc 1 277 885 view .LVU1329
	.loc 1 277 1092 view .LVU1330
	.loc 1 277 4 view .LVU1331
	.loc 1 277 22 view .LVU1332
	.loc 1 277 42 view .LVU1333
	.loc 1 277 4 view .LVU1334
	.loc 1 277 42 view .LVU1335
	.loc 1 277 13 view .LVU1336
	.loc 1 277 13 view .LVU1337
	.loc 1 277 61 view .LVU1338
	.loc 1 277 92 view .LVU1339
	.loc 1 277 126 view .LVU1340
.LBB1655:
	.loc 1 277 131 view .LVU1341
	.loc 1 277 401 view .LVU1342
	.loc 1 277 1534 view .LVU1343
	.loc 1 277 1599 view .LVU1344
.LBE1655:
.LBE1654:
.LBE1662:
.LBE1666:
.LBE1670:
	.loc 1 277 1623 view .LVU1345
	.loc 1 277 1697 view .LVU1346
	.loc 1 277 1708 view .LVU1347
	.loc 1 277 1840 view .LVU1348
.LBB1671:
.LBB1667:
.LBB1663:
.LBB1659:
.LBB1656:
	.loc 1 277 1856 view .LVU1349
	.loc 1 277 1896 view .LVU1350
	.loc 1 277 1921 view .LVU1351
	.loc 1 277 3250 view .LVU1352
	.loc 1 277 3288 view .LVU1353
	.loc 1 277 3293 view .LVU1354
	.loc 1 277 4007 view .LVU1355
	.loc 1 277 0 is_stmt 0 view .LVU1356
	ldr	r3, .L32+32
	str	r3, [r7, #20]
	.loc 1 277 3291 is_stmt 1 view .LVU1357
	.loc 1 277 7 view .LVU1358
.LVL56:
	.loc 1 277 30 view .LVU1359
	.loc 1 277 30 is_stmt 0 view .LVU1360
.LBE1656:
	.loc 1 277 129 is_stmt 1 view .LVU1361
	.loc 1 277 5 view .LVU1362
	.loc 1 277 28 view .LVU1363
	.loc 1 277 52 view .LVU1364
	.loc 1 277 80 view .LVU1365
.LBE1659:
.LBE1663:
.LBE1667:
.LBE1671:
	.loc 1 277 6 view .LVU1366
	.loc 1 277 45 view .LVU1367
	.loc 1 277 50 view .LVU1368
	.loc 1 277 80 view .LVU1369
	.loc 1 277 147 view .LVU1370
	.loc 1 277 152 view .LVU1371
	.loc 1 277 182 view .LVU1372
.LBB1672:
.LBB1668:
.LBB1664:
.LBB1660:
	.loc 1 277 256 view .LVU1373
	.loc 1 277 16 view .LVU1374
.LBB1657:
	.loc 1 277 6 view .LVU1375
	.loc 1 277 164 view .LVU1376
	.loc 1 277 166 view .LVU1377
	.loc 1 277 176 is_stmt 0 view .LVU1378
	movs	r3, #2
.LBE1657:
.LBE1660:
	.loc 1 277 149 view .LVU1379
	ldr	r0, .L32+4
.LBB1661:
.LBB1658:
	.loc 1 277 176 view .LVU1380
	str	r3, [r7, #16]
.LVL57:
	.loc 1 277 176 view .LVU1381
.LBE1658:
.LBE1661:
	.loc 1 277 26 is_stmt 1 view .LVU1382
	.loc 1 277 7 view .LVU1383
	.loc 1 277 147 view .LVU1384
	.loc 1 277 149 view .LVU1385
	add	r2, r7, #16
.LVL58:
	.loc 1 277 149 is_stmt 0 view .LVU1386
	mov	r1, #4160
	bl	z_log_msg_static_create.constprop.0
.LVL59:
	.loc 1 277 149 view .LVU1387
.LBE1664:
	.loc 1 277 107 is_stmt 1 view .LVU1388
	.loc 1 277 5 view .LVU1389
.LVL60:
	.loc 1 277 42 view .LVU1390
.LBE1668:
	.loc 1 277 6 view .LVU1391
	.loc 1 277 278 view .LVU1392
	.loc 1 277 5 view .LVU1393
	.loc 1 277 18 view .LVU1394
.LBE1672:
	.loc 1 276 10 is_stmt 0 view .LVU1395
	movs	r0, #21
.LVL61:
.L10:
	.loc 1 277 6 is_stmt 1 view .LVU1396
	.loc 1 295 2 view .LVU1397
	.loc 1 295 50 is_stmt 0 view .LVU1398
	ldr	r3, .L32+8
	ldr	r2, [r3, #40]
	.loc 1 295 5 view .LVU1399
	lsls	r1, r2, #27
	.loc 1 296 47 view .LVU1400
	it	pl
	ldrpl	r2, [r3, #40]
	.loc 1 354 2 is_stmt 1 view .LVU1401
	.loc 1 355 4 view .LVU1402
	.loc 1 357 64 view .LVU1403
	.loc 1 367 2 view .LVU1404
	.loc 1 367 50 is_stmt 0 view .LVU1405
	ldr	r2, [r3, #40]
	.loc 1 367 5 view .LVU1406
	lsls	r2, r2, #26
	.loc 1 368 3 is_stmt 1 view .LVU1407
	.loc 1 368 46 is_stmt 0 view .LVU1408
	ittt	mi
	ldrmi	r2, [r3, #36]
	.loc 1 368 54 view .LVU1409
	bicmi	r2, r2, #8192
	strmi	r2, [r3, #36]
	.loc 1 373 2 is_stmt 1 view .LVU1410
	.loc 1 373 45 is_stmt 0 view .LVU1411
	ldr	r2, [r3, #40]
	.loc 1 373 52 view .LVU1412
	orr	r2, r2, #255
	str	r2, [r3, #40]
	.loc 1 376 2 is_stmt 1 view .LVU1413
	.loc 1 379 1 is_stmt 0 view .LVU1414
	adds	r7, r7, #24
	.cfi_remember_state
	.cfi_def_cfa_offset 24
.LVL62:
	.loc 1 376 15 view .LVU1415
	movs	r3, #0
	strb	r3, [r5]
	.loc 1 378 2 is_stmt 1 view .LVU1416
	.loc 1 379 1 is_stmt 0 view .LVU1417
	mov	sp, r7
	.cfi_def_cfa_register 13
.LVL63:
	.loc 1 379 1 view .LVU1418
	@ sp needed
	pop	{r4, r5, r6, r7, r8, pc}
.LVL64:
.L13:
	.cfi_restore_state
	.loc 1 234 11 view .LVU1419
	movs	r0, #16
	b	.L3
.L33:
	.align	2
.L32:
	.word	.LC0
	.word	log_const_os
	.word	-536810240
	.word	.LC1
	.word	.LC2
	.word	.LC3
	.word	.LC4
	.word	.LC5
	.word	.LC6
	.cfi_endproc
.LFE500:
	.size	mem_manage_fault.constprop.0, .-mem_manage_fault.constprop.0
	.section	.rodata.bus_fault.constprop.0.str1.1,"aMS",%progbits,1
.LC7:
	.ascii	"***** BUS FAULT *****\000"
.LC8:
	.ascii	"  Stacking error\000"
.LC9:
	.ascii	"  Precise data bus error\000"
.LC10:
	.ascii	"  BFAR Address: 0x%x\000"
.LC11:
	.ascii	"  Imprecise data bus error\000"
.LC12:
	.ascii	"  Instruction bus error\000"
	.section	.text.bus_fault.constprop.0,"ax",%progbits
	.align	1
	.syntax unified
	.thumb
	.thumb_func
	.type	bus_fault.constprop.0, %function
bus_fault.constprop.0:
.LVL65:
.LFB501:
	.loc 1 390 12 is_stmt 1 view -0
	.cfi_startproc
	@ args = 0, pretend = 0, frame = 24
	@ frame_needed = 1, uses_anonymous_args = 0
	.loc 1 392 2 view .LVU1421
	.loc 1 394 2 view .LVU1422
.LBB1724:
	.loc 1 394 7 view .LVU1423
	.loc 1 394 56 view .LVU1424
	.loc 1 394 13 view .LVU1425
	.loc 1 394 1 view .LVU1426
	.loc 1 394 40 view .LVU1427
	.loc 1 394 175 view .LVU1428
	.loc 1 394 186 view .LVU1429
	.loc 1 394 274 view .LVU1430
	.loc 1 394 2 view .LVU1431
	.loc 1 394 2 view .LVU1432
.LBB1725:
	.loc 1 394 7 view .LVU1433
	.loc 1 394 1 view .LVU1434
.LBE1725:
.LBE1724:
	.loc 1 394 2 view .LVU1435
	.loc 1 394 11 view .LVU1436
	.loc 1 394 106 view .LVU1437
	.loc 1 394 2 view .LVU1438
.LBB1746:
.LBB1740:
	.loc 1 394 11 view .LVU1439
	.loc 1 394 101 view .LVU1440
	.loc 1 394 103 view .LVU1441
.LBB1726:
	.loc 1 394 108 view .LVU1442
	.loc 1 394 119 view .LVU1443
	.loc 1 394 208 view .LVU1444
	.loc 1 394 25 view .LVU1445
.LBE1726:
.LBE1740:
.LBE1746:
	.loc 1 394 2 view .LVU1446
	.loc 1 394 367 view .LVU1447
	.loc 1 394 74 view .LVU1448
	.loc 1 394 1 view .LVU1449
	.loc 1 394 1 view .LVU1450
	.loc 1 394 1 view .LVU1451
	.loc 1 394 37 view .LVU1452
	.loc 1 394 3 view .LVU1453
	.loc 1 394 29 view .LVU1454
	.loc 1 394 55 view .LVU1455
	.loc 1 394 78 view .LVU1456
	.loc 1 394 140 view .LVU1457
	.loc 1 394 197 view .LVU1458
	.loc 1 394 262 view .LVU1459
	.loc 1 394 287 view .LVU1460
	.loc 1 394 288 view .LVU1461
	.loc 1 394 290 view .LVU1462
	.loc 1 394 320 view .LVU1463
	.loc 1 394 350 view .LVU1464
	.loc 1 394 382 view .LVU1465
	.loc 1 394 414 view .LVU1466
	.loc 1 394 446 view .LVU1467
	.loc 1 394 643 view .LVU1468
	.loc 1 394 667 view .LVU1469
	.loc 1 394 668 view .LVU1470
	.loc 1 394 670 view .LVU1471
	.loc 1 394 699 view .LVU1472
	.loc 1 394 728 view .LVU1473
	.loc 1 394 759 view .LVU1474
	.loc 1 394 790 view .LVU1475
	.loc 1 394 821 view .LVU1476
	.loc 1 394 1028 view .LVU1477
	.loc 1 394 3 view .LVU1478
	.loc 1 394 21 view .LVU1479
	.loc 1 394 41 view .LVU1480
	.loc 1 394 3 view .LVU1481
	.loc 1 394 41 view .LVU1482
	.loc 1 394 12 view .LVU1483
	.loc 1 394 12 view .LVU1484
	.loc 1 394 60 view .LVU1485
	.loc 1 394 91 view .LVU1486
	.loc 1 394 125 view .LVU1487
	.loc 1 394 130 view .LVU1488
	.loc 1 394 375 view .LVU1489
	.loc 1 394 1408 view .LVU1490
	.loc 1 394 1473 view .LVU1491
	.loc 1 394 1497 view .LVU1492
	.loc 1 394 1546 view .LVU1493
	.loc 1 394 1557 view .LVU1494
	.loc 1 394 1664 view .LVU1495
	.loc 1 394 1680 view .LVU1496
	.loc 1 394 1720 view .LVU1497
	.loc 1 394 1745 view .LVU1498
	.loc 1 394 3024 view .LVU1499
	.loc 1 394 3065 view .LVU1500
	.loc 1 394 6 view .LVU1501
	.loc 1 394 29 view .LVU1502
	.loc 1 394 128 view .LVU1503
	.loc 1 394 4 view .LVU1504
	.loc 1 394 27 view .LVU1505
	.loc 1 394 51 view .LVU1506
	.loc 1 394 79 view .LVU1507
	.loc 1 394 255 view .LVU1508
	.loc 1 394 15 view .LVU1509
.LBB1747:
.LBB1741:
.LBB1735:
	.loc 1 394 28 view .LVU1510
	.loc 1 394 2 view .LVU1511
	.loc 1 394 2 view .LVU1512
	.loc 1 394 69 view .LVU1513
	.loc 1 394 69 is_stmt 0 view .LVU1514
.LBE1735:
.LBE1741:
.LBE1747:
	.loc 1 390 12 view .LVU1515
	push	{r4, r5, r6, r7, r8, lr}
	.cfi_def_cfa_offset 24
	.cfi_offset 4, -24
	.cfi_offset 5, -20
	.cfi_offset 6, -16
	.cfi_offset 7, -12
	.cfi_offset 8, -8
	.cfi_offset 14, -4
	sub	sp, sp, #24
	.cfi_def_cfa_offset 48
	mov	r6, r0
	add	r7, sp, #0
	.cfi_def_cfa_register 7
.LVL66:
.LBB1748:
.LBB1742:
.LBB1736:
	.loc 1 394 73 is_stmt 1 view .LVU1516
	.loc 1 394 483 view .LVU1517
	.loc 1 394 4 view .LVU1518
	.loc 1 394 6 view .LVU1519
	.loc 1 394 11 view .LVU1520
.LBE1736:
.LBE1742:
.LBE1748:
	.loc 1 390 12 is_stmt 0 view .LVU1521
	mov	r5, r1
.LBB1749:
.LBB1743:
.LBB1737:
	.loc 1 394 11 view .LVU1522
	.loc 1 394 9 is_stmt 1 view .LVU1523
	.loc 1 394 4 view .LVU1524
	.loc 1 394 22 view .LVU1525
.LBB1727:
	.loc 1 394 2 view .LVU1526
	.loc 1 394 367 view .LVU1527
	.loc 1 394 74 view .LVU1528
.LVL67:
	.loc 1 394 1 view .LVU1529
	.loc 1 394 1 view .LVU1530
	.loc 1 394 1 view .LVU1531
	.loc 1 394 37 view .LVU1532
	.loc 1 394 66 view .LVU1533
	.loc 1 394 92 view .LVU1534
	.loc 1 394 118 view .LVU1535
	.loc 1 394 141 view .LVU1536
	.loc 1 394 203 view .LVU1537
	.loc 1 394 260 view .LVU1538
	.loc 1 394 325 view .LVU1539
	.loc 1 394 350 view .LVU1540
	.loc 1 394 351 view .LVU1541
	.loc 1 394 353 view .LVU1542
	.loc 1 394 383 view .LVU1543
	.loc 1 394 413 view .LVU1544
	.loc 1 394 445 view .LVU1545
	.loc 1 394 477 view .LVU1546
	.loc 1 394 509 view .LVU1547
	.loc 1 394 706 view .LVU1548
	.loc 1 394 730 view .LVU1549
	.loc 1 394 731 view .LVU1550
	.loc 1 394 733 view .LVU1551
	.loc 1 394 762 view .LVU1552
	.loc 1 394 791 view .LVU1553
	.loc 1 394 822 view .LVU1554
	.loc 1 394 853 view .LVU1555
	.loc 1 394 884 view .LVU1556
	.loc 1 394 1091 view .LVU1557
	.loc 1 394 3 view .LVU1558
	.loc 1 394 21 view .LVU1559
	.loc 1 394 41 view .LVU1560
	.loc 1 394 3 view .LVU1561
	.loc 1 394 41 view .LVU1562
	.loc 1 394 12 view .LVU1563
	.loc 1 394 12 view .LVU1564
	.loc 1 394 60 view .LVU1565
	.loc 1 394 91 view .LVU1566
	.loc 1 394 125 view .LVU1567
.LBB1728:
	.loc 1 394 130 view .LVU1568
	.loc 1 394 375 view .LVU1569
	.loc 1 394 1408 view .LVU1570
	.loc 1 394 1473 view .LVU1571
.LBE1728:
.LBE1727:
.LBE1737:
.LBE1743:
.LBE1749:
	.loc 1 394 1497 view .LVU1572
	.loc 1 394 1546 view .LVU1573
	.loc 1 394 1557 view .LVU1574
	.loc 1 394 1664 view .LVU1575
.LBB1750:
.LBB1744:
.LBB1738:
.LBB1732:
.LBB1729:
	.loc 1 394 1680 view .LVU1576
	.loc 1 394 1720 view .LVU1577
	.loc 1 394 1745 view .LVU1578
	.loc 1 394 3024 view .LVU1579
	.loc 1 394 3062 view .LVU1580
	.loc 1 394 3067 view .LVU1581
	.loc 1 394 3631 view .LVU1582
	.loc 1 394 0 is_stmt 0 view .LVU1583
	ldr	r3, .L60
	str	r3, [r7, #20]
	.loc 1 394 3065 is_stmt 1 view .LVU1584
	.loc 1 394 6 view .LVU1585
.LVL68:
	.loc 1 394 29 view .LVU1586
	.loc 1 394 29 is_stmt 0 view .LVU1587
.LBE1729:
	.loc 1 394 128 is_stmt 1 view .LVU1588
	.loc 1 394 4 view .LVU1589
	.loc 1 394 27 view .LVU1590
	.loc 1 394 51 view .LVU1591
	.loc 1 394 79 view .LVU1592
.LBE1732:
.LBE1738:
.LBE1744:
.LBE1750:
	.loc 1 394 5 view .LVU1593
	.loc 1 394 44 view .LVU1594
	.loc 1 394 49 view .LVU1595
	.loc 1 394 79 view .LVU1596
	.loc 1 394 146 view .LVU1597
	.loc 1 394 151 view .LVU1598
	.loc 1 394 181 view .LVU1599
.LBB1751:
.LBB1745:
.LBB1739:
.LBB1733:
	.loc 1 394 255 view .LVU1600
	.loc 1 394 15 view .LVU1601
.LBB1730:
	.loc 1 394 5 view .LVU1602
	.loc 1 394 163 view .LVU1603
	.loc 1 394 165 view .LVU1604
	.loc 1 394 175 is_stmt 0 view .LVU1605
	movs	r4, #2
.LBE1730:
.LBE1733:
	.loc 1 394 148 view .LVU1606
	mov	r1, #4160
.LVL69:
	.loc 1 394 148 view .LVU1607
	ldr	r0, .L60+4
.LVL70:
.LBB1734:
.LBB1731:
	.loc 1 394 175 view .LVU1608
	str	r4, [r7, #16]
.LVL71:
	.loc 1 394 175 view .LVU1609
.LBE1731:
.LBE1734:
	.loc 1 394 25 is_stmt 1 view .LVU1610
	.loc 1 394 6 view .LVU1611
	.loc 1 394 146 view .LVU1612
	.loc 1 394 148 view .LVU1613
	add	r2, r7, #16
.LVL72:
	.loc 1 394 148 is_stmt 0 view .LVU1614
	bl	z_log_msg_static_create.constprop.0
.LVL73:
	.loc 1 394 148 view .LVU1615
.LBE1739:
	.loc 1 394 106 is_stmt 1 view .LVU1616
	.loc 1 394 4 view .LVU1617
.LVL74:
	.loc 1 394 41 view .LVU1618
.LBE1745:
	.loc 1 394 5 view .LVU1619
	.loc 1 394 277 view .LVU1620
	.loc 1 394 4 view .LVU1621
	.loc 1 394 17 view .LVU1622
.LBE1751:
	.loc 1 394 5 view .LVU1623
	.loc 1 396 2 view .LVU1624
	.loc 1 396 49 is_stmt 0 view .LVU1625
	ldr	r3, .L60+8
	ldr	r3, [r3, #40]
	.loc 1 396 5 view .LVU1626
	lsls	r1, r3, #19
	bpl	.L44
	.loc 1 397 3 is_stmt 1 view .LVU1627
.LVL75:
	.loc 1 398 3 view .LVU1628
.LBB1752:
	.loc 1 398 8 view .LVU1629
	.loc 1 398 57 view .LVU1630
	.loc 1 398 14 view .LVU1631
	.loc 1 398 2 view .LVU1632
	.loc 1 398 41 view .LVU1633
	.loc 1 398 176 view .LVU1634
	.loc 1 398 187 view .LVU1635
	.loc 1 398 275 view .LVU1636
	.loc 1 398 3 view .LVU1637
	.loc 1 398 3 view .LVU1638
.LBB1753:
	.loc 1 398 8 view .LVU1639
	.loc 1 398 2 view .LVU1640
.LBE1753:
.LBE1752:
	.loc 1 398 3 view .LVU1641
	.loc 1 398 12 view .LVU1642
	.loc 1 398 107 view .LVU1643
	.loc 1 398 3 view .LVU1644
.LBB1766:
.LBB1763:
	.loc 1 398 12 view .LVU1645
	.loc 1 398 102 view .LVU1646
	.loc 1 398 104 view .LVU1647
.LBB1754:
	.loc 1 398 109 view .LVU1648
	.loc 1 398 120 view .LVU1649
	.loc 1 398 209 view .LVU1650
	.loc 1 398 26 view .LVU1651
.LBE1754:
.LBE1763:
.LBE1766:
	.loc 1 398 3 view .LVU1652
	.loc 1 398 368 view .LVU1653
	.loc 1 398 75 view .LVU1654
	.loc 1 398 2 view .LVU1655
	.loc 1 398 2 view .LVU1656
	.loc 1 398 2 view .LVU1657
	.loc 1 398 38 view .LVU1658
	.loc 1 398 4 view .LVU1659
	.loc 1 398 30 view .LVU1660
	.loc 1 398 56 view .LVU1661
	.loc 1 398 79 view .LVU1662
	.loc 1 398 141 view .LVU1663
	.loc 1 398 198 view .LVU1664
	.loc 1 398 263 view .LVU1665
	.loc 1 398 288 view .LVU1666
	.loc 1 398 289 view .LVU1667
	.loc 1 398 291 view .LVU1668
	.loc 1 398 321 view .LVU1669
	.loc 1 398 351 view .LVU1670
	.loc 1 398 383 view .LVU1671
	.loc 1 398 415 view .LVU1672
	.loc 1 398 447 view .LVU1673
	.loc 1 398 644 view .LVU1674
	.loc 1 398 668 view .LVU1675
	.loc 1 398 669 view .LVU1676
	.loc 1 398 671 view .LVU1677
	.loc 1 398 700 view .LVU1678
	.loc 1 398 729 view .LVU1679
	.loc 1 398 760 view .LVU1680
	.loc 1 398 791 view .LVU1681
	.loc 1 398 822 view .LVU1682
	.loc 1 398 1029 view .LVU1683
	.loc 1 398 4 view .LVU1684
	.loc 1 398 22 view .LVU1685
	.loc 1 398 42 view .LVU1686
	.loc 1 398 4 view .LVU1687
	.loc 1 398 42 view .LVU1688
	.loc 1 398 13 view .LVU1689
	.loc 1 398 13 view .LVU1690
	.loc 1 398 61 view .LVU1691
	.loc 1 398 92 view .LVU1692
	.loc 1 398 126 view .LVU1693
	.loc 1 398 131 view .LVU1694
	.loc 1 398 371 view .LVU1695
	.loc 1 398 1384 view .LVU1696
	.loc 1 398 1449 view .LVU1697
	.loc 1 398 1473 view .LVU1698
	.loc 1 398 1517 view .LVU1699
	.loc 1 398 1528 view .LVU1700
	.loc 1 398 1630 view .LVU1701
	.loc 1 398 1646 view .LVU1702
	.loc 1 398 1686 view .LVU1703
	.loc 1 398 1711 view .LVU1704
	.loc 1 398 2980 view .LVU1705
	.loc 1 398 3021 view .LVU1706
	.loc 1 398 7 view .LVU1707
	.loc 1 398 30 view .LVU1708
	.loc 1 398 129 view .LVU1709
	.loc 1 398 5 view .LVU1710
	.loc 1 398 28 view .LVU1711
	.loc 1 398 52 view .LVU1712
	.loc 1 398 80 view .LVU1713
	.loc 1 398 256 view .LVU1714
	.loc 1 398 16 view .LVU1715
.LBB1767:
.LBB1764:
.LBB1761:
	.loc 1 398 29 view .LVU1716
	.loc 1 398 3 view .LVU1717
	.loc 1 398 3 view .LVU1718
	.loc 1 398 70 view .LVU1719
	.loc 1 398 74 view .LVU1720
	.loc 1 398 484 view .LVU1721
	.loc 1 398 5 view .LVU1722
	.loc 1 398 7 view .LVU1723
	.loc 1 398 12 view .LVU1724
	.loc 1 398 10 view .LVU1725
	.loc 1 398 5 view .LVU1726
	.loc 1 398 23 view .LVU1727
.LBB1755:
	.loc 1 398 3 view .LVU1728
	.loc 1 398 368 view .LVU1729
	.loc 1 398 75 view .LVU1730
.LVL76:
	.loc 1 398 2 view .LVU1731
	.loc 1 398 2 view .LVU1732
	.loc 1 398 2 view .LVU1733
	.loc 1 398 38 view .LVU1734
	.loc 1 398 67 view .LVU1735
	.loc 1 398 93 view .LVU1736
	.loc 1 398 119 view .LVU1737
	.loc 1 398 142 view .LVU1738
	.loc 1 398 204 view .LVU1739
	.loc 1 398 261 view .LVU1740
	.loc 1 398 326 view .LVU1741
	.loc 1 398 351 view .LVU1742
	.loc 1 398 352 view .LVU1743
	.loc 1 398 354 view .LVU1744
	.loc 1 398 384 view .LVU1745
	.loc 1 398 414 view .LVU1746
	.loc 1 398 446 view .LVU1747
	.loc 1 398 478 view .LVU1748
	.loc 1 398 510 view .LVU1749
	.loc 1 398 707 view .LVU1750
	.loc 1 398 731 view .LVU1751
	.loc 1 398 732 view .LVU1752
	.loc 1 398 734 view .LVU1753
	.loc 1 398 763 view .LVU1754
	.loc 1 398 792 view .LVU1755
	.loc 1 398 823 view .LVU1756
	.loc 1 398 854 view .LVU1757
	.loc 1 398 885 view .LVU1758
	.loc 1 398 1092 view .LVU1759
	.loc 1 398 4 view .LVU1760
	.loc 1 398 22 view .LVU1761
	.loc 1 398 42 view .LVU1762
	.loc 1 398 4 view .LVU1763
	.loc 1 398 42 view .LVU1764
	.loc 1 398 13 view .LVU1765
	.loc 1 398 13 view .LVU1766
	.loc 1 398 61 view .LVU1767
	.loc 1 398 92 view .LVU1768
	.loc 1 398 126 view .LVU1769
.LBB1756:
	.loc 1 398 131 view .LVU1770
	.loc 1 398 371 view .LVU1771
	.loc 1 398 1384 view .LVU1772
	.loc 1 398 1449 view .LVU1773
.LBE1756:
.LBE1755:
.LBE1761:
.LBE1764:
.LBE1767:
	.loc 1 398 1473 view .LVU1774
	.loc 1 398 1517 view .LVU1775
	.loc 1 398 1528 view .LVU1776
	.loc 1 398 1630 view .LVU1777
.LBB1768:
.LBB1765:
.LBB1762:
.LBB1759:
.LBB1757:
	.loc 1 398 1646 view .LVU1778
	.loc 1 398 1686 view .LVU1779
	.loc 1 398 1711 view .LVU1780
	.loc 1 398 2980 view .LVU1781
	.loc 1 398 3018 view .LVU1782
	.loc 1 398 3023 view .LVU1783
	.loc 1 398 3557 view .LVU1784
	.loc 1 398 0 is_stmt 0 view .LVU1785
	ldr	r3, .L60+12
.LBE1757:
.LBE1759:
	.loc 1 398 149 view .LVU1786
	ldr	r0, .L60+4
.LBB1760:
.LBB1758:
	.loc 1 398 176 view .LVU1787
	strd	r4, r3, [r7, #16]
	.loc 1 398 176 view .LVU1788
.LBE1758:
.LBE1760:
	.loc 1 398 26 is_stmt 1 view .LVU1789
	.loc 1 398 7 view .LVU1790
	.loc 1 398 147 view .LVU1791
	.loc 1 398 149 view .LVU1792
	add	r2, r7, #16
.LVL77:
	.loc 1 398 149 is_stmt 0 view .LVU1793
	mov	r1, #4160
	bl	z_log_msg_static_create.constprop.0
.LVL78:
	.loc 1 398 149 view .LVU1794
.LBE1762:
	.loc 1 398 107 is_stmt 1 view .LVU1795
	.loc 1 398 5 view .LVU1796
.LVL79:
	.loc 1 398 42 view .LVU1797
.LBE1765:
	.loc 1 398 6 view .LVU1798
	.loc 1 398 278 view .LVU1799
	.loc 1 398 5 view .LVU1800
	.loc 1 398 18 view .LVU1801
.LBE1768:
	.loc 1 397 10 is_stmt 0 view .LVU1802
	movs	r0, #23
.LVL80:
.L35:
	.loc 1 398 6 is_stmt 1 view .LVU1803
	.loc 1 400 2 view .LVU1804
	.loc 1 400 49 is_stmt 0 view .LVU1805
	ldr	r3, .L60+8
	ldr	r3, [r3, #40]
	.loc 1 400 5 view .LVU1806
	lsls	r2, r3, #20
	bpl	.L36
	.loc 1 401 3 is_stmt 1 view .LVU1807
.LVL81:
	.loc 1 402 3 view .LVU1808
.LBB1769:
	.loc 1 402 8 view .LVU1809
	.loc 1 402 57 view .LVU1810
	.loc 1 402 14 view .LVU1811
	.loc 1 402 2 view .LVU1812
	.loc 1 402 41 view .LVU1813
	.loc 1 402 176 view .LVU1814
	.loc 1 402 187 view .LVU1815
	.loc 1 402 275 view .LVU1816
	.loc 1 402 3 view .LVU1817
	.loc 1 402 3 view .LVU1818
.LBB1770:
	.loc 1 402 8 view .LVU1819
	.loc 1 402 2 view .LVU1820
.LBE1770:
.LBE1769:
	.loc 1 402 3 view .LVU1821
	.loc 1 402 12 view .LVU1822
	.loc 1 402 107 view .LVU1823
	.loc 1 402 3 view .LVU1824
.LBB1787:
.LBB1783:
	.loc 1 402 12 view .LVU1825
	.loc 1 402 102 view .LVU1826
	.loc 1 402 104 view .LVU1827
.LBB1771:
	.loc 1 402 109 view .LVU1828
	.loc 1 402 120 view .LVU1829
	.loc 1 402 209 view .LVU1830
	.loc 1 402 26 view .LVU1831
.LBE1771:
.LBE1783:
.LBE1787:
	.loc 1 402 3 view .LVU1832
	.loc 1 402 368 view .LVU1833
	.loc 1 402 75 view .LVU1834
	.loc 1 402 2 view .LVU1835
	.loc 1 402 2 view .LVU1836
	.loc 1 402 2 view .LVU1837
	.loc 1 402 38 view .LVU1838
	.loc 1 402 4 view .LVU1839
	.loc 1 402 30 view .LVU1840
	.loc 1 402 56 view .LVU1841
	.loc 1 402 79 view .LVU1842
	.loc 1 402 141 view .LVU1843
	.loc 1 402 198 view .LVU1844
	.loc 1 402 263 view .LVU1845
	.loc 1 402 288 view .LVU1846
	.loc 1 402 289 view .LVU1847
	.loc 1 402 291 view .LVU1848
	.loc 1 402 321 view .LVU1849
	.loc 1 402 351 view .LVU1850
	.loc 1 402 383 view .LVU1851
	.loc 1 402 415 view .LVU1852
	.loc 1 402 447 view .LVU1853
	.loc 1 402 644 view .LVU1854
	.loc 1 402 668 view .LVU1855
	.loc 1 402 669 view .LVU1856
	.loc 1 402 671 view .LVU1857
	.loc 1 402 700 view .LVU1858
	.loc 1 402 729 view .LVU1859
	.loc 1 402 760 view .LVU1860
	.loc 1 402 791 view .LVU1861
	.loc 1 402 822 view .LVU1862
	.loc 1 402 1029 view .LVU1863
	.loc 1 402 4 view .LVU1864
	.loc 1 402 22 view .LVU1865
	.loc 1 402 42 view .LVU1866
	.loc 1 402 4 view .LVU1867
	.loc 1 402 42 view .LVU1868
	.loc 1 402 13 view .LVU1869
	.loc 1 402 13 view .LVU1870
	.loc 1 402 61 view .LVU1871
	.loc 1 402 92 view .LVU1872
	.loc 1 402 126 view .LVU1873
	.loc 1 402 131 view .LVU1874
	.loc 1 402 373 view .LVU1875
	.loc 1 402 1394 view .LVU1876
	.loc 1 402 1459 view .LVU1877
	.loc 1 402 1483 view .LVU1878
	.loc 1 402 1529 view .LVU1879
	.loc 1 402 1540 view .LVU1880
	.loc 1 402 1644 view .LVU1881
	.loc 1 402 1660 view .LVU1882
	.loc 1 402 1700 view .LVU1883
	.loc 1 402 1725 view .LVU1884
	.loc 1 402 2998 view .LVU1885
	.loc 1 402 3039 view .LVU1886
	.loc 1 402 7 view .LVU1887
	.loc 1 402 30 view .LVU1888
	.loc 1 402 129 view .LVU1889
	.loc 1 402 5 view .LVU1890
	.loc 1 402 28 view .LVU1891
	.loc 1 402 52 view .LVU1892
	.loc 1 402 80 view .LVU1893
	.loc 1 402 256 view .LVU1894
	.loc 1 402 16 view .LVU1895
.LBB1788:
.LBB1784:
.LBB1780:
	.loc 1 402 29 view .LVU1896
	.loc 1 402 3 view .LVU1897
	.loc 1 402 3 view .LVU1898
	.loc 1 402 70 view .LVU1899
	.loc 1 402 74 view .LVU1900
	.loc 1 402 484 view .LVU1901
	.loc 1 402 5 view .LVU1902
	.loc 1 402 7 view .LVU1903
	.loc 1 402 12 view .LVU1904
	.loc 1 402 10 view .LVU1905
	.loc 1 402 5 view .LVU1906
	.loc 1 402 23 view .LVU1907
.LBB1772:
	.loc 1 402 3 view .LVU1908
	.loc 1 402 368 view .LVU1909
	.loc 1 402 75 view .LVU1910
.LVL82:
	.loc 1 402 2 view .LVU1911
	.loc 1 402 2 view .LVU1912
	.loc 1 402 2 view .LVU1913
	.loc 1 402 38 view .LVU1914
	.loc 1 402 67 view .LVU1915
	.loc 1 402 93 view .LVU1916
	.loc 1 402 119 view .LVU1917
	.loc 1 402 142 view .LVU1918
	.loc 1 402 204 view .LVU1919
	.loc 1 402 261 view .LVU1920
	.loc 1 402 326 view .LVU1921
	.loc 1 402 351 view .LVU1922
	.loc 1 402 352 view .LVU1923
	.loc 1 402 354 view .LVU1924
	.loc 1 402 384 view .LVU1925
	.loc 1 402 414 view .LVU1926
	.loc 1 402 446 view .LVU1927
	.loc 1 402 478 view .LVU1928
	.loc 1 402 510 view .LVU1929
	.loc 1 402 707 view .LVU1930
	.loc 1 402 731 view .LVU1931
	.loc 1 402 732 view .LVU1932
	.loc 1 402 734 view .LVU1933
	.loc 1 402 763 view .LVU1934
	.loc 1 402 792 view .LVU1935
	.loc 1 402 823 view .LVU1936
	.loc 1 402 854 view .LVU1937
	.loc 1 402 885 view .LVU1938
	.loc 1 402 1092 view .LVU1939
	.loc 1 402 4 view .LVU1940
	.loc 1 402 22 view .LVU1941
	.loc 1 402 42 view .LVU1942
	.loc 1 402 4 view .LVU1943
	.loc 1 402 42 view .LVU1944
	.loc 1 402 13 view .LVU1945
	.loc 1 402 13 view .LVU1946
	.loc 1 402 61 view .LVU1947
	.loc 1 402 92 view .LVU1948
	.loc 1 402 126 view .LVU1949
.LBB1773:
	.loc 1 402 131 view .LVU1950
	.loc 1 402 373 view .LVU1951
	.loc 1 402 1394 view .LVU1952
	.loc 1 402 1459 view .LVU1953
.LBE1773:
.LBE1772:
.LBE1780:
.LBE1784:
.LBE1788:
	.loc 1 402 1483 view .LVU1954
	.loc 1 402 1529 view .LVU1955
	.loc 1 402 1540 view .LVU1956
	.loc 1 402 1644 view .LVU1957
.LBB1789:
.LBB1785:
.LBB1781:
.LBB1777:
.LBB1774:
	.loc 1 402 1660 view .LVU1958
	.loc 1 402 1700 view .LVU1959
	.loc 1 402 1725 view .LVU1960
	.loc 1 402 2998 view .LVU1961
	.loc 1 402 3036 view .LVU1962
	.loc 1 402 3041 view .LVU1963
	.loc 1 402 3587 view .LVU1964
	.loc 1 402 0 is_stmt 0 view .LVU1965
	ldr	r3, .L60+16
	str	r3, [r7, #20]
	.loc 1 402 3039 is_stmt 1 view .LVU1966
	.loc 1 402 7 view .LVU1967
.LVL83:
	.loc 1 402 30 view .LVU1968
	.loc 1 402 30 is_stmt 0 view .LVU1969
.LBE1774:
	.loc 1 402 129 is_stmt 1 view .LVU1970
	.loc 1 402 5 view .LVU1971
	.loc 1 402 28 view .LVU1972
	.loc 1 402 52 view .LVU1973
	.loc 1 402 80 view .LVU1974
.LBE1777:
.LBE1781:
.LBE1785:
.LBE1789:
	.loc 1 402 6 view .LVU1975
	.loc 1 402 45 view .LVU1976
	.loc 1 402 50 view .LVU1977
	.loc 1 402 80 view .LVU1978
	.loc 1 402 147 view .LVU1979
	.loc 1 402 152 view .LVU1980
	.loc 1 402 182 view .LVU1981
.LBB1790:
.LBB1786:
.LBB1782:
.LBB1778:
	.loc 1 402 256 view .LVU1982
	.loc 1 402 16 view .LVU1983
.LBB1775:
	.loc 1 402 6 view .LVU1984
	.loc 1 402 164 view .LVU1985
	.loc 1 402 166 view .LVU1986
	.loc 1 402 176 is_stmt 0 view .LVU1987
	movs	r3, #2
.LBE1775:
.LBE1778:
	.loc 1 402 149 view .LVU1988
	ldr	r0, .L60+4
.LBB1779:
.LBB1776:
	.loc 1 402 176 view .LVU1989
	str	r3, [r7, #16]
.LVL84:
	.loc 1 402 176 view .LVU1990
.LBE1776:
.LBE1779:
	.loc 1 402 26 is_stmt 1 view .LVU1991
	.loc 1 402 7 view .LVU1992
	.loc 1 402 147 view .LVU1993
	.loc 1 402 149 view .LVU1994
	add	r2, r7, #16
.LVL85:
	.loc 1 402 149 is_stmt 0 view .LVU1995
	mov	r1, #4160
	bl	z_log_msg_static_create.constprop.0
.LVL86:
	.loc 1 402 149 view .LVU1996
.LBE1782:
	.loc 1 402 107 is_stmt 1 view .LVU1997
	.loc 1 402 5 view .LVU1998
.LVL87:
	.loc 1 402 42 view .LVU1999
.LBE1786:
	.loc 1 402 6 view .LVU2000
	.loc 1 402 278 view .LVU2001
	.loc 1 402 5 view .LVU2002
	.loc 1 402 18 view .LVU2003
.LBE1790:
	.loc 1 401 10 is_stmt 0 view .LVU2004
	movs	r0, #24
.LVL88:
.L36:
	.loc 1 402 6 is_stmt 1 view .LVU2005
	.loc 1 404 2 view .LVU2006
	.loc 1 404 49 is_stmt 0 view .LVU2007
	ldr	r4, .L60+8
	ldr	r3, [r4, #40]
	.loc 1 404 5 view .LVU2008
	lsls	r3, r3, #22
	bpl	.L37
.LBB1791:
	.loc 1 405 3 is_stmt 1 view .LVU2009
.LVL89:
	.loc 1 406 3 view .LVU2010
.LBB1792:
	.loc 1 406 8 view .LVU2011
	.loc 1 406 57 view .LVU2012
	.loc 1 406 14 view .LVU2013
	.loc 1 406 2 view .LVU2014
	.loc 1 406 41 view .LVU2015
	.loc 1 406 176 view .LVU2016
	.loc 1 406 187 view .LVU2017
	.loc 1 406 275 view .LVU2018
	.loc 1 406 3 view .LVU2019
	.loc 1 406 3 view .LVU2020
.LBB1793:
	.loc 1 406 8 view .LVU2021
	.loc 1 406 2 view .LVU2022
.LBE1793:
.LBE1792:
.LBE1791:
	.loc 1 406 3 view .LVU2023
	.loc 1 406 12 view .LVU2024
	.loc 1 406 107 view .LVU2025
	.loc 1 406 3 view .LVU2026
.LBB1830:
.LBB1810:
.LBB1806:
	.loc 1 406 12 view .LVU2027
	.loc 1 406 102 view .LVU2028
	.loc 1 406 104 view .LVU2029
.LBB1794:
	.loc 1 406 107 is_stmt 0 view .LVU2030
	mov	r8, sp
	.loc 1 406 109 is_stmt 1 view .LVU2031
	.loc 1 406 120 view .LVU2032
.LVL90:
	.loc 1 406 209 view .LVU2033
	.loc 1 406 26 view .LVU2034
.LBE1794:
.LBE1806:
.LBE1810:
.LBE1830:
	.loc 1 406 3 view .LVU2035
	.loc 1 406 368 view .LVU2036
	.loc 1 406 75 view .LVU2037
	.loc 1 406 2 view .LVU2038
	.loc 1 406 2 view .LVU2039
	.loc 1 406 2 view .LVU2040
	.loc 1 406 38 view .LVU2041
	.loc 1 406 4 view .LVU2042
	.loc 1 406 30 view .LVU2043
	.loc 1 406 56 view .LVU2044
	.loc 1 406 79 view .LVU2045
	.loc 1 406 141 view .LVU2046
	.loc 1 406 198 view .LVU2047
	.loc 1 406 263 view .LVU2048
	.loc 1 406 288 view .LVU2049
	.loc 1 406 289 view .LVU2050
	.loc 1 406 291 view .LVU2051
	.loc 1 406 321 view .LVU2052
	.loc 1 406 351 view .LVU2053
	.loc 1 406 383 view .LVU2054
	.loc 1 406 415 view .LVU2055
	.loc 1 406 447 view .LVU2056
	.loc 1 406 644 view .LVU2057
	.loc 1 406 668 view .LVU2058
	.loc 1 406 669 view .LVU2059
	.loc 1 406 671 view .LVU2060
	.loc 1 406 700 view .LVU2061
	.loc 1 406 729 view .LVU2062
	.loc 1 406 760 view .LVU2063
	.loc 1 406 791 view .LVU2064
	.loc 1 406 822 view .LVU2065
	.loc 1 406 1029 view .LVU2066
	.loc 1 406 4 view .LVU2067
	.loc 1 406 22 view .LVU2068
	.loc 1 406 42 view .LVU2069
	.loc 1 406 4 view .LVU2070
	.loc 1 406 42 view .LVU2071
	.loc 1 406 13 view .LVU2072
	.loc 1 406 13 view .LVU2073
	.loc 1 406 61 view .LVU2074
	.loc 1 406 92 view .LVU2075
	.loc 1 406 126 view .LVU2076
	.loc 1 406 131 view .LVU2077
	.loc 1 406 379 view .LVU2078
	.loc 1 406 1424 view .LVU2079
	.loc 1 406 1489 view .LVU2080
	.loc 1 406 1513 view .LVU2081
	.loc 1 406 1565 view .LVU2082
	.loc 1 406 1576 view .LVU2083
	.loc 1 406 1686 view .LVU2084
	.loc 1 406 1702 view .LVU2085
	.loc 1 406 1742 view .LVU2086
	.loc 1 406 1767 view .LVU2087
	.loc 1 406 3052 view .LVU2088
	.loc 1 406 3093 view .LVU2089
	.loc 1 406 7 view .LVU2090
	.loc 1 406 30 view .LVU2091
	.loc 1 406 129 view .LVU2092
	.loc 1 406 5 view .LVU2093
	.loc 1 406 28 view .LVU2094
	.loc 1 406 52 view .LVU2095
	.loc 1 406 80 view .LVU2096
	.loc 1 406 256 view .LVU2097
	.loc 1 406 16 view .LVU2098
.LBB1831:
.LBB1811:
.LBB1807:
.LBB1803:
	.loc 1 406 29 view .LVU2099
	.loc 1 406 3 view .LVU2100
	.loc 1 406 3 view .LVU2101
	.loc 1 406 70 view .LVU2102
	.loc 1 406 74 view .LVU2103
	.loc 1 406 484 view .LVU2104
	.loc 1 406 5 view .LVU2105
	.loc 1 406 7 view .LVU2106
	.loc 1 406 12 view .LVU2107
	.loc 1 406 10 view .LVU2108
	.loc 1 406 5 view .LVU2109
	.loc 1 406 23 view .LVU2110
.LBB1795:
	.loc 1 406 3 view .LVU2111
	.loc 1 406 368 view .LVU2112
	.loc 1 406 75 view .LVU2113
.LVL91:
	.loc 1 406 2 view .LVU2114
	.loc 1 406 2 view .LVU2115
	.loc 1 406 2 view .LVU2116
	.loc 1 406 38 view .LVU2117
	.loc 1 406 67 view .LVU2118
	.loc 1 406 93 view .LVU2119
	.loc 1 406 119 view .LVU2120
	.loc 1 406 142 view .LVU2121
	.loc 1 406 204 view .LVU2122
	.loc 1 406 261 view .LVU2123
	.loc 1 406 326 view .LVU2124
	.loc 1 406 351 view .LVU2125
	.loc 1 406 352 view .LVU2126
	.loc 1 406 354 view .LVU2127
	.loc 1 406 384 view .LVU2128
	.loc 1 406 414 view .LVU2129
	.loc 1 406 446 view .LVU2130
	.loc 1 406 478 view .LVU2131
	.loc 1 406 510 view .LVU2132
	.loc 1 406 707 view .LVU2133
	.loc 1 406 731 view .LVU2134
	.loc 1 406 732 view .LVU2135
	.loc 1 406 734 view .LVU2136
	.loc 1 406 763 view .LVU2137
	.loc 1 406 792 view .LVU2138
	.loc 1 406 823 view .LVU2139
	.loc 1 406 854 view .LVU2140
	.loc 1 406 885 view .LVU2141
	.loc 1 406 1092 view .LVU2142
	.loc 1 406 4 view .LVU2143
	.loc 1 406 22 view .LVU2144
	.loc 1 406 42 view .LVU2145
	.loc 1 406 4 view .LVU2146
	.loc 1 406 42 view .LVU2147
	.loc 1 406 13 view .LVU2148
	.loc 1 406 13 view .LVU2149
	.loc 1 406 61 view .LVU2150
	.loc 1 406 92 view .LVU2151
	.loc 1 406 126 view .LVU2152
.LBB1796:
	.loc 1 406 131 view .LVU2153
	.loc 1 406 379 view .LVU2154
	.loc 1 406 1424 view .LVU2155
	.loc 1 406 1489 view .LVU2156
.LBE1796:
.LBE1795:
.LBE1803:
.LBE1807:
.LBE1811:
.LBE1831:
	.loc 1 406 1513 view .LVU2157
	.loc 1 406 1565 view .LVU2158
	.loc 1 406 1576 view .LVU2159
	.loc 1 406 1686 view .LVU2160
.LBB1832:
.LBB1812:
.LBB1808:
.LBB1804:
.LBB1800:
.LBB1797:
	.loc 1 406 1702 view .LVU2161
	.loc 1 406 1742 view .LVU2162
	.loc 1 406 1767 view .LVU2163
	.loc 1 406 3052 view .LVU2164
	.loc 1 406 3090 view .LVU2165
	.loc 1 406 3095 view .LVU2166
	.loc 1 406 3677 view .LVU2167
	.loc 1 406 0 is_stmt 0 view .LVU2168
	ldr	r3, .L60+20
	str	r3, [r7, #20]
	.loc 1 406 3093 is_stmt 1 view .LVU2169
	.loc 1 406 7 view .LVU2170
.LVL92:
	.loc 1 406 30 view .LVU2171
	.loc 1 406 30 is_stmt 0 view .LVU2172
.LBE1797:
	.loc 1 406 129 is_stmt 1 view .LVU2173
	.loc 1 406 5 view .LVU2174
	.loc 1 406 28 view .LVU2175
	.loc 1 406 52 view .LVU2176
	.loc 1 406 80 view .LVU2177
.LBE1800:
.LBE1804:
.LBE1808:
.LBE1812:
.LBE1832:
	.loc 1 406 6 view .LVU2178
	.loc 1 406 45 view .LVU2179
	.loc 1 406 50 view .LVU2180
	.loc 1 406 80 view .LVU2181
	.loc 1 406 147 view .LVU2182
	.loc 1 406 152 view .LVU2183
	.loc 1 406 182 view .LVU2184
.LBB1833:
.LBB1813:
.LBB1809:
.LBB1805:
.LBB1801:
	.loc 1 406 256 view .LVU2185
	.loc 1 406 16 view .LVU2186
.LBB1798:
	.loc 1 406 6 view .LVU2187
	.loc 1 406 164 view .LVU2188
	.loc 1 406 166 view .LVU2189
	.loc 1 406 176 is_stmt 0 view .LVU2190
	movs	r3, #2
.LBE1798:
.LBE1801:
	.loc 1 406 149 view .LVU2191
	ldr	r0, .L60+4
.LBB1802:
.LBB1799:
	.loc 1 406 176 view .LVU2192
	str	r3, [r7, #16]
.LVL93:
	.loc 1 406 176 view .LVU2193
.LBE1799:
.LBE1802:
	.loc 1 406 26 is_stmt 1 view .LVU2194
	.loc 1 406 7 view .LVU2195
	.loc 1 406 147 view .LVU2196
	.loc 1 406 149 view .LVU2197
	add	r2, r7, #16
.LVL94:
	.loc 1 406 149 is_stmt 0 view .LVU2198
	mov	r1, #4160
	bl	z_log_msg_static_create.constprop.0
.LVL95:
	.loc 1 406 149 view .LVU2199
.LBE1805:
	.loc 1 406 107 is_stmt 1 view .LVU2200
	.loc 1 406 5 view .LVU2201
.LVL96:
	.loc 1 406 42 view .LVU2202
.LBE1809:
	.loc 1 406 6 view .LVU2203
	.loc 1 406 278 view .LVU2204
	.loc 1 406 5 view .LVU2205
	.loc 1 406 18 view .LVU2206
.LBE1813:
	.loc 1 406 6 view .LVU2207
	.loc 1 415 3 view .LVU2208
	.loc 1 415 12 is_stmt 0 view .LVU2209
	ldr	r3, [r4, #56]
.LVL97:
	.loc 1 417 3 is_stmt 1 view .LVU2210
	.loc 1 417 51 is_stmt 0 view .LVU2211
	ldr	r2, [r4, #40]
	.loc 1 417 6 view .LVU2212
	lsls	r0, r2, #16
	bpl	.L39
	.loc 1 418 4 is_stmt 1 view .LVU2213
.LBB1814:
	.loc 1 418 9 view .LVU2214
	.loc 1 418 58 view .LVU2215
	.loc 1 418 15 view .LVU2216
	.loc 1 418 3 view .LVU2217
.LVL98:
	.loc 1 418 42 view .LVU2218
	.loc 1 418 177 view .LVU2219
	.loc 1 418 188 view .LVU2220
	.loc 1 418 276 view .LVU2221
.LBB1815:
	.loc 1 418 4 view .LVU2222
	.loc 1 418 6 view .LVU2223
	.loc 1 418 4 view .LVU2224
.LBB1816:
	.loc 1 418 9 view .LVU2225
	.loc 1 418 3 view .LVU2226
.LBE1816:
.LBE1815:
.LBE1814:
.LBE1833:
	.loc 1 418 4 view .LVU2227
	.loc 1 418 13 view .LVU2228
	.loc 1 418 108 view .LVU2229
	.loc 1 418 4 view .LVU2230
.LBB1834:
.LBB1828:
.LBB1826:
.LBB1824:
	.loc 1 418 13 view .LVU2231
	.loc 1 418 103 view .LVU2232
	.loc 1 418 105 view .LVU2233
.LBB1817:
	.loc 1 418 110 view .LVU2234
	.loc 1 418 121 view .LVU2235
	.loc 1 418 210 view .LVU2236
	.loc 1 418 27 view .LVU2237
.LBE1817:
.LBE1824:
.LBE1826:
.LBE1828:
.LBE1834:
	.loc 1 418 4 view .LVU2238
	.loc 1 418 369 view .LVU2239
	.loc 1 418 76 view .LVU2240
	.loc 1 418 3 view .LVU2241
	.loc 1 418 3 view .LVU2242
	.loc 1 418 3 view .LVU2243
	.loc 1 418 39 view .LVU2244
	.loc 1 418 5 view .LVU2245
	.loc 1 418 31 view .LVU2246
	.loc 1 418 57 view .LVU2247
	.loc 1 418 524 view .LVU2248
	.loc 1 418 586 view .LVU2249
	.loc 1 418 1107 view .LVU2250
	.loc 1 418 1172 view .LVU2251
	.loc 1 418 1197 view .LVU2252
	.loc 1 418 1198 view .LVU2253
	.loc 1 418 1200 view .LVU2254
	.loc 1 418 1230 view .LVU2255
	.loc 1 418 1260 view .LVU2256
	.loc 1 418 1292 view .LVU2257
	.loc 1 418 1324 view .LVU2258
	.loc 1 418 1356 view .LVU2259
	.loc 1 418 1553 view .LVU2260
	.loc 1 418 1577 view .LVU2261
	.loc 1 418 1578 view .LVU2262
	.loc 1 418 1580 view .LVU2263
	.loc 1 418 1609 view .LVU2264
	.loc 1 418 1638 view .LVU2265
	.loc 1 418 1669 view .LVU2266
	.loc 1 418 1700 view .LVU2267
	.loc 1 418 1731 view .LVU2268
	.loc 1 418 1938 view .LVU2269
	.loc 1 418 5 view .LVU2270
	.loc 1 418 23 view .LVU2271
	.loc 1 418 43 view .LVU2272
	.loc 1 418 5 view .LVU2273
	.loc 1 418 43 view .LVU2274
	.loc 1 418 14 view .LVU2275
	.loc 1 418 14 view .LVU2276
	.loc 1 418 62 view .LVU2277
	.loc 1 418 93 view .LVU2278
	.loc 1 418 127 view .LVU2279
	.loc 1 418 132 view .LVU2280
	.loc 1 418 376 view .LVU2281
	.loc 1 418 1405 view .LVU2282
	.loc 1 418 1470 view .LVU2283
	.loc 1 418 1494 view .LVU2284
	.loc 1 418 1542 view .LVU2285
	.loc 1 418 1553 view .LVU2286
	.loc 1 418 1659 view .LVU2287
	.loc 1 418 1675 view .LVU2288
	.loc 1 418 1715 view .LVU2289
	.loc 1 418 1740 view .LVU2290
	.loc 1 418 3017 view .LVU2291
	.loc 1 418 3058 view .LVU2292
	.loc 1 418 8 view .LVU2293
	.loc 1 418 31 view .LVU2294
	.loc 1 418 130 view .LVU2295
	.loc 1 418 7 view .LVU2296
	.loc 1 418 12 view .LVU2297
	.loc 1 418 237 view .LVU2298
	.loc 1 418 1190 view .LVU2299
	.loc 1 418 1255 view .LVU2300
	.loc 1 418 1279 view .LVU2301
	.loc 1 418 1308 view .LVU2302
	.loc 1 418 1319 view .LVU2303
	.loc 1 418 1406 view .LVU2304
	.loc 1 418 1422 view .LVU2305
	.loc 1 418 1462 view .LVU2306
	.loc 1 418 2726 view .LVU2307
	.loc 1 418 2767 view .LVU2308
	.loc 1 418 8 view .LVU2309
	.loc 1 418 31 view .LVU2310
	.loc 1 418 10 view .LVU2311
	.loc 1 418 6 view .LVU2312
	.loc 1 418 29 view .LVU2313
	.loc 1 418 53 view .LVU2314
	.loc 1 418 81 view .LVU2315
	.loc 1 418 257 view .LVU2316
	.loc 1 418 17 view .LVU2317
.LBB1835:
.LBB1829:
.LBB1827:
.LBB1825:
.LBB1823:
	.loc 1 418 30 view .LVU2318
	.loc 1 418 4 view .LVU2319
	.loc 1 418 4 view .LVU2320
	.loc 1 418 71 view .LVU2321
	.loc 1 418 83 is_stmt 0 view .LVU2322
	sub	sp, sp, #32
	mov	r2, sp
.LVL99:
	.loc 1 418 75 is_stmt 1 view .LVU2323
	.loc 1 418 485 view .LVU2324
	.loc 1 418 6 view .LVU2325
	.loc 1 418 8 view .LVU2326
	.loc 1 418 13 view .LVU2327
	.loc 1 418 11 view .LVU2328
	.loc 1 418 6 view .LVU2329
	.loc 1 418 24 view .LVU2330
.LBB1818:
	.loc 1 418 4 view .LVU2331
	.loc 1 418 369 view .LVU2332
	.loc 1 418 76 view .LVU2333
.LVL100:
	.loc 1 418 3 view .LVU2334
	.loc 1 418 3 view .LVU2335
	.loc 1 418 3 view .LVU2336
	.loc 1 418 39 view .LVU2337
	.loc 1 418 68 view .LVU2338
	.loc 1 418 94 view .LVU2339
	.loc 1 418 120 view .LVU2340
	.loc 1 418 587 view .LVU2341
	.loc 1 418 649 view .LVU2342
	.loc 1 418 1170 view .LVU2343
	.loc 1 418 1235 view .LVU2344
	.loc 1 418 1260 view .LVU2345
	.loc 1 418 1261 view .LVU2346
	.loc 1 418 1263 view .LVU2347
	.loc 1 418 1293 view .LVU2348
	.loc 1 418 1323 view .LVU2349
	.loc 1 418 1355 view .LVU2350
	.loc 1 418 1387 view .LVU2351
	.loc 1 418 1419 view .LVU2352
	.loc 1 418 1616 view .LVU2353
	.loc 1 418 1640 view .LVU2354
	.loc 1 418 1641 view .LVU2355
	.loc 1 418 1643 view .LVU2356
	.loc 1 418 1672 view .LVU2357
	.loc 1 418 1701 view .LVU2358
	.loc 1 418 1732 view .LVU2359
	.loc 1 418 1763 view .LVU2360
	.loc 1 418 1794 view .LVU2361
	.loc 1 418 2001 view .LVU2362
.LBB1819:
	.loc 1 418 3055 view .LVU2363
	.loc 1 418 3060 view .LVU2364
	.loc 1 418 3618 view .LVU2365
	.loc 1 418 0 is_stmt 0 view .LVU2366
	ldr	r1, .L60+24
.LBE1819:
.LBE1818:
	.loc 1 418 150 view .LVU2367
	ldr	r0, .L60+4
.LBB1822:
.LBB1820:
	.loc 1 418 3812 view .LVU2368
	strd	r1, r3, [r2, #20]
	.loc 1 418 2767 is_stmt 1 view .LVU2369
	.loc 1 418 8 view .LVU2370
.LVL101:
	.loc 1 418 31 view .LVU2371
	.loc 1 418 31 is_stmt 0 view .LVU2372
.LBE1820:
	.loc 1 418 10 is_stmt 1 view .LVU2373
	.loc 1 418 6 view .LVU2374
	.loc 1 418 29 view .LVU2375
	.loc 1 418 53 view .LVU2376
	.loc 1 418 81 view .LVU2377
	.loc 1 418 257 view .LVU2378
	.loc 1 418 17 view .LVU2379
.LBB1821:
	.loc 1 418 7 view .LVU2380
	.loc 1 418 165 view .LVU2381
	.loc 1 418 167 view .LVU2382
	.loc 1 418 177 is_stmt 0 view .LVU2383
	movs	r3, #3
.LVL102:
	.loc 1 418 177 view .LVU2384
	str	r3, [r2, #16]!
.LVL103:
	.loc 1 418 177 view .LVU2385
.LBE1821:
.LBE1822:
	.loc 1 418 27 is_stmt 1 view .LVU2386
	.loc 1 418 8 view .LVU2387
	.loc 1 418 148 view .LVU2388
	.loc 1 418 150 view .LVU2389
	mov	r1, #6208
	bl	z_log_msg_static_create.constprop.0
.LVL104:
	.loc 1 418 150 is_stmt 0 view .LVU2390
	mov	sp, r8
.LVL105:
	.loc 1 418 150 view .LVU2391
.LBE1823:
	.loc 1 418 108 is_stmt 1 view .LVU2392
	.loc 1 418 6 view .LVU2393
	.loc 1 418 43 view .LVU2394
.LBE1825:
	.loc 1 418 7 view .LVU2395
.LBE1827:
	.loc 1 418 279 view .LVU2396
	.loc 1 418 6 view .LVU2397
	.loc 1 418 19 view .LVU2398
.LBE1829:
	.loc 1 418 7 view .LVU2399
	.loc 1 419 4 view .LVU2400
	.loc 1 419 7 is_stmt 0 view .LVU2401
	cbz	r6, .L39
	.loc 1 421 5 is_stmt 1 view .LVU2402
	.loc 1 421 48 is_stmt 0 view .LVU2403
	ldr	r3, [r4, #40]
	.loc 1 421 55 view .LVU2404
	bic	r3, r3, #32768
	str	r3, [r4, #40]
.LVL106:
.L39:
	.loc 1 405 10 view .LVU2405
	movs	r0, #25
.LVL107:
.L37:
	.loc 1 405 10 view .LVU2406
.LBE1835:
	.loc 1 425 2 is_stmt 1 view .LVU2407
	.loc 1 425 49 is_stmt 0 view .LVU2408
	ldr	r3, .L60+8
	ldr	r3, [r3, #40]
	.loc 1 425 5 view .LVU2409
	lsls	r1, r3, #21
	bpl	.L41
	.loc 1 426 3 is_stmt 1 view .LVU2410
.LVL108:
	.loc 1 427 3 view .LVU2411
.LBB1836:
	.loc 1 427 8 view .LVU2412
	.loc 1 427 57 view .LVU2413
	.loc 1 427 14 view .LVU2414
	.loc 1 427 2 view .LVU2415
	.loc 1 427 41 view .LVU2416
	.loc 1 427 176 view .LVU2417
	.loc 1 427 187 view .LVU2418
	.loc 1 427 275 view .LVU2419
	.loc 1 427 3 view .LVU2420
	.loc 1 427 3 view .LVU2421
.LBB1837:
	.loc 1 427 8 view .LVU2422
	.loc 1 427 2 view .LVU2423
.LBE1837:
.LBE1836:
	.loc 1 427 3 view .LVU2424
	.loc 1 427 12 view .LVU2425
	.loc 1 427 107 view .LVU2426
	.loc 1 427 3 view .LVU2427
.LBB1854:
.LBB1850:
	.loc 1 427 12 view .LVU2428
	.loc 1 427 102 view .LVU2429
	.loc 1 427 104 view .LVU2430
.LBB1838:
	.loc 1 427 109 view .LVU2431
	.loc 1 427 120 view .LVU2432
	.loc 1 427 209 view .LVU2433
	.loc 1 427 26 view .LVU2434
.LBE1838:
.LBE1850:
.LBE1854:
	.loc 1 427 3 view .LVU2435
	.loc 1 427 368 view .LVU2436
	.loc 1 427 75 view .LVU2437
	.loc 1 427 2 view .LVU2438
	.loc 1 427 2 view .LVU2439
	.loc 1 427 2 view .LVU2440
	.loc 1 427 38 view .LVU2441
	.loc 1 427 4 view .LVU2442
	.loc 1 427 30 view .LVU2443
	.loc 1 427 56 view .LVU2444
	.loc 1 427 79 view .LVU2445
	.loc 1 427 141 view .LVU2446
	.loc 1 427 198 view .LVU2447
	.loc 1 427 263 view .LVU2448
	.loc 1 427 288 view .LVU2449
	.loc 1 427 289 view .LVU2450
	.loc 1 427 291 view .LVU2451
	.loc 1 427 321 view .LVU2452
	.loc 1 427 351 view .LVU2453
	.loc 1 427 383 view .LVU2454
	.loc 1 427 415 view .LVU2455
	.loc 1 427 447 view .LVU2456
	.loc 1 427 644 view .LVU2457
	.loc 1 427 668 view .LVU2458
	.loc 1 427 669 view .LVU2459
	.loc 1 427 671 view .LVU2460
	.loc 1 427 700 view .LVU2461
	.loc 1 427 729 view .LVU2462
	.loc 1 427 760 view .LVU2463
	.loc 1 427 791 view .LVU2464
	.loc 1 427 822 view .LVU2465
	.loc 1 427 1029 view .LVU2466
	.loc 1 427 4 view .LVU2467
	.loc 1 427 22 view .LVU2468
	.loc 1 427 42 view .LVU2469
	.loc 1 427 4 view .LVU2470
	.loc 1 427 42 view .LVU2471
	.loc 1 427 13 view .LVU2472
	.loc 1 427 13 view .LVU2473
	.loc 1 427 61 view .LVU2474
	.loc 1 427 92 view .LVU2475
	.loc 1 427 126 view .LVU2476
	.loc 1 427 131 view .LVU2477
	.loc 1 427 381 view .LVU2478
	.loc 1 427 1434 view .LVU2479
	.loc 1 427 1499 view .LVU2480
	.loc 1 427 1523 view .LVU2481
	.loc 1 427 1577 view .LVU2482
	.loc 1 427 1588 view .LVU2483
	.loc 1 427 1700 view .LVU2484
	.loc 1 427 1716 view .LVU2485
	.loc 1 427 1756 view .LVU2486
	.loc 1 427 1781 view .LVU2487
	.loc 1 427 3070 view .LVU2488
	.loc 1 427 3111 view .LVU2489
	.loc 1 427 7 view .LVU2490
	.loc 1 427 30 view .LVU2491
	.loc 1 427 129 view .LVU2492
	.loc 1 427 5 view .LVU2493
	.loc 1 427 28 view .LVU2494
	.loc 1 427 52 view .LVU2495
	.loc 1 427 80 view .LVU2496
	.loc 1 427 256 view .LVU2497
	.loc 1 427 16 view .LVU2498
.LBB1855:
.LBB1851:
.LBB1847:
	.loc 1 427 29 view .LVU2499
	.loc 1 427 3 view .LVU2500
	.loc 1 427 3 view .LVU2501
	.loc 1 427 70 view .LVU2502
	.loc 1 427 74 view .LVU2503
	.loc 1 427 484 view .LVU2504
	.loc 1 427 5 view .LVU2505
	.loc 1 427 7 view .LVU2506
	.loc 1 427 12 view .LVU2507
	.loc 1 427 10 view .LVU2508
	.loc 1 427 5 view .LVU2509
	.loc 1 427 23 view .LVU2510
.LBB1839:
	.loc 1 427 3 view .LVU2511
	.loc 1 427 368 view .LVU2512
	.loc 1 427 75 view .LVU2513
.LVL109:
	.loc 1 427 2 view .LVU2514
	.loc 1 427 2 view .LVU2515
	.loc 1 427 2 view .LVU2516
	.loc 1 427 38 view .LVU2517
	.loc 1 427 67 view .LVU2518
	.loc 1 427 93 view .LVU2519
	.loc 1 427 119 view .LVU2520
	.loc 1 427 142 view .LVU2521
	.loc 1 427 204 view .LVU2522
	.loc 1 427 261 view .LVU2523
	.loc 1 427 326 view .LVU2524
	.loc 1 427 351 view .LVU2525
	.loc 1 427 352 view .LVU2526
	.loc 1 427 354 view .LVU2527
	.loc 1 427 384 view .LVU2528
	.loc 1 427 414 view .LVU2529
	.loc 1 427 446 view .LVU2530
	.loc 1 427 478 view .LVU2531
	.loc 1 427 510 view .LVU2532
	.loc 1 427 707 view .LVU2533
	.loc 1 427 731 view .LVU2534
	.loc 1 427 732 view .LVU2535
	.loc 1 427 734 view .LVU2536
	.loc 1 427 763 view .LVU2537
	.loc 1 427 792 view .LVU2538
	.loc 1 427 823 view .LVU2539
	.loc 1 427 854 view .LVU2540
	.loc 1 427 885 view .LVU2541
	.loc 1 427 1092 view .LVU2542
	.loc 1 427 4 view .LVU2543
	.loc 1 427 22 view .LVU2544
	.loc 1 427 42 view .LVU2545
	.loc 1 427 4 view .LVU2546
	.loc 1 427 42 view .LVU2547
	.loc 1 427 13 view .LVU2548
	.loc 1 427 13 view .LVU2549
	.loc 1 427 61 view .LVU2550
	.loc 1 427 92 view .LVU2551
	.loc 1 427 126 view .LVU2552
.LBB1840:
	.loc 1 427 131 view .LVU2553
	.loc 1 427 381 view .LVU2554
	.loc 1 427 1434 view .LVU2555
	.loc 1 427 1499 view .LVU2556
.LBE1840:
.LBE1839:
.LBE1847:
.LBE1851:
.LBE1855:
	.loc 1 427 1523 view .LVU2557
	.loc 1 427 1577 view .LVU2558
	.loc 1 427 1588 view .LVU2559
	.loc 1 427 1700 view .LVU2560
.LBB1856:
.LBB1852:
.LBB1848:
.LBB1844:
.LBB1841:
	.loc 1 427 1716 view .LVU2561
	.loc 1 427 1756 view .LVU2562
	.loc 1 427 1781 view .LVU2563
	.loc 1 427 3070 view .LVU2564
	.loc 1 427 3108 view .LVU2565
	.loc 1 427 3113 view .LVU2566
	.loc 1 427 3707 view .LVU2567
	.loc 1 427 0 is_stmt 0 view .LVU2568
	ldr	r3, .L60+28
	str	r3, [r7, #20]
	.loc 1 427 3111 is_stmt 1 view .LVU2569
	.loc 1 427 7 view .LVU2570
.LVL110:
	.loc 1 427 30 view .LVU2571
	.loc 1 427 30 is_stmt 0 view .LVU2572
.LBE1841:
	.loc 1 427 129 is_stmt 1 view .LVU2573
	.loc 1 427 5 view .LVU2574
	.loc 1 427 28 view .LVU2575
	.loc 1 427 52 view .LVU2576
	.loc 1 427 80 view .LVU2577
.LBE1844:
.LBE1848:
.LBE1852:
.LBE1856:
	.loc 1 427 6 view .LVU2578
	.loc 1 427 45 view .LVU2579
	.loc 1 427 50 view .LVU2580
	.loc 1 427 80 view .LVU2581
	.loc 1 427 147 view .LVU2582
	.loc 1 427 152 view .LVU2583
	.loc 1 427 182 view .LVU2584
.LBB1857:
.LBB1853:
.LBB1849:
.LBB1845:
	.loc 1 427 256 view .LVU2585
	.loc 1 427 16 view .LVU2586
.LBB1842:
	.loc 1 427 6 view .LVU2587
	.loc 1 427 164 view .LVU2588
	.loc 1 427 166 view .LVU2589
	.loc 1 427 176 is_stmt 0 view .LVU2590
	movs	r3, #2
.LBE1842:
.LBE1845:
	.loc 1 427 149 view .LVU2591
	ldr	r0, .L60+4
.LBB1846:
.LBB1843:
	.loc 1 427 176 view .LVU2592
	str	r3, [r7, #16]
.LVL111:
	.loc 1 427 176 view .LVU2593
.LBE1843:
.LBE1846:
	.loc 1 427 26 is_stmt 1 view .LVU2594
	.loc 1 427 7 view .LVU2595
	.loc 1 427 147 view .LVU2596
	.loc 1 427 149 view .LVU2597
	add	r2, r7, #16
.LVL112:
	.loc 1 427 149 is_stmt 0 view .LVU2598
	mov	r1, #4160
	bl	z_log_msg_static_create.constprop.0
.LVL113:
	.loc 1 427 149 view .LVU2599
.LBE1849:
	.loc 1 427 107 is_stmt 1 view .LVU2600
	.loc 1 427 5 view .LVU2601
.LVL114:
	.loc 1 427 42 view .LVU2602
.LBE1853:
	.loc 1 427 6 view .LVU2603
	.loc 1 427 278 view .LVU2604
	.loc 1 427 5 view .LVU2605
	.loc 1 427 18 view .LVU2606
.LBE1857:
	.loc 1 426 10 is_stmt 0 view .LVU2607
	movs	r0, #26
.LVL115:
.L41:
	.loc 1 427 6 is_stmt 1 view .LVU2608
	.loc 1 429 2 view .LVU2609
	.loc 1 429 50 is_stmt 0 view .LVU2610
	ldr	r3, .L60+8
	ldr	r2, [r3, #40]
	.loc 1 429 5 view .LVU2611
	lsls	r2, r2, #23
	bpl	.L42
	.loc 1 430 3 is_stmt 1 view .LVU2612
.LVL116:
	.loc 1 431 3 view .LVU2613
.LBB1858:
	.loc 1 431 8 view .LVU2614
	.loc 1 431 57 view .LVU2615
	.loc 1 431 14 view .LVU2616
	.loc 1 431 2 view .LVU2617
	.loc 1 431 41 view .LVU2618
	.loc 1 431 176 view .LVU2619
	.loc 1 431 187 view .LVU2620
	.loc 1 431 275 view .LVU2621
	.loc 1 431 3 view .LVU2622
	.loc 1 431 3 view .LVU2623
.LBB1859:
	.loc 1 431 8 view .LVU2624
	.loc 1 431 2 view .LVU2625
.LBE1859:
.LBE1858:
	.loc 1 431 3 view .LVU2626
	.loc 1 431 12 view .LVU2627
	.loc 1 431 107 view .LVU2628
	.loc 1 431 3 view .LVU2629
.LBB1876:
.LBB1872:
	.loc 1 431 12 view .LVU2630
	.loc 1 431 102 view .LVU2631
	.loc 1 431 104 view .LVU2632
.LBB1860:
	.loc 1 431 109 view .LVU2633
	.loc 1 431 120 view .LVU2634
	.loc 1 431 209 view .LVU2635
	.loc 1 431 26 view .LVU2636
.LBE1860:
.LBE1872:
.LBE1876:
	.loc 1 431 3 view .LVU2637
	.loc 1 431 368 view .LVU2638
	.loc 1 431 75 view .LVU2639
	.loc 1 431 2 view .LVU2640
	.loc 1 431 2 view .LVU2641
	.loc 1 431 2 view .LVU2642
	.loc 1 431 38 view .LVU2643
	.loc 1 431 4 view .LVU2644
	.loc 1 431 30 view .LVU2645
	.loc 1 431 56 view .LVU2646
	.loc 1 431 79 view .LVU2647
	.loc 1 431 141 view .LVU2648
	.loc 1 431 198 view .LVU2649
	.loc 1 431 263 view .LVU2650
	.loc 1 431 288 view .LVU2651
	.loc 1 431 289 view .LVU2652
	.loc 1 431 291 view .LVU2653
	.loc 1 431 321 view .LVU2654
	.loc 1 431 351 view .LVU2655
	.loc 1 431 383 view .LVU2656
	.loc 1 431 415 view .LVU2657
	.loc 1 431 447 view .LVU2658
	.loc 1 431 644 view .LVU2659
	.loc 1 431 668 view .LVU2660
	.loc 1 431 669 view .LVU2661
	.loc 1 431 671 view .LVU2662
	.loc 1 431 700 view .LVU2663
	.loc 1 431 729 view .LVU2664
	.loc 1 431 760 view .LVU2665
	.loc 1 431 791 view .LVU2666
	.loc 1 431 822 view .LVU2667
	.loc 1 431 1029 view .LVU2668
	.loc 1 431 4 view .LVU2669
	.loc 1 431 22 view .LVU2670
	.loc 1 431 42 view .LVU2671
	.loc 1 431 4 view .LVU2672
	.loc 1 431 42 view .LVU2673
	.loc 1 431 13 view .LVU2674
	.loc 1 431 13 view .LVU2675
	.loc 1 431 61 view .LVU2676
	.loc 1 431 92 view .LVU2677
	.loc 1 431 126 view .LVU2678
	.loc 1 431 131 view .LVU2679
	.loc 1 431 378 view .LVU2680
	.loc 1 431 1419 view .LVU2681
	.loc 1 431 1484 view .LVU2682
	.loc 1 431 1508 view .LVU2683
	.loc 1 431 1559 view .LVU2684
	.loc 1 431 1570 view .LVU2685
	.loc 1 431 1679 view .LVU2686
	.loc 1 431 1695 view .LVU2687
	.loc 1 431 1735 view .LVU2688
	.loc 1 431 1760 view .LVU2689
	.loc 1 431 3043 view .LVU2690
	.loc 1 431 3084 view .LVU2691
	.loc 1 431 7 view .LVU2692
	.loc 1 431 30 view .LVU2693
	.loc 1 431 129 view .LVU2694
	.loc 1 431 5 view .LVU2695
	.loc 1 431 28 view .LVU2696
	.loc 1 431 52 view .LVU2697
	.loc 1 431 80 view .LVU2698
	.loc 1 431 256 view .LVU2699
	.loc 1 431 16 view .LVU2700
.LBB1877:
.LBB1873:
.LBB1869:
	.loc 1 431 29 view .LVU2701
	.loc 1 431 3 view .LVU2702
	.loc 1 431 3 view .LVU2703
	.loc 1 431 70 view .LVU2704
	.loc 1 431 74 view .LVU2705
	.loc 1 431 484 view .LVU2706
	.loc 1 431 5 view .LVU2707
	.loc 1 431 7 view .LVU2708
	.loc 1 431 12 view .LVU2709
	.loc 1 431 10 view .LVU2710
	.loc 1 431 5 view .LVU2711
	.loc 1 431 23 view .LVU2712
.LBB1861:
	.loc 1 431 3 view .LVU2713
	.loc 1 431 368 view .LVU2714
	.loc 1 431 75 view .LVU2715
.LVL117:
	.loc 1 431 2 view .LVU2716
	.loc 1 431 2 view .LVU2717
	.loc 1 431 2 view .LVU2718
	.loc 1 431 38 view .LVU2719
	.loc 1 431 67 view .LVU2720
	.loc 1 431 93 view .LVU2721
	.loc 1 431 119 view .LVU2722
	.loc 1 431 142 view .LVU2723
	.loc 1 431 204 view .LVU2724
	.loc 1 431 261 view .LVU2725
	.loc 1 431 326 view .LVU2726
	.loc 1 431 351 view .LVU2727
	.loc 1 431 352 view .LVU2728
	.loc 1 431 354 view .LVU2729
	.loc 1 431 384 view .LVU2730
	.loc 1 431 414 view .LVU2731
	.loc 1 431 446 view .LVU2732
	.loc 1 431 478 view .LVU2733
	.loc 1 431 510 view .LVU2734
	.loc 1 431 707 view .LVU2735
	.loc 1 431 731 view .LVU2736
	.loc 1 431 732 view .LVU2737
	.loc 1 431 734 view .LVU2738
	.loc 1 431 763 view .LVU2739
	.loc 1 431 792 view .LVU2740
	.loc 1 431 823 view .LVU2741
	.loc 1 431 854 view .LVU2742
	.loc 1 431 885 view .LVU2743
	.loc 1 431 1092 view .LVU2744
	.loc 1 431 4 view .LVU2745
	.loc 1 431 22 view .LVU2746
	.loc 1 431 42 view .LVU2747
	.loc 1 431 4 view .LVU2748
	.loc 1 431 42 view .LVU2749
	.loc 1 431 13 view .LVU2750
	.loc 1 431 13 view .LVU2751
	.loc 1 431 61 view .LVU2752
	.loc 1 431 92 view .LVU2753
	.loc 1 431 126 view .LVU2754
.LBB1862:
	.loc 1 431 131 view .LVU2755
	.loc 1 431 378 view .LVU2756
	.loc 1 431 1419 view .LVU2757
	.loc 1 431 1484 view .LVU2758
.LBE1862:
.LBE1861:
.LBE1869:
.LBE1873:
.LBE1877:
	.loc 1 431 1508 view .LVU2759
	.loc 1 431 1559 view .LVU2760
	.loc 1 431 1570 view .LVU2761
	.loc 1 431 1679 view .LVU2762
.LBB1878:
.LBB1874:
.LBB1870:
.LBB1866:
.LBB1863:
	.loc 1 431 1695 view .LVU2763
	.loc 1 431 1735 view .LVU2764
	.loc 1 431 1760 view .LVU2765
	.loc 1 431 3043 view .LVU2766
	.loc 1 431 3081 view .LVU2767
	.loc 1 431 3086 view .LVU2768
	.loc 1 431 3662 view .LVU2769
	.loc 1 431 0 is_stmt 0 view .LVU2770
	ldr	r3, .L60+32
	str	r3, [r7, #20]
	.loc 1 431 3084 is_stmt 1 view .LVU2771
	.loc 1 431 7 view .LVU2772
.LVL118:
	.loc 1 431 30 view .LVU2773
	.loc 1 431 30 is_stmt 0 view .LVU2774
.LBE1863:
	.loc 1 431 129 is_stmt 1 view .LVU2775
	.loc 1 431 5 view .LVU2776
	.loc 1 431 28 view .LVU2777
	.loc 1 431 52 view .LVU2778
	.loc 1 431 80 view .LVU2779
.LBE1866:
.LBE1870:
.LBE1874:
.LBE1878:
	.loc 1 431 6 view .LVU2780
	.loc 1 431 45 view .LVU2781
	.loc 1 431 50 view .LVU2782
	.loc 1 431 80 view .LVU2783
	.loc 1 431 147 view .LVU2784
	.loc 1 431 152 view .LVU2785
	.loc 1 431 182 view .LVU2786
.LBB1879:
.LBB1875:
.LBB1871:
.LBB1867:
	.loc 1 431 256 view .LVU2787
	.loc 1 431 16 view .LVU2788
.LBB1864:
	.loc 1 431 6 view .LVU2789
	.loc 1 431 164 view .LVU2790
	.loc 1 431 166 view .LVU2791
	.loc 1 431 176 is_stmt 0 view .LVU2792
	movs	r3, #2
.LBE1864:
.LBE1867:
	.loc 1 431 149 view .LVU2793
	ldr	r0, .L60+4
.LBB1868:
.LBB1865:
	.loc 1 431 176 view .LVU2794
	str	r3, [r7, #16]
.LVL119:
	.loc 1 431 176 view .LVU2795
.LBE1865:
.LBE1868:
	.loc 1 431 26 is_stmt 1 view .LVU2796
	.loc 1 431 7 view .LVU2797
	.loc 1 431 147 view .LVU2798
	.loc 1 431 149 view .LVU2799
	add	r2, r7, #16
.LVL120:
	.loc 1 431 149 is_stmt 0 view .LVU2800
	mov	r1, #4160
	bl	z_log_msg_static_create.constprop.0
.LVL121:
	.loc 1 431 149 view .LVU2801
.LBE1871:
	.loc 1 431 107 is_stmt 1 view .LVU2802
	.loc 1 431 5 view .LVU2803
.LVL122:
	.loc 1 431 42 view .LVU2804
.LBE1875:
	.loc 1 431 6 view .LVU2805
	.loc 1 431 278 view .LVU2806
	.loc 1 431 5 view .LVU2807
	.loc 1 431 18 view .LVU2808
.LBE1879:
	.loc 1 430 10 is_stmt 0 view .LVU2809
	movs	r0, #27
.LVL123:
.L43:
	.loc 1 439 3 is_stmt 1 view .LVU2810
	.loc 1 537 2 view .LVU2811
	.loc 1 537 45 is_stmt 0 view .LVU2812
	ldr	r2, .L60+8
	ldr	r3, [r2, #40]
	.loc 1 537 52 view .LVU2813
	orr	r3, r3, #65280
	str	r3, [r2, #40]
	.loc 1 539 2 is_stmt 1 view .LVU2814
	.loc 1 542 1 is_stmt 0 view .LVU2815
	adds	r7, r7, #24
	.cfi_remember_state
	.cfi_def_cfa_offset 24
.LVL124:
	.loc 1 539 15 view .LVU2816
	movs	r3, #0
	strb	r3, [r5]
	.loc 1 541 2 is_stmt 1 view .LVU2817
	.loc 1 542 1 is_stmt 0 view .LVU2818
	mov	sp, r7
	.cfi_def_cfa_register 13
.LVL125:
	.loc 1 542 1 view .LVU2819
	@ sp needed
	pop	{r4, r5, r6, r7, r8, pc}
.LVL126:
.L44:
	.cfi_restore_state
	.loc 1 392 11 view .LVU2820
	movs	r0, #22
	b	.L35
.LVL127:
.L42:
	.loc 1 435 9 is_stmt 1 view .LVU2821
	.loc 1 435 56 is_stmt 0 view .LVU2822
	ldr	r3, [r3, #40]
	.loc 1 435 12 view .LVU2823
	lsls	r3, r3, #18
	bpl	.L43
	.loc 1 436 3 is_stmt 1 view .LVU2824
.LVL128:
	.loc 1 437 3 view .LVU2825
.LBB1880:
	.loc 1 437 8 view .LVU2826
	.loc 1 437 57 view .LVU2827
	.loc 1 437 14 view .LVU2828
	.loc 1 437 2 view .LVU2829
	.loc 1 437 41 view .LVU2830
	.loc 1 437 176 view .LVU2831
	.loc 1 437 187 view .LVU2832
	.loc 1 437 275 view .LVU2833
	.loc 1 437 3 view .LVU2834
	.loc 1 437 3 view .LVU2835
.LBB1881:
	.loc 1 437 8 view .LVU2836
	.loc 1 437 2 view .LVU2837
.LBE1881:
.LBE1880:
	.loc 1 437 3 view .LVU2838
	.loc 1 437 12 view .LVU2839
	.loc 1 437 107 view .LVU2840
	.loc 1 437 3 view .LVU2841
.LBB1898:
.LBB1894:
	.loc 1 437 12 view .LVU2842
	.loc 1 437 102 view .LVU2843
	.loc 1 437 104 view .LVU2844
.LBB1882:
	.loc 1 437 109 view .LVU2845
	.loc 1 437 120 view .LVU2846
	.loc 1 437 209 view .LVU2847
	.loc 1 437 26 view .LVU2848
.LBE1882:
.LBE1894:
.LBE1898:
	.loc 1 437 3 view .LVU2849
	.loc 1 437 368 view .LVU2850
	.loc 1 437 75 view .LVU2851
	.loc 1 437 2 view .LVU2852
	.loc 1 437 2 view .LVU2853
	.loc 1 437 2 view .LVU2854
	.loc 1 437 38 view .LVU2855
	.loc 1 437 4 view .LVU2856
	.loc 1 437 30 view .LVU2857
	.loc 1 437 56 view .LVU2858
	.loc 1 437 79 view .LVU2859
	.loc 1 437 141 view .LVU2860
	.loc 1 437 198 view .LVU2861
	.loc 1 437 263 view .LVU2862
	.loc 1 437 288 view .LVU2863
	.loc 1 437 289 view .LVU2864
	.loc 1 437 291 view .LVU2865
	.loc 1 437 321 view .LVU2866
	.loc 1 437 351 view .LVU2867
	.loc 1 437 383 view .LVU2868
	.loc 1 437 415 view .LVU2869
	.loc 1 437 447 view .LVU2870
	.loc 1 437 644 view .LVU2871
	.loc 1 437 668 view .LVU2872
	.loc 1 437 669 view .LVU2873
	.loc 1 437 671 view .LVU2874
	.loc 1 437 700 view .LVU2875
	.loc 1 437 729 view .LVU2876
	.loc 1 437 760 view .LVU2877
	.loc 1 437 791 view .LVU2878
	.loc 1 437 822 view .LVU2879
	.loc 1 437 1029 view .LVU2880
	.loc 1 437 4 view .LVU2881
	.loc 1 437 22 view .LVU2882
	.loc 1 437 42 view .LVU2883
	.loc 1 437 4 view .LVU2884
	.loc 1 437 42 view .LVU2885
	.loc 1 437 13 view .LVU2886
	.loc 1 437 13 view .LVU2887
	.loc 1 437 61 view .LVU2888
	.loc 1 437 92 view .LVU2889
	.loc 1 437 126 view .LVU2890
	.loc 1 437 131 view .LVU2891
	.loc 1 437 401 view .LVU2892
	.loc 1 437 1534 view .LVU2893
	.loc 1 437 1599 view .LVU2894
	.loc 1 437 1623 view .LVU2895
	.loc 1 437 1697 view .LVU2896
	.loc 1 437 1708 view .LVU2897
	.loc 1 437 1840 view .LVU2898
	.loc 1 437 1856 view .LVU2899
	.loc 1 437 1896 view .LVU2900
	.loc 1 437 1921 view .LVU2901
	.loc 1 437 3250 view .LVU2902
	.loc 1 437 3291 view .LVU2903
	.loc 1 437 7 view .LVU2904
	.loc 1 437 30 view .LVU2905
	.loc 1 437 129 view .LVU2906
	.loc 1 437 5 view .LVU2907
	.loc 1 437 28 view .LVU2908
	.loc 1 437 52 view .LVU2909
	.loc 1 437 80 view .LVU2910
	.loc 1 437 256 view .LVU2911
	.loc 1 437 16 view .LVU2912
.LBB1899:
.LBB1895:
.LBB1891:
	.loc 1 437 29 view .LVU2913
	.loc 1 437 3 view .LVU2914
	.loc 1 437 3 view .LVU2915
	.loc 1 437 70 view .LVU2916
	.loc 1 437 74 view .LVU2917
	.loc 1 437 484 view .LVU2918
	.loc 1 437 5 view .LVU2919
	.loc 1 437 7 view .LVU2920
	.loc 1 437 12 view .LVU2921
	.loc 1 437 10 view .LVU2922
	.loc 1 437 5 view .LVU2923
	.loc 1 437 23 view .LVU2924
.LBB1883:
	.loc 1 437 3 view .LVU2925
	.loc 1 437 368 view .LVU2926
	.loc 1 437 75 view .LVU2927
.LVL129:
	.loc 1 437 2 view .LVU2928
	.loc 1 437 2 view .LVU2929
	.loc 1 437 2 view .LVU2930
	.loc 1 437 38 view .LVU2931
	.loc 1 437 67 view .LVU2932
	.loc 1 437 93 view .LVU2933
	.loc 1 437 119 view .LVU2934
	.loc 1 437 142 view .LVU2935
	.loc 1 437 204 view .LVU2936
	.loc 1 437 261 view .LVU2937
	.loc 1 437 326 view .LVU2938
	.loc 1 437 351 view .LVU2939
	.loc 1 437 352 view .LVU2940
	.loc 1 437 354 view .LVU2941
	.loc 1 437 384 view .LVU2942
	.loc 1 437 414 view .LVU2943
	.loc 1 437 446 view .LVU2944
	.loc 1 437 478 view .LVU2945
	.loc 1 437 510 view .LVU2946
	.loc 1 437 707 view .LVU2947
	.loc 1 437 731 view .LVU2948
	.loc 1 437 732 view .LVU2949
	.loc 1 437 734 view .LVU2950
	.loc 1 437 763 view .LVU2951
	.loc 1 437 792 view .LVU2952
	.loc 1 437 823 view .LVU2953
	.loc 1 437 854 view .LVU2954
	.loc 1 437 885 view .LVU2955
	.loc 1 437 1092 view .LVU2956
	.loc 1 437 4 view .LVU2957
	.loc 1 437 22 view .LVU2958
	.loc 1 437 42 view .LVU2959
	.loc 1 437 4 view .LVU2960
	.loc 1 437 42 view .LVU2961
	.loc 1 437 13 view .LVU2962
	.loc 1 437 13 view .LVU2963
	.loc 1 437 61 view .LVU2964
	.loc 1 437 92 view .LVU2965
	.loc 1 437 126 view .LVU2966
.LBB1884:
	.loc 1 437 131 view .LVU2967
	.loc 1 437 401 view .LVU2968
	.loc 1 437 1534 view .LVU2969
	.loc 1 437 1599 view .LVU2970
.LBE1884:
.LBE1883:
.LBE1891:
.LBE1895:
.LBE1899:
	.loc 1 437 1623 view .LVU2971
	.loc 1 437 1697 view .LVU2972
	.loc 1 437 1708 view .LVU2973
	.loc 1 437 1840 view .LVU2974
.LBB1900:
.LBB1896:
.LBB1892:
.LBB1888:
.LBB1885:
	.loc 1 437 1856 view .LVU2975
	.loc 1 437 1896 view .LVU2976
	.loc 1 437 1921 view .LVU2977
	.loc 1 437 3250 view .LVU2978
	.loc 1 437 3288 view .LVU2979
	.loc 1 437 3293 view .LVU2980
	.loc 1 437 4007 view .LVU2981
	.loc 1 437 0 is_stmt 0 view .LVU2982
	ldr	r3, .L60+36
	str	r3, [r7, #20]
	.loc 1 437 3291 is_stmt 1 view .LVU2983
	.loc 1 437 7 view .LVU2984
.LVL130:
	.loc 1 437 30 view .LVU2985
	.loc 1 437 30 is_stmt 0 view .LVU2986
.LBE1885:
	.loc 1 437 129 is_stmt 1 view .LVU2987
	.loc 1 437 5 view .LVU2988
	.loc 1 437 28 view .LVU2989
	.loc 1 437 52 view .LVU2990
	.loc 1 437 80 view .LVU2991
.LBE1888:
.LBE1892:
.LBE1896:
.LBE1900:
	.loc 1 437 6 view .LVU2992
	.loc 1 437 45 view .LVU2993
	.loc 1 437 50 view .LVU2994
	.loc 1 437 80 view .LVU2995
	.loc 1 437 147 view .LVU2996
	.loc 1 437 152 view .LVU2997
	.loc 1 437 182 view .LVU2998
.LBB1901:
.LBB1897:
.LBB1893:
.LBB1889:
	.loc 1 437 256 view .LVU2999
	.loc 1 437 16 view .LVU3000
.LBB1886:
	.loc 1 437 6 view .LVU3001
	.loc 1 437 164 view .LVU3002
	.loc 1 437 166 view .LVU3003
	.loc 1 437 176 is_stmt 0 view .LVU3004
	movs	r3, #2
.LBE1886:
.LBE1889:
	.loc 1 437 149 view .LVU3005
	ldr	r0, .L60+4
.LBB1890:
.LBB1887:
	.loc 1 437 176 view .LVU3006
	str	r3, [r7, #16]
.LVL131:
	.loc 1 437 176 view .LVU3007
.LBE1887:
.LBE1890:
	.loc 1 437 26 is_stmt 1 view .LVU3008
	.loc 1 437 7 view .LVU3009
	.loc 1 437 147 view .LVU3010
	.loc 1 437 149 view .LVU3011
	add	r2, r7, #16
.LVL132:
	.loc 1 437 149 is_stmt 0 view .LVU3012
	mov	r1, #4160
	bl	z_log_msg_static_create.constprop.0
.LVL133:
	.loc 1 437 149 view .LVU3013
.LBE1893:
	.loc 1 437 107 is_stmt 1 view .LVU3014
	.loc 1 437 5 view .LVU3015
.LVL134:
	.loc 1 437 42 view .LVU3016
.LBE1897:
	.loc 1 437 6 view .LVU3017
	.loc 1 437 278 view .LVU3018
	.loc 1 437 5 view .LVU3019
	.loc 1 437 18 view .LVU3020
.LBE1901:
	.loc 1 436 10 is_stmt 0 view .LVU3021
	movs	r0, #28
.LBB1902:
	b	.L43
.L61:
	.align	2
.L60:
	.word	.LC7
	.word	log_const_os
	.word	-536810240
	.word	.LC8
	.word	.LC2
	.word	.LC9
	.word	.LC10
	.word	.LC11
	.word	.LC12
	.word	.LC6
.LBE1902:
	.cfi_endproc
.LFE501:
	.size	bus_fault.constprop.0, .-bus_fault.constprop.0
	.section	.rodata.usage_fault.constprop.0.str1.1,"aMS",%progbits,1
.LC13:
	.ascii	"***** USAGE FAULT *****\000"
.LC14:
	.ascii	"  Division by zero\000"
.LC15:
	.ascii	"  Unaligned memory access\000"
.LC16:
	.ascii	"  No coprocessor instructions\000"
.LC17:
	.ascii	"  Illegal load of EXC_RETURN into PC\000"
.LC18:
	.ascii	"  Illegal use of the EPSR\000"
.LC19:
	.ascii	"  Attempt to execute undefined instruction\000"
	.section	.text.usage_fault.constprop.0,"ax",%progbits
	.align	1
	.syntax unified
	.thumb
	.thumb_func
	.type	usage_fault.constprop.0, %function
usage_fault.constprop.0:
.LFB502:
	.loc 1 552 17 is_stmt 1 view -0
	.cfi_startproc
	@ args = 0, pretend = 0, frame = 24
	@ frame_needed = 0, uses_anonymous_args = 0
.LVL135:
	.loc 1 554 2 view .LVU3023
	.loc 1 556 2 view .LVU3024
.LBB1945:
	.loc 1 556 7 view .LVU3025
	.loc 1 556 56 view .LVU3026
	.loc 1 556 13 view .LVU3027
	.loc 1 556 1 view .LVU3028
	.loc 1 556 40 view .LVU3029
	.loc 1 556 175 view .LVU3030
	.loc 1 556 186 view .LVU3031
	.loc 1 556 274 view .LVU3032
	.loc 1 556 2 view .LVU3033
	.loc 1 556 2 view .LVU3034
.LBB1946:
	.loc 1 556 7 view .LVU3035
	.loc 1 556 1 view .LVU3036
.LBE1946:
.LBE1945:
	.loc 1 556 2 view .LVU3037
	.loc 1 556 11 view .LVU3038
	.loc 1 556 106 view .LVU3039
	.loc 1 556 2 view .LVU3040
.LBB1969:
.LBB1964:
	.loc 1 556 11 view .LVU3041
	.loc 1 556 101 view .LVU3042
	.loc 1 556 103 view .LVU3043
.LBB1947:
	.loc 1 556 108 view .LVU3044
	.loc 1 556 119 view .LVU3045
	.loc 1 556 208 view .LVU3046
	.loc 1 556 25 view .LVU3047
.LBE1947:
.LBE1964:
.LBE1969:
	.loc 1 556 2 view .LVU3048
	.loc 1 556 367 view .LVU3049
	.loc 1 556 74 view .LVU3050
	.loc 1 556 1 view .LVU3051
	.loc 1 556 1 view .LVU3052
	.loc 1 556 1 view .LVU3053
	.loc 1 556 37 view .LVU3054
	.loc 1 556 3 view .LVU3055
	.loc 1 556 29 view .LVU3056
	.loc 1 556 55 view .LVU3057
	.loc 1 556 78 view .LVU3058
	.loc 1 556 140 view .LVU3059
	.loc 1 556 197 view .LVU3060
	.loc 1 556 262 view .LVU3061
	.loc 1 556 287 view .LVU3062
	.loc 1 556 288 view .LVU3063
	.loc 1 556 290 view .LVU3064
	.loc 1 556 320 view .LVU3065
	.loc 1 556 350 view .LVU3066
	.loc 1 556 382 view .LVU3067
	.loc 1 556 414 view .LVU3068
	.loc 1 556 446 view .LVU3069
	.loc 1 556 643 view .LVU3070
	.loc 1 556 667 view .LVU3071
	.loc 1 556 668 view .LVU3072
	.loc 1 556 670 view .LVU3073
	.loc 1 556 699 view .LVU3074
	.loc 1 556 728 view .LVU3075
	.loc 1 556 759 view .LVU3076
	.loc 1 556 790 view .LVU3077
	.loc 1 556 821 view .LVU3078
	.loc 1 556 1028 view .LVU3079
	.loc 1 556 3 view .LVU3080
	.loc 1 556 21 view .LVU3081
	.loc 1 556 41 view .LVU3082
	.loc 1 556 3 view .LVU3083
	.loc 1 556 41 view .LVU3084
	.loc 1 556 12 view .LVU3085
	.loc 1 556 12 view .LVU3086
	.loc 1 556 60 view .LVU3087
	.loc 1 556 91 view .LVU3088
	.loc 1 556 125 view .LVU3089
	.loc 1 556 130 view .LVU3090
	.loc 1 556 377 view .LVU3091
	.loc 1 556 1418 view .LVU3092
	.loc 1 556 1483 view .LVU3093
	.loc 1 556 1507 view .LVU3094
	.loc 1 556 1558 view .LVU3095
	.loc 1 556 1569 view .LVU3096
	.loc 1 556 1678 view .LVU3097
	.loc 1 556 1694 view .LVU3098
	.loc 1 556 1734 view .LVU3099
	.loc 1 556 1759 view .LVU3100
	.loc 1 556 3042 view .LVU3101
	.loc 1 556 3083 view .LVU3102
	.loc 1 556 6 view .LVU3103
	.loc 1 556 29 view .LVU3104
	.loc 1 556 128 view .LVU3105
	.loc 1 556 4 view .LVU3106
	.loc 1 556 27 view .LVU3107
	.loc 1 556 51 view .LVU3108
	.loc 1 556 79 view .LVU3109
	.loc 1 556 255 view .LVU3110
	.loc 1 556 15 view .LVU3111
.LBB1970:
.LBB1965:
.LBB1960:
	.loc 1 556 28 view .LVU3112
	.loc 1 556 2 view .LVU3113
	.loc 1 556 2 view .LVU3114
	.loc 1 556 69 view .LVU3115
	.loc 1 556 69 is_stmt 0 view .LVU3116
.LBE1960:
.LBE1965:
.LBE1970:
	.loc 1 552 17 view .LVU3117
	push	{r4, lr}
	.cfi_def_cfa_offset 8
	.cfi_offset 4, -8
	.cfi_offset 14, -4
	sub	sp, sp, #24
	.cfi_def_cfa_offset 32
.LVL136:
.LBB1971:
.LBB1966:
.LBB1961:
	.loc 1 556 73 is_stmt 1 view .LVU3118
	.loc 1 556 483 view .LVU3119
	.loc 1 556 4 view .LVU3120
	.loc 1 556 6 view .LVU3121
	.loc 1 556 11 view .LVU3122
	.loc 1 556 9 view .LVU3123
	.loc 1 556 4 view .LVU3124
	.loc 1 556 22 view .LVU3125
.LBB1948:
	.loc 1 556 2 view .LVU3126
	.loc 1 556 367 view .LVU3127
	.loc 1 556 74 view .LVU3128
.LVL137:
	.loc 1 556 1 view .LVU3129
	.loc 1 556 1 view .LVU3130
	.loc 1 556 1 view .LVU3131
	.loc 1 556 37 view .LVU3132
	.loc 1 556 66 view .LVU3133
	.loc 1 556 92 view .LVU3134
	.loc 1 556 118 view .LVU3135
	.loc 1 556 141 view .LVU3136
	.loc 1 556 203 view .LVU3137
	.loc 1 556 260 view .LVU3138
	.loc 1 556 325 view .LVU3139
	.loc 1 556 350 view .LVU3140
	.loc 1 556 351 view .LVU3141
	.loc 1 556 353 view .LVU3142
	.loc 1 556 383 view .LVU3143
	.loc 1 556 413 view .LVU3144
	.loc 1 556 445 view .LVU3145
	.loc 1 556 477 view .LVU3146
	.loc 1 556 509 view .LVU3147
	.loc 1 556 706 view .LVU3148
	.loc 1 556 730 view .LVU3149
	.loc 1 556 731 view .LVU3150
	.loc 1 556 733 view .LVU3151
	.loc 1 556 762 view .LVU3152
	.loc 1 556 791 view .LVU3153
	.loc 1 556 822 view .LVU3154
	.loc 1 556 853 view .LVU3155
	.loc 1 556 884 view .LVU3156
	.loc 1 556 1091 view .LVU3157
	.loc 1 556 3 view .LVU3158
	.loc 1 556 21 view .LVU3159
	.loc 1 556 41 view .LVU3160
	.loc 1 556 3 view .LVU3161
	.loc 1 556 41 view .LVU3162
	.loc 1 556 12 view .LVU3163
	.loc 1 556 12 view .LVU3164
	.loc 1 556 60 view .LVU3165
	.loc 1 556 91 view .LVU3166
	.loc 1 556 125 view .LVU3167
.LBB1949:
	.loc 1 556 130 view .LVU3168
	.loc 1 556 377 view .LVU3169
	.loc 1 556 1418 view .LVU3170
	.loc 1 556 1483 view .LVU3171
.LBE1949:
.LBE1948:
.LBE1961:
.LBE1966:
.LBE1971:
	.loc 1 556 1507 view .LVU3172
	.loc 1 556 1558 view .LVU3173
	.loc 1 556 1569 view .LVU3174
	.loc 1 556 1678 view .LVU3175
.LBB1972:
.LBB1967:
.LBB1962:
.LBB1955:
.LBB1950:
	.loc 1 556 1694 view .LVU3176
	.loc 1 556 1734 view .LVU3177
	.loc 1 556 1759 view .LVU3178
	.loc 1 556 3042 view .LVU3179
	.loc 1 556 3080 view .LVU3180
	.loc 1 556 3085 view .LVU3181
	.loc 1 556 3661 view .LVU3182
	.loc 1 556 0 is_stmt 0 view .LVU3183
	ldr	r3, .L85
.LBE1950:
.LBE1955:
	.loc 1 556 148 view .LVU3184
	ldr	r0, .L85+4
.LBB1956:
.LBB1951:
	.loc 1 556 0 view .LVU3185
	str	r3, [sp, #20]
	.loc 1 556 3083 is_stmt 1 view .LVU3186
	.loc 1 556 6 view .LVU3187
.LVL138:
	.loc 1 556 29 view .LVU3188
	.loc 1 556 29 is_stmt 0 view .LVU3189
.LBE1951:
	.loc 1 556 128 is_stmt 1 view .LVU3190
	.loc 1 556 4 view .LVU3191
	.loc 1 556 27 view .LVU3192
	.loc 1 556 51 view .LVU3193
	.loc 1 556 79 view .LVU3194
.LBE1956:
.LBE1962:
.LBE1967:
.LBE1972:
	.loc 1 556 5 view .LVU3195
	.loc 1 556 44 view .LVU3196
	.loc 1 556 49 view .LVU3197
	.loc 1 556 79 view .LVU3198
	.loc 1 556 146 view .LVU3199
	.loc 1 556 151 view .LVU3200
	.loc 1 556 181 view .LVU3201
.LBB1973:
.LBB1968:
.LBB1963:
.LBB1957:
	.loc 1 556 255 view .LVU3202
	.loc 1 556 15 view .LVU3203
.LBB1952:
	.loc 1 556 5 view .LVU3204
	.loc 1 556 163 view .LVU3205
	.loc 1 556 165 view .LVU3206
.LBE1952:
.LBE1957:
	.loc 1 556 148 is_stmt 0 view .LVU3207
	add	r2, sp, #16
.LVL139:
.LBB1958:
.LBB1953:
	.loc 1 556 175 view .LVU3208
	movs	r4, #2
.LBE1953:
.LBE1958:
	.loc 1 556 148 view .LVU3209
	mov	r1, #4160
.LBB1959:
.LBB1954:
	.loc 1 556 175 view .LVU3210
	str	r4, [sp, #16]
.LVL140:
	.loc 1 556 175 view .LVU3211
.LBE1954:
.LBE1959:
	.loc 1 556 25 is_stmt 1 view .LVU3212
	.loc 1 556 6 view .LVU3213
	.loc 1 556 146 view .LVU3214
	.loc 1 556 148 view .LVU3215
	bl	z_log_msg_static_create.constprop.0
.LVL141:
	.loc 1 556 148 is_stmt 0 view .LVU3216
.LBE1963:
	.loc 1 556 106 is_stmt 1 view .LVU3217
	.loc 1 556 4 view .LVU3218
.LVL142:
	.loc 1 556 41 view .LVU3219
.LBE1968:
	.loc 1 556 5 view .LVU3220
	.loc 1 556 277 view .LVU3221
	.loc 1 556 4 view .LVU3222
	.loc 1 556 17 view .LVU3223
.LBE1973:
	.loc 1 556 5 view .LVU3224
	.loc 1 559 2 view .LVU3225
	.loc 1 559 50 is_stmt 0 view .LVU3226
	ldr	r3, .L85+8
	ldr	r3, [r3, #40]
	.loc 1 559 5 view .LVU3227
	lsls	r2, r3, #6
	bpl	.L69
	.loc 1 560 3 is_stmt 1 view .LVU3228
.LVL143:
	.loc 1 561 3 view .LVU3229
.LBB1974:
	.loc 1 561 8 view .LVU3230
	.loc 1 561 57 view .LVU3231
	.loc 1 561 14 view .LVU3232
	.loc 1 561 2 view .LVU3233
	.loc 1 561 41 view .LVU3234
	.loc 1 561 176 view .LVU3235
	.loc 1 561 187 view .LVU3236
	.loc 1 561 275 view .LVU3237
	.loc 1 561 3 view .LVU3238
	.loc 1 561 3 view .LVU3239
.LBB1975:
	.loc 1 561 8 view .LVU3240
	.loc 1 561 2 view .LVU3241
.LBE1975:
.LBE1974:
	.loc 1 561 3 view .LVU3242
	.loc 1 561 12 view .LVU3243
	.loc 1 561 107 view .LVU3244
	.loc 1 561 3 view .LVU3245
.LBB1988:
.LBB1985:
	.loc 1 561 12 view .LVU3246
	.loc 1 561 102 view .LVU3247
	.loc 1 561 104 view .LVU3248
.LBB1976:
	.loc 1 561 109 view .LVU3249
	.loc 1 561 120 view .LVU3250
	.loc 1 561 209 view .LVU3251
	.loc 1 561 26 view .LVU3252
.LBE1976:
.LBE1985:
.LBE1988:
	.loc 1 561 3 view .LVU3253
	.loc 1 561 368 view .LVU3254
	.loc 1 561 75 view .LVU3255
	.loc 1 561 2 view .LVU3256
	.loc 1 561 2 view .LVU3257
	.loc 1 561 2 view .LVU3258
	.loc 1 561 38 view .LVU3259
	.loc 1 561 4 view .LVU3260
	.loc 1 561 30 view .LVU3261
	.loc 1 561 56 view .LVU3262
	.loc 1 561 79 view .LVU3263
	.loc 1 561 141 view .LVU3264
	.loc 1 561 198 view .LVU3265
	.loc 1 561 263 view .LVU3266
	.loc 1 561 288 view .LVU3267
	.loc 1 561 289 view .LVU3268
	.loc 1 561 291 view .LVU3269
	.loc 1 561 321 view .LVU3270
	.loc 1 561 351 view .LVU3271
	.loc 1 561 383 view .LVU3272
	.loc 1 561 415 view .LVU3273
	.loc 1 561 447 view .LVU3274
	.loc 1 561 644 view .LVU3275
	.loc 1 561 668 view .LVU3276
	.loc 1 561 669 view .LVU3277
	.loc 1 561 671 view .LVU3278
	.loc 1 561 700 view .LVU3279
	.loc 1 561 729 view .LVU3280
	.loc 1 561 760 view .LVU3281
	.loc 1 561 791 view .LVU3282
	.loc 1 561 822 view .LVU3283
	.loc 1 561 1029 view .LVU3284
	.loc 1 561 4 view .LVU3285
	.loc 1 561 22 view .LVU3286
	.loc 1 561 42 view .LVU3287
	.loc 1 561 4 view .LVU3288
	.loc 1 561 42 view .LVU3289
	.loc 1 561 13 view .LVU3290
	.loc 1 561 13 view .LVU3291
	.loc 1 561 61 view .LVU3292
	.loc 1 561 92 view .LVU3293
	.loc 1 561 126 view .LVU3294
	.loc 1 561 131 view .LVU3295
	.loc 1 561 373 view .LVU3296
	.loc 1 561 1394 view .LVU3297
	.loc 1 561 1459 view .LVU3298
	.loc 1 561 1483 view .LVU3299
	.loc 1 561 1529 view .LVU3300
	.loc 1 561 1540 view .LVU3301
	.loc 1 561 1644 view .LVU3302
	.loc 1 561 1660 view .LVU3303
	.loc 1 561 1700 view .LVU3304
	.loc 1 561 1725 view .LVU3305
	.loc 1 561 2998 view .LVU3306
	.loc 1 561 3039 view .LVU3307
	.loc 1 561 7 view .LVU3308
	.loc 1 561 30 view .LVU3309
	.loc 1 561 129 view .LVU3310
	.loc 1 561 5 view .LVU3311
	.loc 1 561 28 view .LVU3312
	.loc 1 561 52 view .LVU3313
	.loc 1 561 80 view .LVU3314
	.loc 1 561 256 view .LVU3315
	.loc 1 561 16 view .LVU3316
.LBB1989:
.LBB1986:
.LBB1983:
	.loc 1 561 29 view .LVU3317
	.loc 1 561 3 view .LVU3318
	.loc 1 561 3 view .LVU3319
	.loc 1 561 70 view .LVU3320
	.loc 1 561 74 view .LVU3321
	.loc 1 561 484 view .LVU3322
	.loc 1 561 5 view .LVU3323
	.loc 1 561 7 view .LVU3324
	.loc 1 561 12 view .LVU3325
	.loc 1 561 10 view .LVU3326
	.loc 1 561 5 view .LVU3327
	.loc 1 561 23 view .LVU3328
.LBB1977:
	.loc 1 561 3 view .LVU3329
	.loc 1 561 368 view .LVU3330
	.loc 1 561 75 view .LVU3331
.LVL144:
	.loc 1 561 2 view .LVU3332
	.loc 1 561 2 view .LVU3333
	.loc 1 561 2 view .LVU3334
	.loc 1 561 38 view .LVU3335
	.loc 1 561 67 view .LVU3336
	.loc 1 561 93 view .LVU3337
	.loc 1 561 119 view .LVU3338
	.loc 1 561 142 view .LVU3339
	.loc 1 561 204 view .LVU3340
	.loc 1 561 261 view .LVU3341
	.loc 1 561 326 view .LVU3342
	.loc 1 561 351 view .LVU3343
	.loc 1 561 352 view .LVU3344
	.loc 1 561 354 view .LVU3345
	.loc 1 561 384 view .LVU3346
	.loc 1 561 414 view .LVU3347
	.loc 1 561 446 view .LVU3348
	.loc 1 561 478 view .LVU3349
	.loc 1 561 510 view .LVU3350
	.loc 1 561 707 view .LVU3351
	.loc 1 561 731 view .LVU3352
	.loc 1 561 732 view .LVU3353
	.loc 1 561 734 view .LVU3354
	.loc 1 561 763 view .LVU3355
	.loc 1 561 792 view .LVU3356
	.loc 1 561 823 view .LVU3357
	.loc 1 561 854 view .LVU3358
	.loc 1 561 885 view .LVU3359
	.loc 1 561 1092 view .LVU3360
	.loc 1 561 4 view .LVU3361
	.loc 1 561 22 view .LVU3362
	.loc 1 561 42 view .LVU3363
	.loc 1 561 4 view .LVU3364
	.loc 1 561 42 view .LVU3365
	.loc 1 561 13 view .LVU3366
	.loc 1 561 13 view .LVU3367
	.loc 1 561 61 view .LVU3368
	.loc 1 561 92 view .LVU3369
	.loc 1 561 126 view .LVU3370
.LBB1978:
	.loc 1 561 131 view .LVU3371
	.loc 1 561 373 view .LVU3372
	.loc 1 561 1394 view .LVU3373
	.loc 1 561 1459 view .LVU3374
.LBE1978:
.LBE1977:
.LBE1983:
.LBE1986:
.LBE1989:
	.loc 1 561 1483 view .LVU3375
	.loc 1 561 1529 view .LVU3376
	.loc 1 561 1540 view .LVU3377
	.loc 1 561 1644 view .LVU3378
.LBB1990:
.LBB1987:
.LBB1984:
.LBB1981:
.LBB1979:
	.loc 1 561 1660 view .LVU3379
	.loc 1 561 1700 view .LVU3380
	.loc 1 561 1725 view .LVU3381
	.loc 1 561 2998 view .LVU3382
	.loc 1 561 3036 view .LVU3383
	.loc 1 561 3041 view .LVU3384
	.loc 1 561 3587 view .LVU3385
	.loc 1 561 0 is_stmt 0 view .LVU3386
	ldr	r3, .L85+12
.LBE1979:
.LBE1981:
	.loc 1 561 149 view .LVU3387
	ldr	r0, .L85+4
	add	r2, sp, #16
.LVL145:
	.loc 1 561 149 view .LVU3388
	mov	r1, #4160
.LBB1982:
.LBB1980:
	.loc 1 561 176 view .LVU3389
	strd	r4, r3, [sp, #16]
	.loc 1 561 176 view .LVU3390
.LBE1980:
.LBE1982:
	.loc 1 561 26 is_stmt 1 view .LVU3391
	.loc 1 561 7 view .LVU3392
	.loc 1 561 147 view .LVU3393
	.loc 1 561 149 view .LVU3394
	bl	z_log_msg_static_create.constprop.0
.LVL146:
	.loc 1 561 149 is_stmt 0 view .LVU3395
.LBE1984:
	.loc 1 561 107 is_stmt 1 view .LVU3396
	.loc 1 561 5 view .LVU3397
.LVL147:
	.loc 1 561 42 view .LVU3398
.LBE1987:
	.loc 1 561 6 view .LVU3399
	.loc 1 561 278 view .LVU3400
	.loc 1 561 5 view .LVU3401
	.loc 1 561 18 view .LVU3402
.LBE1990:
	.loc 1 560 10 is_stmt 0 view .LVU3403
	movs	r0, #30
.LVL148:
.L63:
	.loc 1 561 6 is_stmt 1 view .LVU3404
	.loc 1 563 2 view .LVU3405
	.loc 1 563 50 is_stmt 0 view .LVU3406
	ldr	r3, .L85+8
	ldr	r3, [r3, #40]
	.loc 1 563 5 view .LVU3407
	lsls	r3, r3, #7
	bpl	.L64
	.loc 1 564 3 is_stmt 1 view .LVU3408
.LVL149:
	.loc 1 565 3 view .LVU3409
.LBB1991:
	.loc 1 565 8 view .LVU3410
	.loc 1 565 57 view .LVU3411
	.loc 1 565 14 view .LVU3412
	.loc 1 565 2 view .LVU3413
	.loc 1 565 41 view .LVU3414
	.loc 1 565 176 view .LVU3415
	.loc 1 565 187 view .LVU3416
	.loc 1 565 275 view .LVU3417
	.loc 1 565 3 view .LVU3418
	.loc 1 565 3 view .LVU3419
.LBB1992:
	.loc 1 565 8 view .LVU3420
	.loc 1 565 2 view .LVU3421
.LBE1992:
.LBE1991:
	.loc 1 565 3 view .LVU3422
	.loc 1 565 12 view .LVU3423
	.loc 1 565 107 view .LVU3424
	.loc 1 565 3 view .LVU3425
.LBB2013:
.LBB2009:
	.loc 1 565 12 view .LVU3426
	.loc 1 565 102 view .LVU3427
	.loc 1 565 104 view .LVU3428
.LBB1993:
	.loc 1 565 109 view .LVU3429
	.loc 1 565 120 view .LVU3430
	.loc 1 565 209 view .LVU3431
	.loc 1 565 26 view .LVU3432
.LBE1993:
.LBE2009:
.LBE2013:
	.loc 1 565 3 view .LVU3433
	.loc 1 565 368 view .LVU3434
	.loc 1 565 75 view .LVU3435
	.loc 1 565 2 view .LVU3436
	.loc 1 565 2 view .LVU3437
	.loc 1 565 2 view .LVU3438
	.loc 1 565 38 view .LVU3439
	.loc 1 565 4 view .LVU3440
	.loc 1 565 30 view .LVU3441
	.loc 1 565 56 view .LVU3442
	.loc 1 565 79 view .LVU3443
	.loc 1 565 141 view .LVU3444
	.loc 1 565 198 view .LVU3445
	.loc 1 565 263 view .LVU3446
	.loc 1 565 288 view .LVU3447
	.loc 1 565 289 view .LVU3448
	.loc 1 565 291 view .LVU3449
	.loc 1 565 321 view .LVU3450
	.loc 1 565 351 view .LVU3451
	.loc 1 565 383 view .LVU3452
	.loc 1 565 415 view .LVU3453
	.loc 1 565 447 view .LVU3454
	.loc 1 565 644 view .LVU3455
	.loc 1 565 668 view .LVU3456
	.loc 1 565 669 view .LVU3457
	.loc 1 565 671 view .LVU3458
	.loc 1 565 700 view .LVU3459
	.loc 1 565 729 view .LVU3460
	.loc 1 565 760 view .LVU3461
	.loc 1 565 791 view .LVU3462
	.loc 1 565 822 view .LVU3463
	.loc 1 565 1029 view .LVU3464
	.loc 1 565 4 view .LVU3465
	.loc 1 565 22 view .LVU3466
	.loc 1 565 42 view .LVU3467
	.loc 1 565 4 view .LVU3468
	.loc 1 565 42 view .LVU3469
	.loc 1 565 13 view .LVU3470
	.loc 1 565 13 view .LVU3471
	.loc 1 565 61 view .LVU3472
	.loc 1 565 92 view .LVU3473
	.loc 1 565 126 view .LVU3474
	.loc 1 565 131 view .LVU3475
	.loc 1 565 380 view .LVU3476
	.loc 1 565 1429 view .LVU3477
	.loc 1 565 1494 view .LVU3478
	.loc 1 565 1518 view .LVU3479
	.loc 1 565 1571 view .LVU3480
	.loc 1 565 1582 view .LVU3481
	.loc 1 565 1693 view .LVU3482
	.loc 1 565 1709 view .LVU3483
	.loc 1 565 1749 view .LVU3484
	.loc 1 565 1774 view .LVU3485
	.loc 1 565 3061 view .LVU3486
	.loc 1 565 3102 view .LVU3487
	.loc 1 565 7 view .LVU3488
	.loc 1 565 30 view .LVU3489
	.loc 1 565 129 view .LVU3490
	.loc 1 565 5 view .LVU3491
	.loc 1 565 28 view .LVU3492
	.loc 1 565 52 view .LVU3493
	.loc 1 565 80 view .LVU3494
	.loc 1 565 256 view .LVU3495
	.loc 1 565 16 view .LVU3496
.LBB2014:
.LBB2010:
.LBB2006:
	.loc 1 565 29 view .LVU3497
	.loc 1 565 3 view .LVU3498
	.loc 1 565 3 view .LVU3499
	.loc 1 565 70 view .LVU3500
	.loc 1 565 74 view .LVU3501
	.loc 1 565 484 view .LVU3502
	.loc 1 565 5 view .LVU3503
	.loc 1 565 7 view .LVU3504
	.loc 1 565 12 view .LVU3505
	.loc 1 565 10 view .LVU3506
	.loc 1 565 5 view .LVU3507
	.loc 1 565 23 view .LVU3508
.LBB1994:
	.loc 1 565 3 view .LVU3509
	.loc 1 565 368 view .LVU3510
	.loc 1 565 75 view .LVU3511
.LVL150:
	.loc 1 565 2 view .LVU3512
	.loc 1 565 2 view .LVU3513
	.loc 1 565 2 view .LVU3514
	.loc 1 565 38 view .LVU3515
	.loc 1 565 67 view .LVU3516
	.loc 1 565 93 view .LVU3517
	.loc 1 565 119 view .LVU3518
	.loc 1 565 142 view .LVU3519
	.loc 1 565 204 view .LVU3520
	.loc 1 565 261 view .LVU3521
	.loc 1 565 326 view .LVU3522
	.loc 1 565 351 view .LVU3523
	.loc 1 565 352 view .LVU3524
	.loc 1 565 354 view .LVU3525
	.loc 1 565 384 view .LVU3526
	.loc 1 565 414 view .LVU3527
	.loc 1 565 446 view .LVU3528
	.loc 1 565 478 view .LVU3529
	.loc 1 565 510 view .LVU3530
	.loc 1 565 707 view .LVU3531
	.loc 1 565 731 view .LVU3532
	.loc 1 565 732 view .LVU3533
	.loc 1 565 734 view .LVU3534
	.loc 1 565 763 view .LVU3535
	.loc 1 565 792 view .LVU3536
	.loc 1 565 823 view .LVU3537
	.loc 1 565 854 view .LVU3538
	.loc 1 565 885 view .LVU3539
	.loc 1 565 1092 view .LVU3540
	.loc 1 565 4 view .LVU3541
	.loc 1 565 22 view .LVU3542
	.loc 1 565 42 view .LVU3543
	.loc 1 565 4 view .LVU3544
	.loc 1 565 42 view .LVU3545
	.loc 1 565 13 view .LVU3546
	.loc 1 565 13 view .LVU3547
	.loc 1 565 61 view .LVU3548
	.loc 1 565 92 view .LVU3549
	.loc 1 565 126 view .LVU3550
.LBB1995:
	.loc 1 565 131 view .LVU3551
	.loc 1 565 380 view .LVU3552
	.loc 1 565 1429 view .LVU3553
	.loc 1 565 1494 view .LVU3554
.LBE1995:
.LBE1994:
.LBE2006:
.LBE2010:
.LBE2014:
	.loc 1 565 1518 view .LVU3555
	.loc 1 565 1571 view .LVU3556
	.loc 1 565 1582 view .LVU3557
	.loc 1 565 1693 view .LVU3558
.LBB2015:
.LBB2011:
.LBB2007:
.LBB2001:
.LBB1996:
	.loc 1 565 1709 view .LVU3559
	.loc 1 565 1749 view .LVU3560
	.loc 1 565 1774 view .LVU3561
	.loc 1 565 3061 view .LVU3562
	.loc 1 565 3099 view .LVU3563
	.loc 1 565 3104 view .LVU3564
	.loc 1 565 3692 view .LVU3565
	.loc 1 565 0 is_stmt 0 view .LVU3566
	ldr	r3, .L85+16
.LBE1996:
.LBE2001:
	.loc 1 565 149 view .LVU3567
	ldr	r0, .L85+4
.LBB2002:
.LBB1997:
	.loc 1 565 0 view .LVU3568
	str	r3, [sp, #20]
	.loc 1 565 3102 is_stmt 1 view .LVU3569
	.loc 1 565 7 view .LVU3570
.LVL151:
	.loc 1 565 30 view .LVU3571
	.loc 1 565 30 is_stmt 0 view .LVU3572
.LBE1997:
	.loc 1 565 129 is_stmt 1 view .LVU3573
	.loc 1 565 5 view .LVU3574
	.loc 1 565 28 view .LVU3575
	.loc 1 565 52 view .LVU3576
	.loc 1 565 80 view .LVU3577
.LBE2002:
.LBE2007:
.LBE2011:
.LBE2015:
	.loc 1 565 6 view .LVU3578
	.loc 1 565 45 view .LVU3579
	.loc 1 565 50 view .LVU3580
	.loc 1 565 80 view .LVU3581
	.loc 1 565 147 view .LVU3582
	.loc 1 565 152 view .LVU3583
	.loc 1 565 182 view .LVU3584
.LBB2016:
.LBB2012:
.LBB2008:
.LBB2003:
	.loc 1 565 256 view .LVU3585
	.loc 1 565 16 view .LVU3586
.LBB1998:
	.loc 1 565 6 view .LVU3587
	.loc 1 565 164 view .LVU3588
	.loc 1 565 166 view .LVU3589
.LBE1998:
.LBE2003:
	.loc 1 565 149 is_stmt 0 view .LVU3590
	add	r2, sp, #16
.LVL152:
.LBB2004:
.LBB1999:
	.loc 1 565 176 view .LVU3591
	movs	r3, #2
.LBE1999:
.LBE2004:
	.loc 1 565 149 view .LVU3592
	mov	r1, #4160
.LBB2005:
.LBB2000:
	.loc 1 565 176 view .LVU3593
	str	r3, [sp, #16]
.LVL153:
	.loc 1 565 176 view .LVU3594
.LBE2000:
.LBE2005:
	.loc 1 565 26 is_stmt 1 view .LVU3595
	.loc 1 565 7 view .LVU3596
	.loc 1 565 147 view .LVU3597
	.loc 1 565 149 view .LVU3598
	bl	z_log_msg_static_create.constprop.0
.LVL154:
	.loc 1 565 149 is_stmt 0 view .LVU3599
.LBE2008:
	.loc 1 565 107 is_stmt 1 view .LVU3600
	.loc 1 565 5 view .LVU3601
.LVL155:
	.loc 1 565 42 view .LVU3602
.LBE2012:
	.loc 1 565 6 view .LVU3603
	.loc 1 565 278 view .LVU3604
	.loc 1 565 5 view .LVU3605
	.loc 1 565 18 view .LVU3606
.LBE2016:
	.loc 1 564 10 is_stmt 0 view .LVU3607
	movs	r0, #31
.LVL156:
.L64:
	.loc 1 565 6 is_stmt 1 view .LVU3608
	.loc 1 583 2 view .LVU3609
	.loc 1 583 50 is_stmt 0 view .LVU3610
	ldr	r3, .L85+8
	ldr	r3, [r3, #40]
	.loc 1 583 5 view .LVU3611
	lsls	r4, r3, #12
	bpl	.L65
	.loc 1 584 3 is_stmt 1 view .LVU3612
.LVL157:
	.loc 1 585 3 view .LVU3613
.LBB2017:
	.loc 1 585 8 view .LVU3614
	.loc 1 585 57 view .LVU3615
	.loc 1 585 14 view .LVU3616
	.loc 1 585 2 view .LVU3617
	.loc 1 585 41 view .LVU3618
	.loc 1 585 176 view .LVU3619
	.loc 1 585 187 view .LVU3620
	.loc 1 585 275 view .LVU3621
	.loc 1 585 3 view .LVU3622
	.loc 1 585 3 view .LVU3623
.LBB2018:
	.loc 1 585 8 view .LVU3624
	.loc 1 585 2 view .LVU3625
.LBE2018:
.LBE2017:
	.loc 1 585 3 view .LVU3626
	.loc 1 585 12 view .LVU3627
	.loc 1 585 107 view .LVU3628
	.loc 1 585 3 view .LVU3629
.LBB2039:
.LBB2035:
	.loc 1 585 12 view .LVU3630
	.loc 1 585 102 view .LVU3631
	.loc 1 585 104 view .LVU3632
.LBB2019:
	.loc 1 585 109 view .LVU3633
	.loc 1 585 120 view .LVU3634
	.loc 1 585 209 view .LVU3635
	.loc 1 585 26 view .LVU3636
.LBE2019:
.LBE2035:
.LBE2039:
	.loc 1 585 3 view .LVU3637
	.loc 1 585 368 view .LVU3638
	.loc 1 585 75 view .LVU3639
	.loc 1 585 2 view .LVU3640
	.loc 1 585 2 view .LVU3641
	.loc 1 585 2 view .LVU3642
	.loc 1 585 38 view .LVU3643
	.loc 1 585 4 view .LVU3644
	.loc 1 585 30 view .LVU3645
	.loc 1 585 56 view .LVU3646
	.loc 1 585 79 view .LVU3647
	.loc 1 585 141 view .LVU3648
	.loc 1 585 198 view .LVU3649
	.loc 1 585 263 view .LVU3650
	.loc 1 585 288 view .LVU3651
	.loc 1 585 289 view .LVU3652
	.loc 1 585 291 view .LVU3653
	.loc 1 585 321 view .LVU3654
	.loc 1 585 351 view .LVU3655
	.loc 1 585 383 view .LVU3656
	.loc 1 585 415 view .LVU3657
	.loc 1 585 447 view .LVU3658
	.loc 1 585 644 view .LVU3659
	.loc 1 585 668 view .LVU3660
	.loc 1 585 669 view .LVU3661
	.loc 1 585 671 view .LVU3662
	.loc 1 585 700 view .LVU3663
	.loc 1 585 729 view .LVU3664
	.loc 1 585 760 view .LVU3665
	.loc 1 585 791 view .LVU3666
	.loc 1 585 822 view .LVU3667
	.loc 1 585 1029 view .LVU3668
	.loc 1 585 4 view .LVU3669
	.loc 1 585 22 view .LVU3670
	.loc 1 585 42 view .LVU3671
	.loc 1 585 4 view .LVU3672
	.loc 1 585 42 view .LVU3673
	.loc 1 585 13 view .LVU3674
	.loc 1 585 13 view .LVU3675
	.loc 1 585 61 view .LVU3676
	.loc 1 585 92 view .LVU3677
	.loc 1 585 126 view .LVU3678
	.loc 1 585 131 view .LVU3679
	.loc 1 585 384 view .LVU3680
	.loc 1 585 1449 view .LVU3681
	.loc 1 585 1514 view .LVU3682
	.loc 1 585 1538 view .LVU3683
	.loc 1 585 1595 view .LVU3684
	.loc 1 585 1606 view .LVU3685
	.loc 1 585 1721 view .LVU3686
	.loc 1 585 1737 view .LVU3687
	.loc 1 585 1777 view .LVU3688
	.loc 1 585 1802 view .LVU3689
	.loc 1 585 3097 view .LVU3690
	.loc 1 585 3138 view .LVU3691
	.loc 1 585 7 view .LVU3692
	.loc 1 585 30 view .LVU3693
	.loc 1 585 129 view .LVU3694
	.loc 1 585 5 view .LVU3695
	.loc 1 585 28 view .LVU3696
	.loc 1 585 52 view .LVU3697
	.loc 1 585 80 view .LVU3698
	.loc 1 585 256 view .LVU3699
	.loc 1 585 16 view .LVU3700
.LBB2040:
.LBB2036:
.LBB2032:
	.loc 1 585 29 view .LVU3701
	.loc 1 585 3 view .LVU3702
	.loc 1 585 3 view .LVU3703
	.loc 1 585 70 view .LVU3704
	.loc 1 585 74 view .LVU3705
	.loc 1 585 484 view .LVU3706
	.loc 1 585 5 view .LVU3707
	.loc 1 585 7 view .LVU3708
	.loc 1 585 12 view .LVU3709
	.loc 1 585 10 view .LVU3710
	.loc 1 585 5 view .LVU3711
	.loc 1 585 23 view .LVU3712
.LBB2020:
	.loc 1 585 3 view .LVU3713
	.loc 1 585 368 view .LVU3714
	.loc 1 585 75 view .LVU3715
.LVL158:
	.loc 1 585 2 view .LVU3716
	.loc 1 585 2 view .LVU3717
	.loc 1 585 2 view .LVU3718
	.loc 1 585 38 view .LVU3719
	.loc 1 585 67 view .LVU3720
	.loc 1 585 93 view .LVU3721
	.loc 1 585 119 view .LVU3722
	.loc 1 585 142 view .LVU3723
	.loc 1 585 204 view .LVU3724
	.loc 1 585 261 view .LVU3725
	.loc 1 585 326 view .LVU3726
	.loc 1 585 351 view .LVU3727
	.loc 1 585 352 view .LVU3728
	.loc 1 585 354 view .LVU3729
	.loc 1 585 384 view .LVU3730
	.loc 1 585 414 view .LVU3731
	.loc 1 585 446 view .LVU3732
	.loc 1 585 478 view .LVU3733
	.loc 1 585 510 view .LVU3734
	.loc 1 585 707 view .LVU3735
	.loc 1 585 731 view .LVU3736
	.loc 1 585 732 view .LVU3737
	.loc 1 585 734 view .LVU3738
	.loc 1 585 763 view .LVU3739
	.loc 1 585 792 view .LVU3740
	.loc 1 585 823 view .LVU3741
	.loc 1 585 854 view .LVU3742
	.loc 1 585 885 view .LVU3743
	.loc 1 585 1092 view .LVU3744
	.loc 1 585 4 view .LVU3745
	.loc 1 585 22 view .LVU3746
	.loc 1 585 42 view .LVU3747
	.loc 1 585 4 view .LVU3748
	.loc 1 585 42 view .LVU3749
	.loc 1 585 13 view .LVU3750
	.loc 1 585 13 view .LVU3751
	.loc 1 585 61 view .LVU3752
	.loc 1 585 92 view .LVU3753
	.loc 1 585 126 view .LVU3754
.LBB2021:
	.loc 1 585 131 view .LVU3755
	.loc 1 585 384 view .LVU3756
	.loc 1 585 1449 view .LVU3757
	.loc 1 585 1514 view .LVU3758
.LBE2021:
.LBE2020:
.LBE2032:
.LBE2036:
.LBE2040:
	.loc 1 585 1538 view .LVU3759
	.loc 1 585 1595 view .LVU3760
	.loc 1 585 1606 view .LVU3761
	.loc 1 585 1721 view .LVU3762
.LBB2041:
.LBB2037:
.LBB2033:
.LBB2027:
.LBB2022:
	.loc 1 585 1737 view .LVU3763
	.loc 1 585 1777 view .LVU3764
	.loc 1 585 1802 view .LVU3765
	.loc 1 585 3097 view .LVU3766
	.loc 1 585 3135 view .LVU3767
	.loc 1 585 3140 view .LVU3768
	.loc 1 585 3752 view .LVU3769
	.loc 1 585 0 is_stmt 0 view .LVU3770
	ldr	r3, .L85+20
.LBE2022:
.LBE2027:
	.loc 1 585 149 view .LVU3771
	ldr	r0, .L85+4
.LBB2028:
.LBB2023:
	.loc 1 585 0 view .LVU3772
	str	r3, [sp, #20]
	.loc 1 585 3138 is_stmt 1 view .LVU3773
	.loc 1 585 7 view .LVU3774
.LVL159:
	.loc 1 585 30 view .LVU3775
	.loc 1 585 30 is_stmt 0 view .LVU3776
.LBE2023:
	.loc 1 585 129 is_stmt 1 view .LVU3777
	.loc 1 585 5 view .LVU3778
	.loc 1 585 28 view .LVU3779
	.loc 1 585 52 view .LVU3780
	.loc 1 585 80 view .LVU3781
.LBE2028:
.LBE2033:
.LBE2037:
.LBE2041:
	.loc 1 585 6 view .LVU3782
	.loc 1 585 45 view .LVU3783
	.loc 1 585 50 view .LVU3784
	.loc 1 585 80 view .LVU3785
	.loc 1 585 147 view .LVU3786
	.loc 1 585 152 view .LVU3787
	.loc 1 585 182 view .LVU3788
.LBB2042:
.LBB2038:
.LBB2034:
.LBB2029:
	.loc 1 585 256 view .LVU3789
	.loc 1 585 16 view .LVU3790
.LBB2024:
	.loc 1 585 6 view .LVU3791
	.loc 1 585 164 view .LVU3792
	.loc 1 585 166 view .LVU3793
.LBE2024:
.LBE2029:
	.loc 1 585 149 is_stmt 0 view .LVU3794
	add	r2, sp, #16
.LVL160:
.LBB2030:
.LBB2025:
	.loc 1 585 176 view .LVU3795
	movs	r3, #2
.LBE2025:
.LBE2030:
	.loc 1 585 149 view .LVU3796
	mov	r1, #4160
.LBB2031:
.LBB2026:
	.loc 1 585 176 view .LVU3797
	str	r3, [sp, #16]
.LVL161:
	.loc 1 585 176 view .LVU3798
.LBE2026:
.LBE2031:
	.loc 1 585 26 is_stmt 1 view .LVU3799
	.loc 1 585 7 view .LVU3800
	.loc 1 585 147 view .LVU3801
	.loc 1 585 149 view .LVU3802
	bl	z_log_msg_static_create.constprop.0
.LVL162:
	.loc 1 585 149 is_stmt 0 view .LVU3803
.LBE2034:
	.loc 1 585 107 is_stmt 1 view .LVU3804
	.loc 1 585 5 view .LVU3805
.LVL163:
	.loc 1 585 42 view .LVU3806
.LBE2038:
	.loc 1 585 6 view .LVU3807
	.loc 1 585 278 view .LVU3808
	.loc 1 585 5 view .LVU3809
	.loc 1 585 18 view .LVU3810
.LBE2042:
	.loc 1 584 10 is_stmt 0 view .LVU3811
	movs	r0, #33
.LVL164:
.L65:
	.loc 1 585 6 is_stmt 1 view .LVU3812
	.loc 1 587 2 view .LVU3813
	.loc 1 587 50 is_stmt 0 view .LVU3814
	ldr	r3, .L85+8
	ldr	r3, [r3, #40]
	.loc 1 587 5 view .LVU3815
	lsls	r1, r3, #13
	bpl	.L66
	.loc 1 588 3 is_stmt 1 view .LVU3816
.LVL165:
	.loc 1 589 3 view .LVU3817
.LBB2043:
	.loc 1 589 8 view .LVU3818
	.loc 1 589 57 view .LVU3819
	.loc 1 589 14 view .LVU3820
	.loc 1 589 2 view .LVU3821
	.loc 1 589 41 view .LVU3822
	.loc 1 589 176 view .LVU3823
	.loc 1 589 187 view .LVU3824
	.loc 1 589 275 view .LVU3825
	.loc 1 589 3 view .LVU3826
	.loc 1 589 3 view .LVU3827
.LBB2044:
	.loc 1 589 8 view .LVU3828
	.loc 1 589 2 view .LVU3829
.LBE2044:
.LBE2043:
	.loc 1 589 3 view .LVU3830
	.loc 1 589 12 view .LVU3831
	.loc 1 589 107 view .LVU3832
	.loc 1 589 3 view .LVU3833
.LBB2065:
.LBB2061:
	.loc 1 589 12 view .LVU3834
	.loc 1 589 102 view .LVU3835
	.loc 1 589 104 view .LVU3836
.LBB2045:
	.loc 1 589 109 view .LVU3837
	.loc 1 589 120 view .LVU3838
	.loc 1 589 209 view .LVU3839
	.loc 1 589 26 view .LVU3840
.LBE2045:
.LBE2061:
.LBE2065:
	.loc 1 589 3 view .LVU3841
	.loc 1 589 368 view .LVU3842
	.loc 1 589 75 view .LVU3843
	.loc 1 589 2 view .LVU3844
	.loc 1 589 2 view .LVU3845
	.loc 1 589 2 view .LVU3846
	.loc 1 589 38 view .LVU3847
	.loc 1 589 4 view .LVU3848
	.loc 1 589 30 view .LVU3849
	.loc 1 589 56 view .LVU3850
	.loc 1 589 79 view .LVU3851
	.loc 1 589 141 view .LVU3852
	.loc 1 589 198 view .LVU3853
	.loc 1 589 263 view .LVU3854
	.loc 1 589 288 view .LVU3855
	.loc 1 589 289 view .LVU3856
	.loc 1 589 291 view .LVU3857
	.loc 1 589 321 view .LVU3858
	.loc 1 589 351 view .LVU3859
	.loc 1 589 383 view .LVU3860
	.loc 1 589 415 view .LVU3861
	.loc 1 589 447 view .LVU3862
	.loc 1 589 644 view .LVU3863
	.loc 1 589 668 view .LVU3864
	.loc 1 589 669 view .LVU3865
	.loc 1 589 671 view .LVU3866
	.loc 1 589 700 view .LVU3867
	.loc 1 589 729 view .LVU3868
	.loc 1 589 760 view .LVU3869
	.loc 1 589 791 view .LVU3870
	.loc 1 589 822 view .LVU3871
	.loc 1 589 1029 view .LVU3872
	.loc 1 589 4 view .LVU3873
	.loc 1 589 22 view .LVU3874
	.loc 1 589 42 view .LVU3875
	.loc 1 589 4 view .LVU3876
	.loc 1 589 42 view .LVU3877
	.loc 1 589 13 view .LVU3878
	.loc 1 589 13 view .LVU3879
	.loc 1 589 61 view .LVU3880
	.loc 1 589 92 view .LVU3881
	.loc 1 589 126 view .LVU3882
	.loc 1 589 131 view .LVU3883
	.loc 1 589 391 view .LVU3884
	.loc 1 589 1484 view .LVU3885
	.loc 1 589 1549 view .LVU3886
	.loc 1 589 1573 view .LVU3887
	.loc 1 589 1637 view .LVU3888
	.loc 1 589 1648 view .LVU3889
	.loc 1 589 1770 view .LVU3890
	.loc 1 589 1786 view .LVU3891
	.loc 1 589 1826 view .LVU3892
	.loc 1 589 1851 view .LVU3893
	.loc 1 589 3160 view .LVU3894
	.loc 1 589 3201 view .LVU3895
	.loc 1 589 7 view .LVU3896
	.loc 1 589 30 view .LVU3897
	.loc 1 589 129 view .LVU3898
	.loc 1 589 5 view .LVU3899
	.loc 1 589 28 view .LVU3900
	.loc 1 589 52 view .LVU3901
	.loc 1 589 80 view .LVU3902
	.loc 1 589 256 view .LVU3903
	.loc 1 589 16 view .LVU3904
.LBB2066:
.LBB2062:
.LBB2058:
	.loc 1 589 29 view .LVU3905
	.loc 1 589 3 view .LVU3906
	.loc 1 589 3 view .LVU3907
	.loc 1 589 70 view .LVU3908
	.loc 1 589 74 view .LVU3909
	.loc 1 589 484 view .LVU3910
	.loc 1 589 5 view .LVU3911
	.loc 1 589 7 view .LVU3912
	.loc 1 589 12 view .LVU3913
	.loc 1 589 10 view .LVU3914
	.loc 1 589 5 view .LVU3915
	.loc 1 589 23 view .LVU3916
.LBB2046:
	.loc 1 589 3 view .LVU3917
	.loc 1 589 368 view .LVU3918
	.loc 1 589 75 view .LVU3919
.LVL166:
	.loc 1 589 2 view .LVU3920
	.loc 1 589 2 view .LVU3921
	.loc 1 589 2 view .LVU3922
	.loc 1 589 38 view .LVU3923
	.loc 1 589 67 view .LVU3924
	.loc 1 589 93 view .LVU3925
	.loc 1 589 119 view .LVU3926
	.loc 1 589 142 view .LVU3927
	.loc 1 589 204 view .LVU3928
	.loc 1 589 261 view .LVU3929
	.loc 1 589 326 view .LVU3930
	.loc 1 589 351 view .LVU3931
	.loc 1 589 352 view .LVU3932
	.loc 1 589 354 view .LVU3933
	.loc 1 589 384 view .LVU3934
	.loc 1 589 414 view .LVU3935
	.loc 1 589 446 view .LVU3936
	.loc 1 589 478 view .LVU3937
	.loc 1 589 510 view .LVU3938
	.loc 1 589 707 view .LVU3939
	.loc 1 589 731 view .LVU3940
	.loc 1 589 732 view .LVU3941
	.loc 1 589 734 view .LVU3942
	.loc 1 589 763 view .LVU3943
	.loc 1 589 792 view .LVU3944
	.loc 1 589 823 view .LVU3945
	.loc 1 589 854 view .LVU3946
	.loc 1 589 885 view .LVU3947
	.loc 1 589 1092 view .LVU3948
	.loc 1 589 4 view .LVU3949
	.loc 1 589 22 view .LVU3950
	.loc 1 589 42 view .LVU3951
	.loc 1 589 4 view .LVU3952
	.loc 1 589 42 view .LVU3953
	.loc 1 589 13 view .LVU3954
	.loc 1 589 13 view .LVU3955
	.loc 1 589 61 view .LVU3956
	.loc 1 589 92 view .LVU3957
	.loc 1 589 126 view .LVU3958
.LBB2047:
	.loc 1 589 131 view .LVU3959
	.loc 1 589 391 view .LVU3960
	.loc 1 589 1484 view .LVU3961
	.loc 1 589 1549 view .LVU3962
.LBE2047:
.LBE2046:
.LBE2058:
.LBE2062:
.LBE2066:
	.loc 1 589 1573 view .LVU3963
	.loc 1 589 1637 view .LVU3964
	.loc 1 589 1648 view .LVU3965
	.loc 1 589 1770 view .LVU3966
.LBB2067:
.LBB2063:
.LBB2059:
.LBB2053:
.LBB2048:
	.loc 1 589 1786 view .LVU3967
	.loc 1 589 1826 view .LVU3968
	.loc 1 589 1851 view .LVU3969
	.loc 1 589 3160 view .LVU3970
	.loc 1 589 3198 view .LVU3971
	.loc 1 589 3203 view .LVU3972
	.loc 1 589 3857 view .LVU3973
	.loc 1 589 0 is_stmt 0 view .LVU3974
	ldr	r3, .L85+24
.LBE2048:
.LBE2053:
	.loc 1 589 149 view .LVU3975
	ldr	r0, .L85+4
.LBB2054:
.LBB2049:
	.loc 1 589 0 view .LVU3976
	str	r3, [sp, #20]
	.loc 1 589 3201 is_stmt 1 view .LVU3977
	.loc 1 589 7 view .LVU3978
.LVL167:
	.loc 1 589 30 view .LVU3979
	.loc 1 589 30 is_stmt 0 view .LVU3980
.LBE2049:
	.loc 1 589 129 is_stmt 1 view .LVU3981
	.loc 1 589 5 view .LVU3982
	.loc 1 589 28 view .LVU3983
	.loc 1 589 52 view .LVU3984
	.loc 1 589 80 view .LVU3985
.LBE2054:
.LBE2059:
.LBE2063:
.LBE2067:
	.loc 1 589 6 view .LVU3986
	.loc 1 589 45 view .LVU3987
	.loc 1 589 50 view .LVU3988
	.loc 1 589 80 view .LVU3989
	.loc 1 589 147 view .LVU3990
	.loc 1 589 152 view .LVU3991
	.loc 1 589 182 view .LVU3992
.LBB2068:
.LBB2064:
.LBB2060:
.LBB2055:
	.loc 1 589 256 view .LVU3993
	.loc 1 589 16 view .LVU3994
.LBB2050:
	.loc 1 589 6 view .LVU3995
	.loc 1 589 164 view .LVU3996
	.loc 1 589 166 view .LVU3997
.LBE2050:
.LBE2055:
	.loc 1 589 149 is_stmt 0 view .LVU3998
	add	r2, sp, #16
.LVL168:
.LBB2056:
.LBB2051:
	.loc 1 589 176 view .LVU3999
	movs	r3, #2
.LBE2051:
.LBE2056:
	.loc 1 589 149 view .LVU4000
	mov	r1, #4160
.LBB2057:
.LBB2052:
	.loc 1 589 176 view .LVU4001
	str	r3, [sp, #16]
.LVL169:
	.loc 1 589 176 view .LVU4002
.LBE2052:
.LBE2057:
	.loc 1 589 26 is_stmt 1 view .LVU4003
	.loc 1 589 7 view .LVU4004
	.loc 1 589 147 view .LVU4005
	.loc 1 589 149 view .LVU4006
	bl	z_log_msg_static_create.constprop.0
.LVL170:
	.loc 1 589 149 is_stmt 0 view .LVU4007
.LBE2060:
	.loc 1 589 107 is_stmt 1 view .LVU4008
	.loc 1 589 5 view .LVU4009
.LVL171:
	.loc 1 589 42 view .LVU4010
.LBE2064:
	.loc 1 589 6 view .LVU4011
	.loc 1 589 278 view .LVU4012
	.loc 1 589 5 view .LVU4013
	.loc 1 589 18 view .LVU4014
.LBE2068:
	.loc 1 588 10 is_stmt 0 view .LVU4015
	movs	r0, #34
.LVL172:
.L66:
	.loc 1 589 6 is_stmt 1 view .LVU4016
	.loc 1 591 2 view .LVU4017
	.loc 1 591 50 is_stmt 0 view .LVU4018
	ldr	r3, .L85+8
	ldr	r3, [r3, #40]
	.loc 1 591 5 view .LVU4019
	lsls	r2, r3, #14
	bpl	.L67
	.loc 1 592 3 is_stmt 1 view .LVU4020
.LVL173:
	.loc 1 593 3 view .LVU4021
.LBB2069:
	.loc 1 593 8 view .LVU4022
	.loc 1 593 57 view .LVU4023
	.loc 1 593 14 view .LVU4024
	.loc 1 593 2 view .LVU4025
	.loc 1 593 41 view .LVU4026
	.loc 1 593 176 view .LVU4027
	.loc 1 593 187 view .LVU4028
	.loc 1 593 275 view .LVU4029
	.loc 1 593 3 view .LVU4030
	.loc 1 593 3 view .LVU4031
.LBB2070:
	.loc 1 593 8 view .LVU4032
	.loc 1 593 2 view .LVU4033
.LBE2070:
.LBE2069:
	.loc 1 593 3 view .LVU4034
	.loc 1 593 12 view .LVU4035
	.loc 1 593 107 view .LVU4036
	.loc 1 593 3 view .LVU4037
.LBB2091:
.LBB2087:
	.loc 1 593 12 view .LVU4038
	.loc 1 593 102 view .LVU4039
	.loc 1 593 104 view .LVU4040
.LBB2071:
	.loc 1 593 109 view .LVU4041
	.loc 1 593 120 view .LVU4042
	.loc 1 593 209 view .LVU4043
	.loc 1 593 26 view .LVU4044
.LBE2071:
.LBE2087:
.LBE2091:
	.loc 1 593 3 view .LVU4045
	.loc 1 593 368 view .LVU4046
	.loc 1 593 75 view .LVU4047
	.loc 1 593 2 view .LVU4048
	.loc 1 593 2 view .LVU4049
	.loc 1 593 2 view .LVU4050
	.loc 1 593 38 view .LVU4051
	.loc 1 593 4 view .LVU4052
	.loc 1 593 30 view .LVU4053
	.loc 1 593 56 view .LVU4054
	.loc 1 593 79 view .LVU4055
	.loc 1 593 141 view .LVU4056
	.loc 1 593 198 view .LVU4057
	.loc 1 593 263 view .LVU4058
	.loc 1 593 288 view .LVU4059
	.loc 1 593 289 view .LVU4060
	.loc 1 593 291 view .LVU4061
	.loc 1 593 321 view .LVU4062
	.loc 1 593 351 view .LVU4063
	.loc 1 593 383 view .LVU4064
	.loc 1 593 415 view .LVU4065
	.loc 1 593 447 view .LVU4066
	.loc 1 593 644 view .LVU4067
	.loc 1 593 668 view .LVU4068
	.loc 1 593 669 view .LVU4069
	.loc 1 593 671 view .LVU4070
	.loc 1 593 700 view .LVU4071
	.loc 1 593 729 view .LVU4072
	.loc 1 593 760 view .LVU4073
	.loc 1 593 791 view .LVU4074
	.loc 1 593 822 view .LVU4075
	.loc 1 593 1029 view .LVU4076
	.loc 1 593 4 view .LVU4077
	.loc 1 593 22 view .LVU4078
	.loc 1 593 42 view .LVU4079
	.loc 1 593 4 view .LVU4080
	.loc 1 593 42 view .LVU4081
	.loc 1 593 13 view .LVU4082
	.loc 1 593 13 view .LVU4083
	.loc 1 593 61 view .LVU4084
	.loc 1 593 92 view .LVU4085
	.loc 1 593 126 view .LVU4086
	.loc 1 593 131 view .LVU4087
	.loc 1 593 380 view .LVU4088
	.loc 1 593 1429 view .LVU4089
	.loc 1 593 1494 view .LVU4090
	.loc 1 593 1518 view .LVU4091
	.loc 1 593 1571 view .LVU4092
	.loc 1 593 1582 view .LVU4093
	.loc 1 593 1693 view .LVU4094
	.loc 1 593 1709 view .LVU4095
	.loc 1 593 1749 view .LVU4096
	.loc 1 593 1774 view .LVU4097
	.loc 1 593 3061 view .LVU4098
	.loc 1 593 3102 view .LVU4099
	.loc 1 593 7 view .LVU4100
	.loc 1 593 30 view .LVU4101
	.loc 1 593 129 view .LVU4102
	.loc 1 593 5 view .LVU4103
	.loc 1 593 28 view .LVU4104
	.loc 1 593 52 view .LVU4105
	.loc 1 593 80 view .LVU4106
	.loc 1 593 256 view .LVU4107
	.loc 1 593 16 view .LVU4108
.LBB2092:
.LBB2088:
.LBB2084:
	.loc 1 593 29 view .LVU4109
	.loc 1 593 3 view .LVU4110
	.loc 1 593 3 view .LVU4111
	.loc 1 593 70 view .LVU4112
	.loc 1 593 74 view .LVU4113
	.loc 1 593 484 view .LVU4114
	.loc 1 593 5 view .LVU4115
	.loc 1 593 7 view .LVU4116
	.loc 1 593 12 view .LVU4117
	.loc 1 593 10 view .LVU4118
	.loc 1 593 5 view .LVU4119
	.loc 1 593 23 view .LVU4120
.LBB2072:
	.loc 1 593 3 view .LVU4121
	.loc 1 593 368 view .LVU4122
	.loc 1 593 75 view .LVU4123
.LVL174:
	.loc 1 593 2 view .LVU4124
	.loc 1 593 2 view .LVU4125
	.loc 1 593 2 view .LVU4126
	.loc 1 593 38 view .LVU4127
	.loc 1 593 67 view .LVU4128
	.loc 1 593 93 view .LVU4129
	.loc 1 593 119 view .LVU4130
	.loc 1 593 142 view .LVU4131
	.loc 1 593 204 view .LVU4132
	.loc 1 593 261 view .LVU4133
	.loc 1 593 326 view .LVU4134
	.loc 1 593 351 view .LVU4135
	.loc 1 593 352 view .LVU4136
	.loc 1 593 354 view .LVU4137
	.loc 1 593 384 view .LVU4138
	.loc 1 593 414 view .LVU4139
	.loc 1 593 446 view .LVU4140
	.loc 1 593 478 view .LVU4141
	.loc 1 593 510 view .LVU4142
	.loc 1 593 707 view .LVU4143
	.loc 1 593 731 view .LVU4144
	.loc 1 593 732 view .LVU4145
	.loc 1 593 734 view .LVU4146
	.loc 1 593 763 view .LVU4147
	.loc 1 593 792 view .LVU4148
	.loc 1 593 823 view .LVU4149
	.loc 1 593 854 view .LVU4150
	.loc 1 593 885 view .LVU4151
	.loc 1 593 1092 view .LVU4152
	.loc 1 593 4 view .LVU4153
	.loc 1 593 22 view .LVU4154
	.loc 1 593 42 view .LVU4155
	.loc 1 593 4 view .LVU4156
	.loc 1 593 42 view .LVU4157
	.loc 1 593 13 view .LVU4158
	.loc 1 593 13 view .LVU4159
	.loc 1 593 61 view .LVU4160
	.loc 1 593 92 view .LVU4161
	.loc 1 593 126 view .LVU4162
.LBB2073:
	.loc 1 593 131 view .LVU4163
	.loc 1 593 380 view .LVU4164
	.loc 1 593 1429 view .LVU4165
	.loc 1 593 1494 view .LVU4166
.LBE2073:
.LBE2072:
.LBE2084:
.LBE2088:
.LBE2092:
	.loc 1 593 1518 view .LVU4167
	.loc 1 593 1571 view .LVU4168
	.loc 1 593 1582 view .LVU4169
	.loc 1 593 1693 view .LVU4170
.LBB2093:
.LBB2089:
.LBB2085:
.LBB2079:
.LBB2074:
	.loc 1 593 1709 view .LVU4171
	.loc 1 593 1749 view .LVU4172
	.loc 1 593 1774 view .LVU4173
	.loc 1 593 3061 view .LVU4174
	.loc 1 593 3099 view .LVU4175
	.loc 1 593 3104 view .LVU4176
	.loc 1 593 3692 view .LVU4177
	.loc 1 593 0 is_stmt 0 view .LVU4178
	ldr	r3, .L85+28
.LBE2074:
.LBE2079:
	.loc 1 593 149 view .LVU4179
	ldr	r0, .L85+4
.LBB2080:
.LBB2075:
	.loc 1 593 0 view .LVU4180
	str	r3, [sp, #20]
	.loc 1 593 3102 is_stmt 1 view .LVU4181
	.loc 1 593 7 view .LVU4182
.LVL175:
	.loc 1 593 30 view .LVU4183
	.loc 1 593 30 is_stmt 0 view .LVU4184
.LBE2075:
	.loc 1 593 129 is_stmt 1 view .LVU4185
	.loc 1 593 5 view .LVU4186
	.loc 1 593 28 view .LVU4187
	.loc 1 593 52 view .LVU4188
	.loc 1 593 80 view .LVU4189
.LBE2080:
.LBE2085:
.LBE2089:
.LBE2093:
	.loc 1 593 6 view .LVU4190
	.loc 1 593 45 view .LVU4191
	.loc 1 593 50 view .LVU4192
	.loc 1 593 80 view .LVU4193
	.loc 1 593 147 view .LVU4194
	.loc 1 593 152 view .LVU4195
	.loc 1 593 182 view .LVU4196
.LBB2094:
.LBB2090:
.LBB2086:
.LBB2081:
	.loc 1 593 256 view .LVU4197
	.loc 1 593 16 view .LVU4198
.LBB2076:
	.loc 1 593 6 view .LVU4199
	.loc 1 593 164 view .LVU4200
	.loc 1 593 166 view .LVU4201
.LBE2076:
.LBE2081:
	.loc 1 593 149 is_stmt 0 view .LVU4202
	add	r2, sp, #16
.LVL176:
.LBB2082:
.LBB2077:
	.loc 1 593 176 view .LVU4203
	movs	r3, #2
.LBE2077:
.LBE2082:
	.loc 1 593 149 view .LVU4204
	mov	r1, #4160
.LBB2083:
.LBB2078:
	.loc 1 593 176 view .LVU4205
	str	r3, [sp, #16]
.LVL177:
	.loc 1 593 176 view .LVU4206
.LBE2078:
.LBE2083:
	.loc 1 593 26 is_stmt 1 view .LVU4207
	.loc 1 593 7 view .LVU4208
	.loc 1 593 147 view .LVU4209
	.loc 1 593 149 view .LVU4210
	bl	z_log_msg_static_create.constprop.0
.LVL178:
	.loc 1 593 149 is_stmt 0 view .LVU4211
.LBE2086:
	.loc 1 593 107 is_stmt 1 view .LVU4212
	.loc 1 593 5 view .LVU4213
.LVL179:
	.loc 1 593 42 view .LVU4214
.LBE2090:
	.loc 1 593 6 view .LVU4215
	.loc 1 593 278 view .LVU4216
	.loc 1 593 5 view .LVU4217
	.loc 1 593 18 view .LVU4218
.LBE2094:
	.loc 1 592 10 is_stmt 0 view .LVU4219
	movs	r0, #35
.LVL180:
.L67:
	.loc 1 593 6 is_stmt 1 view .LVU4220
	.loc 1 595 2 view .LVU4221
	.loc 1 595 50 is_stmt 0 view .LVU4222
	ldr	r3, .L85+8
	ldr	r3, [r3, #40]
	.loc 1 595 5 view .LVU4223
	lsls	r3, r3, #15
	bpl	.L68
	.loc 1 596 3 is_stmt 1 view .LVU4224
.LVL181:
	.loc 1 597 3 view .LVU4225
.LBB2095:
	.loc 1 597 8 view .LVU4226
	.loc 1 597 57 view .LVU4227
	.loc 1 597 14 view .LVU4228
	.loc 1 597 2 view .LVU4229
	.loc 1 597 41 view .LVU4230
	.loc 1 597 176 view .LVU4231
	.loc 1 597 187 view .LVU4232
	.loc 1 597 275 view .LVU4233
	.loc 1 597 3 view .LVU4234
	.loc 1 597 3 view .LVU4235
.LBB2096:
	.loc 1 597 8 view .LVU4236
	.loc 1 597 2 view .LVU4237
.LBE2096:
.LBE2095:
	.loc 1 597 3 view .LVU4238
	.loc 1 597 12 view .LVU4239
	.loc 1 597 107 view .LVU4240
	.loc 1 597 3 view .LVU4241
.LBB2117:
.LBB2113:
	.loc 1 597 12 view .LVU4242
	.loc 1 597 102 view .LVU4243
	.loc 1 597 104 view .LVU4244
.LBB2097:
	.loc 1 597 109 view .LVU4245
	.loc 1 597 120 view .LVU4246
	.loc 1 597 209 view .LVU4247
	.loc 1 597 26 view .LVU4248
.LBE2097:
.LBE2113:
.LBE2117:
	.loc 1 597 3 view .LVU4249
	.loc 1 597 368 view .LVU4250
	.loc 1 597 75 view .LVU4251
	.loc 1 597 2 view .LVU4252
	.loc 1 597 2 view .LVU4253
	.loc 1 597 2 view .LVU4254
	.loc 1 597 38 view .LVU4255
	.loc 1 597 4 view .LVU4256
	.loc 1 597 30 view .LVU4257
	.loc 1 597 56 view .LVU4258
	.loc 1 597 79 view .LVU4259
	.loc 1 597 141 view .LVU4260
	.loc 1 597 198 view .LVU4261
	.loc 1 597 263 view .LVU4262
	.loc 1 597 288 view .LVU4263
	.loc 1 597 289 view .LVU4264
	.loc 1 597 291 view .LVU4265
	.loc 1 597 321 view .LVU4266
	.loc 1 597 351 view .LVU4267
	.loc 1 597 383 view .LVU4268
	.loc 1 597 415 view .LVU4269
	.loc 1 597 447 view .LVU4270
	.loc 1 597 644 view .LVU4271
	.loc 1 597 668 view .LVU4272
	.loc 1 597 669 view .LVU4273
	.loc 1 597 671 view .LVU4274
	.loc 1 597 700 view .LVU4275
	.loc 1 597 729 view .LVU4276
	.loc 1 597 760 view .LVU4277
	.loc 1 597 791 view .LVU4278
	.loc 1 597 822 view .LVU4279
	.loc 1 597 1029 view .LVU4280
	.loc 1 597 4 view .LVU4281
	.loc 1 597 22 view .LVU4282
	.loc 1 597 42 view .LVU4283
	.loc 1 597 4 view .LVU4284
	.loc 1 597 42 view .LVU4285
	.loc 1 597 13 view .LVU4286
	.loc 1 597 13 view .LVU4287
	.loc 1 597 61 view .LVU4288
	.loc 1 597 92 view .LVU4289
	.loc 1 597 126 view .LVU4290
	.loc 1 597 131 view .LVU4291
	.loc 1 597 397 view .LVU4292
	.loc 1 597 1514 view .LVU4293
	.loc 1 597 1579 view .LVU4294
	.loc 1 597 1603 view .LVU4295
	.loc 1 597 1673 view .LVU4296
	.loc 1 597 1684 view .LVU4297
	.loc 1 597 1812 view .LVU4298
	.loc 1 597 1828 view .LVU4299
	.loc 1 597 1868 view .LVU4300
	.loc 1 597 1893 view .LVU4301
	.loc 1 597 3214 view .LVU4302
	.loc 1 597 3255 view .LVU4303
	.loc 1 597 7 view .LVU4304
	.loc 1 597 30 view .LVU4305
	.loc 1 597 129 view .LVU4306
	.loc 1 597 5 view .LVU4307
	.loc 1 597 28 view .LVU4308
	.loc 1 597 52 view .LVU4309
	.loc 1 597 80 view .LVU4310
	.loc 1 597 256 view .LVU4311
	.loc 1 597 16 view .LVU4312
.LBB2118:
.LBB2114:
.LBB2110:
	.loc 1 597 29 view .LVU4313
	.loc 1 597 3 view .LVU4314
	.loc 1 597 3 view .LVU4315
	.loc 1 597 70 view .LVU4316
	.loc 1 597 74 view .LVU4317
	.loc 1 597 484 view .LVU4318
	.loc 1 597 5 view .LVU4319
	.loc 1 597 7 view .LVU4320
	.loc 1 597 12 view .LVU4321
	.loc 1 597 10 view .LVU4322
	.loc 1 597 5 view .LVU4323
	.loc 1 597 23 view .LVU4324
.LBB2098:
	.loc 1 597 3 view .LVU4325
	.loc 1 597 368 view .LVU4326
	.loc 1 597 75 view .LVU4327
.LVL182:
	.loc 1 597 2 view .LVU4328
	.loc 1 597 2 view .LVU4329
	.loc 1 597 2 view .LVU4330
	.loc 1 597 38 view .LVU4331
	.loc 1 597 67 view .LVU4332
	.loc 1 597 93 view .LVU4333
	.loc 1 597 119 view .LVU4334
	.loc 1 597 142 view .LVU4335
	.loc 1 597 204 view .LVU4336
	.loc 1 597 261 view .LVU4337
	.loc 1 597 326 view .LVU4338
	.loc 1 597 351 view .LVU4339
	.loc 1 597 352 view .LVU4340
	.loc 1 597 354 view .LVU4341
	.loc 1 597 384 view .LVU4342
	.loc 1 597 414 view .LVU4343
	.loc 1 597 446 view .LVU4344
	.loc 1 597 478 view .LVU4345
	.loc 1 597 510 view .LVU4346
	.loc 1 597 707 view .LVU4347
	.loc 1 597 731 view .LVU4348
	.loc 1 597 732 view .LVU4349
	.loc 1 597 734 view .LVU4350
	.loc 1 597 763 view .LVU4351
	.loc 1 597 792 view .LVU4352
	.loc 1 597 823 view .LVU4353
	.loc 1 597 854 view .LVU4354
	.loc 1 597 885 view .LVU4355
	.loc 1 597 1092 view .LVU4356
	.loc 1 597 4 view .LVU4357
	.loc 1 597 22 view .LVU4358
	.loc 1 597 42 view .LVU4359
	.loc 1 597 4 view .LVU4360
	.loc 1 597 42 view .LVU4361
	.loc 1 597 13 view .LVU4362
	.loc 1 597 13 view .LVU4363
	.loc 1 597 61 view .LVU4364
	.loc 1 597 92 view .LVU4365
	.loc 1 597 126 view .LVU4366
.LBB2099:
	.loc 1 597 131 view .LVU4367
	.loc 1 597 397 view .LVU4368
	.loc 1 597 1514 view .LVU4369
	.loc 1 597 1579 view .LVU4370
.LBE2099:
.LBE2098:
.LBE2110:
.LBE2114:
.LBE2118:
	.loc 1 597 1603 view .LVU4371
	.loc 1 597 1673 view .LVU4372
	.loc 1 597 1684 view .LVU4373
	.loc 1 597 1812 view .LVU4374
.LBB2119:
.LBB2115:
.LBB2111:
.LBB2105:
.LBB2100:
	.loc 1 597 1828 view .LVU4375
	.loc 1 597 1868 view .LVU4376
	.loc 1 597 1893 view .LVU4377
	.loc 1 597 3214 view .LVU4378
	.loc 1 597 3252 view .LVU4379
	.loc 1 597 3257 view .LVU4380
	.loc 1 597 3947 view .LVU4381
	.loc 1 597 0 is_stmt 0 view .LVU4382
	ldr	r3, .L85+32
.LBE2100:
.LBE2105:
	.loc 1 597 149 view .LVU4383
	ldr	r0, .L85+4
.LBB2106:
.LBB2101:
	.loc 1 597 0 view .LVU4384
	str	r3, [sp, #20]
	.loc 1 597 3255 is_stmt 1 view .LVU4385
	.loc 1 597 7 view .LVU4386
.LVL183:
	.loc 1 597 30 view .LVU4387
	.loc 1 597 30 is_stmt 0 view .LVU4388
.LBE2101:
	.loc 1 597 129 is_stmt 1 view .LVU4389
	.loc 1 597 5 view .LVU4390
	.loc 1 597 28 view .LVU4391
	.loc 1 597 52 view .LVU4392
	.loc 1 597 80 view .LVU4393
.LBE2106:
.LBE2111:
.LBE2115:
.LBE2119:
	.loc 1 597 6 view .LVU4394
	.loc 1 597 45 view .LVU4395
	.loc 1 597 50 view .LVU4396
	.loc 1 597 80 view .LVU4397
	.loc 1 597 147 view .LVU4398
	.loc 1 597 152 view .LVU4399
	.loc 1 597 182 view .LVU4400
.LBB2120:
.LBB2116:
.LBB2112:
.LBB2107:
	.loc 1 597 256 view .LVU4401
	.loc 1 597 16 view .LVU4402
.LBB2102:
	.loc 1 597 6 view .LVU4403
	.loc 1 597 164 view .LVU4404
	.loc 1 597 166 view .LVU4405
.LBE2102:
.LBE2107:
	.loc 1 597 149 is_stmt 0 view .LVU4406
	add	r2, sp, #16
.LVL184:
.LBB2108:
.LBB2103:
	.loc 1 597 176 view .LVU4407
	movs	r3, #2
.LBE2103:
.LBE2108:
	.loc 1 597 149 view .LVU4408
	mov	r1, #4160
.LBB2109:
.LBB2104:
	.loc 1 597 176 view .LVU4409
	str	r3, [sp, #16]
.LVL185:
	.loc 1 597 176 view .LVU4410
.LBE2104:
.LBE2109:
	.loc 1 597 26 is_stmt 1 view .LVU4411
	.loc 1 597 7 view .LVU4412
	.loc 1 597 147 view .LVU4413
	.loc 1 597 149 view .LVU4414
	bl	z_log_msg_static_create.constprop.0
.LVL186:
	.loc 1 597 149 is_stmt 0 view .LVU4415
.LBE2112:
	.loc 1 597 107 is_stmt 1 view .LVU4416
	.loc 1 597 5 view .LVU4417
.LVL187:
	.loc 1 597 42 view .LVU4418
.LBE2116:
	.loc 1 597 6 view .LVU4419
	.loc 1 597 278 view .LVU4420
	.loc 1 597 5 view .LVU4421
	.loc 1 597 18 view .LVU4422
.LBE2120:
	.loc 1 596 10 is_stmt 0 view .LVU4423
	movs	r0, #36
.LVL188:
.L68:
	.loc 1 597 6 is_stmt 1 view .LVU4424
	.loc 1 601 2 view .LVU4425
	.loc 1 601 45 is_stmt 0 view .LVU4426
	ldr	r2, .L85+8
	ldr	r3, [r2, #40]
	.loc 1 601 52 view .LVU4427
	mvn	r3, r3, lsl #16
	mvn	r3, r3, lsr #16
	str	r3, [r2, #40]
	.loc 1 603 2 is_stmt 1 view .LVU4428
	.loc 1 604 1 is_stmt 0 view .LVU4429
	add	sp, sp, #24
	.cfi_remember_state
	.cfi_def_cfa_offset 8
.LVL189:
	.loc 1 604 1 view .LVU4430
	@ sp needed
	pop	{r4, pc}
.LVL190:
.L69:
	.cfi_restore_state
	.loc 1 554 11 view .LVU4431
	movs	r0, #29
	b	.L63
.L86:
	.align	2
.L85:
	.word	.LC13
	.word	log_const_os
	.word	-536810240
	.word	.LC14
	.word	.LC15
	.word	.LC16
	.word	.LC17
	.word	.LC18
	.word	.LC19
	.cfi_endproc
.LFE502:
	.size	usage_fault.constprop.0, .-usage_fault.constprop.0
	.section	.rodata.z_arm_fault.str1.1,"aMS",%progbits,1
.LC20:
	.ascii	"Reserved Exception (\000"
.LC21:
	.ascii	"Spurious interrupt (IRQ \000"
.LC22:
	.ascii	"SPSEL in thread mode does not indicate PSP\000"
.LC23:
	.ascii	"***** HARD FAULT *****\000"
.LC24:
	.ascii	"  Bus fault on vector table read\000"
.LC25:
	.ascii	"  Debug event\000"
.LC26:
	.ascii	"  Fault escalation (see below)\000"
.LC27:
	.ascii	"ARCH_EXCEPT with reason %x\012\000"
.LC28:
	.ascii	"***** Debug monitor exception *****\000"
.LC29:
	.ascii	"***** %s %d) *****\000"
	.section	.text.z_arm_fault,"ax",%progbits
	.align	1
	.global	z_arm_fault
	.syntax unified
	.thumb
	.thumb_func
	.type	z_arm_fault, %function
z_arm_fault:
.LVL191:
.LFB497:
	.loc 1 1094 1 is_stmt 1 view -0
	.cfi_startproc
	@ args = 0, pretend = 0, frame = 112
	@ frame_needed = 1, uses_anonymous_args = 0
	.loc 1 1094 1 is_stmt 0 view .LVU4433
	push	{r4, r5, r6, r7, r8, r9, lr}
	.cfi_def_cfa_offset 28
	.cfi_offset 4, -28
	.cfi_offset 5, -24
	.cfi_offset 6, -20
	.cfi_offset 7, -16
	.cfi_offset 8, -12
	.cfi_offset 9, -8
	.cfi_offset 14, -4
	.loc 1 1096 57 view .LVU4434
	ldr	r3, .L122
.LVL192:
	.loc 1 1094 1 view .LVU4435
	sub	sp, sp, #116
	.cfi_def_cfa_offset 144
	.loc 1 1096 57 view .LVU4436
	ldr	r8, [r3, #4]
	.loc 1 1094 1 view .LVU4437
	add	r7, sp, #0
	.cfi_def_cfa_register 7
	.loc 1 1094 1 view .LVU4438
	mov	r5, r0
	.loc 1 1095 2 is_stmt 1 view .LVU4439
.LVL193:
	.loc 1 1096 2 view .LVU4440
	ubfx	r4, r8, #0, #9
.LVL194:
	.loc 1 1097 1 view .LVU4441
	.loc 1 1098 2 view .LVU4442
	.loc 1 1103 2 view .LVU4443
	.loc 1 1106 2 view .LVU4444
.LBB2273:
.LBI2273:
	.file 3 "/home/g/mise-work/zmk-firmware/zmk/zephyr/include/zephyr/arch/arm/asm_inline_gcc.h"
	.loc 3 96 51 view .LVU4445
.LBB2274:
	.loc 3 107 2 view .LVU4446
	movs	r6, #0
	.syntax unified
@ 107 "/home/g/mise-work/zmk-firmware/zmk/zephyr/include/zephyr/arch/arm/asm_inline_gcc.h" 1
	msr BASEPRI, r6;isb;
@ 0 "" 2
.LVL195:
	.loc 3 107 2 is_stmt 0 view .LVU4447
	.thumb
	.syntax unified
.LBE2274:
.LBE2273:
	.loc 1 1111 3 is_stmt 1 view .LVU4448
.LBB2275:
.LBI2275:
	.loc 1 950 29 view .LVU4449
.LBB2276:
	.loc 1 953 1 view .LVU4450
	.loc 1 954 2 view .LVU4451
	.loc 1 956 2 view .LVU4452
	.loc 1 958 2 view .LVU4453
	.loc 1 958 18 is_stmt 0 view .LVU4454
	and	r3, r2, #-16777216
	.loc 1 958 5 view .LVU4455
	cmp	r3, #-16777216
	bne	.L88
	.loc 1 1039 2 is_stmt 1 view .LVU4456
	.loc 1 1039 34 is_stmt 0 view .LVU4457
	and	r3, r2, #12
	.loc 1 1039 5 view .LVU4458
	cmp	r3, #8
	bne	.L89
	.loc 1 1041 3 is_stmt 1 view .LVU4459
.LBB2277:
	.loc 1 1041 8 view .LVU4460
	.loc 1 1041 57 view .LVU4461
	.loc 1 1041 14 view .LVU4462
	.loc 1 1041 2 view .LVU4463
.LVL196:
	.loc 1 1041 41 view .LVU4464
	.loc 1 1041 176 view .LVU4465
	.loc 1 1041 187 view .LVU4466
	.loc 1 1041 275 view .LVU4467
	.loc 1 1041 3 view .LVU4468
	.loc 1 1041 3 view .LVU4469
.LBB2278:
	.loc 1 1041 8 view .LVU4470
	.loc 1 1041 2 view .LVU4471
	.loc 1 1041 12 view .LVU4472
	.loc 1 1041 102 view .LVU4473
	.loc 1 1041 104 view .LVU4474
.LBB2279:
	.loc 1 1041 109 view .LVU4475
	.loc 1 1041 120 view .LVU4476
	.loc 1 1041 209 view .LVU4477
	.loc 1 1041 26 view .LVU4478
	.loc 1 1041 29 view .LVU4479
	.loc 1 1041 3 view .LVU4480
	.loc 1 1041 3 view .LVU4481
	.loc 1 1041 70 view .LVU4482
	.loc 1 1041 74 view .LVU4483
	.loc 1 1041 484 view .LVU4484
	.loc 1 1041 5 view .LVU4485
	.loc 1 1041 7 view .LVU4486
	.loc 1 1041 12 view .LVU4487
	.loc 1 1041 10 view .LVU4488
	.loc 1 1041 5 view .LVU4489
	.loc 1 1041 23 view .LVU4490
.LBB2280:
	.loc 1 1041 3 view .LVU4491
	.loc 1 1041 368 view .LVU4492
	.loc 1 1041 75 view .LVU4493
.LVL197:
	.loc 1 1041 2 view .LVU4494
	.loc 1 1041 2 view .LVU4495
	.loc 1 1041 2 view .LVU4496
	.loc 1 1041 38 view .LVU4497
	.loc 1 1041 67 view .LVU4498
	.loc 1 1041 93 view .LVU4499
	.loc 1 1041 119 view .LVU4500
	.loc 1 1041 142 view .LVU4501
	.loc 1 1041 204 view .LVU4502
	.loc 1 1041 261 view .LVU4503
	.loc 1 1041 326 view .LVU4504
	.loc 1 1041 351 view .LVU4505
	.loc 1 1041 352 view .LVU4506
	.loc 1 1041 354 view .LVU4507
	.loc 1 1041 384 view .LVU4508
	.loc 1 1041 414 view .LVU4509
	.loc 1 1041 446 view .LVU4510
	.loc 1 1041 478 view .LVU4511
	.loc 1 1041 510 view .LVU4512
	.loc 1 1041 707 view .LVU4513
	.loc 1 1041 731 view .LVU4514
	.loc 1 1041 732 view .LVU4515
	.loc 1 1041 734 view .LVU4516
	.loc 1 1041 763 view .LVU4517
	.loc 1 1041 792 view .LVU4518
	.loc 1 1041 823 view .LVU4519
	.loc 1 1041 854 view .LVU4520
	.loc 1 1041 885 view .LVU4521
	.loc 1 1041 1092 view .LVU4522
	.loc 1 1041 4 view .LVU4523
	.loc 1 1041 22 view .LVU4524
	.loc 1 1041 42 view .LVU4525
	.loc 1 1041 4 view .LVU4526
	.loc 1 1041 42 view .LVU4527
	.loc 1 1041 13 view .LVU4528
	.loc 1 1041 13 view .LVU4529
	.loc 1 1041 61 view .LVU4530
	.loc 1 1041 92 view .LVU4531
	.loc 1 1041 126 view .LVU4532
.LBB2281:
	.loc 1 1041 131 view .LVU4533
	.loc 1 1041 397 view .LVU4534
	.loc 1 1041 1514 view .LVU4535
	.loc 1 1041 1579 view .LVU4536
	.loc 1 1041 1828 view .LVU4537
	.loc 1 1041 1868 view .LVU4538
	.loc 1 1041 1893 view .LVU4539
	.loc 1 1041 3214 view .LVU4540
	.loc 1 1041 3252 view .LVU4541
	.loc 1 1041 3257 view .LVU4542
	.loc 1 1041 3947 view .LVU4543
	.loc 1 1041 0 is_stmt 0 view .LVU4544
	ldr	r3, .L122+4
	str	r3, [r7, #28]
	.loc 1 1041 3255 is_stmt 1 view .LVU4545
	.loc 1 1041 7 view .LVU4546
.LVL198:
	.loc 1 1041 30 view .LVU4547
	.loc 1 1041 30 is_stmt 0 view .LVU4548
.LBE2281:
	.loc 1 1041 129 is_stmt 1 view .LVU4549
	.loc 1 1041 5 view .LVU4550
	.loc 1 1041 28 view .LVU4551
	.loc 1 1041 52 view .LVU4552
	.loc 1 1041 80 view .LVU4553
	.loc 1 1041 256 view .LVU4554
	.loc 1 1041 16 view .LVU4555
.LBB2282:
	.loc 1 1041 6 view .LVU4556
	.loc 1 1041 164 view .LVU4557
	.loc 1 1041 166 view .LVU4558
	.loc 1 1041 176 is_stmt 0 view .LVU4559
	movs	r3, #2
.LBE2282:
.LBE2280:
	.loc 1 1041 149 view .LVU4560
	ldr	r0, .L122+8
.LVL199:
.LBB2284:
.LBB2283:
	.loc 1 1041 176 view .LVU4561
	str	r3, [r7, #24]
.LVL200:
	.loc 1 1041 176 view .LVU4562
.LBE2283:
.LBE2284:
	.loc 1 1041 26 is_stmt 1 view .LVU4563
	.loc 1 1041 7 view .LVU4564
	.loc 1 1041 147 view .LVU4565
	.loc 1 1041 149 view .LVU4566
	add	r2, r7, #24
.LVL201:
	.loc 1 1041 149 is_stmt 0 view .LVU4567
	mov	r1, #4160
.LVL202:
	.loc 1 1041 149 view .LVU4568
	bl	z_log_msg_static_create.constprop.0
.LVL203:
	.loc 1 1041 149 view .LVU4569
.LBE2279:
	.loc 1 1041 107 is_stmt 1 view .LVU4570
	.loc 1 1041 5 view .LVU4571
.LVL204:
	.loc 1 1041 42 view .LVU4572
.LBE2278:
	.loc 1 1041 6 view .LVU4573
	.loc 1 1041 278 view .LVU4574
	.loc 1 1041 5 view .LVU4575
	.loc 1 1041 18 view .LVU4576
.LBE2277:
	.loc 1 1041 6 view .LVU4577
	.loc 1 1042 3 view .LVU4578
.L88:
	.loc 1 956 14 is_stmt 0 view .LVU4579
	movs	r6, #0
	.loc 1 961 9 view .LVU4580
	mov	r5, r6
.LVL205:
.L90:
	.loc 1 961 9 view .LVU4581
.LBE2276:
.LBE2275:
	.loc 1 1112 4 is_stmt 1 view .LVU4582
	.loc 1 1113 65 view .LVU4583
	.loc 1 1119 2 view .LVU4584
.LBB2286:
.LBI2286:
	.loc 1 842 17 view .LVU4585
.LBB2287:
	.loc 1 844 2 view .LVU4586
	.loc 1 846 2 view .LVU4587
	.loc 1 846 15 is_stmt 0 view .LVU4588
	movs	r3, #0
	strb	r3, [r7, #7]
	.loc 1 848 2 is_stmt 1 view .LVU4589
	subs	r3, r4, #3
	cmp	r3, #9
	bhi	.L92
	tbb	[pc, r3]
.L94:
	.byte	(.L98-.L94)/2
	.byte	(.L97-.L94)/2
	.byte	(.L96-.L94)/2
	.byte	(.L117-.L94)/2
	.byte	(.L92-.L94)/2
	.byte	(.L92-.L94)/2
	.byte	(.L92-.L94)/2
	.byte	(.L92-.L94)/2
	.byte	(.L92-.L94)/2
	.byte	(.L93-.L94)/2
.LVL206:
	.p2align 1
.L89:
	.loc 1 848 2 is_stmt 0 view .LVU4590
.LBE2287:
.LBE2286:
.LBB2410:
.LBB2285:
	.loc 1 1046 2 is_stmt 1 view .LVU4591
	.loc 1 1047 3 view .LVU4592
	.loc 1 1047 6 is_stmt 0 view .LVU4593
	lsls	r0, r2, #28
.LVL207:
	.loc 1 1049 4 is_stmt 1 view .LVU4594
	.loc 1 1049 12 is_stmt 0 view .LVU4595
	ite	mi
	movmi	r5, r1
.LVL208:
	.loc 1 1053 4 is_stmt 1 view .LVU4596
	.loc 1 1054 4 view .LVU4597
	.loc 1 1054 16 is_stmt 0 view .LVU4598
	movpl	r6, #1
	b	.L90
.LVL209:
.L98:
	.loc 1 1054 16 view .LVU4599
.LBE2285:
.LBE2410:
.LBB2411:
.LBB2408:
	.loc 1 850 3 is_stmt 1 view .LVU4600
.LBB2288:
.LBI2288:
	.loc 1 765 17 view .LVU4601
.LBB2289:
	.loc 1 767 2 view .LVU4602
	.loc 1 769 2 view .LVU4603
.LBB2290:
	.loc 1 769 7 view .LVU4604
	.loc 1 769 56 view .LVU4605
	.loc 1 769 13 view .LVU4606
	.loc 1 769 1 view .LVU4607
	.loc 1 769 40 view .LVU4608
	.loc 1 769 175 view .LVU4609
	.loc 1 769 186 view .LVU4610
	.loc 1 769 274 view .LVU4611
	.loc 1 769 2 view .LVU4612
	.loc 1 769 2 view .LVU4613
.LBB2291:
	.loc 1 769 7 view .LVU4614
	.loc 1 769 1 view .LVU4615
	.loc 1 769 11 view .LVU4616
	.loc 1 769 101 view .LVU4617
	.loc 1 769 103 view .LVU4618
.LBB2292:
	.loc 1 769 106 is_stmt 0 view .LVU4619
	mov	r9, sp
	.loc 1 769 108 is_stmt 1 view .LVU4620
	.loc 1 769 119 view .LVU4621
.LVL210:
	.loc 1 769 208 view .LVU4622
	.loc 1 769 25 view .LVU4623
	.loc 1 769 28 view .LVU4624
	.loc 1 769 2 view .LVU4625
	.loc 1 769 2 view .LVU4626
	.loc 1 769 69 view .LVU4627
	.loc 1 769 73 view .LVU4628
	.loc 1 769 483 view .LVU4629
	.loc 1 769 4 view .LVU4630
	.loc 1 769 6 view .LVU4631
	.loc 1 769 11 view .LVU4632
	.loc 1 769 9 view .LVU4633
	.loc 1 769 4 view .LVU4634
	.loc 1 769 22 view .LVU4635
.LBB2293:
	.loc 1 769 2 view .LVU4636
	.loc 1 769 367 view .LVU4637
	.loc 1 769 74 view .LVU4638
.LVL211:
	.loc 1 769 1 view .LVU4639
	.loc 1 769 1 view .LVU4640
	.loc 1 769 1 view .LVU4641
	.loc 1 769 37 view .LVU4642
	.loc 1 769 66 view .LVU4643
	.loc 1 769 92 view .LVU4644
	.loc 1 769 118 view .LVU4645
	.loc 1 769 141 view .LVU4646
	.loc 1 769 203 view .LVU4647
	.loc 1 769 260 view .LVU4648
	.loc 1 769 325 view .LVU4649
	.loc 1 769 350 view .LVU4650
	.loc 1 769 351 view .LVU4651
	.loc 1 769 353 view .LVU4652
	.loc 1 769 383 view .LVU4653
	.loc 1 769 413 view .LVU4654
	.loc 1 769 445 view .LVU4655
	.loc 1 769 477 view .LVU4656
	.loc 1 769 509 view .LVU4657
	.loc 1 769 706 view .LVU4658
	.loc 1 769 730 view .LVU4659
	.loc 1 769 731 view .LVU4660
	.loc 1 769 733 view .LVU4661
	.loc 1 769 762 view .LVU4662
	.loc 1 769 791 view .LVU4663
	.loc 1 769 822 view .LVU4664
	.loc 1 769 853 view .LVU4665
	.loc 1 769 884 view .LVU4666
	.loc 1 769 1091 view .LVU4667
	.loc 1 769 3 view .LVU4668
	.loc 1 769 21 view .LVU4669
	.loc 1 769 41 view .LVU4670
	.loc 1 769 3 view .LVU4671
	.loc 1 769 41 view .LVU4672
	.loc 1 769 12 view .LVU4673
	.loc 1 769 12 view .LVU4674
	.loc 1 769 60 view .LVU4675
	.loc 1 769 91 view .LVU4676
	.loc 1 769 125 view .LVU4677
.LBB2294:
	.loc 1 769 130 view .LVU4678
	.loc 1 769 376 view .LVU4679
	.loc 1 769 1413 view .LVU4680
	.loc 1 769 1478 view .LVU4681
	.loc 1 769 1687 view .LVU4682
	.loc 1 769 1727 view .LVU4683
	.loc 1 769 1752 view .LVU4684
	.loc 1 769 3033 view .LVU4685
	.loc 1 769 3071 view .LVU4686
	.loc 1 769 3076 view .LVU4687
	.loc 1 769 3646 view .LVU4688
	.loc 1 769 0 is_stmt 0 view .LVU4689
	ldr	r3, .L122+12
	str	r3, [r7, #28]
	.loc 1 769 3074 is_stmt 1 view .LVU4690
	.loc 1 769 6 view .LVU4691
.LVL212:
	.loc 1 769 29 view .LVU4692
	.loc 1 769 29 is_stmt 0 view .LVU4693
.LBE2294:
	.loc 1 769 128 is_stmt 1 view .LVU4694
	.loc 1 769 4 view .LVU4695
	.loc 1 769 27 view .LVU4696
	.loc 1 769 51 view .LVU4697
	.loc 1 769 79 view .LVU4698
	.loc 1 769 255 view .LVU4699
	.loc 1 769 15 view .LVU4700
.LBB2295:
	.loc 1 769 5 view .LVU4701
	.loc 1 769 163 view .LVU4702
	.loc 1 769 165 view .LVU4703
	.loc 1 769 175 is_stmt 0 view .LVU4704
	mov	r8, #2
.LBE2295:
.LBE2293:
	.loc 1 769 148 view .LVU4705
	add	r2, r7, #24
.LVL213:
	.loc 1 769 148 view .LVU4706
	ldr	r0, .L122+8
.LBB2297:
.LBB2296:
	.loc 1 769 175 view .LVU4707
	str	r8, [r7, #24]
.LVL214:
	.loc 1 769 175 view .LVU4708
.LBE2296:
.LBE2297:
	.loc 1 769 25 is_stmt 1 view .LVU4709
	.loc 1 769 6 view .LVU4710
	.loc 1 769 146 view .LVU4711
	.loc 1 769 148 view .LVU4712
	mov	r1, #4160
	bl	z_log_msg_static_create.constprop.0
.LVL215:
	.loc 1 769 148 is_stmt 0 view .LVU4713
.LBE2292:
	.loc 1 769 106 is_stmt 1 view .LVU4714
	.loc 1 769 4 view .LVU4715
.LVL216:
	.loc 1 769 41 view .LVU4716
.LBE2291:
	.loc 1 769 5 view .LVU4717
	.loc 1 769 277 view .LVU4718
	.loc 1 769 4 view .LVU4719
	.loc 1 769 17 view .LVU4720
.LBE2290:
	.loc 1 769 5 view .LVU4721
	.loc 1 788 2 view .LVU4722
	.loc 1 788 15 is_stmt 0 view .LVU4723
	movs	r3, #0
	.loc 1 790 50 view .LVU4724
	ldr	r4, .L122
.LVL217:
	.loc 1 788 15 view .LVU4725
	strb	r3, [r7, #7]
	.loc 1 790 2 is_stmt 1 view .LVU4726
	.loc 1 790 50 is_stmt 0 view .LVU4727
	ldr	r3, [r4, #44]
	.loc 1 790 5 view .LVU4728
	lsls	r2, r3, #30
	bpl	.L99
	.loc 1 791 3 is_stmt 1 view .LVU4729
.LBB2298:
	.loc 1 791 8 view .LVU4730
	.loc 1 791 57 view .LVU4731
	.loc 1 791 14 view .LVU4732
	.loc 1 791 2 view .LVU4733
.LVL218:
	.loc 1 791 41 view .LVU4734
	.loc 1 791 176 view .LVU4735
	.loc 1 791 187 view .LVU4736
	.loc 1 791 275 view .LVU4737
	.loc 1 791 3 view .LVU4738
	.loc 1 791 3 view .LVU4739
.LBB2299:
	.loc 1 791 8 view .LVU4740
	.loc 1 791 2 view .LVU4741
	.loc 1 791 12 view .LVU4742
	.loc 1 791 102 view .LVU4743
	.loc 1 791 104 view .LVU4744
.LBB2300:
	.loc 1 791 109 view .LVU4745
	.loc 1 791 120 view .LVU4746
	.loc 1 791 209 view .LVU4747
	.loc 1 791 26 view .LVU4748
	.loc 1 791 29 view .LVU4749
	.loc 1 791 3 view .LVU4750
	.loc 1 791 3 view .LVU4751
	.loc 1 791 70 view .LVU4752
	.loc 1 791 74 view .LVU4753
	.loc 1 791 484 view .LVU4754
	.loc 1 791 5 view .LVU4755
	.loc 1 791 7 view .LVU4756
	.loc 1 791 12 view .LVU4757
	.loc 1 791 10 view .LVU4758
	.loc 1 791 5 view .LVU4759
	.loc 1 791 23 view .LVU4760
.LBB2301:
	.loc 1 791 3 view .LVU4761
	.loc 1 791 368 view .LVU4762
	.loc 1 791 75 view .LVU4763
.LVL219:
	.loc 1 791 2 view .LVU4764
	.loc 1 791 2 view .LVU4765
	.loc 1 791 2 view .LVU4766
	.loc 1 791 38 view .LVU4767
	.loc 1 791 67 view .LVU4768
	.loc 1 791 93 view .LVU4769
	.loc 1 791 119 view .LVU4770
	.loc 1 791 142 view .LVU4771
	.loc 1 791 204 view .LVU4772
	.loc 1 791 261 view .LVU4773
	.loc 1 791 326 view .LVU4774
	.loc 1 791 351 view .LVU4775
	.loc 1 791 352 view .LVU4776
	.loc 1 791 354 view .LVU4777
	.loc 1 791 384 view .LVU4778
	.loc 1 791 414 view .LVU4779
	.loc 1 791 446 view .LVU4780
	.loc 1 791 478 view .LVU4781
	.loc 1 791 510 view .LVU4782
	.loc 1 791 707 view .LVU4783
	.loc 1 791 731 view .LVU4784
	.loc 1 791 732 view .LVU4785
	.loc 1 791 734 view .LVU4786
	.loc 1 791 763 view .LVU4787
	.loc 1 791 792 view .LVU4788
	.loc 1 791 823 view .LVU4789
	.loc 1 791 854 view .LVU4790
	.loc 1 791 885 view .LVU4791
	.loc 1 791 1092 view .LVU4792
	.loc 1 791 4 view .LVU4793
	.loc 1 791 22 view .LVU4794
	.loc 1 791 42 view .LVU4795
	.loc 1 791 4 view .LVU4796
	.loc 1 791 42 view .LVU4797
	.loc 1 791 13 view .LVU4798
	.loc 1 791 13 view .LVU4799
	.loc 1 791 61 view .LVU4800
	.loc 1 791 92 view .LVU4801
	.loc 1 791 126 view .LVU4802
.LBB2302:
	.loc 1 791 131 view .LVU4803
	.loc 1 791 387 view .LVU4804
	.loc 1 791 1464 view .LVU4805
	.loc 1 791 1529 view .LVU4806
	.loc 1 791 1758 view .LVU4807
	.loc 1 791 1798 view .LVU4808
	.loc 1 791 1823 view .LVU4809
	.loc 1 791 3124 view .LVU4810
	.loc 1 791 3162 view .LVU4811
	.loc 1 791 3167 view .LVU4812
	.loc 1 791 3797 view .LVU4813
	.loc 1 791 0 is_stmt 0 view .LVU4814
	ldr	r3, .L122+16
.LVL220:
.L121:
	.loc 1 791 0 view .LVU4815
.LBE2302:
.LBE2301:
.LBE2300:
.LBE2299:
.LBE2298:
.LBB2303:
.LBB2304:
.LBB2305:
.LBB2306:
.LBB2307:
	.loc 1 793 176 view .LVU4816
	strd	r8, r3, [r7, #24]
.LVL221:
	.loc 1 793 176 view .LVU4817
.LBE2307:
.LBE2306:
	.loc 1 793 26 is_stmt 1 view .LVU4818
	.loc 1 793 7 view .LVU4819
	.loc 1 793 147 view .LVU4820
	.loc 1 793 149 view .LVU4821
.L115:
	.loc 1 793 149 is_stmt 0 view .LVU4822
.LBE2305:
.LBE2304:
.LBE2303:
.LBE2289:
.LBE2288:
.LBB2359:
.LBB2360:
.LBB2361:
.LBB2362:
.LBB2363:
	.loc 1 668 25 is_stmt 1 view .LVU4823
	.loc 1 668 6 view .LVU4824
	.loc 1 668 146 view .LVU4825
	.loc 1 668 148 view .LVU4826
	ldr	r0, .L122+8
	add	r2, r7, #24
	mov	r1, #4160
	bl	z_log_msg_static_create.constprop.0
.LVL222:
.LBE2363:
	.loc 1 668 106 view .LVU4827
	.loc 1 668 4 view .LVU4828
.LVL223:
	.loc 1 668 41 view .LVU4829
.LBE2362:
	.loc 1 668 5 view .LVU4830
	.loc 1 668 277 view .LVU4831
	.loc 1 668 4 view .LVU4832
	.loc 1 668 17 view .LVU4833
.LBE2361:
	.loc 1 668 5 view .LVU4834
.L100:
	.loc 1 668 5 is_stmt 0 view .LVU4835
.LBE2360:
.LBE2359:
	.loc 1 844 11 view .LVU4836
	movs	r4, #0
	b	.L106
.LVL224:
.L99:
.LBB2371:
.LBB2355:
	.loc 1 792 9 is_stmt 1 view .LVU4837
	.loc 1 792 57 is_stmt 0 view .LVU4838
	ldr	r3, [r4, #44]
	.loc 1 792 12 view .LVU4839
	cmp	r3, #0
	bge	.L101
	.loc 1 793 3 is_stmt 1 view .LVU4840
.LBB2312:
	.loc 1 793 8 view .LVU4841
	.loc 1 793 57 view .LVU4842
	.loc 1 793 14 view .LVU4843
	.loc 1 793 2 view .LVU4844
.LVL225:
	.loc 1 793 41 view .LVU4845
	.loc 1 793 176 view .LVU4846
	.loc 1 793 187 view .LVU4847
	.loc 1 793 275 view .LVU4848
	.loc 1 793 3 view .LVU4849
	.loc 1 793 3 view .LVU4850
.LBB2311:
	.loc 1 793 8 view .LVU4851
	.loc 1 793 2 view .LVU4852
	.loc 1 793 12 view .LVU4853
	.loc 1 793 102 view .LVU4854
	.loc 1 793 104 view .LVU4855
.LBB2310:
	.loc 1 793 109 view .LVU4856
	.loc 1 793 120 view .LVU4857
	.loc 1 793 209 view .LVU4858
	.loc 1 793 26 view .LVU4859
	.loc 1 793 29 view .LVU4860
	.loc 1 793 3 view .LVU4861
	.loc 1 793 3 view .LVU4862
	.loc 1 793 70 view .LVU4863
	.loc 1 793 74 view .LVU4864
	.loc 1 793 484 view .LVU4865
	.loc 1 793 5 view .LVU4866
	.loc 1 793 7 view .LVU4867
	.loc 1 793 12 view .LVU4868
	.loc 1 793 10 view .LVU4869
	.loc 1 793 5 view .LVU4870
	.loc 1 793 23 view .LVU4871
.LBB2309:
	.loc 1 793 3 view .LVU4872
	.loc 1 793 368 view .LVU4873
	.loc 1 793 75 view .LVU4874
.LVL226:
	.loc 1 793 2 view .LVU4875
	.loc 1 793 2 view .LVU4876
	.loc 1 793 2 view .LVU4877
	.loc 1 793 38 view .LVU4878
	.loc 1 793 67 view .LVU4879
	.loc 1 793 93 view .LVU4880
	.loc 1 793 119 view .LVU4881
	.loc 1 793 142 view .LVU4882
	.loc 1 793 204 view .LVU4883
	.loc 1 793 261 view .LVU4884
	.loc 1 793 326 view .LVU4885
	.loc 1 793 351 view .LVU4886
	.loc 1 793 352 view .LVU4887
	.loc 1 793 354 view .LVU4888
	.loc 1 793 384 view .LVU4889
	.loc 1 793 414 view .LVU4890
	.loc 1 793 446 view .LVU4891
	.loc 1 793 478 view .LVU4892
	.loc 1 793 510 view .LVU4893
	.loc 1 793 707 view .LVU4894
	.loc 1 793 731 view .LVU4895
	.loc 1 793 732 view .LVU4896
	.loc 1 793 734 view .LVU4897
	.loc 1 793 763 view .LVU4898
	.loc 1 793 792 view .LVU4899
	.loc 1 793 823 view .LVU4900
	.loc 1 793 854 view .LVU4901
	.loc 1 793 885 view .LVU4902
	.loc 1 793 1092 view .LVU4903
	.loc 1 793 4 view .LVU4904
	.loc 1 793 22 view .LVU4905
	.loc 1 793 42 view .LVU4906
	.loc 1 793 4 view .LVU4907
	.loc 1 793 42 view .LVU4908
	.loc 1 793 13 view .LVU4909
	.loc 1 793 13 view .LVU4910
	.loc 1 793 61 view .LVU4911
	.loc 1 793 92 view .LVU4912
	.loc 1 793 126 view .LVU4913
.LBB2308:
	.loc 1 793 131 view .LVU4914
	.loc 1 793 368 view .LVU4915
	.loc 1 793 1369 view .LVU4916
	.loc 1 793 1434 view .LVU4917
	.loc 1 793 1625 view .LVU4918
	.loc 1 793 1665 view .LVU4919
	.loc 1 793 1690 view .LVU4920
	.loc 1 793 2953 view .LVU4921
	.loc 1 793 2991 view .LVU4922
	.loc 1 793 2996 view .LVU4923
	.loc 1 793 3512 view .LVU4924
	.loc 1 793 0 is_stmt 0 view .LVU4925
	ldr	r3, .L122+20
	b	.L121
.LVL227:
.L101:
	.loc 1 793 0 view .LVU4926
.LBE2308:
.LBE2309:
.LBE2310:
.LBE2311:
.LBE2312:
	.loc 1 794 9 is_stmt 1 view .LVU4927
	.loc 1 794 57 is_stmt 0 view .LVU4928
	ldr	r3, [r4, #44]
	.loc 1 794 12 view .LVU4929
	lsls	r3, r3, #1
	bpl	.L100
	.loc 1 795 3 is_stmt 1 view .LVU4930
.LBB2313:
	.loc 1 795 8 view .LVU4931
	.loc 1 795 57 view .LVU4932
	.loc 1 795 14 view .LVU4933
	.loc 1 795 2 view .LVU4934
.LVL228:
	.loc 1 795 41 view .LVU4935
	.loc 1 795 176 view .LVU4936
	.loc 1 795 187 view .LVU4937
	.loc 1 795 275 view .LVU4938
	.loc 1 795 3 view .LVU4939
	.loc 1 795 3 view .LVU4940
.LBB2314:
	.loc 1 795 8 view .LVU4941
	.loc 1 795 2 view .LVU4942
	.loc 1 795 12 view .LVU4943
	.loc 1 795 102 view .LVU4944
	.loc 1 795 104 view .LVU4945
.LBB2315:
	.loc 1 795 109 view .LVU4946
	.loc 1 795 120 view .LVU4947
	.loc 1 795 209 view .LVU4948
	.loc 1 795 26 view .LVU4949
	.loc 1 795 29 view .LVU4950
	.loc 1 795 3 view .LVU4951
	.loc 1 795 3 view .LVU4952
	.loc 1 795 70 view .LVU4953
	.loc 1 795 74 view .LVU4954
	.loc 1 795 484 view .LVU4955
	.loc 1 795 5 view .LVU4956
	.loc 1 795 7 view .LVU4957
	.loc 1 795 12 view .LVU4958
	.loc 1 795 10 view .LVU4959
	.loc 1 795 5 view .LVU4960
	.loc 1 795 23 view .LVU4961
.LBB2316:
	.loc 1 795 3 view .LVU4962
	.loc 1 795 368 view .LVU4963
	.loc 1 795 75 view .LVU4964
.LVL229:
	.loc 1 795 2 view .LVU4965
	.loc 1 795 2 view .LVU4966
	.loc 1 795 2 view .LVU4967
	.loc 1 795 38 view .LVU4968
	.loc 1 795 67 view .LVU4969
	.loc 1 795 93 view .LVU4970
	.loc 1 795 119 view .LVU4971
	.loc 1 795 142 view .LVU4972
	.loc 1 795 204 view .LVU4973
	.loc 1 795 261 view .LVU4974
	.loc 1 795 326 view .LVU4975
	.loc 1 795 351 view .LVU4976
	.loc 1 795 352 view .LVU4977
	.loc 1 795 354 view .LVU4978
	.loc 1 795 384 view .LVU4979
	.loc 1 795 414 view .LVU4980
	.loc 1 795 446 view .LVU4981
	.loc 1 795 478 view .LVU4982
	.loc 1 795 510 view .LVU4983
	.loc 1 795 707 view .LVU4984
	.loc 1 795 731 view .LVU4985
	.loc 1 795 732 view .LVU4986
	.loc 1 795 734 view .LVU4987
	.loc 1 795 763 view .LVU4988
	.loc 1 795 792 view .LVU4989
	.loc 1 795 823 view .LVU4990
	.loc 1 795 854 view .LVU4991
	.loc 1 795 885 view .LVU4992
	.loc 1 795 1092 view .LVU4993
	.loc 1 795 4 view .LVU4994
	.loc 1 795 22 view .LVU4995
	.loc 1 795 42 view .LVU4996
	.loc 1 795 4 view .LVU4997
	.loc 1 795 42 view .LVU4998
	.loc 1 795 13 view .LVU4999
	.loc 1 795 13 view .LVU5000
	.loc 1 795 61 view .LVU5001
	.loc 1 795 92 view .LVU5002
	.loc 1 795 126 view .LVU5003
.LBB2317:
	.loc 1 795 131 view .LVU5004
	.loc 1 795 385 view .LVU5005
	.loc 1 795 1454 view .LVU5006
	.loc 1 795 1519 view .LVU5007
	.loc 1 795 1744 view .LVU5008
	.loc 1 795 1784 view .LVU5009
	.loc 1 795 1809 view .LVU5010
	.loc 1 795 3106 view .LVU5011
	.loc 1 795 3144 view .LVU5012
	.loc 1 795 3149 view .LVU5013
	.loc 1 795 3767 view .LVU5014
	.loc 1 795 0 is_stmt 0 view .LVU5015
	ldr	r3, .L122+24
.LBE2317:
.LBE2316:
	.loc 1 795 149 view .LVU5016
	ldr	r0, .L122+8
.LBB2319:
.LBB2318:
	.loc 1 795 176 view .LVU5017
	strd	r8, r3, [r7, #24]
	.loc 1 795 176 view .LVU5018
.LBE2318:
.LBE2319:
	.loc 1 795 26 is_stmt 1 view .LVU5019
	.loc 1 795 7 view .LVU5020
	.loc 1 795 147 view .LVU5021
	.loc 1 795 149 view .LVU5022
	add	r2, r7, #24
.LVL230:
	.loc 1 795 149 is_stmt 0 view .LVU5023
	mov	r1, #4160
	bl	z_log_msg_static_create.constprop.0
.LVL231:
	.loc 1 795 149 view .LVU5024
.LBE2315:
	.loc 1 795 107 is_stmt 1 view .LVU5025
	.loc 1 795 5 view .LVU5026
.LVL232:
	.loc 1 795 42 view .LVU5027
.LBE2314:
	.loc 1 795 6 view .LVU5028
	.loc 1 795 278 view .LVU5029
	.loc 1 795 5 view .LVU5030
	.loc 1 795 18 view .LVU5031
.LBE2313:
	.loc 1 795 6 view .LVU5032
	.loc 1 796 3 view .LVU5033
.LBB2320:
.LBI2320:
	.loc 1 690 19 view .LVU5034
.LBB2321:
	.loc 1 692 2 view .LVU5035
	.loc 1 714 45 is_stmt 0 view .LVU5036
	ldr	r3, [r4, #20]
	.loc 1 692 12 view .LVU5037
	ldr	r2, [r5, #24]
.LVL233:
	.loc 1 714 2 is_stmt 1 view .LVU5038
	.loc 1 714 51 is_stmt 0 view .LVU5039
	orr	r3, r3, #256
	str	r3, [r4, #20]
	.loc 1 715 2 is_stmt 1 view .LVU5040
.LBB2322:
.LBI2322:
	.file 4 "/home/g/mise-work/zmk-firmware/zmk/zephyr/include/zephyr/sys/barrier.h"
	.loc 4 57 51 view .LVU5041
	.loc 4 60 2 view .LVU5042
.LBB2323:
.LBI2323:
	.file 5 "/home/g/mise-work/zmk-firmware/zmk/zephyr/include/zephyr/arch/arm/barrier.h"
	.loc 5 24 51 view .LVU5043
	.loc 5 26 2 view .LVU5044
.LBB2324:
.LBI2324:
	.file 6 "/home/g/mise-work/zmk-firmware/zmk/modules/hal/cmsis/CMSIS/Core/Include/cmsis_gcc.h"
	.loc 6 269 51 view .LVU5045
.LBB2325:
	.loc 6 271 3 view .LVU5046
	.syntax unified
@ 271 "/home/g/mise-work/zmk-firmware/zmk/modules/hal/cmsis/CMSIS/Core/Include/cmsis_gcc.h" 1
	dsb 0xF
@ 0 "" 2
	.thumb
	.syntax unified
.LBE2325:
.LBE2324:
.LBE2323:
.LBE2322:
	.loc 1 716 2 view .LVU5047
.LBB2326:
.LBI2326:
	.loc 4 76 51 view .LVU5048
	.loc 4 79 2 view .LVU5049
.LBB2327:
.LBI2327:
	.loc 5 29 51 view .LVU5050
	.loc 5 31 2 view .LVU5051
.LBB2328:
.LBI2328:
	.loc 6 258 51 view .LVU5052
.LBB2329:
	.loc 6 260 3 view .LVU5053
	.syntax unified
@ 260 "/home/g/mise-work/zmk-firmware/zmk/modules/hal/cmsis/CMSIS/Core/Include/cmsis_gcc.h" 1
	isb 0xF
@ 0 "" 2
	.thumb
	.syntax unified
.LBE2329:
.LBE2328:
.LBE2327:
.LBE2326:
	.loc 1 718 2 view .LVU5054
	.loc 1 720 45 is_stmt 0 view .LVU5055
	ldr	r3, [r4, #20]
	.loc 1 718 11 view .LVU5056
	ldrh	r2, [r2, #-2]
.LVL234:
	.loc 1 720 2 is_stmt 1 view .LVU5057
	.loc 1 720 51 is_stmt 0 view .LVU5058
	bic	r3, r3, #256
	str	r3, [r4, #20]
	.loc 1 721 2 is_stmt 1 view .LVU5059
.LBB2330:
.LBI2330:
	.loc 4 57 51 view .LVU5060
	.loc 4 60 2 view .LVU5061
.LBB2331:
.LBI2331:
	.loc 5 24 51 view .LVU5062
	.loc 5 26 2 view .LVU5063
.LBB2332:
.LBI2332:
	.loc 6 269 51 view .LVU5064
.LBB2333:
	.loc 6 271 3 view .LVU5065
	.syntax unified
@ 271 "/home/g/mise-work/zmk-firmware/zmk/modules/hal/cmsis/CMSIS/Core/Include/cmsis_gcc.h" 1
	dsb 0xF
@ 0 "" 2
	.thumb
	.syntax unified
.LBE2333:
.LBE2332:
.LBE2331:
.LBE2330:
	.loc 1 722 2 view .LVU5066
.LBB2334:
.LBI2334:
	.loc 4 76 51 view .LVU5067
	.loc 4 79 2 view .LVU5068
.LBB2335:
.LBI2335:
	.loc 5 29 51 view .LVU5069
	.loc 5 31 2 view .LVU5070
.LBB2336:
.LBI2336:
	.loc 6 258 51 view .LVU5071
.LBB2337:
	.loc 6 260 3 view .LVU5072
	.syntax unified
@ 260 "/home/g/mise-work/zmk-firmware/zmk/modules/hal/cmsis/CMSIS/Core/Include/cmsis_gcc.h" 1
	isb 0xF
@ 0 "" 2
	.thumb
	.syntax unified
.LBE2337:
.LBE2336:
.LBE2335:
.LBE2334:
	.loc 1 725 2 view .LVU5073
	.loc 1 725 5 is_stmt 0 view .LVU5074
	movw	r3, #57090
	cmp	r2, r3
	beq	.L103
.LVL235:
	.loc 1 725 5 view .LVU5075
.LBE2321:
.LBE2320:
	.loc 1 799 10 is_stmt 1 view .LVU5076
	.loc 1 799 58 is_stmt 0 view .LVU5077
	ldr	r3, [r4, #40]
	.loc 1 799 65 view .LVU5078
	uxtb	r3, r3
	.loc 1 799 13 view .LVU5079
	cbz	r3, .L114
	.loc 1 800 4 is_stmt 1 view .LVU5080
	.loc 1 800 13 is_stmt 0 view .LVU5081
	adds	r1, r7, #7
.LVL236:
	.loc 1 800 13 view .LVU5082
	movs	r0, #1
.LVL237:
.L120:
	.loc 1 800 13 view .LVU5083
.LBE2355:
.LBE2371:
	.loc 1 856 12 view .LVU5084
	bl	mem_manage_fault.constprop.0
.LVL238:
	.loc 1 856 12 view .LVU5085
	b	.L116
.LVL239:
.L103:
.LBB2372:
.LBB2356:
.LBB2339:
.LBB2338:
	.loc 1 727 3 is_stmt 1 view .LVU5086
	.loc 1 727 3 is_stmt 0 view .LVU5087
.LBE2338:
.LBE2339:
	.loc 1 797 4 is_stmt 1 view .LVU5088
.LBB2340:
	.loc 1 797 9 view .LVU5089
	.loc 1 797 58 view .LVU5090
	.loc 1 797 15 view .LVU5091
	.loc 1 797 3 view .LVU5092
	.loc 1 797 42 view .LVU5093
	.loc 1 797 177 view .LVU5094
	.loc 1 797 188 view .LVU5095
	.loc 1 797 276 view .LVU5096
.LBB2341:
	.loc 1 797 4 view .LVU5097
	.loc 1 797 6 view .LVU5098
.LBB2342:
.LBB2343:
	.loc 1 797 83 is_stmt 0 view .LVU5099
	sub	sp, sp, #32
.LBE2343:
.LBE2342:
	.loc 1 797 18 view .LVU5100
	ldr	r3, [r5]
.LVL240:
	.loc 1 797 4 is_stmt 1 view .LVU5101
.LBB2351:
	.loc 1 797 9 view .LVU5102
	.loc 1 797 3 view .LVU5103
	.loc 1 797 13 view .LVU5104
	.loc 1 797 103 view .LVU5105
	.loc 1 797 105 view .LVU5106
.LBB2349:
	.loc 1 797 110 view .LVU5107
	.loc 1 797 121 view .LVU5108
	.loc 1 797 210 view .LVU5109
	.loc 1 797 27 view .LVU5110
	.loc 1 797 30 view .LVU5111
	.loc 1 797 4 view .LVU5112
	.loc 1 797 4 view .LVU5113
	.loc 1 797 71 view .LVU5114
	.loc 1 797 83 is_stmt 0 view .LVU5115
	mov	r2, sp
.LVL241:
	.loc 1 797 75 is_stmt 1 view .LVU5116
	.loc 1 797 485 view .LVU5117
	.loc 1 797 6 view .LVU5118
	.loc 1 797 8 view .LVU5119
	.loc 1 797 13 view .LVU5120
	.loc 1 797 11 view .LVU5121
	.loc 1 797 6 view .LVU5122
	.loc 1 797 24 view .LVU5123
.LBB2344:
	.loc 1 797 4 view .LVU5124
	.loc 1 797 369 view .LVU5125
	.loc 1 797 76 view .LVU5126
.LVL242:
	.loc 1 797 3 view .LVU5127
	.loc 1 797 3 view .LVU5128
	.loc 1 797 3 view .LVU5129
	.loc 1 797 39 view .LVU5130
	.loc 1 797 68 view .LVU5131
	.loc 1 797 94 view .LVU5132
	.loc 1 797 120 view .LVU5133
	.loc 1 797 587 view .LVU5134
	.loc 1 797 649 view .LVU5135
	.loc 1 797 1170 view .LVU5136
	.loc 1 797 1235 view .LVU5137
	.loc 1 797 1260 view .LVU5138
	.loc 1 797 1261 view .LVU5139
	.loc 1 797 1263 view .LVU5140
	.loc 1 797 1293 view .LVU5141
	.loc 1 797 1323 view .LVU5142
	.loc 1 797 1355 view .LVU5143
	.loc 1 797 1387 view .LVU5144
	.loc 1 797 1419 view .LVU5145
	.loc 1 797 1616 view .LVU5146
	.loc 1 797 1640 view .LVU5147
	.loc 1 797 1641 view .LVU5148
	.loc 1 797 1643 view .LVU5149
	.loc 1 797 1672 view .LVU5150
	.loc 1 797 1701 view .LVU5151
	.loc 1 797 1732 view .LVU5152
	.loc 1 797 1763 view .LVU5153
	.loc 1 797 1794 view .LVU5154
	.loc 1 797 2001 view .LVU5155
.LBB2345:
	.loc 1 797 3127 view .LVU5156
	.loc 1 797 3132 view .LVU5157
	.loc 1 797 3738 view .LVU5158
	.loc 1 797 0 is_stmt 0 view .LVU5159
	ldr	r1, .L122+28
.LBE2345:
.LBE2344:
	.loc 1 797 150 view .LVU5160
	ldr	r0, .L122+8
.LBB2348:
.LBB2346:
	.loc 1 797 3812 view .LVU5161
	strd	r1, r3, [r2, #20]
	.loc 1 797 2767 is_stmt 1 view .LVU5162
	.loc 1 797 8 view .LVU5163
.LVL243:
	.loc 1 797 31 view .LVU5164
	.loc 1 797 31 is_stmt 0 view .LVU5165
.LBE2346:
	.loc 1 797 10 is_stmt 1 view .LVU5166
	.loc 1 797 6 view .LVU5167
	.loc 1 797 29 view .LVU5168
	.loc 1 797 53 view .LVU5169
	.loc 1 797 81 view .LVU5170
	.loc 1 797 257 view .LVU5171
	.loc 1 797 17 view .LVU5172
.LBB2347:
	.loc 1 797 7 view .LVU5173
	.loc 1 797 165 view .LVU5174
	.loc 1 797 167 view .LVU5175
	.loc 1 797 177 is_stmt 0 view .LVU5176
	movs	r3, #3
.LVL244:
	.loc 1 797 177 view .LVU5177
	str	r3, [r2, #16]!
.LVL245:
	.loc 1 797 177 view .LVU5178
.LBE2347:
.LBE2348:
	.loc 1 797 27 is_stmt 1 view .LVU5179
	.loc 1 797 8 view .LVU5180
	.loc 1 797 148 view .LVU5181
	.loc 1 797 150 view .LVU5182
	mov	r1, #6208
	bl	z_log_msg_static_create.constprop.0
.LVL246:
	.loc 1 797 150 is_stmt 0 view .LVU5183
.LBE2349:
.LBE2351:
.LBE2341:
.LBE2340:
	.loc 1 798 11 view .LVU5184
	ldr	r4, [r5]
.LBB2354:
.LBB2353:
.LBB2352:
.LBB2350:
	mov	sp, r9
.LVL247:
	.loc 1 798 11 view .LVU5185
.LBE2350:
	.loc 1 797 108 is_stmt 1 view .LVU5186
	.loc 1 797 6 view .LVU5187
	.loc 1 797 43 view .LVU5188
.LBE2352:
	.loc 1 797 7 view .LVU5189
.LBE2353:
	.loc 1 797 279 view .LVU5190
	.loc 1 797 6 view .LVU5191
	.loc 1 797 19 view .LVU5192
.LBE2354:
	.loc 1 797 7 view .LVU5193
	.loc 1 798 4 view .LVU5194
.L106:
	.loc 1 798 4 is_stmt 0 view .LVU5195
.LBE2356:
.LBE2372:
	.loc 1 880 2 is_stmt 1 view .LVU5196
	.loc 1 885 2 view .LVU5197
	.loc 1 885 2 is_stmt 0 view .LVU5198
.LBE2408:
.LBE2411:
	.loc 1 1120 2 is_stmt 1 view .LVU5199
	.loc 1 1120 5 is_stmt 0 view .LVU5200
	ldrb	r3, [r7, #7]	@ zero_extendqisi2
	cbnz	r3, .L87
	.loc 1 1126 1 is_stmt 1 discriminator 1 view .LVU5201
	.loc 1 1126 23 is_stmt 0 discriminator 1 view .LVU5202
	movs	r2, #104
	mov	r1, r5
	add	r0, r7, #8
	bl	memcpy
.LVL248:
	.loc 1 1127 2 is_stmt 1 discriminator 1 view .LVU5203
	.loc 1 1145 2 discriminator 1 view .LVU5204
	ldr	r3, [r7, #36]
	.loc 1 1145 5 is_stmt 0 discriminator 1 view .LVU5205
	cmp	r6, #0
	beq	.L111
	.loc 1 1146 3 is_stmt 1 view .LVU5206
	.loc 1 1146 28 is_stmt 0 view .LVU5207
	ubfx	r2, r3, #0, #9
	.loc 1 1146 6 view .LVU5208
	cbnz	r2, .L112
	.loc 1 1147 4 is_stmt 1 view .LVU5209
	.loc 1 1147 24 is_stmt 0 view .LVU5210
	mvn	r3, r3, lsr #9
	mvn	r3, r3, lsl #9
.L118:
	.loc 1 1150 23 view .LVU5211
	str	r3, [r7, #36]
.L112:
	.loc 1 1153 2 is_stmt 1 view .LVU5212
	.loc 1 1157 2 view .LVU5213
	add	r1, r7, #8
	mov	r0, r4
	bl	z_arm_fatal_error
.LVL249:
.L87:
	.loc 1 1158 1 is_stmt 0 view .LVU5214
	adds	r7, r7, #116
	.cfi_remember_state
	.cfi_def_cfa_offset 28
	mov	sp, r7
	.cfi_def_cfa_register 13
	@ sp needed
	pop	{r4, r5, r6, r7, r8, r9, pc}
.LVL250:
.L114:
	.cfi_restore_state
.LBB2412:
.LBB2409:
.LBB2373:
.LBB2357:
	.loc 1 801 10 is_stmt 1 view .LVU5215
	.loc 1 801 58 is_stmt 0 view .LVU5216
	ldr	r3, [r4, #40]
	.loc 1 801 13 view .LVU5217
	tst	r3, #65280
	beq	.L107
	.loc 1 802 4 is_stmt 1 view .LVU5218
	.loc 1 802 13 is_stmt 0 view .LVU5219
	adds	r1, r7, #7
.LVL251:
	.loc 1 802 13 view .LVU5220
	movs	r0, #1
.LVL252:
.L119:
	.loc 1 802 13 view .LVU5221
.LBE2357:
.LBE2373:
	.loc 1 859 12 view .LVU5222
	bl	bus_fault.constprop.0
.LVL253:
	.loc 1 859 12 view .LVU5223
	b	.L116
.LVL254:
.L107:
.LBB2374:
.LBB2358:
	.loc 1 803 10 is_stmt 1 view .LVU5224
	.loc 1 803 58 is_stmt 0 view .LVU5225
	ldr	r3, [r4, #40]
	.loc 1 803 13 view .LVU5226
	cmp	r3, #65536
	bcc	.L100
.LVL255:
.L117:
	.loc 1 804 4 is_stmt 1 view .LVU5227
	.loc 1 804 13 is_stmt 0 view .LVU5228
	bl	usage_fault.constprop.0
.LVL256:
.L116:
	.loc 1 804 13 view .LVU5229
	mov	r4, r0
.LVL257:
	.loc 1 804 13 view .LVU5230
	b	.L106
.LVL258:
.L97:
	.loc 1 804 13 view .LVU5231
.LBE2358:
.LBE2374:
	.loc 1 856 3 is_stmt 1 view .LVU5232
	.loc 1 856 12 is_stmt 0 view .LVU5233
	adds	r1, r7, #7
.LVL259:
	.loc 1 856 12 view .LVU5234
	movs	r0, #0
	b	.L120
.LVL260:
.L96:
	.loc 1 859 3 is_stmt 1 view .LVU5235
	.loc 1 859 12 is_stmt 0 view .LVU5236
	adds	r1, r7, #7
.LVL261:
	.loc 1 859 12 view .LVU5237
	movs	r0, #0
	b	.L119
.LVL262:
.L93:
	.loc 1 870 3 is_stmt 1 view .LVU5238
.LBB2375:
.LBI2359:
	.loc 1 664 13 view .LVU5239
.LBB2370:
	.loc 1 666 2 view .LVU5240
	.loc 1 668 2 view .LVU5241
.LBB2369:
	.loc 1 668 7 view .LVU5242
	.loc 1 668 56 view .LVU5243
	.loc 1 668 13 view .LVU5244
	.loc 1 668 1 view .LVU5245
	.loc 1 668 40 view .LVU5246
	.loc 1 668 175 view .LVU5247
	.loc 1 668 186 view .LVU5248
	.loc 1 668 274 view .LVU5249
	.loc 1 668 2 view .LVU5250
	.loc 1 668 2 view .LVU5251
.LBB2368:
	.loc 1 668 7 view .LVU5252
	.loc 1 668 1 view .LVU5253
	.loc 1 668 11 view .LVU5254
	.loc 1 668 101 view .LVU5255
	.loc 1 668 103 view .LVU5256
.LBB2367:
	.loc 1 668 108 view .LVU5257
	.loc 1 668 119 view .LVU5258
	.loc 1 668 208 view .LVU5259
	.loc 1 668 25 view .LVU5260
	.loc 1 668 28 view .LVU5261
	.loc 1 668 2 view .LVU5262
	.loc 1 668 2 view .LVU5263
	.loc 1 668 69 view .LVU5264
	.loc 1 668 73 view .LVU5265
	.loc 1 668 483 view .LVU5266
	.loc 1 668 4 view .LVU5267
	.loc 1 668 6 view .LVU5268
	.loc 1 668 11 view .LVU5269
	.loc 1 668 9 view .LVU5270
	.loc 1 668 4 view .LVU5271
	.loc 1 668 22 view .LVU5272
.LBB2364:
	.loc 1 668 2 view .LVU5273
	.loc 1 668 367 view .LVU5274
	.loc 1 668 74 view .LVU5275
.LVL263:
	.loc 1 668 1 view .LVU5276
	.loc 1 668 1 view .LVU5277
	.loc 1 668 1 view .LVU5278
	.loc 1 668 37 view .LVU5279
	.loc 1 668 66 view .LVU5280
	.loc 1 668 92 view .LVU5281
	.loc 1 668 118 view .LVU5282
	.loc 1 668 141 view .LVU5283
	.loc 1 668 203 view .LVU5284
	.loc 1 668 260 view .LVU5285
	.loc 1 668 325 view .LVU5286
	.loc 1 668 350 view .LVU5287
	.loc 1 668 351 view .LVU5288
	.loc 1 668 353 view .LVU5289
	.loc 1 668 383 view .LVU5290
	.loc 1 668 413 view .LVU5291
	.loc 1 668 445 view .LVU5292
	.loc 1 668 477 view .LVU5293
	.loc 1 668 509 view .LVU5294
	.loc 1 668 706 view .LVU5295
	.loc 1 668 730 view .LVU5296
	.loc 1 668 731 view .LVU5297
	.loc 1 668 733 view .LVU5298
	.loc 1 668 762 view .LVU5299
	.loc 1 668 791 view .LVU5300
	.loc 1 668 822 view .LVU5301
	.loc 1 668 853 view .LVU5302
	.loc 1 668 884 view .LVU5303
	.loc 1 668 1091 view .LVU5304
	.loc 1 668 3 view .LVU5305
	.loc 1 668 21 view .LVU5306
	.loc 1 668 41 view .LVU5307
	.loc 1 668 3 view .LVU5308
	.loc 1 668 41 view .LVU5309
	.loc 1 668 12 view .LVU5310
	.loc 1 668 12 view .LVU5311
	.loc 1 668 60 view .LVU5312
	.loc 1 668 91 view .LVU5313
	.loc 1 668 125 view .LVU5314
.LBB2365:
	.loc 1 668 130 view .LVU5315
	.loc 1 668 389 view .LVU5316
	.loc 1 668 1478 view .LVU5317
	.loc 1 668 1543 view .LVU5318
	.loc 1 668 1778 view .LVU5319
	.loc 1 668 1818 view .LVU5320
	.loc 1 668 1843 view .LVU5321
	.loc 1 668 3150 view .LVU5322
	.loc 1 668 3188 view .LVU5323
	.loc 1 668 3193 view .LVU5324
	.loc 1 668 3841 view .LVU5325
	.loc 1 668 0 is_stmt 0 view .LVU5326
	ldr	r3, .L122+32
	str	r3, [r7, #28]
	.loc 1 668 3191 is_stmt 1 view .LVU5327
	.loc 1 668 6 view .LVU5328
.LVL264:
	.loc 1 668 29 view .LVU5329
	.loc 1 668 29 is_stmt 0 view .LVU5330
.LBE2365:
	.loc 1 668 128 is_stmt 1 view .LVU5331
	.loc 1 668 4 view .LVU5332
	.loc 1 668 27 view .LVU5333
	.loc 1 668 51 view .LVU5334
	.loc 1 668 79 view .LVU5335
	.loc 1 668 255 view .LVU5336
	.loc 1 668 15 view .LVU5337
.LBB2366:
	.loc 1 668 5 view .LVU5338
	.loc 1 668 163 view .LVU5339
	.loc 1 668 165 view .LVU5340
	.loc 1 668 175 is_stmt 0 view .LVU5341
	movs	r3, #2
	str	r3, [r7, #24]
	b	.L115
.LVL265:
.L92:
	.loc 1 668 175 view .LVU5342
.LBE2366:
.LBE2364:
.LBE2367:
.LBE2368:
.LBE2369:
.LBE2370:
.LBE2375:
	.loc 1 876 3 is_stmt 1 view .LVU5343
.LBB2376:
.LBI2376:
	.loc 1 832 13 view .LVU5344
.LBB2377:
	.loc 1 834 2 view .LVU5345
	.loc 1 836 2 view .LVU5346
.LBB2378:
	.loc 1 836 7 view .LVU5347
	.loc 1 836 56 view .LVU5348
	.loc 1 836 13 view .LVU5349
	.loc 1 836 1 view .LVU5350
	.loc 1 836 40 view .LVU5351
	.loc 1 836 175 view .LVU5352
	.loc 1 836 186 view .LVU5353
	.loc 1 836 274 view .LVU5354
.LBB2379:
	.loc 1 836 2 view .LVU5355
	.loc 1 836 4 view .LVU5356
	.loc 1 836 59 is_stmt 0 view .LVU5357
	ldr	r2, .L122+36
	ldr	r3, .L122+40
	tst	r8, #496
.LBB2380:
.LBB2381:
	.loc 1 836 106 view .LVU5358
	mov	r8, sp
	.loc 1 836 81 view .LVU5359
	sub	sp, sp, #40
.LBE2381:
.LBE2380:
	.loc 1 836 59 view .LVU5360
	it	ne
	movne	r3, r2
.LVL266:
	.loc 1 836 95 is_stmt 1 view .LVU5361
	.loc 1 836 2 view .LVU5362
.LBB2402:
	.loc 1 836 7 view .LVU5363
	.loc 1 836 1 view .LVU5364
	.loc 1 836 11 view .LVU5365
	.loc 1 836 101 view .LVU5366
	.loc 1 836 103 view .LVU5367
.LBB2399:
	.loc 1 836 108 view .LVU5368
	.loc 1 836 119 view .LVU5369
	.loc 1 836 208 view .LVU5370
	.loc 1 836 25 view .LVU5371
	.loc 1 836 28 view .LVU5372
	.loc 1 836 2 view .LVU5373
	.loc 1 836 2 view .LVU5374
	.loc 1 836 69 view .LVU5375
	.loc 1 836 81 is_stmt 0 view .LVU5376
	mov	r2, sp
.LVL267:
	.loc 1 836 73 is_stmt 1 view .LVU5377
	.loc 1 836 483 view .LVU5378
	.loc 1 836 4 view .LVU5379
	.loc 1 836 6 view .LVU5380
	.loc 1 836 11 view .LVU5381
	.loc 1 836 9 view .LVU5382
	.loc 1 836 4 view .LVU5383
	.loc 1 836 22 view .LVU5384
.LBB2382:
	.loc 1 836 2 view .LVU5385
	.loc 1 836 367 view .LVU5386
	.loc 1 836 74 view .LVU5387
.LVL268:
	.loc 1 836 1 view .LVU5388
	.loc 1 836 1 view .LVU5389
	.loc 1 836 1 view .LVU5390
	.loc 1 836 37 view .LVU5391
	.loc 1 836 66 view .LVU5392
	.loc 1 836 92 view .LVU5393
	.loc 1 836 118 view .LVU5394
	.loc 1 836 1031 view .LVU5395
	.loc 1 836 1093 view .LVU5396
	.loc 1 836 2080 view .LVU5397
	.loc 1 836 2145 view .LVU5398
	.loc 1 836 2170 view .LVU5399
	.loc 1 836 2171 view .LVU5400
	.loc 1 836 2173 view .LVU5401
	.loc 1 836 2203 view .LVU5402
	.loc 1 836 2233 view .LVU5403
	.loc 1 836 2265 view .LVU5404
	.loc 1 836 2297 view .LVU5405
	.loc 1 836 2329 view .LVU5406
	.loc 1 836 2526 view .LVU5407
	.loc 1 836 2550 view .LVU5408
	.loc 1 836 2551 view .LVU5409
	.loc 1 836 2553 view .LVU5410
	.loc 1 836 2582 view .LVU5411
	.loc 1 836 2611 view .LVU5412
	.loc 1 836 2642 view .LVU5413
	.loc 1 836 2673 view .LVU5414
	.loc 1 836 2704 view .LVU5415
	.loc 1 836 2911 view .LVU5416
.LBB2383:
	.loc 1 836 3035 view .LVU5417
	.loc 1 836 3040 view .LVU5418
	.loc 1 836 3586 view .LVU5419
	.loc 1 836 0 is_stmt 0 view .LVU5420
	ldr	r1, .L122+44
.LBE2383:
.LBE2382:
	.loc 1 836 148 view .LVU5421
	ldr	r0, .L122+8
.LBB2395:
.LBB2384:
	.loc 1 836 3810 view .LVU5422
	strd	r1, r3, [r2, #20]
	.loc 1 836 2765 is_stmt 1 view .LVU5423
	.loc 1 836 6 view .LVU5424
.LVL269:
	.loc 1 836 29 view .LVU5425
	.loc 1 836 29 is_stmt 0 view .LVU5426
.LBE2384:
	.loc 1 836 8 is_stmt 1 view .LVU5427
	.loc 1 836 5 view .LVU5428
.LBB2385:
	.loc 1 836 10 view .LVU5429
	.loc 1 836 235 view .LVU5430
	.loc 1 836 1188 view .LVU5431
	.loc 1 836 1253 view .LVU5432
	.loc 1 836 1420 view .LVU5433
	.loc 1 836 1460 view .LVU5434
	.loc 1 836 2724 view .LVU5435
	.loc 1 836 2762 view .LVU5436
	.loc 1 836 2767 view .LVU5437
	.loc 1 836 3211 view .LVU5438
.LBE2385:
.LBB2386:
.LBB2387:
	.loc 1 836 226 is_stmt 0 view .LVU5439
	mov	r3, #512
.LVL270:
	.loc 1 836 226 view .LVU5440
	strh	r3, [r2, #32]	@ movhi
.LBE2387:
.LBE2386:
.LBE2395:
.LBE2399:
.LBE2402:
	.loc 1 836 107 view .LVU5441
	subs	r4, r4, #16
.LVL271:
.LBB2403:
.LBB2400:
.LBB2396:
.LBB2389:
	.loc 1 836 175 view .LVU5442
	ldr	r3, .L122+48
.LBE2389:
.LBB2390:
	.loc 1 836 3810 view .LVU5443
	str	r4, [r2, #28]
	.loc 1 836 2765 is_stmt 1 view .LVU5444
	.loc 1 836 6 view .LVU5445
.LVL272:
	.loc 1 836 29 view .LVU5446
	.loc 1 836 29 is_stmt 0 view .LVU5447
.LBE2390:
	.loc 1 836 8 is_stmt 1 view .LVU5448
	.loc 1 836 4 view .LVU5449
	.loc 1 836 27 view .LVU5450
	.loc 1 836 51 view .LVU5451
	.loc 1 836 79 view .LVU5452
.LBB2391:
	.loc 1 836 5 view .LVU5453
	.loc 1 836 44 view .LVU5454
.LBE2391:
.LBE2396:
.LBE2400:
.LBE2403:
.LBE2379:
.LBE2378:
.LBE2377:
	.loc 1 836 49 view .LVU5455
	.loc 1 836 79 view .LVU5456
.LBB2407:
.LBB2406:
.LBB2405:
.LBB2404:
.LBB2401:
.LBB2397:
.LBB2392:
.LBB2388:
	.loc 1 836 181 view .LVU5457
	.loc 1 836 213 view .LVU5458
	.loc 1 836 207 view .LVU5459
	.loc 1 836 181 view .LVU5460
	.loc 1 836 213 view .LVU5461
	.loc 1 836 207 view .LVU5462
	.loc 1 836 181 view .LVU5463
.LBE2388:
.LBE2392:
	.loc 1 836 255 view .LVU5464
	.loc 1 836 15 view .LVU5465
.LBB2393:
	.loc 1 836 5 view .LVU5466
	.loc 1 836 163 view .LVU5467
	.loc 1 836 165 view .LVU5468
.LBE2393:
.LBE2397:
	.loc 1 836 148 is_stmt 0 view .LVU5469
	mov	r1, #9280
.LBB2398:
.LBB2394:
	.loc 1 836 175 view .LVU5470
	str	r3, [r2, #16]!
.LVL273:
	.loc 1 836 175 view .LVU5471
.LBE2394:
.LBE2398:
	.loc 1 836 25 is_stmt 1 view .LVU5472
	.loc 1 836 6 view .LVU5473
	.loc 1 836 146 view .LVU5474
	.loc 1 836 148 view .LVU5475
	bl	z_log_msg_static_create.constprop.0
.LVL274:
	.loc 1 836 148 is_stmt 0 view .LVU5476
	mov	sp, r8
.LVL275:
	.loc 1 836 148 view .LVU5477
.LBE2401:
	.loc 1 836 106 is_stmt 1 view .LVU5478
	.loc 1 836 4 view .LVU5479
	.loc 1 836 41 view .LVU5480
.LBE2404:
	.loc 1 836 5 view .LVU5481
.LBE2405:
	.loc 1 836 277 view .LVU5482
	.loc 1 836 4 view .LVU5483
	.loc 1 836 17 view .LVU5484
.LBE2406:
	.loc 1 836 5 view .LVU5485
	.loc 1 839 1 is_stmt 0 view .LVU5486
	b	.L100
.LVL276:
.L111:
	.loc 1 839 1 view .LVU5487
.LBE2407:
.LBE2376:
.LBE2409:
.LBE2412:
	.loc 1 1150 3 is_stmt 1 view .LVU5488
	.loc 1 1150 23 is_stmt 0 view .LVU5489
	bic	r3, r3, #510
	bic	r3, r3, #1
	b	.L118
.L123:
	.align	2
.L122:
	.word	-536810240
	.word	.LC22
	.word	log_const_os
	.word	.LC23
	.word	.LC24
	.word	.LC25
	.word	.LC26
	.word	.LC27
	.word	.LC28
	.word	.LC21
	.word	.LC20
	.word	.LC29
	.word	16777220
	.cfi_endproc
.LFE497:
	.size	z_arm_fault, .-z_arm_fault
	.section	.text.z_arm_fault_init,"ax",%progbits
	.align	1
	.global	z_arm_fault_init
	.syntax unified
	.thumb
	.thumb_func
	.type	z_arm_fault_init, %function
z_arm_fault_init:
.LFB498:
	.loc 1 1168 1 is_stmt 1 view -0
	.cfi_startproc
	@ args = 0, pretend = 0, frame = 0
	@ frame_needed = 0, uses_anonymous_args = 0
	@ link register save eliminated.
	.loc 1 1171 2 view .LVU5491
	.loc 1 1171 45 is_stmt 0 view .LVU5492
	ldr	r2, .L125
	ldr	r3, [r2, #20]
	.loc 1 1171 51 view .LVU5493
	orr	r3, r3, #16
	str	r3, [r2, #20]
	.loc 1 1196 1 view .LVU5494
	bx	lr
.L126:
	.align	2
.L125:
	.word	-536810240
	.cfi_endproc
.LFE498:
	.size	z_arm_fault_init, .-z_arm_fault_init
	.text
.Letext0:
	.file 7 "/home/g/zephyr-sdk-0.16.3/arm-zephyr-eabi/lib/gcc/arm-zephyr-eabi/12.2.0/include/stddef.h"
	.file 8 "/home/g/zephyr-sdk-0.16.3/arm-zephyr-eabi/picolibc/include/machine/_default_types.h"
	.file 9 "/home/g/zephyr-sdk-0.16.3/arm-zephyr-eabi/picolibc/include/sys/_stdint.h"
	.file 10 "/home/g/mise-work/zmk-firmware/zmk/zephyr/include/zephyr/arch/arm/thread.h"
	.file 11 "/home/g/mise-work/zmk-firmware/zmk/zephyr/include/zephyr/arch/arm/cortex_m/exc.h"
	.file 12 "/home/g/mise-work/zmk-firmware/zmk/zephyr/include/zephyr/fatal_types.h"
	.file 13 "/home/g/mise-work/zmk-firmware/zmk/zephyr/include/zephyr/arch/arm/arch.h"
	.file 14 "/home/g/mise-work/zmk-firmware/zmk/modules/hal/cmsis/CMSIS/Core/Include/core_cm4.h"
	.file 15 "/home/g/mise-work/zmk-firmware/zmk/zephyr/include/zephyr/kernel.h"
	.file 16 "/home/g/mise-work/zmk-firmware/zmk/zephyr/include/zephyr/logging/log_instance.h"
	.file 17 "/home/g/mise-work/zmk-firmware/zmk/zephyr/include/zephyr/sys/cbprintf.h"
	.file 18 "/home/g/mise-work/zmk-firmware/zmk/zephyr/include/zephyr/logging/log_msg.h"
	.file 19 "/home/g/mise-work/zmk-firmware/zmk/zephyr/arch/arm/include/cortex_m/kernel_arch_func.h"
	.file 20 "/home/g/mise-work/zmk-firmware/zmk/zephyr/include/zephyr/sys/cbprintf_internal.h"
	.file 21 "/home/g/mise-work/zmk-firmware/zmk/zephyr/include/zephyr/syscall.h"
	.file 22 "<built-in>"