	.cpu cortex-m4
	.arch armv7e-m
	.fpu fpv4-sp-d16
	.eabi_attribute 27, 1
	.eabi_attribute 28, 1
	.eabi_attribute 20, 1
	.eabi_attribute 21, 1
	.eabi_attribute 23, 3
	.eabi_attribute 24, 1
	.eabi_attribute 25, 1
	.eabi_attribute 26, 1
	.eabi_attribute 30, 4
	.eabi_attribute 34, 1
	.eabi_attribute 38, 1
	.eabi_attribute 18, 4
	.file	"cmac_mode.c"
	.text
.Ltext0:
	.cfi_sections	.debug_frame
	.file 1 "/home/g/mise-work/zmk-firmware/zmk/modules/crypto/tinycrypt/lib/source/cmac_mode.c"
	.section	.text.gf_double,"ax",%progbits
	.align	1
	.global	gf_double
	.syntax unified
	.thumb
	.thumb_func
	.type	gf_double, %function
gf_double:
.LVL0:
.LFB11:
	.loc 1 79 1 view -0
	.cfi_startproc
	@ args = 0, pretend = 0, frame = 0
	@ frame_needed = 0, uses_anonymous_args = 0
	.loc 1 82 2 view .LVU1
	.loc 1 85 2 view .LVU2
	.loc 1 79 1 is_stmt 0 view .LVU3
	push	{r4, lr}
	.cfi_def_cfa_offset 8
	.cfi_offset 4, -8
	.cfi_offset 14, -4
	.loc 1 85 10 view .LVU4
	mov	r2, r1
	.loc 1 87 6 view .LVU5
	adds	r0, r0, #15
.LVL1:
	.loc 1 85 10 view .LVU6
	ldrsb	r3, [r2], #16
	cmp	r3, #0
	ite	ge
	movge	r3, #0
	movlt	r3, #135
.LVL2:
	.loc 1 87 2 is_stmt 1 view .LVU7
.L4:
	.loc 1 88 2 view .LVU8
	.loc 1 89 3 view .LVU9
	.loc 1 89 13 is_stmt 0 view .LVU10
	ldrb	r4, [r2, #-1]!	@ zero_extendqisi2
.LVL3:
	.loc 1 89 22 view .LVU11
	eor	r3, r3, r4, lsl #1
.LVL4:
	.loc 1 90 6 view .LVU12
	cmp	r2, r1
	.loc 1 89 10 view .LVU13
	strb	r3, [r0], #-1
.LVL5:
	.loc 1 90 3 is_stmt 1 view .LVU14
	.loc 1 90 6 is_stmt 0 view .LVU15
	beq	.L1
	.loc 1 93 3 is_stmt 1 view .LVU16
.LVL6:
	.loc 1 93 9 is_stmt 0 view .LVU17
	ldrb	r3, [r2]	@ zero_extendqisi2
	lsrs	r3, r3, #7
.LVL7:
	.loc 1 88 2 is_stmt 1 view .LVU18
	.loc 1 89 10 is_stmt 0 view .LVU19
	b	.L4
.LVL8:
.L1:
	.loc 1 95 1 view .LVU20
	pop	{r4, pc}
	.cfi_endproc
.LFE11:
	.size	gf_double, .-gf_double
	.section	.text.tc_cmac_erase,"ax",%progbits
	.align	1
	.global	tc_cmac_erase
	.syntax unified
	.thumb
	.thumb_func
	.type	tc_cmac_erase, %function
tc_cmac_erase:
.LVL9:
.LFB13:
	.loc 1 126 1 is_stmt 1 view -0
	.cfi_startproc
	@ args = 0, pretend = 0, frame = 0
	@ frame_needed = 0, uses_anonymous_args = 0
	.loc 1 127 2 view .LVU22
	.loc 1 126 1 is_stmt 0 view .LVU23
	push	{r3, lr}
	.cfi_def_cfa_offset 8
	.cfi_offset 3, -8
	.cfi_offset 14, -4
	.loc 1 127 5 view .LVU24
	cbz	r0, .L7
.LBB4:
.LBI4:
	.loc 1 125 5 is_stmt 1 view .LVU25
.LBB5:
	.loc 1 132 2 view .LVU26
	movs	r2, #88
	movs	r1, #0
	bl	_set
.LVL10:
	.loc 1 134 2 view .LVU27
	.loc 1 132 2 is_stmt 0 view .LVU28
	movs	r0, #1
.L7:
.LBE5:
.LBE4:
	.loc 1 135 1 view .LVU29
	pop	{r3, pc}
	.cfi_endproc
.LFE13:
	.size	tc_cmac_erase, .-tc_cmac_erase
	.section	.text.tc_cmac_init,"ax",%progbits
	.align	1
	.global	tc_cmac_init
	.syntax unified
	.thumb
	.thumb_func
	.type	tc_cmac_init, %function
tc_cmac_init:
.LVL11:
.LFB14:
	.loc 1 138 1 is_stmt 1 view -0
	.cfi_startproc
	@ args = 0, pretend = 0, frame = 0
	@ frame_needed = 0, uses_anonymous_args = 0
	.loc 1 140 2 view .LVU31
	.loc 1 138 1 is_stmt 0 view .LVU32
	push	{r4, lr}
	.cfi_def_cfa_offset 8
	.cfi_offset 4, -8
	.cfi_offset 14, -4
	.loc 1 140 5 view .LVU33
	mov	r4, r0
	cbz	r0, .L10
.LVL12:
.LBB8:
.LBI8:
	.loc 1 137 5 is_stmt 1 view .LVU34
.LBB9:
	.loc 1 145 2 view .LVU35
	movs	r2, #16
	movs	r1, #0
	bl	_set
.LVL13:
	.loc 1 148 2 view .LVU36
	movs	r2, #16
	add	r0, r4, #48
	movs	r1, #0
	bl	_set
.LVL14:
	.loc 1 149 2 view .LVU37
	.loc 1 149 21 is_stmt 0 view .LVU38
	movs	r3, #0
	str	r3, [r4, #68]
	.loc 1 152 2 is_stmt 1 view .LVU39
	.loc 1 152 15 is_stmt 0 view .LVU40
	movs	r2, #0
	mov	r3, #65536
	strd	r2, [r4, #80]
	.loc 1 154 2 is_stmt 1 view .LVU41
.LVL15:
	.loc 1 152 15 is_stmt 0 view .LVU42
	movs	r0, #1
.L10:
.LBE9:
.LBE8:
	.loc 1 155 1 view .LVU43
	pop	{r4, pc}
	.loc 1 155 1 view .LVU44
	.cfi_endproc
.LFE14:
	.size	tc_cmac_init, .-tc_cmac_init
	.section	.text.tc_cmac_setup,"ax",%progbits
	.align	1
	.global	tc_cmac_setup
	.syntax unified
	.thumb
	.thumb_func
	.type	tc_cmac_setup, %function
tc_cmac_setup:
.LVL16:
.LFB12:
	.loc 1 98 1 is_stmt 1 view -0
	.cfi_startproc
	@ args = 0, pretend = 0, frame = 0
	@ frame_needed = 0, uses_anonymous_args = 0
	.loc 1 101 2 view .LVU46
	.loc 1 98 1 is_stmt 0 view .LVU47
	push	{r4, r5, r6, lr}
	.cfi_def_cfa_offset 16
	.cfi_offset 4, -16
	.cfi_offset 5, -12
	.cfi_offset 6, -8
	.cfi_offset 14, -4
	.loc 1 98 1 view .LVU48
	mov	r4, r0
	mov	r5, r1
	mov	r6, r2
	.loc 1 101 5 view .LVU49
	cbz	r0, .L13
	.loc 1 101 29 discriminator 1 view .LVU50
	cbz	r1, .L16
	.loc 1 107 2 is_stmt 1 view .LVU51
	movs	r2, #88
.LVL17:
	.loc 1 107 2 is_stmt 0 view .LVU52
	movs	r1, #0
.LVL18:
	.loc 1 107 2 view .LVU53
	bl	_set
.LVL19:
	.loc 1 108 2 is_stmt 1 view .LVU54
	.loc 1 111 2 is_stmt 0 view .LVU55
	mov	r1, r5
	.loc 1 108 11 view .LVU56
	str	r6, [r4, #72]
	.loc 1 111 2 is_stmt 1 view .LVU57
	mov	r0, r6
	bl	tc_aes128_set_encrypt_key
.LVL20:
	.loc 1 114 2 view .LVU58
	movs	r2, #16
	movs	r1, #0
	mov	r0, r4
	bl	_set
.LVL21:
	.loc 1 115 2 view .LVU59
	.loc 1 116 14 is_stmt 0 view .LVU60
	add	r5, r4, #16
.LVL22:
	.loc 1 115 2 view .LVU61
	ldr	r2, [r4, #72]
	mov	r1, r4
	mov	r0, r4
	bl	tc_aes_encrypt
.LVL23:
	.loc 1 116 2 is_stmt 1 view .LVU62
	mov	r1, r4
	mov	r0, r5
	bl	gf_double
.LVL24:
	.loc 1 117 2 view .LVU63
	mov	r1, r5
	add	r0, r4, #32
	bl	gf_double
.LVL25:
	.loc 1 120 2 view .LVU64
	mov	r0, r4
	bl	tc_cmac_init
.LVL26:
	.loc 1 122 2 view .LVU65
	.loc 1 122 9 is_stmt 0 view .LVU66
	movs	r0, #1
.L13:
	.loc 1 123 1 view .LVU67
	pop	{r4, r5, r6, pc}
.LVL27:
.L16:
	.loc 1 103 10 view .LVU68
	mov	r0, r1
.LVL28:
	.loc 1 103 10 view .LVU69
	b	.L13
	.cfi_endproc
.LFE12:
	.size	tc_cmac_setup, .-tc_cmac_setup
	.section	.text.tc_cmac_update,"ax",%progbits
	.align	1
	.global	tc_cmac_update
	.syntax unified
	.thumb
	.thumb_func
	.type	tc_cmac_update, %function
tc_cmac_update:
.LVL29:
.LFB15:
	.loc 1 158 1 is_stmt 1 view -0
	.cfi_startproc
	@ args = 0, pretend = 0, frame = 0
	@ frame_needed = 0, uses_anonymous_args = 0
	.loc 1 159 2 view .LVU71
	.loc 1 162 2 view .LVU72
	.loc 1 158 1 is_stmt 0 view .LVU73
	push	{r4, r5, r6, r7, r8, lr}
	.cfi_def_cfa_offset 24
	.cfi_offset 4, -24
	.cfi_offset 5, -20
	.cfi_offset 6, -16
	.cfi_offset 7, -12
	.cfi_offset 8, -8
	.cfi_offset 14, -4
	.loc 1 158 1 view .LVU74
	mov	r6, r1
	mov	r5, r2
	.loc 1 162 5 view .LVU75
	mov	r4, r0
	cmp	r0, #0
	beq	.L30
	.loc 1 165 2 is_stmt 1 view .LVU76
	.loc 1 165 5 is_stmt 0 view .LVU77
	cbz	r2, .L20
	.loc 1 168 2 is_stmt 1 view .LVU78
	.loc 1 168 5 is_stmt 0 view .LVU79
	cmp	r1, #0
	beq	.L30
	.loc 1 172 2 is_stmt 1 view .LVU80
	.loc 1 172 7 is_stmt 0 view .LVU81
	ldrd	r3, r2, [r0, #80]
.LVL30:
	.loc 1 172 5 view .LVU82
	orrs	r1, r3, r2
.LVL31:
	.loc 1 172 5 view .LVU83
	beq	.L30
	.loc 1 176 2 is_stmt 1 view .LVU84
	.loc 1 176 14 is_stmt 0 view .LVU85
	subs	r3, r3, #1
	.loc 1 178 7 view .LVU86
	ldr	r8, [r0, #68]
	.loc 1 176 14 view .LVU87
	adc	r2, r2, #-1
	strd	r3, r2, [r0, #80]
	.loc 1 178 2 is_stmt 1 view .LVU88
	.loc 1 178 5 is_stmt 0 view .LVU89
	cmp	r8, #0
	beq	.L21
.LBB10:
	.loc 1 180 3 is_stmt 1 view .LVU90
	.loc 1 180 10 is_stmt 0 view .LVU91
	rsb	r7, r8, #16
.LVL32:
	.loc 1 182 3 is_stmt 1 view .LVU92
	.loc 1 184 4 is_stmt 0 view .LVU93
	add	r0, r8, #48
.LVL33:
	.loc 1 182 6 view .LVU94
	cmp	r5, r7
	.loc 1 184 4 view .LVU95
	add	r0, r0, r4
	.loc 1 182 6 view .LVU96
	bcs	.L22
	.loc 1 184 4 is_stmt 1 view .LVU97
	mov	r3, r5
	mov	r2, r6
	mov	r1, r5
	bl	_copy
.LVL34:
	.loc 1 185 4 view .LVU98
	.loc 1 185 23 is_stmt 0 view .LVU99
	ldr	r3, [r4, #68]
	add	r3, r3, r5
	str	r3, [r4, #68]
	.loc 1 186 4 is_stmt 1 view .LVU100
.LVL35:
.L20:
	.loc 1 186 4 is_stmt 0 view .LVU101
.LBE10:
	.loc 1 166 10 view .LVU102
	movs	r0, #1
.L17:
	.loc 1 220 1 view .LVU103
	pop	{r4, r5, r6, r7, r8, pc}
.LVL36:
.L22:
.LBB11:
	.loc 1 189 3 is_stmt 1 view .LVU104
	mov	r3, r7
	mov	r2, r6
	mov	r1, r7
	bl	_copy
.LVL37:
	.loc 1 193 3 view .LVU105
	subs	r5, r5, #16
.LVL38:
	.loc 1 195 22 is_stmt 0 view .LVU106
	movs	r3, #0
	str	r3, [r4, #68]
	.loc 1 193 15 view .LVU107
	add	r5, r5, r8
.LVL39:
	.loc 1 194 3 is_stmt 1 view .LVU108
	.loc 1 194 8 is_stmt 0 view .LVU109
	add	r6, r6, r7
.LVL40:
	.loc 1 195 3 is_stmt 1 view .LVU110
	.loc 1 197 3 view .LVU111
	.loc 1 197 17 view .LVU112
	subs	r3, r4, #1
	add	r1, r4, #15
.LVL41:
.L23:
	.loc 1 198 4 discriminator 3 view .LVU113
	.loc 1 198 13 is_stmt 0 discriminator 3 view .LVU114
	ldrb	r2, [r3, #1]!	@ zero_extendqisi2
	ldrb	r0, [r3, #48]	@ zero_extendqisi2
	.loc 1 197 17 discriminator 3 view .LVU115
	cmp	r3, r1
	.loc 1 198 13 discriminator 3 view .LVU116
	eor	r2, r2, r0
	strb	r2, [r3]
	.loc 1 197 30 is_stmt 1 discriminator 3 view .LVU117
	.loc 1 197 17 discriminator 3 view .LVU118
	bne	.L23
	.loc 1 200 3 view .LVU119
	ldr	r2, [r4, #72]
	mov	r1, r4
	mov	r0, r4
	bl	tc_aes_encrypt
.LVL42:
.L21:
	.loc 1 200 3 is_stmt 0 view .LVU120
	add	r7, r4, #15
.L24:
	.loc 1 200 3 view .LVU121
.LBE11:
	.loc 1 204 21 is_stmt 1 view .LVU122
	cmp	r5, #16
	bhi	.L26
	.loc 1 213 2 view .LVU123
	.loc 1 213 5 is_stmt 0 view .LVU124
	cmp	r5, #0
	beq	.L20
	.loc 1 215 3 is_stmt 1 view .LVU125
	mov	r3, r5
	mov	r2, r6
	mov	r1, r5
	add	r0, r4, #48
	bl	_copy
.LVL43:
	.loc 1 216 3 view .LVU126
	.loc 1 216 22 is_stmt 0 view .LVU127
	str	r5, [r4, #68]
	b	.L20
.L26:
	.loc 1 216 22 view .LVU128
	subs	r3, r4, #1
	subs	r1, r6, #1
.L25:
	.loc 1 206 4 is_stmt 1 discriminator 3 view .LVU129
	.loc 1 206 13 is_stmt 0 discriminator 3 view .LVU130
	ldrb	r2, [r3, #1]!	@ zero_extendqisi2
	ldrb	r0, [r1, #1]!	@ zero_extendqisi2
	.loc 1 205 17 discriminator 3 view .LVU131
	cmp	r3, r7
	.loc 1 206 13 discriminator 3 view .LVU132
	eor	r2, r2, r0
	strb	r2, [r3]
	.loc 1 205 30 is_stmt 1 discriminator 3 view .LVU133
	.loc 1 205 17 discriminator 3 view .LVU134
	bne	.L25
	.loc 1 208 3 view .LVU135
	ldr	r2, [r4, #72]
	mov	r1, r4
	mov	r0, r4
	bl	tc_aes_encrypt
.LVL44:
	.loc 1 209 3 view .LVU136
	.loc 1 209 8 is_stmt 0 view .LVU137
	adds	r6, r6, #16
.LVL45:
	.loc 1 210 3 is_stmt 1 view .LVU138
	.loc 1 210 15 is_stmt 0 view .LVU139
	subs	r5, r5, #16
.LVL46:
	.loc 1 210 15 view .LVU140
	b	.L24
.LVL47:
.L30:
	.loc 1 163 10 view .LVU141
	movs	r0, #0
.LVL48:
	.loc 1 163 10 view .LVU142
	b	.L17
	.cfi_endproc
.LFE15:
	.size	tc_cmac_update, .-tc_cmac_update
	.section	.text.tc_cmac_final,"ax",%progbits
	.align	1
	.global	tc_cmac_final
	.syntax unified
	.thumb
	.thumb_func
	.type	tc_cmac_final, %function
tc_cmac_final:
.LVL49:
.LFB16:
	.loc 1 223 1 is_stmt 1 view -0
	.cfi_startproc
	@ args = 0, pretend = 0, frame = 0
	@ frame_needed = 0, uses_anonymous_args = 0
	.loc 1 224 2 view .LVU144
	.loc 1 225 2 view .LVU145
	.loc 1 228 2 view .LVU146
	.loc 1 223 1 is_stmt 0 view .LVU147
	push	{r4, r5, r6, lr}
	.cfi_def_cfa_offset 16
	.cfi_offset 4, -16
	.cfi_offset 5, -12
	.cfi_offset 6, -8
	.cfi_offset 14, -4
	.loc 1 223 1 view .LVU148
	mov	r4, r1
	.loc 1 228 5 view .LVU149
	mov	r5, r0
	cbz	r0, .L39
	.loc 1 228 27 discriminator 1 view .LVU150
	cbz	r1, .L45
	.loc 1 233 2 is_stmt 1 view .LVU151
	.loc 1 233 7 is_stmt 0 view .LVU152
	ldr	r2, [r1, #68]
	.loc 1 233 5 view .LVU153
	cmp	r2, #16
	bne	.L41
	.loc 1 235 3 is_stmt 1 view .LVU154
	.loc 1 235 5 is_stmt 0 view .LVU155
	adds	r1, r1, #16
.LVL50:
.L42:
	.loc 1 244 2 is_stmt 1 view .LVU156
	.loc 1 244 16 view .LVU157
	subs	r3, r4, #1
	subs	r1, r1, #1
.LVL51:
	.loc 1 244 16 is_stmt 0 view .LVU158
	add	r0, r4, #15
.LVL52:
.L43:
	.loc 1 245 3 is_stmt 1 discriminator 3 view .LVU159
	.loc 1 245 12 is_stmt 0 discriminator 3 view .LVU160
	ldrb	r2, [r3, #1]!	@ zero_extendqisi2
	ldrb	r6, [r3, #48]	@ zero_extendqisi2
	eors	r2, r2, r6
	ldrb	r6, [r1, #1]!	@ zero_extendqisi2
	.loc 1 244 16 discriminator 3 view .LVU161
	cmp	r0, r3
	.loc 1 245 12 discriminator 3 view .LVU162
	eor	r2, r2, r6
	strb	r2, [r3]
	.loc 1 244 29 is_stmt 1 discriminator 3 view .LVU163
	.loc 1 244 16 discriminator 3 view .LVU164
	bne	.L43
	.loc 1 248 2 view .LVU165
	ldr	r2, [r4, #72]
	mov	r1, r4
	mov	r0, r5
	bl	tc_aes_encrypt
.LVL53:
	.loc 1 251 2 view .LVU166
	mov	r0, r4
	bl	tc_cmac_erase
.LVL54:
	.loc 1 253 2 view .LVU167
	.loc 1 253 9 is_stmt 0 view .LVU168
	movs	r0, #1
.LVL55:
.L39:
	.loc 1 254 1 view .LVU169
	pop	{r4, r5, r6, pc}
.LVL56:
.L41:
.LBB12:
	.loc 1 238 3 is_stmt 1 view .LVU170
	.loc 1 240 3 view .LVU171
	.loc 1 240 8 is_stmt 0 view .LVU172
	add	r0, r2, #48
.LVL57:
	.loc 1 240 3 view .LVU173
	movs	r1, #0
.LVL58:
	.loc 1 240 3 view .LVU174
	rsb	r2, r2, #16
.LVL59:
	.loc 1 240 3 view .LVU175
	add	r0, r0, r4
	bl	_set
.LVL60:
	.loc 1 241 3 is_stmt 1 view .LVU176
	.loc 1 241 35 is_stmt 0 view .LVU177
	ldr	r3, [r4, #68]
	add	r3, r3, r4
	movs	r2, #128
	strb	r2, [r3, #48]
	.loc 1 242 3 is_stmt 1 view .LVU178
	.loc 1 242 5 is_stmt 0 view .LVU179
	add	r1, r4, #32
.LVL61:
	.loc 1 242 5 view .LVU180
	b	.L42
.LVL62:
.L45:
	.loc 1 242 5 view .LVU181
.LBE12:
	.loc 1 230 10 view .LVU182
	mov	r0, r1
.LVL63:
	.loc 1 230 10 view .LVU183
	b	.L39
	.cfi_endproc
.LFE16:
	.size	tc_cmac_final, .-tc_cmac_final
	.global	gf_wrap
	.section	.rodata.gf_wrap,"a"
	.type	gf_wrap, %object
	.size	gf_wrap, 1
gf_wrap:
	.byte	-121
	.text
.Letext0:
	.file 2 "/home/g/zephyr-sdk-0.16.3/arm-zephyr-eabi/picolibc/include/machine/_default_types.h"
	.file 3 "/home/g/zephyr-sdk-0.16.3/arm-zephyr-eabi/picolibc/include/sys/_stdint.h"
	.file 4 "/home/g/mise-work/zmk-firmware/zmk/modules/crypto/tinycrypt/lib/include/tinycrypt/aes.h"
	.file 5 "/home/g/zephyr-sdk-0.16.3/arm-zephyr-eabi/lib/gcc/arm-zephyr-eabi/12.2.0/include/stddef.h"
	.file 6 "/home/g/mise-work/zmk-firmware/zmk/modules/crypto/tinycrypt/lib/include/tinycrypt/cmac_mode.h"
	.file 7 "/home/g/mise-work/zmk-firmware/zmk/modules/crypto/tinycrypt/lib/include/tinycrypt/utils.h"