	.cpu cortex-m4
	.arch armv7e-m
	.fpu fpv4-sp-d16
	.eabi_attribute 27, 1
	.eabi_attribute 28, 1
	.eabi_attribute 20, 1
	.eabi_attribute 21, 1
	.eabi_attribute 23, 3
	.eabi_attribute 24, 1
	.eabi_attribute 25, 1
	.eabi_attribute 26, 1
	.eabi_attribute 30, 4
	.eabi_attribute 34, 1
	.eabi_attribute 38, 1
	.eabi_attribute 18, 4
	.file	"utils.c"
	.text
.Ltext0:
	.cfi_sections	.debug_frame
	.file 1 "/home/g/mise-work/zmk-firmware/zmk/modules/crypto/tinycrypt/lib/source/utils.c"
	.section	.text._copy,"ax",%progbits
	.align	1
	.global	_copy
	.syntax unified
	.thumb
	.thumb_func
	.type	_copy, %function
_copy:
.LVL0:
.LFB11:
	.loc 1 42 1 view -0
	.cfi_startproc
	@ args = 0, pretend = 0, frame = 0
	@ frame_needed = 0, uses_anonymous_args = 0
	.loc 1 43 2 view .LVU1
	.loc 1 42 1 is_stmt 0 view .LVU2
	push	{r3, r4, r5, lr}
	.cfi_def_cfa_offset 16
	.cfi_offset 3, -16
	.cfi_offset 4, -12
	.cfi_offset 5, -8
	.cfi_offset 14, -4
	.loc 1 42 1 view .LVU3
	mov	r5, r1
	.loc 1 43 5 view .LVU4
	cmp	r3, r5
	.loc 1 42 1 view .LVU5
	mov	r1, r2
.LVL1:
	.loc 1 42 1 view .LVU6
	mov	r4, r3
	.loc 1 43 5 view .LVU7
	bhi	.L3
	.loc 1 44 3 is_stmt 1 view .LVU8
.LVL2:
.LBB6:
.LBI6:
	.file 2 "/home/g/zephyr-sdk-0.16.3/arm-zephyr-eabi/picolibc/include/ssp/string.h"
	.loc 2 83 216 view .LVU9
.LBB7:
	.loc 2 83 292 view .LVU10
	.loc 2 83 299 is_stmt 0 view .LVU11
	mov	r2, r3
.LVL3:
	.loc 2 83 299 view .LVU12
	bl	memcpy
.LVL4:
	.loc 2 83 299 view .LVU13
.LBE7:
.LBE6:
	.loc 1 45 3 is_stmt 1 view .LVU14
.L2:
	.loc 1 49 1 is_stmt 0 view .LVU15
	mov	r0, r4
	pop	{r3, r4, r5, pc}
.LVL5:
.L3:
	.loc 1 47 10 view .LVU16
	movs	r4, #0
	b	.L2
	.cfi_endproc
.LFE11:
	.size	_copy, .-_copy
	.section	.text._set,"ax",%progbits
	.align	1
	.global	_set
	.syntax unified
	.thumb
	.thumb_func
	.type	_set, %function
_set:
.LVL6:
.LFB12:
	.loc 1 52 1 is_stmt 1 view -0
	.cfi_startproc
	@ args = 0, pretend = 0, frame = 0
	@ frame_needed = 0, uses_anonymous_args = 0
	@ link register save eliminated.
	.loc 1 53 2 view .LVU18
.LBB8:
.LBI8:
	.loc 2 86 189 view .LVU19
.LBB9:
	.loc 2 86 238 view .LVU20
	.loc 2 86 245 is_stmt 0 view .LVU21
	b	memset
.LVL7:
	.loc 2 86 245 view .LVU22
.LBE9:
.LBE8:
	.cfi_endproc
.LFE12:
	.size	_set, .-_set
	.section	.text._double_byte,"ax",%progbits
	.align	1
	.global	_double_byte
	.syntax unified
	.thumb
	.thumb_func
	.type	_double_byte, %function
_double_byte:
.LVL8:
.LFB13:
	.loc 1 60 1 is_stmt 1 view -0
	.cfi_startproc
	@ args = 0, pretend = 0, frame = 0
	@ frame_needed = 0, uses_anonymous_args = 0
	@ link register save eliminated.
	.loc 1 61 2 view .LVU24
	.loc 1 61 17 is_stmt 0 view .LVU25
	lsrs	r3, r0, #7
	add	r3, r3, r3, lsl #1
	add	r3, r3, r3, lsl #3
	eor	r0, r3, r0, lsl #1
.LVL9:
	.loc 1 62 1 view .LVU26
	uxtb	r0, r0
	bx	lr
	.cfi_endproc
.LFE13:
	.size	_double_byte, .-_double_byte
	.section	.text._compare,"ax",%progbits
	.align	1
	.global	_compare
	.syntax unified
	.thumb
	.thumb_func
	.type	_compare, %function
_compare:
.LVL10:
.LFB14:
	.loc 1 65 1 is_stmt 1 view -0
	.cfi_startproc
	@ args = 0, pretend = 0, frame = 0
	@ frame_needed = 0, uses_anonymous_args = 0
	.loc 1 66 2 view .LVU28
.LBB10:
	.loc 1 70 20 is_stmt 0 view .LVU29
	movs	r3, #0
.LBE10:
	.loc 1 65 1 view .LVU30
	push	{r4, r5, r6, lr}
	.cfi_def_cfa_offset 16
	.cfi_offset 4, -16
	.cfi_offset 5, -12
	.cfi_offset 6, -8
	.cfi_offset 14, -4
	.loc 1 65 1 view .LVU31
	mov	r4, r0
.LVL11:
	.loc 1 67 2 is_stmt 1 view .LVU32
	.loc 1 68 2 view .LVU33
	.loc 1 70 2 view .LVU34
.LBB11:
	.loc 1 70 7 view .LVU35
	.loc 1 70 7 is_stmt 0 view .LVU36
.LBE11:
	.loc 1 68 10 view .LVU37
	mov	r0, r3
.LVL12:
.L7:
.LBB12:
	.loc 1 70 29 is_stmt 1 discriminator 1 view .LVU38
	cmp	r3, r2
	bne	.L8
.LBE12:
	.loc 1 73 2 view .LVU39
	.loc 1 74 1 is_stmt 0 view .LVU40
	pop	{r4, r5, r6, pc}
.LVL13:
.L8:
.LBB13:
	.loc 1 71 3 is_stmt 1 discriminator 3 view .LVU41
	.loc 1 71 10 is_stmt 0 discriminator 3 view .LVU42
	ldrb	r5, [r4, r3]	@ zero_extendqisi2
	ldrb	r6, [r1, r3]	@ zero_extendqisi2
	eors	r5, r5, r6
	orrs	r0, r0, r5
.LVL14:
	.loc 1 70 38 is_stmt 1 discriminator 3 view .LVU43
	adds	r3, r3, #1
.LVL15:
	.loc 1 70 38 is_stmt 0 discriminator 3 view .LVU44
	b	.L7
.LBE13:
	.cfi_endproc
.LFE14:
	.size	_compare, .-_compare
	.text
.Letext0:
	.file 3 "/home/g/zephyr-sdk-0.16.3/arm-zephyr-eabi/picolibc/include/machine/_default_types.h"
	.file 4 "/home/g/zephyr-sdk-0.16.3/arm-zephyr-eabi/picolibc/include/sys/_stdint.h"
	.file 5 "/home/g/zephyr-sdk-0.16.3/arm-zephyr-eabi/lib/gcc/arm-zephyr-eabi/12.2.0/include/stddef.h"
	.file 6 "<built-in>"