	.cpu cortex-m4
	.arch armv7e-m
	.fpu fpv4-sp-d16
	.eabi_attribute 27, 1
	.eabi_attribute 28, 1
	.eabi_attribute 20, 1
	.eabi_attribute 21, 1
	.eabi_attribute 23, 3
	.eabi_attribute 24, 1
	.eabi_attribute 25, 1
	.eabi_attribute 26, 1
	.eabi_attribute 30, 4
	.eabi_attribute 34, 1
	.eabi_attribute 38, 1
	.eabi_attribute 18, 4
	.file	"nrf_qspi_nor.c"
	.text
.Ltext0:
	.cfi_sections	.debug_frame
	.file 1 "/home/g/mise-work/zmk-firmware/zmk/zephyr/drivers/flash/nrf_qspi_nor.c"
	.section	.text.qspi_get_zephyr_ret_code,"ax",%progbits
	.align	1
	.syntax unified
	.thumb
	.thumb_func
	.type	qspi_get_zephyr_ret_code, %function
qspi_get_zephyr_ret_code:
.LVL0:
.LFB1063:
	.loc 1 230 1 view -0
	.cfi_startproc
	@ args = 0, pretend = 0, frame = 0
	@ frame_needed = 0, uses_anonymous_args = 0
	@ link register save eliminated.
	.loc 1 231 2 view .LVU1
	add	r0, r0, #-201326592
.LVL1:
	.loc 1 231 2 is_stmt 0 view .LVU2
	add	r0, r0, #5439488
.LVL2:
	.loc 1 231 2 view .LVU3
	cmp	r0, #10
	itte	ls
	ldrls	r3, .L4
	ldrshls	r0, [r3, r0, lsl #1]
.LVL3:
	.loc 1 230 1 view .LVU4
	mvnhi	r0, #15
	.loc 1 244 1 view .LVU5
	bx	lr
.L5:
	.align	2
.L4:
	.word	CSWTCH.2150
	.cfi_endproc
.LFE1063:
	.size	qspi_get_zephyr_ret_code, .-qspi_get_zephyr_ret_code
	.section	.text.qspi_nor_pages_layout,"ax",%progbits
	.align	1
	.syntax unified
	.thumb
	.thumb_func
	.type	qspi_nor_pages_layout, %function
qspi_nor_pages_layout:
.LVL4:
.LFB1090:
	.loc 1 1279 1 is_stmt 1 view -0
	.cfi_startproc
	@ args = 0, pretend = 0, frame = 0
	@ frame_needed = 0, uses_anonymous_args = 0
	@ link register save eliminated.
	.loc 1 1280 2 view .LVU7
	.loc 1 1280 10 is_stmt 0 view .LVU8
	ldr	r3, .L7
	str	r3, [r1]
	.loc 1 1281 2 is_stmt 1 view .LVU9
	.loc 1 1281 15 is_stmt 0 view .LVU10
	movs	r3, #1
	str	r3, [r2]
	.loc 1 1282 1 view .LVU11
	bx	lr
.L8:
	.align	2
.L7:
	.word	dev_layout
	.cfi_endproc
.LFE1090:
	.size	qspi_nor_pages_layout, .-qspi_nor_pages_layout
	.section	.text.qspi_flash_get_parameters,"ax",%progbits
	.align	1
	.syntax unified
	.thumb
	.thumb_func
	.type	qspi_flash_get_parameters, %function
qspi_flash_get_parameters:
.LVL5:
.LFB1091:
	.loc 1 1287 1 is_stmt 1 view -0
	.cfi_startproc
	@ args = 0, pretend = 0, frame = 0
	@ frame_needed = 0, uses_anonymous_args = 0
	@ link register save eliminated.
	.loc 1 1288 2 view .LVU13
	.loc 1 1290 2 view .LVU14
	.loc 1 1295 2 view .LVU15
	.loc 1 1296 1 is_stmt 0 view .LVU16
	ldr	r0, .L10
.LVL6:
	.loc 1 1296 1 view .LVU17
	bx	lr
.L11:
	.align	2
.L10:
	.word	qspi_flash_parameters.0
	.cfi_endproc
.LFE1091:
	.size	qspi_flash_get_parameters, .-qspi_flash_get_parameters
	.section	.text.qspi_handler,"ax",%progbits
	.align	1
	.syntax unified
	.thumb
	.thumb_func
	.type	qspi_handler, %function
qspi_handler:
.LVL7:
.LFB1070:
	.loc 1 354 1 is_stmt 1 view -0
	.cfi_startproc
	@ args = 0, pretend = 0, frame = 0
	@ frame_needed = 0, uses_anonymous_args = 0
	@ link register save eliminated.
	.loc 1 355 2 view .LVU19
	.loc 1 357 2 view .LVU20
	.loc 1 357 5 is_stmt 0 view .LVU21
	cbnz	r0, .L12
	.loc 1 358 3 is_stmt 1 view .LVU22
.LVL8:
.LBB794:
.LBI794:
	.loc 1 337 20 view .LVU23
.LBB795:
	.loc 1 340 2 view .LVU24
.LBB796:
.LBI796:
	.file 2 "/home/g/mise-work/zmk-firmware/zmk/app/build/zephyr/include/generated/syscalls/kernel.h"
	.loc 2 1110 20 view .LVU25
.LBB797:
	.loc 2 1119 2 view .LVU26
	.loc 2 1119 7 view .LVU27
	.loc 2 1119 5 view .LVU28
	.loc 2 1120 2 view .LVU29
	add	r0, r1, #48
.LVL9:
	.loc 2 1120 2 is_stmt 0 view .LVU30
	b	z_impl_k_sem_give
.LVL10:
.L12:
	.loc 2 1120 2 view .LVU31
.LBE797:
.LBE796:
.LBE795:
.LBE794:
	.loc 1 360 1 view .LVU32
	bx	lr
	.cfi_endproc
.LFE1070:
	.size	qspi_handler, .-qspi_handler
	.section	.text.z_log_msg_static_create.constprop.0,"ax",%progbits
	.align	1
	.syntax unified
	.thumb
	.thumb_func
	.type	z_log_msg_static_create.constprop.0, %function
z_log_msg_static_create.constprop.0:
.LVL11:
.LFB1098:
	.file 3 "/home/g/mise-work/zmk-firmware/zmk/app/build/zephyr/include/generated/syscalls/log_msg.h"
	.loc 3 26 20 is_stmt 1 view -0
	.cfi_startproc
	@ args = 0, pretend = 0, frame = 0
	@ frame_needed = 0, uses_anonymous_args = 0
	@ link register save eliminated.
	.loc 3 38 2 view .LVU34
	.loc 3 38 7 view .LVU35
	.loc 3 38 5 view .LVU36
	.loc 3 39 2 view .LVU37
	movs	r3, #0
	b	z_impl_z_log_msg_static_create
.LVL12:
	.loc 3 39 2 is_stmt 0 view .LVU38
	.cfi_endproc
.LFE1098:
	.size	z_log_msg_static_create.constprop.0, .-z_log_msg_static_create.constprop.0
	.section	.rodata.qspi_nor_erase.part.0.str1.1,"aMS",%progbits,1
.LC0:
	.ascii	"erase error: address or size exceeds expected value"
	.ascii	"s.Addr: 0x%lx size %zu\000"
	.section	.text.qspi_nor_erase.part.0,"ax",%progbits
	.align	1
	.syntax unified
	.thumb
	.thumb_func
	.type	qspi_nor_erase.part.0, %function
qspi_nor_erase.part.0:
.LVL13:
.LFB1096:
	.loc 1 1159 12 is_stmt 1 view -0
	.cfi_startproc
	@ args = 0, pretend = 0, frame = 0
	@ frame_needed = 1, uses_anonymous_args = 0
	.loc 1 1166 3 view .LVU40
.LBB798:
	.loc 1 1166 8 view .LVU41
	.loc 1 1166 57 view .LVU42
	.loc 1 1166 14 view .LVU43
	.loc 1 1166 2 view .LVU44
	.loc 1 1166 41 view .LVU45
	.loc 1 1166 176 view .LVU46
	.loc 1 1166 187 view .LVU47
	.loc 1 1166 275 view .LVU48
.LBB799:
	.loc 1 1166 3 view .LVU49
	.loc 1 1166 5 view .LVU50
	.loc 1 1166 42 view .LVU51
	.loc 1 1166 3 view .LVU52
.LBB800:
	.loc 1 1166 8 view .LVU53
	.loc 1 1166 2 view .LVU54
.LBE800:
.LBE799:
.LBE798:
	.loc 1 1166 3 view .LVU55
	.loc 1 1166 12 view .LVU56
	.loc 1 1166 107 view .LVU57
	.loc 1 1166 3 view .LVU58
.LBB825:
.LBB820:
.LBB815:
	.loc 1 1166 12 view .LVU59
	.loc 1 1166 102 view .LVU60
	.loc 1 1166 104 view .LVU61
.LBB801:
	.loc 1 1166 109 view .LVU62
	.loc 1 1166 120 view .LVU63
	.loc 1 1166 209 view .LVU64
	.loc 1 1166 26 view .LVU65
.LBE801:
.LBE815:
.LBE820:
.LBE825:
	.loc 1 1166 3 view .LVU66
	.loc 1 1166 368 view .LVU67
	.loc 1 1166 75 view .LVU68
	.loc 1 1166 2 view .LVU69
	.loc 1 1166 2 view .LVU70
	.loc 1 1166 2 view .LVU71
	.loc 1 1166 38 view .LVU72
	.loc 1 1166 4 view .LVU73
	.loc 1 1166 30 view .LVU74
	.loc 1 1166 56 view .LVU75
	.loc 1 1166 969 view .LVU76
	.loc 1 1166 1031 view .LVU77
	.loc 1 1166 2018 view .LVU78
	.loc 1 1166 2083 view .LVU79
	.loc 1 1166 2108 view .LVU80
	.loc 1 1166 2109 view .LVU81
	.loc 1 1166 2111 view .LVU82
	.loc 1 1166 2141 view .LVU83
	.loc 1 1166 2171 view .LVU84
	.loc 1 1166 2203 view .LVU85
	.loc 1 1166 2235 view .LVU86
	.loc 1 1166 2267 view .LVU87
	.loc 1 1166 2464 view .LVU88
	.loc 1 1166 2488 view .LVU89
	.loc 1 1166 2489 view .LVU90
	.loc 1 1166 2491 view .LVU91
	.loc 1 1166 2520 view .LVU92
	.loc 1 1166 2549 view .LVU93
	.loc 1 1166 2580 view .LVU94
	.loc 1 1166 2611 view .LVU95
	.loc 1 1166 2642 view .LVU96
	.loc 1 1166 2849 view .LVU97
	.loc 1 1166 4 view .LVU98
	.loc 1 1166 22 view .LVU99
	.loc 1 1166 42 view .LVU100
	.loc 1 1166 4 view .LVU101
	.loc 1 1166 42 view .LVU102
	.loc 1 1166 13 view .LVU103
	.loc 1 1166 13 view .LVU104
	.loc 1 1166 61 view .LVU105
	.loc 1 1166 92 view .LVU106
	.loc 1 1166 126 view .LVU107
	.loc 1 1166 131 view .LVU108
	.loc 1 1166 434 view .LVU109
	.loc 1 1166 1699 view .LVU110
	.loc 1 1166 1764 view .LVU111
	.loc 1 1166 1788 view .LVU112
	.loc 1 1166 1895 view .LVU113
	.loc 1 1166 1906 view .LVU114
	.loc 1 1166 2071 view .LVU115
	.loc 1 1166 2087 view .LVU116
	.loc 1 1166 2127 view .LVU117
	.loc 1 1166 2152 view .LVU118
	.loc 1 1166 3547 view .LVU119
	.loc 1 1166 3588 view .LVU120
	.loc 1 1166 7 view .LVU121
	.loc 1 1166 30 view .LVU122
	.loc 1 1166 129 view .LVU123
	.loc 1 1166 6 view .LVU124
	.loc 1 1166 11 view .LVU125
	.loc 1 1166 236 view .LVU126
	.loc 1 1166 1189 view .LVU127
	.loc 1 1166 1254 view .LVU128
	.loc 1 1166 1278 view .LVU129
	.loc 1 1166 1307 view .LVU130
	.loc 1 1166 1318 view .LVU131
	.loc 1 1166 1405 view .LVU132
	.loc 1 1166 1421 view .LVU133
	.loc 1 1166 1461 view .LVU134
	.loc 1 1166 2725 view .LVU135
	.loc 1 1166 2766 view .LVU136
	.loc 1 1166 7 view .LVU137
	.loc 1 1166 30 view .LVU138
	.loc 1 1166 9 view .LVU139
	.loc 1 1166 6 view .LVU140
	.loc 1 1166 11 view .LVU141
	.loc 1 1166 236 view .LVU142
	.loc 1 1166 1189 view .LVU143
	.loc 1 1166 1254 view .LVU144
	.loc 1 1166 1278 view .LVU145
	.loc 1 1166 1307 view .LVU146
	.loc 1 1166 1318 view .LVU147
	.loc 1 1166 1405 view .LVU148
	.loc 1 1166 1421 view .LVU149
	.loc 1 1166 1461 view .LVU150
	.loc 1 1166 2725 view .LVU151
	.loc 1 1166 2766 view .LVU152
	.loc 1 1166 7 view .LVU153
	.loc 1 1166 30 view .LVU154
	.loc 1 1166 9 view .LVU155
	.loc 1 1166 5 view .LVU156
	.loc 1 1166 28 view .LVU157
	.loc 1 1166 52 view .LVU158
	.loc 1 1166 80 view .LVU159
	.loc 1 1166 256 view .LVU160
	.loc 1 1166 16 view .LVU161
.LBB826:
.LBB821:
.LBB816:
.LBB811:
	.loc 1 1166 29 view .LVU162
	.loc 1 1166 3 view .LVU163
	.loc 1 1166 3 view .LVU164
	.loc 1 1166 70 view .LVU165
	.loc 1 1166 70 is_stmt 0 view .LVU166
.LBE811:
.LBE816:
.LBE821:
.LBE826:
	.loc 1 1159 12 view .LVU167
	push	{r7, lr}
	.cfi_def_cfa_offset 8
	.cfi_offset 7, -8
	.cfi_offset 14, -4
	add	r7, sp, #0
	.cfi_def_cfa_register 7
.LBB827:
.LBB822:
.LBB817:
.LBB812:
	.loc 1 1166 82 view .LVU168
	sub	sp, sp, #32
	mov	r2, sp
.LVL14:
	.loc 1 1166 74 is_stmt 1 view .LVU169
	.loc 1 1166 484 view .LVU170
	.loc 1 1166 5 view .LVU171
	.loc 1 1166 7 view .LVU172
	.loc 1 1166 12 view .LVU173
	.loc 1 1166 10 view .LVU174
	.loc 1 1166 5 view .LVU175
	.loc 1 1166 23 view .LVU176
.LBB802:
	.loc 1 1166 3 view .LVU177
	.loc 1 1166 368 view .LVU178
	.loc 1 1166 75 view .LVU179
.LVL15:
	.loc 1 1166 2 view .LVU180
	.loc 1 1166 2 view .LVU181
	.loc 1 1166 2 view .LVU182
	.loc 1 1166 38 view .LVU183
	.loc 1 1166 67 view .LVU184
	.loc 1 1166 93 view .LVU185
	.loc 1 1166 119 view .LVU186
	.loc 1 1166 1032 view .LVU187
	.loc 1 1166 1094 view .LVU188
	.loc 1 1166 2081 view .LVU189
	.loc 1 1166 2146 view .LVU190
	.loc 1 1166 2171 view .LVU191
	.loc 1 1166 2172 view .LVU192
	.loc 1 1166 2174 view .LVU193
	.loc 1 1166 2204 view .LVU194
	.loc 1 1166 2234 view .LVU195
	.loc 1 1166 2266 view .LVU196
	.loc 1 1166 2298 view .LVU197
	.loc 1 1166 2330 view .LVU198
	.loc 1 1166 2527 view .LVU199
	.loc 1 1166 2551 view .LVU200
	.loc 1 1166 2552 view .LVU201
	.loc 1 1166 2554 view .LVU202
	.loc 1 1166 2583 view .LVU203
	.loc 1 1166 2612 view .LVU204
	.loc 1 1166 2643 view .LVU205
	.loc 1 1166 2674 view .LVU206
	.loc 1 1166 2705 view .LVU207
	.loc 1 1166 2912 view .LVU208
.LBB803:
	.loc 1 1166 3585 view .LVU209
	.loc 1 1166 3590 view .LVU210
	.loc 1 1166 0 view .LVU211
	ldr	r3, .L16
.LBE803:
.LBB804:
	.loc 1 1166 3811 is_stmt 0 view .LVU212
	str	r1, [r2, #28]
.LBE804:
.LBB805:
	.loc 1 1166 3811 view .LVU213
	strd	r3, r0, [r2, #20]
	.loc 1 1166 2766 is_stmt 1 view .LVU214
	.loc 1 1166 7 view .LVU215
.LVL16:
	.loc 1 1166 30 view .LVU216
	.loc 1 1166 30 is_stmt 0 view .LVU217
.LBE805:
	.loc 1 1166 9 is_stmt 1 view .LVU218
	.loc 1 1166 6 view .LVU219
.LBB806:
	.loc 1 1166 11 view .LVU220
	.loc 1 1166 236 view .LVU221
	.loc 1 1166 1189 view .LVU222
	.loc 1 1166 1254 view .LVU223
.LBE806:
.LBE802:
.LBE812:
.LBE817:
.LBE822:
.LBE827:
	.loc 1 1166 1278 view .LVU224
	.loc 1 1166 1307 view .LVU225
	.loc 1 1166 1318 view .LVU226
	.loc 1 1166 1405 view .LVU227
.LBB828:
.LBB823:
.LBB818:
.LBB813:
.LBB809:
.LBB807:
	.loc 1 1166 1421 view .LVU228
	.loc 1 1166 1461 view .LVU229
	.loc 1 1166 2725 view .LVU230
	.loc 1 1166 2763 view .LVU231
	.loc 1 1166 2768 view .LVU232
	.loc 1 1166 3212 view .LVU233
	.loc 1 1166 2766 view .LVU234
	.loc 1 1166 7 view .LVU235
	.loc 1 1166 30 view .LVU236
	.loc 1 1166 30 is_stmt 0 view .LVU237
.LBE807:
	.loc 1 1166 9 is_stmt 1 view .LVU238
	.loc 1 1166 5 view .LVU239
	.loc 1 1166 28 view .LVU240
	.loc 1 1166 52 view .LVU241
	.loc 1 1166 80 view .LVU242
.LBE809:
.LBE813:
.LBE818:
.LBE823:
.LBE828:
	.loc 1 1166 6 view .LVU243
	.loc 1 1166 45 view .LVU244
	.loc 1 1166 50 view .LVU245
	.loc 1 1166 80 view .LVU246
	.loc 1 1166 147 view .LVU247
	.loc 1 1166 152 view .LVU248
	.loc 1 1166 182 view .LVU249
.LBB829:
.LBB824:
.LBB819:
.LBB814:
.LBB810:
	.loc 1 1166 256 view .LVU250
	.loc 1 1166 16 view .LVU251
.LBB808:
	.loc 1 1166 6 view .LVU252
	.loc 1 1166 164 view .LVU253
	.loc 1 1166 166 view .LVU254
	.loc 1 1166 176 is_stmt 0 view .LVU255
	movs	r3, #4
	str	r3, [r2, #16]!
.LVL17:
	.loc 1 1166 176 view .LVU256
.LBE808:
.LBE810:
	.loc 1 1166 26 is_stmt 1 view .LVU257
	.loc 1 1166 7 view .LVU258
	.loc 1 1166 147 view .LVU259
	.loc 1 1166 149 view .LVU260
	ldr	r0, .L16+4
.LVL18:
	.loc 1 1166 149 is_stmt 0 view .LVU261
	mov	r1, #8256
.LVL19:
	.loc 1 1166 149 view .LVU262
	bl	z_log_msg_static_create.constprop.0
.LVL20:
	.loc 1 1166 149 view .LVU263
.LBE814:
	.loc 1 1166 107 is_stmt 1 view .LVU264
	.loc 1 1166 5 view .LVU265
	.loc 1 1166 42 view .LVU266
.LBE819:
	.loc 1 1166 6 view .LVU267
.LBE824:
	.loc 1 1166 278 view .LVU268
	.loc 1 1166 5 view .LVU269
	.loc 1 1166 18 view .LVU270
.LBE829:
	.loc 1 1166 6 view .LVU271
	.loc 1 1169 3 view .LVU272
	.loc 1 1175 1 is_stmt 0 view .LVU273
	mvn	r0, #21
	mov	sp, r7
	.cfi_def_cfa_register 13
.LVL21:
	.loc 1 1175 1 view .LVU274
	@ sp needed
	pop	{r7, pc}
.L17:
	.align	2
.L16:
	.word	.LC0
	.word	log_const_qspi_nor
	.cfi_endproc
.LFE1096:
	.size	qspi_nor_erase.part.0, .-qspi_nor_erase.part.0
	.section	.text.pinctrl_apply_state,"ax",%progbits
	.align	1
	.syntax unified
	.thumb
	.thumb_func
	.type	pinctrl_apply_state, %function
pinctrl_apply_state:
.LVL22:
.LFB483:
	.file 4 "/home/g/mise-work/zmk-firmware/zmk/zephyr/include/zephyr/drivers/pinctrl.h"
	.loc 4 344 1 is_stmt 1 view -0
	.cfi_startproc
	@ args = 0, pretend = 0, frame = 8
	@ frame_needed = 0, uses_anonymous_args = 0
	.loc 4 345 2 view .LVU276
	.loc 4 346 2 view .LVU277
	.loc 4 348 2 view .LVU278
	.loc 4 344 1 is_stmt 0 view .LVU279
	push	{r0, r1, r4, lr}
	.cfi_def_cfa_offset 16
	.cfi_offset 4, -8
	.cfi_offset 14, -4
	.loc 4 348 8 view .LVU280
	add	r2, sp, #4
	.loc 4 344 1 view .LVU281
	mov	r4, r0
	.loc 4 348 8 view .LVU282
	bl	pinctrl_lookup_state
.LVL23:
	.loc 4 349 2 is_stmt 1 view .LVU283
	.loc 4 349 5 is_stmt 0 view .LVU284
	cmp	r0, #0
	.loc 4 349 5 view .LVU285
	blt	.L18
	.loc 4 353 2 is_stmt 1 view .LVU286
	.loc 4 353 9 is_stmt 0 view .LVU287
	ldr	r3, [sp, #4]
.LVL24:
.LBB832:
.LBI832:
	.loc 4 316 19 is_stmt 1 view .LVU288
.LBB833:
	.loc 4 320 2 view .LVU289
	.loc 4 323 2 view .LVU290
	.loc 4 329 2 view .LVU291
	.loc 4 329 9 is_stmt 0 view .LVU292
	ldr	r2, [r4]
	ldrb	r1, [r3, #4]	@ zero_extendqisi2
	ldr	r0, [r3]
.LVL25:
	.loc 4 329 9 view .LVU293
	bl	pinctrl_configure_pins
.LVL26:
.L18:
	.loc 4 329 9 view .LVU294
.LBE833:
.LBE832:
	.loc 4 354 1 view .LVU295
	add	sp, sp, #8
	.cfi_def_cfa_offset 8
	@ sp needed
	pop	{r4, pc}
	.loc 4 354 1 view .LVU296
	.cfi_endproc
.LFE483:
	.size	pinctrl_apply_state, .-pinctrl_apply_state
	.section	.text.qspi_trans_lock.isra.0,"ax",%progbits
	.align	1
	.syntax unified
	.thumb
	.thumb_func
	.type	qspi_trans_lock.isra.0, %function
qspi_trans_lock.isra.0:
.LFB1100:
	.loc 1 294 20 is_stmt 1 view -0
	.cfi_startproc
	@ args = 0, pretend = 0, frame = 0
	@ frame_needed = 0, uses_anonymous_args = 0
	@ link register save eliminated.
.LVL27:
	.loc 1 297 2 view .LVU298
	.loc 1 299 2 view .LVU299
.LBB836:
.LBI836:
	.loc 2 1093 19 view .LVU300
.LBB837:
	.loc 2 1102 2 view .LVU301
	.loc 2 1102 7 view .LVU302
	.loc 2 1102 5 view .LVU303
	.loc 2 1103 2 view .LVU304
	.loc 2 1103 9 is_stmt 0 view .LVU305
	mov	r2, #-1
	mov	r3, #-1
	b	z_impl_k_sem_take
.LVL28:
	.loc 2 1103 9 view .LVU306
.LBE837:
.LBE836:
	.cfi_endproc
.LFE1100:
	.size	qspi_trans_lock.isra.0, .-qspi_trans_lock.isra.0
	.section	.text.qspi_lock,"ax",%progbits
	.align	1
	.syntax unified
	.thumb
	.thumb_func
	.type	qspi_lock, %function
qspi_lock:
.LVL29:
.LFB1064:
	.loc 1 247 1 is_stmt 1 view -0
	.cfi_startproc
	@ args = 0, pretend = 0, frame = 0
	@ frame_needed = 0, uses_anonymous_args = 0
	.loc 1 248 2 view .LVU308
	.loc 1 247 1 is_stmt 0 view .LVU309
	push	{r4, lr}
	.cfi_def_cfa_offset 8
	.cfi_offset 4, -8
	.cfi_offset 14, -4
	.loc 1 248 24 view .LVU310
	ldr	r4, [r0, #16]
.LVL30:
	.loc 1 250 2 is_stmt 1 view .LVU311
	bl	pm_device_busy_set
.LVL31:
	.loc 1 253 2 view .LVU312
.LBB840:
.LBI840:
	.loc 2 1093 19 view .LVU313
.LBB841:
	.loc 2 1102 2 view .LVU314
	.loc 2 1102 7 view .LVU315
	.loc 2 1102 5 view .LVU316
	.loc 2 1103 2 view .LVU317
	.loc 2 1103 9 is_stmt 0 view .LVU318
	mov	r2, #-1
	add	r0, r4, #24
.LVL32:
	.loc 2 1103 9 view .LVU319
	mov	r3, #-1
.LBE841:
.LBE840:
	.loc 1 270 1 view .LVU320
	pop	{r4, lr}
	.cfi_restore 14
	.cfi_restore 4
	.cfi_def_cfa_offset 0
.LVL33:
.LBB843:
.LBB842:
	.loc 2 1103 9 view .LVU321
	b	z_impl_k_sem_take
.LVL34:
	.loc 2 1103 9 view .LVU322
.LBE842:
.LBE843:
	.cfi_endproc
.LFE1064:
	.size	qspi_lock, .-qspi_lock
	.section	.text.qspi_wait_for_completion.isra.0,"ax",%progbits
	.align	1
	.syntax unified
	.thumb
	.thumb_func
	.type	qspi_wait_for_completion.isra.0, %function
qspi_wait_for_completion.isra.0:
.LVL35:
.LFB1102:
	.loc 1 316 20 is_stmt 1 view -0
	.cfi_startproc
	@ args = 0, pretend = 0, frame = 0
	@ frame_needed = 0, uses_anonymous_args = 0
	@ link register save eliminated.
	.loc 1 319 2 view .LVU324
	.loc 1 321 2 view .LVU325
	.loc 1 321 5 is_stmt 0 view .LVU326
	ldr	r3, .L24
	cmp	r1, r3
	bne	.L22
.LBB848:
	.loc 1 323 3 is_stmt 1 view .LVU327
.LVL36:
.LBB849:
.LBI849:
	.loc 2 1093 19 view .LVU328
.LBB850:
	.loc 2 1102 2 view .LVU329
	.loc 2 1102 7 view .LVU330
	.loc 2 1102 5 view .LVU331
	.loc 2 1103 2 view .LVU332
	.loc 2 1103 9 is_stmt 0 view .LVU333
	mov	r2, #-1
	mov	r3, #-1
	adds	r0, r0, #48
.LVL37:
	.loc 2 1103 9 view .LVU334
	b	z_impl_k_sem_take
.LVL38:
.L22:
	.loc 2 1103 9 view .LVU335
.LBE850:
.LBE849:
.LBE848:
	.loc 1 335 1 view .LVU336
	bx	lr
.L25:
	.align	2
.L24:
	.word	195887104
	.cfi_endproc
.LFE1102:
	.size	qspi_wait_for_completion.isra.0, .-qspi_wait_for_completion.isra.0
	.section	.text.qspi_unlock,"ax",%progbits
	.align	1
	.syntax unified
	.thumb
	.thumb_func
	.type	qspi_unlock, %function
qspi_unlock:
.LVL39:
.LFB1065:
	.loc 1 273 1 is_stmt 1 view -0
	.cfi_startproc
	@ args = 0, pretend = 0, frame = 0
	@ frame_needed = 0, uses_anonymous_args = 0
	.loc 1 274 2 view .LVU338
	.loc 1 286 2 view .LVU339
	.loc 1 273 1 is_stmt 0 view .LVU340
	push	{r4, lr}
	.cfi_def_cfa_offset 8
	.cfi_offset 4, -8
	.cfi_offset 14, -4
	.loc 1 273 1 view .LVU341
	mov	r4, r0
	.loc 1 286 2 view .LVU342
	ldr	r0, [r0, #16]
.LVL40:
	.loc 1 286 2 view .LVU343
	adds	r0, r0, #24
.LVL41:
.LBB853:
.LBI853:
	.loc 2 1110 20 is_stmt 1 view .LVU344
.LBB854:
	.loc 2 1119 2 view .LVU345
	.loc 2 1119 7 view .LVU346
	.loc 2 1119 5 view .LVU347
	.loc 2 1120 2 view .LVU348
	bl	z_impl_k_sem_give
.LVL42:
	.loc 2 1120 2 is_stmt 0 view .LVU349
.LBE854:
.LBE853:
	.loc 1 291 2 is_stmt 1 view .LVU350
	mov	r0, r4
	.loc 1 292 1 is_stmt 0 view .LVU351
	pop	{r4, lr}
	.cfi_restore 14
	.cfi_restore 4
	.cfi_def_cfa_offset 0
.LVL43:
	.loc 1 291 2 view .LVU352
	b	pm_device_busy_clear
.LVL44:
	.loc 1 291 2 view .LVU353
	.cfi_endproc
.LFE1065:
	.size	qspi_unlock, .-qspi_unlock
	.section	.text.qspi_device_init,"ax",%progbits
	.align	1
	.syntax unified
	.thumb
	.thumb_func
	.type	qspi_device_init, %function
qspi_device_init:
.LVL45:
.LFB1071:
	.loc 1 363 1 is_stmt 1 view -0
	.cfi_startproc
	@ args = 0, pretend = 0, frame = 0
	@ frame_needed = 0, uses_anonymous_args = 0
	.loc 1 364 2 view .LVU355
	.loc 1 363 1 is_stmt 0 view .LVU356
	push	{r3, r4, r5, r6, r7, lr}
	.cfi_def_cfa_offset 24
	.cfi_offset 3, -24
	.cfi_offset 4, -20
	.cfi_offset 5, -16
	.cfi_offset 6, -12
	.cfi_offset 7, -8
	.cfi_offset 14, -4
	.loc 1 364 24 view .LVU357
	ldr	r6, [r0, #16]
.LVL46:
	.loc 1 366 2 is_stmt 1 view .LVU358
	.loc 1 366 5 is_stmt 0 view .LVU359
	ldrb	r4, [r6, #96]	@ zero_extendqisi2
	.loc 1 363 1 view .LVU360
	mov	r5, r0
	.loc 1 366 5 view .LVU361
	cbnz	r4, .L30
	.loc 1 373 2 is_stmt 1 view .LVU362
	.loc 1 374 2 view .LVU363
.LVL47:
	.loc 1 376 2 view .LVU364
	bl	qspi_lock
.LVL48:
	.loc 1 383 2 view .LVU365
.LBB858:
.LBI858:
	.loc 2 1110 20 view .LVU366
.LBB859:
	.loc 2 1119 2 view .LVU367
	.loc 2 1119 7 view .LVU368
	.loc 2 1119 5 view .LVU369
	.loc 2 1120 2 view .LVU370
.LBE859:
.LBE858:
	.loc 1 386 6 is_stmt 0 view .LVU371
	ldr	r7, .L32
.LBB861:
.LBB860:
	.loc 2 1120 2 view .LVU372
	add	r0, r6, #72
.LVL49:
	.loc 2 1120 2 view .LVU373
	bl	z_impl_k_sem_give
.LVL50:
	.loc 2 1120 2 view .LVU374
.LBE860:
.LBE861:
	.loc 1 386 2 is_stmt 1 view .LVU375
	.loc 1 386 5 is_stmt 0 view .LVU376
	ldrb	r3, [r7]	@ zero_extendqisi2
	cbnz	r3, .L29
.LBB862:
	.loc 1 387 3 is_stmt 1 view .LVU377
.LVL51:
	.loc 1 389 3 view .LVU378
	.loc 1 389 9 is_stmt 0 view .LVU379
	ldr	r1, .L32+4
	ldr	r0, [r5, #4]
	mov	r2, r6
	bl	nrfx_qspi_init
.LVL52:
	.loc 1 392 3 is_stmt 1 view .LVU380
	.loc 1 392 9 is_stmt 0 view .LVU381
	bl	qspi_get_zephyr_ret_code
.LVL53:
	.loc 1 393 3 is_stmt 1 view .LVU382
	.loc 1 393 27 is_stmt 0 view .LVU383
	clz	r3, r0
	lsrs	r3, r3, #5
	mov	r4, r0
	strb	r3, [r7]
.LVL54:
.L29:
	.loc 1 393 27 view .LVU384
.LBE862:
	.loc 1 396 2 is_stmt 1 view .LVU385
	mov	r0, r5
	bl	qspi_unlock
.LVL55:
	.loc 1 398 2 view .LVU386
.L27:
	.loc 1 400 1 is_stmt 0 view .LVU387
	mov	r0, r4
	pop	{r3, r4, r5, r6, r7, pc}
.LVL56:
.L30:
	.loc 1 367 10 view .LVU388
	movs	r4, #0
	b	.L27
.L33:
	.align	2
.L32:
	.word	qspi_initialized
	.word	qspi_handler
	.cfi_endproc
.LFE1071:
	.size	qspi_device_init, .-qspi_device_init
	.section	.text.qspi_device_uninit,"ax",%progbits
	.align	1
	.syntax unified
	.thumb
	.thumb_func
	.type	qspi_device_uninit, %function
qspi_device_uninit:
.LVL57:
.LFB1072:
	.loc 1 403 1 is_stmt 1 view -0
	.cfi_startproc
	@ args = 0, pretend = 0, frame = 0
	@ frame_needed = 0, uses_anonymous_args = 0
	.loc 1 404 2 view .LVU390
	.loc 1 403 1 is_stmt 0 view .LVU391
	push	{r3, r4, r5, lr}
	.cfi_def_cfa_offset 16
	.cfi_offset 3, -16
	.cfi_offset 4, -12
	.cfi_offset 5, -8
	.cfi_offset 14, -4
	.loc 1 404 24 view .LVU392
	ldr	r5, [r0, #16]
.LVL58:
	.loc 1 406 2 is_stmt 1 view .LVU393
	.loc 1 406 5 is_stmt 0 view .LVU394
	ldrb	r3, [r5, #96]	@ zero_extendqisi2
	.loc 1 403 1 view .LVU395
	mov	r4, r0
	.loc 1 406 5 view .LVU396
	cbnz	r3, .L34
	.loc 1 417 1 is_stmt 1 view .LVU397
.LVL59:
	.loc 1 419 2 view .LVU398
	bl	qspi_lock
.LVL60:
	.loc 1 423 2 view .LVU399
.LBB873:
.LBI873:
	.loc 2 1093 19 view .LVU400
.LBB874:
	.loc 2 1102 2 view .LVU401
	.loc 2 1102 7 view .LVU402
	.loc 2 1102 5 view .LVU403
	.loc 2 1103 2 view .LVU404
	.loc 2 1103 9 is_stmt 0 view .LVU405
	movs	r2, #0
	movs	r3, #0
	add	r0, r5, #72
.LVL61:
	.loc 2 1103 9 view .LVU406
	bl	z_impl_k_sem_take
.LVL62:
	.loc 2 1103 9 view .LVU407
.LBE874:
.LBE873:
	.loc 1 424 2 is_stmt 1 view .LVU408
.LBB875:
.LBI875:
	.loc 2 1144 28 view .LVU409
.LBB876:
	.loc 2 1152 2 view .LVU410
	.loc 2 1152 7 view .LVU411
	.loc 2 1152 5 view .LVU412
	.loc 2 1153 2 view .LVU413
.LVL63:
.LBB877:
.LBI877:
	.file 5 "/home/g/mise-work/zmk-firmware/zmk/zephyr/include/zephyr/kernel.h"
	.loc 5 3225 28 view .LVU414
.LBB878:
	.loc 5 3227 2 view .LVU415
	.loc 5 3227 2 is_stmt 0 view .LVU416
.LBE878:
.LBE877:
.LBE876:
.LBE875:
	.loc 1 427 2 is_stmt 1 view .LVU417
	.loc 1 427 5 is_stmt 0 view .LVU418
	ldr	r3, [r5, #80]
	cbnz	r3, .L37
	.loc 1 428 37 view .LVU419
	ldr	r5, .L40
.LVL64:
.L36:
	.loc 1 428 37 is_stmt 1 view .LVU420
	.loc 1 428 10 is_stmt 0 view .LVU421
	bl	nrfx_qspi_mem_busy_check
.LVL65:
	.loc 1 428 37 view .LVU422
	cmp	r0, r5
	bne	.L38
	.loc 1 436 3 is_stmt 1 view .LVU423
	bl	nrfx_qspi_uninit
.LVL66:
	.loc 1 438 3 view .LVU424
	.loc 1 438 20 is_stmt 0 view .LVU425
	ldr	r3, .L40+4
	movs	r2, #0
	strb	r2, [r3]
.L37:
	.loc 1 441 2 is_stmt 1 view .LVU426
	mov	r0, r4
	.loc 1 443 1 is_stmt 0 view .LVU427
	pop	{r3, r4, r5, lr}
	.cfi_remember_state
	.cfi_restore 14
	.cfi_restore 5
	.cfi_restore 4
	.cfi_restore 3
	.cfi_def_cfa_offset 0
.LVL67:
	.loc 1 441 2 view .LVU428
	b	qspi_unlock
.LVL68:
.L38:
	.cfi_restore_state
	.loc 1 429 4 is_stmt 1 view .LVU429
	.loc 1 430 5 view .LVU430
.LBB879:
.LBI879:
	.loc 5 501 23 view .LVU431
.LBB880:
	.loc 5 503 2 view .LVU432
.LBB881:
.LBI881:
	.loc 2 126 23 view .LVU433
.LBB882:
	.loc 2 134 2 view .LVU434
	.loc 2 134 7 view .LVU435
	.loc 2 134 5 view .LVU436
	.loc 2 135 2 view .LVU437
	.loc 2 135 9 is_stmt 0 view .LVU438
	movs	r1, #0
	movw	r0, #1639
	bl	z_impl_k_sleep
.LVL69:
.LBE882:
.LBE881:
	.loc 5 503 9 view .LVU439
	b	.L36
.LVL70:
.L34:
	.loc 5 503 9 view .LVU440
.LBE880:
.LBE879:
	.loc 1 443 1 view .LVU441
	pop	{r3, r4, r5, pc}
.LVL71:
.L41:
	.loc 1 443 1 view .LVU442
	.align	2
.L40:
	.word	195887104
	.word	qspi_initialized
	.cfi_endproc
.LFE1072:
	.size	qspi_device_uninit, .-qspi_device_uninit
	.section	.rodata.qspi_send_cmd.str1.1,"aMS",%progbits,1
.LC1:
	.ascii	"cinstr %02x transfer too long: %zu\000"
	.section	.text.qspi_send_cmd,"ax",%progbits
	.align	1
	.syntax unified
	.thumb
	.thumb_func
	.type	qspi_send_cmd, %function
qspi_send_cmd:
.LVL72:
.LFB1073:
	.loc 1 452 1 is_stmt 1 view -0
	.cfi_startproc
	@ args = 0, pretend = 0, frame = 8
	@ frame_needed = 1, uses_anonymous_args = 0
	.loc 1 454 2 view .LVU444
	.loc 1 458 2 view .LVU445
	.loc 1 459 2 view .LVU446
	.loc 1 460 2 view .LVU447
	.loc 1 461 2 view .LVU448
	.loc 1 462 2 view .LVU449
	.loc 1 464 2 view .LVU450
	.loc 1 452 1 is_stmt 0 view .LVU451
	push	{r4, r5, r6, r7, lr}
	.cfi_def_cfa_offset 20
	.cfi_offset 4, -20
	.cfi_offset 5, -16
	.cfi_offset 6, -12
	.cfi_offset 7, -8
	.cfi_offset 14, -4
	sub	sp, sp, #12
	.cfi_def_cfa_offset 32
	.loc 1 464 9 view .LVU452
	ldr	r4, [r1, #4]
	.loc 1 452 1 view .LVU453
	add	r7, sp, #0
	.cfi_def_cfa_register 7
	.loc 1 452 1 view .LVU454
	mov	r5, r0
	.loc 1 464 5 view .LVU455
	cbz	r4, .L50
	.loc 1 465 3 is_stmt 1 view .LVU456
.LVL73:
	.loc 1 466 3 view .LVU457
	.loc 1 465 10 is_stmt 0 view .LVU458
	ldrd	r4, r3, [r4]
.LVL74:
.L43:
	.loc 1 469 2 is_stmt 1 view .LVU459
	.loc 1 469 9 is_stmt 0 view .LVU460
	ldr	r0, [r1, #8]
.LVL75:
	.loc 1 469 5 view .LVU461
	cbz	r0, .L51
	.loc 1 470 3 is_stmt 1 view .LVU462
	.loc 1 471 10 is_stmt 0 view .LVU463
	ldrd	r6, r0, [r0]
.LVL76:
	.loc 1 474 2 is_stmt 1 view .LVU464
	.loc 1 474 5 is_stmt 0 view .LVU465
	cbz	r0, .L44
	.loc 1 474 20 discriminator 1 view .LVU466
	cbz	r3, .L44
	.loc 1 475 3 is_stmt 1 view .LVU467
	.loc 1 475 6 is_stmt 0 view .LVU468
	cmp	r0, r3
	beq	.L45
.LVL77:
.L49:
	.loc 1 455 10 view .LVU469
	mvn	r0, #21
.L42:
	.loc 1 506 1 view .LVU470
	adds	r7, r7, #12
	.cfi_remember_state
	.cfi_def_cfa_offset 20
	mov	sp, r7
	.cfi_def_cfa_register 13
	@ sp needed
	pop	{r4, r5, r6, r7, pc}
.LVL78:
.L50:
	.cfi_restore_state
	.loc 1 459 9 view .LVU471
	mov	r3, r4
	b	.L43
.LVL79:
.L45:
	.loc 1 479 3 is_stmt 1 view .LVU472
	.loc 1 479 12 is_stmt 0 view .LVU473
	adds	r3, r3, #1
.LVL80:
.L47:
	.loc 1 485 2 is_stmt 1 view .LVU474
	.loc 1 485 5 is_stmt 0 view .LVU475
	cmp	r3, #9
.LBB883:
.LBB884:
	.loc 1 486 27 view .LVU476
	ldrb	r1, [r1]	@ zero_extendqisi2
.LVL81:
	.loc 1 486 27 view .LVU477
.LBE884:
.LBE883:
	.loc 1 485 5 view .LVU478
	bls	.L48
	.loc 1 486 3 is_stmt 1 view .LVU479
.LBB912:
	.loc 1 486 8 view .LVU480
	.loc 1 486 57 view .LVU481
	.loc 1 486 14 view .LVU482
	.loc 1 486 2 view .LVU483
.LVL82:
	.loc 1 486 41 view .LVU484
	.loc 1 486 176 view .LVU485
	.loc 1 486 187 view .LVU486
	.loc 1 486 275 view .LVU487
.LBB907:
	.loc 1 486 3 view .LVU488
	.loc 1 486 5 view .LVU489
	.loc 1 486 44 view .LVU490
	.loc 1 486 3 view .LVU491
.LBB885:
	.loc 1 486 8 view .LVU492
	.loc 1 486 2 view .LVU493
.LBE885:
.LBE907:
.LBE912:
	.loc 1 486 3 view .LVU494
	.loc 1 486 12 view .LVU495
	.loc 1 486 107 view .LVU496
	.loc 1 486 3 view .LVU497
.LBB913:
.LBB908:
.LBB902:
	.loc 1 486 12 view .LVU498
	.loc 1 486 102 view .LVU499
	.loc 1 486 104 view .LVU500
.LBB886:
	.loc 1 486 107 is_stmt 0 view .LVU501
	mov	r4, sp
.LVL83:
	.loc 1 486 109 is_stmt 1 view .LVU502
	.loc 1 486 120 view .LVU503
	.loc 1 486 209 view .LVU504
	.loc 1 486 26 view .LVU505
.LBE886:
.LBE902:
.LBE908:
.LBE913:
	.loc 1 486 3 view .LVU506
	.loc 1 486 368 view .LVU507
	.loc 1 486 75 view .LVU508
	.loc 1 486 2 view .LVU509
	.loc 1 486 2 view .LVU510
	.loc 1 486 2 view .LVU511
	.loc 1 486 38 view .LVU512
	.loc 1 486 4 view .LVU513
	.loc 1 486 30 view .LVU514
	.loc 1 486 56 view .LVU515
	.loc 1 486 969 view .LVU516
	.loc 1 486 1031 view .LVU517
	.loc 1 486 2018 view .LVU518
	.loc 1 486 2083 view .LVU519
	.loc 1 486 2108 view .LVU520
	.loc 1 486 2109 view .LVU521
	.loc 1 486 2111 view .LVU522
	.loc 1 486 2141 view .LVU523
	.loc 1 486 2171 view .LVU524
	.loc 1 486 2203 view .LVU525
	.loc 1 486 2235 view .LVU526
	.loc 1 486 2267 view .LVU527
	.loc 1 486 2464 view .LVU528
	.loc 1 486 2488 view .LVU529
	.loc 1 486 2489 view .LVU530
	.loc 1 486 2491 view .LVU531
	.loc 1 486 2520 view .LVU532
	.loc 1 486 2549 view .LVU533
	.loc 1 486 2580 view .LVU534
	.loc 1 486 2611 view .LVU535
	.loc 1 486 2642 view .LVU536
	.loc 1 486 2849 view .LVU537
	.loc 1 486 4 view .LVU538
	.loc 1 486 22 view .LVU539
	.loc 1 486 42 view .LVU540
	.loc 1 486 4 view .LVU541
	.loc 1 486 42 view .LVU542
	.loc 1 486 13 view .LVU543
	.loc 1 486 13 view .LVU544
	.loc 1 486 61 view .LVU545
	.loc 1 486 92 view .LVU546
	.loc 1 486 126 view .LVU547
	.loc 1 486 131 view .LVU548
	.loc 1 486 389 view .LVU549
	.loc 1 486 1474 view .LVU550
	.loc 1 486 1539 view .LVU551
	.loc 1 486 1563 view .LVU552
	.loc 1 486 1625 view .LVU553
	.loc 1 486 1636 view .LVU554
	.loc 1 486 1756 view .LVU555
	.loc 1 486 1772 view .LVU556
	.loc 1 486 1812 view .LVU557
	.loc 1 486 1837 view .LVU558
	.loc 1 486 3142 view .LVU559
	.loc 1 486 3183 view .LVU560
	.loc 1 486 7 view .LVU561
	.loc 1 486 30 view .LVU562
	.loc 1 486 129 view .LVU563
	.loc 1 486 6 view .LVU564
	.loc 1 486 11 view .LVU565
	.loc 1 486 236 view .LVU566
	.loc 1 486 1189 view .LVU567
	.loc 1 486 1254 view .LVU568
	.loc 1 486 1278 view .LVU569
	.loc 1 486 1307 view .LVU570
	.loc 1 486 1318 view .LVU571
	.loc 1 486 1405 view .LVU572
	.loc 1 486 1421 view .LVU573
	.loc 1 486 1461 view .LVU574
	.loc 1 486 2725 view .LVU575
	.loc 1 486 2766 view .LVU576
	.loc 1 486 7 view .LVU577
	.loc 1 486 30 view .LVU578
	.loc 1 486 9 view .LVU579
	.loc 1 486 6 view .LVU580
	.loc 1 486 11 view .LVU581
	.loc 1 486 236 view .LVU582
	.loc 1 486 1189 view .LVU583
	.loc 1 486 1254 view .LVU584
	.loc 1 486 1278 view .LVU585
	.loc 1 486 1307 view .LVU586
	.loc 1 486 1318 view .LVU587
	.loc 1 486 1405 view .LVU588
	.loc 1 486 1421 view .LVU589
	.loc 1 486 1461 view .LVU590
	.loc 1 486 2725 view .LVU591
	.loc 1 486 2766 view .LVU592
	.loc 1 486 7 view .LVU593
	.loc 1 486 30 view .LVU594
	.loc 1 486 9 view .LVU595
	.loc 1 486 5 view .LVU596
	.loc 1 486 28 view .LVU597
	.loc 1 486 52 view .LVU598
	.loc 1 486 80 view .LVU599
	.loc 1 486 256 view .LVU600
	.loc 1 486 16 view .LVU601
.LBB914:
.LBB909:
.LBB903:
.LBB898:
	.loc 1 486 29 view .LVU602
	.loc 1 486 3 view .LVU603
	.loc 1 486 3 view .LVU604
	.loc 1 486 70 view .LVU605
	.loc 1 486 82 is_stmt 0 view .LVU606
	sub	sp, sp, #32
	mov	r2, sp
.LVL84:
	.loc 1 486 74 is_stmt 1 view .LVU607
	.loc 1 486 484 view .LVU608
	.loc 1 486 5 view .LVU609
	.loc 1 486 7 view .LVU610
	.loc 1 486 12 view .LVU611
	.loc 1 486 10 view .LVU612
	.loc 1 486 5 view .LVU613
	.loc 1 486 23 view .LVU614
.LBB887:
	.loc 1 486 3 view .LVU615
	.loc 1 486 368 view .LVU616
	.loc 1 486 75 view .LVU617
.LVL85:
	.loc 1 486 2 view .LVU618
	.loc 1 486 2 view .LVU619
	.loc 1 486 2 view .LVU620
	.loc 1 486 38 view .LVU621
	.loc 1 486 67 view .LVU622
	.loc 1 486 93 view .LVU623
	.loc 1 486 119 view .LVU624
	.loc 1 486 1032 view .LVU625
	.loc 1 486 1094 view .LVU626
	.loc 1 486 2081 view .LVU627
	.loc 1 486 2146 view .LVU628
	.loc 1 486 2171 view .LVU629
	.loc 1 486 2172 view .LVU630
	.loc 1 486 2174 view .LVU631
	.loc 1 486 2204 view .LVU632
	.loc 1 486 2234 view .LVU633
	.loc 1 486 2266 view .LVU634
	.loc 1 486 2298 view .LVU635
	.loc 1 486 2330 view .LVU636
	.loc 1 486 2527 view .LVU637
	.loc 1 486 2551 view .LVU638
	.loc 1 486 2552 view .LVU639
	.loc 1 486 2554 view .LVU640
	.loc 1 486 2583 view .LVU641
	.loc 1 486 2612 view .LVU642
	.loc 1 486 2643 view .LVU643
	.loc 1 486 2674 view .LVU644
	.loc 1 486 2705 view .LVU645
	.loc 1 486 2912 view .LVU646
.LBB888:
	.loc 1 486 3180 view .LVU647
	.loc 1 486 3185 view .LVU648
	.loc 1 486 3827 view .LVU649
	.loc 1 486 0 is_stmt 0 view .LVU650
	ldr	r0, .L58
.LBE888:
.LBB889:
	.loc 1 486 3811 view .LVU651
	str	r3, [r2, #28]
.LBE889:
.LBB890:
	.loc 1 486 176 view .LVU652
	movs	r3, #4
.LVL86:
	.loc 1 486 176 view .LVU653
.LBE890:
.LBE887:
.LBE898:
.LBE903:
	.loc 1 486 17 view .LVU654
	strd	r0, r1, [r2, #20]
.LBB904:
.LBB899:
.LBB895:
.LBB891:
	.loc 1 486 2766 is_stmt 1 view .LVU655
	.loc 1 486 7 view .LVU656
.LVL87:
	.loc 1 486 30 view .LVU657
	.loc 1 486 30 is_stmt 0 view .LVU658
.LBE891:
	.loc 1 486 9 is_stmt 1 view .LVU659
	.loc 1 486 6 view .LVU660
.LBB892:
	.loc 1 486 11 view .LVU661
	.loc 1 486 236 view .LVU662
	.loc 1 486 1189 view .LVU663
	.loc 1 486 1254 view .LVU664
.LBE892:
.LBE895:
.LBE899:
.LBE904:
.LBE909:
.LBE914:
	.loc 1 486 1278 view .LVU665
	.loc 1 486 1307 view .LVU666
	.loc 1 486 1318 view .LVU667
	.loc 1 486 1405 view .LVU668
.LBB915:
.LBB910:
.LBB905:
.LBB900:
.LBB896:
.LBB893:
	.loc 1 486 1421 view .LVU669
	.loc 1 486 1461 view .LVU670
	.loc 1 486 2725 view .LVU671
	.loc 1 486 2763 view .LVU672
	.loc 1 486 2768 view .LVU673
	.loc 1 486 3212 view .LVU674
	.loc 1 486 2766 view .LVU675
	.loc 1 486 7 view .LVU676
	.loc 1 486 30 view .LVU677
	.loc 1 486 30 is_stmt 0 view .LVU678
.LBE893:
	.loc 1 486 9 is_stmt 1 view .LVU679
	.loc 1 486 5 view .LVU680
	.loc 1 486 28 view .LVU681
	.loc 1 486 52 view .LVU682
	.loc 1 486 80 view .LVU683
.LBE896:
.LBE900:
.LBE905:
.LBE910:
.LBE915:
	.loc 1 486 6 view .LVU684
	.loc 1 486 45 view .LVU685
	.loc 1 486 50 view .LVU686
	.loc 1 486 80 view .LVU687
	.loc 1 486 147 view .LVU688
	.loc 1 486 152 view .LVU689
	.loc 1 486 182 view .LVU690
.LBB916:
.LBB911:
.LBB906:
.LBB901:
.LBB897:
	.loc 1 486 256 view .LVU691
	.loc 1 486 16 view .LVU692
.LBB894:
	.loc 1 486 6 view .LVU693
	.loc 1 486 164 view .LVU694
	.loc 1 486 166 view .LVU695
	.loc 1 486 176 is_stmt 0 view .LVU696
	str	r3, [r2, #16]!
.LVL88:
	.loc 1 486 176 view .LVU697
.LBE894:
.LBE897:
	.loc 1 486 26 is_stmt 1 view .LVU698
	.loc 1 486 7 view .LVU699
	.loc 1 486 147 view .LVU700
	.loc 1 486 149 view .LVU701
	ldr	r0, .L58+4
	mov	r1, #8320
.LVL89:
	.loc 1 486 149 is_stmt 0 view .LVU702
	bl	z_log_msg_static_create.constprop.0
.LVL90:
	.loc 1 486 149 view .LVU703
	mov	sp, r4
.LVL91:
	.loc 1 486 149 view .LVU704
.LBE901:
	.loc 1 486 107 is_stmt 1 view .LVU705
	.loc 1 486 5 view .LVU706
	.loc 1 486 42 view .LVU707
.LBE906:
	.loc 1 486 6 view .LVU708
.LBE911:
	.loc 1 486 278 view .LVU709
	.loc 1 486 5 view .LVU710
	.loc 1 486 18 view .LVU711
.LBE916:
	.loc 1 486 6 view .LVU712
	.loc 1 488 3 view .LVU713
	.loc 1 488 10 is_stmt 0 view .LVU714
	b	.L49
.LVL92:
.L51:
	.loc 1 460 8 view .LVU715
	mov	r6, r0
.LVL93:
.L44:
	.loc 1 482 3 is_stmt 1 view .LVU716
	.loc 1 482 12 is_stmt 0 view .LVU717
	adds	r3, r3, #1
.LVL94:
	.loc 1 482 12 view .LVU718
	add	r3, r3, r0
.LVL95:
	.loc 1 482 12 view .LVU719
	b	.L47
.LVL96:
.L48:
	.loc 1 491 2 is_stmt 1 view .LVU720
	.loc 1 491 25 is_stmt 0 view .LVU721
	strb	r3, [r7, #1]
	movw	r3, #257
.LVL97:
	.loc 1 491 25 view .LVU722
	strh	r3, [r7, #2]	@ movhi
	.loc 1 500 2 view .LVU723
	mov	r0, r5
	.loc 1 491 25 view .LVU724
	movs	r3, #0
	strb	r3, [r7, #4]
	strb	r1, [r7]
	strb	r2, [r7, #5]
	.loc 1 500 2 is_stmt 1 view .LVU725
	bl	qspi_lock
.LVL98:
	.loc 1 502 2 view .LVU726
	.loc 1 502 12 is_stmt 0 view .LVU727
	mov	r1, r4
	mov	r2, r6
	mov	r0, r7
	bl	nrfx_qspi_cinstr_xfer
.LVL99:
	mov	r4, r0
.LVL100:
	.loc 1 504 2 is_stmt 1 view .LVU728
	mov	r0, r5
.LVL101:
	.loc 1 504 2 is_stmt 0 view .LVU729
	bl	qspi_unlock
.LVL102:
	.loc 1 505 2 is_stmt 1 view .LVU730
	.loc 1 505 9 is_stmt 0 view .LVU731
	mov	r0, r4
	bl	qspi_get_zephyr_ret_code
.LVL103:
	b	.L42
.L59:
	.align	2
.L58:
	.word	.LC1
	.word	log_const_qspi_nor
	.cfi_endproc
.LFE1073:
	.size	qspi_send_cmd, .-qspi_send_cmd
	.section	.text.qspi_nor_write_protection_set,"ax",%progbits
	.align	1
	.syntax unified
	.thumb
	.thumb_func
	.type	qspi_nor_write_protection_set, %function
qspi_nor_write_protection_set:
.LVL104:
.LFB1087:
	.loc 1 1179 1 is_stmt 1 view -0
	.cfi_startproc
	@ args = 0, pretend = 0, frame = 16
	@ frame_needed = 0, uses_anonymous_args = 0
	.loc 1 1180 2 view .LVU733
	.loc 1 1181 2 view .LVU734
	.loc 1 1179 1 is_stmt 0 view .LVU735
	push	{r0, r1, r2, r3, r4, lr}
	.cfi_def_cfa_offset 24
	.cfi_offset 14, -4
	.loc 1 1181 18 view .LVU736
	movs	r2, #0
	cmp	r1, r2
	ite	eq
	moveq	r3, #6
	movne	r3, #4
	.loc 1 1185 6 view .LVU737
	add	r1, sp, #4
.LVL105:
	.loc 1 1181 18 view .LVU738
	strd	r2, r2, [sp, #4]
	str	r2, [sp, #12]
	strb	r3, [sp, #4]
	.loc 1 1185 2 is_stmt 1 view .LVU739
	.loc 1 1185 6 is_stmt 0 view .LVU740
	bl	qspi_send_cmd
.LVL106:
	.loc 1 1186 7 view .LVU741
	cmp	r0, #0
	.loc 1 1190 1 view .LVU742
	it	ne
	mvnne	r0, #4
	add	sp, sp, #20
	.cfi_def_cfa_offset 4
	@ sp needed
	ldr	pc, [sp], #4
	.cfi_endproc
.LFE1087:
	.size	qspi_nor_write_protection_set, .-qspi_nor_write_protection_set
	.section	.text.exit_dpd,"ax",%progbits
	.align	1
	.syntax unified
	.thumb
	.thumb_func
	.type	exit_dpd, %function
exit_dpd:
.LVL107:
.LFB1093:
	.loc 1 1340 1 is_stmt 1 view -0
	.cfi_startproc
	@ args = 0, pretend = 0, frame = 16
	@ frame_needed = 0, uses_anonymous_args = 0
	.loc 1 1341 2 view .LVU744
.LBB921:
	.loc 1 1342 3 view .LVU745
.LBE921:
	.loc 1 1340 1 is_stmt 0 view .LVU746
	push	{r0, r1, r2, r3, r4, lr}
	.cfi_def_cfa_offset 24
	.cfi_offset 4, -8
	.cfi_offset 14, -4
.LBB925:
	.loc 1 1342 19 view .LVU747
	movs	r4, #0
	movs	r3, #171
	.loc 1 1348 9 view .LVU748
	mov	r2, r4
	add	r1, sp, #4
	.loc 1 1342 19 view .LVU749
	strd	r4, r4, [sp, #4]
	str	r4, [sp, #12]
	strb	r3, [sp, #4]
	.loc 1 1345 3 is_stmt 1 view .LVU750
.LVL108:
	.loc 1 1346 3 view .LVU751
	.loc 1 1348 3 view .LVU752
	.loc 1 1348 9 is_stmt 0 view .LVU753
	bl	qspi_send_cmd
.LVL109:
	.loc 1 1349 3 is_stmt 1 view .LVU754
	.loc 1 1349 6 is_stmt 0 view .LVU755
	cmp	r0, #0
	.loc 1 1349 6 view .LVU756
	blt	.L65
	.loc 1 1353 3 is_stmt 1 view .LVU757
.LBB922:
	.loc 1 1354 4 view .LVU758
.LVL110:
	.loc 1 1357 4 view .LVU759
.LBB923:
.LBI923:
	.loc 2 158 20 view .LVU760
.LBB924:
	.loc 2 167 2 view .LVU761
	.loc 2 167 7 view .LVU762
	.loc 2 167 5 view .LVU763
	.loc 2 168 2 view .LVU764
	movs	r0, #20
.LVL111:
	.loc 2 168 2 is_stmt 0 view .LVU765
	bl	z_impl_k_busy_wait
.LVL112:
	.loc 2 168 2 view .LVU766
.LBE924:
.LBE923:
.LBE922:
.LBE925:
	.loc 1 1361 2 is_stmt 1 view .LVU767
	.loc 1 1361 9 is_stmt 0 view .LVU768
	mov	r0, r4
.LVL113:
.L65:
	.loc 1 1362 1 view .LVU769
	add	sp, sp, #16
	.cfi_def_cfa_offset 8
	@ sp needed
	pop	{r4, pc}
	.cfi_endproc
.LFE1093:
	.size	exit_dpd, .-exit_dpd
	.section	.text.qspi_nor_pm_action,"ax",%progbits
	.align	1
	.syntax unified
	.thumb
	.thumb_func
	.type	qspi_nor_pm_action, %function
qspi_nor_pm_action:
.LVL114:
.LFB1094:
	.loc 1 1367 1 is_stmt 1 view -0
	.cfi_startproc
	@ args = 0, pretend = 0, frame = 16
	@ frame_needed = 0, uses_anonymous_args = 0
	.loc 1 1368 2 view .LVU771
	.loc 1 1367 1 is_stmt 0 view .LVU772
	push	{r0, r1, r2, r3, r4, r5, r6, r7, r8, lr}
	.cfi_def_cfa_offset 40
	.cfi_offset 4, -24
	.cfi_offset 5, -20
	.cfi_offset 6, -16
	.cfi_offset 7, -12
	.cfi_offset 8, -8
	.cfi_offset 14, -4
	.loc 1 1367 1 view .LVU773
	mov	r4, r0
	.loc 1 1368 24 view .LVU774
	ldr	r8, [r0, #16]
.LVL115:
	.loc 1 1369 2 is_stmt 1 view .LVU775
	.loc 1 1369 32 is_stmt 0 view .LVU776
	ldr	r6, [r0, #4]
.LVL116:
	.loc 1 1370 2 is_stmt 1 view .LVU777
	.loc 1 1371 2 view .LVU778
	.loc 1 1373 2 view .LVU779
	.loc 1 1367 1 is_stmt 0 view .LVU780
	mov	r7, r1
	.loc 1 1373 6 view .LVU781
	bl	pm_device_is_busy
.LVL117:
	.loc 1 1373 5 view .LVU782
	mov	r5, r0
	cbz	r0, .L68
.L72:
	.loc 1 1374 10 view .LVU783
	mvn	r0, #15
.L67:
	.loc 1 1437 1 view .LVU784
	add	sp, sp, #16
	.cfi_remember_state
	.cfi_def_cfa_offset 24
	@ sp needed
	pop	{r4, r5, r6, r7, r8, pc}
.LVL118:
.L68:
	.cfi_restore_state
	.loc 1 1377 2 is_stmt 1 view .LVU785
	cbz	r7, .L70
	cmp	r7, #1
	beq	.L71
	mvn	r0, #133
	b	.L67
.L70:
	.loc 1 1381 3 view .LVU786
	.loc 1 1381 9 is_stmt 0 view .LVU787
	mov	r0, r4
	bl	qspi_device_init
.LVL119:
	.loc 1 1382 3 is_stmt 1 view .LVU788
	.loc 1 1382 6 is_stmt 0 view .LVU789
	cmp	r0, #0
	.loc 1 1382 6 view .LVU790
	blt	.L67
	.loc 1 1387 3 is_stmt 1 view .LVU791
	.loc 1 1387 6 is_stmt 0 view .LVU792
	ldrb	r5, [r8, #96]	@ zero_extendqisi2
	cmp	r5, #0
	bne	.L72
	.loc 1 1391 3 is_stmt 1 view .LVU793
	.loc 1 1391 7 is_stmt 0 view .LVU794
	bl	nrfx_qspi_mem_busy_check
.LVL120:
	.loc 1 1391 6 view .LVU795
	ldr	r3, .L75
	cmp	r0, r3
	bne	.L72
	.loc 1 1395 3 is_stmt 1 view .LVU796
.LVL121:
.LBB932:
.LBI932:
	.loc 1 1313 12 view .LVU797
	.loc 1 1315 2 view .LVU798
.LBB933:
	.loc 1 1316 3 view .LVU799
	.loc 1 1316 19 is_stmt 0 view .LVU800
	movs	r3, #185
	.loc 1 1322 9 view .LVU801
	mov	r2, r5
	add	r1, sp, #4
	mov	r0, r4
	.loc 1 1316 19 view .LVU802
	strd	r5, r5, [sp, #4]
	str	r5, [sp, #12]
	strb	r3, [sp, #4]
	.loc 1 1319 3 is_stmt 1 view .LVU803
.LVL122:
	.loc 1 1320 3 view .LVU804
	.loc 1 1322 3 view .LVU805
	.loc 1 1322 9 is_stmt 0 view .LVU806
	bl	qspi_send_cmd
.LVL123:
	.loc 1 1323 3 is_stmt 1 view .LVU807
	.loc 1 1323 6 is_stmt 0 view .LVU808
	cmp	r0, #0
	.loc 1 1323 6 view .LVU809
	blt	.L67
	.loc 1 1327 3 is_stmt 1 view .LVU810
.LBB934:
	.loc 1 1328 4 view .LVU811
.LVL124:
	.loc 1 1331 4 view .LVU812
.LBB935:
.LBI935:
	.loc 2 158 20 view .LVU813
.LBB936:
	.loc 2 167 2 view .LVU814
	.loc 2 167 7 view .LVU815
	.loc 2 167 5 view .LVU816
	.loc 2 168 2 view .LVU817
	movs	r0, #20
.LVL125:
	.loc 2 168 2 is_stmt 0 view .LVU818
	bl	z_impl_k_busy_wait
.LVL126:
	.loc 2 168 2 view .LVU819
.LBE936:
.LBE935:
.LBE934:
.LBE933:
	.loc 1 1335 2 is_stmt 1 view .LVU820
	.loc 1 1335 2 is_stmt 0 view .LVU821
.LBE932:
	.loc 1 1396 3 is_stmt 1 view .LVU822
	.loc 1 1400 3 view .LVU823
	bl	nrfx_qspi_uninit
.LVL127:
	.loc 1 1401 3 view .LVU824
	.loc 1 1401 9 is_stmt 0 view .LVU825
	ldr	r0, [r6, #52]
	movs	r1, #1
	bl	pinctrl_apply_state
.LVL128:
	.loc 1 1403 3 is_stmt 1 view .LVU826
	.loc 1 1403 6 is_stmt 0 view .LVU827
	and	r0, r0, r0, asr #31
.LVL129:
	.loc 1 1403 6 view .LVU828
	b	.L67
.LVL130:
.L71:
	.loc 1 1409 3 is_stmt 1 view .LVU829
	.loc 1 1409 9 is_stmt 0 view .LVU830
	mov	r1, r0
	ldr	r0, [r6, #52]
	bl	pinctrl_apply_state
.LVL131:
	.loc 1 1411 3 is_stmt 1 view .LVU831
	.loc 1 1411 6 is_stmt 0 view .LVU832
	cmp	r0, #0
	.loc 1 1411 6 view .LVU833
	blt	.L67
	.loc 1 1414 3 is_stmt 1 view .LVU834
	.loc 1 1414 9 is_stmt 0 view .LVU835
	ldr	r1, .L75+4
	mov	r2, r8
	mov	r0, r6
.LVL132:
	.loc 1 1414 9 view .LVU836
	bl	nrfx_qspi_init
.LVL133:
	.loc 1 1417 3 is_stmt 1 view .LVU837
	.loc 1 1417 6 is_stmt 0 view .LVU838
	ldr	r3, .L75
	cmp	r0, r3
	bne	.L74
	.loc 1 1421 3 is_stmt 1 view .LVU839
	.loc 1 1421 9 is_stmt 0 view .LVU840
	mov	r0, r4
.LVL134:
	.loc 1 1421 9 view .LVU841
	bl	exit_dpd
.LVL135:
	.loc 1 1422 3 is_stmt 1 view .LVU842
	.loc 1 1422 6 is_stmt 0 view .LVU843
	cmp	r0, #0
	.loc 1 1422 6 view .LVU844
	blt	.L67
	.loc 1 1428 3 is_stmt 1 view .LVU845
	mov	r0, r4
.LVL136:
	.loc 1 1428 3 is_stmt 0 view .LVU846
	bl	qspi_device_uninit
.LVL137:
	.loc 1 1430 3 is_stmt 1 view .LVU847
	.loc 1 1436 9 is_stmt 0 view .LVU848
	mov	r0, r5
	.loc 1 1430 3 view .LVU849
	b	.L67
.LVL138:
.L74:
	.loc 1 1418 11 view .LVU850
	mvn	r0, #4
.LVL139:
	.loc 1 1418 11 view .LVU851
	b	.L67
.L76:
	.align	2
.L75:
	.word	195887104
	.word	qspi_handler
	.cfi_endproc
.LFE1094:
	.size	qspi_nor_pm_action, .-qspi_nor_pm_action
	.section	.text.qspi_rdsr.constprop.0,"ax",%progbits
	.align	1
	.syntax unified
	.thumb
	.thumb_func
	.type	qspi_rdsr.constprop.0, %function
qspi_rdsr.constprop.0:
.LVL140:
.LFB1107:
	.loc 1 510 12 is_stmt 1 view -0
	.cfi_startproc
	@ args = 0, pretend = 0, frame = 24
	@ frame_needed = 0, uses_anonymous_args = 0
	.loc 1 512 2 view .LVU853
	.loc 1 514 2 view .LVU854
	.loc 1 517 2 view .LVU855
	.loc 1 520 2 view .LVU856
	.loc 1 510 12 is_stmt 0 view .LVU857
	push	{r0, r1, r2, r3, r4, r5, r6, lr}
	.cfi_def_cfa_offset 32
	.cfi_offset 14, -4
	.loc 1 520 10 view .LVU858
	movs	r3, #255
	strb	r3, [sp, #3]
	.loc 1 521 2 is_stmt 1 view .LVU859
	.loc 1 521 24 is_stmt 0 view .LVU860
	add	r3, sp, #3
	.loc 1 525 18 view .LVU861
	movs	r2, #0
	.loc 1 521 24 view .LVU862
	str	r3, [sp, #4]
	.loc 1 525 18 view .LVU863
	movs	r3, #1
	strd	r3, r2, [sp, #8]
	movs	r3, #5
	strb	r3, [sp, #12]
	.loc 1 529 12 view .LVU864
	add	r1, sp, #12
	.loc 1 525 18 view .LVU865
	add	r3, sp, #4
	str	r2, [sp, #16]
	str	r3, [sp, #20]
	.loc 1 529 2 is_stmt 1 view .LVU866
	.loc 1 529 12 is_stmt 0 view .LVU867
	bl	qspi_send_cmd
.LVL141:
	.loc 1 531 2 is_stmt 1 view .LVU868
	.loc 1 531 25 is_stmt 0 view .LVU869
	cmp	r0, #0
	.loc 1 531 25 view .LVU870
	it	ge
	ldrbge	r0, [sp, #3]	@ zero_extendqisi2
.LVL142:
	.loc 1 532 1 view .LVU871
	add	sp, sp, #28
	.cfi_def_cfa_offset 4
	@ sp needed
	ldr	pc, [sp], #4
	.cfi_endproc
.LFE1107:
	.size	qspi_rdsr.constprop.0, .-qspi_rdsr.constprop.0
	.section	.rodata.qspi_nor_init.str1.1,"aMS",%progbits,1
.LC2:
	.ascii	"set\000"
.LC3:
	.ascii	"clear\000"
.LC4:
	.ascii	"RDSR failed: %d\000"
.LC5:
	.ascii	"QE %s failed: %d\000"
.LC6:
	.ascii	"JEDEC id [%02x %02x %02x] expect [%02x %02x %02x]\000"
	.section	.text.qspi_nor_init,"ax",%progbits
	.align	1
	.syntax unified
	.thumb
	.thumb_func
	.type	qspi_nor_init, %function
qspi_nor_init:
.LVL143:
.LFB1089:
	.loc 1 1233 1 is_stmt 1 view -0
	.cfi_startproc
	@ args = 0, pretend = 0, frame = 24
	@ frame_needed = 1, uses_anonymous_args = 0
	.loc 1 1234 2 view .LVU873
	.loc 1 1235 2 view .LVU874
	.loc 1 1236 2 view .LVU875
	.loc 1 1233 1 is_stmt 0 view .LVU876
	push	{r4, r5, r6, r7, r8, lr}
	.cfi_def_cfa_offset 24
	.cfi_offset 4, -24
	.cfi_offset 5, -20
	.cfi_offset 6, -16
	.cfi_offset 7, -12
	.cfi_offset 8, -8
	.cfi_offset 14, -4
	sub	sp, sp, #24
	.cfi_def_cfa_offset 48
	.loc 1 1236 42 view .LVU877
	ldr	r3, [r0, #4]
	.loc 1 1233 1 view .LVU878
	add	r7, sp, #0
	.cfi_def_cfa_register 7
	.loc 1 1233 1 view .LVU879
	mov	r5, r0
	.loc 1 1236 12 view .LVU880
	movs	r1, #0
	ldr	r0, [r3, #52]
.LVL144:
	.loc 1 1236 12 view .LVU881
	bl	pinctrl_apply_state
.LVL145:
	.loc 1 1238 2 is_stmt 1 view .LVU882
	.loc 1 1238 5 is_stmt 0 view .LVU883
	subs	r4, r0, #0
	blt	.L79
.LVL146:
.LBB1010:
.LBI1010:
	.loc 1 1232 12 is_stmt 1 view .LVU884
.LBB1011:
.LBB1012:
	.loc 1 1242 4 view .LVU885
	.loc 1 1242 101 view .LVU886
	.loc 1 1242 278 view .LVU887
	.loc 1 1242 169 view .LVU888
	movs	r2, #0
	movs	r1, #1
	movs	r0, #41
.LVL147:
	.loc 1 1242 169 is_stmt 0 view .LVU889
	bl	z_arm_irq_priority_set
.LVL148:
.LBE1012:
	.loc 1 1243 42 is_stmt 1 view .LVU890
	.loc 1 1245 2 view .LVU891
.LBB1013:
.LBI1013:
	.loc 1 1199 12 view .LVU892
.LBB1014:
	.loc 1 1201 2 view .LVU893
.LBB1015:
.LBI1015:
	.loc 1 694 12 view .LVU894
.LBB1016:
	.loc 1 696 2 view .LVU895
	.loc 1 697 2 view .LVU896
	.loc 1 697 32 is_stmt 0 view .LVU897
	ldr	r6, [r5, #4]
.LVL149:
	.loc 1 708 2 is_stmt 1 view .LVU898
	.loc 1 708 19 is_stmt 0 view .LVU899
	ldr	r2, [r5, #16]
	ldr	r1, .L102
	mov	r0, r6
	bl	nrfx_qspi_init
.LVL150:
	.loc 1 717 2 is_stmt 1 view .LVU900
	.loc 1 717 12 is_stmt 0 view .LVU901
	bl	qspi_get_zephyr_ret_code
.LVL151:
	.loc 1 718 2 is_stmt 1 view .LVU902
	.loc 1 718 5 is_stmt 0 view .LVU903
	subs	r4, r0, #0
.LVL152:
	.loc 1 718 5 view .LVU904
	blt	.L79
	.loc 1 739 2 is_stmt 1 view .LVU905
	.loc 1 739 8 is_stmt 0 view .LVU906
	mov	r0, r5
.LVL153:
	.loc 1 739 8 view .LVU907
	bl	exit_dpd
.LVL154:
	.loc 1 740 2 is_stmt 1 view .LVU908
	.loc 1 740 5 is_stmt 0 view .LVU909
	subs	r4, r0, #0
	blt	.L79
	.loc 1 752 3 is_stmt 1 view .LVU910
.LVL155:
	.loc 1 754 2 view .LVU911
	.loc 1 754 63 is_stmt 0 view .LVU912
	ldrb	r3, [r6, #29]	@ zero_extendqisi2
	.loc 1 756 50 view .LVU913
	subs	r3, r3, #2
	cmp	r3, #1
	bls	.L93
	.loc 1 755 49 view .LVU914
	ldrb	r8, [r6, #28]	@ zero_extendqisi2
	sub	r8, r8, #3
	cmp	r8, #1
	ite	hi
	movhi	r8, #0
	movls	r8, #1
.L81:
.LVL156:
	.loc 1 758 3 is_stmt 1 view .LVU915
	.loc 1 759 3 view .LVU916
	.loc 1 762 3 view .LVU917
	.loc 1 763 3 view .LVU918
	.loc 1 772 3 view .LVU919
	.loc 1 772 9 is_stmt 0 view .LVU920
	mov	r0, r5
.LVL157:
	.loc 1 772 9 view .LVU921
	bl	qspi_rdsr.constprop.0
.LVL158:
	.loc 1 773 3 is_stmt 1 view .LVU922
	.loc 1 773 6 is_stmt 0 view .LVU923
	subs	r4, r0, #0
	bge	.L82
	.loc 1 774 4 is_stmt 1 view .LVU924
.LBB1017:
	.loc 1 774 9 view .LVU925
	.loc 1 774 58 view .LVU926
	.loc 1 774 15 view .LVU927
	.loc 1 774 3 view .LVU928
.LVL159:
	.loc 1 774 42 view .LVU929
	.loc 1 774 177 view .LVU930
	.loc 1 774 188 view .LVU931
	.loc 1 774 276 view .LVU932
.LBB1018:
	.loc 1 774 4 view .LVU933
	.loc 1 774 6 view .LVU934
	.loc 1 774 4 view .LVU935
.LBB1019:
	.loc 1 774 9 view .LVU936
	.loc 1 774 3 view .LVU937
	.loc 1 774 13 view .LVU938
	.loc 1 774 103 view .LVU939
	.loc 1 774 105 view .LVU940
.LBB1020:
	.loc 1 774 108 is_stmt 0 view .LVU941
	mov	r5, sp
.LVL160:
	.loc 1 774 110 is_stmt 1 view .LVU942
	.loc 1 774 121 view .LVU943
	.loc 1 774 210 view .LVU944
	.loc 1 774 27 view .LVU945
	.loc 1 774 30 view .LVU946
	.loc 1 774 4 view .LVU947
	.loc 1 774 4 view .LVU948
	.loc 1 774 71 view .LVU949
	.loc 1 774 83 is_stmt 0 view .LVU950
	sub	sp, sp, #32
	mov	r2, sp
.LVL161:
	.loc 1 774 75 is_stmt 1 view .LVU951
	.loc 1 774 485 view .LVU952
	.loc 1 774 6 view .LVU953
	.loc 1 774 8 view .LVU954
	.loc 1 774 13 view .LVU955
	.loc 1 774 11 view .LVU956
	.loc 1 774 6 view .LVU957
	.loc 1 774 24 view .LVU958
.LBB1021:
	.loc 1 774 4 view .LVU959
	.loc 1 774 369 view .LVU960
	.loc 1 774 76 view .LVU961
.LVL162:
	.loc 1 774 3 view .LVU962
	.loc 1 774 3 view .LVU963
	.loc 1 774 3 view .LVU964
	.loc 1 774 39 view .LVU965
	.loc 1 774 68 view .LVU966
	.loc 1 774 94 view .LVU967
	.loc 1 774 120 view .LVU968
	.loc 1 774 587 view .LVU969
	.loc 1 774 649 view .LVU970
	.loc 1 774 1170 view .LVU971
	.loc 1 774 1235 view .LVU972
	.loc 1 774 1260 view .LVU973
	.loc 1 774 1261 view .LVU974
	.loc 1 774 1263 view .LVU975
	.loc 1 774 1293 view .LVU976
	.loc 1 774 1323 view .LVU977
	.loc 1 774 1355 view .LVU978
	.loc 1 774 1387 view .LVU979
	.loc 1 774 1419 view .LVU980
	.loc 1 774 1616 view .LVU981
	.loc 1 774 1640 view .LVU982
	.loc 1 774 1641 view .LVU983
	.loc 1 774 1643 view .LVU984
	.loc 1 774 1672 view .LVU985
	.loc 1 774 1701 view .LVU986
	.loc 1 774 1732 view .LVU987
	.loc 1 774 1763 view .LVU988
	.loc 1 774 1794 view .LVU989
	.loc 1 774 2001 view .LVU990
.LBB1022:
	.loc 1 774 3010 view .LVU991
	.loc 1 774 3015 view .LVU992
	.loc 1 774 3543 view .LVU993
	.loc 1 774 0 is_stmt 0 view .LVU994
	ldr	r3, .L102+4
.LBE1022:
.LBB1023:
	.loc 1 774 3812 view .LVU995
	strd	r3, r4, [r2, #20]
	.loc 1 774 2767 is_stmt 1 view .LVU996
	.loc 1 774 8 view .LVU997
.LVL163:
	.loc 1 774 31 view .LVU998
	.loc 1 774 31 is_stmt 0 view .LVU999
.LBE1023:
	.loc 1 774 10 is_stmt 1 view .LVU1000
	.loc 1 774 6 view .LVU1001
	.loc 1 774 29 view .LVU1002
	.loc 1 774 53 view .LVU1003
	.loc 1 774 81 view .LVU1004
	.loc 1 774 257 view .LVU1005
	.loc 1 774 17 view .LVU1006
.LBB1024:
	.loc 1 774 7 view .LVU1007
	.loc 1 774 165 view .LVU1008
	.loc 1 774 167 view .LVU1009
	.loc 1 774 177 is_stmt 0 view .LVU1010
	movs	r3, #3
	str	r3, [r2, #16]!
.LVL164:
	.loc 1 774 177 view .LVU1011
.LBE1024:
.LBE1021:
	.loc 1 774 27 is_stmt 1 view .LVU1012
	.loc 1 774 8 view .LVU1013
	.loc 1 774 148 view .LVU1014
	.loc 1 774 150 view .LVU1015
	mov	r1, #6208
.LVL165:
.L101:
	.loc 1 774 150 is_stmt 0 view .LVU1016
.LBE1020:
.LBE1019:
.LBE1018:
.LBE1017:
.LBB1025:
.LBB1026:
.LBB1027:
.LBB1028:
	.loc 1 791 150 view .LVU1017
	ldr	r0, .L102+8
	bl	z_log_msg_static_create.constprop.0
.LVL166:
	mov	sp, r5
.LBE1028:
	.loc 1 791 108 is_stmt 1 view .LVU1018
	.loc 1 791 6 view .LVU1019
.LVL167:
	.loc 1 791 43 view .LVU1020
.LBE1027:
	.loc 1 791 7 view .LVU1021
.LBE1026:
	.loc 1 791 279 view .LVU1022
	.loc 1 791 6 view .LVU1023
	.loc 1 791 19 view .LVU1024
.LBE1025:
	.loc 1 791 7 view .LVU1025
	.loc 1 793 4 view .LVU1026
	.loc 1 793 4 is_stmt 0 view .LVU1027
.LBE1016:
.LBE1015:
	.loc 1 1203 2 is_stmt 1 view .LVU1028
.L79:
	.loc 1 1203 2 is_stmt 0 view .LVU1029
.LBE1014:
.LBE1013:
.LBE1011:
.LBE1010:
	.loc 1 1257 1 view .LVU1030
	mov	r0, r4
	adds	r7, r7, #24
	.cfi_remember_state
	.cfi_def_cfa_offset 24
	mov	sp, r7
	.cfi_def_cfa_register 13
	@ sp needed
	pop	{r4, r5, r6, r7, r8, pc}
.LVL168:
.L93:
	.cfi_restore_state
.LBB1092:
.LBB1091:
.LBB1090:
.LBB1089:
.LBB1060:
.LBB1058:
	.loc 1 756 50 view .LVU1031
	mov	r8, #1
	b	.L81
.LVL169:
.L82:
	.loc 1 778 3 is_stmt 1 view .LVU1032
	.loc 1 778 11 is_stmt 0 view .LVU1033
	uxtb	r2, r4
.LVL170:
	.loc 1 779 2 is_stmt 1 view .LVU1034
	.loc 1 781 3 view .LVU1035
.LBB1047:
	.loc 1 781 8 view .LVU1036
.LBE1047:
	.loc 1 781 6 view .LVU1037
	.loc 1 784 3 view .LVU1038
	.loc 1 785 3 view .LVU1039
	.loc 1 785 6 is_stmt 0 view .LVU1040
	ubfx	r4, r4, #6, #1
	cmp	r8, r4
	add	r6, r7, #4
.LVL171:
	.loc 1 785 6 view .LVU1041
	beq	.L83
	.loc 1 786 4 is_stmt 1 view .LVU1042
.LVL172:
	.loc 1 787 4 view .LVU1043
.LBB1048:
.LBI1048:
	.loc 1 547 12 view .LVU1044
.LBB1049:
	.loc 1 549 2 view .LVU1045
	.loc 1 550 2 view .LVU1046
	.loc 1 551 2 view .LVU1047
	.loc 1 552 2 view .LVU1048
	.loc 1 552 10 is_stmt 0 view .LVU1049
	movs	r3, #0
.LBE1049:
.LBE1048:
	.loc 1 786 7 view .LVU1050
	eor	r2, r2, #64
.LVL173:
.LBB1054:
.LBB1052:
	.loc 1 552 10 view .LVU1051
	strh	r3, [r7]	@ movhi
	.loc 1 554 2 is_stmt 1 view .LVU1052
	.loc 1 558 2 view .LVU1053
	.loc 1 559 3 view .LVU1054
	.loc 1 559 15 is_stmt 0 view .LVU1055
	strb	r2, [r7]
	.loc 1 594 2 is_stmt 1 view .LVU1056
	.loc 1 594 24 is_stmt 0 view .LVU1057
	movs	r2, #1
.LVL174:
	.loc 1 598 18 view .LVU1058
	strd	r2, r3, [r7, #8]
	.loc 1 594 24 view .LVU1059
	str	r7, [r7, #4]
	.loc 1 598 18 view .LVU1060
	str	r3, [r7, #20]
	strb	r2, [r7, #12]
	str	r6, [r7, #16]
	.loc 1 603 2 is_stmt 1 view .LVU1061
	.loc 1 603 8 is_stmt 0 view .LVU1062
	add	r1, r7, #12
	mov	r0, r5
	bl	qspi_send_cmd
.LVL175:
	.loc 1 609 2 is_stmt 1 view .LVU1063
	.loc 1 609 5 is_stmt 0 view .LVU1064
	subs	r4, r0, #0
	beq	.L84
.LVL176:
	.loc 1 609 5 view .LVU1065
.LBE1052:
.LBE1054:
	.loc 1 790 3 is_stmt 1 view .LVU1066
	.loc 1 790 6 is_stmt 0 view .LVU1067
	bge	.L79
.LVL177:
.L85:
	.loc 1 791 4 is_stmt 1 view .LVU1068
.LBB1055:
	.loc 1 791 9 view .LVU1069
	.loc 1 791 58 view .LVU1070
	.loc 1 791 15 view .LVU1071
	.loc 1 791 3 view .LVU1072
	.loc 1 791 42 view .LVU1073
	.loc 1 791 177 view .LVU1074
	.loc 1 791 188 view .LVU1075
	.loc 1 791 276 view .LVU1076
.LBB1045:
	.loc 1 791 4 view .LVU1077
	.loc 1 791 6 view .LVU1078
	.loc 1 791 42 is_stmt 0 view .LVU1079
	ldr	r2, .L102+12
	ldr	r3, .L102+16
.LBB1042:
.LBB1039:
	.loc 1 791 108 view .LVU1080
	mov	r5, sp
.LVL178:
	.loc 1 791 83 view .LVU1081
	sub	sp, sp, #40
.LBE1039:
.LBE1042:
	.loc 1 791 42 view .LVU1082
	cmp	r8, #0
	it	ne
	movne	r3, r2
.LVL179:
	.loc 1 791 59 is_stmt 1 view .LVU1083
	.loc 1 791 4 view .LVU1084
.LBB1043:
	.loc 1 791 9 view .LVU1085
	.loc 1 791 3 view .LVU1086
	.loc 1 791 13 view .LVU1087
	.loc 1 791 103 view .LVU1088
	.loc 1 791 105 view .LVU1089
.LBB1040:
	.loc 1 791 110 view .LVU1090
	.loc 1 791 121 view .LVU1091
	.loc 1 791 210 view .LVU1092
	.loc 1 791 27 view .LVU1093
	.loc 1 791 30 view .LVU1094
	.loc 1 791 4 view .LVU1095
	.loc 1 791 4 view .LVU1096
	.loc 1 791 71 view .LVU1097
	.loc 1 791 83 is_stmt 0 view .LVU1098
	mov	r2, sp
.LVL180:
	.loc 1 791 75 is_stmt 1 view .LVU1099
	.loc 1 791 485 view .LVU1100
	.loc 1 791 6 view .LVU1101
	.loc 1 791 8 view .LVU1102
	.loc 1 791 13 view .LVU1103
	.loc 1 791 11 view .LVU1104
	.loc 1 791 6 view .LVU1105
	.loc 1 791 24 view .LVU1106
.LBB1029:
	.loc 1 791 4 view .LVU1107
	.loc 1 791 369 view .LVU1108
	.loc 1 791 76 view .LVU1109
.LVL181:
	.loc 1 791 3 view .LVU1110
	.loc 1 791 3 view .LVU1111
	.loc 1 791 3 view .LVU1112
	.loc 1 791 39 view .LVU1113
	.loc 1 791 68 view .LVU1114
	.loc 1 791 94 view .LVU1115
	.loc 1 791 120 view .LVU1116
	.loc 1 791 1033 view .LVU1117
	.loc 1 791 1095 view .LVU1118
	.loc 1 791 2082 view .LVU1119
	.loc 1 791 2147 view .LVU1120
	.loc 1 791 2172 view .LVU1121
	.loc 1 791 2173 view .LVU1122
	.loc 1 791 2175 view .LVU1123
	.loc 1 791 2205 view .LVU1124
	.loc 1 791 2235 view .LVU1125
	.loc 1 791 2267 view .LVU1126
	.loc 1 791 2299 view .LVU1127
	.loc 1 791 2331 view .LVU1128
	.loc 1 791 2528 view .LVU1129
	.loc 1 791 2552 view .LVU1130
	.loc 1 791 2553 view .LVU1131
	.loc 1 791 2555 view .LVU1132
	.loc 1 791 2584 view .LVU1133
	.loc 1 791 2613 view .LVU1134
	.loc 1 791 2644 view .LVU1135
	.loc 1 791 2675 view .LVU1136
	.loc 1 791 2706 view .LVU1137
	.loc 1 791 2913 view .LVU1138
.LBB1030:
	.loc 1 791 3019 view .LVU1139
	.loc 1 791 3024 view .LVU1140
	.loc 1 791 3558 view .LVU1141
	.loc 1 791 0 is_stmt 0 view .LVU1142
	ldr	r1, .L102+20
.LBE1030:
.LBB1031:
	.loc 1 791 3812 view .LVU1143
	str	r4, [r2, #28]
.LBE1031:
.LBB1032:
	.loc 1 791 3812 view .LVU1144
	strd	r1, r3, [r2, #20]
	.loc 1 791 2767 is_stmt 1 view .LVU1145
	.loc 1 791 8 view .LVU1146
.LVL182:
	.loc 1 791 31 view .LVU1147
	.loc 1 791 31 is_stmt 0 view .LVU1148
.LBE1032:
	.loc 1 791 10 is_stmt 1 view .LVU1149
	.loc 1 791 7 view .LVU1150
.LBB1033:
	.loc 1 791 12 view .LVU1151
	.loc 1 791 237 view .LVU1152
	.loc 1 791 1190 view .LVU1153
	.loc 1 791 1255 view .LVU1154
	.loc 1 791 1422 view .LVU1155
	.loc 1 791 1462 view .LVU1156
	.loc 1 791 2726 view .LVU1157
	.loc 1 791 2764 view .LVU1158
	.loc 1 791 2769 view .LVU1159
	.loc 1 791 3213 view .LVU1160
	.loc 1 791 2767 view .LVU1161
	.loc 1 791 8 view .LVU1162
	.loc 1 791 31 view .LVU1163
	.loc 1 791 31 is_stmt 0 view .LVU1164
.LBE1033:
	.loc 1 791 10 is_stmt 1 view .LVU1165
	.loc 1 791 6 view .LVU1166
	.loc 1 791 29 view .LVU1167
	.loc 1 791 53 view .LVU1168
	.loc 1 791 81 view .LVU1169
.LBB1034:
	.loc 1 791 7 view .LVU1170
	.loc 1 791 46 view .LVU1171
.LBE1034:
.LBE1029:
.LBE1040:
.LBE1043:
.LBE1045:
.LBE1055:
.LBE1058:
	.loc 1 791 51 view .LVU1172
	.loc 1 791 81 view .LVU1173
.LBB1059:
.LBB1056:
.LBB1046:
.LBB1044:
.LBB1041:
.LBB1038:
.LBB1036:
.LBB1035:
	.loc 1 791 183 view .LVU1174
	.loc 1 791 215 view .LVU1175
	.loc 1 791 209 view .LVU1176
	.loc 1 791 183 view .LVU1177
	.loc 1 791 215 view .LVU1178
	.loc 1 791 228 is_stmt 0 view .LVU1179
	mov	r3, #512
.LVL183:
	.loc 1 791 228 view .LVU1180
	strh	r3, [r2, #32]	@ movhi
	.loc 1 791 209 is_stmt 1 view .LVU1181
.LVL184:
	.loc 1 791 183 view .LVU1182
.LBE1035:
.LBE1036:
	.loc 1 791 257 view .LVU1183
	.loc 1 791 17 view .LVU1184
.LBB1037:
	.loc 1 791 7 view .LVU1185
	.loc 1 791 165 view .LVU1186
	.loc 1 791 167 view .LVU1187
	.loc 1 791 177 is_stmt 0 view .LVU1188
	ldr	r3, .L102+24
	str	r3, [r2, #16]!
.LVL185:
	.loc 1 791 177 view .LVU1189
.LBE1037:
.LBE1038:
	.loc 1 791 27 is_stmt 1 view .LVU1190
	.loc 1 791 8 view .LVU1191
	.loc 1 791 148 view .LVU1192
	.loc 1 791 150 view .LVU1193
	mov	r1, #9280
	b	.L101
.LVL186:
.L84:
	.loc 1 791 150 is_stmt 0 view .LVU1194
.LBE1041:
.LBE1044:
.LBE1046:
.LBE1056:
.LBB1057:
.LBB1053:
.LBB1050:
.LBB1051:
	.loc 1 537 2 is_stmt 1 view .LVU1195
	.loc 1 539 2 view .LVU1196
	.loc 1 540 3 view .LVU1197
	.loc 1 540 9 is_stmt 0 view .LVU1198
	mov	r0, r5
	bl	qspi_rdsr.constprop.0
.LVL187:
	.loc 1 542 4 is_stmt 1 view .LVU1199
	subs	r4, r0, #0
	blt	.L85
	lsls	r3, r4, #31
	bmi	.L84
.LVL188:
.L83:
	.loc 1 542 4 is_stmt 0 view .LVU1200
.LBE1051:
.LBE1050:
.LBE1053:
.LBE1057:
.LBE1059:
.LBE1060:
	.loc 1 1215 2 is_stmt 1 view .LVU1201
	mov	r0, r5
	bl	qspi_device_uninit
.LVL189:
	.loc 1 1219 2 view .LVU1202
.LBB1061:
.LBI1061:
	.loc 1 901 19 view .LVU1203
.LBB1062:
	.loc 1 903 2 view .LVU1204
	.loc 1 904 2 view .LVU1205
.LBB1063:
.LBI1063:
	.loc 1 817 12 view .LVU1206
.LBB1064:
	.loc 1 820 2 view .LVU1207
	.loc 1 824 24 is_stmt 0 view .LVU1208
	mov	r8, #3
	movs	r3, #0
	strd	r8, r3, [r7, #8]
	str	r3, [r7, #16]
	movs	r3, #159
	.loc 1 820 24 view .LVU1209
	str	r7, [r7, #4]
.LVL190:
	.loc 1 824 24 view .LVU1210
	strb	r3, [r7, #12]
	str	r6, [r7, #20]
	.loc 1 829 2 is_stmt 1 view .LVU1211
	.loc 1 829 12 is_stmt 0 view .LVU1212
	mov	r0, r5
	bl	qspi_device_init
.LVL191:
	.loc 1 831 2 is_stmt 1 view .LVU1213
	.loc 1 831 5 is_stmt 0 view .LVU1214
	mov	r2, r0
	cbz	r0, .L89
	.loc 1 834 2 is_stmt 1 view .LVU1215
	mov	r0, r5
.LVL192:
	.loc 1 834 2 is_stmt 0 view .LVU1216
	bl	qspi_device_uninit
.LVL193:
	.loc 1 836 2 is_stmt 1 view .LVU1217
	.loc 1 836 2 is_stmt 0 view .LVU1218
.LBE1064:
.LBE1063:
	.loc 1 906 2 is_stmt 1 view .LVU1219
.L92:
	.loc 1 906 2 is_stmt 0 view .LVU1220
.LBE1062:
.LBE1061:
	.loc 1 1220 10 view .LVU1221
	mvn	r4, #18
	b	.L79
.LVL194:
.L89:
.LBB1088:
.LBB1087:
.LBB1066:
.LBB1065:
	.loc 1 832 3 is_stmt 1 view .LVU1222
	.loc 1 832 9 is_stmt 0 view .LVU1223
	add	r1, r7, #12
	mov	r0, r5
.LVL195:
	.loc 1 832 9 view .LVU1224
	bl	qspi_send_cmd
.LVL196:
	.loc 1 832 9 view .LVU1225
	mov	r4, r0
.LVL197:
	.loc 1 834 2 is_stmt 1 view .LVU1226
	mov	r0, r5
.LVL198:
	.loc 1 834 2 is_stmt 0 view .LVU1227
	bl	qspi_device_uninit
.LVL199:
	.loc 1 836 2 is_stmt 1 view .LVU1228
	.loc 1 836 2 is_stmt 0 view .LVU1229
.LBE1065:
.LBE1066:
	.loc 1 906 2 is_stmt 1 view .LVU1230
	.loc 1 906 5 is_stmt 0 view .LVU1231
	cmp	r4, #0
	bne	.L92
	.loc 1 910 2 is_stmt 1 view .LVU1232
	.loc 1 910 32 is_stmt 0 view .LVU1233
	ldr	r5, [r5, #4]
.LVL200:
	.loc 1 912 2 is_stmt 1 view .LVU1234
	.loc 1 912 6 is_stmt 0 view .LVU1235
	mov	r2, r8
	mov	r1, r7
	add	r0, r5, #48
	bl	memcmp
.LVL201:
	.loc 1 912 5 view .LVU1236
	mov	r4, r0
.LVL202:
	.loc 1 912 5 view .LVU1237
	cmp	r0, #0
	beq	.L79
	.loc 1 913 3 is_stmt 1 view .LVU1238
.LBB1067:
	.loc 1 913 8 view .LVU1239
	.loc 1 913 57 view .LVU1240
	.loc 1 913 14 view .LVU1241
	.loc 1 913 2 view .LVU1242
.LVL203:
	.loc 1 913 41 view .LVU1243
	.loc 1 913 176 view .LVU1244
	.loc 1 913 187 view .LVU1245
	.loc 1 913 275 view .LVU1246
.LBB1068:
	.loc 1 913 3 view .LVU1247
	.loc 1 913 5 view .LVU1248
.LBB1069:
.LBB1070:
	.loc 1 913 107 is_stmt 0 view .LVU1249
	mov	r4, sp
	.loc 1 913 82 view .LVU1250
	sub	sp, sp, #48
.LBE1070:
.LBE1069:
	.loc 1 913 17 view .LVU1251
	ldrb	lr, [r7]	@ zero_extendqisi2
.LVL204:
	.loc 1 913 37 is_stmt 1 view .LVU1252
	.loc 1 913 49 is_stmt 0 view .LVU1253
	ldrb	ip, [r7, #1]	@ zero_extendqisi2
.LVL205:
	.loc 1 913 69 is_stmt 1 view .LVU1254
	.loc 1 913 81 is_stmt 0 view .LVU1255
	ldrb	r6, [r7, #2]	@ zero_extendqisi2
.LVL206:
	.loc 1 913 101 is_stmt 1 view .LVU1256
	.loc 1 913 113 is_stmt 0 view .LVU1257
	ldrb	r0, [r5, #48]	@ zero_extendqisi2
.LVL207:
	.loc 1 913 138 is_stmt 1 view .LVU1258
	.loc 1 913 150 is_stmt 0 view .LVU1259
	ldrb	r1, [r5, #49]	@ zero_extendqisi2
.LVL208:
	.loc 1 913 175 is_stmt 1 view .LVU1260
	.loc 1 913 187 is_stmt 0 view .LVU1261
	ldrb	r3, [r5, #50]	@ zero_extendqisi2
.LVL209:
	.loc 1 913 3 is_stmt 1 view .LVU1262
.LBB1086:
	.loc 1 913 8 view .LVU1263
	.loc 1 913 2 view .LVU1264
	.loc 1 913 12 view .LVU1265
	.loc 1 913 102 view .LVU1266
	.loc 1 913 104 view .LVU1267
.LBB1085:
	.loc 1 913 109 view .LVU1268
	.loc 1 913 120 view .LVU1269
	.loc 1 913 209 view .LVU1270
	.loc 1 913 26 view .LVU1271
	.loc 1 913 29 view .LVU1272
	.loc 1 913 3 view .LVU1273
	.loc 1 913 3 view .LVU1274
	.loc 1 913 70 view .LVU1275
	.loc 1 913 82 is_stmt 0 view .LVU1276
	mov	r2, sp
.LVL210:
	.loc 1 913 74 is_stmt 1 view .LVU1277
	.loc 1 913 484 view .LVU1278
	.loc 1 913 5 view .LVU1279
	.loc 1 913 7 view .LVU1280
	.loc 1 913 12 view .LVU1281
	.loc 1 913 10 view .LVU1282
	.loc 1 913 5 view .LVU1283
	.loc 1 913 23 view .LVU1284
.LBB1071:
	.loc 1 913 3 view .LVU1285
	.loc 1 913 368 view .LVU1286
	.loc 1 913 75 view .LVU1287
.LVL211:
	.loc 1 913 2 view .LVU1288
	.loc 1 913 2 view .LVU1289
	.loc 1 913 2 view .LVU1290
	.loc 1 913 38 view .LVU1291
	.loc 1 913 67 view .LVU1292
	.loc 1 913 93 view .LVU1293
	.loc 1 913 119 view .LVU1294
	.loc 1 913 2816 view .LVU1295
	.loc 1 913 2878 view .LVU1296
	.loc 1 913 0 view .LVU1297
	.loc 1 913 0 view .LVU1298
	.loc 1 913 0 view .LVU1299
	.loc 1 913 0 view .LVU1300
	.loc 1 913 0 view .LVU1301
	.loc 1 913 0 view .LVU1302
	.loc 1 913 0 view .LVU1303
	.loc 1 913 0 view .LVU1304
	.loc 1 913 0 view .LVU1305
	.loc 1 913 0 view .LVU1306
	.loc 1 913 0 view .LVU1307
	.loc 1 913 0 view .LVU1308
	.loc 1 913 0 view .LVU1309
	.loc 1 913 0 view .LVU1310
	.loc 1 913 0 view .LVU1311
	.loc 1 913 0 view .LVU1312
	.loc 1 913 0 view .LVU1313
	.loc 1 913 0 view .LVU1314
	.loc 1 913 0 view .LVU1315
	.loc 1 913 0 view .LVU1316
.LBB1072:
	.loc 1 913 3315 view .LVU1317
	.loc 1 913 3320 view .LVU1318
	.loc 1 913 4052 view .LVU1319
	.loc 1 913 0 is_stmt 0 view .LVU1320
	ldr	r5, .L102+28
.LVL212:
	.loc 1 913 0 view .LVU1321
.LBE1072:
.LBB1073:
	.loc 1 913 3811 view .LVU1322
	str	r3, [r2, #44]
.LBE1073:
.LBB1074:
	.loc 1 913 176 view .LVU1323
	movs	r3, #8
.LVL213:
	.loc 1 913 176 view .LVU1324
.LBE1074:
.LBB1075:
	.loc 1 913 3811 view .LVU1325
	strd	r0, r1, [r2, #36]
.LBE1075:
.LBB1076:
	.loc 1 913 3811 view .LVU1326
	strd	r5, lr, [r2, #20]
	.loc 1 913 2766 is_stmt 1 view .LVU1327
	.loc 1 913 7 view .LVU1328
.LVL214:
	.loc 1 913 30 view .LVU1329
	.loc 1 913 30 is_stmt 0 view .LVU1330
.LBE1076:
	.loc 1 913 9 is_stmt 1 view .LVU1331
	.loc 1 913 6 view .LVU1332
.LBB1077:
	.loc 1 913 11 view .LVU1333
	.loc 1 913 236 view .LVU1334
	.loc 1 913 1189 view .LVU1335
	.loc 1 913 1254 view .LVU1336
	.loc 1 913 1421 view .LVU1337
	.loc 1 913 1461 view .LVU1338
	.loc 1 913 2725 view .LVU1339
	.loc 1 913 2763 view .LVU1340
	.loc 1 913 2768 view .LVU1341
	.loc 1 913 3212 view .LVU1342
.LBE1077:
.LBB1078:
	.loc 1 913 3811 is_stmt 0 view .LVU1343
	strd	ip, r6, [r2, #28]
	.loc 1 913 2766 is_stmt 1 view .LVU1344
	.loc 1 913 7 view .LVU1345
.LVL215:
	.loc 1 913 30 view .LVU1346
	.loc 1 913 30 is_stmt 0 view .LVU1347
.LBE1078:
	.loc 1 913 9 is_stmt 1 view .LVU1348
	.loc 1 913 6 view .LVU1349
.LBB1079:
	.loc 1 913 11 view .LVU1350
	.loc 1 913 236 view .LVU1351
	.loc 1 913 1189 view .LVU1352
	.loc 1 913 1254 view .LVU1353
	.loc 1 913 1421 view .LVU1354
	.loc 1 913 1461 view .LVU1355
	.loc 1 913 2725 view .LVU1356
	.loc 1 913 2763 view .LVU1357
	.loc 1 913 2768 view .LVU1358
	.loc 1 913 3212 view .LVU1359
.LBE1079:
.LBB1080:
	.loc 1 913 2766 view .LVU1360
	.loc 1 913 7 view .LVU1361
	.loc 1 913 30 view .LVU1362
	.loc 1 913 30 is_stmt 0 view .LVU1363
.LBE1080:
	.loc 1 913 9 is_stmt 1 view .LVU1364
	.loc 1 913 6 view .LVU1365
.LBB1081:
	.loc 1 913 11 view .LVU1366
	.loc 1 913 236 view .LVU1367
	.loc 1 913 1189 view .LVU1368
	.loc 1 913 1254 view .LVU1369
	.loc 1 913 1421 view .LVU1370
	.loc 1 913 1461 view .LVU1371
	.loc 1 913 2725 view .LVU1372
	.loc 1 913 2763 view .LVU1373
	.loc 1 913 2768 view .LVU1374
	.loc 1 913 3212 view .LVU1375
	.loc 1 913 2766 view .LVU1376
	.loc 1 913 7 view .LVU1377
	.loc 1 913 30 view .LVU1378
	.loc 1 913 30 is_stmt 0 view .LVU1379
.LBE1081:
	.loc 1 913 9 is_stmt 1 view .LVU1380
	.loc 1 913 5 view .LVU1381
	.loc 1 913 28 view .LVU1382
	.loc 1 913 52 view .LVU1383
	.loc 1 913 80 view .LVU1384
	.loc 1 913 256 view .LVU1385
	.loc 1 913 16 view .LVU1386
.LBB1082:
	.loc 1 913 6 view .LVU1387
	.loc 1 913 164 view .LVU1388
	.loc 1 913 166 view .LVU1389
.LBE1082:
.LBE1071:
	.loc 1 913 149 is_stmt 0 view .LVU1390
	ldr	r0, .L102+8
.LVL216:
.LBB1084:
.LBB1083:
	.loc 1 913 176 view .LVU1391
	str	r3, [r2, #16]!
.LVL217:
	.loc 1 913 176 view .LVU1392
.LBE1083:
.LBE1084:
	.loc 1 913 26 is_stmt 1 view .LVU1393
	.loc 1 913 7 view .LVU1394
	.loc 1 913 147 view .LVU1395
	.loc 1 913 149 view .LVU1396
	movw	r1, #16448
.LVL218:
	.loc 1 913 149 is_stmt 0 view .LVU1397
	bl	z_log_msg_static_create.constprop.0
.LVL219:
	.loc 1 913 149 view .LVU1398
	mov	sp, r4
.LVL220:
	.loc 1 913 149 view .LVU1399
.LBE1085:
	.loc 1 913 107 is_stmt 1 view .LVU1400
	.loc 1 913 5 view .LVU1401
	.loc 1 913 42 view .LVU1402
.LBE1086:
	.loc 1 913 6 view .LVU1403
.LBE1068:
	.loc 1 913 278 view .LVU1404
	.loc 1 913 5 view .LVU1405
	.loc 1 913 18 view .LVU1406
.LBE1067:
	.loc 1 913 6 view .LVU1407
	.loc 1 916 3 view .LVU1408
	.loc 1 916 3 is_stmt 0 view .LVU1409
	b	.L92
.L103:
	.align	2
.L102:
	.word	qspi_handler
	.word	.LC4
	.word	log_const_qspi_nor
	.word	.LC2
	.word	.LC3
	.word	.LC5
	.word	16777220
	.word	.LC6
.LBE1087:
.LBE1088:
.LBE1089:
.LBE1090:
.LBE1091:
.LBE1092:
	.cfi_endproc
.LFE1089:
	.size	qspi_nor_init, .-qspi_nor_init
	.section	.rodata.qspi_nor_erase.str1.1,"aMS",%progbits,1
.LC7:
	.ascii	"unsupported at 0x%lx size %zu\000"
.LC8:
	.ascii	"erase error at 0x%lx size %zu\000"
	.section	.text.qspi_nor_erase,"ax",%progbits
	.align	1
	.syntax unified
	.thumb
	.thumb_func
	.type	qspi_nor_erase, %function
qspi_nor_erase:
.LVL221:
.LFB1086:
	.loc 1 1160 1 is_stmt 1 view -0
	.cfi_startproc
	@ args = 0, pretend = 0, frame = 0
	@ frame_needed = 1, uses_anonymous_args = 0
	.loc 1 1160 1 is_stmt 0 view .LVU1411
	push	{r3, r4, r5, r6, r7, r8, r9, r10, fp, lr}
	.cfi_def_cfa_offset 40
	.cfi_offset 3, -40
	.cfi_offset 4, -36
	.cfi_offset 5, -32
	.cfi_offset 6, -28
	.cfi_offset 7, -24
	.cfi_offset 8, -20
	.cfi_offset 9, -16
	.cfi_offset 10, -12
	.cfi_offset 11, -8
	.cfi_offset 14, -4
	.loc 1 1164 5 view .LVU1412
	subs	r3, r1, #0
	.loc 1 1161 32 view .LVU1413
	ldr	r10, [r0, #4]
	.loc 1 1160 1 view .LVU1414
	add	r7, sp, #0
	.cfi_def_cfa_register 7
	.loc 1 1160 1 view .LVU1415
	mov	r6, r0
	.loc 1 1161 2 is_stmt 1 view .LVU1416
.LVL222:
	.loc 1 1164 2 view .LVU1417
	.loc 1 1160 1 is_stmt 0 view .LVU1418
	mov	r5, r2
	.loc 1 1164 5 view .LVU1419
	blt	.L105
	.loc 1 1165 12 discriminator 1 view .LVU1420
	adds	r1, r3, r2
.LVL223:
	.loc 1 1164 15 discriminator 1 view .LVU1421
	ldr	r2, [r10, #44]
.LVL224:
	.loc 1 1164 15 discriminator 1 view .LVU1422
	cmp	r1, r2
	.loc 1 1165 12 discriminator 1 view .LVU1423
	mov	r9, r3
	.loc 1 1164 15 discriminator 1 view .LVU1424
	bls	.L106
.L105:
	.loc 1 1164 15 discriminator 1 view .LVU1425
	mov	r1, r5
	mov	r0, r3
.LVL225:
	.loc 1 1164 15 discriminator 1 view .LVU1426
	bl	qspi_nor_erase.part.0
.LVL226:
	.loc 1 1164 15 discriminator 1 view .LVU1427
	mov	r4, r0
.LVL227:
.L104:
	.loc 1 1175 1 view .LVU1428
	mov	r0, r4
	mov	sp, r7
	.cfi_remember_state
	.cfi_def_cfa_register 13
	@ sp needed
	pop	{r3, r4, r5, r6, r7, r8, r9, r10, fp, pc}
.LVL228:
.L106:
	.cfi_restore_state
	.loc 1 1172 2 is_stmt 1 view .LVU1429
.LBB1122:
.LBI1122:
	.loc 1 618 12 view .LVU1430
.LBB1123:
	.loc 1 621 2 view .LVU1431
	ubfx	r2, r3, #0, #12
	.loc 1 626 2 view .LVU1432
	.loc 1 626 5 is_stmt 0 view .LVU1433
	cmp	r5, #0
	beq	.L119
	.loc 1 626 27 view .LVU1434
	ubfx	r3, r5, #0, #12
.LVL229:
	.loc 1 626 18 view .LVU1435
	orrs	r3, r3, r2
	bne	.L119
	.loc 1 630 2 is_stmt 1 view .LVU1436
.LVL230:
	.loc 1 631 2 view .LVU1437
	.loc 1 633 2 view .LVU1438
	.loc 1 633 7 is_stmt 0 view .LVU1439
	bl	qspi_device_init
.LVL231:
	.loc 1 634 2 is_stmt 1 view .LVU1440
	.loc 1 634 5 is_stmt 0 view .LVU1441
	mov	r4, r0
	cbnz	r0, .L108
	.loc 1 637 2 is_stmt 1 view .LVU1442
	ldr	r0, [r6, #16]
.LVL232:
	.loc 1 637 2 is_stmt 0 view .LVU1443
	bl	qspi_trans_lock.isra.0
.LVL233:
	.loc 1 638 2 is_stmt 1 view .LVU1444
	.loc 1 638 7 is_stmt 0 view .LVU1445
	mov	r1, r4
	mov	r0, r6
	bl	qspi_nor_write_protection_set
.LVL234:
	.loc 1 639 2 is_stmt 1 view .LVU1446
	.loc 1 639 5 is_stmt 0 view .LVU1447
	mov	r4, r0
	cbnz	r0, .L109
	.loc 1 642 2 is_stmt 1 view .LVU1448
	mov	r0, r6
.LVL235:
	.loc 1 642 2 is_stmt 0 view .LVU1449
	bl	qspi_lock
.LVL236:
	.loc 1 643 2 is_stmt 1 view .LVU1450
	.loc 1 643 14 view .LVU1451
.L116:
.LBB1124:
	.loc 1 644 3 view .LVU1452
	.loc 1 645 3 view .LVU1453
	.loc 1 647 3 view .LVU1454
	.loc 1 647 6 is_stmt 0 view .LVU1455
	ldr	r3, [r10, #44]
	cmp	r3, r5
	bne	.L110
	.loc 1 649 4 is_stmt 1 view .LVU1456
	.loc 1 649 10 is_stmt 0 view .LVU1457
	bl	nrfx_qspi_chip_erase
.LVL237:
	mov	fp, r5
	mov	r8, r0
.LVL238:
	.loc 1 650 4 is_stmt 1 view .LVU1458
.L111:
	.loc 1 667 3 view .LVU1459
	ldr	r0, [r6, #16]
.LVL239:
	.loc 1 667 3 is_stmt 0 view .LVU1460
	mov	r1, r8
	bl	qspi_wait_for_completion.isra.0
.LVL240:
	.loc 1 668 3 is_stmt 1 view .LVU1461
	.loc 1 668 6 is_stmt 0 view .LVU1462
	ldr	r3, .L121
	cmp	r8, r3
	bne	.L115
	.loc 1 669 4 is_stmt 1 view .LVU1463
.LBE1124:
	.loc 1 643 14 is_stmt 0 view .LVU1464
	subs	r5, r5, fp
.LVL241:
.LBB1158:
	.loc 1 669 9 view .LVU1465
	add	r9, r9, fp
.LVL242:
	.loc 1 670 4 is_stmt 1 view .LVU1466
	.loc 1 670 4 is_stmt 0 view .LVU1467
.LBE1158:
	.loc 1 643 14 is_stmt 1 view .LVU1468
	bne	.L116
.LVL243:
.L117:
	.loc 1 677 2 view .LVU1469
	mov	r0, r6
	bl	qspi_unlock
.LVL244:
	.loc 1 679 2 view .LVU1470
	.loc 1 679 12 is_stmt 0 view .LVU1471
	movs	r1, #1
	mov	r0, r6
	bl	qspi_nor_write_protection_set
.LVL245:
	.loc 1 681 2 is_stmt 1 view .LVU1472
	.loc 1 679 12 is_stmt 0 view .LVU1473
	cmp	r4, #0
	it	eq
	moveq	r4, r0
.LVL246:
.L109:
	.loc 1 686 2 is_stmt 1 view .LVU1474
.LBB1159:
.LBI1159:
	.loc 1 305 20 view .LVU1475
.LBB1160:
	.loc 1 308 2 view .LVU1476
	.loc 1 310 2 view .LVU1477
	ldr	r0, [r6, #16]
.LVL247:
.LBB1161:
.LBI1161:
	.loc 2 1110 20 view .LVU1478
.LBB1162:
	.loc 2 1119 2 view .LVU1479
	.loc 2 1119 7 view .LVU1480
	.loc 2 1119 5 view .LVU1481
	.loc 2 1120 2 view .LVU1482
	bl	z_impl_k_sem_give
.LVL248:
.L108:
	.loc 2 1120 2 is_stmt 0 view .LVU1483
.LBE1162:
.LBE1161:
.LBE1160:
.LBE1159:
	.loc 1 689 2 is_stmt 1 view .LVU1484
	mov	r0, r6
	bl	qspi_device_uninit
.LVL249:
	.loc 1 690 2 view .LVU1485
	.loc 1 690 9 is_stmt 0 view .LVU1486
	b	.L104
.LVL250:
.L110:
.LBB1163:
	.loc 1 651 10 is_stmt 1 view .LVU1487
	.loc 1 651 13 is_stmt 0 view .LVU1488
	cmp	r5, #65536
	bcc	.L112
	.loc 1 652 16 view .LVU1489
	uxth	r3, r9
	.loc 1 651 33 view .LVU1490
	cbnz	r3, .L113
	.loc 1 654 4 is_stmt 1 view .LVU1491
	.loc 1 654 10 is_stmt 0 view .LVU1492
	mov	r1, r9
	movs	r0, #1
	bl	nrfx_qspi_erase
.LVL251:
	.loc 1 655 8 view .LVU1493
	mov	fp, #65536
	.loc 1 654 10 view .LVU1494
	mov	r8, r0
.LVL252:
	.loc 1 655 4 is_stmt 1 view .LVU1495
	.loc 1 655 8 is_stmt 0 view .LVU1496
	b	.L111
.LVL253:
.L112:
	.loc 1 656 10 is_stmt 1 view .LVU1497
	.loc 1 656 13 is_stmt 0 view .LVU1498
	cmp	r5, #4096
	bcc	.L114
.L113:
	.loc 1 657 16 view .LVU1499
	ubfx	r0, r9, #0, #12
	.loc 1 656 32 view .LVU1500
	cbnz	r0, .L114
	.loc 1 659 4 is_stmt 1 view .LVU1501
	.loc 1 659 10 is_stmt 0 view .LVU1502
	mov	r1, r9
	bl	nrfx_qspi_erase
.LVL254:
	.loc 1 660 8 view .LVU1503
	mov	fp, #4096
	.loc 1 659 10 view .LVU1504
	mov	r8, r0
.LVL255:
	.loc 1 660 4 is_stmt 1 view .LVU1505
	.loc 1 660 8 is_stmt 0 view .LVU1506
	b	.L111
.LVL256:
.L114:
	.loc 1 663 4 is_stmt 1 view .LVU1507
.LBB1125:
	.loc 1 663 9 view .LVU1508
	.loc 1 663 58 view .LVU1509
	.loc 1 663 15 view .LVU1510
	.loc 1 663 3 view .LVU1511
	.loc 1 663 42 view .LVU1512
	.loc 1 663 177 view .LVU1513
	.loc 1 663 188 view .LVU1514
	.loc 1 663 276 view .LVU1515
.LBB1126:
	.loc 1 663 4 view .LVU1516
	.loc 1 663 6 view .LVU1517
	.loc 1 663 43 view .LVU1518
	.loc 1 663 4 view .LVU1519
.LBB1127:
	.loc 1 663 9 view .LVU1520
	.loc 1 663 3 view .LVU1521
	.loc 1 663 13 view .LVU1522
	.loc 1 663 103 view .LVU1523
	.loc 1 663 105 view .LVU1524
.LBB1128:
	.loc 1 663 108 is_stmt 0 view .LVU1525
	mov	r4, sp
.LVL257:
	.loc 1 663 110 is_stmt 1 view .LVU1526
	.loc 1 663 121 view .LVU1527
	.loc 1 663 210 view .LVU1528
	.loc 1 663 27 view .LVU1529
	.loc 1 663 30 view .LVU1530
	.loc 1 663 4 view .LVU1531
	.loc 1 663 4 view .LVU1532
	.loc 1 663 71 view .LVU1533
	.loc 1 663 83 is_stmt 0 view .LVU1534
	sub	sp, sp, #32
	mov	r2, sp
.LVL258:
	.loc 1 663 75 is_stmt 1 view .LVU1535
	.loc 1 663 485 view .LVU1536
	.loc 1 663 6 view .LVU1537
	.loc 1 663 8 view .LVU1538
	.loc 1 663 13 view .LVU1539
	.loc 1 663 11 view .LVU1540
	.loc 1 663 6 view .LVU1541
	.loc 1 663 24 view .LVU1542
.LBB1129:
	.loc 1 663 4 view .LVU1543
	.loc 1 663 369 view .LVU1544
	.loc 1 663 76 view .LVU1545
.LVL259:
	.loc 1 663 3 view .LVU1546
	.loc 1 663 3 view .LVU1547
	.loc 1 663 3 view .LVU1548
	.loc 1 663 39 view .LVU1549
	.loc 1 663 68 view .LVU1550
	.loc 1 663 94 view .LVU1551
	.loc 1 663 120 view .LVU1552
	.loc 1 663 1033 view .LVU1553
	.loc 1 663 1095 view .LVU1554
	.loc 1 663 2082 view .LVU1555
	.loc 1 663 2147 view .LVU1556
	.loc 1 663 2172 view .LVU1557
	.loc 1 663 2173 view .LVU1558
	.loc 1 663 2175 view .LVU1559
	.loc 1 663 2205 view .LVU1560
	.loc 1 663 2235 view .LVU1561
	.loc 1 663 2267 view .LVU1562
	.loc 1 663 2299 view .LVU1563
	.loc 1 663 2331 view .LVU1564
	.loc 1 663 2528 view .LVU1565
	.loc 1 663 2552 view .LVU1566
	.loc 1 663 2553 view .LVU1567
	.loc 1 663 2555 view .LVU1568
	.loc 1 663 2584 view .LVU1569
	.loc 1 663 2613 view .LVU1570
	.loc 1 663 2644 view .LVU1571
	.loc 1 663 2675 view .LVU1572
	.loc 1 663 2706 view .LVU1573
	.loc 1 663 2913 view .LVU1574
.LBB1130:
	.loc 1 663 3136 view .LVU1575
	.loc 1 663 3141 view .LVU1576
	.loc 1 663 3753 view .LVU1577
	.loc 1 663 0 is_stmt 0 view .LVU1578
	ldr	r3, .L121+4
.LBE1130:
.LBB1131:
	.loc 1 663 3812 view .LVU1579
	str	r5, [r2, #28]
.LBE1131:
.LBB1132:
	.loc 1 663 3812 view .LVU1580
	strd	r3, r9, [r2, #20]
	.loc 1 663 2767 is_stmt 1 view .LVU1581
	.loc 1 663 8 view .LVU1582
.LVL260:
	.loc 1 663 31 view .LVU1583
	.loc 1 663 31 is_stmt 0 view .LVU1584
.LBE1132:
	.loc 1 663 10 is_stmt 1 view .LVU1585
	.loc 1 663 7 view .LVU1586
.LBB1133:
	.loc 1 663 12 view .LVU1587
	.loc 1 663 237 view .LVU1588
	.loc 1 663 1190 view .LVU1589
	.loc 1 663 1255 view .LVU1590
	.loc 1 663 1422 view .LVU1591
	.loc 1 663 1462 view .LVU1592
	.loc 1 663 2726 view .LVU1593
	.loc 1 663 2764 view .LVU1594
	.loc 1 663 2769 view .LVU1595
	.loc 1 663 3213 view .LVU1596
	.loc 1 663 2767 view .LVU1597
	.loc 1 663 8 view .LVU1598
	.loc 1 663 31 view .LVU1599
	.loc 1 663 31 is_stmt 0 view .LVU1600
.LBE1133:
	.loc 1 663 10 is_stmt 1 view .LVU1601
	.loc 1 663 6 view .LVU1602
	.loc 1 663 29 view .LVU1603
	.loc 1 663 53 view .LVU1604
	.loc 1 663 81 view .LVU1605
	.loc 1 663 257 view .LVU1606
	.loc 1 663 17 view .LVU1607
.LBB1134:
	.loc 1 663 7 view .LVU1608
	.loc 1 663 165 view .LVU1609
	.loc 1 663 167 view .LVU1610
	.loc 1 663 177 is_stmt 0 view .LVU1611
	movs	r3, #4
	str	r3, [r2, #16]!
.LVL261:
	.loc 1 663 177 view .LVU1612
.LBE1134:
.LBE1129:
	.loc 1 663 27 is_stmt 1 view .LVU1613
	.loc 1 663 8 view .LVU1614
	.loc 1 663 148 view .LVU1615
	.loc 1 663 150 view .LVU1616
	ldr	r0, .L121+8
.LBE1128:
.LBE1127:
.LBE1126:
.LBE1125:
	.loc 1 664 8 is_stmt 0 view .LVU1617
	ldr	r8, .L121+12
.LBB1141:
.LBB1139:
.LBB1137:
.LBB1135:
	.loc 1 663 150 view .LVU1618
	mov	r1, #8256
	bl	z_log_msg_static_create.constprop.0
.LVL262:
	.loc 1 663 150 view .LVU1619
.LBE1135:
.LBE1137:
.LBE1139:
.LBE1141:
	.loc 1 667 3 view .LVU1620
	ldr	r1, .L121+12
	ldr	r0, [r6, #16]
.LBB1142:
.LBB1140:
.LBB1138:
.LBB1136:
	mov	sp, r4
.LVL263:
	.loc 1 667 3 view .LVU1621
.LBE1136:
	.loc 1 663 108 is_stmt 1 view .LVU1622
	.loc 1 663 6 view .LVU1623
	.loc 1 663 43 view .LVU1624
.LBE1138:
	.loc 1 663 7 view .LVU1625
.LBE1140:
	.loc 1 663 279 view .LVU1626
	.loc 1 663 6 view .LVU1627
	.loc 1 663 19 view .LVU1628
.LBE1142:
	.loc 1 663 7 view .LVU1629
	.loc 1 664 4 view .LVU1630
	.loc 1 667 3 view .LVU1631
	bl	qspi_wait_for_completion.isra.0
.LVL264:
	.loc 1 668 3 view .LVU1632
.L115:
	.loc 1 672 4 view .LVU1633
.LBB1143:
	.loc 1 672 9 view .LVU1634
	.loc 1 672 58 view .LVU1635
	.loc 1 672 15 view .LVU1636
	.loc 1 672 3 view .LVU1637
	.loc 1 672 42 view .LVU1638
	.loc 1 672 177 view .LVU1639
	.loc 1 672 188 view .LVU1640
	.loc 1 672 276 view .LVU1641
.LBB1144:
	.loc 1 672 4 view .LVU1642
	.loc 1 672 6 view .LVU1643
	.loc 1 672 43 view .LVU1644
	.loc 1 672 4 view .LVU1645
.LBB1145:
	.loc 1 672 9 view .LVU1646
	.loc 1 672 3 view .LVU1647
	.loc 1 672 13 view .LVU1648
	.loc 1 672 103 view .LVU1649
	.loc 1 672 105 view .LVU1650
.LBB1146:
	.loc 1 672 108 is_stmt 0 view .LVU1651
	mov	r4, sp
	.loc 1 672 110 is_stmt 1 view .LVU1652
	.loc 1 672 121 view .LVU1653
.LVL265:
	.loc 1 672 210 view .LVU1654
	.loc 1 672 27 view .LVU1655
	.loc 1 672 30 view .LVU1656
	.loc 1 672 4 view .LVU1657
	.loc 1 672 4 view .LVU1658
	.loc 1 672 71 view .LVU1659
	.loc 1 672 83 is_stmt 0 view .LVU1660
	sub	sp, sp, #32
	mov	r2, sp
.LVL266:
	.loc 1 672 75 is_stmt 1 view .LVU1661
	.loc 1 672 485 view .LVU1662
	.loc 1 672 6 view .LVU1663
	.loc 1 672 8 view .LVU1664
	.loc 1 672 13 view .LVU1665
	.loc 1 672 11 view .LVU1666
	.loc 1 672 6 view .LVU1667
	.loc 1 672 24 view .LVU1668
.LBB1147:
	.loc 1 672 4 view .LVU1669
	.loc 1 672 369 view .LVU1670
	.loc 1 672 76 view .LVU1671
.LVL267:
	.loc 1 672 3 view .LVU1672
	.loc 1 672 3 view .LVU1673
	.loc 1 672 3 view .LVU1674
	.loc 1 672 39 view .LVU1675
	.loc 1 672 68 view .LVU1676
	.loc 1 672 94 view .LVU1677
	.loc 1 672 120 view .LVU1678
	.loc 1 672 1033 view .LVU1679
	.loc 1 672 1095 view .LVU1680
	.loc 1 672 2082 view .LVU1681
	.loc 1 672 2147 view .LVU1682
	.loc 1 672 2172 view .LVU1683
	.loc 1 672 2173 view .LVU1684
	.loc 1 672 2175 view .LVU1685
	.loc 1 672 2205 view .LVU1686
	.loc 1 672 2235 view .LVU1687
	.loc 1 672 2267 view .LVU1688
	.loc 1 672 2299 view .LVU1689
	.loc 1 672 2331 view .LVU1690
	.loc 1 672 2528 view .LVU1691
	.loc 1 672 2552 view .LVU1692
	.loc 1 672 2553 view .LVU1693
	.loc 1 672 2555 view .LVU1694
	.loc 1 672 2584 view .LVU1695
	.loc 1 672 2613 view .LVU1696
	.loc 1 672 2644 view .LVU1697
	.loc 1 672 2675 view .LVU1698
	.loc 1 672 2706 view .LVU1699
	.loc 1 672 2913 view .LVU1700
.LBB1148:
	.loc 1 672 3136 view .LVU1701
	.loc 1 672 3141 view .LVU1702
	.loc 1 672 3753 view .LVU1703
	.loc 1 672 0 is_stmt 0 view .LVU1704
	ldr	r3, .L121+16
.LBE1148:
.LBE1147:
	.loc 1 672 150 view .LVU1705
	ldr	r0, .L121+8
.LBB1153:
.LBB1149:
	.loc 1 672 3812 view .LVU1706
	str	r5, [r2, #28]
.LBE1149:
.LBB1150:
	.loc 1 672 3812 view .LVU1707
	strd	r3, r9, [r2, #20]
	.loc 1 672 2767 is_stmt 1 view .LVU1708
	.loc 1 672 8 view .LVU1709
.LVL268:
	.loc 1 672 31 view .LVU1710
	.loc 1 672 31 is_stmt 0 view .LVU1711
.LBE1150:
	.loc 1 672 10 is_stmt 1 view .LVU1712
	.loc 1 672 7 view .LVU1713
.LBB1151:
	.loc 1 672 12 view .LVU1714
	.loc 1 672 237 view .LVU1715
	.loc 1 672 1190 view .LVU1716
	.loc 1 672 1255 view .LVU1717
	.loc 1 672 1422 view .LVU1718
	.loc 1 672 1462 view .LVU1719
	.loc 1 672 2726 view .LVU1720
	.loc 1 672 2764 view .LVU1721
	.loc 1 672 2769 view .LVU1722
	.loc 1 672 3213 view .LVU1723
	.loc 1 672 2767 view .LVU1724
	.loc 1 672 8 view .LVU1725
	.loc 1 672 31 view .LVU1726
	.loc 1 672 31 is_stmt 0 view .LVU1727
.LBE1151:
	.loc 1 672 10 is_stmt 1 view .LVU1728
	.loc 1 672 6 view .LVU1729
	.loc 1 672 29 view .LVU1730
	.loc 1 672 53 view .LVU1731
	.loc 1 672 81 view .LVU1732
	.loc 1 672 257 view .LVU1733
	.loc 1 672 17 view .LVU1734
.LBB1152:
	.loc 1 672 7 view .LVU1735
	.loc 1 672 165 view .LVU1736
	.loc 1 672 167 view .LVU1737
	.loc 1 672 177 is_stmt 0 view .LVU1738
	movs	r3, #4
	str	r3, [r2, #16]!
.LVL269:
	.loc 1 672 177 view .LVU1739
.LBE1152:
.LBE1153:
	.loc 1 672 27 is_stmt 1 view .LVU1740
	.loc 1 672 8 view .LVU1741
	.loc 1 672 148 view .LVU1742
	.loc 1 672 150 view .LVU1743
	mov	r1, #8256
	bl	z_log_msg_static_create.constprop.0
.LVL270:
	.loc 1 672 150 is_stmt 0 view .LVU1744
.LBE1146:
.LBE1145:
.LBE1144:
.LBE1143:
	.loc 1 673 9 view .LVU1745
	mov	r0, r8
.LBB1157:
.LBB1156:
.LBB1155:
.LBB1154:
	mov	sp, r4
.LVL271:
	.loc 1 673 9 view .LVU1746
.LBE1154:
	.loc 1 672 108 is_stmt 1 view .LVU1747
	.loc 1 672 6 view .LVU1748
	.loc 1 672 43 view .LVU1749
.LBE1155:
	.loc 1 672 7 view .LVU1750
.LBE1156:
	.loc 1 672 279 view .LVU1751
	.loc 1 672 6 view .LVU1752
	.loc 1 672 19 view .LVU1753
.LBE1157:
	.loc 1 672 7 view .LVU1754
	.loc 1 673 4 view .LVU1755
	.loc 1 673 9 is_stmt 0 view .LVU1756
	bl	qspi_get_zephyr_ret_code
.LVL272:
	mov	r4, r0
.LVL273:
	.loc 1 674 4 is_stmt 1 view .LVU1757
	b	.L117
.LVL274:
.L119:
	.loc 1 674 4 is_stmt 0 view .LVU1758
.LBE1163:
	.loc 1 622 10 view .LVU1759
	mvn	r4, #21
.LVL275:
	.loc 1 622 10 view .LVU1760
	b	.L104
.L122:
	.align	2
.L121:
	.word	195887104
	.word	.LC7
	.word	log_const_qspi_nor
	.word	195887108
	.word	.LC8
.LBE1123:
.LBE1122:
	.cfi_endproc
.LFE1086:
	.size	qspi_nor_erase, .-qspi_nor_erase
	.section	.rodata.qspi_nor_write.str1.1,"aMS",%progbits,1
.LC9:
	.ascii	"write error: address or size exceeds expected value"
	.ascii	"s.Addr: 0x%lx size %zu\000"
	.section	.text.qspi_nor_write,"ax",%progbits
	.align	1
	.syntax unified
	.thumb
	.thumb_func
	.type	qspi_nor_write, %function
qspi_nor_write:
.LVL276:
.LFB1085:
	.loc 1 1096 1 is_stmt 1 view -0
	.cfi_startproc
	@ args = 0, pretend = 0, frame = 8
	@ frame_needed = 1, uses_anonymous_args = 0
	.loc 1 1096 1 is_stmt 0 view .LVU1762
	push	{r4, r5, r6, r7, r8, r9, r10, fp, lr}
	.cfi_def_cfa_offset 36
	.cfi_offset 4, -36
	.cfi_offset 5, -32
	.cfi_offset 6, -28
	.cfi_offset 7, -24
	.cfi_offset 8, -20
	.cfi_offset 9, -16
	.cfi_offset 10, -12
	.cfi_offset 11, -8
	.cfi_offset 14, -4
	sub	sp, sp, #12
	.cfi_def_cfa_offset 48
	mov	r5, r0
	.loc 1 1097 2 is_stmt 1 view .LVU1763
	.loc 1 1096 1 is_stmt 0 view .LVU1764
	add	r7, sp, #0
	.cfi_def_cfa_register 7
	.loc 1 1096 1 view .LVU1765
	mov	r8, r1
	mov	r6, r3
	.loc 1 1097 5 view .LVU1766
	mov	r9, r2
	cbz	r2, .L124
	.loc 1 1102 2 is_stmt 1 view .LVU1767
	.loc 1 1102 5 is_stmt 0 view .LVU1768
	cbz	r3, .L124
	.loc 1 1103 6 view .LVU1769
	cmp	r3, #4
	bls	.L125
	.loc 1 1103 21 discriminator 1 view .LVU1770
	lsls	r3, r6, #30
.LVL277:
	.loc 1 1103 21 discriminator 1 view .LVU1771
	bne	.L124
.L125:
	.loc 1 1107 2 is_stmt 1 view .LVU1772
	.loc 1 1107 5 is_stmt 0 view .LVU1773
	tst	r8, #3
	bne	.L124
	.loc 1 1111 2 is_stmt 1 view .LVU1774
	.loc 1 1114 5 is_stmt 0 view .LVU1775
	cmp	r8, #0
	.loc 1 1111 32 view .LVU1776
	ldr	r2, [r5, #4]
.LVL278:
	.loc 1 1114 2 is_stmt 1 view .LVU1777
	.loc 1 1114 5 is_stmt 0 view .LVU1778
	blt	.L126
	.loc 1 1114 15 discriminator 1 view .LVU1779
	ldr	r2, [r2, #44]
.LVL279:
	.loc 1 1115 12 discriminator 1 view .LVU1780
	add	r3, r8, r6
	.loc 1 1114 15 discriminator 1 view .LVU1781
	cmp	r3, r2
	bls	.L127
.L126:
	.loc 1 1116 3 is_stmt 1 view .LVU1782
.LBB1187:
	.loc 1 1116 8 view .LVU1783
	.loc 1 1116 57 view .LVU1784
	.loc 1 1116 14 view .LVU1785
	.loc 1 1116 2 view .LVU1786
.LVL280:
	.loc 1 1116 41 view .LVU1787
	.loc 1 1116 176 view .LVU1788
	.loc 1 1116 187 view .LVU1789
	.loc 1 1116 275 view .LVU1790
.LBB1188:
	.loc 1 1116 3 view .LVU1791
	.loc 1 1116 5 view .LVU1792
	.loc 1 1116 42 view .LVU1793
	.loc 1 1116 3 view .LVU1794
.LBB1189:
	.loc 1 1116 8 view .LVU1795
	.loc 1 1116 2 view .LVU1796
.LBE1189:
.LBE1188:
.LBE1187:
	.loc 1 1116 3 view .LVU1797
	.loc 1 1116 12 view .LVU1798
	.loc 1 1116 107 view .LVU1799
	.loc 1 1116 3 view .LVU1800
.LBB1211:
.LBB1207:
.LBB1203:
	.loc 1 1116 12 view .LVU1801
	.loc 1 1116 102 view .LVU1802
	.loc 1 1116 104 view .LVU1803
.LBB1190:
	.loc 1 1116 107 is_stmt 0 view .LVU1804
	mov	r4, sp
	.loc 1 1116 109 is_stmt 1 view .LVU1805
	.loc 1 1116 120 view .LVU1806
.LVL281:
	.loc 1 1116 209 view .LVU1807
	.loc 1 1116 26 view .LVU1808
.LBE1190:
.LBE1203:
.LBE1207:
.LBE1211:
	.loc 1 1116 3 view .LVU1809
	.loc 1 1116 368 view .LVU1810
	.loc 1 1116 75 view .LVU1811
	.loc 1 1116 2 view .LVU1812
	.loc 1 1116 2 view .LVU1813
	.loc 1 1116 2 view .LVU1814
	.loc 1 1116 38 view .LVU1815
	.loc 1 1116 4 view .LVU1816
	.loc 1 1116 30 view .LVU1817
	.loc 1 1116 56 view .LVU1818
	.loc 1 1116 969 view .LVU1819
	.loc 1 1116 1031 view .LVU1820
	.loc 1 1116 2018 view .LVU1821
	.loc 1 1116 2083 view .LVU1822
	.loc 1 1116 2108 view .LVU1823
	.loc 1 1116 2109 view .LVU1824
	.loc 1 1116 2111 view .LVU1825
	.loc 1 1116 2141 view .LVU1826
	.loc 1 1116 2171 view .LVU1827
	.loc 1 1116 2203 view .LVU1828
	.loc 1 1116 2235 view .LVU1829
	.loc 1 1116 2267 view .LVU1830
	.loc 1 1116 2464 view .LVU1831
	.loc 1 1116 2488 view .LVU1832
	.loc 1 1116 2489 view .LVU1833
	.loc 1 1116 2491 view .LVU1834
	.loc 1 1116 2520 view .LVU1835
	.loc 1 1116 2549 view .LVU1836
	.loc 1 1116 2580 view .LVU1837
	.loc 1 1116 2611 view .LVU1838
	.loc 1 1116 2642 view .LVU1839
	.loc 1 1116 2849 view .LVU1840
	.loc 1 1116 4 view .LVU1841
	.loc 1 1116 22 view .LVU1842
	.loc 1 1116 42 view .LVU1843
	.loc 1 1116 4 view .LVU1844
	.loc 1 1116 42 view .LVU1845
	.loc 1 1116 13 view .LVU1846
	.loc 1 1116 13 view .LVU1847
	.loc 1 1116 61 view .LVU1848
	.loc 1 1116 92 view .LVU1849
	.loc 1 1116 126 view .LVU1850
	.loc 1 1116 131 view .LVU1851
	.loc 1 1116 434 view .LVU1852
	.loc 1 1116 1699 view .LVU1853
	.loc 1 1116 1764 view .LVU1854
	.loc 1 1116 1788 view .LVU1855
	.loc 1 1116 1895 view .LVU1856
	.loc 1 1116 1906 view .LVU1857
	.loc 1 1116 2071 view .LVU1858
	.loc 1 1116 2087 view .LVU1859
	.loc 1 1116 2127 view .LVU1860
	.loc 1 1116 2152 view .LVU1861
	.loc 1 1116 3547 view .LVU1862
	.loc 1 1116 3588 view .LVU1863
	.loc 1 1116 7 view .LVU1864
	.loc 1 1116 30 view .LVU1865
	.loc 1 1116 129 view .LVU1866
	.loc 1 1116 6 view .LVU1867
	.loc 1 1116 11 view .LVU1868
	.loc 1 1116 236 view .LVU1869
	.loc 1 1116 1189 view .LVU1870
	.loc 1 1116 1254 view .LVU1871
	.loc 1 1116 1278 view .LVU1872
	.loc 1 1116 1307 view .LVU1873
	.loc 1 1116 1318 view .LVU1874
	.loc 1 1116 1405 view .LVU1875
	.loc 1 1116 1421 view .LVU1876
	.loc 1 1116 1461 view .LVU1877
	.loc 1 1116 2725 view .LVU1878
	.loc 1 1116 2766 view .LVU1879
	.loc 1 1116 7 view .LVU1880
	.loc 1 1116 30 view .LVU1881
	.loc 1 1116 9 view .LVU1882
	.loc 1 1116 6 view .LVU1883
	.loc 1 1116 11 view .LVU1884
	.loc 1 1116 236 view .LVU1885
	.loc 1 1116 1189 view .LVU1886
	.loc 1 1116 1254 view .LVU1887
	.loc 1 1116 1278 view .LVU1888
	.loc 1 1116 1307 view .LVU1889
	.loc 1 1116 1318 view .LVU1890
	.loc 1 1116 1405 view .LVU1891
	.loc 1 1116 1421 view .LVU1892
	.loc 1 1116 1461 view .LVU1893
	.loc 1 1116 2725 view .LVU1894
	.loc 1 1116 2766 view .LVU1895
	.loc 1 1116 7 view .LVU1896
	.loc 1 1116 30 view .LVU1897
	.loc 1 1116 9 view .LVU1898
	.loc 1 1116 5 view .LVU1899
	.loc 1 1116 28 view .LVU1900
	.loc 1 1116 52 view .LVU1901
	.loc 1 1116 80 view .LVU1902
	.loc 1 1116 256 view .LVU1903
	.loc 1 1116 16 view .LVU1904
.LBB1212:
.LBB1208:
.LBB1204:
.LBB1200:
	.loc 1 1116 29 view .LVU1905
	.loc 1 1116 3 view .LVU1906
	.loc 1 1116 3 view .LVU1907
	.loc 1 1116 70 view .LVU1908
	.loc 1 1116 82 is_stmt 0 view .LVU1909
	sub	sp, sp, #32
	mov	r2, sp
.LVL282:
	.loc 1 1116 74 is_stmt 1 view .LVU1910
	.loc 1 1116 484 view .LVU1911
	.loc 1 1116 5 view .LVU1912
	.loc 1 1116 7 view .LVU1913
	.loc 1 1116 12 view .LVU1914
	.loc 1 1116 10 view .LVU1915
	.loc 1 1116 5 view .LVU1916
	.loc 1 1116 23 view .LVU1917
.LBB1191:
	.loc 1 1116 3 view .LVU1918
	.loc 1 1116 368 view .LVU1919
	.loc 1 1116 75 view .LVU1920
.LVL283:
	.loc 1 1116 2 view .LVU1921
	.loc 1 1116 2 view .LVU1922
	.loc 1 1116 2 view .LVU1923
	.loc 1 1116 38 view .LVU1924
	.loc 1 1116 67 view .LVU1925
	.loc 1 1116 93 view .LVU1926
	.loc 1 1116 119 view .LVU1927
	.loc 1 1116 1032 view .LVU1928
	.loc 1 1116 1094 view .LVU1929
	.loc 1 1116 2081 view .LVU1930
	.loc 1 1116 2146 view .LVU1931
	.loc 1 1116 2171 view .LVU1932
	.loc 1 1116 2172 view .LVU1933
	.loc 1 1116 2174 view .LVU1934
	.loc 1 1116 2204 view .LVU1935
	.loc 1 1116 2234 view .LVU1936
	.loc 1 1116 2266 view .LVU1937
	.loc 1 1116 2298 view .LVU1938
	.loc 1 1116 2330 view .LVU1939
	.loc 1 1116 2527 view .LVU1940
	.loc 1 1116 2551 view .LVU1941
	.loc 1 1116 2552 view .LVU1942
	.loc 1 1116 2554 view .LVU1943
	.loc 1 1116 2583 view .LVU1944
	.loc 1 1116 2612 view .LVU1945
	.loc 1 1116 2643 view .LVU1946
	.loc 1 1116 2674 view .LVU1947
	.loc 1 1116 2705 view .LVU1948
	.loc 1 1116 2912 view .LVU1949
.LBB1192:
	.loc 1 1116 3585 view .LVU1950
	.loc 1 1116 3590 view .LVU1951
	.loc 1 1116 0 view .LVU1952
	ldr	r3, .L146
.LBE1192:
.LBB1193:
	.loc 1 1116 3811 is_stmt 0 view .LVU1953
	str	r6, [r2, #28]
.LBE1193:
.LBB1194:
	.loc 1 1116 3811 view .LVU1954
	strd	r3, r8, [r2, #20]
	.loc 1 1116 2766 is_stmt 1 view .LVU1955
	.loc 1 1116 7 view .LVU1956
.LVL284:
	.loc 1 1116 30 view .LVU1957
	.loc 1 1116 30 is_stmt 0 view .LVU1958
.LBE1194:
	.loc 1 1116 9 is_stmt 1 view .LVU1959
	.loc 1 1116 6 view .LVU1960
.LBB1195:
	.loc 1 1116 11 view .LVU1961
	.loc 1 1116 236 view .LVU1962
	.loc 1 1116 1189 view .LVU1963
	.loc 1 1116 1254 view .LVU1964
.LBE1195:
.LBE1191:
.LBE1200:
.LBE1204:
.LBE1208:
.LBE1212:
	.loc 1 1116 1278 view .LVU1965
	.loc 1 1116 1307 view .LVU1966
	.loc 1 1116 1318 view .LVU1967
	.loc 1 1116 1405 view .LVU1968
.LBB1213:
.LBB1209:
.LBB1205:
.LBB1201:
.LBB1198:
.LBB1196:
	.loc 1 1116 1421 view .LVU1969
	.loc 1 1116 1461 view .LVU1970
	.loc 1 1116 2725 view .LVU1971
	.loc 1 1116 2763 view .LVU1972
	.loc 1 1116 2768 view .LVU1973
	.loc 1 1116 3212 view .LVU1974
	.loc 1 1116 2766 view .LVU1975
	.loc 1 1116 7 view .LVU1976
	.loc 1 1116 30 view .LVU1977
	.loc 1 1116 30 is_stmt 0 view .LVU1978
.LBE1196:
	.loc 1 1116 9 is_stmt 1 view .LVU1979
	.loc 1 1116 5 view .LVU1980
	.loc 1 1116 28 view .LVU1981
	.loc 1 1116 52 view .LVU1982
	.loc 1 1116 80 view .LVU1983
.LBE1198:
.LBE1201:
.LBE1205:
.LBE1209:
.LBE1213:
	.loc 1 1116 6 view .LVU1984
	.loc 1 1116 45 view .LVU1985
	.loc 1 1116 50 view .LVU1986
	.loc 1 1116 80 view .LVU1987
	.loc 1 1116 147 view .LVU1988
	.loc 1 1116 152 view .LVU1989
	.loc 1 1116 182 view .LVU1990
.LBB1214:
.LBB1210:
.LBB1206:
.LBB1202:
.LBB1199:
	.loc 1 1116 256 view .LVU1991
	.loc 1 1116 16 view .LVU1992
.LBB1197:
	.loc 1 1116 6 view .LVU1993
	.loc 1 1116 164 view .LVU1994
	.loc 1 1116 166 view .LVU1995
	.loc 1 1116 176 is_stmt 0 view .LVU1996
	movs	r3, #4
	str	r3, [r2, #16]!
.LVL285:
	.loc 1 1116 176 view .LVU1997
.LBE1197:
.LBE1199:
	.loc 1 1116 26 is_stmt 1 view .LVU1998
	.loc 1 1116 7 view .LVU1999
	.loc 1 1116 147 view .LVU2000
	.loc 1 1116 149 view .LVU2001
	ldr	r0, .L146+4
.LVL286:
	.loc 1 1116 149 is_stmt 0 view .LVU2002
	mov	r1, #8256
.LVL287:
	.loc 1 1116 149 view .LVU2003
	bl	z_log_msg_static_create.constprop.0
.LVL288:
	.loc 1 1116 149 view .LVU2004
	mov	sp, r4
.LVL289:
	.loc 1 1116 149 view .LVU2005
.LBE1202:
	.loc 1 1116 107 is_stmt 1 view .LVU2006
	.loc 1 1116 5 view .LVU2007
	.loc 1 1116 42 view .LVU2008
.LBE1206:
	.loc 1 1116 6 view .LVU2009
.LBE1210:
	.loc 1 1116 278 view .LVU2010
	.loc 1 1116 5 view .LVU2011
	.loc 1 1116 18 view .LVU2012
.LBE1214:
	.loc 1 1116 6 view .LVU2013
	.loc 1 1119 3 view .LVU2014
.L124:
	.loc 1 1098 10 is_stmt 0 view .LVU2015
	mvn	r4, #21
.LVL290:
.L123:
	.loc 1 1157 1 view .LVU2016
	mov	r0, r4
	adds	r7, r7, #12
	.cfi_remember_state
	.cfi_def_cfa_offset 36
	mov	sp, r7
	.cfi_def_cfa_register 13
	@ sp needed
	pop	{r4, r5, r6, r7, r8, r9, r10, fp, pc}
.LVL291:
.L127:
	.cfi_restore_state
	.loc 1 1122 2 is_stmt 1 view .LVU2017
	.loc 1 1124 2 view .LVU2018
	.loc 1 1124 11 is_stmt 0 view .LVU2019
	mov	r0, r5
.LVL292:
	.loc 1 1124 11 view .LVU2020
	bl	qspi_device_init
.LVL293:
	.loc 1 1126 2 is_stmt 1 view .LVU2021
	.loc 1 1126 5 is_stmt 0 view .LVU2022
	mov	r4, r0
	cmp	r0, #0
	bne	.L129
	.loc 1 1130 2 is_stmt 1 view .LVU2023
	ldr	r0, [r5, #16]
.LVL294:
	.loc 1 1130 2 is_stmt 0 view .LVU2024
	bl	qspi_trans_lock.isra.0
.LVL295:
	.loc 1 1131 2 is_stmt 1 view .LVU2025
	.loc 1 1131 8 is_stmt 0 view .LVU2026
	mov	r1, r4
	mov	r0, r5
	bl	qspi_nor_write_protection_set
.LVL296:
	mov	r4, r0
.LVL297:
	.loc 1 1132 2 is_stmt 1 view .LVU2027
	mov	r0, r5
.LVL298:
	.loc 1 1132 2 is_stmt 0 view .LVU2028
	bl	qspi_lock
.LVL299:
	.loc 1 1133 2 is_stmt 1 view .LVU2029
	.loc 1 1133 5 is_stmt 0 view .LVU2030
	cmp	r4, #0
	bne	.L130
	.loc 1 1134 3 is_stmt 1 view .LVU2031
	.loc 1 1134 6 is_stmt 0 view .LVU2032
	cmp	r6, #3
	bhi	.L131
	.loc 1 1135 4 is_stmt 1 view .LVU2033
.LVL300:
.LBB1215:
.LBI1215:
	.loc 1 1036 26 view .LVU2034
.LBB1216:
	.loc 1 1039 2 view .LVU2035
	.loc 1 1040 2 view .LVU2036
	.loc 1 1045 2 view .LVU2037
	.loc 1 1045 8 is_stmt 0 view .LVU2038
	movs	r1, #4
	mov	r2, r8
	adds	r0, r7, r1
	bl	nrfx_qspi_read
.LVL301:
	mov	r4, r0
.LVL302:
	.loc 1 1046 2 is_stmt 1 view .LVU2039
	mov	r1, r0
	ldr	r0, [r5, #16]
.LVL303:
	.loc 1 1046 2 is_stmt 0 view .LVU2040
	bl	qspi_wait_for_completion.isra.0
.LVL304:
	.loc 1 1048 2 is_stmt 1 view .LVU2041
	.loc 1 1048 5 is_stmt 0 view .LVU2042
	ldr	r3, .L146+8
	cmp	r4, r3
	bne	.L130
	.loc 1 1049 2 is_stmt 1 view .LVU2043
	.loc 1 1049 24 is_stmt 0 view .LVU2044
	mov	r2, r6
	mov	r1, r9
	adds	r0, r7, #4
	bl	memcpy
.LVL305:
	.loc 1 1050 3 is_stmt 1 view .LVU2045
	.loc 1 1050 9 is_stmt 0 view .LVU2046
	movs	r1, #4
	mov	r2, r8
	adds	r0, r7, r1
.LVL306:
.L145:
	.loc 1 1050 9 view .LVU2047
.LBE1216:
.LBE1215:
	.loc 1 1140 10 view .LVU2048
	bl	nrfx_qspi_write
.LVL307:
	.loc 1 1140 10 view .LVU2049
	mov	r4, r0
.LVL308:
	.loc 1 1141 4 is_stmt 1 view .LVU2050
	mov	r1, r0
	ldr	r0, [r5, #16]
.LVL309:
	.loc 1 1141 4 is_stmt 0 view .LVU2051
	bl	qspi_wait_for_completion.isra.0
.LVL310:
	.loc 1 1141 4 view .LVU2052
	b	.L130
.L131:
	.loc 1 1136 10 is_stmt 1 view .LVU2053
.LVL311:
.LBB1217:
.LBI1217:
	.file 6 "/home/g/mise-work/zmk-firmware/zmk/modules/hal/nordic/nrfx/drivers/nrfx_common.h"
	.loc 6 654 23 view .LVU2054
.LBB1218:
	.loc 6 656 5 view .LVU2055
	.loc 6 656 35 is_stmt 0 view .LVU2056
	and	r3, r9, #-536870912
.LBE1218:
.LBE1217:
	.loc 1 1136 13 view .LVU2057
	cmp	r3, #536870912
	bne	.L133
.LVL312:
.LBB1219:
.LBI1219:
	.loc 6 659 23 is_stmt 1 view .LVU2058
.LBB1220:
	.loc 6 661 5 view .LVU2059
	.loc 6 661 5 is_stmt 0 view .LVU2060
.LBE1220:
.LBE1219:
	.loc 1 1136 35 view .LVU2061
	tst	r9, #3
	beq	.L134
.L133:
.LBB1221:
.LBB1222:
.LBB1223:
.LBB1224:
	.loc 1 1081 7 view .LVU2062
	ldr	fp, .L146+8
.LVL313:
.L136:
	.loc 1 1075 4 is_stmt 1 view .LVU2063
	.loc 1 1075 11 is_stmt 0 view .LVU2064
	cmp	r6, #4
	mov	r10, r6
	it	cs
	movcs	r10, #4
.LVL314:
	.loc 1 1077 3 is_stmt 1 view .LVU2065
	.loc 1 1077 25 is_stmt 0 view .LVU2066
	mov	r2, r10
	mov	r1, r9
	adds	r0, r7, #4
	bl	memcpy
.LVL315:
	.loc 1 1078 4 is_stmt 1 view .LVU2067
	.loc 1 1078 10 is_stmt 0 view .LVU2068
	mov	r2, r8
	mov	r1, r10
	adds	r0, r7, #4
	bl	nrfx_qspi_write
.LVL316:
	mov	r4, r0
.LVL317:
	.loc 1 1079 4 is_stmt 1 view .LVU2069
	mov	r1, r0
	ldr	r0, [r5, #16]
.LVL318:
	.loc 1 1079 4 is_stmt 0 view .LVU2070
	bl	qspi_wait_for_completion.isra.0
.LVL319:
	.loc 1 1081 4 is_stmt 1 view .LVU2071
	.loc 1 1081 7 is_stmt 0 view .LVU2072
	cmp	r4, fp
	bne	.L130
	.loc 1 1082 5 is_stmt 1 view .LVU2073
.LVL320:
	.loc 1 1083 5 view .LVU2074
.LBE1224:
	.loc 1 1074 21 is_stmt 0 view .LVU2075
	subs	r6, r6, r10
.LVL321:
.LBB1225:
	.loc 1 1083 8 view .LVU2076
	add	r9, r9, r10
.LVL322:
	.loc 1 1084 5 is_stmt 1 view .LVU2077
	.loc 1 1084 10 is_stmt 0 view .LVU2078
	add	r8, r8, r10
.LVL323:
	.loc 1 1084 10 view .LVU2079
.LBE1225:
	.loc 1 1074 21 is_stmt 1 view .LVU2080
	bne	.L136
.LVL324:
.L130:
	.loc 1 1074 21 is_stmt 0 view .LVU2081
.LBE1223:
.LBE1222:
.LBE1221:
	.loc 1 1144 2 is_stmt 1 view .LVU2082
	mov	r0, r5
	bl	qspi_unlock
.LVL325:
	.loc 1 1146 2 view .LVU2083
	.loc 1 1146 13 is_stmt 0 view .LVU2084
	movs	r1, #1
	mov	r0, r5
	bl	qspi_nor_write_protection_set
.LVL326:
	mov	r6, r0
.LVL327:
	.loc 1 1148 2 is_stmt 1 view .LVU2085
.LBB1226:
.LBI1226:
	.loc 1 305 20 view .LVU2086
.LBB1227:
	.loc 1 308 2 view .LVU2087
	.loc 1 310 2 view .LVU2088
	ldr	r0, [r5, #16]
.LVL328:
.LBB1228:
.LBI1228:
	.loc 2 1110 20 view .LVU2089
.LBB1229:
	.loc 2 1119 2 view .LVU2090
	.loc 2 1119 7 view .LVU2091
	.loc 2 1119 5 view .LVU2092
	.loc 2 1120 2 view .LVU2093
	bl	z_impl_k_sem_give
.LVL329:
	.loc 2 1120 2 is_stmt 0 view .LVU2094
.LBE1229:
.LBE1228:
.LBE1227:
.LBE1226:
	.loc 1 1149 2 is_stmt 1 view .LVU2095
	.loc 1 1153 2 view .LVU2096
	.loc 1 1153 7 is_stmt 0 view .LVU2097
	cmp	r4, #0
	ite	ne
	movne	r0, r4
	moveq	r0, r6
.LVL330:
	.loc 1 1153 7 view .LVU2098
	bl	qspi_get_zephyr_ret_code
.LVL331:
	.loc 1 1153 7 view .LVU2099
	mov	r4, r0
.LVL332:
.L129:
	.loc 1 1155 2 is_stmt 1 view .LVU2100
	mov	r0, r5
.LVL333:
	.loc 1 1155 2 is_stmt 0 view .LVU2101
	bl	qspi_device_uninit
.LVL334:
	.loc 1 1156 2 is_stmt 1 view .LVU2102
	.loc 1 1156 9 is_stmt 0 view .LVU2103
	b	.L123
.LVL335:
.L134:
	.loc 1 1140 4 is_stmt 1 view .LVU2104
	.loc 1 1140 10 is_stmt 0 view .LVU2105
	mov	r2, r8
	mov	r1, r6
	mov	r0, r9
	b	.L145
.L147:
	.align	2
.L146:
	.word	.LC9
	.word	log_const_qspi_nor
	.word	195887104
	.cfi_endproc
.LFE1085:
	.size	qspi_nor_write, .-qspi_nor_write
	.section	.rodata.qspi_nor_read.str1.1,"aMS",%progbits,1
.LC10:
	.ascii	"read error: address or size exceeds expected values"
	.ascii	".Addr: 0x%lx size %zu\000"
	.section	.text.qspi_nor_read,"ax",%progbits
	.align	1
	.syntax unified
	.thumb
	.thumb_func
	.type	qspi_nor_read, %function
qspi_nor_read:
.LVL336:
.LFB1082:
	.loc 1 995 1 is_stmt 1 view -0
	.cfi_startproc
	@ args = 0, pretend = 0, frame = 16
	@ frame_needed = 1, uses_anonymous_args = 0
	.loc 1 996 2 view .LVU2107
	.loc 1 995 1 is_stmt 0 view .LVU2108
	push	{r4, r5, r6, r7, r8, r9, r10, fp, lr}
	.cfi_def_cfa_offset 36
	.cfi_offset 4, -36
	.cfi_offset 5, -32
	.cfi_offset 6, -28
	.cfi_offset 7, -24
	.cfi_offset 8, -20
	.cfi_offset 9, -16
	.cfi_offset 10, -12
	.cfi_offset 11, -8
	.cfi_offset 14, -4
	sub	sp, sp, #20
	.cfi_def_cfa_offset 56
	mov	r9, r0
	add	r7, sp, #0
	.cfi_def_cfa_register 7
	.loc 1 995 1 view .LVU2109
	mov	r6, r1
	mov	r4, r3
	.loc 1 996 5 view .LVU2110
	mov	r8, r2
	cbz	r2, .L149
	.loc 1 1001 2 is_stmt 1 view .LVU2111
	.loc 1 1001 5 is_stmt 0 view .LVU2112
	cmp	r3, #0
	beq	.L163
	.loc 1 1005 2 is_stmt 1 view .LVU2113
	.loc 1 1008 5 is_stmt 0 view .LVU2114
	cmp	r1, #0
	.loc 1 1005 32 view .LVU2115
	ldr	r2, [r0, #4]
.LVL337:
	.loc 1 1008 2 is_stmt 1 view .LVU2116
	.loc 1 1008 5 is_stmt 0 view .LVU2117
	blt	.L151
	.loc 1 1008 15 discriminator 1 view .LVU2118
	ldr	r2, [r2, #44]
.LVL338:
	.loc 1 1009 12 discriminator 1 view .LVU2119
	adds	r3, r1, r3
.LVL339:
	.loc 1 1008 15 discriminator 1 view .LVU2120
	cmp	r3, r2
	bls	.L152
.L151:
	.loc 1 1010 3 is_stmt 1 view .LVU2121
.LBB1247:
	.loc 1 1010 8 view .LVU2122
	.loc 1 1010 57 view .LVU2123
	.loc 1 1010 14 view .LVU2124
	.loc 1 1010 2 view .LVU2125
.LVL340:
	.loc 1 1010 41 view .LVU2126
	.loc 1 1010 176 view .LVU2127
	.loc 1 1010 187 view .LVU2128
	.loc 1 1010 275 view .LVU2129
.LBB1248:
	.loc 1 1010 3 view .LVU2130
	.loc 1 1010 5 view .LVU2131
	.loc 1 1010 42 view .LVU2132
	.loc 1 1010 3 view .LVU2133
.LBB1249:
	.loc 1 1010 8 view .LVU2134
	.loc 1 1010 2 view .LVU2135
.LBE1249:
.LBE1248:
.LBE1247:
	.loc 1 1010 3 view .LVU2136
	.loc 1 1010 12 view .LVU2137
	.loc 1 1010 107 view .LVU2138
	.loc 1 1010 3 view .LVU2139
.LBB1271:
.LBB1267:
.LBB1263:
	.loc 1 1010 12 view .LVU2140
	.loc 1 1010 102 view .LVU2141
	.loc 1 1010 104 view .LVU2142
.LBB1250:
	.loc 1 1010 107 is_stmt 0 view .LVU2143
	mov	r5, sp
	.loc 1 1010 109 is_stmt 1 view .LVU2144
	.loc 1 1010 120 view .LVU2145
.LVL341:
	.loc 1 1010 209 view .LVU2146
	.loc 1 1010 26 view .LVU2147
.LBE1250:
.LBE1263:
.LBE1267:
.LBE1271:
	.loc 1 1010 3 view .LVU2148
	.loc 1 1010 368 view .LVU2149
	.loc 1 1010 75 view .LVU2150
	.loc 1 1010 2 view .LVU2151
	.loc 1 1010 2 view .LVU2152
	.loc 1 1010 2 view .LVU2153
	.loc 1 1010 38 view .LVU2154
	.loc 1 1010 4 view .LVU2155
	.loc 1 1010 30 view .LVU2156
	.loc 1 1010 56 view .LVU2157
	.loc 1 1010 969 view .LVU2158
	.loc 1 1010 1031 view .LVU2159
	.loc 1 1010 2018 view .LVU2160
	.loc 1 1010 2083 view .LVU2161
	.loc 1 1010 2108 view .LVU2162
	.loc 1 1010 2109 view .LVU2163
	.loc 1 1010 2111 view .LVU2164
	.loc 1 1010 2141 view .LVU2165
	.loc 1 1010 2171 view .LVU2166
	.loc 1 1010 2203 view .LVU2167
	.loc 1 1010 2235 view .LVU2168
	.loc 1 1010 2267 view .LVU2169
	.loc 1 1010 2464 view .LVU2170
	.loc 1 1010 2488 view .LVU2171
	.loc 1 1010 2489 view .LVU2172
	.loc 1 1010 2491 view .LVU2173
	.loc 1 1010 2520 view .LVU2174
	.loc 1 1010 2549 view .LVU2175
	.loc 1 1010 2580 view .LVU2176
	.loc 1 1010 2611 view .LVU2177
	.loc 1 1010 2642 view .LVU2178
	.loc 1 1010 2849 view .LVU2179
	.loc 1 1010 4 view .LVU2180
	.loc 1 1010 22 view .LVU2181
	.loc 1 1010 42 view .LVU2182
	.loc 1 1010 4 view .LVU2183
	.loc 1 1010 42 view .LVU2184
	.loc 1 1010 13 view .LVU2185
	.loc 1 1010 13 view .LVU2186
	.loc 1 1010 61 view .LVU2187
	.loc 1 1010 92 view .LVU2188
	.loc 1 1010 126 view .LVU2189
	.loc 1 1010 131 view .LVU2190
	.loc 1 1010 433 view .LVU2191
	.loc 1 1010 1694 view .LVU2192
	.loc 1 1010 1759 view .LVU2193
	.loc 1 1010 1783 view .LVU2194
	.loc 1 1010 1889 view .LVU2195
	.loc 1 1010 1900 view .LVU2196
	.loc 1 1010 2064 view .LVU2197
	.loc 1 1010 2080 view .LVU2198
	.loc 1 1010 2120 view .LVU2199
	.loc 1 1010 2145 view .LVU2200
	.loc 1 1010 3538 view .LVU2201
	.loc 1 1010 3579 view .LVU2202
	.loc 1 1010 7 view .LVU2203
	.loc 1 1010 30 view .LVU2204
	.loc 1 1010 129 view .LVU2205
	.loc 1 1010 6 view .LVU2206
	.loc 1 1010 11 view .LVU2207
	.loc 1 1010 236 view .LVU2208
	.loc 1 1010 1189 view .LVU2209
	.loc 1 1010 1254 view .LVU2210
	.loc 1 1010 1278 view .LVU2211
	.loc 1 1010 1307 view .LVU2212
	.loc 1 1010 1318 view .LVU2213
	.loc 1 1010 1405 view .LVU2214
	.loc 1 1010 1421 view .LVU2215
	.loc 1 1010 1461 view .LVU2216
	.loc 1 1010 2725 view .LVU2217
	.loc 1 1010 2766 view .LVU2218
	.loc 1 1010 7 view .LVU2219
	.loc 1 1010 30 view .LVU2220
	.loc 1 1010 9 view .LVU2221
	.loc 1 1010 6 view .LVU2222
	.loc 1 1010 11 view .LVU2223
	.loc 1 1010 236 view .LVU2224
	.loc 1 1010 1189 view .LVU2225
	.loc 1 1010 1254 view .LVU2226
	.loc 1 1010 1278 view .LVU2227
	.loc 1 1010 1307 view .LVU2228
	.loc 1 1010 1318 view .LVU2229
	.loc 1 1010 1405 view .LVU2230
	.loc 1 1010 1421 view .LVU2231
	.loc 1 1010 1461 view .LVU2232
	.loc 1 1010 2725 view .LVU2233
	.loc 1 1010 2766 view .LVU2234
	.loc 1 1010 7 view .LVU2235
	.loc 1 1010 30 view .LVU2236
	.loc 1 1010 9 view .LVU2237
	.loc 1 1010 5 view .LVU2238
	.loc 1 1010 28 view .LVU2239
	.loc 1 1010 52 view .LVU2240
	.loc 1 1010 80 view .LVU2241
	.loc 1 1010 256 view .LVU2242
	.loc 1 1010 16 view .LVU2243
.LBB1272:
.LBB1268:
.LBB1264:
.LBB1260:
	.loc 1 1010 29 view .LVU2244
	.loc 1 1010 3 view .LVU2245
	.loc 1 1010 3 view .LVU2246
	.loc 1 1010 70 view .LVU2247
	.loc 1 1010 82 is_stmt 0 view .LVU2248
	sub	sp, sp, #32
	mov	r2, sp
.LVL342:
	.loc 1 1010 74 is_stmt 1 view .LVU2249
	.loc 1 1010 484 view .LVU2250
	.loc 1 1010 5 view .LVU2251
	.loc 1 1010 7 view .LVU2252
	.loc 1 1010 12 view .LVU2253
	.loc 1 1010 10 view .LVU2254
	.loc 1 1010 5 view .LVU2255
	.loc 1 1010 23 view .LVU2256
.LBB1251:
	.loc 1 1010 3 view .LVU2257
	.loc 1 1010 368 view .LVU2258
	.loc 1 1010 75 view .LVU2259
.LVL343:
	.loc 1 1010 2 view .LVU2260
	.loc 1 1010 2 view .LVU2261
	.loc 1 1010 2 view .LVU2262
	.loc 1 1010 38 view .LVU2263
	.loc 1 1010 67 view .LVU2264
	.loc 1 1010 93 view .LVU2265
	.loc 1 1010 119 view .LVU2266
	.loc 1 1010 1032 view .LVU2267
	.loc 1 1010 1094 view .LVU2268
	.loc 1 1010 2081 view .LVU2269
	.loc 1 1010 2146 view .LVU2270
	.loc 1 1010 2171 view .LVU2271
	.loc 1 1010 2172 view .LVU2272
	.loc 1 1010 2174 view .LVU2273
	.loc 1 1010 2204 view .LVU2274
	.loc 1 1010 2234 view .LVU2275
	.loc 1 1010 2266 view .LVU2276
	.loc 1 1010 2298 view .LVU2277
	.loc 1 1010 2330 view .LVU2278
	.loc 1 1010 2527 view .LVU2279
	.loc 1 1010 2551 view .LVU2280
	.loc 1 1010 2552 view .LVU2281
	.loc 1 1010 2554 view .LVU2282
	.loc 1 1010 2583 view .LVU2283
	.loc 1 1010 2612 view .LVU2284
	.loc 1 1010 2643 view .LVU2285
	.loc 1 1010 2674 view .LVU2286
	.loc 1 1010 2705 view .LVU2287
	.loc 1 1010 2912 view .LVU2288
.LBB1252:
	.loc 1 1010 3576 view .LVU2289
	.loc 1 1010 3581 view .LVU2290
	.loc 1 1010 0 view .LVU2291
	ldr	r3, .L171
.LBE1252:
.LBB1253:
	.loc 1 1010 3811 is_stmt 0 view .LVU2292
	str	r4, [r2, #28]
.LBE1253:
.LBB1254:
	.loc 1 1010 3811 view .LVU2293
	strd	r3, r6, [r2, #20]
	.loc 1 1010 2766 is_stmt 1 view .LVU2294
	.loc 1 1010 7 view .LVU2295
.LVL344:
	.loc 1 1010 30 view .LVU2296
	.loc 1 1010 30 is_stmt 0 view .LVU2297
.LBE1254:
	.loc 1 1010 9 is_stmt 1 view .LVU2298
	.loc 1 1010 6 view .LVU2299
.LBB1255:
	.loc 1 1010 11 view .LVU2300
	.loc 1 1010 236 view .LVU2301
	.loc 1 1010 1189 view .LVU2302
	.loc 1 1010 1254 view .LVU2303
.LBE1255:
.LBE1251:
.LBE1260:
.LBE1264:
.LBE1268:
.LBE1272:
	.loc 1 1010 1278 view .LVU2304
	.loc 1 1010 1307 view .LVU2305
	.loc 1 1010 1318 view .LVU2306
	.loc 1 1010 1405 view .LVU2307
.LBB1273:
.LBB1269:
.LBB1265:
.LBB1261:
.LBB1258:
.LBB1256:
	.loc 1 1010 1421 view .LVU2308
	.loc 1 1010 1461 view .LVU2309
	.loc 1 1010 2725 view .LVU2310
	.loc 1 1010 2763 view .LVU2311
	.loc 1 1010 2768 view .LVU2312
	.loc 1 1010 3212 view .LVU2313
	.loc 1 1010 2766 view .LVU2314
	.loc 1 1010 7 view .LVU2315
	.loc 1 1010 30 view .LVU2316
	.loc 1 1010 30 is_stmt 0 view .LVU2317
.LBE1256:
	.loc 1 1010 9 is_stmt 1 view .LVU2318
	.loc 1 1010 5 view .LVU2319
	.loc 1 1010 28 view .LVU2320
	.loc 1 1010 52 view .LVU2321
	.loc 1 1010 80 view .LVU2322
.LBE1258:
.LBE1261:
.LBE1265:
.LBE1269:
.LBE1273:
	.loc 1 1010 6 view .LVU2323
	.loc 1 1010 45 view .LVU2324
	.loc 1 1010 50 view .LVU2325
	.loc 1 1010 80 view .LVU2326
	.loc 1 1010 147 view .LVU2327
	.loc 1 1010 152 view .LVU2328
	.loc 1 1010 182 view .LVU2329
.LBB1274:
.LBB1270:
.LBB1266:
.LBB1262:
.LBB1259:
	.loc 1 1010 256 view .LVU2330
	.loc 1 1010 16 view .LVU2331
.LBB1257:
	.loc 1 1010 6 view .LVU2332
	.loc 1 1010 164 view .LVU2333
	.loc 1 1010 166 view .LVU2334
	.loc 1 1010 176 is_stmt 0 view .LVU2335
	movs	r3, #4
	str	r3, [r2, #16]!
.LVL345:
	.loc 1 1010 176 view .LVU2336
.LBE1257:
.LBE1259:
	.loc 1 1010 26 is_stmt 1 view .LVU2337
	.loc 1 1010 7 view .LVU2338
	.loc 1 1010 147 view .LVU2339
	.loc 1 1010 149 view .LVU2340
	ldr	r0, .L171+4
.LVL346:
	.loc 1 1010 149 is_stmt 0 view .LVU2341
	mov	r1, #8256
.LVL347:
	.loc 1 1010 149 view .LVU2342
	bl	z_log_msg_static_create.constprop.0
.LVL348:
	.loc 1 1010 149 view .LVU2343
	mov	sp, r5
.LVL349:
	.loc 1 1010 149 view .LVU2344
.LBE1262:
	.loc 1 1010 107 is_stmt 1 view .LVU2345
	.loc 1 1010 5 view .LVU2346
	.loc 1 1010 42 view .LVU2347
.LBE1266:
	.loc 1 1010 6 view .LVU2348
.LBE1270:
	.loc 1 1010 278 view .LVU2349
	.loc 1 1010 5 view .LVU2350
	.loc 1 1010 18 view .LVU2351
.LBE1274:
	.loc 1 1010 6 view .LVU2352
	.loc 1 1013 3 view .LVU2353
.L149:
	.loc 1 997 10 is_stmt 0 view .LVU2354
	mvn	r5, #21
.LVL350:
.L148:
	.loc 1 1033 1 view .LVU2355
	mov	r0, r5
	adds	r7, r7, #20
	.cfi_remember_state
	.cfi_def_cfa_offset 36
	mov	sp, r7
	.cfi_def_cfa_register 13
	@ sp needed
	pop	{r4, r5, r6, r7, r8, r9, r10, fp, pc}
.LVL351:
.L152:
	.cfi_restore_state
	.loc 1 1016 2 is_stmt 1 view .LVU2356
	.loc 1 1016 11 is_stmt 0 view .LVU2357
	bl	qspi_device_init
.LVL352:
	.loc 1 1018 2 is_stmt 1 view .LVU2358
	.loc 1 1018 5 is_stmt 0 view .LVU2359
	mov	r5, r0
	cmp	r0, #0
	bne	.L153
	.loc 1 1022 2 is_stmt 1 view .LVU2360
	rsbs	r5, r6, #0
	and	r5, r5, #3
	mov	r0, r9
.LVL353:
	.loc 1 1022 2 is_stmt 0 view .LVU2361
	bl	qspi_lock
.LVL354:
	.loc 1 1024 2 is_stmt 1 view .LVU2362
.LBB1275:
.LBI1275:
	.loc 1 922 26 view .LVU2363
.LBB1276:
	.loc 1 926 2 view .LVU2364
	.loc 1 927 2 view .LVU2365
	.loc 1 929 2 view .LVU2366
	.loc 1 931 2 view .LVU2367
	cmp	r5, r4
	it	cs
	movcs	r5, r4
.LVL355:
	.loc 1 935 2 view .LVU2368
	.loc 1 937 2 view .LVU2369
	.loc 1 935 39 is_stmt 0 view .LVU2370
	rsbs	r2, r8, #0
	and	r2, r2, #3
	and	r3, r8, #3
	it	pl
	rsbpl	r3, r2, #0
	rsbs	r3, r3, #0
	and	r3, r3, #3
	cmp	r3, r4
	it	cs
	movcs	r3, r4
.LVL356:
	.loc 1 941 2 is_stmt 1 view .LVU2371
	.loc 1 941 29 is_stmt 0 view .LVU2372
	subs	r2, r4, r5
	.loc 1 944 14 view .LVU2373
	subs	r4, r4, r3
.LVL357:
	.loc 1 944 14 view .LVU2374
	bic	r4, r4, #3
	.loc 1 942 43 view .LVU2375
	bic	r10, r2, #3
	.loc 1 946 5 view .LVU2376
	cmp	r10, r4
	.loc 1 948 16 view .LVU2377
	it	gt
	movgt	r10, r4
	and	fp, r2, #3
.LVL358:
	.loc 1 942 2 is_stmt 1 view .LVU2378
	.loc 1 943 2 view .LVU2379
	.loc 1 946 2 view .LVU2380
	.loc 1 947 3 view .LVU2381
	.loc 1 948 3 view .LVU2382
	.loc 1 948 38 is_stmt 0 view .LVU2383
	it	gt
	subgt	fp, r2, r4
.LVL359:
	.loc 1 951 2 is_stmt 1 view .LVU2384
	.loc 1 954 2 view .LVU2385
	.loc 1 954 5 is_stmt 0 view .LVU2386
	cmp	r10, #0
	beq	.L157
	.loc 1 955 3 is_stmt 1 view .LVU2387
	.loc 1 955 29 is_stmt 0 view .LVU2388
	add	r2, r8, r3
	str	r3, [r7]
	mov	r3, r2
.LVL360:
	.loc 1 955 29 view .LVU2389
	str	r2, [r7, #4]
	.loc 1 955 9 view .LVU2390
	mov	r1, r10
	adds	r2, r6, r5
	mov	r0, r3
	bl	nrfx_qspi_read
.LVL361:
	mov	r4, r0
.LVL362:
	.loc 1 957 3 is_stmt 1 view .LVU2391
	mov	r1, r0
	ldr	r0, [r9, #16]
.LVL363:
	.loc 1 957 3 is_stmt 0 view .LVU2392
	bl	qspi_wait_for_completion.isra.0
.LVL364:
	.loc 1 958 3 is_stmt 1 view .LVU2393
	.loc 1 958 6 is_stmt 0 view .LVU2394
	ldr	r2, .L171+8
	cmp	r4, r2
	bne	.L158
	.loc 1 963 3 is_stmt 1 view .LVU2395
	.loc 1 963 6 is_stmt 0 view .LVU2396
	ldr	r3, [r7]
	cmp	r5, r3
	beq	.L157
	.loc 1 964 3 is_stmt 1 view .LVU2397
.LVL365:
.LBB1277:
.LBI1277:
	.file 7 "/home/g/zephyr-sdk-0.16.3/arm-zephyr-eabi/picolibc/include/ssp/string.h"
	.loc 7 84 199 view .LVU2398
.LBB1278:
	.loc 7 84 258 view .LVU2399
	.loc 7 84 265 is_stmt 0 view .LVU2400
	ldr	r1, [r7, #4]
	mov	r2, r10
	add	r0, r8, r5
.LVL366:
	.loc 7 84 265 view .LVU2401
	bl	memmove
.LVL367:
.L157:
	.loc 7 84 265 view .LVU2402
.LBE1278:
.LBE1277:
	.loc 1 969 2 is_stmt 1 view .LVU2403
	.loc 1 969 5 is_stmt 0 view .LVU2404
	cbz	r5, .L160
	.loc 1 970 3 is_stmt 1 view .LVU2405
	.loc 1 971 13 is_stmt 0 view .LVU2406
	rsb	r3, r5, #4
	.loc 1 970 9 view .LVU2407
	subs	r2, r6, r3
	movs	r1, #4
	add	r0, r7, #8
	str	r3, [r7, #4]
	bl	nrfx_qspi_read
.LVL368:
	mov	r4, r0
.LVL369:
	.loc 1 972 3 is_stmt 1 view .LVU2408
	mov	r1, r0
	ldr	r0, [r9, #16]
.LVL370:
	.loc 1 972 3 is_stmt 0 view .LVU2409
	bl	qspi_wait_for_completion.isra.0
.LVL371:
	.loc 1 973 3 is_stmt 1 view .LVU2410
	.loc 1 973 6 is_stmt 0 view .LVU2411
	ldr	r2, .L171+8
	cmp	r4, r2
	bne	.L158
	.loc 1 976 2 is_stmt 1 view .LVU2412
.LVL372:
.LBB1279:
.LBI1279:
	.loc 7 83 216 view .LVU2413
.LBB1280:
	.loc 7 83 292 view .LVU2414
	.loc 7 83 299 is_stmt 0 view .LVU2415
	ldr	r3, [r7, #4]
	adds	r3, r3, #8
	mov	r2, r5
	adds	r1, r3, r7
	mov	r0, r8
	bl	memcpy
.LVL373:
.L160:
	.loc 7 83 299 view .LVU2416
.LBE1280:
.LBE1279:
	.loc 1 980 2 is_stmt 1 view .LVU2417
	.loc 1 980 5 is_stmt 0 view .LVU2418
	cmp	fp, #0
	beq	.L164
	.loc 1 981 3 is_stmt 1 view .LVU2419
	.loc 1 981 9 is_stmt 0 view .LVU2420
	movs	r1, #8
	.loc 1 982 15 view .LVU2421
	adds	r2, r6, r5
	.loc 1 981 9 view .LVU2422
	add	r2, r2, r10
	adds	r0, r7, r1
	bl	nrfx_qspi_read
.LVL374:
	mov	r4, r0
.LVL375:
	.loc 1 983 3 is_stmt 1 view .LVU2423
	mov	r1, r0
	ldr	r0, [r9, #16]
.LVL376:
	.loc 1 983 3 is_stmt 0 view .LVU2424
	bl	qspi_wait_for_completion.isra.0
.LVL377:
	.loc 1 984 3 is_stmt 1 view .LVU2425
	.loc 1 984 6 is_stmt 0 view .LVU2426
	ldr	r3, .L171+8
	cmp	r4, r3
	bne	.L158
	.loc 1 987 2 is_stmt 1 view .LVU2427
.LVL378:
.LBB1281:
.LBI1281:
	.loc 7 83 216 view .LVU2428
.LBB1282:
	.loc 7 83 292 view .LVU2429
.LBE1282:
.LBE1281:
	.loc 1 987 22 is_stmt 0 view .LVU2430
	add	r0, r10, r5
.LBB1284:
.LBB1283:
	.loc 7 83 299 view .LVU2431
	mov	r2, fp
	add	r1, r7, #8
.LVL379:
	.loc 7 83 299 view .LVU2432
	add	r0, r0, r8
	bl	memcpy
.LVL380:
.L158:
	.loc 7 83 299 view .LVU2433
.LBE1283:
.LBE1284:
.LBE1276:
.LBE1275:
	.loc 1 1026 2 is_stmt 1 view .LVU2434
	mov	r0, r9
	bl	qspi_unlock
.LVL381:
	.loc 1 1028 2 view .LVU2435
	.loc 1 1028 7 is_stmt 0 view .LVU2436
	mov	r0, r4
	bl	qspi_get_zephyr_ret_code
.LVL382:
	mov	r5, r0
.LVL383:
.L153:
	.loc 1 1031 2 is_stmt 1 view .LVU2437
	mov	r0, r9
.LVL384:
	.loc 1 1031 2 is_stmt 0 view .LVU2438
	bl	qspi_device_uninit
.LVL385:
	.loc 1 1032 2 is_stmt 1 view .LVU2439
	.loc 1 1032 9 is_stmt 0 view .LVU2440
	b	.L148
.LVL386:
.L164:
.LBB1286:
.LBB1285:
	.loc 1 990 9 view .LVU2441
	ldr	r4, .L171+8
	b	.L158
.LVL387:
.L163:
	.loc 1 990 9 view .LVU2442
.LBE1285:
.LBE1286:
	.loc 1 1002 10 view .LVU2443
	mov	r5, r3
	b	.L148
.L172:
	.align	2
.L171:
	.word	.LC10
	.word	log_const_qspi_nor
	.word	195887104
	.cfi_endproc
.LFE1082:
	.size	qspi_nor_read, .-qspi_nor_read
	.section	.rodata.z_impl_nrf_qspi_nor_xip_enable.str1.1,"aMS",%progbits,1
.LC11:
	.ascii	"enable\000"
.LC12:
	.ascii	"disable\000"
.LC13:
	.ascii	"NRF QSPI NOR XIP %s failed with %d\012\000"
	.section	.text.z_impl_nrf_qspi_nor_xip_enable,"ax",%progbits
	.align	1
	.global	z_impl_nrf_qspi_nor_xip_enable
	.syntax unified
	.thumb
	.thumb_func
	.type	z_impl_nrf_qspi_nor_xip_enable, %function
z_impl_nrf_qspi_nor_xip_enable:
.LVL388:
.LFB1095:
	.loc 1 1441 1 is_stmt 1 view -0
	.cfi_startproc
	@ args = 0, pretend = 0, frame = 0
	@ frame_needed = 1, uses_anonymous_args = 0
	.loc 1 1442 2 view .LVU2445
	.loc 1 1441 1 is_stmt 0 view .LVU2446
	push	{r3, r4, r5, r6, r7, lr}
	.cfi_def_cfa_offset 24
	.cfi_offset 3, -24
	.cfi_offset 4, -20
	.cfi_offset 5, -16
	.cfi_offset 6, -12
	.cfi_offset 7, -8
	.cfi_offset 14, -4
	.loc 1 1442 24 view .LVU2447
	ldr	r6, [r0, #16]
.LVL389:
	.loc 1 1443 2 is_stmt 1 view .LVU2448
	.loc 1 1445 2 view .LVU2449
	.loc 1 1445 5 is_stmt 0 view .LVU2450
	ldrb	r3, [r6, #96]	@ zero_extendqisi2
	cmp	r3, r1
	.loc 1 1441 1 view .LVU2451
	add	r7, sp, #0
	.cfi_def_cfa_register 7
	.loc 1 1441 1 view .LVU2452
	mov	r4, r0
	mov	r5, r1
	.loc 1 1445 5 view .LVU2453
	beq	.L173
	.loc 1 1449 2 is_stmt 1 view .LVU2454
	.loc 1 1449 8 is_stmt 0 view .LVU2455
	bl	qspi_device_init
.LVL390:
	.loc 1 1451 2 is_stmt 1 view .LVU2456
	.loc 1 1451 5 is_stmt 0 view .LVU2457
	cbz	r0, .L175
	.loc 1 1452 3 is_stmt 1 view .LVU2458
.LBB1287:
	.loc 1 1452 8 view .LVU2459
	.loc 1 1452 57 view .LVU2460
	.loc 1 1452 14 view .LVU2461
	.loc 1 1452 2 view .LVU2462
.LVL391:
	.loc 1 1452 41 view .LVU2463
	.loc 1 1452 176 view .LVU2464
	.loc 1 1452 187 view .LVU2465
	.loc 1 1452 275 view .LVU2466
.LBB1288:
	.loc 1 1452 3 view .LVU2467
	.loc 1 1452 5 view .LVU2468
	.loc 1 1452 42 is_stmt 0 view .LVU2469
	ldr	r2, .L178
	ldr	r3, .L178+4
.LBB1289:
.LBB1290:
	.loc 1 1452 107 view .LVU2470
	mov	r4, sp
.LVL392:
	.loc 1 1452 82 view .LVU2471
	sub	sp, sp, #40
.LBE1290:
.LBE1289:
	.loc 1 1452 42 view .LVU2472
	cmp	r5, #0
	it	ne
	movne	r3, r2
.LVL393:
	.loc 1 1452 61 is_stmt 1 view .LVU2473
	.loc 1 1452 3 view .LVU2474
.LBB1307:
	.loc 1 1452 8 view .LVU2475
	.loc 1 1452 2 view .LVU2476
.LBE1307:
.LBE1288:
.LBE1287:
	.loc 1 1452 3 view .LVU2477
	.loc 1 1452 12 view .LVU2478
	.loc 1 1452 107 view .LVU2479
	.loc 1 1452 3 view .LVU2480
.LBB1316:
.LBB1312:
.LBB1308:
	.loc 1 1452 12 view .LVU2481
	.loc 1 1452 102 view .LVU2482
	.loc 1 1452 104 view .LVU2483
.LBB1303:
	.loc 1 1452 109 view .LVU2484
	.loc 1 1452 120 view .LVU2485
	.loc 1 1452 209 view .LVU2486
	.loc 1 1452 26 view .LVU2487
.LBE1303:
.LBE1308:
.LBE1312:
.LBE1316:
	.loc 1 1452 3 view .LVU2488
	.loc 1 1452 368 view .LVU2489
	.loc 1 1452 75 view .LVU2490
	.loc 1 1452 2 view .LVU2491
	.loc 1 1452 2 view .LVU2492
	.loc 1 1452 2 view .LVU2493
	.loc 1 1452 38 view .LVU2494
	.loc 1 1452 4 view .LVU2495
	.loc 1 1452 30 view .LVU2496
	.loc 1 1452 56 view .LVU2497
	.loc 1 1452 969 view .LVU2498
	.loc 1 1452 1031 view .LVU2499
	.loc 1 1452 2018 view .LVU2500
	.loc 1 1452 2083 view .LVU2501
	.loc 1 1452 2108 view .LVU2502
	.loc 1 1452 2109 view .LVU2503
	.loc 1 1452 2111 view .LVU2504
	.loc 1 1452 2141 view .LVU2505
	.loc 1 1452 2171 view .LVU2506
	.loc 1 1452 2203 view .LVU2507
	.loc 1 1452 2235 view .LVU2508
	.loc 1 1452 2267 view .LVU2509
	.loc 1 1452 2464 view .LVU2510
	.loc 1 1452 2488 view .LVU2511
	.loc 1 1452 2489 view .LVU2512
	.loc 1 1452 2491 view .LVU2513
	.loc 1 1452 2520 view .LVU2514
	.loc 1 1452 2549 view .LVU2515
	.loc 1 1452 2580 view .LVU2516
	.loc 1 1452 2611 view .LVU2517
	.loc 1 1452 2642 view .LVU2518
	.loc 1 1452 2849 view .LVU2519
	.loc 1 1452 4 view .LVU2520
	.loc 1 1452 22 view .LVU2521
	.loc 1 1452 42 view .LVU2522
	.loc 1 1452 4 view .LVU2523
	.loc 1 1452 42 view .LVU2524
	.loc 1 1452 13 view .LVU2525
	.loc 1 1452 13 view .LVU2526
	.loc 1 1452 61 view .LVU2527
	.loc 1 1452 92 view .LVU2528
	.loc 1 1452 126 view .LVU2529
	.loc 1 1452 131 view .LVU2530
	.loc 1 1452 391 view .LVU2531
	.loc 1 1452 1484 view .LVU2532
	.loc 1 1452 1549 view .LVU2533
	.loc 1 1452 1573 view .LVU2534
	.loc 1 1452 1637 view .LVU2535
	.loc 1 1452 1648 view .LVU2536
	.loc 1 1452 1770 view .LVU2537
	.loc 1 1452 1786 view .LVU2538
	.loc 1 1452 1826 view .LVU2539
	.loc 1 1452 1851 view .LVU2540
	.loc 1 1452 3160 view .LVU2541
	.loc 1 1452 3201 view .LVU2542
	.loc 1 1452 7 view .LVU2543
	.loc 1 1452 30 view .LVU2544
	.loc 1 1452 129 view .LVU2545
	.loc 1 1452 6 view .LVU2546
	.loc 1 1452 11 view .LVU2547
	.loc 1 1452 236 view .LVU2548
	.loc 1 1452 1189 view .LVU2549
	.loc 1 1452 1254 view .LVU2550
	.loc 1 1452 1278 view .LVU2551
	.loc 1 1452 1307 view .LVU2552
	.loc 1 1452 1318 view .LVU2553
	.loc 1 1452 1405 view .LVU2554
	.loc 1 1452 1421 view .LVU2555
	.loc 1 1452 1461 view .LVU2556
	.loc 1 1452 1551 view .LVU2557
	.loc 1 1452 1954 view .LVU2558
	.loc 1 1452 2611 view .LVU2559
	.loc 1 1452 2630 view .LVU2560
	.loc 1 1452 2667 view .LVU2561
	.loc 1 1452 2725 view .LVU2562
	.loc 1 1452 2766 view .LVU2563
	.loc 1 1452 7 view .LVU2564
	.loc 1 1452 30 view .LVU2565
	.loc 1 1452 9 view .LVU2566
	.loc 1 1452 6 view .LVU2567
	.loc 1 1452 11 view .LVU2568
	.loc 1 1452 236 view .LVU2569
	.loc 1 1452 1189 view .LVU2570
	.loc 1 1452 1254 view .LVU2571
	.loc 1 1452 1278 view .LVU2572
	.loc 1 1452 1307 view .LVU2573
	.loc 1 1452 1318 view .LVU2574
	.loc 1 1452 1405 view .LVU2575
	.loc 1 1452 1421 view .LVU2576
	.loc 1 1452 1461 view .LVU2577
	.loc 1 1452 2725 view .LVU2578
	.loc 1 1452 2766 view .LVU2579
	.loc 1 1452 7 view .LVU2580
	.loc 1 1452 30 view .LVU2581
	.loc 1 1452 9 view .LVU2582
	.loc 1 1452 5 view .LVU2583
	.loc 1 1452 28 view .LVU2584
	.loc 1 1452 52 view .LVU2585
	.loc 1 1452 80 view .LVU2586
	.loc 1 1452 256 view .LVU2587
	.loc 1 1452 16 view .LVU2588
.LBB1317:
.LBB1313:
.LBB1309:
.LBB1304:
	.loc 1 1452 29 view .LVU2589
	.loc 1 1452 3 view .LVU2590
	.loc 1 1452 3 view .LVU2591
	.loc 1 1452 70 view .LVU2592
	.loc 1 1452 82 is_stmt 0 view .LVU2593
	mov	r2, sp
.LVL394:
	.loc 1 1452 74 is_stmt 1 view .LVU2594
	.loc 1 1452 484 view .LVU2595
	.loc 1 1452 5 view .LVU2596
	.loc 1 1452 7 view .LVU2597
	.loc 1 1452 12 view .LVU2598
	.loc 1 1452 10 view .LVU2599
	.loc 1 1452 5 view .LVU2600
	.loc 1 1452 23 view .LVU2601
.LBB1291:
	.loc 1 1452 3 view .LVU2602
	.loc 1 1452 368 view .LVU2603
	.loc 1 1452 75 view .LVU2604
.LVL395:
	.loc 1 1452 2 view .LVU2605
	.loc 1 1452 2 view .LVU2606
	.loc 1 1452 2 view .LVU2607
	.loc 1 1452 38 view .LVU2608
	.loc 1 1452 67 view .LVU2609
	.loc 1 1452 93 view .LVU2610
	.loc 1 1452 119 view .LVU2611
	.loc 1 1452 1032 view .LVU2612
	.loc 1 1452 1094 view .LVU2613
	.loc 1 1452 2081 view .LVU2614
	.loc 1 1452 2146 view .LVU2615
	.loc 1 1452 2171 view .LVU2616
	.loc 1 1452 2172 view .LVU2617
	.loc 1 1452 2174 view .LVU2618
	.loc 1 1452 2204 view .LVU2619
	.loc 1 1452 2234 view .LVU2620
	.loc 1 1452 2266 view .LVU2621
	.loc 1 1452 2298 view .LVU2622
	.loc 1 1452 2330 view .LVU2623
	.loc 1 1452 2527 view .LVU2624
	.loc 1 1452 2551 view .LVU2625
	.loc 1 1452 2552 view .LVU2626
	.loc 1 1452 2554 view .LVU2627
	.loc 1 1452 2583 view .LVU2628
	.loc 1 1452 2612 view .LVU2629
	.loc 1 1452 2643 view .LVU2630
	.loc 1 1452 2674 view .LVU2631
	.loc 1 1452 2705 view .LVU2632
	.loc 1 1452 2912 view .LVU2633
.LBB1292:
	.loc 1 1452 3198 view .LVU2634
	.loc 1 1452 3203 view .LVU2635
	.loc 1 1452 3857 view .LVU2636
	.loc 1 1452 0 is_stmt 0 view .LVU2637
	ldr	r1, .L178+8
.LBE1292:
.LBB1293:
	.loc 1 1452 3811 view .LVU2638
	str	r0, [r2, #28]
.LBE1293:
.LBB1294:
	.loc 1 1452 3811 view .LVU2639
	strd	r1, r3, [r2, #20]
	.loc 1 1452 2766 is_stmt 1 view .LVU2640
	.loc 1 1452 7 view .LVU2641
.LVL396:
	.loc 1 1452 30 view .LVU2642
	.loc 1 1452 30 is_stmt 0 view .LVU2643
.LBE1294:
	.loc 1 1452 9 is_stmt 1 view .LVU2644
	.loc 1 1452 6 view .LVU2645
.LBB1295:
	.loc 1 1452 11 view .LVU2646
	.loc 1 1452 236 view .LVU2647
	.loc 1 1452 1189 view .LVU2648
	.loc 1 1452 1254 view .LVU2649
.LBE1295:
.LBE1291:
.LBE1304:
.LBE1309:
.LBE1313:
.LBE1317:
	.loc 1 1452 1278 view .LVU2650
	.loc 1 1452 1307 view .LVU2651
	.loc 1 1452 1318 view .LVU2652
	.loc 1 1452 1405 view .LVU2653
.LBB1318:
.LBB1314:
.LBB1310:
.LBB1305:
.LBB1301:
.LBB1296:
	.loc 1 1452 1421 view .LVU2654
	.loc 1 1452 1461 view .LVU2655
	.loc 1 1452 2725 view .LVU2656
	.loc 1 1452 2763 view .LVU2657
	.loc 1 1452 2768 view .LVU2658
	.loc 1 1452 3212 view .LVU2659
	.loc 1 1452 2766 view .LVU2660
	.loc 1 1452 7 view .LVU2661
	.loc 1 1452 30 view .LVU2662
	.loc 1 1452 30 is_stmt 0 view .LVU2663
.LBE1296:
	.loc 1 1452 9 is_stmt 1 view .LVU2664
	.loc 1 1452 5 view .LVU2665
	.loc 1 1452 28 view .LVU2666
	.loc 1 1452 52 view .LVU2667
	.loc 1 1452 80 view .LVU2668
.LBB1297:
	.loc 1 1452 6 view .LVU2669
	.loc 1 1452 45 view .LVU2670
.LBE1297:
.LBE1301:
.LBE1305:
.LBE1310:
.LBE1314:
.LBE1318:
	.loc 1 1452 50 view .LVU2671
	.loc 1 1452 80 view .LVU2672
.LBB1319:
.LBB1315:
.LBB1311:
.LBB1306:
.LBB1302:
.LBB1299:
.LBB1298:
	.loc 1 1452 182 view .LVU2673
	.loc 1 1452 214 view .LVU2674
	.loc 1 1452 208 view .LVU2675
	.loc 1 1452 182 view .LVU2676
	.loc 1 1452 214 view .LVU2677
	.loc 1 1452 227 is_stmt 0 view .LVU2678
	mov	r3, #512
.LVL397:
	.loc 1 1452 227 view .LVU2679
	strh	r3, [r2, #32]	@ movhi
	.loc 1 1452 208 is_stmt 1 view .LVU2680
.LVL398:
	.loc 1 1452 182 view .LVU2681
.LBE1298:
.LBE1299:
	.loc 1 1452 256 view .LVU2682
	.loc 1 1452 16 view .LVU2683
.LBB1300:
	.loc 1 1452 6 view .LVU2684
	.loc 1 1452 164 view .LVU2685
	.loc 1 1452 166 view .LVU2686
	.loc 1 1452 176 is_stmt 0 view .LVU2687
	ldr	r3, .L178+12
	str	r3, [r2, #16]!
.LVL399:
	.loc 1 1452 176 view .LVU2688
.LBE1300:
.LBE1302:
	.loc 1 1452 26 is_stmt 1 view .LVU2689
	.loc 1 1452 7 view .LVU2690
	.loc 1 1452 147 view .LVU2691
	.loc 1 1452 149 view .LVU2692
	ldr	r0, .L178+16
.LVL400:
	.loc 1 1452 149 is_stmt 0 view .LVU2693
	mov	r1, #9280
	bl	z_log_msg_static_create.constprop.0
.LVL401:
	.loc 1 1452 149 view .LVU2694
	mov	sp, r4
.LVL402:
	.loc 1 1452 149 view .LVU2695
.LBE1306:
	.loc 1 1452 107 is_stmt 1 view .LVU2696
	.loc 1 1452 5 view .LVU2697
	.loc 1 1452 42 view .LVU2698
.LBE1311:
	.loc 1 1452 6 view .LVU2699
.LBE1315:
	.loc 1 1452 278 view .LVU2700
	.loc 1 1452 5 view .LVU2701
	.loc 1 1452 18 view .LVU2702
.LBE1319:
	.loc 1 1452 6 view .LVU2703
	.loc 1 1453 3 view .LVU2704
.L173:
	.loc 1 1464 1 is_stmt 0 view .LVU2705
	mov	sp, r7
	.cfi_remember_state
	.cfi_def_cfa_register 13
	@ sp needed
	pop	{r3, r4, r5, r6, r7, pc}
.LVL403:
.L175:
	.cfi_restore_state
	.loc 1 1459 2 is_stmt 1 view .LVU2706
	mov	r0, r4
.LVL404:
	.loc 1 1459 2 is_stmt 0 view .LVU2707
	bl	qspi_lock
.LVL405:
	.loc 1 1460 2 is_stmt 1 view .LVU2708
	.loc 1 1461 2 is_stmt 0 view .LVU2709
	mov	r0, r4
	.loc 1 1460 24 view .LVU2710
	strb	r5, [r6, #96]
	.loc 1 1461 2 is_stmt 1 view .LVU2711
	bl	qspi_unlock
.LVL406:
	.loc 1 1463 2 view .LVU2712
	mov	r0, r4
	bl	qspi_device_uninit
.LVL407:
	b	.L173
.L179:
	.align	2
.L178:
	.word	.LC11
	.word	.LC12
	.word	.LC13
	.word	16777220
	.word	log_const_qspi_nor
	.cfi_endproc
.LFE1095:
	.size	z_impl_nrf_qspi_nor_xip_enable, .-z_impl_nrf_qspi_nor_xip_enable
	.section	.rodata.CSWTCH.2150,"a"
	.align	1
	.type	CSWTCH.2150, %object
	.size	CSWTCH.2150, 22
CSWTCH.2150:
	.short	0
	.short	-16
	.short	-16
	.short	-16
	.short	-22
	.short	-140
	.short	-16
	.short	-16
	.short	-16
	.short	-16
	.short	-22
	.section	.rodata.qspi_flash_parameters.0,"a"
	.align	2
	.type	qspi_flash_parameters.0, %object
	.size	qspi_flash_parameters.0, 8
qspi_flash_parameters.0:
	.word	4
	.byte	-1
	.space	3
	.section	.z_init_POST_KERNEL41_00138_,"a"
	.align	2
	.type	__init___device_dts_ord_138, %object
	.size	__init___device_dts_ord_138, 8
__init___device_dts_ord_138:
	.word	qspi_nor_init
	.word	__device_dts_ord_138
	.global	__device_dts_ord_138
	.section	.rodata.str1.1,"aMS",%progbits,1
.LC14:
	.ascii	"GD25Q16\000"
	.section	._device.static.3_41_,"a"
	.align	2
	.type	__device_dts_ord_138, %object
	.size	__device_dts_ord_138, 24
__device_dts_ord_138:
	.word	.LC14
	.word	qspi_nor_dev_config
	.word	qspi_nor_api
	.word	__devstate_dts_ord_138
	.word	qspi_nor_dev_data
	.word	__pm_device_dts_ord_138
	.section	.z_devstate,"aw"
	.type	__devstate_dts_ord_138, %object
	.size	__devstate_dts_ord_138, 2
__devstate_dts_ord_138:
	.space	2
	.section	.data.__pm_device_dts_ord_138,"aw"
	.align	2
	.type	__pm_device_dts_ord_138, %object
	.size	__pm_device_dts_ord_138, 16
__pm_device_dts_ord_138:
	.word	0
	.word	0
	.byte	0
	.space	3
	.word	qspi_nor_pm_action
	.section	._pm_device_slots.static.__pm_slot_dts_ord_138_,"a"
	.align	2
	.type	__pm_slot_dts_ord_138, %object
	.size	__pm_slot_dts_ord_138, 24
__pm_slot_dts_ord_138:
	.space	24
	.section	.rodata.qspi_nor_dev_config,"a"
	.align	2
	.type	qspi_nor_dev_config, %object
	.size	qspi_nor_dev_config, 56
qspi_nor_dev_config:
	.space	28
	.byte	2
	.byte	1
	.byte	0
	.space	1
	.byte	0
	.space	1
	.byte	0
	.byte	1
	.space	5
	.byte	1
	.byte	1
	.space	1
	.word	262144
	.ascii	"\310@\025"
	.space	1
	.word	__pinctrl_dev_config__device_dts_ord_137
	.global	__pinctrl_dev_config__device_dts_ord_137
	.section	.data.__pinctrl_dev_config__device_dts_ord_137,"aw"
	.align	2
	.type	__pinctrl_dev_config__device_dts_ord_137, %object
	.size	__pinctrl_dev_config__device_dts_ord_137, 12
__pinctrl_dev_config__device_dts_ord_137:
	.word	1073909760
	.word	__pinctrl_states__device_dts_ord_137
	.byte	2
	.space	3
	.section	.rodata.__pinctrl_states__device_dts_ord_137,"a"
	.align	2
	.type	__pinctrl_states__device_dts_ord_137, %object
	.size	__pinctrl_states__device_dts_ord_137, 16
__pinctrl_states__device_dts_ord_137:
	.word	__pinctrl_state_pins_0__device_dts_ord_137
	.byte	6
	.byte	0
	.space	2
	.word	__pinctrl_state_pins_1__device_dts_ord_137
	.byte	6
	.byte	1
	.space	2
	.section	.rodata.__pinctrl_state_pins_1__device_dts_ord_137,"a"
	.align	2
	.type	__pinctrl_state_pins_1__device_dts_ord_137, %object
	.size	__pinctrl_state_pins_1__device_dts_ord_137, 24
__pinctrl_state_pins_1__device_dts_ord_137:
	.word	1908757
	.word	2039828
	.word	2105368
	.word	2170902
	.word	2236439
	.word	1974681
	.section	.rodata.__pinctrl_state_pins_0__device_dts_ord_137,"a"
	.align	2
	.type	__pinctrl_state_pins_0__device_dts_ord_137, %object
	.size	__pinctrl_state_pins_0__device_dts_ord_137, 24
__pinctrl_state_pins_0__device_dts_ord_137:
	.word	1900565
	.word	2031636
	.word	2097176
	.word	2162710
	.word	2228247
	.word	1966105
	.section	.data.qspi_nor_dev_data,"aw"
	.align	2
	.type	qspi_nor_dev_data, %object
	.size	qspi_nor_dev_data, 100
qspi_nor_dev_data:
	.word	qspi_nor_dev_data
	.word	qspi_nor_dev_data
	.word	1
	.word	1
	.word	qspi_nor_dev_data+16
	.word	qspi_nor_dev_data+16
	.word	qspi_nor_dev_data+24
	.word	qspi_nor_dev_data+24
	.word	1
	.word	1
	.word	qspi_nor_dev_data+40
	.word	qspi_nor_dev_data+40
	.word	qspi_nor_dev_data+48
	.word	qspi_nor_dev_data+48
	.word	0
	.word	1
	.word	qspi_nor_dev_data+64
	.word	qspi_nor_dev_data+64
	.word	qspi_nor_dev_data+72
	.word	qspi_nor_dev_data+72
	.word	0
	.word	-1
	.word	qspi_nor_dev_data+88
	.word	qspi_nor_dev_data+88
	.space	4
	.section	.rodata.qspi_nor_api,"a"
	.align	2
	.type	qspi_nor_api, %object
	.size	qspi_nor_api, 20
qspi_nor_api:
	.word	qspi_nor_read
	.word	qspi_nor_write
	.word	qspi_nor_erase
	.word	qspi_flash_get_parameters
	.word	qspi_nor_pages_layout
	.section	.rodata.dev_layout,"a"
	.align	2
	.type	dev_layout, %object
	.size	dev_layout, 8
dev_layout:
	.word	4
	.word	65536
	.section	.intList,"aw"
	.align	2
	.type	__isr_nrfx_isr_irq_0.1, %object
	.size	__isr_nrfx_isr_irq_0.1, 16
__isr_nrfx_isr_irq_0.1:
	.word	41
	.word	0
	.word	nrfx_isr
	.word	nrfx_qspi_irq_handler
	.section	.bss.qspi_initialized,"aw",%nobits
	.type	qspi_initialized, %object
	.size	qspi_initialized, 1
qspi_initialized:
	.space	1
	.global	log_const_qspi_nor
	.section	.rodata.str1.1
.LC15:
	.ascii	"qspi_nor\000"
	.section	._log_const.static.log_const_qspi_nor_,"a"
	.align	2
	.type	log_const_qspi_nor, %object
	.size	log_const_qspi_nor, 8
log_const_qspi_nor:
	.word	.LC15
	.byte	3
	.space	3
	.text
.Letext0:
	.file 8 "/home/g/zephyr-sdk-0.16.3/arm-zephyr-eabi/lib/gcc/arm-zephyr-eabi/12.2.0/include/stddef.h"
	.file 9 "/home/g/zephyr-sdk-0.16.3/arm-zephyr-eabi/picolibc/include/machine/_default_types.h"
	.file 10 "/home/g/zephyr-sdk-0.16.3/arm-zephyr-eabi/picolibc/include/sys/_stdint.h"
	.file 11 "/home/g/zephyr-sdk-0.16.3/arm-zephyr-eabi/picolibc/include/sys/_types.h"
	.file 12 "/home/g/zephyr-sdk-0.16.3/arm-zephyr-eabi/picolibc/include/sys/types.h"
	.file 13 "/home/g/mise-work/zmk-firmware/zmk/zephyr/include/zephyr/init.h"
	.file 14 "/home/g/mise-work/zmk-firmware/zmk/zephyr/include/zephyr/device.h"
	.file 15 "/home/g/mise-work/zmk-firmware/zmk/zephyr/include/zephyr/pm/device.h"
	.file 16 "/home/g/mise-work/zmk-firmware/zmk/zephyr/include/zephyr/drivers/flash.h"
	.file 17 "/home/g/mise-work/zmk-firmware/zmk/zephyr/include/zephyr/sys/atomic.h"
	.file 18 "/home/g/mise-work/zmk-firmware/zmk/zephyr/include/zephyr/sys/dlist.h"
	.file 19 "/home/g/mise-work/zmk-firmware/zmk/zephyr/include/zephyr/kernel_structs.h"
	.file 20 "/home/g/mise-work/zmk-firmware/zmk/zephyr/include/zephyr/sw_isr_table.h"
	.file 21 "/home/g/mise-work/zmk-firmware/zmk/modules/hal/nordic/nrfx/drivers/nrfx_errors.h"
	.file 22 "/home/g/mise-work/zmk-firmware/zmk/zephyr/include/zephyr/sys_clock.h"
	.file 23 "/home/g/mise-work/zmk-firmware/zmk/zephyr/include/zephyr/fatal_types.h"
	.file 24 "/home/g/mise-work/zmk-firmware/zmk/zephyr/soc/arm/nordic_nrf/common/./pinctrl_soc.h"
	.file 25 "/home/g/mise-work/zmk-firmware/zmk/zephyr/include/zephyr/logging/log_instance.h"
	.file 26 "/home/g/mise-work/zmk-firmware/zmk/zephyr/include/zephyr/sys/cbprintf.h"
	.file 27 "/home/g/mise-work/zmk-firmware/zmk/zephyr/include/zephyr/logging/log_msg.h"
	.file 28 "/home/g/mise-work/zmk-firmware/zmk/modules/hal/nordic/nrfx/hal/nrf_qspi.h"
	.file 29 "/home/g/mise-work/zmk-firmware/zmk/modules/hal/nordic/nrfx/drivers/include/nrfx_qspi.h"
	.file 30 "/home/g/mise-work/zmk-firmware/zmk/zephyr/modules/hal_nordic/nrfx/./nrfx_glue.h"
	.file 31 "/home/g/mise-work/zmk-firmware/zmk/zephyr/include/zephyr/arch/arm/irq.h"
	.file 32 "/home/g/zephyr-sdk-0.16.3/arm-zephyr-eabi/picolibc/include/string.h"
	.file 33 "/home/g/mise-work/zmk-firmware/zmk/zephyr/include/zephyr/sys/cbprintf_internal.h"
	.file 34 "<built-in>"
	.file 35 "/home/g/mise-work/zmk-firmware/zmk/zephyr/include/zephyr/syscall.h"