	.cpu cortex-m4
	.arch armv7e-m
	.fpu fpv4-sp-d16
	.eabi_attribute 27, 1
	.eabi_attribute 28, 1
	.eabi_attribute 20, 1
	.eabi_attribute 21, 1
	.eabi_attribute 23, 3
	.eabi_attribute 24, 1
	.eabi_attribute 25, 1
	.eabi_attribute 26, 1
	.eabi_attribute 30, 4
	.eabi_attribute 34, 1
	.eabi_attribute 38, 1
	.eabi_attribute 18, 4
	.file	"condvar.c"
	.text
.Ltext0:
	.cfi_sections	.debug_frame
	.file 1 "/home/g/mise-work/zmk-firmware/zmk/zephyr/kernel/condvar.c"
	.section	.text.z_impl_k_condvar_init,"ax",%progbits
	.align	1
	.global	z_impl_k_condvar_init
	.syntax unified
	.thumb
	.thumb_func
	.type	z_impl_k_condvar_init, %function
z_impl_k_condvar_init:
.LVL0:
.LFB495:
	.loc 1 22 1 view -0
	.cfi_startproc
	@ args = 0, pretend = 0, frame = 0
	@ frame_needed = 0, uses_anonymous_args = 0
	@ link register save eliminated.
	.loc 1 23 2 view .LVU1
.LBB38:
.LBI38:
	.file 2 "/home/g/mise-work/zmk-firmware/zmk/zephyr/kernel/include/wait_q.h"
	.loc 2 47 20 view .LVU2
.LBB39:
	.loc 2 49 2 view .LVU3
.LBB40:
.LBI40:
	.file 3 "/home/g/mise-work/zmk-firmware/zmk/zephyr/include/zephyr/sys/dlist.h"
	.loc 3 203 20 view .LVU4
.LBB41:
	.loc 3 205 2 view .LVU5
	.loc 3 206 13 is_stmt 0 view .LVU6
	strd	r0, r0, [r0]
.LVL1:
	.loc 3 206 13 view .LVU7
.LBE41:
.LBE40:
.LBE39:
.LBE38:
	.loc 1 24 2 is_stmt 1 view .LVU8
	.loc 1 30 2 view .LVU9
	.loc 1 30 7 view .LVU10
	.loc 1 30 5 view .LVU11
	.loc 1 32 2 view .LVU12
	.loc 1 33 1 is_stmt 0 view .LVU13
	movs	r0, #0
.LVL2:
	.loc 1 33 1 view .LVU14
	bx	lr
	.cfi_endproc
.LFE495:
	.size	z_impl_k_condvar_init, .-z_impl_k_condvar_init
	.section	.text.z_impl_k_condvar_signal,"ax",%progbits
	.align	1
	.global	z_impl_k_condvar_signal
	.syntax unified
	.thumb
	.thumb_func
	.type	z_impl_k_condvar_signal, %function
z_impl_k_condvar_signal:
.LVL3:
.LFB496:
	.loc 1 45 1 is_stmt 1 view -0
	.cfi_startproc
	@ args = 0, pretend = 0, frame = 0
	@ frame_needed = 0, uses_anonymous_args = 0
	.loc 1 46 2 view .LVU16
.LBB42:
.LBI42:
	.file 4 "/home/g/mise-work/zmk-firmware/zmk/zephyr/include/zephyr/spinlock.h"
	.loc 4 160 63 view .LVU17
.LBB43:
	.loc 4 162 2 view .LVU18
	.loc 4 163 2 view .LVU19
	.loc 4 169 2 view .LVU20
.LBB44:
.LBI44:
	.file 5 "/home/g/mise-work/zmk-firmware/zmk/zephyr/include/zephyr/arch/arm/asm_inline_gcc.h"
	.loc 5 42 59 view .LVU21
.LBB45:
	.loc 5 44 2 view .LVU22
	.loc 5 57 2 view .LVU23
	.loc 5 59 2 view .LVU24
.LBE45:
.LBE44:
.LBE43:
.LBE42:
	.loc 1 45 1 is_stmt 0 view .LVU25
	push	{r4, lr}
	.cfi_def_cfa_offset 8
	.cfi_offset 4, -8
	.cfi_offset 14, -4
.LBB49:
.LBB48:
.LBB47:
.LBB46:
	.loc 5 59 2 view .LVU26
	.syntax unified
@ 59 "/home/g/mise-work/zmk-firmware/zmk/zephyr/include/zephyr/arch/arm/asm_inline_gcc.h" 1
	mov r3, #32;mrs r4, BASEPRI;msr BASEPRI_MAX, r3;isb;
@ 0 "" 2
.LVL4:
	.loc 5 88 2 is_stmt 1 view .LVU27
	.loc 5 88 2 is_stmt 0 view .LVU28
	.thumb
	.syntax unified
.LBE46:
.LBE47:
	.loc 4 171 2 is_stmt 1 view .LVU29
	.loc 4 177 2 view .LVU30
	.loc 4 179 2 view .LVU31
	.loc 4 179 2 is_stmt 0 view .LVU32
.LBE48:
.LBE49:
	.loc 1 48 2 is_stmt 1 view .LVU33
	.loc 1 48 7 view .LVU34
	.loc 1 48 5 view .LVU35
	.loc 1 50 2 view .LVU36
	.loc 1 50 28 is_stmt 0 view .LVU37
	bl	z_unpend_first_thread
.LVL5:
	.loc 1 52 2 is_stmt 1 view .LVU38
	.loc 1 52 5 is_stmt 0 view .LVU39
	cbz	r0, .L3
	.loc 1 53 3 is_stmt 1 view .LVU40
	.loc 1 53 8 view .LVU41
	.loc 1 53 6 view .LVU42
	.loc 1 55 3 view .LVU43
.LVL6:
.LBB50:
.LBI50:
	.file 6 "/home/g/mise-work/zmk-firmware/zmk/zephyr/arch/arm/include/cortex_m/kernel_arch_func.h"
	.loc 6 59 1 view .LVU44
.LBB51:
	.loc 6 61 2 view .LVU45
	.loc 6 61 33 is_stmt 0 view .LVU46
	movs	r2, #0
	str	r2, [r0, #124]
.LVL7:
	.loc 6 61 33 view .LVU47
.LBE51:
.LBE50:
	.loc 1 56 3 is_stmt 1 view .LVU48
	bl	z_ready_thread
.LVL8:
	.loc 1 57 3 view .LVU49
	ldr	r0, .L5
	mov	r1, r4
	bl	z_reschedule
.LVL9:
.L4:
	.loc 1 62 2 view .LVU50
	.loc 1 62 7 view .LVU51
	.loc 1 62 5 view .LVU52
	.loc 1 64 2 view .LVU53
	.loc 1 65 1 is_stmt 0 view .LVU54
	movs	r0, #0
	pop	{r4, pc}
.LVL10:
.L3:
	.loc 1 59 3 is_stmt 1 view .LVU55
.LBB52:
.LBI52:
	.loc 4 235 51 view .LVU56
	.loc 4 238 2 view .LVU57
	.loc 4 261 2 view .LVU58
.LBB53:
.LBI53:
	.loc 5 96 51 view .LVU59
.LBB54:
	.loc 5 107 2 view .LVU60
	.syntax unified
@ 107 "/home/g/mise-work/zmk-firmware/zmk/zephyr/include/zephyr/arch/arm/asm_inline_gcc.h" 1
	msr BASEPRI, r4;isb;
@ 0 "" 2
.LVL11:
	.loc 5 107 2 is_stmt 0 view .LVU61
	.thumb
	.syntax unified
	b	.L4
.L6:
	.align	2
.L5:
	.word	lock
.LBE54:
.LBE53:
.LBE52:
	.cfi_endproc
.LFE496:
	.size	z_impl_k_condvar_signal, .-z_impl_k_condvar_signal
	.section	.text.z_impl_k_condvar_broadcast,"ax",%progbits
	.align	1
	.global	z_impl_k_condvar_broadcast
	.syntax unified
	.thumb
	.thumb_func
	.type	z_impl_k_condvar_broadcast, %function
z_impl_k_condvar_broadcast:
.LVL12:
.LFB497:
	.loc 1 77 1 is_stmt 1 view -0
	.cfi_startproc
	@ args = 0, pretend = 0, frame = 0
	@ frame_needed = 0, uses_anonymous_args = 0
	.loc 1 78 2 view .LVU63
	.loc 1 79 2 view .LVU64
	.loc 1 80 2 view .LVU65
	.loc 1 82 2 view .LVU66
.LBB55:
.LBI55:
	.loc 4 160 63 view .LVU67
.LBB56:
	.loc 4 162 2 view .LVU68
	.loc 4 163 2 view .LVU69
	.loc 4 169 2 view .LVU70
.LBB57:
.LBI57:
	.loc 5 42 59 view .LVU71
.LBB58:
	.loc 5 44 2 view .LVU72
	.loc 5 57 2 view .LVU73
	.loc 5 59 2 view .LVU74
.LBE58:
.LBE57:
.LBE56:
.LBE55:
	.loc 1 77 1 is_stmt 0 view .LVU75
	push	{r3, r4, r5, r6, r7, lr}
	.cfi_def_cfa_offset 24
	.cfi_offset 3, -24
	.cfi_offset 4, -20
	.cfi_offset 5, -16
	.cfi_offset 6, -12
	.cfi_offset 7, -8
	.cfi_offset 14, -4
	.loc 1 77 1 view .LVU76
	mov	r5, r0
.LBB62:
.LBB61:
.LBB60:
.LBB59:
	.loc 5 59 2 view .LVU77
	.syntax unified
@ 59 "/home/g/mise-work/zmk-firmware/zmk/zephyr/include/zephyr/arch/arm/asm_inline_gcc.h" 1
	mov r3, #32;mrs r6, BASEPRI;msr BASEPRI_MAX, r3;isb;
@ 0 "" 2
.LVL13:
	.loc 5 88 2 is_stmt 1 view .LVU78
	.loc 5 88 2 is_stmt 0 view .LVU79
	.thumb
	.syntax unified
.LBE59:
.LBE60:
	.loc 4 171 2 is_stmt 1 view .LVU80
	.loc 4 177 2 view .LVU81
	.loc 4 179 2 view .LVU82
	.loc 4 179 2 is_stmt 0 view .LVU83
.LBE61:
.LBE62:
	.loc 1 80 6 view .LVU84
	movs	r4, #0
.LBB63:
.LBB64:
	.loc 6 61 33 view .LVU85
	mov	r7, r4
.LVL14:
.L8:
	.loc 6 61 33 view .LVU86
.LBE64:
.LBE63:
	.loc 1 87 68 is_stmt 1 view .LVU87
	.loc 1 87 27 is_stmt 0 view .LVU88
	mov	r0, r5
	bl	z_unpend_first_thread
.LVL15:
	.loc 1 87 27 view .LVU89
	mov	r3, r0
	.loc 1 87 68 view .LVU90
	cbnz	r0, .L9
	.loc 1 94 2 is_stmt 1 view .LVU91
	.loc 1 94 7 view .LVU92
	.loc 1 94 5 view .LVU93
	.loc 1 96 2 view .LVU94
	ldr	r0, .L10
.LVL16:
	.loc 1 96 2 is_stmt 0 view .LVU95
	mov	r1, r6
	bl	z_reschedule
.LVL17:
	.loc 1 98 2 is_stmt 1 view .LVU96
	.loc 1 99 1 is_stmt 0 view .LVU97
	mov	r0, r4
	pop	{r3, r4, r5, r6, r7, pc}
.LVL18:
.L9:
	.loc 1 89 3 is_stmt 1 view .LVU98
.LBB67:
.LBB65:
	.loc 6 61 33 is_stmt 0 view .LVU99
	str	r7, [r3, #124]
.LBE65:
.LBE67:
	.loc 1 89 8 view .LVU100
	adds	r4, r4, #1
.LVL19:
	.loc 1 90 3 is_stmt 1 view .LVU101
.LBB68:
.LBI63:
	.loc 6 59 1 view .LVU102
.LBB66:
	.loc 6 61 2 view .LVU103
	.loc 6 61 2 is_stmt 0 view .LVU104
.LBE66:
.LBE68:
	.loc 1 91 3 is_stmt 1 view .LVU105
	bl	z_ready_thread
.LVL20:
	.loc 1 91 3 is_stmt 0 view .LVU106
	b	.L8
.L11:
	.align	2
.L10:
	.word	lock
	.cfi_endproc
.LFE497:
	.size	z_impl_k_condvar_broadcast, .-z_impl_k_condvar_broadcast
	.section	.text.z_impl_k_condvar_wait,"ax",%progbits
	.align	1
	.global	z_impl_k_condvar_wait
	.syntax unified
	.thumb
	.thumb_func
	.type	z_impl_k_condvar_wait, %function
z_impl_k_condvar_wait:
.LVL21:
.LFB498:
	.loc 1 111 1 is_stmt 1 view -0
	.cfi_startproc
	@ args = 0, pretend = 0, frame = 0
	@ frame_needed = 0, uses_anonymous_args = 0
	.loc 1 112 2 view .LVU108
	.loc 1 113 2 view .LVU109
	.loc 1 115 2 view .LVU110
	.loc 1 115 7 view .LVU111
	.loc 1 115 5 view .LVU112
	.loc 1 117 2 view .LVU113
.LBB77:
.LBI77:
	.loc 4 160 63 view .LVU114
.LBB78:
	.loc 4 162 2 view .LVU115
	.loc 4 163 2 view .LVU116
	.loc 4 169 2 view .LVU117
.LBB79:
.LBI79:
	.loc 5 42 59 view .LVU118
.LBB80:
	.loc 5 44 2 view .LVU119
	.loc 5 57 2 view .LVU120
	.loc 5 59 2 view .LVU121
.LBE80:
.LBE79:
.LBE78:
.LBE77:
	.loc 1 111 1 is_stmt 0 view .LVU122
	push	{r0, r1, r4, r5, r6, r7, r8, lr}
	.cfi_def_cfa_offset 32
	.cfi_offset 4, -24
	.cfi_offset 5, -20
	.cfi_offset 6, -16
	.cfi_offset 7, -12
	.cfi_offset 8, -8
	.cfi_offset 14, -4
	.loc 1 111 1 view .LVU123
	mov	r5, r0
	mov	r4, r1
	mov	r7, r2
.LVL22:
	.loc 1 111 1 view .LVU124
	mov	r6, r3
.LBB84:
.LBB83:
.LBB82:
.LBB81:
	.loc 5 59 2 view .LVU125
	.syntax unified
@ 59 "/home/g/mise-work/zmk-firmware/zmk/zephyr/include/zephyr/arch/arm/asm_inline_gcc.h" 1
	mov r3, #32;mrs r8, BASEPRI;msr BASEPRI_MAX, r3;isb;
@ 0 "" 2
.LVL23:
	.loc 5 88 2 is_stmt 1 view .LVU126
	.loc 5 88 2 is_stmt 0 view .LVU127
	.thumb
	.syntax unified
.LBE81:
.LBE82:
	.loc 4 171 2 is_stmt 1 view .LVU128
	.loc 4 177 2 view .LVU129
	.loc 4 179 2 view .LVU130
	.loc 4 179 2 is_stmt 0 view .LVU131
.LBE83:
.LBE84:
	.loc 1 118 2 is_stmt 1 view .LVU132
.LBB85:
.LBI85:
	.file 7 "/home/g/mise-work/zmk-firmware/zmk/app/build/zephyr/include/generated/syscalls/kernel.h"
	.loc 7 993 19 view .LVU133
.LBB86:
	.loc 7 1001 2 view .LVU134
	.loc 7 1001 7 view .LVU135
	.loc 7 1001 5 view .LVU136
	.loc 7 1002 2 view .LVU137
	.loc 7 1002 9 is_stmt 0 view .LVU138
	mov	r0, r1
.LVL24:
	.loc 7 1002 9 view .LVU139
	bl	z_impl_k_mutex_unlock
.LVL25:
	.loc 7 1002 9 view .LVU140
.LBE86:
.LBE85:
	.loc 1 120 2 is_stmt 1 view .LVU141
	.loc 1 120 8 is_stmt 0 view .LVU142
	mov	r2, r5
.LVL26:
	.loc 1 120 8 view .LVU143
	strd	r7, r6, [sp]
	mov	r1, r8
	ldr	r0, .L13
	bl	z_pend_curr
.LVL27:
	mov	r5, r0
.LVL28:
	.loc 1 121 2 is_stmt 1 view .LVU144
.LBB87:
.LBI87:
	.loc 7 976 19 view .LVU145
.LBB88:
	.loc 7 985 2 view .LVU146
	.loc 7 985 7 view .LVU147
	.loc 7 985 5 view .LVU148
	.loc 7 986 2 view .LVU149
	.loc 7 986 9 is_stmt 0 view .LVU150
	mov	r2, #-1
	mov	r3, #-1
	mov	r0, r4
.LVL29:
	.loc 7 986 9 view .LVU151
	bl	z_impl_k_mutex_lock
.LVL30:
	.loc 7 986 9 view .LVU152
.LBE88:
.LBE87:
	.loc 1 123 2 is_stmt 1 view .LVU153
	.loc 1 123 7 view .LVU154
	.loc 1 123 5 view .LVU155
	.loc 1 125 2 view .LVU156
	.loc 1 126 1 is_stmt 0 view .LVU157
	mov	r0, r5
	add	sp, sp, #8
	.cfi_def_cfa_offset 24
	@ sp needed
	pop	{r4, r5, r6, r7, r8, pc}
.LVL31:
.L14:
	.loc 1 126 1 view .LVU158
	.align	2
.L13:
	.word	lock
	.cfi_endproc
.LFE498:
	.size	z_impl_k_condvar_wait, .-z_impl_k_condvar_wait
	.section	.bss.lock,"aw",%nobits
	.type	lock, %object
	.size	lock, 0
lock:
	.text
.Letext0:
	.file 8 "/home/g/zephyr-sdk-0.16.3/arm-zephyr-eabi/lib/gcc/arm-zephyr-eabi/12.2.0/include/stddef.h"
	.file 9 "/home/g/zephyr-sdk-0.16.3/arm-zephyr-eabi/picolibc/include/machine/_default_types.h"
	.file 10 "/home/g/zephyr-sdk-0.16.3/arm-zephyr-eabi/picolibc/include/sys/_stdint.h"
	.file 11 "/home/g/mise-work/zmk-firmware/zmk/zephyr/include/zephyr/sys/rb.h"
	.file 12 "/home/g/mise-work/zmk-firmware/zmk/zephyr/include/zephyr/sys/sys_heap.h"
	.file 13 "/home/g/mise-work/zmk-firmware/zmk/zephyr/include/zephyr/kernel/thread.h"
	.file 14 "/home/g/mise-work/zmk-firmware/zmk/zephyr/include/zephyr/kernel_structs.h"
	.file 15 "/home/g/mise-work/zmk-firmware/zmk/zephyr/include/zephyr/arch/arm/thread.h"
	.file 16 "/home/g/mise-work/zmk-firmware/zmk/zephyr/include/zephyr/sys_clock.h"
	.file 17 "/home/g/mise-work/zmk-firmware/zmk/zephyr/include/zephyr/kernel.h"
	.file 18 "/home/g/mise-work/zmk-firmware/zmk/zephyr/include/zephyr/fatal_types.h"
	.file 19 "/home/g/mise-work/zmk-firmware/zmk/zephyr/kernel/include/ksched.h"
	.file 20 "/home/g/mise-work/zmk-firmware/zmk/zephyr/include/zephyr/sys/kobject.h"