	.cpu cortex-m4
	.arch armv7e-m
	.fpu fpv4-sp-d16
	.eabi_attribute 27, 1
	.eabi_attribute 28, 1
	.eabi_attribute 20, 1
	.eabi_attribute 21, 1
	.eabi_attribute 23, 3
	.eabi_attribute 24, 1
	.eabi_attribute 25, 1
	.eabi_attribute 26, 1
	.eabi_attribute 30, 4
	.eabi_attribute 34, 1
	.eabi_attribute 38, 1
	.eabi_attribute 18, 4
	.file	"fatal.c"
	.text
.Ltext0:
	.cfi_sections	.debug_frame
	.file 1 "/home/g/mise-work/zmk-firmware/zmk/zephyr/kernel/fatal.c"
	.section	.text.coredump,"ax",%progbits
	.align	1
	.global	coredump
	.syntax unified
	.thumb
	.thumb_func
	.type	coredump, %function
coredump:
.LVL0:
.LFB506:
	.file 2 "/home/g/mise-work/zmk-firmware/zmk/zephyr/include/zephyr/debug/coredump.h"
	.loc 2 234 1 view -0
	.cfi_startproc
	@ args = 0, pretend = 0, frame = 0
	@ frame_needed = 0, uses_anonymous_args = 0
	@ link register save eliminated.
	.loc 2 235 2 view .LVU1
	.loc 2 236 2 view .LVU2
	.loc 2 237 2 view .LVU3
	.loc 2 238 1 is_stmt 0 view .LVU4
	bx	lr
	.cfi_endproc
.LFE506:
	.size	coredump, .-coredump
	.section	.text.coredump_memory_dump,"ax",%progbits
	.align	1
	.global	coredump_memory_dump
	.syntax unified
	.thumb
	.thumb_func
	.type	coredump_memory_dump, %function
coredump_memory_dump:
.LVL1:
.LFB507:
	.loc 2 241 1 is_stmt 1 view -0
	.cfi_startproc
	@ args = 0, pretend = 0, frame = 0
	@ frame_needed = 0, uses_anonymous_args = 0
	@ link register save eliminated.
	.loc 2 242 2 view .LVU6
	.loc 2 243 2 view .LVU7
	.loc 2 244 1 is_stmt 0 view .LVU8
	bx	lr
	.cfi_endproc
.LFE507:
	.size	coredump_memory_dump, .-coredump_memory_dump
	.section	.text.coredump_buffer_output,"ax",%progbits
	.align	1
	.global	coredump_buffer_output
	.syntax unified
	.thumb
	.thumb_func
	.type	coredump_buffer_output, %function
coredump_buffer_output:
.LVL2:
.LFB508:
	.loc 2 247 1 is_stmt 1 view -0
	.cfi_startproc
	@ args = 0, pretend = 0, frame = 0
	@ frame_needed = 0, uses_anonymous_args = 0
	@ link register save eliminated.
	.loc 2 248 2 view .LVU10
	.loc 2 249 2 view .LVU11
	.loc 2 250 1 is_stmt 0 view .LVU12
	bx	lr
	.cfi_endproc
.LFE508:
	.size	coredump_buffer_output, .-coredump_buffer_output
	.section	.text.coredump_query,"ax",%progbits
	.align	1
	.global	coredump_query
	.syntax unified
	.thumb
	.thumb_func
	.type	coredump_query, %function
coredump_query:
.LVL3:
.LFB509:
	.loc 2 253 1 is_stmt 1 view -0
	.cfi_startproc
	@ args = 0, pretend = 0, frame = 0
	@ frame_needed = 0, uses_anonymous_args = 0
	@ link register save eliminated.
	.loc 2 254 2 view .LVU14
	.loc 2 255 2 view .LVU15
	.loc 2 256 2 view .LVU16
	.loc 2 257 1 is_stmt 0 view .LVU17
	mvn	r0, #133
.LVL4:
	.loc 2 257 1 view .LVU18
	bx	lr
	.cfi_endproc
.LFE509:
	.size	coredump_query, .-coredump_query
	.section	.text.coredump_cmd,"ax",%progbits
	.align	1
	.global	coredump_cmd
	.syntax unified
	.thumb
	.thumb_func
	.type	coredump_cmd, %function
coredump_cmd:
.LFB518:
	.cfi_startproc
	.loc 2 259 5 is_stmt 1 view -0
	@ args = 0, pretend = 0, frame = 0
	@ frame_needed = 0, uses_anonymous_args = 0
	@ link register save eliminated.
	mvn	r0, #133
	bx	lr
	.cfi_endproc
.LFE518:
	.size	coredump_cmd, .-coredump_cmd
	.section	.text.arch_system_halt,"ax",%progbits
	.align	1
	.weak	arch_system_halt
	.syntax unified
	.thumb
	.thumb_func
	.type	arch_system_halt, %function
arch_system_halt:
.LVL5:
.LFB511:
	.loc 1 24 1 view -0
	.cfi_startproc
	@ Volatile: function does not return.
	@ args = 0, pretend = 0, frame = 0
	@ frame_needed = 0, uses_anonymous_args = 0
	@ link register save eliminated.
	.loc 1 25 2 view .LVU21
	.loc 1 31 2 view .LVU22
.LBB250:
.LBI250:
	.file 3 "/home/g/mise-work/zmk-firmware/zmk/zephyr/include/zephyr/arch/arm/asm_inline_gcc.h"
	.loc 3 42 59 view .LVU23
.LBB251:
	.loc 3 44 2 view .LVU24
	.loc 3 57 2 view .LVU25
	.loc 3 59 2 view .LVU26
	.syntax unified
@ 59 "/home/g/mise-work/zmk-firmware/zmk/zephyr/include/zephyr/arch/arm/asm_inline_gcc.h" 1
	mov r2, #32;mrs r3, BASEPRI;msr BASEPRI_MAX, r2;isb;
@ 0 "" 2
.LVL6:
	.loc 3 88 2 view .LVU27
	.thumb
	.syntax unified
.L7:
	.loc 3 88 2 is_stmt 0 view .LVU28
.LBE251:
.LBE250:
	.loc 1 32 2 is_stmt 1 discriminator 1 view .LVU29
	.loc 1 34 2 discriminator 1 view .LVU30
	.loc 1 32 2 discriminator 1 view .LVU31
	b	.L7
	.cfi_endproc
.LFE511:
	.size	arch_system_halt, .-arch_system_halt
	.section	.rodata.k_sys_fatal_error_handler.str1.1,"aMS",%progbits,1
.LC0:
	.ascii	"Halting system\000"
	.section	.text.k_sys_fatal_error_handler,"ax",%progbits
	.align	1
	.weak	k_sys_fatal_error_handler
	.syntax unified
	.thumb
	.thumb_func
	.type	k_sys_fatal_error_handler, %function
k_sys_fatal_error_handler:
.LVL7:
.LFB512:
	.loc 1 41 1 view -0
	.cfi_startproc
	@ args = 0, pretend = 0, frame = 24
	@ frame_needed = 0, uses_anonymous_args = 0
	.loc 1 42 2 view .LVU33
	.loc 1 44 2 view .LVU34
.LBB262:
.LBI262:
	.file 4 "/home/g/mise-work/zmk-firmware/zmk/app/build/zephyr/include/generated/syscalls/log_ctrl.h"
	.loc 4 26 20 view .LVU35
.LBB263:
	.loc 4 34 2 view .LVU36
	.loc 4 34 7 view .LVU37
.LBE263:
.LBE262:
	.loc 1 41 1 is_stmt 0 view .LVU38
	push	{r4, lr}
	.cfi_def_cfa_offset 8
	.cfi_offset 4, -8
	.cfi_offset 14, -4
	mov	r4, r0
	sub	sp, sp, #24
	.cfi_def_cfa_offset 32
.LBB265:
.LBB264:
	.loc 4 34 7 view .LVU39
	.loc 4 34 5 is_stmt 1 view .LVU40
	.loc 4 35 2 view .LVU41
	bl	z_impl_log_panic
.LVL8:
	.loc 4 35 2 is_stmt 0 view .LVU42
.LBE264:
.LBE265:
	.loc 1 45 2 is_stmt 1 view .LVU43
.LBB266:
	.loc 1 45 7 view .LVU44
	.loc 1 45 56 view .LVU45
	.loc 1 45 13 view .LVU46
	.loc 1 45 1 view .LVU47
	.loc 1 45 40 view .LVU48
	.loc 1 45 175 view .LVU49
	.loc 1 45 186 view .LVU50
	.loc 1 45 274 view .LVU51
	.loc 1 45 2 view .LVU52
	.loc 1 45 2 view .LVU53
.LBB267:
	.loc 1 45 7 view .LVU54
	.loc 1 45 1 view .LVU55
.LBE267:
.LBE266:
	.loc 1 45 2 view .LVU56
	.loc 1 45 11 view .LVU57
	.loc 1 45 106 view .LVU58
	.loc 1 45 2 view .LVU59
.LBB284:
.LBB280:
	.loc 1 45 11 view .LVU60
	.loc 1 45 101 view .LVU61
	.loc 1 45 103 view .LVU62
.LBB268:
	.loc 1 45 108 view .LVU63
	.loc 1 45 119 view .LVU64
	.loc 1 45 208 view .LVU65
	.loc 1 45 25 view .LVU66
.LBE268:
.LBE280:
.LBE284:
	.loc 1 45 2 view .LVU67
	.loc 1 45 367 view .LVU68
	.loc 1 45 74 view .LVU69
	.loc 1 45 1 view .LVU70
	.loc 1 45 1 view .LVU71
	.loc 1 45 1 view .LVU72
	.loc 1 45 37 view .LVU73
	.loc 1 45 3 view .LVU74
	.loc 1 45 29 view .LVU75
	.loc 1 45 55 view .LVU76
	.loc 1 45 78 view .LVU77
	.loc 1 45 140 view .LVU78
	.loc 1 45 197 view .LVU79
	.loc 1 45 262 view .LVU80
	.loc 1 45 287 view .LVU81
	.loc 1 45 288 view .LVU82
	.loc 1 45 290 view .LVU83
	.loc 1 45 320 view .LVU84
	.loc 1 45 350 view .LVU85
	.loc 1 45 382 view .LVU86
	.loc 1 45 414 view .LVU87
	.loc 1 45 446 view .LVU88
	.loc 1 45 643 view .LVU89
	.loc 1 45 667 view .LVU90
	.loc 1 45 668 view .LVU91
	.loc 1 45 670 view .LVU92
	.loc 1 45 699 view .LVU93
	.loc 1 45 728 view .LVU94
	.loc 1 45 759 view .LVU95
	.loc 1 45 790 view .LVU96
	.loc 1 45 821 view .LVU97
	.loc 1 45 1028 view .LVU98
	.loc 1 45 3 view .LVU99
	.loc 1 45 21 view .LVU100
	.loc 1 45 41 view .LVU101
	.loc 1 45 3 view .LVU102
	.loc 1 45 41 view .LVU103
	.loc 1 45 12 view .LVU104
	.loc 1 45 12 view .LVU105
	.loc 1 45 60 view .LVU106
	.loc 1 45 91 view .LVU107
	.loc 1 45 125 view .LVU108
	.loc 1 45 130 view .LVU109
	.loc 1 45 368 view .LVU110
	.loc 1 45 1373 view .LVU111
	.loc 1 45 1438 view .LVU112
	.loc 1 45 1462 view .LVU113
	.loc 1 45 1504 view .LVU114
	.loc 1 45 1515 view .LVU115
	.loc 1 45 1615 view .LVU116
	.loc 1 45 1631 view .LVU117
	.loc 1 45 1671 view .LVU118
	.loc 1 45 1696 view .LVU119
	.loc 1 45 2961 view .LVU120
	.loc 1 45 3002 view .LVU121
	.loc 1 45 6 view .LVU122
	.loc 1 45 29 view .LVU123
	.loc 1 45 128 view .LVU124
	.loc 1 45 4 view .LVU125
	.loc 1 45 27 view .LVU126
	.loc 1 45 51 view .LVU127
	.loc 1 45 79 view .LVU128
	.loc 1 45 255 view .LVU129
	.loc 1 45 15 view .LVU130
.LBB285:
.LBB281:
.LBB277:
	.loc 1 45 28 view .LVU131
	.loc 1 45 2 view .LVU132
	.loc 1 45 2 view .LVU133
	.loc 1 45 69 view .LVU134
	.loc 1 45 73 view .LVU135
	.loc 1 45 483 view .LVU136
	.loc 1 45 4 view .LVU137
	.loc 1 45 6 view .LVU138
	.loc 1 45 11 view .LVU139
	.loc 1 45 9 view .LVU140
	.loc 1 45 4 view .LVU141
	.loc 1 45 22 view .LVU142
.LBB269:
	.loc 1 45 2 view .LVU143
	.loc 1 45 367 view .LVU144
	.loc 1 45 74 view .LVU145
.LVL9:
	.loc 1 45 1 view .LVU146
	.loc 1 45 1 view .LVU147
	.loc 1 45 1 view .LVU148
	.loc 1 45 37 view .LVU149
	.loc 1 45 66 view .LVU150
	.loc 1 45 92 view .LVU151
	.loc 1 45 118 view .LVU152
	.loc 1 45 141 view .LVU153
	.loc 1 45 203 view .LVU154
	.loc 1 45 260 view .LVU155
	.loc 1 45 325 view .LVU156
	.loc 1 45 350 view .LVU157
	.loc 1 45 351 view .LVU158
	.loc 1 45 353 view .LVU159
	.loc 1 45 383 view .LVU160
	.loc 1 45 413 view .LVU161
	.loc 1 45 445 view .LVU162
	.loc 1 45 477 view .LVU163
	.loc 1 45 509 view .LVU164
	.loc 1 45 706 view .LVU165
	.loc 1 45 730 view .LVU166
	.loc 1 45 731 view .LVU167
	.loc 1 45 733 view .LVU168
	.loc 1 45 762 view .LVU169
	.loc 1 45 791 view .LVU170
	.loc 1 45 822 view .LVU171
	.loc 1 45 853 view .LVU172
	.loc 1 45 884 view .LVU173
	.loc 1 45 1091 view .LVU174
	.loc 1 45 3 view .LVU175
	.loc 1 45 21 view .LVU176
	.loc 1 45 41 view .LVU177
	.loc 1 45 3 view .LVU178
	.loc 1 45 41 view .LVU179
	.loc 1 45 12 view .LVU180
	.loc 1 45 12 view .LVU181
	.loc 1 45 60 view .LVU182
	.loc 1 45 91 view .LVU183
	.loc 1 45 125 view .LVU184
.LBB270:
	.loc 1 45 130 view .LVU185
	.loc 1 45 368 view .LVU186
	.loc 1 45 1373 view .LVU187
	.loc 1 45 1438 view .LVU188
.LBE270:
.LBE269:
.LBE277:
.LBE281:
.LBE285:
	.loc 1 45 1462 view .LVU189
	.loc 1 45 1504 view .LVU190
	.loc 1 45 1515 view .LVU191
	.loc 1 45 1615 view .LVU192
.LBB286:
.LBB282:
.LBB278:
.LBB273:
.LBB271:
	.loc 1 45 1631 view .LVU193
	.loc 1 45 1671 view .LVU194
	.loc 1 45 1696 view .LVU195
	.loc 1 45 2961 view .LVU196
	.loc 1 45 2999 view .LVU197
	.loc 1 45 3004 view .LVU198
	.loc 1 45 3526 view .LVU199
	.loc 1 45 0 is_stmt 0 view .LVU200
	ldr	r3, .L9
	str	r3, [sp, #20]
	.loc 1 45 3002 is_stmt 1 view .LVU201
	.loc 1 45 6 view .LVU202
.LVL10:
	.loc 1 45 29 view .LVU203
	.loc 1 45 29 is_stmt 0 view .LVU204
.LBE271:
	.loc 1 45 128 is_stmt 1 view .LVU205
	.loc 1 45 4 view .LVU206
	.loc 1 45 27 view .LVU207
	.loc 1 45 51 view .LVU208
	.loc 1 45 79 view .LVU209
.LBE273:
.LBE278:
.LBE282:
.LBE286:
	.loc 1 45 5 view .LVU210
	.loc 1 45 44 view .LVU211
	.loc 1 45 49 view .LVU212
	.loc 1 45 79 view .LVU213
	.loc 1 45 146 view .LVU214
	.loc 1 45 151 view .LVU215
	.loc 1 45 181 view .LVU216
.LBB287:
.LBB283:
.LBB279:
.LBB274:
	.loc 1 45 255 view .LVU217
	.loc 1 45 15 view .LVU218
.LBB272:
	.loc 1 45 5 view .LVU219
	.loc 1 45 163 view .LVU220
	.loc 1 45 165 view .LVU221
	.loc 1 45 175 is_stmt 0 view .LVU222
	movs	r3, #2
	str	r3, [sp, #16]
.LVL11:
	.loc 1 45 175 view .LVU223
.LBE272:
.LBE274:
	.loc 1 45 25 is_stmt 1 view .LVU224
	.loc 1 45 6 view .LVU225
	.loc 1 45 146 view .LVU226
	.loc 1 45 148 view .LVU227
.LBB275:
.LBI275:
	.file 5 "/home/g/mise-work/zmk-firmware/zmk/app/build/zephyr/include/generated/syscalls/log_msg.h"
	.loc 5 26 20 view .LVU228
.LBB276:
	.loc 5 38 2 view .LVU229
	.loc 5 38 7 view .LVU230
	.loc 5 38 5 view .LVU231
	.loc 5 39 2 view .LVU232
	ldr	r0, .L9+4
	movs	r3, #0
	add	r2, sp, #16
.LVL12:
	.loc 5 39 2 is_stmt 0 view .LVU233
	mov	r1, #4160
	bl	z_impl_z_log_msg_static_create
.LVL13:
	.loc 5 39 2 view .LVU234
.LBE276:
.LBE275:
.LBE279:
	.loc 1 45 106 is_stmt 1 view .LVU235
	.loc 1 45 4 view .LVU236
.LVL14:
	.loc 1 45 41 view .LVU237
.LBE283:
	.loc 1 45 5 view .LVU238
	.loc 1 45 277 view .LVU239
	.loc 1 45 4 view .LVU240
	.loc 1 45 17 view .LVU241
.LBE287:
	.loc 1 45 5 view .LVU242
	.loc 1 46 2 view .LVU243
	mov	r0, r4
	bl	arch_system_halt
.LVL15:
.L10:
	.align	2
.L9:
	.word	.LC0
	.word	log_const_os
	.cfi_endproc
.LFE512:
	.size	k_sys_fatal_error_handler, .-k_sys_fatal_error_handler
	.section	.text.k_fatal_halt,"ax",%progbits
	.align	1
	.global	k_fatal_halt
	.syntax unified
	.thumb
	.thumb_func
	.type	k_fatal_halt, %function
k_fatal_halt:
.LVL16:
.LFB515:
	.loc 1 82 1 view -0
	.cfi_startproc
	@ Volatile: function does not return.
	@ args = 0, pretend = 0, frame = 0
	@ frame_needed = 0, uses_anonymous_args = 0
	.loc 1 83 2 view .LVU245
	.loc 1 82 1 is_stmt 0 view .LVU246
	push	{r3, lr}
	.cfi_def_cfa_offset 8
	.cfi_offset 3, -8
	.cfi_offset 14, -4
	.loc 1 83 2 view .LVU247
	bl	arch_system_halt
.LVL17:
	.loc 1 83 2 view .LVU248
	.cfi_endproc
.LFE515:
	.size	k_fatal_halt, .-k_fatal_halt
	.section	.rodata.z_fatal_error.str1.1,"aMS",%progbits,1
.LC1:
	.ascii	"Unknown error\000"
.LC2:
	.ascii	"unknown\000"
.LC3:
	.ascii	">>> ZEPHYR FATAL ERROR %d: %s on CPU %d\000"
.LC4:
	.ascii	"Fault during interrupt handling\012\000"
.LC5:
	.ascii	"Current thread: %p (%s)\000"
	.section	.text.z_fatal_error,"ax",%progbits
	.align	1
	.global	z_fatal_error
	.syntax unified
	.thumb
	.thumb_func
	.type	z_fatal_error, %function
z_fatal_error:
.LVL18:
.LFB516:
	.loc 1 88 1 is_stmt 1 view -0
	.cfi_startproc
	@ args = 0, pretend = 0, frame = 24
	@ frame_needed = 1, uses_anonymous_args = 0
	.loc 1 93 2 view .LVU250
.LBB337:
.LBI337:
	.loc 3 42 59 view .LVU251
.LBB338:
	.loc 3 44 2 view .LVU252
	.loc 3 57 2 view .LVU253
	.loc 3 59 2 view .LVU254
.LBE338:
.LBE337:
	.loc 1 88 1 is_stmt 0 view .LVU255
	push	{r4, r5, r6, r7, r8, r9, lr}
	.cfi_def_cfa_offset 28
	.cfi_offset 4, -28
	.cfi_offset 5, -24
	.cfi_offset 6, -20
	.cfi_offset 7, -16
	.cfi_offset 8, -12
	.cfi_offset 9, -8
	.cfi_offset 14, -4
	sub	sp, sp, #28
	.cfi_def_cfa_offset 56
	mov	r4, r0
	add	r7, sp, #0
	.cfi_def_cfa_register 7
	.loc 1 88 1 view .LVU256
	mov	r5, r1
.LBB340:
.LBB339:
	.loc 3 59 2 view .LVU257
	.syntax unified
@ 59 "/home/g/mise-work/zmk-firmware/zmk/zephyr/include/zephyr/arch/arm/asm_inline_gcc.h" 1
	mov r3, #32;mrs r8, BASEPRI;msr BASEPRI_MAX, r3;isb;
@ 0 "" 2
.LVL19:
	.loc 3 88 2 is_stmt 1 view .LVU258
	.loc 3 88 2 is_stmt 0 view .LVU259
	.thumb
	.syntax unified
.LBE339:
.LBE340:
	.loc 1 94 2 is_stmt 1 view .LVU260
	cmp	r0, #4
	.loc 1 94 19 is_stmt 0 view .LVU261
	ldr	r2, .L30
	it	ls
	ldrls	r3, .L30+4
	ldr	r6, [r2, #8]
.LVL20:
	.loc 1 100 2 is_stmt 1 view .LVU262
.LBB341:
	.loc 1 100 7 view .LVU263
	.loc 1 100 56 view .LVU264
	.loc 1 100 13 view .LVU265
	.loc 1 100 1 view .LVU266
	.loc 1 100 40 view .LVU267
	.loc 1 100 175 view .LVU268
	.loc 1 100 186 view .LVU269
	.loc 1 100 274 view .LVU270
.LBB342:
	.loc 1 100 2 view .LVU271
	.loc 1 100 4 view .LVU272
	.loc 1 100 37 view .LVU273
.LBB343:
.LBI343:
	.loc 1 62 20 view .LVU274
	.loc 1 64 2 view .LVU275
.LBE343:
	.loc 1 100 97 is_stmt 0 view .LVU276
	ldrb	r1, [r2, #16]	@ zero_extendqisi2
.LVL21:
	.loc 1 100 97 view .LVU277
	ite	ls
	ldrls	r3, [r3, r0, lsl #2]
.LBE342:
.LBE341:
	.loc 1 94 19 view .LVU278
	ldrhi	r3, .L30+8
.LVL22:
.LBB376:
.LBB371:
	.loc 1 100 85 is_stmt 1 view .LVU279
	.loc 1 100 2 view .LVU280
.LBB344:
	.loc 1 100 7 view .LVU281
	.loc 1 100 1 view .LVU282
.LBE344:
.LBE371:
.LBE376:
	.loc 1 100 2 view .LVU283
	.loc 1 100 11 view .LVU284
	.loc 1 100 106 view .LVU285
	.loc 1 100 2 view .LVU286
.LBB377:
.LBB372:
.LBB367:
	.loc 1 100 11 view .LVU287
	.loc 1 100 101 view .LVU288
	.loc 1 100 103 view .LVU289
.LBB345:
	.loc 1 100 106 is_stmt 0 view .LVU290
	mov	r9, sp
	.loc 1 100 108 is_stmt 1 view .LVU291
	.loc 1 100 119 view .LVU292
.LVL23:
	.loc 1 100 208 view .LVU293
	.loc 1 100 25 view .LVU294
.LBE345:
.LBE367:
.LBE372:
.LBE377:
	.loc 1 100 2 view .LVU295
	.loc 1 100 367 view .LVU296
	.loc 1 100 74 view .LVU297
	.loc 1 100 1 view .LVU298
	.loc 1 100 1 view .LVU299
	.loc 1 100 1 view .LVU300
	.loc 1 100 37 view .LVU301
	.loc 1 100 3 view .LVU302
	.loc 1 100 29 view .LVU303
	.loc 1 100 55 view .LVU304
	.loc 1 100 1414 view .LVU305
	.loc 1 100 1476 view .LVU306
	.loc 1 100 2929 view .LVU307
	.loc 1 100 2994 view .LVU308
	.loc 1 100 3019 view .LVU309
	.loc 1 100 3020 view .LVU310
	.loc 1 100 3022 view .LVU311
	.loc 1 100 3052 view .LVU312
	.loc 1 100 3082 view .LVU313
	.loc 1 100 3114 view .LVU314
	.loc 1 100 3146 view .LVU315
	.loc 1 100 3178 view .LVU316
	.loc 1 100 3375 view .LVU317
	.loc 1 100 3399 view .LVU318
	.loc 1 100 3400 view .LVU319
	.loc 1 100 3402 view .LVU320
	.loc 1 100 3431 view .LVU321
	.loc 1 100 3460 view .LVU322
	.loc 1 100 3491 view .LVU323
	.loc 1 100 3522 view .LVU324
	.loc 1 100 3553 view .LVU325
	.loc 1 100 3760 view .LVU326
	.loc 1 100 3 view .LVU327
	.loc 1 100 21 view .LVU328
	.loc 1 100 41 view .LVU329
	.loc 1 100 3 view .LVU330
	.loc 1 100 41 view .LVU331
	.loc 1 100 12 view .LVU332
	.loc 1 100 12 view .LVU333
	.loc 1 100 60 view .LVU334
	.loc 1 100 91 view .LVU335
	.loc 1 100 125 view .LVU336
	.loc 1 100 130 view .LVU337
	.loc 1 100 393 view .LVU338
	.loc 1 100 1498 view .LVU339
	.loc 1 100 1563 view .LVU340
	.loc 1 100 1587 view .LVU341
	.loc 1 100 1654 view .LVU342
	.loc 1 100 1665 view .LVU343
	.loc 1 100 1790 view .LVU344
	.loc 1 100 1806 view .LVU345
	.loc 1 100 1846 view .LVU346
	.loc 1 100 1871 view .LVU347
	.loc 1 100 3186 view .LVU348
	.loc 1 100 3227 view .LVU349
	.loc 1 100 6 view .LVU350
	.loc 1 100 29 view .LVU351
	.loc 1 100 128 view .LVU352
	.loc 1 100 5 view .LVU353
	.loc 1 100 10 view .LVU354
	.loc 1 100 235 view .LVU355
	.loc 1 100 1188 view .LVU356
	.loc 1 100 1253 view .LVU357
	.loc 1 100 1277 view .LVU358
	.loc 1 100 1306 view .LVU359
	.loc 1 100 1317 view .LVU360
	.loc 1 100 1404 view .LVU361
	.loc 1 100 1420 view .LVU362
	.loc 1 100 1460 view .LVU363
	.loc 1 100 2724 view .LVU364
	.loc 1 100 2765 view .LVU365
	.loc 1 100 6 view .LVU366
	.loc 1 100 29 view .LVU367
	.loc 1 100 8 view .LVU368
	.loc 1 100 5 view .LVU369
	.loc 1 100 10 view .LVU370
	.loc 1 100 235 view .LVU371
	.loc 1 100 1188 view .LVU372
	.loc 1 100 1253 view .LVU373
	.loc 1 100 1277 view .LVU374
	.loc 1 100 1306 view .LVU375
	.loc 1 100 1317 view .LVU376
	.loc 1 100 1404 view .LVU377
	.loc 1 100 1420 view .LVU378
	.loc 1 100 1460 view .LVU379
	.loc 1 100 1550 view .LVU380
	.loc 1 100 1953 view .LVU381
	.loc 1 100 2610 view .LVU382
	.loc 1 100 2629 view .LVU383
	.loc 1 100 2666 view .LVU384
	.loc 1 100 2724 view .LVU385
	.loc 1 100 2765 view .LVU386
	.loc 1 100 6 view .LVU387
	.loc 1 100 29 view .LVU388
	.loc 1 100 8 view .LVU389
	.loc 1 100 5 view .LVU390
	.loc 1 100 10 view .LVU391
	.loc 1 100 235 view .LVU392
	.loc 1 100 1188 view .LVU393
	.loc 1 100 1253 view .LVU394
	.loc 1 100 1277 view .LVU395
	.loc 1 100 1306 view .LVU396
	.loc 1 100 1317 view .LVU397
	.loc 1 100 1404 view .LVU398
	.loc 1 100 1420 view .LVU399
	.loc 1 100 1460 view .LVU400
	.loc 1 100 2724 view .LVU401
	.loc 1 100 2765 view .LVU402
	.loc 1 100 6 view .LVU403
	.loc 1 100 29 view .LVU404
	.loc 1 100 8 view .LVU405
	.loc 1 100 4 view .LVU406
	.loc 1 100 27 view .LVU407
	.loc 1 100 51 view .LVU408
	.loc 1 100 79 view .LVU409
	.loc 1 100 255 view .LVU410
	.loc 1 100 15 view .LVU411
.LBB378:
.LBB373:
.LBB368:
.LBB364:
	.loc 1 100 28 view .LVU412
	.loc 1 100 2 view .LVU413
	.loc 1 100 2 view .LVU414
	.loc 1 100 69 view .LVU415
	.loc 1 100 81 is_stmt 0 view .LVU416
	sub	sp, sp, #40
	mov	r2, sp
.LVL24:
	.loc 1 100 73 is_stmt 1 view .LVU417
	.loc 1 100 483 view .LVU418
	.loc 1 100 4 view .LVU419
	.loc 1 100 6 view .LVU420
	.loc 1 100 11 view .LVU421
	.loc 1 100 9 view .LVU422
	.loc 1 100 4 view .LVU423
	.loc 1 100 22 view .LVU424
.LBB346:
	.loc 1 100 2 view .LVU425
	.loc 1 100 367 view .LVU426
	.loc 1 100 74 view .LVU427
.LVL25:
	.loc 1 100 1 view .LVU428
	.loc 1 100 1 view .LVU429
	.loc 1 100 1 view .LVU430
	.loc 1 100 37 view .LVU431
	.loc 1 100 66 view .LVU432
	.loc 1 100 92 view .LVU433
	.loc 1 100 118 view .LVU434
	.loc 1 100 1477 view .LVU435
	.loc 1 100 1539 view .LVU436
	.loc 1 100 2992 view .LVU437
	.loc 1 100 3057 view .LVU438
	.loc 1 100 3082 view .LVU439
	.loc 1 100 3083 view .LVU440
	.loc 1 100 3085 view .LVU441
	.loc 1 100 3115 view .LVU442
	.loc 1 100 3145 view .LVU443
	.loc 1 100 3177 view .LVU444
	.loc 1 100 3209 view .LVU445
	.loc 1 100 3241 view .LVU446
	.loc 1 100 3438 view .LVU447
	.loc 1 100 3462 view .LVU448
	.loc 1 100 3463 view .LVU449
	.loc 1 100 3465 view .LVU450
	.loc 1 100 3494 view .LVU451
	.loc 1 100 3523 view .LVU452
	.loc 1 100 3554 view .LVU453
	.loc 1 100 3585 view .LVU454
	.loc 1 100 3616 view .LVU455
	.loc 1 100 3823 view .LVU456
.LBB347:
	.loc 1 100 3224 view .LVU457
	.loc 1 100 3229 view .LVU458
	.loc 1 100 3901 view .LVU459
	.loc 1 100 0 is_stmt 0 view .LVU460
	ldr	r0, .L30+12
.LVL26:
	.loc 1 100 0 view .LVU461
.LBE347:
.LBB348:
	.loc 1 100 3810 view .LVU462
	strd	r3, r1, [r2, #28]
.LBE348:
.LBB349:
.LBB350:
	.loc 1 100 226 view .LVU463
	movw	r3, #769
.LVL27:
	.loc 1 100 226 view .LVU464
	strh	r3, [r2, #36]	@ movhi
.LBE350:
.LBE349:
.LBB352:
	.loc 1 100 175 view .LVU465
	ldr	r3, .L30+16
.LBE352:
.LBB353:
	.loc 1 100 3810 view .LVU466
	strd	r0, r4, [r2, #20]
	.loc 1 100 2765 is_stmt 1 view .LVU467
	.loc 1 100 6 view .LVU468
.LVL28:
	.loc 1 100 29 view .LVU469
	.loc 1 100 29 is_stmt 0 view .LVU470
.LBE353:
	.loc 1 100 8 is_stmt 1 view .LVU471
	.loc 1 100 5 view .LVU472
.LBB354:
	.loc 1 100 10 view .LVU473
	.loc 1 100 235 view .LVU474
	.loc 1 100 1188 view .LVU475
	.loc 1 100 1253 view .LVU476
.LBE354:
.LBE346:
.LBE364:
.LBE368:
.LBE373:
.LBE378:
	.loc 1 100 1277 view .LVU477
	.loc 1 100 1306 view .LVU478
	.loc 1 100 1317 view .LVU479
	.loc 1 100 1404 view .LVU480
.LBB379:
.LBB374:
.LBB369:
.LBB365:
.LBB360:
.LBB355:
	.loc 1 100 1420 view .LVU481
	.loc 1 100 1460 view .LVU482
	.loc 1 100 1550 view .LVU483
	.loc 1 100 1953 view .LVU484
	.loc 1 100 2610 view .LVU485
	.loc 1 100 2629 view .LVU486
	.loc 1 100 2666 view .LVU487
	.loc 1 100 2724 view .LVU488
	.loc 1 100 2762 view .LVU489
	.loc 1 100 2767 view .LVU490
	.loc 1 100 3211 view .LVU491
.LBE355:
.LBB356:
	.loc 1 100 2765 view .LVU492
	.loc 1 100 6 view .LVU493
	.loc 1 100 29 view .LVU494
	.loc 1 100 29 is_stmt 0 view .LVU495
.LBE356:
	.loc 1 100 8 is_stmt 1 view .LVU496
	.loc 1 100 4 view .LVU497
	.loc 1 100 27 view .LVU498
	.loc 1 100 51 view .LVU499
	.loc 1 100 79 view .LVU500
.LBB357:
	.loc 1 100 5 view .LVU501
	.loc 1 100 44 view .LVU502
.LBE357:
.LBE360:
.LBE365:
.LBE369:
.LBE374:
.LBE379:
	.loc 1 100 49 view .LVU503
	.loc 1 100 79 view .LVU504
.LBB380:
.LBB375:
.LBB370:
.LBB366:
.LBB361:
.LBB358:
.LBB351:
	.loc 1 100 181 view .LVU505
	.loc 1 100 213 view .LVU506
	.loc 1 100 207 view .LVU507
	.loc 1 100 181 view .LVU508
	.loc 1 100 213 view .LVU509
	.loc 1 100 207 view .LVU510
	.loc 1 100 181 view .LVU511
.LBE351:
.LBE358:
	.loc 1 100 255 view .LVU512
	.loc 1 100 15 view .LVU513
.LBB359:
	.loc 1 100 5 view .LVU514
	.loc 1 100 163 view .LVU515
	.loc 1 100 165 view .LVU516
	.loc 1 100 175 is_stmt 0 view .LVU517
	str	r3, [r2, #16]!
.LVL29:
	.loc 1 100 175 view .LVU518
.LBE359:
.LBE361:
	.loc 1 100 25 is_stmt 1 view .LVU519
	.loc 1 100 6 view .LVU520
	.loc 1 100 146 view .LVU521
	.loc 1 100 148 view .LVU522
.LBB362:
.LBI362:
	.loc 5 26 20 view .LVU523
.LBB363:
	.loc 5 38 2 view .LVU524
	.loc 5 38 7 view .LVU525
	.loc 5 38 5 view .LVU526
	.loc 5 39 2 view .LVU527
	ldr	r0, .L30+20
	movs	r3, #0
	mov	r1, #11328
.LVL30:
	.loc 5 39 2 is_stmt 0 view .LVU528
	bl	z_impl_z_log_msg_static_create
.LVL31:
	.loc 5 39 2 view .LVU529
.LBE363:
.LBE362:
	mov	sp, r9
.LVL32:
	.loc 5 39 2 view .LVU530
.LBE366:
	.loc 1 100 106 is_stmt 1 view .LVU531
	.loc 1 100 4 view .LVU532
	.loc 1 100 41 view .LVU533
.LBE370:
	.loc 1 100 5 view .LVU534
.LBE375:
	.loc 1 100 277 view .LVU535
	.loc 1 100 4 view .LVU536
	.loc 1 100 17 view .LVU537
.LBE380:
	.loc 1 100 5 view .LVU538
	.loc 1 110 2 view .LVU539
	.loc 1 110 5 is_stmt 0 view .LVU540
	cbz	r5, .L14
.LVL33:
.LBB381:
.LBI381:
	.file 6 "/home/g/mise-work/zmk-firmware/zmk/zephyr/arch/arm/include/cortex_m/exc.h"
	.loc 6 71 26 is_stmt 1 view .LVU541
.LBB382:
	.loc 6 73 2 view .LVU542
	.loc 6 73 26 is_stmt 0 view .LVU543
	ldr	r3, [r5, #28]
	ubfx	r3, r3, #0, #9
.LBE382:
.LBE381:
	.loc 1 110 19 view .LVU544
	cbz	r3, .L14
	.loc 1 111 3 is_stmt 1 view .LVU545
.LBB383:
	.loc 1 111 8 view .LVU546
	.loc 1 111 57 view .LVU547
	.loc 1 111 14 view .LVU548
	.loc 1 111 2 view .LVU549
.LVL34:
	.loc 1 111 41 view .LVU550
	.loc 1 111 176 view .LVU551
	.loc 1 111 187 view .LVU552
	.loc 1 111 275 view .LVU553
	.loc 1 111 3 view .LVU554
	.loc 1 111 3 view .LVU555
.LBB384:
	.loc 1 111 8 view .LVU556
	.loc 1 111 2 view .LVU557
.LBE384:
.LBE383:
	.loc 1 111 3 view .LVU558
	.loc 1 111 12 view .LVU559
	.loc 1 111 107 view .LVU560
	.loc 1 111 3 view .LVU561
.LBB401:
.LBB397:
	.loc 1 111 12 view .LVU562
	.loc 1 111 102 view .LVU563
	.loc 1 111 104 view .LVU564
.LBB385:
	.loc 1 111 109 view .LVU565
	.loc 1 111 120 view .LVU566
	.loc 1 111 209 view .LVU567
	.loc 1 111 26 view .LVU568
.LBE385:
.LBE397:
.LBE401:
	.loc 1 111 3 view .LVU569
	.loc 1 111 368 view .LVU570
	.loc 1 111 75 view .LVU571
	.loc 1 111 2 view .LVU572
	.loc 1 111 2 view .LVU573
	.loc 1 111 2 view .LVU574
	.loc 1 111 38 view .LVU575
	.loc 1 111 4 view .LVU576
	.loc 1 111 30 view .LVU577
	.loc 1 111 56 view .LVU578
	.loc 1 111 79 view .LVU579
	.loc 1 111 141 view .LVU580
	.loc 1 111 198 view .LVU581
	.loc 1 111 263 view .LVU582
	.loc 1 111 288 view .LVU583
	.loc 1 111 289 view .LVU584
	.loc 1 111 291 view .LVU585
	.loc 1 111 321 view .LVU586
	.loc 1 111 351 view .LVU587
	.loc 1 111 383 view .LVU588
	.loc 1 111 415 view .LVU589
	.loc 1 111 447 view .LVU590
	.loc 1 111 644 view .LVU591
	.loc 1 111 668 view .LVU592
	.loc 1 111 669 view .LVU593
	.loc 1 111 671 view .LVU594
	.loc 1 111 700 view .LVU595
	.loc 1 111 729 view .LVU596
	.loc 1 111 760 view .LVU597
	.loc 1 111 791 view .LVU598
	.loc 1 111 822 view .LVU599
	.loc 1 111 1029 view .LVU600
	.loc 1 111 4 view .LVU601
	.loc 1 111 22 view .LVU602
	.loc 1 111 42 view .LVU603
	.loc 1 111 4 view .LVU604
	.loc 1 111 42 view .LVU605
	.loc 1 111 13 view .LVU606
	.loc 1 111 13 view .LVU607
	.loc 1 111 61 view .LVU608
	.loc 1 111 92 view .LVU609
	.loc 1 111 126 view .LVU610
	.loc 1 111 131 view .LVU611
	.loc 1 111 388 view .LVU612
	.loc 1 111 1469 view .LVU613
	.loc 1 111 1534 view .LVU614
	.loc 1 111 1558 view .LVU615
	.loc 1 111 1619 view .LVU616
	.loc 1 111 1630 view .LVU617
	.loc 1 111 1749 view .LVU618
	.loc 1 111 1765 view .LVU619
	.loc 1 111 1805 view .LVU620
	.loc 1 111 1830 view .LVU621
	.loc 1 111 3133 view .LVU622
	.loc 1 111 3174 view .LVU623
	.loc 1 111 7 view .LVU624
	.loc 1 111 30 view .LVU625
	.loc 1 111 129 view .LVU626
	.loc 1 111 5 view .LVU627
	.loc 1 111 28 view .LVU628
	.loc 1 111 52 view .LVU629
	.loc 1 111 80 view .LVU630
	.loc 1 111 256 view .LVU631
	.loc 1 111 16 view .LVU632
.LBB402:
.LBB398:
.LBB394:
	.loc 1 111 29 view .LVU633
	.loc 1 111 3 view .LVU634
	.loc 1 111 3 view .LVU635
	.loc 1 111 70 view .LVU636
	.loc 1 111 74 view .LVU637
	.loc 1 111 484 view .LVU638
	.loc 1 111 5 view .LVU639
	.loc 1 111 7 view .LVU640
	.loc 1 111 12 view .LVU641
	.loc 1 111 10 view .LVU642
	.loc 1 111 5 view .LVU643
	.loc 1 111 23 view .LVU644
.LBB386:
	.loc 1 111 3 view .LVU645
	.loc 1 111 368 view .LVU646
	.loc 1 111 75 view .LVU647
.LVL35:
	.loc 1 111 2 view .LVU648
	.loc 1 111 2 view .LVU649
	.loc 1 111 2 view .LVU650
	.loc 1 111 38 view .LVU651
	.loc 1 111 67 view .LVU652
	.loc 1 111 93 view .LVU653
	.loc 1 111 119 view .LVU654
	.loc 1 111 142 view .LVU655
	.loc 1 111 204 view .LVU656
	.loc 1 111 261 view .LVU657
	.loc 1 111 326 view .LVU658
	.loc 1 111 351 view .LVU659
	.loc 1 111 352 view .LVU660
	.loc 1 111 354 view .LVU661
	.loc 1 111 384 view .LVU662
	.loc 1 111 414 view .LVU663
	.loc 1 111 446 view .LVU664
	.loc 1 111 478 view .LVU665
	.loc 1 111 510 view .LVU666
	.loc 1 111 707 view .LVU667
	.loc 1 111 731 view .LVU668
	.loc 1 111 732 view .LVU669
	.loc 1 111 734 view .LVU670
	.loc 1 111 763 view .LVU671
	.loc 1 111 792 view .LVU672
	.loc 1 111 823 view .LVU673
	.loc 1 111 854 view .LVU674
	.loc 1 111 885 view .LVU675
	.loc 1 111 1092 view .LVU676
	.loc 1 111 4 view .LVU677
	.loc 1 111 22 view .LVU678
	.loc 1 111 42 view .LVU679
	.loc 1 111 4 view .LVU680
	.loc 1 111 42 view .LVU681
	.loc 1 111 13 view .LVU682
	.loc 1 111 13 view .LVU683
	.loc 1 111 61 view .LVU684
	.loc 1 111 92 view .LVU685
	.loc 1 111 126 view .LVU686
.LBB387:
	.loc 1 111 131 view .LVU687
	.loc 1 111 388 view .LVU688
	.loc 1 111 1469 view .LVU689
	.loc 1 111 1534 view .LVU690
.LBE387:
.LBE386:
.LBE394:
.LBE398:
.LBE402:
	.loc 1 111 1558 view .LVU691
	.loc 1 111 1619 view .LVU692
	.loc 1 111 1630 view .LVU693
	.loc 1 111 1749 view .LVU694
.LBB403:
.LBB399:
.LBB395:
.LBB390:
.LBB388:
	.loc 1 111 1765 view .LVU695
	.loc 1 111 1805 view .LVU696
	.loc 1 111 1830 view .LVU697
	.loc 1 111 3133 view .LVU698
	.loc 1 111 3171 view .LVU699
	.loc 1 111 3176 view .LVU700
	.loc 1 111 3812 view .LVU701
	.loc 1 111 0 is_stmt 0 view .LVU702
	ldr	r3, .L30+24
	str	r3, [r7, #20]
	.loc 1 111 3174 is_stmt 1 view .LVU703
	.loc 1 111 7 view .LVU704
.LVL36:
	.loc 1 111 30 view .LVU705
	.loc 1 111 30 is_stmt 0 view .LVU706
.LBE388:
	.loc 1 111 129 is_stmt 1 view .LVU707
	.loc 1 111 5 view .LVU708
	.loc 1 111 28 view .LVU709
	.loc 1 111 52 view .LVU710
	.loc 1 111 80 view .LVU711
.LBE390:
.LBE395:
.LBE399:
.LBE403:
	.loc 1 111 6 view .LVU712
	.loc 1 111 45 view .LVU713
	.loc 1 111 50 view .LVU714
	.loc 1 111 80 view .LVU715
	.loc 1 111 147 view .LVU716
	.loc 1 111 152 view .LVU717
	.loc 1 111 182 view .LVU718
.LBB404:
.LBB400:
.LBB396:
.LBB391:
	.loc 1 111 256 view .LVU719
	.loc 1 111 16 view .LVU720
.LBB389:
	.loc 1 111 6 view .LVU721
	.loc 1 111 164 view .LVU722
	.loc 1 111 166 view .LVU723
	.loc 1 111 176 is_stmt 0 view .LVU724
	movs	r3, #2
	str	r3, [r7, #16]
.LVL37:
	.loc 1 111 176 view .LVU725
.LBE389:
.LBE391:
	.loc 1 111 26 is_stmt 1 view .LVU726
	.loc 1 111 7 view .LVU727
	.loc 1 111 147 view .LVU728
	.loc 1 111 149 view .LVU729
.LBB392:
.LBI392:
	.loc 5 26 20 view .LVU730
.LBB393:
	.loc 5 38 2 view .LVU731
	.loc 5 38 7 view .LVU732
	.loc 5 38 5 view .LVU733
	.loc 5 39 2 view .LVU734
	ldr	r0, .L30+20
	movs	r3, #0
	add	r2, r7, #16
.LVL38:
	.loc 5 39 2 is_stmt 0 view .LVU735
	mov	r1, #4160
	bl	z_impl_z_log_msg_static_create
.LVL39:
	.loc 5 39 2 view .LVU736
.LBE393:
.LBE392:
.LBE396:
	.loc 1 111 107 is_stmt 1 view .LVU737
	.loc 1 111 5 view .LVU738
.LVL40:
	.loc 1 111 42 view .LVU739
.LBE400:
	.loc 1 111 6 view .LVU740
	.loc 1 111 278 view .LVU741
	.loc 1 111 5 view .LVU742
	.loc 1 111 18 view .LVU743
.L14:
	.loc 1 111 18 is_stmt 0 view .LVU744
.LBE404:
	.loc 1 111 6 is_stmt 1 discriminator 9 view .LVU745
	.loc 1 115 2 discriminator 9 view .LVU746
.LBB405:
	.loc 1 115 7 discriminator 9 view .LVU747
	.loc 1 115 56 discriminator 9 view .LVU748
	.loc 1 115 13 discriminator 9 view .LVU749
	.loc 1 115 1 discriminator 9 view .LVU750
	.loc 1 115 40 discriminator 9 view .LVU751
	.loc 1 115 175 discriminator 9 view .LVU752
	.loc 1 115 186 discriminator 9 view .LVU753
	.loc 1 115 274 discriminator 9 view .LVU754
.LBB406:
	.loc 1 115 2 discriminator 9 view .LVU755
	.loc 1 115 4 discriminator 9 view .LVU756
	.loc 1 115 37 discriminator 9 view .LVU757
.LBB407:
.LBI407:
	.loc 1 51 20 discriminator 9 view .LVU758
.LBB408:
	.loc 1 53 2 discriminator 9 view .LVU759
	.loc 1 53 72 is_stmt 0 discriminator 9 view .LVU760
	cbz	r6, .L15
	.loc 1 53 46 view .LVU761
	mov	r0, r6
	bl	k_thread_name_get
.LVL41:
	.loc 1 55 2 is_stmt 1 view .LVU762
	.loc 1 55 5 is_stmt 0 view .LVU763
	cbz	r0, .L15
	.loc 1 55 27 view .LVU764
	ldrb	r3, [r0]	@ zero_extendqisi2
	cbnz	r3, .L16
.LVL42:
.L15:
	.loc 1 56 15 view .LVU765
	ldr	r0, .L30+28
.L16:
.LVL43:
	.loc 1 59 2 is_stmt 1 view .LVU766
	.loc 1 59 2 is_stmt 0 view .LVU767
.LBE408:
.LBE407:
	.loc 1 115 2 is_stmt 1 view .LVU768
.LBB409:
	.loc 1 115 7 view .LVU769
	.loc 1 115 1 view .LVU770
.LBE409:
.LBE406:
.LBE405:
	.loc 1 115 2 view .LVU771
	.loc 1 115 11 view .LVU772
	.loc 1 115 106 view .LVU773
	.loc 1 115 2 view .LVU774
.LBB439:
.LBB434:
.LBB429:
	.loc 1 115 11 view .LVU775
	.loc 1 115 101 view .LVU776
	.loc 1 115 103 view .LVU777
.LBB410:
	.loc 1 115 106 is_stmt 0 view .LVU778
	mov	r9, sp
.LVL44:
	.loc 1 115 108 is_stmt 1 view .LVU779
	.loc 1 115 119 view .LVU780
	.loc 1 115 208 view .LVU781
	.loc 1 115 25 view .LVU782
.LBE410:
.LBE429:
.LBE434:
.LBE439:
	.loc 1 115 2 view .LVU783
	.loc 1 115 367 view .LVU784
	.loc 1 115 74 view .LVU785
	.loc 1 115 1 view .LVU786
	.loc 1 115 1 view .LVU787
	.loc 1 115 1 view .LVU788
	.loc 1 115 37 view .LVU789
	.loc 1 115 3 view .LVU790
	.loc 1 115 29 view .LVU791
	.loc 1 115 55 view .LVU792
	.loc 1 115 968 view .LVU793
	.loc 1 115 1030 view .LVU794
	.loc 1 115 2017 view .LVU795
	.loc 1 115 2082 view .LVU796
	.loc 1 115 2107 view .LVU797
	.loc 1 115 2108 view .LVU798
	.loc 1 115 2110 view .LVU799
	.loc 1 115 2140 view .LVU800
	.loc 1 115 2170 view .LVU801
	.loc 1 115 2202 view .LVU802
	.loc 1 115 2234 view .LVU803
	.loc 1 115 2266 view .LVU804
	.loc 1 115 2463 view .LVU805
	.loc 1 115 2487 view .LVU806
	.loc 1 115 2488 view .LVU807
	.loc 1 115 2490 view .LVU808
	.loc 1 115 2519 view .LVU809
	.loc 1 115 2548 view .LVU810
	.loc 1 115 2579 view .LVU811
	.loc 1 115 2610 view .LVU812
	.loc 1 115 2641 view .LVU813
	.loc 1 115 2848 view .LVU814
	.loc 1 115 3 view .LVU815
	.loc 1 115 21 view .LVU816
	.loc 1 115 41 view .LVU817
	.loc 1 115 3 view .LVU818
	.loc 1 115 41 view .LVU819
	.loc 1 115 12 view .LVU820
	.loc 1 115 12 view .LVU821
	.loc 1 115 60 view .LVU822
	.loc 1 115 91 view .LVU823
	.loc 1 115 125 view .LVU824
	.loc 1 115 130 view .LVU825
	.loc 1 115 377 view .LVU826
	.loc 1 115 1418 view .LVU827
	.loc 1 115 1483 view .LVU828
	.loc 1 115 1507 view .LVU829
	.loc 1 115 1558 view .LVU830
	.loc 1 115 1569 view .LVU831
	.loc 1 115 1678 view .LVU832
	.loc 1 115 1694 view .LVU833
	.loc 1 115 1734 view .LVU834
	.loc 1 115 1759 view .LVU835
	.loc 1 115 3042 view .LVU836
	.loc 1 115 3083 view .LVU837
	.loc 1 115 6 view .LVU838
	.loc 1 115 29 view .LVU839
	.loc 1 115 128 view .LVU840
	.loc 1 115 5 view .LVU841
	.loc 1 115 10 view .LVU842
	.loc 1 115 235 view .LVU843
	.loc 1 115 1188 view .LVU844
	.loc 1 115 1253 view .LVU845
	.loc 1 115 1277 view .LVU846
	.loc 1 115 1306 view .LVU847
	.loc 1 115 1317 view .LVU848
	.loc 1 115 1404 view .LVU849
	.loc 1 115 1420 view .LVU850
	.loc 1 115 1460 view .LVU851
	.loc 1 115 2724 view .LVU852
	.loc 1 115 2765 view .LVU853
	.loc 1 115 6 view .LVU854
	.loc 1 115 29 view .LVU855
	.loc 1 115 8 view .LVU856
	.loc 1 115 5 view .LVU857
	.loc 1 115 10 view .LVU858
	.loc 1 115 235 view .LVU859
	.loc 1 115 1188 view .LVU860
	.loc 1 115 1253 view .LVU861
	.loc 1 115 1277 view .LVU862
	.loc 1 115 1306 view .LVU863
	.loc 1 115 1317 view .LVU864
	.loc 1 115 1404 view .LVU865
	.loc 1 115 1420 view .LVU866
	.loc 1 115 1460 view .LVU867
	.loc 1 115 1550 view .LVU868
	.loc 1 115 1953 view .LVU869
	.loc 1 115 2610 view .LVU870
	.loc 1 115 2629 view .LVU871
	.loc 1 115 2666 view .LVU872
	.loc 1 115 2724 view .LVU873
	.loc 1 115 2765 view .LVU874
	.loc 1 115 6 view .LVU875
	.loc 1 115 29 view .LVU876
	.loc 1 115 8 view .LVU877
	.loc 1 115 4 view .LVU878
	.loc 1 115 27 view .LVU879
	.loc 1 115 51 view .LVU880
	.loc 1 115 79 view .LVU881
	.loc 1 115 255 view .LVU882
	.loc 1 115 15 view .LVU883
.LBB440:
.LBB435:
.LBB430:
.LBB425:
	.loc 1 115 28 view .LVU884
	.loc 1 115 2 view .LVU885
	.loc 1 115 2 view .LVU886
	.loc 1 115 69 view .LVU887
	.loc 1 115 81 is_stmt 0 view .LVU888
	sub	sp, sp, #40
.LVL45:
	.loc 1 115 81 view .LVU889
	mov	r2, sp
.LVL46:
	.loc 1 115 73 is_stmt 1 view .LVU890
	.loc 1 115 483 view .LVU891
	.loc 1 115 4 view .LVU892
	.loc 1 115 6 view .LVU893
	.loc 1 115 11 view .LVU894
	.loc 1 115 9 view .LVU895
	.loc 1 115 4 view .LVU896
	.loc 1 115 22 view .LVU897
.LBB411:
	.loc 1 115 2 view .LVU898
	.loc 1 115 367 view .LVU899
	.loc 1 115 74 view .LVU900
.LVL47:
	.loc 1 115 1 view .LVU901
	.loc 1 115 1 view .LVU902
	.loc 1 115 1 view .LVU903
	.loc 1 115 37 view .LVU904
	.loc 1 115 66 view .LVU905
	.loc 1 115 92 view .LVU906
	.loc 1 115 118 view .LVU907
	.loc 1 115 1031 view .LVU908
	.loc 1 115 1093 view .LVU909
	.loc 1 115 2080 view .LVU910
	.loc 1 115 2145 view .LVU911
	.loc 1 115 2170 view .LVU912
	.loc 1 115 2171 view .LVU913
	.loc 1 115 2173 view .LVU914
	.loc 1 115 2203 view .LVU915
	.loc 1 115 2233 view .LVU916
	.loc 1 115 2265 view .LVU917
	.loc 1 115 2297 view .LVU918
	.loc 1 115 2329 view .LVU919
	.loc 1 115 2526 view .LVU920
	.loc 1 115 2550 view .LVU921
	.loc 1 115 2551 view .LVU922
	.loc 1 115 2553 view .LVU923
	.loc 1 115 2582 view .LVU924
	.loc 1 115 2611 view .LVU925
	.loc 1 115 2642 view .LVU926
	.loc 1 115 2673 view .LVU927
	.loc 1 115 2704 view .LVU928
	.loc 1 115 2911 view .LVU929
.LBB412:
	.loc 1 115 3080 view .LVU930
	.loc 1 115 3085 view .LVU931
	.loc 1 115 3661 view .LVU932
	.loc 1 115 0 is_stmt 0 view .LVU933
	ldr	r3, .L30+32
.LBE412:
.LBB413:
	.loc 1 115 3810 view .LVU934
	str	r0, [r2, #28]
.LBE413:
.LBB414:
	.loc 1 115 3810 view .LVU935
	strd	r3, r6, [r2, #20]
	.loc 1 115 2765 is_stmt 1 view .LVU936
	.loc 1 115 6 view .LVU937
.LVL48:
	.loc 1 115 29 view .LVU938
	.loc 1 115 29 is_stmt 0 view .LVU939
.LBE414:
	.loc 1 115 8 is_stmt 1 view .LVU940
	.loc 1 115 5 view .LVU941
.LBB415:
	.loc 1 115 10 view .LVU942
	.loc 1 115 235 view .LVU943
	.loc 1 115 1188 view .LVU944
	.loc 1 115 1253 view .LVU945
.LBE415:
.LBE411:
.LBE425:
.LBE430:
.LBE435:
.LBE440:
	.loc 1 115 1277 view .LVU946
	.loc 1 115 1306 view .LVU947
	.loc 1 115 1317 view .LVU948
	.loc 1 115 1404 view .LVU949
.LBB441:
.LBB436:
.LBB431:
.LBB426:
.LBB421:
.LBB416:
	.loc 1 115 1420 view .LVU950
	.loc 1 115 1460 view .LVU951
	.loc 1 115 1550 view .LVU952
	.loc 1 115 1953 view .LVU953
	.loc 1 115 2610 view .LVU954
	.loc 1 115 2629 view .LVU955
	.loc 1 115 2666 view .LVU956
	.loc 1 115 2724 view .LVU957
	.loc 1 115 2762 view .LVU958
	.loc 1 115 2767 view .LVU959
	.loc 1 115 3211 view .LVU960
	.loc 1 115 2765 view .LVU961
	.loc 1 115 6 view .LVU962
	.loc 1 115 29 view .LVU963
	.loc 1 115 29 is_stmt 0 view .LVU964
.LBE416:
	.loc 1 115 8 is_stmt 1 view .LVU965
	.loc 1 115 4 view .LVU966
	.loc 1 115 27 view .LVU967
	.loc 1 115 51 view .LVU968
	.loc 1 115 79 view .LVU969
.LBB417:
	.loc 1 115 5 view .LVU970
	.loc 1 115 44 view .LVU971
.LBE417:
.LBE421:
.LBE426:
.LBE431:
.LBE436:
.LBE441:
	.loc 1 115 49 view .LVU972
	.loc 1 115 79 view .LVU973
.LBB442:
.LBB437:
.LBB432:
.LBB427:
.LBB422:
.LBB419:
.LBB418:
	.loc 1 115 181 view .LVU974
	.loc 1 115 213 view .LVU975
	.loc 1 115 207 view .LVU976
	.loc 1 115 181 view .LVU977
	.loc 1 115 213 view .LVU978
	.loc 1 115 226 is_stmt 0 view .LVU979
	movw	r3, #769
	strh	r3, [r2, #32]	@ movhi
	.loc 1 115 207 is_stmt 1 view .LVU980
.LVL49:
	.loc 1 115 181 view .LVU981
.LBE418:
.LBE419:
	.loc 1 115 255 view .LVU982
	.loc 1 115 15 view .LVU983
.LBB420:
	.loc 1 115 5 view .LVU984
	.loc 1 115 163 view .LVU985
	.loc 1 115 165 view .LVU986
	.loc 1 115 175 is_stmt 0 view .LVU987
	ldr	r3, .L30+36
	str	r3, [r2, #16]!
.LVL50:
	.loc 1 115 175 view .LVU988
.LBE420:
.LBE422:
	.loc 1 115 25 is_stmt 1 view .LVU989
	.loc 1 115 6 view .LVU990
	.loc 1 115 146 view .LVU991
	.loc 1 115 148 view .LVU992
.LBB423:
.LBI423:
	.loc 5 26 20 view .LVU993
.LBB424:
	.loc 5 38 2 view .LVU994
	.loc 5 38 7 view .LVU995
	.loc 5 38 5 view .LVU996
	.loc 5 39 2 view .LVU997
	movs	r3, #0
	ldr	r0, .L30+20
.LVL51:
	.loc 5 39 2 is_stmt 0 view .LVU998
	mov	r1, #9280
	bl	z_impl_z_log_msg_static_create
.LVL52:
	.loc 5 39 2 view .LVU999
.LBE424:
.LBE423:
.LBE427:
.LBE432:
.LBE437:
.LBE442:
	.loc 1 122 2 view .LVU1000
	mov	r1, r5
.LBB443:
.LBB438:
.LBB433:
.LBB428:
	mov	sp, r9
.LVL53:
	.loc 1 122 2 view .LVU1001
.LBE428:
	.loc 1 115 106 is_stmt 1 view .LVU1002
	.loc 1 115 4 view .LVU1003
	.loc 1 115 41 view .LVU1004
.LBE433:
	.loc 1 115 5 view .LVU1005
.LBE438:
	.loc 1 115 277 view .LVU1006
	.loc 1 115 4 view .LVU1007
	.loc 1 115 17 view .LVU1008
.LBE443:
	.loc 1 115 5 view .LVU1009
	.loc 1 119 2 view .LVU1010
	.loc 1 122 2 view .LVU1011
	mov	r0, r4
	bl	k_sys_fatal_error_handler
.LVL54:
	.loc 1 137 2 view .LVU1012
	.loc 1 138 5 view .LVU1013
	.loc 1 139 58 view .LVU1014
	.loc 1 142 3 view .LVU1015
	.loc 1 149 3 view .LVU1016
	.loc 1 177 2 view .LVU1017
.LBB444:
.LBI444:
	.loc 3 96 51 view .LVU1018
.LBB445:
	.loc 3 107 2 view .LVU1019
	.syntax unified
@ 107 "/home/g/mise-work/zmk-firmware/zmk/zephyr/include/zephyr/arch/arm/asm_inline_gcc.h" 1
	msr BASEPRI, r8;isb;
@ 0 "" 2
.LVL55:
	.loc 3 107 2 is_stmt 0 view .LVU1020
	.thumb
	.syntax unified
.LBE445:
.LBE444:
	.loc 1 179 2 is_stmt 1 view .LVU1021
	.loc 1 180 3 view .LVU1022
.LBB446:
.LBI446:
	.file 7 "/home/g/mise-work/zmk-firmware/zmk/app/build/zephyr/include/generated/syscalls/kernel.h"
	.loc 7 223 20 view .LVU1023
.LBB447:
	.loc 7 232 2 view .LVU1024
	.loc 7 232 7 view .LVU1025
	.loc 7 232 5 view .LVU1026
	.loc 7 233 2 view .LVU1027
	mov	r0, r6
	bl	z_impl_k_thread_abort
.LVL56:
	.loc 7 233 2 is_stmt 0 view .LVU1028
.LBE447:
.LBE446:
	.loc 1 182 1 view .LVU1029
	adds	r7, r7, #28
	.cfi_def_cfa_offset 28
	mov	sp, r7
	.cfi_def_cfa_register 13
	@ sp needed
	pop	{r4, r5, r6, r7, r8, r9, pc}
.LVL57:
.L31:
	.loc 1 182 1 view .LVU1030
	.align	2
.L30:
	.word	_kernel
	.word	CSWTCH.487
	.word	.LC1
	.word	.LC3
	.word	16777221
	.word	log_const_os
	.word	.LC4
	.word	.LC2
	.word	.LC5
	.word	16777220
	.cfi_endproc
.LFE516:
	.size	z_fatal_error, .-z_fatal_error
	.section	.rodata.str1.1,"aMS",%progbits,1
.LC6:
	.ascii	"CPU exception\000"
.LC7:
	.ascii	"Unhandled interrupt\000"
.LC8:
	.ascii	"Stack overflow\000"
.LC9:
	.ascii	"Kernel oops\000"
.LC10:
	.ascii	"Kernel panic\000"
	.section	.rodata.CSWTCH.487,"a"
	.align	2
	.type	CSWTCH.487, %object
	.size	CSWTCH.487, 20
CSWTCH.487:
	.word	.LC6
	.word	.LC7
	.word	.LC8
	.word	.LC9
	.word	.LC10
	.text
.Letext0:
	.file 8 "/home/g/zephyr-sdk-0.16.3/arm-zephyr-eabi/lib/gcc/arm-zephyr-eabi/12.2.0/include/stddef.h"
	.file 9 "/home/g/zephyr-sdk-0.16.3/arm-zephyr-eabi/picolibc/include/machine/_default_types.h"
	.file 10 "/home/g/zephyr-sdk-0.16.3/arm-zephyr-eabi/picolibc/include/sys/_stdint.h"
	.file 11 "/home/g/mise-work/zmk-firmware/zmk/zephyr/include/zephyr/sys/dlist.h"
	.file 12 "/home/g/mise-work/zmk-firmware/zmk/zephyr/include/zephyr/sys/rb.h"
	.file 13 "/home/g/mise-work/zmk-firmware/zmk/zephyr/include/zephyr/sys/sys_heap.h"
	.file 14 "/home/g/mise-work/zmk-firmware/zmk/zephyr/include/zephyr/kernel_structs.h"
	.file 15 "/home/g/mise-work/zmk-firmware/zmk/zephyr/include/zephyr/kernel/thread.h"
	.file 16 "/home/g/mise-work/zmk-firmware/zmk/zephyr/include/zephyr/arch/arm/thread.h"
	.file 17 "/home/g/mise-work/zmk-firmware/zmk/zephyr/include/zephyr/arch/arm/cortex_m/exc.h"
	.file 18 "/home/g/mise-work/zmk-firmware/zmk/zephyr/include/zephyr/arch/structs.h"
	.file 19 "/home/g/mise-work/zmk-firmware/zmk/zephyr/include/zephyr/spinlock.h"
	.file 20 "/home/g/mise-work/zmk-firmware/zmk/zephyr/include/zephyr/kernel.h"
	.file 21 "/home/g/mise-work/zmk-firmware/zmk/zephyr/include/zephyr/fatal_types.h"
	.file 22 "/home/g/mise-work/zmk-firmware/zmk/zephyr/include/zephyr/logging/log_instance.h"
	.file 23 "/home/g/mise-work/zmk-firmware/zmk/zephyr/include/zephyr/sys/cbprintf.h"
	.file 24 "/home/g/mise-work/zmk-firmware/zmk/zephyr/include/zephyr/logging/log_msg.h"
	.file 25 "/home/g/mise-work/zmk-firmware/zmk/zephyr/include/zephyr/sys/cbprintf_internal.h"
	.file 26 "/home/g/mise-work/zmk-firmware/zmk/zephyr/include/zephyr/syscall.h"