	.cpu cortex-m4
	.arch armv7e-m
	.fpu fpv4-sp-d16
	.eabi_attribute 27, 1
	.eabi_attribute 28, 1
	.eabi_attribute 20, 1
	.eabi_attribute 21, 1
	.eabi_attribute 23, 3
	.eabi_attribute 24, 1
	.eabi_attribute 25, 1
	.eabi_attribute 26, 1
	.eabi_attribute 30, 4
	.eabi_attribute 34, 1
	.eabi_attribute 38, 1
	.eabi_attribute 18, 4
	.file	"idle.c"
	.text
.Ltext0:
	.cfi_sections	.debug_frame
	.file 1 "/home/g/mise-work/zmk-firmware/zmk/zephyr/kernel/idle.c"
	.section	.text.z_pm_save_idle_exit,"ax",%progbits
	.align	1
	.global	z_pm_save_idle_exit
	.syntax unified
	.thumb
	.thumb_func
	.type	z_pm_save_idle_exit, %function
z_pm_save_idle_exit:
.LFB534:
	.loc 1 22 1 view -0
	.cfi_startproc
	@ args = 0, pretend = 0, frame = 0
	@ frame_needed = 0, uses_anonymous_args = 0
	@ link register save eliminated.
	.loc 1 32 2 view .LVU1
	b	sys_clock_idle_exit
.LVL0:
	.cfi_endproc
.LFE534:
	.size	z_pm_save_idle_exit, .-z_pm_save_idle_exit
	.section	.text.idle,"ax",%progbits
	.align	1
	.global	idle
	.syntax unified
	.thumb
	.thumb_func
	.type	idle, %function
idle:
.LFB535:
	.loc 1 37 1 view -0
	.cfi_startproc
	@ Volatile: function does not return.
	@ args = 0, pretend = 0, frame = 0
	@ frame_needed = 0, uses_anonymous_args = 0
.LVL1:
	.loc 1 37 1 is_stmt 0 view .LVU3
	push	{r3, lr}
	.cfi_def_cfa_offset 8
	.cfi_offset 3, -8
	.cfi_offset 14, -4
.LVL2:
.L3:
	.loc 1 38 2 is_stmt 1 view .LVU4
	.loc 1 39 2 view .LVU5
	.loc 1 40 2 view .LVU6
	.loc 1 42 4 view .LVU7
	.loc 1 42 5 view .LVU8
	.loc 1 44 2 view .LVU9
	.loc 1 53 3 view .LVU10
	.loc 1 65 3 view .LVU11
.LBB10:
.LBI10:
	.file 2 "/home/g/mise-work/zmk-firmware/zmk/zephyr/include/zephyr/arch/arm/asm_inline_gcc.h"
	.loc 2 42 59 view .LVU12
.LBB11:
	.loc 2 44 2 view .LVU13
	.loc 2 57 2 view .LVU14
	.loc 2 59 2 view .LVU15
	.syntax unified
@ 59 "/home/g/mise-work/zmk-firmware/zmk/zephyr/include/zephyr/arch/arm/asm_inline_gcc.h" 1
	mov r2, #32;mrs r3, BASEPRI;msr BASEPRI_MAX, r2;isb;
@ 0 "" 2
.LVL3:
	.loc 2 88 2 view .LVU16
	.loc 2 88 2 is_stmt 0 view .LVU17
	.thumb
	.syntax unified
.LBE11:
.LBE10:
	.loc 1 89 3 is_stmt 1 view .LVU18
.LBB12:
.LBI12:
	.file 3 "/home/g/mise-work/zmk-firmware/zmk/zephyr/include/zephyr/kernel.h"
	.loc 3 5852 20 view .LVU19
.LBB13:
	.loc 3 5854 2 view .LVU20
	bl	arch_cpu_idle
.LVL4:
	b	.L3
.LBE13:
.LBE12:
	.cfi_endproc
.LFE535:
	.size	idle, .-idle
	.section	.text.arch_spin_relax,"ax",%progbits
	.align	1
	.weak	arch_spin_relax
	.syntax unified
	.thumb
	.thumb_func
	.type	arch_spin_relax, %function
arch_spin_relax:
.LFB536:
	.loc 1 112 1 view -0
	.cfi_startproc
	@ args = 0, pretend = 0, frame = 0
	@ frame_needed = 0, uses_anonymous_args = 0
	@ link register save eliminated.
	.loc 1 113 4 view .LVU22
	.loc 1 114 52 view .LVU23
	.loc 1 116 2 view .LVU24
.LBB14:
.LBI14:
	.file 4 "/home/g/mise-work/zmk-firmware/zmk/zephyr/include/zephyr/arch/arm/misc.h"
	.loc 4 36 51 view .LVU25
.LBB15:
	.loc 4 38 2 view .LVU26
	.syntax unified
@ 38 "/home/g/mise-work/zmk-firmware/zmk/zephyr/include/zephyr/arch/arm/misc.h" 1
	nop
@ 0 "" 2
	.thumb
	.syntax unified
.LBE15:
.LBE14:
	.loc 1 117 1 is_stmt 0 view .LVU27
	bx	lr
	.cfi_endproc
.LFE536:
	.size	arch_spin_relax, .-arch_spin_relax
	.text
.Letext0:
	.file 5 "/home/g/zephyr-sdk-0.16.3/arm-zephyr-eabi/picolibc/include/machine/_default_types.h"
	.file 6 "/home/g/zephyr-sdk-0.16.3/arm-zephyr-eabi/picolibc/include/sys/_stdint.h"
	.file 7 "/home/g/mise-work/zmk-firmware/zmk/zephyr/include/zephyr/logging/log_instance.h"
	.file 8 "/home/g/mise-work/zmk-firmware/zmk/zephyr/include/zephyr/sys/arch_interface.h"
	.file 9 "/home/g/mise-work/zmk-firmware/zmk/zephyr/include/zephyr/drivers/timer/system_timer.h"