	.cpu cortex-m4
	.arch armv7e-m
	.fpu fpv4-sp-d16
	.eabi_attribute 27, 1
	.eabi_attribute 28, 1
	.eabi_attribute 20, 1
	.eabi_attribute 21, 1
	.eabi_attribute 23, 3
	.eabi_attribute 24, 1
	.eabi_attribute 25, 1
	.eabi_attribute 26, 1
	.eabi_attribute 30, 4
	.eabi_attribute 34, 1
	.eabi_attribute 38, 1
	.eabi_attribute 18, 4
	.file	"init.c"
	.text
.Ltext0:
	.cfi_sections	.debug_frame
	.file 1 "/home/g/mise-work/zmk-firmware/zmk/zephyr/kernel/init.c"
	.section	.text.z_sys_init_run_level,"ax",%progbits
	.align	1
	.syntax unified
	.thumb
	.thumb_func
	.type	z_sys_init_run_level, %function
z_sys_init_run_level:
.LVL0:
.LFB586:
	.loc 1 269 1 view -0
	.cfi_startproc
	@ args = 0, pretend = 0, frame = 0
	@ frame_needed = 0, uses_anonymous_args = 0
	.loc 1 270 2 view .LVU1
	.loc 1 282 2 view .LVU2
	.loc 1 284 2 view .LVU3
	.loc 1 284 13 is_stmt 0 view .LVU4
	ldr	r3, .L12
	.loc 1 269 1 view .LVU5
	push	{r4, r5, r6, lr}
	.cfi_def_cfa_offset 16
	.cfi_offset 4, -16
	.cfi_offset 5, -12
	.cfi_offset 6, -8
	.cfi_offset 14, -4
	.loc 1 284 13 view .LVU6
	ldr	r4, [r3, r0, lsl #2]
.LVL1:
	.loc 1 284 44 view .LVU7
	adds	r0, r0, #1
.LVL2:
	.loc 1 284 36 view .LVU8
	ldr	r6, [r3, r0, lsl #2]
.L2:
	.loc 1 284 36 is_stmt 1 discriminator 1 view .LVU9
	cmp	r6, r4
	bhi	.L8
	.loc 1 316 1 is_stmt 0 view .LVU10
	pop	{r4, r5, r6, pc}
.LVL3:
.L8:
.LBB73:
	.loc 1 285 3 is_stmt 1 view .LVU11
.LBB74:
	.loc 1 290 22 is_stmt 0 view .LVU12
	ldrd	r3, r5, [r4]
.LBE74:
	.loc 1 287 6 view .LVU13
	cbz	r5, .L3
.LBB75:
	.loc 1 288 4 is_stmt 1 view .LVU14
.LVL4:
	.loc 1 290 4 view .LVU15
	.loc 1 290 7 is_stmt 0 view .LVU16
	cbz	r3, .L5
	.loc 1 291 5 is_stmt 1 view .LVU17
	.loc 1 291 10 is_stmt 0 view .LVU18
	mov	r0, r5
	blx	r3
.LVL5:
	.loc 1 295 5 is_stmt 1 view .LVU19
	.loc 1 295 8 is_stmt 0 view .LVU20
	cbz	r0, .L5
	.loc 1 296 6 is_stmt 1 view .LVU21
.LVL6:
	.loc 1 299 6 view .LVU22
	.loc 1 302 6 view .LVU23
	.loc 1 296 9 is_stmt 0 view .LVU24
	cmp	r0, #0
	it	lt
	rsblt	r0, r0, #0
.LVL7:
	.loc 1 302 9 view .LVU25
	ldr	r3, [r5, #12]
	.loc 1 299 9 view .LVU26
	cmp	r0, #255
	it	ge
	movge	r0, #255
	.loc 1 302 27 view .LVU27
	strb	r0, [r3]
.LVL8:
.L5:
	.loc 1 306 4 is_stmt 1 view .LVU28
	.loc 1 306 7 is_stmt 0 view .LVU29
	ldr	r2, [r5, #12]
	.loc 1 306 28 view .LVU30
	ldrb	r3, [r2, #1]	@ zero_extendqisi2
	orr	r3, r3, #1
	strb	r3, [r2, #1]
	.loc 1 308 4 is_stmt 1 view .LVU31
.L7:
.LBE75:
.LBE73:
	.loc 1 284 60 discriminator 2 view .LVU32
	adds	r4, r4, #8
.LVL9:
	.loc 1 284 60 is_stmt 0 discriminator 2 view .LVU33
	b	.L2
.L3:
.LBB76:
	.loc 1 313 4 is_stmt 1 view .LVU34
	.loc 1 313 10 is_stmt 0 view .LVU35
	blx	r3
.LVL10:
	b	.L7
.L13:
	.align	2
.L12:
	.word	levels.0
.LBE76:
	.cfi_endproc
.LFE586:
	.size	z_sys_init_run_level, .-z_sys_init_run_level
	.section	.text.bg_thread_main,"ax",%progbits
	.align	1
	.syntax unified
	.thumb
	.thumb_func
	.type	bg_thread_main, %function
bg_thread_main:
.LVL11:
.LFB587:
	.loc 1 328 1 is_stmt 1 view -0
	.cfi_startproc
	@ args = 0, pretend = 0, frame = 0
	@ frame_needed = 0, uses_anonymous_args = 0
	.loc 1 329 2 view .LVU37
	.loc 1 330 2 view .LVU38
	.loc 1 331 2 view .LVU39
	.loc 1 341 2 view .LVU40
	.loc 1 328 1 is_stmt 0 view .LVU41
	push	{r3, lr}
	.cfi_def_cfa_offset 8
	.cfi_offset 3, -8
	.cfi_offset 14, -4
	.loc 1 341 20 view .LVU42
	ldr	r3, .L15
	movs	r2, #1
.LVL12:
	.loc 1 343 2 view .LVU43
	movs	r0, #3
.LVL13:
	.loc 1 341 20 view .LVU44
	strb	r2, [r3]
	.loc 1 343 2 is_stmt 1 view .LVU45
	bl	z_sys_init_run_level
.LVL14:
	.loc 1 347 2 view .LVU46
	bl	boot_banner
.LVL15:
	.loc 1 355 2 view .LVU47
	movs	r0, #4
	bl	z_sys_init_run_level
.LVL16:
	.loc 1 357 2 view .LVU48
	bl	z_init_static_threads
.LVL17:
	.loc 1 374 2 view .LVU49
	.loc 1 376 2 view .LVU50
	.loc 1 376 8 is_stmt 0 view .LVU51
	bl	main
.LVL18:
	.loc 1 379 2 is_stmt 1 view .LVU52
	.loc 1 379 34 is_stmt 0 view .LVU53
	ldr	r2, .L15+4
	ldrb	r3, [r2, #12]	@ zero_extendqisi2
	bic	r3, r3, #1
	strb	r3, [r2, #12]
	.loc 1 385 1 view .LVU54
	pop	{r3, pc}
.L16:
	.align	2
.L15:
	.word	z_sys_post_kernel
	.word	z_main_thread
	.cfi_endproc
.LFE587:
	.size	bg_thread_main, .-bg_thread_main
	.section	.text.z_early_memset,"ax",%progbits
	.align	1
	.weak	z_early_memset
	.syntax unified
	.thumb
	.thumb_func
	.type	z_early_memset, %function
z_early_memset:
.LVL19:
.LFB583:
	.loc 1 143 1 is_stmt 1 view -0
	.cfi_startproc
	@ args = 0, pretend = 0, frame = 0
	@ frame_needed = 0, uses_anonymous_args = 0
	@ link register save eliminated.
	.loc 1 144 2 view .LVU56
.LBB77:
.LBI77:
	.file 2 "/home/g/zephyr-sdk-0.16.3/arm-zephyr-eabi/picolibc/include/ssp/string.h"
	.loc 2 86 189 view .LVU57
.LBB78:
	.loc 2 86 238 view .LVU58
	.loc 2 86 245 is_stmt 0 view .LVU59
	b	memset
.LVL20:
	.loc 2 86 245 view .LVU60
.LBE78:
.LBE77:
	.cfi_endproc
.LFE583:
	.size	z_early_memset, .-z_early_memset
	.section	.text.z_early_memcpy,"ax",%progbits
	.align	1
	.weak	z_early_memcpy
	.syntax unified
	.thumb
	.thumb_func
	.type	z_early_memcpy, %function
z_early_memcpy:
.LVL21:
.LFB584:
	.loc 1 156 1 is_stmt 1 view -0
	.cfi_startproc
	@ args = 0, pretend = 0, frame = 0
	@ frame_needed = 0, uses_anonymous_args = 0
	@ link register save eliminated.
	.loc 1 157 2 view .LVU62
.LBB79:
.LBI79:
	.loc 2 83 216 view .LVU63
.LBB80:
	.loc 2 83 292 view .LVU64
	.loc 2 83 299 is_stmt 0 view .LVU65
	b	memcpy
.LVL22:
	.loc 2 83 299 view .LVU66
.LBE80:
.LBE79:
	.cfi_endproc
.LFE584:
	.size	z_early_memcpy, .-z_early_memcpy
	.section	.text.z_bss_zero,"ax",%progbits
	.align	1
	.global	z_bss_zero
	.syntax unified
	.thumb
	.thumb_func
	.type	z_bss_zero, %function
z_bss_zero:
.LFB585:
	.loc 1 167 1 is_stmt 1 view -0
	.cfi_startproc
	@ args = 0, pretend = 0, frame = 0
	@ frame_needed = 0, uses_anonymous_args = 0
	.loc 1 168 2 view .LVU68
	.loc 1 177 2 view .LVU69
	.loc 1 167 1 is_stmt 0 view .LVU70
	push	{r3, lr}
	.cfi_def_cfa_offset 8
	.cfi_offset 3, -8
	.cfi_offset 14, -4
	.loc 1 177 43 view .LVU71
	ldr	r0, .L20
	.loc 1 177 2 view .LVU72
	ldr	r2, .L20+4
	movs	r1, #0
	subs	r2, r2, r0
	bl	z_early_memset
.LVL23:
	.loc 1 202 1 view .LVU73
	pop	{r3, pc}
.L21:
	.align	2
.L20:
	.word	__bss_start
	.word	__bss_end
	.cfi_endproc
.LFE585:
	.size	z_bss_zero, .-z_bss_zero
	.section	.text.z_init_cpu,"ax",%progbits
	.align	1
	.global	z_init_cpu
	.syntax unified
	.thumb
	.thumb_func
	.type	z_init_cpu, %function
z_init_cpu:
.LVL24:
.LFB589:
	.loc 1 419 1 is_stmt 1 view -0
	.cfi_startproc
	@ args = 0, pretend = 0, frame = 0
	@ frame_needed = 0, uses_anonymous_args = 0
	.loc 1 420 2 view .LVU75
.LBB89:
.LBI89:
	.loc 1 389 13 view .LVU76
.LBB90:
	.loc 1 391 2 view .LVU77
.LBE90:
.LBE89:
	.loc 1 419 1 is_stmt 0 view .LVU78
	push	{r4, r5, r6, lr}
	.cfi_def_cfa_offset 16
	.cfi_offset 4, -16
	.cfi_offset 5, -12
	.cfi_offset 6, -8
	.cfi_offset 14, -4
.LBB99:
.LBB95:
	.loc 1 391 19 view .LVU79
	ldr	r6, .L24
	.loc 1 408 17 view .LVU80
	ldr	r5, .L24+4
	.loc 1 407 2 view .LVU81
	ldr	r1, .L24+8
	.loc 1 391 19 view .LVU82
	movs	r3, #200
.LBE95:
.LBE99:
	.loc 1 419 1 view .LVU83
	sub	sp, sp, #24
	.cfi_def_cfa_offset 40
.LBB100:
.LBB96:
	.loc 1 391 19 view .LVU84
	mla	r6, r3, r0, r6
.LVL25:
	.loc 1 392 2 is_stmt 1 view .LVU85
	.loc 1 404 2 view .LVU86
	.loc 1 407 2 view .LVU87
	movs	r2, #1
	movs	r3, #0
	strd	r2, r3, [sp, #16]
	movs	r2, #15
	strd	r3, r2, [sp, #8]
	str	r3, [sp, #4]
	.loc 1 408 17 is_stmt 0 view .LVU88
	movs	r3, #24
	mla	r5, r3, r0, r5
	.loc 1 407 2 view .LVU89
	mov	r2, #320
.LBE96:
.LBE100:
	.loc 1 419 1 view .LVU90
	mov	r4, r0
.LBB101:
.LBB97:
	.loc 1 407 2 view .LVU91
	ldr	r3, .L24+12
	str	r5, [sp]
	mla	r1, r2, r0, r1
.LVL26:
	.loc 1 407 2 view .LVU92
	mov	r0, r6
.LVL27:
	.loc 1 407 2 view .LVU93
	bl	z_setup_new_thread
.LVL28:
	.loc 1 411 2 is_stmt 1 view .LVU94
.LBB91:
.LBI91:
	.file 3 "/home/g/mise-work/zmk-firmware/zmk/zephyr/kernel/include/ksched.h"
	.loc 3 157 20 view .LVU95
.LBB92:
	.loc 3 159 2 view .LVU96
	.loc 3 159 28 is_stmt 0 view .LVU97
	ldrb	r3, [r6, #13]	@ zero_extendqisi2
.LBE92:
.LBE91:
.LBE97:
.LBE101:
	.loc 1 422 22 view .LVU98
	strb	r4, [r5, #16]
.LBB102:
.LBB98:
.LBB94:
.LBB93:
	.loc 3 159 28 view .LVU99
	bic	r3, r3, #4
	strb	r3, [r6, #13]
.LVL29:
	.loc 3 159 28 view .LVU100
.LBE93:
.LBE94:
.LBE98:
.LBE102:
	.loc 1 421 2 is_stmt 1 view .LVU101
	.loc 1 424 50 is_stmt 0 view .LVU102
	ldr	r3, .L24+16
	.loc 1 421 31 view .LVU103
	str	r6, [r5, #12]
	.loc 1 422 2 is_stmt 1 view .LVU104
	.loc 1 423 2 view .LVU105
	.loc 1 424 50 is_stmt 0 view .LVU106
	adds	r4, r4, #1
.LVL30:
	.loc 1 424 50 view .LVU107
	add	r3, r3, r4, lsl #11
	.loc 1 423 29 view .LVU108
	str	r3, [r5, #4]
	.loc 1 436 2 is_stmt 1 view .LVU109
.LBB103:
.LBI103:
	.file 4 "/home/g/mise-work/zmk-firmware/zmk/zephyr/include/zephyr/sys/atomic_builtin.h"
	.loc 4 123 28 view .LVU110
.LVL31:
	.loc 4 125 2 view .LVU111
.LBB104:
.LBI104:
	.loc 4 86 28 view .LVU112
.LBB105:
	.loc 4 88 2 view .LVU113
	.loc 4 88 9 is_stmt 0 view .LVU114
	ldr	r3, .L24+20
	dmb	ish
.L23:
	ldrex	r1, [r3]
	adds	r1, r1, #1
	strex	r2, r1, [r3]
	cmp	r2, #0
	bne	.L23
	dmb	ish
.LVL32:
	.loc 4 88 9 view .LVU115
.LBE105:
.LBE104:
.LBE103:
	.loc 1 446 1 view .LVU116
	add	sp, sp, #24
	.cfi_def_cfa_offset 16
	@ sp needed
	pop	{r4, r5, r6, pc}
.LVL33:
.L25:
	.loc 1 446 1 view .LVU117
	.align	2
.L24:
	.word	z_idle_threads
	.word	_kernel
	.word	z_idle_stacks
	.word	idle
	.word	z_interrupt_stacks
	.word	_cpus_active
	.cfi_endproc
.LFE589:
	.size	z_init_cpu, .-z_init_cpu
	.section	.text.z_early_rand_get,"ax",%progbits
	.align	1
	.weak	z_early_rand_get
	.syntax unified
	.thumb
	.thumb_func
	.type	z_early_rand_get, %function
z_early_rand_get:
.LVL34:
.LFB592:
	.loc 1 513 1 is_stmt 1 view -0
	.cfi_startproc
	@ args = 0, pretend = 0, frame = 8
	@ frame_needed = 0, uses_anonymous_args = 0
	.loc 1 514 2 view .LVU119
	.loc 1 515 2 view .LVU120
	.loc 1 518 2 view .LVU121
	.loc 1 520 2 view .LVU122
.LBB118:
.LBI118:
	.file 5 "/home/g/mise-work/zmk-firmware/zmk/app/build/zephyr/include/generated/syscalls/device.h"
	.loc 5 49 19 view .LVU123
.LBB119:
	.loc 5 57 2 view .LVU124
	.loc 5 57 7 view .LVU125
.LBE119:
.LBE118:
	.loc 1 513 1 is_stmt 0 view .LVU126
	push	{r0, r1, r2, r4, r5, r6, r7, r8, r9, lr}
	.cfi_def_cfa_offset 40
	.cfi_offset 4, -28
	.cfi_offset 5, -24
	.cfi_offset 6, -20
	.cfi_offset 7, -16
	.cfi_offset 8, -12
	.cfi_offset 9, -8
	.cfi_offset 14, -4
	.loc 1 513 1 view .LVU127
	mov	r5, r0
	mov	r4, r1
.LBB123:
.LBB122:
	.loc 5 57 7 view .LVU128
	.loc 5 57 5 is_stmt 1 view .LVU129
	.loc 5 58 2 view .LVU130
.LVL35:
.LBB120:
.LBI120:
	.file 6 "/home/g/mise-work/zmk-firmware/zmk/zephyr/include/zephyr/device.h"
	.loc 6 744 19 view .LVU131
.LBB121:
	.loc 6 746 2 view .LVU132
	.loc 6 746 9 is_stmt 0 view .LVU133
	ldr	r6, .L35
	mov	r0, r6
.LVL36:
	.loc 6 746 9 view .LVU134
	bl	z_device_is_ready
.LVL37:
	.loc 6 746 9 view .LVU135
.LBE121:
.LBE120:
.LBE122:
.LBE123:
	.loc 1 520 23 view .LVU136
	cbz	r0, .L28
	.loc 1 522 3 is_stmt 1 view .LVU137
.LBB124:
.LBB125:
	.file 7 "/home/g/mise-work/zmk-firmware/zmk/zephyr/include/zephyr/drivers/entropy.h"
	.loc 7 106 13 is_stmt 0 view .LVU138
	ldr	r3, [r6, #8]
	ldr	r7, [r3, #4]
.LBE125:
.LBE124:
	.loc 1 522 8 view .LVU139
	uxth	r2, r4
.LVL38:
.LBB127:
.LBI124:
	.loc 7 98 19 is_stmt 1 view .LVU140
.LBB126:
	.loc 7 103 2 view .LVU141
	.loc 7 106 2 view .LVU142
	.loc 7 106 5 is_stmt 0 view .LVU143
	cbz	r7, .L28
	.loc 7 110 2 is_stmt 1 view .LVU144
	.loc 7 110 9 is_stmt 0 view .LVU145
	mov	r1, r5
	movs	r3, #1
	mov	r0, r6
	blx	r7
.LVL39:
	.loc 7 110 9 view .LVU146
.LBE126:
.LBE127:
	.loc 1 523 3 is_stmt 1 view .LVU147
	.loc 1 523 6 is_stmt 0 view .LVU148
	cmp	r0, #0
	.loc 1 524 4 is_stmt 1 view .LVU149
	.loc 1 524 11 is_stmt 0 view .LVU150
	itt	gt
	subgt	r4, r4, r0
.LVL40:
	.loc 1 525 4 is_stmt 1 view .LVU151
	.loc 1 525 8 is_stmt 0 view .LVU152
	addgt	r5, r5, r0
.LVL41:
.L28:
.LBB128:
	.loc 1 534 17 view .LVU153
	ldr	r6, .L35+4
	ldr	r8, .L35+16
	.loc 1 534 42 view .LVU154
	ldr	r7, .L35+8
.L30:
	.loc 1 534 42 view .LVU155
.LBE128:
	.loc 1 530 16 is_stmt 1 view .LVU156
	cbnz	r4, .L31
	.loc 1 542 1 is_stmt 0 view .LVU157
	add	sp, sp, #12
	.cfi_remember_state
	.cfi_def_cfa_offset 28
	@ sp needed
	pop	{r4, r5, r6, r7, r8, r9, pc}
.LVL42:
.L31:
	.cfi_restore_state
.LBB132:
	.loc 1 531 3 is_stmt 1 view .LVU158
	.loc 1 533 3 view .LVU159
.LBB129:
.LBI129:
	.file 8 "/home/g/mise-work/zmk-firmware/zmk/zephyr/include/zephyr/kernel.h"
	.loc 8 1816 24 view .LVU160
	.loc 8 1818 2 view .LVU161
.LBB130:
.LBI130:
	.file 9 "/home/g/mise-work/zmk-firmware/zmk/zephyr/include/zephyr/arch/arm/misc.h"
	.loc 9 24 24 view .LVU162
.LBB131:
	.loc 9 26 2 view .LVU163
	.loc 9 26 9 is_stmt 0 view .LVU164
	bl	sys_clock_cycle_get_32
.LVL43:
.LBE131:
.LBE130:
.LBE129:
	.loc 1 534 3 is_stmt 1 view .LVU165
	.loc 1 533 17 is_stmt 0 view .LVU166
	ldr	r1, .L35+12
	ldrd	r3, r2, [r1]
	adds	r3, r0, r3
	adc	r0, r2, #0
	.loc 1 534 17 view .LVU167
	mul	r2, r8, r3
	mla	r2, r6, r0, r2
	umull	r3, r0, r3, r6
	.loc 1 534 42 view .LVU168
	adds	r3, r3, r7
	adc	r2, r2, r0
	.loc 1 536 47 view .LVU169
	cmp	r4, #4
	mov	r9, r4
	it	cs
	movcs	r9, #4
	.loc 1 534 9 view .LVU170
	strd	r3, r2, [r1]
	.loc 1 535 3 is_stmt 1 view .LVU171
	.loc 1 535 9 is_stmt 0 view .LVU172
	str	r2, [sp, #4]
	.loc 1 536 3 is_stmt 1 view .LVU173
.LVL44:
	.loc 1 537 3 view .LVU174
	mov	r0, r5
	mov	r2, r9
	add	r1, sp, #4
	bl	z_early_memcpy
.LVL45:
	.loc 1 539 3 view .LVU175
	.loc 1 539 10 is_stmt 0 view .LVU176
	sub	r4, r4, r9
.LVL46:
	.loc 1 540 3 is_stmt 1 view .LVU177
	.loc 1 540 7 is_stmt 0 view .LVU178
	add	r5, r5, r9
.LVL47:
	.loc 1 540 7 view .LVU179
	b	.L30
.L36:
	.align	2
.L35:
	.word	__device_dts_ord_111
	.word	-2018463491
	.word	-1257966803
	.word	state.1
	.word	666578662
.LBE132:
	.cfi_endproc
.LFE592:
	.size	z_early_rand_get, .-z_early_rand_get
	.section	.rodata.z_cstart.str1.1,"aMS",%progbits,1
.LC0:
	.ascii	"main\000"
	.section	.text.z_cstart,"ax",%progbits
	.align	1
	.global	z_cstart
	.syntax unified
	.thumb
	.thumb_func
	.type	z_cstart, %function
z_cstart:
.LFB593:
	.loc 1 557 1 is_stmt 1 view -0
	.cfi_startproc
	@ Volatile: function does not return.
	@ args = 0, pretend = 0, frame = 200
	@ frame_needed = 0, uses_anonymous_args = 0
	.loc 1 559 2 view .LVU181
	.loc 1 562 2 view .LVU182
	.loc 1 557 1 is_stmt 0 view .LVU183
	push	{r7, lr}
	.cfi_def_cfa_offset 8
	.cfi_offset 7, -8
	.cfi_offset 14, -4
	.loc 1 562 2 view .LVU184
	movs	r0, #0
	.loc 1 557 1 view .LVU185
	sub	sp, sp, #224
	.cfi_def_cfa_offset 232
	.loc 1 562 2 view .LVU186
	bl	z_sys_init_run_level
.LVL48:
	.loc 1 565 2 is_stmt 1 view .LVU187
.LBB179:
.LBI179:
	.file 10 "/home/g/mise-work/zmk-firmware/zmk/zephyr/arch/arm/include/cortex_m/kernel_arch_func.h"
	.loc 10 39 51 view .LVU188
.LBB180:
	.loc 10 41 2 view .LVU189
.LBB181:
.LBI181:
	.file 11 "/home/g/mise-work/zmk-firmware/zmk/zephyr/arch/arm/include/cortex_m/stack.h"
	.loc 11 40 51 view .LVU190
.LBB182:
	.loc 11 42 2 view .LVU191
	.loc 11 46 2 view .LVU192
.LBB183:
.LBI183:
	.file 12 "/home/g/mise-work/zmk-firmware/zmk/modules/hal/cmsis/CMSIS/Core/Include/cmsis_gcc.h"
	.loc 12 1153 51 view .LVU193
.LBB184:
	.loc 12 1155 3 view .LVU194
.LBE184:
.LBE183:
	.loc 11 42 11 is_stmt 0 view .LVU195
	ldr	r3, .L38
.LVL49:
.LBB186:
.LBB185:
	.loc 12 1155 3 view .LVU196
	.syntax unified
@ 1155 "/home/g/mise-work/zmk-firmware/zmk/modules/hal/cmsis/CMSIS/Core/Include/cmsis_gcc.h" 1
	MSR msp, r3
@ 0 "" 2
.LVL50:
	.loc 12 1155 3 view .LVU197
	.thumb
	.syntax unified
.LBE185:
.LBE186:
	.loc 11 62 2 is_stmt 1 view .LVU198
	.loc 11 62 45 is_stmt 0 view .LVU199
	ldr	r5, .L38+4
.LBE182:
.LBE181:
.LBE180:
.LBE179:
.LBB224:
.LBB225:
	.file 13 "/home/g/mise-work/zmk-firmware/zmk/zephyr/kernel/include/kswap.h"
	.loc 13 263 30 view .LVU200
	ldr	r6, .L38+8
.LBE225:
.LBE224:
.LBB227:
.LBB222:
.LBB189:
.LBB187:
	.loc 11 62 45 view .LVU201
	ldr	r3, [r5, #20]
.LVL51:
	.loc 11 62 45 view .LVU202
.LBE187:
.LBE189:
.LBE222:
.LBE227:
.LBB228:
.LBB229:
	.loc 1 480 14 view .LVU203
	ldr	r7, .L38+12
.LBE229:
.LBE228:
.LBB238:
.LBB223:
.LBB190:
.LBB188:
	.loc 11 62 51 view .LVU204
	orr	r3, r3, #512
	str	r3, [r5, #20]
.LVL52:
	.loc 11 62 51 view .LVU205
.LBE188:
.LBE190:
	.loc 10 42 2 is_stmt 1 view .LVU206
.LBB191:
.LBI191:
	.file 14 "/home/g/mise-work/zmk-firmware/zmk/zephyr/arch/arm/include/cortex_m/exc.h"
	.loc 14 97 51 view .LVU207
.LBB192:
	.loc 14 102 2 view .LVU208
.LBB193:
.LBI193:
	.file 15 "/home/g/mise-work/zmk-firmware/zmk/modules/hal/cmsis/CMSIS/Core/Include/core_cm4.h"
	.loc 15 1814 20 view .LVU209
	.loc 15 1816 3 view .LVU210
.LBB194:
.LBI194:
	.loc 15 1814 20 view .LVU211
.LBB195:
	.loc 15 1822 5 view .LVU212
.LBE195:
.LBE194:
.LBE193:
.LBB198:
.LBB199:
.LBB200:
	.loc 15 1822 86 is_stmt 0 view .LVU213
	movs	r4, #0
.LBE200:
.LBE199:
.LBE198:
.LBB203:
.LBB197:
.LBB196:
	movs	r3, #224
	strb	r3, [r5, #34]
.LVL53:
	.loc 15 1822 86 view .LVU214
.LBE196:
.LBE197:
.LBE203:
	.loc 14 108 2 is_stmt 1 view .LVU215
.LBB204:
.LBI198:
	.loc 15 1814 20 view .LVU216
	.loc 15 1816 3 view .LVU217
.LBB202:
.LBI199:
	.loc 15 1814 20 view .LVU218
.LBB201:
	.loc 15 1822 5 view .LVU219
	.loc 15 1822 86 is_stmt 0 view .LVU220
	strb	r4, [r5, #31]
.LVL54:
	.loc 15 1822 86 view .LVU221
.LBE201:
.LBE202:
.LBE204:
	.loc 14 112 2 is_stmt 1 view .LVU222
.LBB205:
.LBI205:
	.loc 15 1814 20 view .LVU223
	.loc 15 1816 3 view .LVU224
.LBB206:
.LBI206:
	.loc 15 1814 20 view .LVU225
.LBB207:
	.loc 15 1822 5 view .LVU226
	.loc 15 1822 86 is_stmt 0 view .LVU227
	strb	r4, [r5, #24]
.LVL55:
	.loc 15 1822 86 view .LVU228
.LBE207:
.LBE206:
.LBE205:
	.loc 14 113 2 is_stmt 1 view .LVU229
.LBB208:
.LBI208:
	.loc 15 1814 20 view .LVU230
	.loc 15 1816 3 view .LVU231
.LBB209:
.LBI209:
	.loc 15 1814 20 view .LVU232
.LBB210:
	.loc 15 1822 5 view .LVU233
	.loc 15 1822 86 is_stmt 0 view .LVU234
	strb	r4, [r5, #25]
.LVL56:
	.loc 15 1822 86 view .LVU235
.LBE210:
.LBE209:
.LBE208:
	.loc 14 114 2 is_stmt 1 view .LVU236
.LBB211:
.LBI211:
	.loc 15 1814 20 view .LVU237
	.loc 15 1816 3 view .LVU238
.LBB212:
.LBI212:
	.loc 15 1814 20 view .LVU239
.LBB213:
	.loc 15 1822 5 view .LVU240
	.loc 15 1822 86 is_stmt 0 view .LVU241
	strb	r4, [r5, #26]
.LVL57:
	.loc 15 1822 86 view .LVU242
.LBE213:
.LBE212:
.LBE211:
	.loc 14 118 2 is_stmt 1 view .LVU243
.LBB214:
.LBI214:
	.loc 15 1814 20 view .LVU244
	.loc 15 1816 3 view .LVU245
.LBB215:
.LBI215:
	.loc 15 1814 20 view .LVU246
.LBB216:
	.loc 15 1822 5 view .LVU247
	.loc 15 1822 86 is_stmt 0 view .LVU248
	strb	r4, [r5, #32]
.LVL58:
	.loc 15 1822 86 view .LVU249
.LBE216:
.LBE215:
.LBE214:
	.loc 14 125 2 is_stmt 1 view .LVU250
	.loc 14 125 45 is_stmt 0 view .LVU251
	ldr	r3, [r5, #36]
	.loc 14 125 53 view .LVU252
	orr	r3, r3, #458752
	str	r3, [r5, #36]
	.loc 14 161 2 is_stmt 1 view .LVU253
.LVL59:
.LBB217:
.LBI217:
	.loc 15 1814 20 view .LVU254
	.loc 15 1816 3 view .LVU255
.LBB218:
.LBI218:
	.loc 15 1814 20 view .LVU256
.LBB219:
	.loc 15 1822 5 view .LVU257
	.loc 15 1822 86 is_stmt 0 view .LVU258
	strb	r4, [r5, #35]
.LVL60:
	.loc 15 1822 86 view .LVU259
.LBE219:
.LBE218:
.LBE217:
.LBE192:
.LBE191:
	.loc 10 43 2 is_stmt 1 view .LVU260
	bl	z_arm_fault_init
.LVL61:
	.loc 10 44 2 view .LVU261
	bl	z_arm_cpu_idle_init
.LVL62:
	.loc 10 45 2 view .LVU262
.LBB220:
.LBI220:
	.loc 14 171 51 view .LVU263
.LBB221:
	.loc 14 176 2 view .LVU264
	.loc 14 176 52 is_stmt 0 view .LVU265
	mov	r3, #-1
	str	r3, [r5, #40]
	.loc 14 181 2 is_stmt 1 view .LVU266
	.loc 14 181 52 is_stmt 0 view .LVU267
	str	r3, [r5, #44]
.LBE221:
.LBE220:
	.loc 10 47 2 is_stmt 1 view .LVU268
	bl	z_arm_mpu_init
.LVL63:
	.loc 10 54 2 view .LVU269
	bl	z_arm_configure_static_mpu_regions
.LVL64:
.LBE223:
.LBE238:
	.loc 1 567 2 view .LVU270
	bl	log_core_init
.LVL65:
	.loc 1 573 2 view .LVU271
	.loc 1 575 2 view .LVU272
.LBB239:
.LBI224:
	.loc 13 239 20 view .LVU273
.LBB226:
	.loc 13 241 2 view .LVU274
	.loc 13 245 2 view .LVU275
	.loc 13 245 34 is_stmt 0 view .LVU276
	movw	r3, #257
	strh	r3, [sp, #36]	@ movhi
	.loc 13 247 2 is_stmt 1 view .LVU277
	.loc 13 263 30 is_stmt 0 view .LVU278
	add	r3, sp, #24
.LVL66:
	.loc 13 263 30 view .LVU279
	str	r3, [r6, #8]
	.loc 13 248 32 view .LVU280
	strd	r4, r4, [sp, #124]
	.loc 13 256 2 is_stmt 1 view .LVU281
	.loc 13 256 30 is_stmt 0 view .LVU282
	str	r4, [sp, #136]
	.loc 13 263 2 is_stmt 1 view .LVU283
.LVL67:
	.loc 13 263 2 is_stmt 0 view .LVU284
.LBE226:
.LBE239:
	.loc 1 578 2 is_stmt 1 view .LVU285
	bl	z_device_state_init
.LVL68:
	.loc 1 581 2 view .LVU286
	movs	r0, #1
	bl	z_sys_init_run_level
.LVL69:
	.loc 1 582 2 view .LVU287
	movs	r0, #2
.LBB240:
.LBB236:
	.loc 1 478 24 is_stmt 0 view .LVU288
	ldr	r5, .L38+16
.LBE236:
.LBE240:
	.loc 1 582 2 view .LVU289
	bl	z_sys_init_run_level
.LVL70:
	.loc 1 598 2 is_stmt 1 view .LVU290
.LBB241:
.LBI228:
	.loc 1 461 14 view .LVU291
.LBB237:
	.loc 1 463 2 view .LVU292
	.loc 1 466 2 view .LVU293
	bl	z_sched_init
.LVL71:
	.loc 1 478 2 view .LVU294
	.loc 1 480 14 is_stmt 0 view .LVU295
	ldr	r3, .L38+20
	.loc 1 478 24 view .LVU296
	str	r5, [r6, #24]
	.loc 1 480 2 is_stmt 1 view .LVU297
	.loc 1 480 14 is_stmt 0 view .LVU298
	str	r3, [sp, #20]
	movs	r3, #1
	ldr	r1, .L38+24
	str	r4, [sp]
	strd	r4, r3, [sp, #12]
	mov	r2, #1024
	mov	r3, r7
	strd	r4, r4, [sp, #4]
	mov	r0, r5
	bl	z_setup_new_thread
.LVL72:
.LBB230:
.LBB231:
	.loc 3 159 28 view .LVU299
	ldrb	r2, [r5, #13]	@ zero_extendqisi2
.LBE231:
.LBE230:
	.loc 1 480 14 view .LVU300
	mov	r6, r0
.LVL73:
	.loc 1 485 2 is_stmt 1 view .LVU301
.LBB234:
.LBI230:
	.loc 3 157 20 view .LVU302
.LBB232:
	.loc 3 159 2 view .LVU303
	.loc 3 159 28 is_stmt 0 view .LVU304
	bic	r2, r2, #4
.LBE232:
.LBE234:
	.loc 1 486 2 view .LVU305
	mov	r0, r5
.LVL74:
.LBB235:
.LBB233:
	.loc 3 159 28 view .LVU306
	strb	r2, [r5, #13]
.LVL75:
	.loc 3 159 28 view .LVU307
.LBE233:
.LBE235:
	.loc 1 486 2 is_stmt 1 view .LVU308
	bl	z_ready_thread
.LVL76:
	.loc 1 488 2 view .LVU309
	mov	r0, r4
	bl	z_init_cpu
.LVL77:
	.loc 1 490 2 view .LVU310
	.loc 1 490 2 is_stmt 0 view .LVU311
.LBE237:
.LBE241:
.LBB242:
.LBI242:
	.loc 1 494 43 is_stmt 1 view .LVU312
.LBB243:
	.loc 1 497 2 view .LVU313
	mov	r2, r7
	mov	r1, r6
	mov	r0, r5
	bl	arch_switch_to_main_thread
.LVL78:
	.loc 1 507 2 view .LVU314
.L39:
	.align	2
.L38:
	.word	z_interrupt_stacks+2048
	.word	-536810240
	.word	_kernel
	.word	bg_thread_main
	.word	z_main_thread
	.word	.LC0
	.word	z_main_stack
.LBE243:
.LBE242:
	.cfi_endproc
.LFE593:
	.size	z_cstart, .-z_cstart
	.section	.rodata.levels.0,"a"
	.align	2
	.type	levels.0, %object
	.size	levels.0, 24
levels.0:
	.word	__init_EARLY_start
	.word	__init_PRE_KERNEL_1_start
	.word	__init_PRE_KERNEL_2_start
	.word	__init_POST_KERNEL_start
	.word	__init_APPLICATION_start
	.word	__init_end
	.section	.data.state.1,"aw"
	.align	3
	.type	state.1, %object
	.size	state.1, 8
state.1:
	.word	123456789
	.word	0
	.global	z_sys_post_kernel
	.section	.bss.z_sys_post_kernel,"aw",%nobits
	.type	z_sys_post_kernel, %object
	.size	z_sys_post_kernel, 1
z_sys_post_kernel:
	.space	1
	.global	z_interrupt_stacks
	.section	.noinit."WEST_TOPDIR/zephyr/kernel/init.c".2,"aw"
	.align	3
	.type	z_interrupt_stacks, %object
	.size	z_interrupt_stacks, 2048
z_interrupt_stacks:
	.space	2048
	.section	.noinit."WEST_TOPDIR/zephyr/kernel/init.c".1,"aw"
	.align	3
	.type	z_idle_stacks, %object
	.size	z_idle_stacks, 320
z_idle_stacks:
	.space	320
	.global	z_idle_threads
	.section	.bss.z_idle_threads,"aw",%nobits
	.align	3
	.type	z_idle_threads, %object
	.size	z_idle_threads, 200
z_idle_threads:
	.space	200
	.global	z_main_thread
	.section	.bss.z_main_thread,"aw",%nobits
	.align	3
	.type	z_main_thread, %object
	.size	z_main_thread, 200
z_main_thread:
	.space	200
	.global	z_main_stack
	.section	.noinit."WEST_TOPDIR/zephyr/kernel/init.c".0,"aw"
	.align	3
	.type	z_main_stack, %object
	.size	z_main_stack, 1024
z_main_stack:
	.space	1024
	.global	_cpus_active
	.section	.bss._cpus_active,"aw",%nobits
	.align	2
	.type	_cpus_active, %object
	.size	_cpus_active, 4
_cpus_active:
	.space	4
	.global	_kernel
	.section	.bss._kernel,"aw",%nobits
	.align	2
	.type	_kernel, %object
	.size	_kernel, 40
_kernel:
	.space	40
	.global	log_const_os
	.section	.rodata.str1.1,"aMS",%progbits,1
.LC1:
	.ascii	"os\000"
	.section	._log_const.static.log_const_os_,"a"
	.align	2
	.type	log_const_os, %object
	.size	log_const_os, 8
log_const_os:
	.word	.LC1
	.byte	3
	.space	3
	.text
.Letext0:
	.file 16 "/home/g/zephyr-sdk-0.16.3/arm-zephyr-eabi/lib/gcc/arm-zephyr-eabi/12.2.0/include/stddef.h"
	.file 17 "/home/g/zephyr-sdk-0.16.3/arm-zephyr-eabi/picolibc/include/machine/_default_types.h"
	.file 18 "/home/g/zephyr-sdk-0.16.3/arm-zephyr-eabi/picolibc/include/sys/_stdint.h"
	.file 19 "/home/g/mise-work/zmk-firmware/zmk/zephyr/include/zephyr/sys/atomic.h"
	.file 20 "/home/g/mise-work/zmk-firmware/zmk/zephyr/include/zephyr/sys/dlist.h"
	.file 21 "/home/g/mise-work/zmk-firmware/zmk/zephyr/include/zephyr/sys/rb.h"
	.file 22 "/home/g/mise-work/zmk-firmware/zmk/zephyr/include/zephyr/sys/sys_heap.h"
	.file 23 "/home/g/mise-work/zmk-firmware/zmk/zephyr/include/zephyr/kernel_structs.h"
	.file 24 "/home/g/mise-work/zmk-firmware/zmk/zephyr/include/zephyr/kernel/thread.h"
	.file 25 "/home/g/mise-work/zmk-firmware/zmk/zephyr/include/zephyr/sys/arch_interface.h"
	.file 26 "/home/g/mise-work/zmk-firmware/zmk/zephyr/include/zephyr/kernel/thread_stack.h"
	.file 27 "/home/g/mise-work/zmk-firmware/zmk/zephyr/include/zephyr/arch/arm/thread.h"
	.file 28 "/home/g/mise-work/zmk-firmware/zmk/modules/hal/nordic/nrfx/mdk/nrf52840.h"
	.file 29 "/home/g/mise-work/zmk-firmware/zmk/zephyr/include/zephyr/arch/structs.h"
	.file 30 "/home/g/mise-work/zmk-firmware/zmk/zephyr/include/zephyr/spinlock.h"
	.file 31 "/home/g/mise-work/zmk-firmware/zmk/zephyr/include/zephyr/fatal_types.h"
	.file 32 "/home/g/mise-work/zmk-firmware/zmk/zephyr/include/zephyr/logging/log_instance.h"
	.file 33 "/home/g/mise-work/zmk-firmware/zmk/zephyr/include/zephyr/init.h"
	.file 34 "/home/g/mise-work/zmk-firmware/zmk/zephyr/include/zephyr/linker/linker-defs.h"
	.file 35 "/home/g/mise-work/zmk-firmware/zmk/zephyr/kernel/include/kernel_internal.h"
	.file 36 "/home/g/mise-work/zmk-firmware/zmk/zephyr/kernel/include/kernel_arch_interface.h"
	.file 37 "/home/g/mise-work/zmk-firmware/zmk/zephyr/include/zephyr/logging/log_ctrl.h"
	.file 38 "/home/g/mise-work/zmk-firmware/zmk/zephyr/include/zephyr/pm/device_runtime.h"
	.file 39 "/home/g/mise-work/zmk-firmware/zmk/zephyr/include/zephyr/debug/gcov.h"
	.file 40 "<built-in>"