	.cpu cortex-m4
	.arch armv7e-m
	.fpu fpv4-sp-d16
	.eabi_attribute 27, 1
	.eabi_attribute 28, 1
	.eabi_attribute 20, 1
	.eabi_attribute 21, 1
	.eabi_attribute 23, 3
	.eabi_attribute 24, 1
	.eabi_attribute 25, 1
	.eabi_attribute 26, 1
	.eabi_attribute 30, 4
	.eabi_attribute 34, 1
	.eabi_attribute 38, 1
	.eabi_attribute 18, 4
	.file	"mem_slab.c"
	.text
.Ltext0:
	.cfi_sections	.debug_frame
	.file 1 "/home/g/mise-work/zmk-firmware/zmk/zephyr/kernel/mem_slab.c"
	.section	.text.create_free_list,"ax",%progbits
	.align	1
	.syntax unified
	.thumb
	.thumb_func
	.type	create_free_list, %function
create_free_list:
.LVL0:
.LFB495:
	.loc 1 105 1 view -0
	.cfi_startproc
	@ args = 0, pretend = 0, frame = 0
	@ frame_needed = 0, uses_anonymous_args = 0
	@ link register save eliminated.
	.loc 1 106 2 view .LVU1
	.loc 1 107 2 view .LVU2
	.loc 1 110 2 view .LVU3
	.loc 1 110 47 is_stmt 0 view .LVU4
	ldr	r2, [r0, #8]
	.loc 1 110 30 view .LVU5
	ldr	r3, [r0, #20]
	orrs	r3, r3, r2
	.loc 1 110 5 view .LVU6
	ands	r3, r3, #3
	bne	.L5
	.loc 1 115 2 is_stmt 1 view .LVU7
	.loc 1 115 18 is_stmt 0 view .LVU8
	str	r3, [r0, #12]
	.loc 1 116 2 is_stmt 1 view .LVU9
.LVL1:
	.loc 1 118 2 view .LVU10
.L3:
	.loc 1 118 17 discriminator 1 view .LVU11
	ldr	r1, [r0, #16]
	cmp	r1, r3
	bhi	.L4
	.loc 1 123 9 is_stmt 0 view .LVU12
	movs	r0, #0
.LVL2:
	.loc 1 123 9 view .LVU13
	bx	lr
.LVL3:
.L4:
	.loc 1 119 3 is_stmt 1 discriminator 3 view .LVU14
	.loc 1 119 21 is_stmt 0 discriminator 3 view .LVU15
	ldr	r1, [r0, #12]
	.loc 1 119 15 discriminator 3 view .LVU16
	str	r1, [r2]
	.loc 1 120 3 is_stmt 1 discriminator 3 view .LVU17
	.loc 1 121 5 is_stmt 0 discriminator 3 view .LVU18
	ldr	r1, [r0, #20]
	.loc 1 120 19 discriminator 3 view .LVU19
	str	r2, [r0, #12]
	.loc 1 121 3 is_stmt 1 discriminator 3 view .LVU20
	.loc 1 118 43 is_stmt 0 discriminator 3 view .LVU21
	adds	r3, r3, #1
.LVL4:
	.loc 1 121 5 discriminator 3 view .LVU22
	add	r2, r2, r1
.LVL5:
	.loc 1 118 43 is_stmt 1 discriminator 3 view .LVU23
	.loc 1 118 43 is_stmt 0 discriminator 3 view .LVU24
	b	.L3
.LVL6:
.L5:
	.loc 1 112 10 view .LVU25
	mvn	r0, #21
.LVL7:
	.loc 1 124 1 view .LVU26
	bx	lr
	.cfi_endproc
.LFE495:
	.size	create_free_list, .-create_free_list
	.section	.text.init_mem_slab_obj_core_list,"ax",%progbits
	.align	1
	.syntax unified
	.thumb
	.thumb_func
	.type	init_mem_slab_obj_core_list, %function
init_mem_slab_obj_core_list:
.LFB496:
	.loc 1 134 1 is_stmt 1 view -0
	.cfi_startproc
	@ args = 0, pretend = 0, frame = 0
	@ frame_needed = 0, uses_anonymous_args = 0
	.loc 1 135 2 view .LVU28
.LVL8:
	.loc 1 149 2 view .LVU29
	.loc 1 149 53 view .LVU30
	.loc 1 149 102 view .LVU31
.LBB54:
	.loc 1 149 107 view .LVU32
	.loc 1 149 107 is_stmt 0 view .LVU33
.LBE54:
	.loc 1 134 1 view .LVU34
	push	{r3, r4, r5, lr}
	.cfi_def_cfa_offset 16
	.cfi_offset 3, -16
	.cfi_offset 4, -12
	.cfi_offset 5, -8
	.cfi_offset 14, -4
.LBB55:
	.loc 1 149 127 view .LVU35
	ldr	r4, .L10
	.loc 1 149 158 view .LVU36
	ldr	r5, .L10+4
.LBE55:
	.loc 1 135 6 view .LVU37
	movs	r0, #0
.LVL9:
.L7:
.LBB56:
	.loc 1 149 158 is_stmt 1 discriminator 1 view .LVU38
.LBE56:
	.loc 1 149 163 discriminator 1 view .LVU39
	.loc 1 149 164 discriminator 1 view .LVU40
	.loc 1 149 166 discriminator 1 view .LVU41
.LBB57:
	.loc 1 149 158 is_stmt 0 discriminator 1 view .LVU42
	cmp	r4, r5
	bcc	.L9
.L8:
.L6:
.LBE57:
	.loc 1 167 1 view .LVU43
	pop	{r3, r4, r5, pc}
.LVL10:
.L9:
.LBB58:
	.loc 1 150 3 is_stmt 1 view .LVU44
	.loc 1 150 8 is_stmt 0 view .LVU45
	mov	r0, r4
	bl	create_free_list
.LVL11:
	.loc 1 151 3 is_stmt 1 view .LVU46
	.loc 1 151 6 is_stmt 0 view .LVU47
	cmp	r0, #0
	.loc 1 151 6 view .LVU48
	blt	.L6
	.loc 1 154 3 is_stmt 1 discriminator 2 view .LVU49
	.loc 1 149 203 discriminator 2 view .LVU50
	adds	r4, r4, #28
.LVL12:
	.loc 1 149 203 is_stmt 0 discriminator 2 view .LVU51
	b	.L7
.L11:
	.align	2
.L10:
	.word	_k_mem_slab_list_start
	.word	_k_mem_slab_list_end
.LBE58:
	.cfi_endproc
.LFE496:
	.size	init_mem_slab_obj_core_list, .-init_mem_slab_obj_core_list
	.section	.text.k_mem_slab_init,"ax",%progbits
	.align	1
	.global	k_mem_slab_init
	.syntax unified
	.thumb
	.thumb_func
	.type	k_mem_slab_init, %function
k_mem_slab_init:
.LVL13:
.LFB497:
	.loc 1 174 1 is_stmt 1 view -0
	.cfi_startproc
	@ args = 0, pretend = 0, frame = 0
	@ frame_needed = 0, uses_anonymous_args = 0
.L13:
	.loc 1 175 2 view .LVU53
	.loc 1 177 2 view .LVU54
	.loc 1 174 1 is_stmt 0 view .LVU55
	push	{r4, lr}
	.cfi_def_cfa_offset 8
	.cfi_offset 4, -8
	.cfi_offset 14, -4
	.loc 1 178 24 view .LVU56
	strd	r3, r2, [r0, #16]
	.loc 1 179 2 is_stmt 1 view .LVU57
	.loc 1 180 22 is_stmt 0 view .LVU58
	movs	r3, #0
.LVL14:
	.loc 1 179 15 view .LVU59
	str	r1, [r0, #8]
	.loc 1 180 2 is_stmt 1 view .LVU60
	.loc 1 180 22 is_stmt 0 view .LVU61
	str	r3, [r0, #24]
	.loc 1 181 2 is_stmt 1 view .LVU62
	.loc 1 187 2 view .LVU63
	.loc 1 174 1 is_stmt 0 view .LVU64
	mov	r4, r0
	.loc 1 187 7 view .LVU65
	bl	create_free_list
.LVL15:
	.loc 1 188 2 is_stmt 1 view .LVU66
	.loc 1 188 5 is_stmt 0 view .LVU67
	cmp	r0, #0
	.loc 1 200 2 is_stmt 1 view .LVU68
.LVL16:
.LBB59:
.LBI59:
	.file 2 "/home/g/mise-work/zmk-firmware/zmk/zephyr/kernel/include/wait_q.h"
	.loc 2 47 20 view .LVU69
.LBB60:
	.loc 2 49 2 view .LVU70
.LBB61:
.LBI61:
	.file 3 "/home/g/mise-work/zmk-firmware/zmk/zephyr/include/zephyr/sys/dlist.h"
	.loc 3 203 20 view .LVU71
.LBB62:
	.loc 3 205 2 view .LVU72
	.loc 3 206 13 is_stmt 0 view .LVU73
	it	ge
	strdge	r4, r4, [r4]
.LVL17:
	.loc 3 206 13 view .LVU74
.LBE62:
.LBE61:
.LBE60:
.LBE59:
	.loc 1 203 2 is_stmt 1 view .LVU75
	.loc 1 203 7 view .LVU76
	.loc 1 203 5 view .LVU77
	.loc 1 205 2 view .LVU78
	.loc 1 206 1 is_stmt 0 view .LVU79
	pop	{r4, pc}
	.loc 1 206 1 view .LVU80
	.cfi_endproc
.LFE497:
	.size	k_mem_slab_init, .-k_mem_slab_init
	.section	.text.k_mem_slab_alloc,"ax",%progbits
	.align	1
	.global	k_mem_slab_alloc
	.syntax unified
	.thumb
	.thumb_func
	.type	k_mem_slab_alloc, %function
k_mem_slab_alloc:
.LVL18:
.LFB498:
	.loc 1 209 1 is_stmt 1 view -0
	.cfi_startproc
	@ args = 0, pretend = 0, frame = 0
	@ frame_needed = 0, uses_anonymous_args = 0
	.loc 1 210 2 view .LVU82
.LBB63:
.LBI63:
	.file 4 "/home/g/mise-work/zmk-firmware/zmk/zephyr/include/zephyr/spinlock.h"
	.loc 4 160 63 view .LVU83
.LBB64:
	.loc 4 162 2 view .LVU84
	.loc 4 163 2 view .LVU85
	.loc 4 169 2 view .LVU86
.LBB65:
.LBI65:
	.file 5 "/home/g/mise-work/zmk-firmware/zmk/zephyr/include/zephyr/arch/arm/asm_inline_gcc.h"
	.loc 5 42 59 view .LVU87
.LBB66:
	.loc 5 44 2 view .LVU88
	.loc 5 57 2 view .LVU89
	.loc 5 59 2 view .LVU90
.LBE66:
.LBE65:
.LBE64:
.LBE63:
	.loc 1 209 1 is_stmt 0 view .LVU91
	push	{r0, r1, r4, r5, r6, lr}
	.cfi_def_cfa_offset 24
	.cfi_offset 4, -16
	.cfi_offset 5, -12
	.cfi_offset 6, -8
	.cfi_offset 14, -4
	.loc 1 209 1 view .LVU92
	mov	r4, r1
.LBB70:
.LBB69:
.LBB68:
.LBB67:
	.loc 5 59 2 view .LVU93
	.syntax unified
@ 59 "/home/g/mise-work/zmk-firmware/zmk/zephyr/include/zephyr/arch/arm/asm_inline_gcc.h" 1
	mov r5, #32;mrs r1, BASEPRI;msr BASEPRI_MAX, r5;isb;
@ 0 "" 2
.LVL19:
	.loc 5 88 2 is_stmt 1 view .LVU94
	.loc 5 88 2 is_stmt 0 view .LVU95
	.thumb
	.syntax unified
.LBE67:
.LBE68:
	.loc 4 171 2 is_stmt 1 view .LVU96
	.loc 4 177 2 view .LVU97
	.loc 4 179 2 view .LVU98
	.loc 4 179 2 is_stmt 0 view .LVU99
.LBE69:
.LBE70:
	.loc 1 211 2 is_stmt 1 view .LVU100
	.loc 1 213 2 view .LVU101
	.loc 1 213 7 view .LVU102
	.loc 1 213 5 view .LVU103
	.loc 1 215 2 view .LVU104
	.loc 1 215 10 is_stmt 0 view .LVU105
	ldr	r5, [r0, #12]
	.loc 1 215 5 view .LVU106
	cbz	r5, .L15
	.loc 1 217 3 is_stmt 1 view .LVU107
	.loc 1 217 8 is_stmt 0 view .LVU108
	str	r5, [r4]
	.loc 1 218 3 is_stmt 1 view .LVU109
	.loc 1 218 21 is_stmt 0 view .LVU110
	ldr	r3, [r5]
	.loc 1 218 19 view .LVU111
	str	r3, [r0, #12]
	.loc 1 219 3 is_stmt 1 view .LVU112
	.loc 1 219 22 is_stmt 0 view .LVU113
	ldr	r3, [r0, #24]
	adds	r3, r3, #1
	str	r3, [r0, #24]
	.loc 1 226 3 is_stmt 1 view .LVU114
.LVL20:
	.loc 1 226 10 is_stmt 0 view .LVU115
	movs	r0, #0
.LVL21:
.L16:
	.loc 1 246 2 is_stmt 1 view .LVU116
	.loc 1 246 7 view .LVU117
	.loc 1 246 5 view .LVU118
	.loc 1 248 2 view .LVU119
.LBB71:
.LBI71:
	.loc 4 235 51 view .LVU120
	.loc 4 238 2 view .LVU121
	.loc 4 261 2 view .LVU122
.LBB72:
.LBI72:
	.loc 5 96 51 view .LVU123
.LBB73:
	.loc 5 107 2 view .LVU124
	.syntax unified
@ 107 "/home/g/mise-work/zmk-firmware/zmk/zephyr/include/zephyr/arch/arm/asm_inline_gcc.h" 1
	msr BASEPRI, r1;isb;
@ 0 "" 2
.LVL22:
	.loc 5 107 2 is_stmt 0 view .LVU125
	.thumb
	.syntax unified
.LBE73:
.LBE72:
.LBE71:
	.loc 1 250 2 is_stmt 1 view .LVU126
	.loc 1 250 9 is_stmt 0 view .LVU127
	b	.L14
.LVL23:
.L15:
	.loc 1 227 9 is_stmt 1 view .LVU128
.LBB74:
	.loc 1 227 12 is_stmt 0 view .LVU129
	orrs	r6, r2, r3
	bne	.L17
	.loc 1 230 3 is_stmt 1 view .LVU130
	.loc 1 230 8 is_stmt 0 view .LVU131
	str	r5, [r4]
	.loc 1 231 3 is_stmt 1 view .LVU132
.LVL24:
	.loc 1 231 10 is_stmt 0 view .LVU133
	mvn	r0, #11
.LVL25:
	.loc 1 231 10 view .LVU134
	b	.L16
.LVL26:
.L17:
	.loc 1 233 3 is_stmt 1 view .LVU135
	.loc 1 233 8 view .LVU136
	.loc 1 233 6 view .LVU137
	.loc 1 236 3 view .LVU138
	.loc 1 236 12 is_stmt 0 view .LVU139
	strd	r2, r3, [sp]
	mov	r2, r0
.LVL27:
	.loc 1 236 12 view .LVU140
	adds	r0, r0, #8
.LVL28:
	.loc 1 236 12 view .LVU141
	bl	z_pend_curr
.LVL29:
	.loc 1 237 3 is_stmt 1 view .LVU142
	.loc 1 237 6 is_stmt 0 view .LVU143
	cbnz	r0, .L14
	.loc 1 238 4 is_stmt 1 view .LVU144
	.loc 1 238 26 is_stmt 0 view .LVU145
	ldr	r3, .L19
	.loc 1 238 40 view .LVU146
	ldr	r3, [r3, #8]
	ldr	r3, [r3, #20]
	.loc 1 238 9 view .LVU147
	str	r3, [r4]
.LVL30:
.L14:
	.loc 1 238 9 view .LVU148
.LBE74:
	.loc 1 251 1 view .LVU149
	add	sp, sp, #8
	.cfi_def_cfa_offset 16
	@ sp needed
	pop	{r4, r5, r6, pc}
.LVL31:
.L20:
	.loc 1 251 1 view .LVU150
	.align	2
.L19:
	.word	_kernel
	.cfi_endproc
.LFE498:
	.size	k_mem_slab_alloc, .-k_mem_slab_alloc
	.section	.text.k_mem_slab_free,"ax",%progbits
	.align	1
	.global	k_mem_slab_free
	.syntax unified
	.thumb
	.thumb_func
	.type	k_mem_slab_free, %function
k_mem_slab_free:
.LVL32:
.LFB499:
	.loc 1 254 1 is_stmt 1 view -0
	.cfi_startproc
	@ args = 0, pretend = 0, frame = 0
	@ frame_needed = 0, uses_anonymous_args = 0
	.loc 1 255 2 view .LVU152
.LBB75:
.LBI75:
	.loc 4 160 63 view .LVU153
.LBB76:
	.loc 4 162 2 view .LVU154
	.loc 4 163 2 view .LVU155
	.loc 4 169 2 view .LVU156
.LBB77:
.LBI77:
	.loc 5 42 59 view .LVU157
.LBB78:
	.loc 5 44 2 view .LVU158
	.loc 5 57 2 view .LVU159
	.loc 5 59 2 view .LVU160
.LBE78:
.LBE77:
.LBE76:
.LBE75:
	.loc 1 254 1 is_stmt 0 view .LVU161
	push	{r3, r4, r5, r6, r7, lr}
	.cfi_def_cfa_offset 24
	.cfi_offset 3, -24
	.cfi_offset 4, -20
	.cfi_offset 5, -16
	.cfi_offset 6, -12
	.cfi_offset 7, -8
	.cfi_offset 14, -4
	.loc 1 254 1 view .LVU162
	mov	r4, r0
	mov	r5, r1
.LBB82:
.LBB81:
.LBB80:
.LBB79:
	.loc 5 59 2 view .LVU163
	.syntax unified
@ 59 "/home/g/mise-work/zmk-firmware/zmk/zephyr/include/zephyr/arch/arm/asm_inline_gcc.h" 1
	mov r3, #32;mrs r6, BASEPRI;msr BASEPRI_MAX, r3;isb;
@ 0 "" 2
.LVL33:
	.loc 5 88 2 is_stmt 1 view .LVU164
	.loc 5 88 2 is_stmt 0 view .LVU165
	.thumb
	.syntax unified
.LBE79:
.LBE80:
	.loc 4 171 2 is_stmt 1 view .LVU166
	.loc 4 177 2 view .LVU167
	.loc 4 179 2 view .LVU168
	.loc 4 179 2 is_stmt 0 view .LVU169
.LBE81:
.LBE82:
	.loc 1 257 4 is_stmt 1 view .LVU170
	.loc 1 261 38 view .LVU171
	.loc 1 263 2 view .LVU172
	.loc 1 263 7 view .LVU173
	.loc 1 263 5 view .LVU174
	.loc 1 264 2 view .LVU175
	.loc 1 264 5 is_stmt 0 view .LVU176
	ldr	r7, [r0, #12]
	cbnz	r7, .L22
.LBB83:
	.loc 1 265 3 is_stmt 1 view .LVU177
	.loc 1 265 37 is_stmt 0 view .LVU178
	bl	z_unpend_first_thread
.LVL34:
	.loc 1 267 3 is_stmt 1 view .LVU179
	.loc 1 267 6 is_stmt 0 view .LVU180
	cbz	r0, .L22
	.loc 1 268 4 is_stmt 1 view .LVU181
	.loc 1 268 9 view .LVU182
	.loc 1 268 7 view .LVU183
	.loc 1 270 4 view .LVU184
.LVL35:
.LBB84:
.LBI84:
	.file 6 "/home/g/mise-work/zmk-firmware/zmk/zephyr/kernel/include/kernel_internal.h"
	.loc 6 137 1 view .LVU185
.LBB85:
	.loc 6 141 2 view .LVU186
.LBB86:
.LBI86:
	.file 7 "/home/g/mise-work/zmk-firmware/zmk/zephyr/arch/arm/include/cortex_m/kernel_arch_func.h"
	.loc 7 59 1 view .LVU187
.LBB87:
	.loc 7 61 2 view .LVU188
	.loc 7 61 33 is_stmt 0 view .LVU189
	str	r7, [r0, #124]
.LVL36:
	.loc 7 61 33 view .LVU190
.LBE87:
.LBE86:
	.loc 6 142 2 is_stmt 1 view .LVU191
	.loc 6 142 25 is_stmt 0 view .LVU192
	str	r5, [r0, #20]
.LVL37:
	.loc 6 142 25 view .LVU193
.LBE85:
.LBE84:
	.loc 1 271 4 is_stmt 1 view .LVU194
	bl	z_ready_thread
.LVL38:
	.loc 1 272 4 view .LVU195
	mov	r1, r6
	add	r0, r4, #8
.LBE83:
	.loc 1 283 1 is_stmt 0 view .LVU196
	pop	{r3, r4, r5, r6, r7, lr}
	.cfi_remember_state
	.cfi_restore 14
	.cfi_restore 7
	.cfi_restore 6
	.cfi_restore 5
	.cfi_restore 4
	.cfi_restore 3
	.cfi_def_cfa_offset 0
.LVL39:
.LBB88:
	.loc 1 272 4 view .LVU197
	b	z_reschedule
.LVL40:
.L22:
	.cfi_restore_state
	.loc 1 272 4 view .LVU198
.LBE88:
	.loc 1 276 2 is_stmt 1 view .LVU199
	.loc 1 276 23 is_stmt 0 view .LVU200
	ldr	r3, [r4, #12]
	.loc 1 276 17 view .LVU201
	str	r3, [r5]
	.loc 1 277 2 is_stmt 1 view .LVU202
	.loc 1 278 21 is_stmt 0 view .LVU203
	ldr	r3, [r4, #24]
	.loc 1 277 18 view .LVU204
	str	r5, [r4, #12]
	.loc 1 278 2 is_stmt 1 view .LVU205
	.loc 1 278 21 is_stmt 0 view .LVU206
	subs	r3, r3, #1
	str	r3, [r4, #24]
	.loc 1 280 2 is_stmt 1 view .LVU207
	.loc 1 280 7 view .LVU208
	.loc 1 280 5 view .LVU209
	.loc 1 282 2 view .LVU210
.LVL41:
.LBB89:
.LBI89:
	.loc 4 235 51 view .LVU211
	.loc 4 238 2 view .LVU212
	.loc 4 261 2 view .LVU213
.LBB90:
.LBI90:
	.loc 5 96 51 view .LVU214
.LBB91:
	.loc 5 107 2 view .LVU215
	.syntax unified
@ 107 "/home/g/mise-work/zmk-firmware/zmk/zephyr/include/zephyr/arch/arm/asm_inline_gcc.h" 1
	msr BASEPRI, r6;isb;
@ 0 "" 2
.LVL42:
	.loc 5 107 2 is_stmt 0 view .LVU216
	.thumb
	.syntax unified
.LBE91:
.LBE90:
.LBE89:
	.loc 1 283 1 view .LVU217
	pop	{r3, r4, r5, r6, r7, pc}
	.loc 1 283 1 view .LVU218
	.cfi_endproc
.LFE499:
	.size	k_mem_slab_free, .-k_mem_slab_free
	.section	.text.k_mem_slab_runtime_stats_get,"ax",%progbits
	.align	1
	.global	k_mem_slab_runtime_stats_get
	.syntax unified
	.thumb
	.thumb_func
	.type	k_mem_slab_runtime_stats_get, %function
k_mem_slab_runtime_stats_get:
.LVL43:
.LFB500:
	.loc 1 286 1 is_stmt 1 view -0
	.cfi_startproc
	@ args = 0, pretend = 0, frame = 0
	@ frame_needed = 0, uses_anonymous_args = 0
	.loc 1 287 2 view .LVU220
	.loc 1 286 1 is_stmt 0 view .LVU221
	push	{r4, lr}
	.cfi_def_cfa_offset 8
	.cfi_offset 4, -8
	.cfi_offset 14, -4
	.loc 1 287 5 view .LVU222
	cbz	r0, .L29
	.loc 1 287 20 discriminator 1 view .LVU223
	cbz	r1, .L29
	.loc 1 291 2 is_stmt 1 view .LVU224
.LVL44:
.LBB92:
.LBI92:
	.loc 4 160 63 view .LVU225
.LBB93:
	.loc 4 162 2 view .LVU226
	.loc 4 163 2 view .LVU227
	.loc 4 169 2 view .LVU228
.LBB94:
.LBI94:
	.loc 5 42 59 view .LVU229
.LBB95:
	.loc 5 44 2 view .LVU230
	.loc 5 57 2 view .LVU231
	.loc 5 59 2 view .LVU232
	.syntax unified
@ 59 "/home/g/mise-work/zmk-firmware/zmk/zephyr/include/zephyr/arch/arm/asm_inline_gcc.h" 1
	mov r3, #32;mrs r2, BASEPRI;msr BASEPRI_MAX, r3;isb;
@ 0 "" 2
.LVL45:
	.loc 5 88 2 view .LVU233
	.loc 5 88 2 is_stmt 0 view .LVU234
	.thumb
	.syntax unified
.LBE95:
.LBE94:
	.loc 4 171 2 is_stmt 1 view .LVU235
	.loc 4 177 2 view .LVU236
	.loc 4 179 2 view .LVU237
	.loc 4 179 2 is_stmt 0 view .LVU238
.LBE93:
.LBE92:
	.loc 1 293 2 is_stmt 1 view .LVU239
	.loc 1 293 47 is_stmt 0 view .LVU240
	ldrd	r4, r3, [r0, #20]
	muls	r3, r4, r3
	.loc 1 293 25 view .LVU241
	str	r3, [r1, #4]
	.loc 1 294 2 is_stmt 1 view .LVU242
	.loc 1 294 45 is_stmt 0 view .LVU243
	ldr	r3, [r0, #16]
	ldr	r4, [r0, #24]
	.loc 1 294 68 view .LVU244
	ldr	r0, [r0, #20]
.LVL46:
	.loc 1 294 45 view .LVU245
	subs	r3, r3, r4
	.loc 1 294 68 view .LVU246
	muls	r3, r0, r3
	.loc 1 300 29 view .LVU247
	movs	r0, #0
	.loc 1 294 20 view .LVU248
	str	r3, [r1]
	.loc 1 300 2 is_stmt 1 view .LVU249
	.loc 1 300 29 is_stmt 0 view .LVU250
	str	r0, [r1, #8]
	.loc 1 303 2 is_stmt 1 view .LVU251
.LVL47:
.LBB96:
.LBI96:
	.loc 4 235 51 view .LVU252
	.loc 4 238 2 view .LVU253
	.loc 4 261 2 view .LVU254
.LBB97:
.LBI97:
	.loc 5 96 51 view .LVU255
.LBB98:
	.loc 5 107 2 view .LVU256
	.syntax unified
@ 107 "/home/g/mise-work/zmk-firmware/zmk/zephyr/include/zephyr/arch/arm/asm_inline_gcc.h" 1
	msr BASEPRI, r2;isb;
@ 0 "" 2
.LVL48:
	.loc 5 107 2 is_stmt 0 view .LVU257
	.thumb
	.syntax unified
.LBE98:
.LBE97:
.LBE96:
	.loc 1 305 2 is_stmt 1 view .LVU258
.L26:
	.loc 1 306 1 is_stmt 0 view .LVU259
	pop	{r4, pc}
.LVL49:
.L29:
	.loc 1 288 10 view .LVU260
	mvn	r0, #21
.LVL50:
	.loc 1 288 10 view .LVU261
	b	.L26
	.cfi_endproc
.LFE500:
	.size	k_mem_slab_runtime_stats_get, .-k_mem_slab_runtime_stats_get
	.section	.z_init_PRE_KERNEL_130_0_,"a"
	.align	2
	.type	__init_init_mem_slab_obj_core_list, %object
	.size	__init_init_mem_slab_obj_core_list, 8
__init_init_mem_slab_obj_core_list:
	.word	init_mem_slab_obj_core_list
	.word	0
	.text
.Letext0:
	.file 8 "/home/g/zephyr-sdk-0.16.3/arm-zephyr-eabi/lib/gcc/arm-zephyr-eabi/12.2.0/include/stddef.h"
	.file 9 "/home/g/zephyr-sdk-0.16.3/arm-zephyr-eabi/picolibc/include/machine/_default_types.h"
	.file 10 "/home/g/zephyr-sdk-0.16.3/arm-zephyr-eabi/picolibc/include/sys/_stdint.h"
	.file 11 "/home/g/mise-work/zmk-firmware/zmk/zephyr/include/zephyr/sys/rb.h"
	.file 12 "/home/g/mise-work/zmk-firmware/zmk/zephyr/include/zephyr/sys/mem_stats.h"
	.file 13 "/home/g/mise-work/zmk-firmware/zmk/zephyr/include/zephyr/sys/sys_heap.h"
	.file 14 "/home/g/mise-work/zmk-firmware/zmk/zephyr/include/zephyr/kernel_structs.h"
	.file 15 "/home/g/mise-work/zmk-firmware/zmk/zephyr/include/zephyr/kernel/thread.h"
	.file 16 "/home/g/mise-work/zmk-firmware/zmk/zephyr/include/zephyr/arch/arm/thread.h"
	.file 17 "/home/g/mise-work/zmk-firmware/zmk/zephyr/include/zephyr/sys_clock.h"
	.file 18 "/home/g/mise-work/zmk-firmware/zmk/zephyr/include/zephyr/arch/structs.h"
	.file 19 "/home/g/mise-work/zmk-firmware/zmk/zephyr/include/zephyr/kernel.h"
	.file 20 "/home/g/mise-work/zmk-firmware/zmk/zephyr/include/zephyr/fatal_types.h"
	.file 21 "/home/g/mise-work/zmk-firmware/zmk/zephyr/include/zephyr/init.h"
	.file 22 "/home/g/mise-work/zmk-firmware/zmk/zephyr/kernel/include/ksched.h"
	.file 23 "/home/g/mise-work/zmk-firmware/zmk/zephyr/include/zephyr/sys/kobject.h"