	.cpu cortex-m4
	.arch armv7e-m
	.fpu fpv4-sp-d16
	.eabi_attribute 27, 1
	.eabi_attribute 28, 1
	.eabi_attribute 20, 1
	.eabi_attribute 21, 1
	.eabi_attribute 23, 3
	.eabi_attribute 24, 1
	.eabi_attribute 25, 1
	.eabi_attribute 26, 1
	.eabi_attribute 30, 4
	.eabi_attribute 34, 1
	.eabi_attribute 38, 1
	.eabi_attribute 18, 4
	.file	"msg_q.c"
	.text
.Ltext0:
	.cfi_sections	.debug_frame
	.file 1 "/home/g/mise-work/zmk-firmware/zmk/zephyr/kernel/msg_q.c"
	.section	.text.k_msgq_init,"ax",%progbits
	.align	1
	.global	k_msgq_init
	.syntax unified
	.thumb
	.thumb_func
	.type	k_msgq_init, %function
k_msgq_init:
.LVL0:
.LFB508:
	.loc 1 41 1 view -0
	.cfi_startproc
	@ args = 0, pretend = 0, frame = 0
	@ frame_needed = 0, uses_anonymous_args = 0
	@ link register save eliminated.
	.loc 1 42 2 view .LVU1
	.loc 1 43 17 is_stmt 0 view .LVU2
	strd	r2, r3, [r0, #8]
	.loc 1 44 2 is_stmt 1 view .LVU3
	.loc 1 45 28 is_stmt 0 view .LVU4
	mla	r2, r3, r2, r1
.LVL1:
	.loc 1 48 18 view .LVU5
	movs	r3, #0
.LVL2:
	.loc 1 48 18 view .LVU6
	str	r3, [r0, #32]
	.loc 1 49 14 view .LVU7
	strb	r3, [r0, #44]
	.loc 1 53 2 view .LVU8
	add	r3, r0, #36
	.loc 1 46 17 view .LVU9
	strd	r2, r1, [r0, #20]
.LBB107:
.LBB108:
.LBB109:
.LBB110:
	.file 2 "/home/g/mise-work/zmk-firmware/zmk/zephyr/include/zephyr/sys/dlist.h"
	.loc 2 206 13 view .LVU10
	strd	r0, r0, [r0]
.LBE110:
.LBE109:
.LBE108:
.LBE107:
.LBB114:
.LBB115:
	strd	r3, r3, [r0, #36]
.LBE115:
.LBE114:
	.loc 1 44 21 view .LVU11
	str	r1, [r0, #16]
	.loc 1 45 2 is_stmt 1 view .LVU12
	.loc 1 47 2 view .LVU13
	.loc 1 47 18 is_stmt 0 view .LVU14
	str	r1, [r0, #28]
	.loc 1 48 2 is_stmt 1 view .LVU15
	.loc 1 49 2 view .LVU16
	.loc 1 50 2 view .LVU17
.LVL3:
.LBB117:
.LBI107:
	.file 3 "/home/g/mise-work/zmk-firmware/zmk/zephyr/kernel/include/wait_q.h"
	.loc 3 47 20 view .LVU18
.LBB113:
	.loc 3 49 2 view .LVU19
.LBB112:
.LBI109:
	.loc 2 203 20 view .LVU20
.LBB111:
	.loc 2 205 2 view .LVU21
	.loc 2 205 2 is_stmt 0 view .LVU22
.LBE111:
.LBE112:
.LBE113:
.LBE117:
	.loc 1 51 2 is_stmt 1 view .LVU23
	.loc 1 53 2 view .LVU24
.LBB118:
.LBI114:
	.loc 2 203 20 view .LVU25
.LBB116:
	.loc 2 205 2 view .LVU26
	.loc 2 205 2 is_stmt 0 view .LVU27
.LBE116:
.LBE118:
	.loc 1 60 2 is_stmt 1 view .LVU28
	.loc 1 60 7 view .LVU29
	.loc 1 60 5 view .LVU30
	.loc 1 62 2 view .LVU31
	.loc 1 63 1 is_stmt 0 view .LVU32
	bx	lr
	.cfi_endproc
.LFE508:
	.size	k_msgq_init, .-k_msgq_init
	.section	.text.z_impl_k_msgq_alloc_init,"ax",%progbits
	.align	1
	.global	z_impl_k_msgq_alloc_init
	.syntax unified
	.thumb
	.thumb_func
	.type	z_impl_k_msgq_alloc_init, %function
z_impl_k_msgq_alloc_init:
.LVL4:
.LFB509:
	.loc 1 67 1 is_stmt 1 view -0
	.cfi_startproc
	@ args = 0, pretend = 0, frame = 0
	@ frame_needed = 0, uses_anonymous_args = 0
	.loc 1 68 2 view .LVU34
	.loc 1 69 2 view .LVU35
	.loc 1 70 2 view .LVU36
	.loc 1 72 2 view .LVU37
	.loc 1 72 7 view .LVU38
	.loc 1 72 5 view .LVU39
	.loc 1 74 2 view .LVU40
.LBB123:
.LBI123:
	.file 4 "/home/g/mise-work/zmk-firmware/zmk/zephyr/include/zephyr/sys/math_extras_impl.h"
	.loc 4 105 19 view .LVU41
.LBB124:
	.loc 4 107 2 view .LVU42
.LBE124:
.LBE123:
	.loc 1 67 1 is_stmt 0 view .LVU43
	push	{r3, r4, r5, r6, r7, lr}
	.cfi_def_cfa_offset 24
	.cfi_offset 3, -24
	.cfi_offset 4, -20
	.cfi_offset 5, -16
	.cfi_offset 6, -12
	.cfi_offset 7, -8
	.cfi_offset 14, -4
	.loc 1 67 1 view .LVU44
	mov	r5, r1
.LBB127:
.LBB125:
	.loc 4 107 9 view .LVU45
	umull	r1, r4, r1, r2
.LVL5:
	.loc 4 107 9 view .LVU46
.LBE125:
.LBE127:
	.loc 1 67 1 view .LVU47
	mov	r7, r0
	mov	r6, r2
.LBB128:
.LBB126:
	.loc 4 107 9 view .LVU48
	cbnz	r4, .L9
.LBE126:
.LBE128:
	.loc 1 77 3 is_stmt 1 view .LVU49
.LVL6:
.LBB129:
.LBI129:
	.file 5 "/home/g/mise-work/zmk-firmware/zmk/zephyr/kernel/include/kernel_internal.h"
	.loc 5 105 21 view .LVU50
.LBB130:
	.loc 5 107 2 view .LVU51
	.loc 5 107 9 is_stmt 0 view .LVU52
	mov	r0, r4
.LVL7:
	.loc 5 107 9 view .LVU53
	bl	z_thread_aligned_alloc
.LVL8:
	.loc 5 107 9 view .LVU54
.LBE130:
.LBE129:
	.loc 1 78 3 is_stmt 1 view .LVU55
	.loc 1 78 6 is_stmt 0 view .LVU56
	mov	r1, r0
	cbnz	r0, .L10
	.loc 1 83 8 view .LVU57
	mvn	r0, #11
.LVL9:
	.loc 1 87 2 is_stmt 1 view .LVU58
	.loc 1 87 7 view .LVU59
	.loc 1 87 5 view .LVU60
	.loc 1 89 2 view .LVU61
	.loc 1 89 9 is_stmt 0 view .LVU62
	b	.L2
.LVL10:
.L9:
	.loc 1 75 7 view .LVU63
	mvn	r0, #21
.LVL11:
.L2:
	.loc 1 90 1 view .LVU64
	pop	{r3, r4, r5, r6, r7, pc}
.LVL12:
.L10:
	.loc 1 79 4 is_stmt 1 view .LVU65
	mov	r3, r6
	mov	r0, r7
.LVL13:
	.loc 1 79 4 is_stmt 0 view .LVU66
	mov	r2, r5
	bl	k_msgq_init
.LVL14:
	.loc 1 80 4 is_stmt 1 view .LVU67
	.loc 1 80 16 is_stmt 0 view .LVU68
	movs	r3, #1
	strb	r3, [r7, #44]
	.loc 1 81 4 is_stmt 1 view .LVU69
.LVL15:
	.loc 1 81 8 is_stmt 0 view .LVU70
	mov	r0, r4
	b	.L2
	.cfi_endproc
.LFE509:
	.size	z_impl_k_msgq_alloc_init, .-z_impl_k_msgq_alloc_init
	.section	.text.k_msgq_cleanup,"ax",%progbits
	.align	1
	.global	k_msgq_cleanup
	.syntax unified
	.thumb
	.thumb_func
	.type	k_msgq_cleanup, %function
k_msgq_cleanup:
.LVL16:
.LFB510:
	.loc 1 104 1 is_stmt 1 view -0
	.cfi_startproc
	@ args = 0, pretend = 0, frame = 0
	@ frame_needed = 0, uses_anonymous_args = 0
	.loc 1 105 2 view .LVU72
	.loc 1 105 7 view .LVU73
	.loc 1 105 5 view .LVU74
	.loc 1 107 2 view .LVU75
.LBB131:
.LBI131:
	.loc 3 52 32 view .LVU76
.LBB132:
	.loc 3 54 2 view .LVU77
.LBB133:
.LBI133:
	.loc 2 303 28 view .LVU78
.LBB134:
	.loc 2 305 2 view .LVU79
.LBB135:
.LBI135:
	.loc 2 275 19 view .LVU80
.LBB136:
	.loc 2 277 2 view .LVU81
.LBE136:
.LBE135:
.LBE134:
.LBE133:
.LBE132:
.LBE131:
	.loc 1 104 1 is_stmt 0 view .LVU82
	push	{r4, lr}
	.cfi_def_cfa_offset 8
	.cfi_offset 4, -8
	.cfi_offset 14, -4
.LBB145:
.LBB143:
.LBB141:
.LBB139:
.LBB138:
.LBB137:
	.loc 2 277 13 view .LVU83
	ldr	r3, [r0]
.LVL17:
	.loc 2 277 13 view .LVU84
.LBE137:
.LBE138:
	.loc 2 305 40 view .LVU85
	cmp	r0, r3
.LBE139:
.LBE141:
.LBE143:
.LBE145:
	.loc 1 104 1 view .LVU86
	mov	r4, r0
.LBB146:
.LBB144:
.LBB142:
.LBB140:
	.loc 2 305 40 view .LVU87
	beq	.L12
.LVL18:
	.loc 2 305 40 view .LVU88
.LBE140:
.LBE142:
.LBE144:
.LBE146:
	.loc 1 107 5 view .LVU89
	cbnz	r3, .L16
.L12:
	.loc 1 113 2 is_stmt 1 view .LVU90
	.loc 1 113 5 is_stmt 0 view .LVU91
	ldrb	r3, [r4, #44]	@ zero_extendqisi2
	lsls	r3, r3, #31
	bmi	.L14
.LVL19:
.L15:
	.loc 1 120 9 view .LVU92
	movs	r0, #0
.L11:
	.loc 1 121 1 view .LVU93
	pop	{r4, pc}
.LVL20:
.L14:
	.loc 1 114 3 is_stmt 1 view .LVU94
	ldr	r0, [r4, #16]
.LVL21:
	.loc 1 114 3 is_stmt 0 view .LVU95
	bl	k_free
.LVL22:
	.loc 1 115 3 is_stmt 1 view .LVU96
	.loc 1 115 15 is_stmt 0 view .LVU97
	ldrb	r3, [r4, #44]	@ zero_extendqisi2
	bic	r3, r3, #1
	strb	r3, [r4, #44]
	b	.L15
.LVL23:
.L16:
	.loc 1 110 10 view .LVU98
	mvn	r0, #15
.LVL24:
	.loc 1 110 10 view .LVU99
	b	.L11
	.cfi_endproc
.LFE510:
	.size	k_msgq_cleanup, .-k_msgq_cleanup
	.section	.text.z_impl_k_msgq_put,"ax",%progbits
	.align	1
	.global	z_impl_k_msgq_put
	.syntax unified
	.thumb
	.thumb_func
	.type	z_impl_k_msgq_put, %function
z_impl_k_msgq_put:
.LVL25:
.LFB511:
	.loc 1 125 1 is_stmt 1 view -0
	.cfi_startproc
	@ args = 0, pretend = 0, frame = 0
	@ frame_needed = 0, uses_anonymous_args = 0
	.loc 1 126 4 view .LVU101
	.loc 1 126 5 view .LVU102
	.loc 1 128 2 view .LVU103
	.loc 1 129 2 view .LVU104
	.loc 1 130 2 view .LVU105
	.loc 1 132 2 view .LVU106
	.loc 1 125 1 is_stmt 0 view .LVU107
	push	{r0, r1, r4, r5, r6, r7, r8, lr}
	.cfi_def_cfa_offset 32
	.cfi_offset 4, -24
	.cfi_offset 5, -20
	.cfi_offset 6, -16
	.cfi_offset 7, -12
	.cfi_offset 8, -8
	.cfi_offset 14, -4
	.loc 1 125 1 view .LVU108
	mov	r4, r0
	mov	r6, r1
	.loc 1 132 8 view .LVU109
	add	r8, r0, #8
.LVL26:
.LBB147:
.LBI147:
	.file 6 "/home/g/mise-work/zmk-firmware/zmk/zephyr/include/zephyr/spinlock.h"
	.loc 6 160 63 is_stmt 1 view .LVU110
.LBB148:
	.loc 6 162 2 view .LVU111
	.loc 6 163 2 view .LVU112
	.loc 6 169 2 view .LVU113
.LBB149:
.LBI149:
	.file 7 "/home/g/mise-work/zmk-firmware/zmk/zephyr/include/zephyr/arch/arm/asm_inline_gcc.h"
	.loc 7 42 59 view .LVU114
.LBB150:
	.loc 7 44 2 view .LVU115
	.loc 7 57 2 view .LVU116
	.loc 7 59 2 view .LVU117
	.syntax unified
@ 59 "/home/g/mise-work/zmk-firmware/zmk/zephyr/include/zephyr/arch/arm/asm_inline_gcc.h" 1
	mov r1, #32;mrs r7, BASEPRI;msr BASEPRI_MAX, r1;isb;
@ 0 "" 2
.LVL27:
	.loc 7 88 2 view .LVU118
	.loc 7 88 2 is_stmt 0 view .LVU119
	.thumb
	.syntax unified
.LBE150:
.LBE149:
	.loc 6 171 2 is_stmt 1 view .LVU120
	.loc 6 177 2 view .LVU121
	.loc 6 179 2 view .LVU122
	.loc 6 179 2 is_stmt 0 view .LVU123
.LBE148:
.LBE147:
	.loc 1 134 2 is_stmt 1 view .LVU124
	.loc 1 134 7 view .LVU125
	.loc 1 134 5 view .LVU126
	.loc 1 136 2 view .LVU127
	.loc 1 136 5 is_stmt 0 view .LVU128
	ldr	r5, [r0, #32]
	ldr	r1, [r0, #12]
	cmp	r5, r1
	bcs	.L18
	.loc 1 138 3 is_stmt 1 view .LVU129
	.loc 1 138 20 is_stmt 0 view .LVU130
	bl	z_unpend_first_thread
.LVL28:
	.loc 1 139 3 is_stmt 1 view .LVU131
	ldr	r2, [r4, #8]
	.loc 1 139 6 is_stmt 0 view .LVU132
	mov	r5, r0
.LBB151:
.LBB152:
	.file 8 "/home/g/zephyr-sdk-0.16.3/arm-zephyr-eabi/picolibc/include/ssp/string.h"
	.loc 8 83 299 view .LVU133
	mov	r1, r6
.LBE152:
.LBE151:
	.loc 1 139 6 view .LVU134
	cbz	r0, .L19
	.loc 1 140 4 is_stmt 1 view .LVU135
	.loc 1 140 9 view .LVU136
	.loc 1 140 7 view .LVU137
	.loc 1 143 4 view .LVU138
.LVL29:
.LBB155:
.LBI151:
	.loc 8 83 216 view .LVU139
.LBB153:
	.loc 8 83 292 view .LVU140
.LBE153:
.LBE155:
.LBB156:
.LBB157:
	.file 9 "/home/g/mise-work/zmk-firmware/zmk/zephyr/arch/arm/include/cortex_m/kernel_arch_func.h"
	.loc 9 61 33 is_stmt 0 view .LVU141
	movs	r4, #0
.LVL30:
	.loc 9 61 33 view .LVU142
.LBE157:
.LBE156:
.LBB160:
.LBB154:
	.loc 8 83 299 view .LVU143
	ldr	r0, [r0, #20]
.LVL31:
	.loc 8 83 299 view .LVU144
	bl	memcpy
.LVL32:
	.loc 8 83 299 view .LVU145
.LBE154:
.LBE160:
	.loc 1 146 4 is_stmt 1 view .LVU146
.LBB161:
.LBI156:
	.loc 9 59 1 view .LVU147
.LBB158:
	.loc 9 61 2 view .LVU148
.LBE158:
.LBE161:
	.loc 1 147 4 is_stmt 0 view .LVU149
	mov	r0, r5
.LBB162:
.LBB159:
	.loc 9 61 33 view .LVU150
	str	r4, [r5, #124]
.LVL33:
	.loc 9 61 33 view .LVU151
.LBE159:
.LBE162:
	.loc 1 147 4 is_stmt 1 view .LVU152
	bl	z_ready_thread
.LVL34:
	.loc 1 148 4 view .LVU153
	mov	r0, r8
	mov	r1, r7
	bl	z_reschedule
.LVL35:
	.loc 1 149 4 view .LVU154
	.loc 1 149 11 is_stmt 0 view .LVU155
	mov	r0, r4
.LVL36:
.L17:
	.loc 1 184 1 view .LVU156
	add	sp, sp, #8
	.cfi_remember_state
	.cfi_def_cfa_offset 24
	@ sp needed
	pop	{r4, r5, r6, r7, r8, pc}
.LVL37:
.L19:
	.cfi_restore_state
	.loc 1 152 6 is_stmt 1 view .LVU157
	.loc 1 153 41 view .LVU158
	.loc 1 154 4 view .LVU159
.LBB163:
.LBI163:
	.loc 8 83 216 view .LVU160
.LBB164:
	.loc 8 83 292 view .LVU161
	.loc 8 83 299 is_stmt 0 view .LVU162
	ldr	r0, [r4, #28]
.LVL38:
	.loc 8 83 299 view .LVU163
	bl	memcpy
.LVL39:
	.loc 8 83 299 view .LVU164
.LBE164:
.LBE163:
	.loc 1 155 4 is_stmt 1 view .LVU165
	.loc 1 155 20 is_stmt 0 view .LVU166
	ldr	r3, [r4, #28]
	ldr	r2, [r4, #8]
	add	r3, r3, r2
	.loc 1 156 7 view .LVU167
	ldr	r2, [r4, #20]
	.loc 1 155 20 view .LVU168
	str	r3, [r4, #28]
	.loc 1 156 4 is_stmt 1 view .LVU169
	.loc 1 156 7 is_stmt 0 view .LVU170
	cmp	r3, r2
	.loc 1 157 5 is_stmt 1 view .LVU171
	.loc 1 157 21 is_stmt 0 view .LVU172
	itt	eq
	ldreq	r3, [r4, #16]
	streq	r3, [r4, #28]
	.loc 1 159 4 is_stmt 1 view .LVU173
	.loc 1 159 19 is_stmt 0 view .LVU174
	ldr	r3, [r4, #32]
	adds	r3, r3, #1
.LBB165:
.LBB166:
	.loc 1 35 2 view .LVU175
	add	r0, r4, #36
.LBE166:
.LBE165:
	.loc 1 159 19 view .LVU176
	str	r3, [r4, #32]
	.loc 1 161 4 is_stmt 1 view .LVU177
.LVL40:
.LBB168:
.LBI165:
	.loc 1 33 20 view .LVU178
.LBB167:
	.loc 1 35 2 view .LVU179
	movs	r1, #16
	bl	z_handle_obj_poll_events
.LVL41:
	.loc 1 35 2 is_stmt 0 view .LVU180
.LBE167:
.LBE168:
	.loc 1 164 3 is_stmt 1 view .LVU181
	.loc 1 164 10 is_stmt 0 view .LVU182
	movs	r0, #0
.LVL42:
.L22:
	.loc 1 179 2 is_stmt 1 view .LVU183
	.loc 1 179 7 view .LVU184
	.loc 1 179 5 view .LVU185
	.loc 1 181 2 view .LVU186
.LBB169:
.LBI169:
	.loc 6 235 51 view .LVU187
	.loc 6 238 2 view .LVU188
	.loc 6 261 2 view .LVU189
.LBB170:
.LBI170:
	.loc 7 96 51 view .LVU190
.LBB171:
	.loc 7 107 2 view .LVU191
	.syntax unified
@ 107 "/home/g/mise-work/zmk-firmware/zmk/zephyr/include/zephyr/arch/arm/asm_inline_gcc.h" 1
	msr BASEPRI, r7;isb;
@ 0 "" 2
.LVL43:
	.loc 7 107 2 is_stmt 0 view .LVU192
	.thumb
	.syntax unified
.LBE171:
.LBE170:
.LBE169:
	.loc 1 183 2 is_stmt 1 view .LVU193
	.loc 1 183 9 is_stmt 0 view .LVU194
	b	.L17
.LVL44:
.L18:
	.loc 1 165 9 is_stmt 1 view .LVU195
.LBB172:
	.loc 1 165 12 is_stmt 0 view .LVU196
	orrs	r1, r2, r3
	beq	.L23
	.loc 1 169 3 is_stmt 1 view .LVU197
	.loc 1 169 8 view .LVU198
	.loc 1 169 6 view .LVU199
	.loc 1 172 3 view .LVU200
	.loc 1 172 18 is_stmt 0 view .LVU201
	ldr	r1, .L24
	.loc 1 172 43 view .LVU202
	ldr	r1, [r1, #8]
	str	r6, [r1, #20]
	.loc 1 174 3 is_stmt 1 view .LVU203
	.loc 1 174 12 is_stmt 0 view .LVU204
	strd	r2, r3, [sp]
	mov	r1, r7
	mov	r2, r0
.LVL45:
	.loc 1 174 12 view .LVU205
	mov	r0, r8
.LVL46:
	.loc 1 174 12 view .LVU206
	bl	z_pend_curr
.LVL47:
	.loc 1 175 3 is_stmt 1 view .LVU207
	.loc 1 175 8 view .LVU208
	.loc 1 175 6 view .LVU209
	.loc 1 176 3 view .LVU210
	b	.L17
.LVL48:
.L23:
	.loc 1 167 10 is_stmt 0 view .LVU211
	mvn	r0, #34
.LVL49:
	.loc 1 167 10 view .LVU212
	b	.L22
.L25:
	.align	2
.L24:
	.word	_kernel
.LBE172:
	.cfi_endproc
.LFE511:
	.size	z_impl_k_msgq_put, .-z_impl_k_msgq_put
	.section	.text.z_impl_k_msgq_get_attrs,"ax",%progbits
	.align	1
	.global	z_impl_k_msgq_get_attrs
	.syntax unified
	.thumb
	.thumb_func
	.type	z_impl_k_msgq_get_attrs, %function
z_impl_k_msgq_get_attrs:
.LVL50:
.LFB512:
	.loc 1 199 1 is_stmt 1 view -0
	.cfi_startproc
	@ args = 0, pretend = 0, frame = 0
	@ frame_needed = 0, uses_anonymous_args = 0
	@ link register save eliminated.
	.loc 1 200 2 view .LVU214
	.loc 1 200 24 is_stmt 0 view .LVU215
	ldr	r3, [r0, #8]
	.loc 1 200 18 view .LVU216
	str	r3, [r1]
	.loc 1 201 2 is_stmt 1 view .LVU217
	.loc 1 201 24 is_stmt 0 view .LVU218
	ldr	r3, [r0, #12]
	.loc 1 201 18 view .LVU219
	str	r3, [r1, #4]
	.loc 1 202 2 is_stmt 1 view .LVU220
	.loc 1 202 25 is_stmt 0 view .LVU221
	ldr	r3, [r0, #32]
	.loc 1 202 19 view .LVU222
	str	r3, [r1, #8]
	.loc 1 203 1 view .LVU223
	bx	lr
	.cfi_endproc
.LFE512:
	.size	z_impl_k_msgq_get_attrs, .-z_impl_k_msgq_get_attrs
	.section	.text.z_impl_k_msgq_get,"ax",%progbits
	.align	1
	.global	z_impl_k_msgq_get
	.syntax unified
	.thumb
	.thumb_func
	.type	z_impl_k_msgq_get, %function
z_impl_k_msgq_get:
.LVL51:
.LFB513:
	.loc 1 217 1 is_stmt 1 view -0
	.cfi_startproc
	@ args = 0, pretend = 0, frame = 0
	@ frame_needed = 0, uses_anonymous_args = 0
	.loc 1 218 4 view .LVU225
	.loc 1 218 5 view .LVU226
	.loc 1 220 2 view .LVU227
	.loc 1 221 2 view .LVU228
	.loc 1 222 2 view .LVU229
	.loc 1 224 2 view .LVU230
	.loc 1 217 1 is_stmt 0 view .LVU231
	push	{r0, r1, r2, r4, r5, r6, r7, lr}
	.cfi_def_cfa_offset 32
	.cfi_offset 4, -20
	.cfi_offset 5, -16
	.cfi_offset 6, -12
	.cfi_offset 7, -8
	.cfi_offset 14, -4
.LVL52:
	.loc 1 217 1 view .LVU232
	mov	r4, r0
	.loc 1 224 8 view .LVU233
	add	r7, r4, #8
.LVL53:
.LBB173:
.LBI173:
	.loc 6 160 63 is_stmt 1 view .LVU234
.LBB174:
	.loc 6 162 2 view .LVU235
	.loc 6 163 2 view .LVU236
	.loc 6 169 2 view .LVU237
.LBB175:
.LBI175:
	.loc 7 42 59 view .LVU238
.LBB176:
	.loc 7 44 2 view .LVU239
	.loc 7 57 2 view .LVU240
	.loc 7 59 2 view .LVU241
.LBE176:
.LBE175:
.LBE174:
.LBE173:
	.loc 1 217 1 is_stmt 0 view .LVU242
	mov	r0, r1
.LVL54:
.LBB180:
.LBB179:
.LBB178:
.LBB177:
	.loc 7 59 2 view .LVU243
	.syntax unified
@ 59 "/home/g/mise-work/zmk-firmware/zmk/zephyr/include/zephyr/arch/arm/asm_inline_gcc.h" 1
	mov r1, #32;mrs r6, BASEPRI;msr BASEPRI_MAX, r1;isb;
@ 0 "" 2
.LVL55:
	.loc 7 88 2 is_stmt 1 view .LVU244
	.loc 7 88 2 is_stmt 0 view .LVU245
	.thumb
	.syntax unified
.LBE177:
.LBE178:
	.loc 6 171 2 is_stmt 1 view .LVU246
	.loc 6 177 2 view .LVU247
	.loc 6 179 2 view .LVU248
	.loc 6 179 2 is_stmt 0 view .LVU249
.LBE179:
.LBE180:
	.loc 1 226 2 is_stmt 1 view .LVU250
	.loc 1 226 7 view .LVU251
	.loc 1 226 5 view .LVU252
	.loc 1 228 2 view .LVU253
	.loc 1 228 5 is_stmt 0 view .LVU254
	ldr	r1, [r4, #32]
	cmp	r1, #0
	beq	.L28
	.loc 1 230 3 is_stmt 1 view .LVU255
.LVL56:
.LBB181:
.LBI181:
	.loc 8 83 216 view .LVU256
.LBB182:
	.loc 8 83 292 view .LVU257
	.loc 8 83 299 is_stmt 0 view .LVU258
	ldr	r2, [r4, #8]
	ldr	r1, [r4, #24]
	bl	memcpy
.LVL57:
	.loc 8 83 299 view .LVU259
.LBE182:
.LBE181:
	.loc 1 231 3 is_stmt 1 view .LVU260
	.loc 1 231 18 is_stmt 0 view .LVU261
	ldr	r3, [r4, #24]
	ldr	r2, [r4, #8]
	add	r3, r3, r2
	.loc 1 232 6 view .LVU262
	ldr	r2, [r4, #20]
	.loc 1 231 18 view .LVU263
	str	r3, [r4, #24]
	.loc 1 232 3 is_stmt 1 view .LVU264
	.loc 1 232 6 is_stmt 0 view .LVU265
	cmp	r3, r2
	.loc 1 233 4 is_stmt 1 view .LVU266
	.loc 1 233 19 is_stmt 0 view .LVU267
	itt	eq
	ldreq	r3, [r4, #16]
	streq	r3, [r4, #24]
	.loc 1 235 3 is_stmt 1 view .LVU268
	.loc 1 235 18 is_stmt 0 view .LVU269
	ldr	r3, [r4, #32]
	subs	r3, r3, #1
	str	r3, [r4, #32]
	.loc 1 238 3 is_stmt 1 view .LVU270
	.loc 1 238 20 is_stmt 0 view .LVU271
	mov	r0, r4
	bl	z_unpend_first_thread
.LVL58:
	.loc 1 239 3 is_stmt 1 view .LVU272
	.loc 1 239 6 is_stmt 0 view .LVU273
	mov	r5, r0
	cbz	r0, .L30
	.loc 1 240 4 is_stmt 1 view .LVU274
	.loc 1 240 9 view .LVU275
	.loc 1 240 7 view .LVU276
	.loc 1 243 6 view .LVU277
	.loc 1 244 41 view .LVU278
	.loc 1 245 4 view .LVU279
.LVL59:
.LBB183:
.LBI183:
	.loc 8 83 216 view .LVU280
.LBB184:
	.loc 8 83 292 view .LVU281
	.loc 8 83 299 is_stmt 0 view .LVU282
	ldr	r1, [r0, #20]
	ldr	r2, [r4, #8]
	ldr	r0, [r4, #28]
.LVL60:
	.loc 8 83 299 view .LVU283
	bl	memcpy
.LVL61:
	.loc 8 83 299 view .LVU284
.LBE184:
.LBE183:
	.loc 1 247 4 is_stmt 1 view .LVU285
	.loc 1 247 20 is_stmt 0 view .LVU286
	ldr	r3, [r4, #28]
	ldr	r2, [r4, #8]
	add	r3, r3, r2
	.loc 1 248 7 view .LVU287
	ldr	r2, [r4, #20]
	.loc 1 247 20 view .LVU288
	str	r3, [r4, #28]
	.loc 1 248 4 is_stmt 1 view .LVU289
	.loc 1 248 7 is_stmt 0 view .LVU290
	cmp	r3, r2
	.loc 1 249 5 is_stmt 1 view .LVU291
	.loc 1 249 21 is_stmt 0 view .LVU292
	itt	eq
	ldreq	r3, [r4, #16]
	streq	r3, [r4, #28]
	.loc 1 251 4 is_stmt 1 view .LVU293
	.loc 1 251 19 is_stmt 0 view .LVU294
	ldr	r3, [r4, #32]
	adds	r3, r3, #1
	str	r3, [r4, #32]
	.loc 1 254 4 is_stmt 1 view .LVU295
.LVL62:
.LBB185:
.LBI185:
	.loc 9 59 1 view .LVU296
.LBB186:
	.loc 9 61 2 view .LVU297
	.loc 9 61 33 is_stmt 0 view .LVU298
	movs	r4, #0
.LVL63:
	.loc 9 61 33 view .LVU299
.LBE186:
.LBE185:
	.loc 1 255 4 view .LVU300
	mov	r0, r5
.LBB188:
.LBB187:
	.loc 9 61 33 view .LVU301
	str	r4, [r5, #124]
.LVL64:
	.loc 9 61 33 view .LVU302
.LBE187:
.LBE188:
	.loc 1 255 4 is_stmt 1 view .LVU303
	bl	z_ready_thread
.LVL65:
	.loc 1 256 4 view .LVU304
	mov	r0, r7
	mov	r1, r6
	bl	z_reschedule
.LVL66:
	.loc 1 258 4 view .LVU305
	.loc 1 258 9 view .LVU306
	.loc 1 258 7 view .LVU307
	.loc 1 260 4 view .LVU308
	.loc 1 260 11 is_stmt 0 view .LVU309
	mov	r0, r4
.LVL67:
.L27:
	.loc 1 282 1 view .LVU310
	add	sp, sp, #12
	.cfi_remember_state
	.cfi_def_cfa_offset 20
	@ sp needed
	pop	{r4, r5, r6, r7, pc}
.LVL68:
.L28:
	.cfi_restore_state
	.loc 1 263 9 is_stmt 1 view .LVU311
.LBB189:
	.loc 1 263 12 is_stmt 0 view .LVU312
	orrs	r1, r2, r3
	beq	.L34
	.loc 1 267 3 is_stmt 1 view .LVU313
	.loc 1 267 8 view .LVU314
	.loc 1 267 6 view .LVU315
	.loc 1 270 3 view .LVU316
	.loc 1 270 18 is_stmt 0 view .LVU317
	ldr	r1, .L35
	.loc 1 270 43 view .LVU318
	ldr	r1, [r1, #8]
	str	r0, [r1, #20]
	.loc 1 272 3 is_stmt 1 view .LVU319
	.loc 1 272 12 is_stmt 0 view .LVU320
	strd	r2, r3, [sp]
	mov	r1, r6
	mov	r2, r4
.LVL69:
	.loc 1 272 12 view .LVU321
	mov	r0, r7
.LVL70:
	.loc 1 272 12 view .LVU322
	bl	z_pend_curr
.LVL71:
	.loc 1 273 3 is_stmt 1 view .LVU323
	.loc 1 273 8 view .LVU324
	.loc 1 273 6 view .LVU325
	.loc 1 274 3 view .LVU326
	b	.L27
.LVL72:
.L34:
	.loc 1 265 10 is_stmt 0 view .LVU327
	mvn	r0, #34
.LVL73:
.L30:
	.loc 1 265 10 view .LVU328
.LBE189:
	.loc 1 277 2 is_stmt 1 view .LVU329
	.loc 1 277 7 view .LVU330
	.loc 1 277 5 view .LVU331
	.loc 1 279 2 view .LVU332
.LBB190:
.LBI190:
	.loc 6 235 51 view .LVU333
	.loc 6 238 2 view .LVU334
	.loc 6 261 2 view .LVU335
.LBB191:
.LBI191:
	.loc 7 96 51 view .LVU336
.LBB192:
	.loc 7 107 2 view .LVU337
	.syntax unified
@ 107 "/home/g/mise-work/zmk-firmware/zmk/zephyr/include/zephyr/arch/arm/asm_inline_gcc.h" 1
	msr BASEPRI, r6;isb;
@ 0 "" 2
.LVL74:
	.loc 7 107 2 is_stmt 0 view .LVU338
	.thumb
	.syntax unified
.LBE192:
.LBE191:
.LBE190:
	.loc 1 281 2 is_stmt 1 view .LVU339
	.loc 1 281 9 is_stmt 0 view .LVU340
	b	.L27
.L36:
	.align	2
.L35:
	.word	_kernel
	.cfi_endproc
.LFE513:
	.size	z_impl_k_msgq_get, .-z_impl_k_msgq_get
	.section	.text.z_impl_k_msgq_peek,"ax",%progbits
	.align	1
	.global	z_impl_k_msgq_peek
	.syntax unified
	.thumb
	.thumb_func
	.type	z_impl_k_msgq_peek, %function
z_impl_k_msgq_peek:
.LVL75:
.LFB514:
	.loc 1 297 1 is_stmt 1 view -0
	.cfi_startproc
	@ args = 0, pretend = 0, frame = 0
	@ frame_needed = 0, uses_anonymous_args = 0
	.loc 1 298 2 view .LVU342
	.loc 1 299 2 view .LVU343
	.loc 1 301 2 view .LVU344
.LBB193:
.LBI193:
	.loc 6 160 63 view .LVU345
.LBB194:
	.loc 6 162 2 view .LVU346
	.loc 6 163 2 view .LVU347
	.loc 6 169 2 view .LVU348
.LBB195:
.LBI195:
	.loc 7 42 59 view .LVU349
.LBB196:
	.loc 7 44 2 view .LVU350
	.loc 7 57 2 view .LVU351
	.loc 7 59 2 view .LVU352
.LBE196:
.LBE195:
.LBE194:
.LBE193:
	.loc 1 297 1 is_stmt 0 view .LVU353
	mov	r3, r0
	push	{r4, lr}
	.cfi_def_cfa_offset 8
	.cfi_offset 4, -8
	.cfi_offset 14, -4
	.loc 1 297 1 view .LVU354
	mov	r0, r1
.LVL76:
.LBB200:
.LBB199:
.LBB198:
.LBB197:
	.loc 7 59 2 view .LVU355
	.syntax unified
@ 59 "/home/g/mise-work/zmk-firmware/zmk/zephyr/include/zephyr/arch/arm/asm_inline_gcc.h" 1
	mov r2, #32;mrs r4, BASEPRI;msr BASEPRI_MAX, r2;isb;
@ 0 "" 2
.LVL77:
	.loc 7 88 2 is_stmt 1 view .LVU356
	.loc 7 88 2 is_stmt 0 view .LVU357
	.thumb
	.syntax unified
.LBE197:
.LBE198:
	.loc 6 171 2 is_stmt 1 view .LVU358
	.loc 6 177 2 view .LVU359
	.loc 6 179 2 view .LVU360
	.loc 6 179 2 is_stmt 0 view .LVU361
.LBE199:
.LBE200:
	.loc 1 303 2 is_stmt 1 view .LVU362
	.loc 1 303 5 is_stmt 0 view .LVU363
	ldr	r2, [r3, #32]
	cbz	r2, .L39
	.loc 1 305 3 is_stmt 1 view .LVU364
.LVL78:
.LBB201:
.LBI201:
	.loc 8 83 216 view .LVU365
.LBB202:
	.loc 8 83 292 view .LVU366
	.loc 8 83 299 is_stmt 0 view .LVU367
	ldr	r2, [r3, #8]
	ldr	r1, [r3, #24]
.LVL79:
	.loc 8 83 299 view .LVU368
	bl	memcpy
.LVL80:
	.loc 8 83 299 view .LVU369
.LBE202:
.LBE201:
	.loc 1 306 10 view .LVU370
	movs	r0, #0
.L38:
.LVL81:
	.loc 1 312 2 is_stmt 1 view .LVU371
	.loc 1 312 7 view .LVU372
	.loc 1 312 5 view .LVU373
	.loc 1 314 2 view .LVU374
.LBB203:
.LBI203:
	.loc 6 235 51 view .LVU375
	.loc 6 238 2 view .LVU376
	.loc 6 261 2 view .LVU377
.LBB204:
.LBI204:
	.loc 7 96 51 view .LVU378
.LBB205:
	.loc 7 107 2 view .LVU379
	.syntax unified
@ 107 "/home/g/mise-work/zmk-firmware/zmk/zephyr/include/zephyr/arch/arm/asm_inline_gcc.h" 1
	msr BASEPRI, r4;isb;
@ 0 "" 2
.LVL82:
	.loc 7 107 2 is_stmt 0 view .LVU380
	.thumb
	.syntax unified
.LBE205:
.LBE204:
.LBE203:
	.loc 1 316 2 is_stmt 1 view .LVU381
	.loc 1 317 1 is_stmt 0 view .LVU382
	pop	{r4, pc}
.LVL83:
.L39:
	.loc 1 309 10 view .LVU383
	mvn	r0, #34
.LVL84:
	.loc 1 309 10 view .LVU384
	b	.L38
	.cfi_endproc
.LFE514:
	.size	z_impl_k_msgq_peek, .-z_impl_k_msgq_peek
	.section	.text.z_impl_k_msgq_peek_at,"ax",%progbits
	.align	1
	.global	z_impl_k_msgq_peek_at
	.syntax unified
	.thumb
	.thumb_func
	.type	z_impl_k_msgq_peek_at, %function
z_impl_k_msgq_peek_at:
.LVL85:
.LFB515:
	.loc 1 331 1 is_stmt 1 view -0
	.cfi_startproc
	@ args = 0, pretend = 0, frame = 0
	@ frame_needed = 0, uses_anonymous_args = 0
	.loc 1 332 2 view .LVU386
	.loc 1 333 2 view .LVU387
	.loc 1 334 2 view .LVU388
	.loc 1 335 2 view .LVU389
	.loc 1 336 2 view .LVU390
	.loc 1 338 2 view .LVU391
.LBB206:
.LBI206:
	.loc 6 160 63 view .LVU392
.LBB207:
	.loc 6 162 2 view .LVU393
	.loc 6 163 2 view .LVU394
	.loc 6 169 2 view .LVU395
.LBB208:
.LBI208:
	.loc 7 42 59 view .LVU396
.LBB209:
	.loc 7 44 2 view .LVU397
	.loc 7 57 2 view .LVU398
	.loc 7 59 2 view .LVU399
.LBE209:
.LBE208:
.LBE207:
.LBE206:
	.loc 1 331 1 is_stmt 0 view .LVU400
	push	{r4, r5, r6, lr}
	.cfi_def_cfa_offset 16
	.cfi_offset 4, -16
	.cfi_offset 5, -12
	.cfi_offset 6, -8
	.cfi_offset 14, -4
	.loc 1 331 1 view .LVU401
	mov	r3, r2
	mov	r4, r0
	mov	r0, r1
.LVL86:
.LBB213:
.LBB212:
.LBB211:
.LBB210:
	.loc 7 59 2 view .LVU402
	.syntax unified
@ 59 "/home/g/mise-work/zmk-firmware/zmk/zephyr/include/zephyr/arch/arm/asm_inline_gcc.h" 1
	mov r2, #32;mrs r6, BASEPRI;msr BASEPRI_MAX, r2;isb;
@ 0 "" 2
.LVL87:
	.loc 7 88 2 is_stmt 1 view .LVU403
	.loc 7 88 2 is_stmt 0 view .LVU404
	.thumb
	.syntax unified
.LBE210:
.LBE211:
	.loc 6 171 2 is_stmt 1 view .LVU405
	.loc 6 177 2 view .LVU406
	.loc 6 179 2 view .LVU407
	.loc 6 179 2 is_stmt 0 view .LVU408
.LBE212:
.LBE213:
	.loc 1 340 2 is_stmt 1 view .LVU409
	.loc 1 340 5 is_stmt 0 view .LVU410
	ldr	r2, [r4, #32]
	cmp	r2, r3
	bls	.L43
	.loc 1 341 3 is_stmt 1 view .LVU411
	.loc 1 341 36 is_stmt 0 view .LVU412
	ldrd	r5, r1, [r4, #20]
.LVL88:
	.loc 1 342 27 view .LVU413
	ldr	r2, [r4, #8]
	.loc 1 341 36 view .LVU414
	subs	r5, r5, r1
.LVL89:
	.loc 1 342 3 is_stmt 1 view .LVU415
	.loc 1 342 15 is_stmt 0 view .LVU416
	muls	r3, r2, r3
.LVL90:
	.loc 1 343 3 is_stmt 1 view .LVU417
	.loc 1 345 3 view .LVU418
	.loc 1 345 6 is_stmt 0 view .LVU419
	cmp	r5, r3
	.loc 1 347 4 is_stmt 1 view .LVU420
	.loc 1 349 15 is_stmt 0 view .LVU421
	itt	ls
	ldrls	r1, [r4, #16]
.LVL91:
	.loc 1 347 16 view .LVU422
	subls	r3, r3, r5
.LVL92:
	.loc 1 349 4 is_stmt 1 view .LVU423
	.loc 1 351 3 view .LVU424
.LBB214:
.LBI214:
	.loc 8 83 216 view .LVU425
.LBB215:
	.loc 8 83 292 view .LVU426
	.loc 8 83 299 is_stmt 0 view .LVU427
	add	r1, r1, r3
.LVL93:
	.loc 8 83 299 view .LVU428
	bl	memcpy
.LVL94:
	.loc 8 83 299 view .LVU429
.LBE215:
.LBE214:
	.loc 1 352 10 view .LVU430
	movs	r0, #0
.LVL95:
.L41:
	.loc 1 358 2 is_stmt 1 view .LVU431
	.loc 1 358 7 view .LVU432
	.loc 1 358 5 view .LVU433
	.loc 1 360 2 view .LVU434
.LBB216:
.LBI216:
	.loc 6 235 51 view .LVU435
	.loc 6 238 2 view .LVU436
	.loc 6 261 2 view .LVU437
.LBB217:
.LBI217:
	.loc 7 96 51 view .LVU438
.LBB218:
	.loc 7 107 2 view .LVU439
	.syntax unified
@ 107 "/home/g/mise-work/zmk-firmware/zmk/zephyr/include/zephyr/arch/arm/asm_inline_gcc.h" 1
	msr BASEPRI, r6;isb;
@ 0 "" 2
.LVL96:
	.loc 7 107 2 is_stmt 0 view .LVU440
	.thumb
	.syntax unified
.LBE218:
.LBE217:
.LBE216:
	.loc 1 362 2 is_stmt 1 view .LVU441
	.loc 1 363 1 is_stmt 0 view .LVU442
	pop	{r4, r5, r6, pc}
.LVL97:
.L43:
	.loc 1 355 10 view .LVU443
	mvn	r0, #34
.LVL98:
	.loc 1 355 10 view .LVU444
	b	.L41
	.cfi_endproc
.LFE515:
	.size	z_impl_k_msgq_peek_at, .-z_impl_k_msgq_peek_at
	.section	.text.z_impl_k_msgq_purge,"ax",%progbits
	.align	1
	.global	z_impl_k_msgq_purge
	.syntax unified
	.thumb
	.thumb_func
	.type	z_impl_k_msgq_purge, %function
z_impl_k_msgq_purge:
.LVL99:
.LFB516:
	.loc 1 377 1 is_stmt 1 view -0
	.cfi_startproc
	@ args = 0, pretend = 0, frame = 0
	@ frame_needed = 0, uses_anonymous_args = 0
	.loc 1 378 2 view .LVU446
	.loc 1 379 2 view .LVU447
	.loc 1 381 2 view .LVU448
	.loc 1 377 1 is_stmt 0 view .LVU449
	push	{r3, r4, r5, r6, r7, lr}
	.cfi_def_cfa_offset 24
	.cfi_offset 3, -24
	.cfi_offset 4, -20
	.cfi_offset 5, -16
	.cfi_offset 6, -12
	.cfi_offset 7, -8
	.cfi_offset 14, -4
	.loc 1 377 1 view .LVU450
	mov	r4, r0
	.loc 1 381 8 view .LVU451
	add	r5, r0, #8
.LVL100:
.LBB219:
.LBI219:
	.loc 6 160 63 is_stmt 1 view .LVU452
.LBB220:
	.loc 6 162 2 view .LVU453
	.loc 6 163 2 view .LVU454
	.loc 6 169 2 view .LVU455
.LBB221:
.LBI221:
	.loc 7 42 59 view .LVU456
.LBB222:
	.loc 7 44 2 view .LVU457
	.loc 7 57 2 view .LVU458
	.loc 7 59 2 view .LVU459
	.syntax unified
@ 59 "/home/g/mise-work/zmk-firmware/zmk/zephyr/include/zephyr/arch/arm/asm_inline_gcc.h" 1
	mov r3, #32;mrs r6, BASEPRI;msr BASEPRI_MAX, r3;isb;
@ 0 "" 2
.LVL101:
	.loc 7 88 2 view .LVU460
	.loc 7 88 2 is_stmt 0 view .LVU461
	.thumb
	.syntax unified
.LBE222:
.LBE221:
	.loc 6 171 2 is_stmt 1 view .LVU462
	.loc 6 177 2 view .LVU463
	.loc 6 179 2 view .LVU464
	.loc 6 179 2 is_stmt 0 view .LVU465
.LBE220:
.LBE219:
.LBB223:
.LBB224:
	.loc 9 61 33 view .LVU466
	mvn	r7, #34
.LVL102:
.L45:
	.loc 9 61 33 view .LVU467
.LBE224:
.LBE223:
	.loc 1 386 65 is_stmt 1 view .LVU468
	.loc 1 386 27 is_stmt 0 view .LVU469
	mov	r0, r4
	bl	z_unpend_first_thread
.LVL103:
	.loc 1 386 65 view .LVU470
	mov	r3, r0
	cbnz	r0, .L46
	.loc 1 391 2 is_stmt 1 view .LVU471
	.loc 1 392 17 is_stmt 0 view .LVU472
	ldr	r3, [r4, #28]
	.loc 1 391 18 view .LVU473
	str	r0, [r4, #32]
	.loc 1 392 2 is_stmt 1 view .LVU474
	.loc 1 392 17 is_stmt 0 view .LVU475
	str	r3, [r4, #24]
	.loc 1 394 2 is_stmt 1 view .LVU476
	mov	r1, r6
	mov	r0, r5
.LVL104:
	.loc 1 395 1 is_stmt 0 view .LVU477
	pop	{r3, r4, r5, r6, r7, lr}
	.cfi_remember_state
	.cfi_restore 14
	.cfi_restore 7
	.cfi_restore 6
	.cfi_restore 5
	.cfi_restore 4
	.cfi_restore 3
	.cfi_def_cfa_offset 0
.LVL105:
	.loc 1 394 2 view .LVU478
	b	z_reschedule
.LVL106:
.L46:
	.cfi_restore_state
	.loc 1 387 3 is_stmt 1 view .LVU479
.LBB226:
.LBI223:
	.loc 9 59 1 view .LVU480
.LBB225:
	.loc 9 61 2 view .LVU481
	.loc 9 61 33 is_stmt 0 view .LVU482
	str	r7, [r3, #124]
.LVL107:
	.loc 9 61 33 view .LVU483
.LBE225:
.LBE226:
	.loc 1 388 3 is_stmt 1 view .LVU484
	bl	z_ready_thread
.LVL108:
	.loc 1 388 3 is_stmt 0 view .LVU485
	b	.L45
	.cfi_endproc
.LFE516:
	.size	z_impl_k_msgq_purge, .-z_impl_k_msgq_purge
	.text
.Letext0:
	.file 10 "/home/g/zephyr-sdk-0.16.3/arm-zephyr-eabi/lib/gcc/arm-zephyr-eabi/12.2.0/include/stddef.h"
	.file 11 "/home/g/zephyr-sdk-0.16.3/arm-zephyr-eabi/picolibc/include/machine/_default_types.h"
	.file 12 "/home/g/zephyr-sdk-0.16.3/arm-zephyr-eabi/picolibc/include/sys/_stdint.h"
	.file 13 "/home/g/mise-work/zmk-firmware/zmk/zephyr/include/zephyr/sys/rb.h"
	.file 14 "/home/g/mise-work/zmk-firmware/zmk/zephyr/include/zephyr/sys/sys_heap.h"
	.file 15 "/home/g/mise-work/zmk-firmware/zmk/zephyr/include/zephyr/kernel_structs.h"
	.file 16 "/home/g/mise-work/zmk-firmware/zmk/zephyr/include/zephyr/kernel/thread.h"
	.file 17 "/home/g/mise-work/zmk-firmware/zmk/zephyr/include/zephyr/arch/arm/thread.h"
	.file 18 "/home/g/mise-work/zmk-firmware/zmk/zephyr/include/zephyr/sys_clock.h"
	.file 19 "/home/g/mise-work/zmk-firmware/zmk/zephyr/include/zephyr/arch/structs.h"
	.file 20 "/home/g/mise-work/zmk-firmware/zmk/zephyr/include/zephyr/kernel.h"
	.file 21 "/home/g/mise-work/zmk-firmware/zmk/zephyr/kernel/include/ksched.h"
	.file 22 "/home/g/mise-work/zmk-firmware/zmk/zephyr/include/zephyr/sys/kobject.h"
	.file 23 "<built-in>"