	.cpu cortex-m4
	.arch armv7e-m
	.fpu fpv4-sp-d16
	.eabi_attribute 27, 1
	.eabi_attribute 28, 1
	.eabi_attribute 20, 1
	.eabi_attribute 21, 1
	.eabi_attribute 23, 3
	.eabi_attribute 24, 1
	.eabi_attribute 25, 1
	.eabi_attribute 26, 1
	.eabi_attribute 30, 4
	.eabi_attribute 34, 1
	.eabi_attribute 38, 1
	.eabi_attribute 18, 4
	.file	"mutex.c"
	.text
.Ltext0:
	.cfi_sections	.debug_frame
	.file 1 "/home/g/mise-work/zmk-firmware/zmk/zephyr/kernel/mutex.c"
	.section	.text.adjust_owner_prio.isra.0,"ax",%progbits
	.align	1
	.syntax unified
	.thumb
	.thumb_func
	.type	adjust_owner_prio.isra.0, %function
adjust_owner_prio.isra.0:
.LVL0:
.LFB525:
	.loc 1 89 12 view -0
	.cfi_startproc
	@ args = 0, pretend = 0, frame = 0
	@ frame_needed = 0, uses_anonymous_args = 0
	@ link register save eliminated.
	.loc 1 91 2 view .LVU1
	.loc 1 91 24 is_stmt 0 view .LVU2
	ldrsb	r3, [r0, #14]
	.loc 1 91 5 view .LVU3
	cmp	r3, r1
	beq	.L2
	.loc 1 93 3 is_stmt 1 view .LVU4
.LBB166:
	.loc 1 93 8 view .LVU5
.LBE166:
	.loc 1 93 6 view .LVU6
	.loc 1 98 3 view .LVU7
	.loc 1 98 10 is_stmt 0 view .LVU8
	b	z_set_prio
.LVL1:
.L2:
	.loc 1 101 1 view .LVU9
	movs	r0, #0
	bx	lr
	.cfi_endproc
.LFE525:
	.size	adjust_owner_prio.isra.0, .-adjust_owner_prio.isra.0
	.section	.text.z_impl_k_mutex_init,"ax",%progbits
	.align	1
	.global	z_impl_k_mutex_init
	.syntax unified
	.thumb
	.thumb_func
	.type	z_impl_k_mutex_init, %function
z_impl_k_mutex_init:
.LVL2:
.LFB520:
	.loc 1 54 1 is_stmt 1 view -0
	.cfi_startproc
	@ args = 0, pretend = 0, frame = 0
	@ frame_needed = 0, uses_anonymous_args = 0
	@ link register save eliminated.
	.loc 1 55 2 view .LVU11
	.loc 1 54 1 is_stmt 0 view .LVU12
	mov	r3, r0
	.loc 1 55 15 view .LVU13
	movs	r0, #0
.LVL3:
	.loc 1 56 20 view .LVU14
	strd	r0, r0, [r3, #8]
	.loc 1 58 2 is_stmt 1 view .LVU15
.LVL4:
.LBB167:
.LBI167:
	.file 2 "/home/g/mise-work/zmk-firmware/zmk/zephyr/kernel/include/wait_q.h"
	.loc 2 47 20 view .LVU16
.LBB168:
	.loc 2 49 2 view .LVU17
.LBB169:
.LBI169:
	.file 3 "/home/g/mise-work/zmk-firmware/zmk/zephyr/include/zephyr/sys/dlist.h"
	.loc 3 203 20 view .LVU18
.LBB170:
	.loc 3 205 2 view .LVU19
	.loc 3 206 13 is_stmt 0 view .LVU20
	strd	r3, r3, [r3]
.LVL5:
	.loc 3 206 13 view .LVU21
.LBE170:
.LBE169:
.LBE168:
.LBE167:
	.loc 1 60 2 is_stmt 1 view .LVU22
	.loc 1 66 2 view .LVU23
	.loc 1 66 7 view .LVU24
	.loc 1 66 5 view .LVU25
	.loc 1 68 2 view .LVU26
	.loc 1 69 1 is_stmt 0 view .LVU27
	bx	lr
	.cfi_endproc
.LFE520:
	.size	z_impl_k_mutex_init, .-z_impl_k_mutex_init
	.section	.text.z_impl_k_mutex_lock,"ax",%progbits
	.align	1
	.global	z_impl_k_mutex_lock
	.syntax unified
	.thumb
	.thumb_func
	.type	z_impl_k_mutex_lock, %function
z_impl_k_mutex_lock:
.LVL6:
.LFB523:
	.loc 1 104 1 is_stmt 1 view -0
	.cfi_startproc
	@ args = 0, pretend = 0, frame = 0
	@ frame_needed = 0, uses_anonymous_args = 0
	.loc 1 105 2 view .LVU29
	.loc 1 106 2 view .LVU30
	.loc 1 107 1 view .LVU31
	.loc 1 109 4 view .LVU32
	.loc 1 109 5 view .LVU33
	.loc 1 111 2 view .LVU34
	.loc 1 111 7 view .LVU35
	.loc 1 111 5 view .LVU36
	.loc 1 113 2 view .LVU37
.LBB171:
.LBI171:
	.file 4 "/home/g/mise-work/zmk-firmware/zmk/zephyr/include/zephyr/spinlock.h"
	.loc 4 160 63 view .LVU38
.LBB172:
	.loc 4 162 2 view .LVU39
	.loc 4 163 2 view .LVU40
	.loc 4 169 2 view .LVU41
.LBB173:
.LBI173:
	.file 5 "/home/g/mise-work/zmk-firmware/zmk/zephyr/include/zephyr/arch/arm/asm_inline_gcc.h"
	.loc 5 42 59 view .LVU42
.LBB174:
	.loc 5 44 2 view .LVU43
	.loc 5 57 2 view .LVU44
	.loc 5 59 2 view .LVU45
.LBE174:
.LBE173:
.LBE172:
.LBE171:
	.loc 1 104 1 is_stmt 0 view .LVU46
	push	{r0, r1, r4, r5, r6, r7, r8, lr}
	.cfi_def_cfa_offset 32
	.cfi_offset 4, -24
	.cfi_offset 5, -20
	.cfi_offset 6, -16
	.cfi_offset 7, -12
	.cfi_offset 8, -8
	.cfi_offset 14, -4
	.loc 1 104 1 view .LVU47
	mov	r4, r0
	mov	r7, r2
.LVL7:
	.loc 1 104 1 view .LVU48
	mov	r6, r3
.LBB178:
.LBB177:
.LBB176:
.LBB175:
	.loc 5 59 2 view .LVU49
	.syntax unified
@ 59 "/home/g/mise-work/zmk-firmware/zmk/zephyr/include/zephyr/arch/arm/asm_inline_gcc.h" 1
	mov r3, #32;mrs r8, BASEPRI;msr BASEPRI_MAX, r3;isb;
@ 0 "" 2
.LVL8:
	.loc 5 88 2 is_stmt 1 view .LVU50
	.loc 5 88 2 is_stmt 0 view .LVU51
	.thumb
	.syntax unified
.LBE175:
.LBE176:
	.loc 4 171 2 is_stmt 1 view .LVU52
	.loc 4 177 2 view .LVU53
	.loc 4 179 2 view .LVU54
	.loc 4 179 2 is_stmt 0 view .LVU55
.LBE177:
.LBE178:
	.loc 1 115 2 is_stmt 1 view .LVU56
	.loc 1 115 15 is_stmt 0 view .LVU57
	ldr	r3, [r0, #12]
	ldr	r2, .L25
	.loc 1 115 7 view .LVU58
	cbz	r3, .L5
	.loc 1 115 44 discriminator 2 view .LVU59
	ldr	r0, [r0, #8]
.LVL9:
	.loc 1 115 70 discriminator 2 view .LVU60
	ldr	r1, [r2, #8]
	.loc 1 115 7 discriminator 2 view .LVU61
	cmp	r0, r1
	beq	.L6
	.loc 1 135 2 is_stmt 1 view .LVU62
.LVL10:
.LBB179:
	.loc 1 135 5 is_stmt 0 view .LVU63
	orrs	r3, r7, r6
	bne	.L24
	.loc 1 136 3 is_stmt 1 view .LVU64
.LVL11:
.LBB180:
.LBI180:
	.loc 4 235 51 view .LVU65
	.loc 4 238 2 view .LVU66
	.loc 4 261 2 view .LVU67
.LBB181:
.LBI181:
	.loc 5 96 51 view .LVU68
.LBB182:
	.loc 5 107 2 view .LVU69
	.syntax unified
@ 107 "/home/g/mise-work/zmk-firmware/zmk/zephyr/include/zephyr/arch/arm/asm_inline_gcc.h" 1
	msr BASEPRI, r8;isb;
@ 0 "" 2
.LVL12:
	.loc 5 107 2 is_stmt 0 view .LVU70
	.thumb
	.syntax unified
.LBE182:
.LBE181:
.LBE180:
	.loc 1 138 3 is_stmt 1 view .LVU71
	.loc 1 138 8 view .LVU72
	.loc 1 138 6 view .LVU73
	.loc 1 140 3 view .LVU74
	.loc 1 140 10 is_stmt 0 view .LVU75
	mvn	r0, #15
.LVL13:
.L4:
	.loc 1 140 10 view .LVU76
.LBE179:
	.loc 1 197 1 view .LVU77
	add	sp, sp, #8
	.cfi_remember_state
	.cfi_def_cfa_offset 24
	@ sp needed
	pop	{r4, r5, r6, r7, r8, pc}
.LVL14:
.L5:
	.cfi_restore_state
	.loc 1 117 3 is_stmt 1 discriminator 1 view .LVU78
	.loc 1 118 35 is_stmt 0 discriminator 1 view .LVU79
	ldr	r1, [r2, #8]
	.loc 1 118 41 discriminator 1 view .LVU80
	ldrsb	r1, [r1, #14]
.LVL15:
.L9:
	.loc 1 117 26 view .LVU81
	str	r1, [r4, #16]
	.loc 1 121 3 is_stmt 1 view .LVU82
	.loc 1 121 20 is_stmt 0 view .LVU83
	adds	r3, r3, #1
	str	r3, [r4, #12]
	.loc 1 122 3 is_stmt 1 view .LVU84
	.loc 1 122 33 is_stmt 0 view .LVU85
	ldr	r3, [r2, #8]
	.loc 1 122 16 view .LVU86
	str	r3, [r4, #8]
	.loc 1 124 3 is_stmt 1 view .LVU87
.LBB183:
	.loc 1 124 8 view .LVU88
.LBE183:
	.loc 1 124 6 view .LVU89
	.loc 1 128 3 view .LVU90
.LVL16:
.LBB184:
.LBI184:
	.loc 4 235 51 view .LVU91
	.loc 4 238 2 view .LVU92
	.loc 4 261 2 view .LVU93
.LBB185:
.LBI185:
	.loc 5 96 51 view .LVU94
.LBB186:
	.loc 5 107 2 view .LVU95
	.syntax unified
@ 107 "/home/g/mise-work/zmk-firmware/zmk/zephyr/include/zephyr/arch/arm/asm_inline_gcc.h" 1
	msr BASEPRI, r8;isb;
@ 0 "" 2
.LVL17:
	.loc 5 107 2 is_stmt 0 view .LVU96
	.thumb
	.syntax unified
.LBE186:
.LBE185:
.LBE184:
	.loc 1 130 3 is_stmt 1 view .LVU97
	.loc 1 130 8 view .LVU98
	.loc 1 130 6 view .LVU99
	.loc 1 132 3 view .LVU100
.L10:
	.loc 1 132 10 is_stmt 0 view .LVU101
	movs	r0, #0
	b	.L4
.LVL18:
.L6:
	.loc 1 117 3 is_stmt 1 discriminator 2 view .LVU102
	.loc 1 118 41 is_stmt 0 discriminator 2 view .LVU103
	ldr	r1, [r4, #16]
	b	.L9
.LVL19:
.L24:
	.loc 1 143 2 is_stmt 1 view .LVU104
	.loc 1 143 7 view .LVU105
	.loc 1 143 5 view .LVU106
	.loc 1 145 2 view .LVU107
	.loc 1 145 13 is_stmt 0 view .LVU108
	ldrsb	r1, [r1, #14]
	ldrsb	r3, [r0, #14]
.LVL20:
.LBB187:
.LBI187:
	.loc 1 80 16 is_stmt 1 view .LVU109
.LBB188:
	.loc 1 82 2 view .LVU110
	.loc 1 84 2 view .LVU111
.LBB189:
.LBI189:
	.file 6 "/home/g/mise-work/zmk-firmware/zmk/zephyr/kernel/include/ksched.h"
	.loc 6 188 19 view .LVU112
.LBB190:
	.loc 6 190 2 view .LVU113
	.loc 6 190 46 is_stmt 0 view .LVU114
	cmp	r1, r3
	it	ge
	movge	r1, r3
	mvn	r2, #126
	cmp	r1, r2
	it	lt
	movlt	r1, r2
.LVL21:
	.loc 6 190 46 view .LVU115
.LBE190:
.LBE189:
	.loc 1 86 2 is_stmt 1 view .LVU116
	.loc 1 86 2 is_stmt 0 view .LVU117
.LBE188:
.LBE187:
	.loc 1 148 2 is_stmt 1 view .LVU118
.LBB191:
	.loc 1 148 7 view .LVU119
.LBE191:
	.loc 1 148 5 view .LVU120
	.loc 1 150 2 view .LVU121
	.loc 1 150 5 is_stmt 0 view .LVU122
	cmp	r3, r1
	ble	.L20
	.loc 1 151 3 is_stmt 1 view .LVU123
	.loc 1 151 13 is_stmt 0 view .LVU124
	bl	adjust_owner_prio.isra.0
.LVL22:
	.loc 1 151 13 view .LVU125
	mov	r5, r0
.LVL23:
.L12:
	.loc 1 154 2 is_stmt 1 view .LVU126
	.loc 1 154 18 is_stmt 0 view .LVU127
	strd	r7, r6, [sp]
	ldr	r0, .L25+4
	mov	r2, r4
	mov	r1, r8
	bl	z_pend_curr
.LVL24:
	.loc 1 156 2 is_stmt 1 view .LVU128
.LBB192:
	.loc 1 156 7 view .LVU129
.LBE192:
	.loc 1 156 5 view .LVU130
	.loc 1 158 2 view .LVU131
.LBB193:
	.loc 1 158 7 view .LVU132
.LBE193:
	.loc 1 158 5 view .LVU133
	.loc 1 161 2 view .LVU134
	.loc 1 161 5 is_stmt 0 view .LVU135
	cmp	r0, #0
	beq	.L10
	.loc 1 168 2 is_stmt 1 view .LVU136
.LBB194:
	.loc 1 168 7 view .LVU137
.LBE194:
	.loc 1 168 5 view .LVU138
	.loc 1 170 2 view .LVU139
.LVL25:
.LBB195:
.LBI195:
	.loc 4 160 63 view .LVU140
.LBB196:
	.loc 4 162 2 view .LVU141
	.loc 4 163 2 view .LVU142
	.loc 4 169 2 view .LVU143
.LBB197:
.LBI197:
	.loc 5 42 59 view .LVU144
.LBB198:
	.loc 5 44 2 view .LVU145
	.loc 5 57 2 view .LVU146
	.loc 5 59 2 view .LVU147
	.syntax unified
@ 59 "/home/g/mise-work/zmk-firmware/zmk/zephyr/include/zephyr/arch/arm/asm_inline_gcc.h" 1
	mov r3, #32;mrs r6, BASEPRI;msr BASEPRI_MAX, r3;isb;
@ 0 "" 2
.LVL26:
	.loc 5 88 2 view .LVU148
	.loc 5 88 2 is_stmt 0 view .LVU149
	.thumb
	.syntax unified
.LBE198:
.LBE197:
	.loc 4 171 2 is_stmt 1 view .LVU150
	.loc 4 177 2 view .LVU151
	.loc 4 179 2 view .LVU152
	.loc 4 179 2 is_stmt 0 view .LVU153
.LBE196:
.LBE195:
	.loc 1 176 2 is_stmt 1 view .LVU154
	.loc 1 176 14 is_stmt 0 view .LVU155
	ldr	r0, [r4, #8]
.LVL27:
	.loc 1 176 5 view .LVU156
	cbz	r0, .L14
.LBB199:
	.loc 1 177 3 is_stmt 1 view .LVU157
.LVL28:
.LBB200:
.LBI200:
	.loc 2 52 32 view .LVU158
	.loc 2 54 2 view .LVU159
.LBB201:
.LBI201:
	.loc 3 303 28 view .LVU160
.LBB202:
	.loc 3 305 2 view .LVU161
.LBB203:
.LBI203:
	.loc 3 275 19 view .LVU162
.LBB204:
	.loc 3 277 2 view .LVU163
	.loc 3 277 13 is_stmt 0 view .LVU164
	ldr	r3, [r4]
.LVL29:
	.loc 3 277 13 view .LVU165
.LBE204:
.LBE203:
.LBE202:
.LBE201:
.LBE200:
	.loc 1 180 4 view .LVU166
	ldr	r1, [r4, #16]
.LBB207:
.LBB206:
.LBB205:
	.loc 3 305 40 view .LVU167
	cmp	r4, r3
	beq	.L15
.LVL30:
	.loc 3 305 40 view .LVU168
.LBE205:
.LBE206:
.LBE207:
	.loc 1 179 3 is_stmt 1 view .LVU169
	.loc 1 180 72 is_stmt 0 view .LVU170
	cbz	r3, .L15
.LVL31:
.LBB208:
.LBI208:
	.loc 1 80 16 is_stmt 1 discriminator 1 view .LVU171
.LBB209:
	.loc 1 82 2 discriminator 1 view .LVU172
	.loc 1 84 2 discriminator 1 view .LVU173
.LBB210:
.LBI210:
	.loc 6 188 19 discriminator 1 view .LVU174
.LBB211:
	.loc 6 190 2 discriminator 1 view .LVU175
.LBE211:
.LBE210:
.LBE209:
.LBE208:
	.loc 1 180 4 is_stmt 0 discriminator 1 view .LVU176
	ldrsb	r3, [r3, #14]
.LVL32:
.LBB215:
.LBB214:
.LBB213:
.LBB212:
	.loc 6 190 46 discriminator 1 view .LVU177
	cmp	r1, r3
	it	ge
	movge	r1, r3
.LVL33:
	.loc 6 190 46 discriminator 1 view .LVU178
	mvn	r3, #126
.LVL34:
	.loc 6 190 46 discriminator 1 view .LVU179
	cmp	r1, r3
	it	lt
	movlt	r1, r3
.LVL35:
	.loc 6 190 46 discriminator 1 view .LVU180
.LBE212:
.LBE213:
	.loc 1 86 2 is_stmt 1 discriminator 1 view .LVU181
.L15:
	.loc 1 86 2 is_stmt 0 discriminator 1 view .LVU182
.LBE214:
.LBE215:
	.loc 1 183 3 is_stmt 1 view .LVU183
.LBB216:
	.loc 1 183 8 view .LVU184
.LBE216:
	.loc 1 183 6 view .LVU185
	.loc 1 185 3 view .LVU186
	.loc 1 185 13 is_stmt 0 view .LVU187
	bl	adjust_owner_prio.isra.0
.LVL36:
	.loc 1 185 48 view .LVU188
	cbz	r0, .L14
.LVL37:
.L17:
	.loc 1 185 48 view .LVU189
.LBE199:
	.loc 1 189 3 is_stmt 1 view .LVU190
	ldr	r0, .L25+4
	mov	r1, r6
	bl	z_reschedule
.LVL38:
.L19:
	.loc 1 196 9 is_stmt 0 view .LVU191
	mvn	r0, #10
	b	.L4
.LVL39:
.L20:
	.loc 1 107 6 view .LVU192
	movs	r5, #0
	b	.L12
.LVL40:
.L14:
	.loc 1 188 2 is_stmt 1 view .LVU193
	.loc 1 188 5 is_stmt 0 view .LVU194
	cmp	r5, #0
	bne	.L17
.LVL41:
	.loc 1 191 3 is_stmt 1 view .LVU195
.LBB217:
.LBI217:
	.loc 4 235 51 view .LVU196
	.loc 4 238 2 view .LVU197
	.loc 4 261 2 view .LVU198
.LBB218:
.LBI218:
	.loc 5 96 51 view .LVU199
.LBB219:
	.loc 5 107 2 view .LVU200
	.syntax unified
@ 107 "/home/g/mise-work/zmk-firmware/zmk/zephyr/include/zephyr/arch/arm/asm_inline_gcc.h" 1
	msr BASEPRI, r6;isb;
@ 0 "" 2
.LVL42:
	.loc 5 107 2 is_stmt 0 view .LVU201
	.thumb
	.syntax unified
	b	.L19
.L26:
	.align	2
.L25:
	.word	_kernel
	.word	lock
.LBE219:
.LBE218:
.LBE217:
	.cfi_endproc
.LFE523:
	.size	z_impl_k_mutex_lock, .-z_impl_k_mutex_lock
	.section	.text.z_impl_k_mutex_unlock,"ax",%progbits
	.align	1
	.global	z_impl_k_mutex_unlock
	.syntax unified
	.thumb
	.thumb_func
	.type	z_impl_k_mutex_unlock, %function
z_impl_k_mutex_unlock:
.LVL43:
.LFB524:
	.loc 1 210 1 is_stmt 1 view -0
	.cfi_startproc
	@ args = 0, pretend = 0, frame = 0
	@ frame_needed = 0, uses_anonymous_args = 0
	.loc 1 211 2 view .LVU203
	.loc 1 213 4 view .LVU204
	.loc 1 213 5 view .LVU205
	.loc 1 215 2 view .LVU206
	.loc 1 215 7 view .LVU207
	.loc 1 215 5 view .LVU208
	.loc 1 217 2 view .LVU209
	.loc 1 210 1 is_stmt 0 view .LVU210
	push	{r3, r4, r5, lr}
	.cfi_def_cfa_offset 16
	.cfi_offset 3, -16
	.cfi_offset 4, -12
	.cfi_offset 5, -8
	.cfi_offset 14, -4
	.loc 1 217 11 view .LVU211
	ldr	r3, [r0, #8]
	.loc 1 210 1 view .LVU212
	mov	r4, r0
	.loc 1 217 5 view .LVU213
	cbz	r3, .L32
	.loc 1 225 2 is_stmt 1 view .LVU214
	.loc 1 225 37 is_stmt 0 view .LVU215
	ldr	r2, .L34
	.loc 1 225 5 view .LVU216
	ldr	r2, [r2, #8]
	cmp	r3, r2
	bne	.L33
	.loc 1 237 4 is_stmt 1 discriminator 385 view .LVU217
	.loc 1 237 5 discriminator 385 view .LVU218
	.loc 1 239 2 discriminator 385 view .LVU219
.LBB220:
	.loc 1 239 7 discriminator 385 view .LVU220
.LBE220:
	.loc 1 239 5 discriminator 385 view .LVU221
	.loc 1 245 2 discriminator 385 view .LVU222
	.loc 1 245 11 is_stmt 0 discriminator 385 view .LVU223
	ldr	r3, [r0, #12]
	.loc 1 245 5 discriminator 385 view .LVU224
	cmp	r3, #1
	bls	.L29
	.loc 1 246 3 is_stmt 1 view .LVU225
	.loc 1 246 20 is_stmt 0 view .LVU226
	subs	r3, r3, #1
	str	r3, [r0, #12]
	.loc 1 247 3 is_stmt 1 view .LVU227
.LVL44:
.L31:
	.loc 1 281 9 is_stmt 0 view .LVU228
	movs	r0, #0
.L27:
	.loc 1 282 1 view .LVU229
	pop	{r3, r4, r5, pc}
.LVL45:
.L29:
	.loc 1 250 2 is_stmt 1 view .LVU230
.LBB221:
.LBI221:
	.loc 4 160 63 view .LVU231
.LBB222:
	.loc 4 162 2 view .LVU232
	.loc 4 163 2 view .LVU233
	.loc 4 169 2 view .LVU234
.LBB223:
.LBI223:
	.loc 5 42 59 view .LVU235
.LBB224:
	.loc 5 44 2 view .LVU236
	.loc 5 57 2 view .LVU237
	.loc 5 59 2 view .LVU238
	.syntax unified
@ 59 "/home/g/mise-work/zmk-firmware/zmk/zephyr/include/zephyr/arch/arm/asm_inline_gcc.h" 1
	mov r3, #32;mrs r5, BASEPRI;msr BASEPRI_MAX, r3;isb;
@ 0 "" 2
.LVL46:
	.loc 5 88 2 view .LVU239
	.loc 5 88 2 is_stmt 0 view .LVU240
	.thumb
	.syntax unified
.LBE224:
.LBE223:
	.loc 4 171 2 is_stmt 1 view .LVU241
	.loc 4 177 2 view .LVU242
	.loc 4 179 2 view .LVU243
	.loc 4 179 2 is_stmt 0 view .LVU244
.LBE222:
.LBE221:
	.loc 1 252 2 is_stmt 1 view .LVU245
	ldr	r1, [r0, #16]
	ldr	r0, [r0, #8]
.LVL47:
	.loc 1 252 2 is_stmt 0 view .LVU246
	bl	adjust_owner_prio.isra.0
.LVL48:
	.loc 1 255 2 is_stmt 1 view .LVU247
	.loc 1 255 14 is_stmt 0 view .LVU248
	mov	r0, r4
	bl	z_unpend_first_thread
.LVL49:
	.loc 1 257 2 is_stmt 1 view .LVU249
	.loc 1 257 15 is_stmt 0 view .LVU250
	str	r0, [r4, #8]
	.loc 1 259 2 is_stmt 1 view .LVU251
.LBB225:
	.loc 1 259 7 view .LVU252
.LBE225:
	.loc 1 259 5 view .LVU253
	.loc 1 262 2 view .LVU254
	.loc 1 262 5 is_stmt 0 view .LVU255
	cbz	r0, .L30
	.loc 1 268 3 is_stmt 1 view .LVU256
	.loc 1 268 43 is_stmt 0 view .LVU257
	ldrsb	r2, [r0, #14]
	str	r2, [r4, #16]
	.loc 1 269 3 is_stmt 1 view .LVU258
.LVL50:
.LBB226:
.LBI226:
	.file 7 "/home/g/mise-work/zmk-firmware/zmk/zephyr/arch/arm/include/cortex_m/kernel_arch_func.h"
	.loc 7 59 1 view .LVU259
.LBB227:
	.loc 7 61 2 view .LVU260
	.loc 7 61 33 is_stmt 0 view .LVU261
	movs	r2, #0
	str	r2, [r0, #124]
.LVL51:
	.loc 7 61 33 view .LVU262
.LBE227:
.LBE226:
	.loc 1 270 3 is_stmt 1 view .LVU263
	bl	z_ready_thread
.LVL52:
	.loc 1 271 3 view .LVU264
	ldr	r0, .L34+4
	mov	r1, r5
	bl	z_reschedule
.LVL53:
	b	.L31
.LVL54:
.L30:
	.loc 1 273 3 view .LVU265
	.loc 1 273 21 is_stmt 0 view .LVU266
	str	r0, [r4, #12]
	.loc 1 274 3 is_stmt 1 view .LVU267
.LVL55:
.LBB228:
.LBI228:
	.loc 4 235 51 view .LVU268
	.loc 4 238 2 view .LVU269
	.loc 4 261 2 view .LVU270
.LBB229:
.LBI229:
	.loc 5 96 51 view .LVU271
.LBB230:
	.loc 5 107 2 view .LVU272
	.syntax unified
@ 107 "/home/g/mise-work/zmk-firmware/zmk/zephyr/include/zephyr/arch/arm/asm_inline_gcc.h" 1
	msr BASEPRI, r5;isb;
@ 0 "" 2
.LVL56:
	.loc 5 107 2 is_stmt 0 view .LVU273
	.thumb
	.syntax unified
	b	.L31
.LVL57:
.L32:
	.loc 5 107 2 view .LVU274
.LBE230:
.LBE229:
.LBE228:
	.loc 1 220 10 view .LVU275
	mvn	r0, #21
.LVL58:
	.loc 1 220 10 view .LVU276
	b	.L27
.LVL59:
.L33:
	.loc 1 228 10 view .LVU277
	mov	r0, #-1
.LVL60:
	.loc 1 228 10 view .LVU278
	b	.L27
.L35:
	.align	2
.L34:
	.word	_kernel
	.word	lock
	.cfi_endproc
.LFE524:
	.size	z_impl_k_mutex_unlock, .-z_impl_k_mutex_unlock
	.section	.bss.lock,"aw",%nobits
	.type	lock, %object
	.size	lock, 0
lock:
	.text
.Letext0:
	.file 8 "/home/g/zephyr-sdk-0.16.3/arm-zephyr-eabi/lib/gcc/arm-zephyr-eabi/12.2.0/include/stddef.h"
	.file 9 "/home/g/zephyr-sdk-0.16.3/arm-zephyr-eabi/picolibc/include/machine/_default_types.h"
	.file 10 "/home/g/zephyr-sdk-0.16.3/arm-zephyr-eabi/picolibc/include/sys/_stdint.h"
	.file 11 "/home/g/mise-work/zmk-firmware/zmk/zephyr/include/zephyr/sys/rb.h"
	.file 12 "/home/g/mise-work/zmk-firmware/zmk/zephyr/include/zephyr/sys/sys_heap.h"
	.file 13 "/home/g/mise-work/zmk-firmware/zmk/zephyr/include/zephyr/kernel_structs.h"
	.file 14 "/home/g/mise-work/zmk-firmware/zmk/zephyr/include/zephyr/kernel/thread.h"
	.file 15 "/home/g/mise-work/zmk-firmware/zmk/zephyr/include/zephyr/arch/arm/thread.h"
	.file 16 "/home/g/mise-work/zmk-firmware/zmk/zephyr/include/zephyr/sys_clock.h"
	.file 17 "/home/g/mise-work/zmk-firmware/zmk/zephyr/include/zephyr/arch/structs.h"
	.file 18 "/home/g/mise-work/zmk-firmware/zmk/zephyr/include/zephyr/kernel.h"
	.file 19 "/home/g/mise-work/zmk-firmware/zmk/zephyr/include/zephyr/logging/log_instance.h"
	.file 20 "/home/g/mise-work/zmk-firmware/zmk/zephyr/include/zephyr/sys/cbprintf.h"
	.file 21 "/home/g/mise-work/zmk-firmware/zmk/zephyr/include/zephyr/logging/log_msg.h"
	.file 22 "/home/g/mise-work/zmk-firmware/zmk/zephyr/include/zephyr/sys/kobject.h"