	.cpu cortex-m4
	.arch armv7e-m
	.fpu fpv4-sp-d16
	.eabi_attribute 27, 1
	.eabi_attribute 28, 1
	.eabi_attribute 20, 1
	.eabi_attribute 21, 1
	.eabi_attribute 23, 3
	.eabi_attribute 24, 1
	.eabi_attribute 25, 1
	.eabi_attribute 26, 1
	.eabi_attribute 30, 4
	.eabi_attribute 34, 1
	.eabi_attribute 38, 1
	.eabi_attribute 18, 4
	.file	"queue.c"
	.text
.Ltext0:
	.cfi_sections	.debug_frame
	.file 1 "/home/g/mise-work/zmk-firmware/zmk/zephyr/kernel/queue.c"
	.section	.text.queue_insert,"ax",%progbits
	.align	1
	.syntax unified
	.thumb
	.thumb_func
	.type	queue_insert, %function
queue_insert:
.LVL0:
.LFB500:
	.loc 1 125 1 view -0
	.cfi_startproc
	@ args = 4, pretend = 0, frame = 0
	@ frame_needed = 0, uses_anonymous_args = 0
	.loc 1 126 2 view .LVU1
	.loc 1 127 2 view .LVU2
	.loc 1 125 1 is_stmt 0 view .LVU3
	push	{r3, r4, r5, r6, r7, r8, r9, lr}
	.cfi_def_cfa_offset 32
	.cfi_offset 3, -32
	.cfi_offset 4, -28
	.cfi_offset 5, -24
	.cfi_offset 6, -20
	.cfi_offset 7, -16
	.cfi_offset 8, -12
	.cfi_offset 9, -8
	.cfi_offset 14, -4
	.loc 1 125 1 view .LVU4
	mov	r9, r3
	mov	r4, r0
	ldrb	r3, [sp, #32]	@ zero_extendqisi2
.LVL1:
	.loc 1 125 1 view .LVU5
	mov	r5, r1
	mov	r8, r2
	.loc 1 127 25 view .LVU6
	add	r6, r0, #8
.LVL2:
.LBB316:
.LBI316:
	.file 2 "/home/g/mise-work/zmk-firmware/zmk/zephyr/include/zephyr/spinlock.h"
	.loc 2 160 63 is_stmt 1 view .LVU7
.LBB317:
	.loc 2 162 2 view .LVU8
	.loc 2 163 2 view .LVU9
	.loc 2 169 2 view .LVU10
.LBB318:
.LBI318:
	.file 3 "/home/g/mise-work/zmk-firmware/zmk/zephyr/include/zephyr/arch/arm/asm_inline_gcc.h"
	.loc 3 42 59 view .LVU11
.LBB319:
	.loc 3 44 2 view .LVU12
	.loc 3 57 2 view .LVU13
	.loc 3 59 2 view .LVU14
	.syntax unified
@ 59 "/home/g/mise-work/zmk-firmware/zmk/zephyr/include/zephyr/arch/arm/asm_inline_gcc.h" 1
	mov r2, #32;mrs r7, BASEPRI;msr BASEPRI_MAX, r2;isb;
@ 0 "" 2
.LVL3:
	.loc 3 88 2 view .LVU15
	.loc 3 88 2 is_stmt 0 view .LVU16
	.thumb
	.syntax unified
.LBE319:
.LBE318:
	.loc 2 171 2 is_stmt 1 view .LVU17
	.loc 2 177 2 view .LVU18
	.loc 2 179 2 view .LVU19
	.loc 2 179 2 is_stmt 0 view .LVU20
.LBE317:
.LBE316:
	.loc 1 129 2 is_stmt 1 view .LVU21
	.loc 1 129 7 view .LVU22
	.loc 1 129 5 view .LVU23
	.loc 1 131 2 view .LVU24
	.loc 1 131 5 is_stmt 0 view .LVU25
	cbz	r3, .L2
	.loc 1 132 3 is_stmt 1 view .LVU26
.LVL4:
.LBB320:
.LBI320:
	.file 4 "/home/g/mise-work/zmk-firmware/zmk/zephyr/include/zephyr/sys/sflist.h"
	.loc 4 267 29 view .LVU27
.LBB321:
	.loc 4 269 2 view .LVU28
	.loc 4 269 13 is_stmt 0 view .LVU29
	ldr	r5, [r0, #4]
.LVL5:
.L2:
	.loc 4 269 13 view .LVU30
.LBE321:
.LBE320:
	.loc 1 134 2 is_stmt 1 view .LVU31
	.loc 1 134 25 is_stmt 0 view .LVU32
	mov	r0, r6
.LVL6:
	.loc 1 134 25 view .LVU33
	bl	z_unpend_first_thread
.LVL7:
	.loc 1 136 2 is_stmt 1 view .LVU34
	.loc 1 136 5 is_stmt 0 view .LVU35
	cbz	r0, .L3
	.loc 1 137 3 is_stmt 1 view .LVU36
	.loc 1 137 8 view .LVU37
	.loc 1 137 6 view .LVU38
	.loc 1 139 3 view .LVU39
.LVL8:
.LBB322:
.LBI322:
	.loc 1 81 13 view .LVU40
.LBB323:
	.loc 1 83 2 view .LVU41
.LBB324:
.LBI324:
	.file 5 "/home/g/mise-work/zmk-firmware/zmk/zephyr/kernel/include/kernel_internal.h"
	.loc 5 137 1 view .LVU42
.LBB325:
	.loc 5 141 2 view .LVU43
.LBB326:
.LBI326:
	.file 6 "/home/g/mise-work/zmk-firmware/zmk/zephyr/arch/arm/include/cortex_m/kernel_arch_func.h"
	.loc 6 59 1 view .LVU44
.LBB327:
	.loc 6 61 2 view .LVU45
	.loc 6 61 33 is_stmt 0 view .LVU46
	movs	r3, #0
	str	r3, [r0, #124]
.LVL9:
	.loc 6 61 33 view .LVU47
.LBE327:
.LBE326:
	.loc 5 142 2 is_stmt 1 view .LVU48
	.loc 5 142 25 is_stmt 0 view .LVU49
	str	r8, [r0, #20]
.LVL10:
	.loc 5 142 25 view .LVU50
.LBE325:
.LBE324:
	.loc 1 84 2 is_stmt 1 view .LVU51
	bl	z_ready_thread
.LVL11:
	.loc 1 84 2 is_stmt 0 view .LVU52
.LBE323:
.LBE322:
	.loc 1 140 3 is_stmt 1 view .LVU53
.L17:
	.loc 1 171 2 view .LVU54
	mov	r0, r6
	mov	r1, r7
	bl	z_reschedule
.LVL12:
	.loc 1 173 2 view .LVU55
	.loc 1 173 7 view .LVU56
	.loc 1 173 5 view .LVU57
	.loc 1 175 2 view .LVU58
	.loc 1 144 10 is_stmt 0 view .LVU59
	movs	r0, #0
.LVL13:
	.loc 1 144 10 view .LVU60
	b	.L1
.LVL14:
.L3:
	.loc 1 148 2 is_stmt 1 view .LVU61
	.loc 1 148 5 is_stmt 0 view .LVU62
	cmp	r9, #0
	beq	.L5
.LBB328:
	.loc 1 149 3 is_stmt 1 view .LVU63
	.loc 1 151 3 view .LVU64
.LBB329:
.LBI329:
	.loc 5 105 21 view .LVU65
.LVL15:
.LBB330:
	.loc 5 107 2 view .LVU66
	.loc 5 107 9 is_stmt 0 view .LVU67
	movs	r1, #8
	bl	z_thread_aligned_alloc
.LVL16:
	.loc 5 107 9 view .LVU68
.LBE330:
.LBE329:
	.loc 1 152 3 is_stmt 1 view .LVU69
	.loc 1 152 6 is_stmt 0 view .LVU70
	cbnz	r0, .L6
	.loc 1 153 4 is_stmt 1 view .LVU71
.LVL17:
.LBB331:
.LBI331:
	.loc 2 235 51 view .LVU72
	.loc 2 238 2 view .LVU73
	.loc 2 261 2 view .LVU74
.LBB332:
.LBI332:
	.loc 3 96 51 view .LVU75
.LBB333:
	.loc 3 107 2 view .LVU76
	.syntax unified
@ 107 "/home/g/mise-work/zmk-firmware/zmk/zephyr/include/zephyr/arch/arm/asm_inline_gcc.h" 1
	msr BASEPRI, r7;isb;
@ 0 "" 2
.LVL18:
	.loc 3 107 2 is_stmt 0 view .LVU77
	.thumb
	.syntax unified
.LBE333:
.LBE332:
.LBE331:
	.loc 1 155 4 is_stmt 1 view .LVU78
	.loc 1 155 9 view .LVU79
	.loc 1 155 7 view .LVU80
	.loc 1 158 4 view .LVU81
	.loc 1 158 11 is_stmt 0 view .LVU82
	mvn	r0, #11
.LVL19:
.L1:
	.loc 1 158 11 view .LVU83
.LBE328:
	.loc 1 176 1 view .LVU84
	pop	{r3, r4, r5, r6, r7, r8, r9, pc}
.LVL20:
.L6:
.LBB338:
	.loc 1 160 3 is_stmt 1 view .LVU85
.LBB334:
.LBB335:
	.loc 4 303 23 is_stmt 0 view .LVU86
	movs	r2, #1
.LBE335:
.LBE334:
	.loc 1 160 15 view .LVU87
	str	r8, [r0, #4]
	.loc 1 161 3 is_stmt 1 view .LVU88
.LVL21:
.LBB337:
.LBI334:
	.loc 4 300 20 view .LVU89
.LBB336:
	.loc 4 302 4 view .LVU90
	.loc 4 302 5 view .LVU91
	.loc 4 303 2 view .LVU92
	.loc 4 303 23 is_stmt 0 view .LVU93
	str	r2, [r0]
.LVL22:
	.loc 4 303 23 view .LVU94
.LBE336:
.LBE337:
	.loc 1 162 3 is_stmt 1 view .LVU95
.L8:
	.loc 1 162 3 is_stmt 0 view .LVU96
.LBE338:
	.loc 1 167 2 is_stmt 1 view .LVU97
	.loc 1 167 7 view .LVU98
	.loc 1 167 5 view .LVU99
	.loc 1 169 2 view .LVU100
.LBB339:
.LBI339:
	.loc 4 432 20 view .LVU101
.LBB340:
	.loc 4 432 100 view .LVU102
.LBB341:
.LBB342:
.LBB343:
.LBB344:
.LBB345:
.LBB346:
	.loc 4 284 30 is_stmt 0 view .LVU103
	ldr	r1, [r0]
.LBE346:
.LBE345:
	.loc 4 235 37 view .LVU104
	and	r1, r1, #3
.LBE344:
.LBE343:
.LBE342:
.LBE341:
	.loc 4 432 103 view .LVU105
	cbnz	r5, .L9
	.loc 4 432 5 is_stmt 1 view .LVU106
.LVL23:
.LBB360:
.LBI341:
	.loc 4 372 20 view .LVU107
.LBB359:
	.loc 4 372 81 view .LVU108
.LBB350:
.LBI350:
	.loc 4 255 29 view .LVU109
.LBB351:
	.loc 4 257 2 view .LVU110
	.loc 4 257 2 is_stmt 0 view .LVU111
.LBE351:
.LBE350:
.LBB352:
.LBI343:
	.loc 4 230 20 is_stmt 1 view .LVU112
.LBB349:
	.loc 4 233 2 view .LVU113
.LBB348:
.LBI345:
	.loc 4 282 23 view .LVU114
.LBB347:
	.loc 4 284 2 view .LVU115
	.loc 4 284 2 is_stmt 0 view .LVU116
.LBE347:
.LBE348:
	.loc 4 235 2 is_stmt 1 view .LVU117
	.loc 4 235 37 is_stmt 0 view .LVU118
	ldr	r2, [r4]
	orrs	r2, r2, r1
	.loc 4 235 25 view .LVU119
	str	r2, [r0]
.LVL24:
	.loc 4 235 25 view .LVU120
.LBE349:
.LBE352:
	.loc 4 372 134 is_stmt 1 view .LVU121
.LBB353:
.LBI353:
	.loc 4 238 20 view .LVU122
.LBB354:
	.loc 4 240 2 view .LVU123
.LBE354:
.LBE353:
	.loc 4 372 168 is_stmt 0 view .LVU124
	ldr	r2, [r4, #4]
.LBB356:
.LBB355:
	.loc 4 240 13 view .LVU125
	str	r0, [r4]
.LVL25:
	.loc 4 240 13 view .LVU126
.LBE355:
.LBE356:
	.loc 4 372 165 is_stmt 1 view .LVU127
.LBB357:
.LBI357:
	.loc 4 267 29 view .LVU128
.LBB358:
	.loc 4 269 2 view .LVU129
	.loc 4 269 2 is_stmt 0 view .LVU130
.LBE358:
.LBE357:
	.loc 4 372 168 view .LVU131
	cbnz	r2, .L10
.LVL26:
.L16:
	.loc 4 372 168 view .LVU132
.LBE359:
.LBE360:
.LBB361:
.LBB362:
	.loc 4 385 130 is_stmt 1 view .LVU133
.LBB363:
.LBI363:
	.loc 4 243 20 view .LVU134
.LBB364:
	.loc 4 245 2 view .LVU135
	.loc 4 245 13 is_stmt 0 view .LVU136
	str	r0, [r4, #4]
	.loc 4 246 1 view .LVU137
	b	.L10
.LVL27:
.L5:
	.loc 4 246 1 view .LVU138
.LBE364:
.LBE363:
.LBE362:
.LBE361:
.LBE340:
.LBE339:
	.loc 1 164 3 is_stmt 1 view .LVU139
.LBB399:
.LBI399:
	.loc 4 300 20 view .LVU140
.LBB400:
	.loc 4 302 4 view .LVU141
	.loc 4 302 5 view .LVU142
	.loc 4 303 2 view .LVU143
	.loc 4 303 23 is_stmt 0 view .LVU144
	str	r9, [r8]
	.loc 4 304 1 view .LVU145
	mov	r0, r8
.LVL28:
	.loc 4 304 1 view .LVU146
	b	.L8
.LVL29:
.L9:
	.loc 4 304 1 view .LVU147
.LBE400:
.LBE399:
.LBB401:
.LBB397:
	.loc 4 432 44 is_stmt 1 view .LVU148
.LBB381:
.LBI381:
	.loc 4 223 29 view .LVU149
.LBB382:
	.loc 4 225 2 view .LVU150
	.loc 4 225 30 is_stmt 0 view .LVU151
	ldr	r2, [r5]
.LVL30:
	.loc 4 225 30 view .LVU152
.LBE382:
.LBE381:
	.loc 4 432 47 view .LVU153
	cmp	r2, #3
	bhi	.L11
	.loc 4 432 5 is_stmt 1 view .LVU154
.LVL31:
.LBB384:
.LBI361:
	.loc 4 385 20 view .LVU155
.LBB379:
	.loc 4 385 80 view .LVU156
.LBB365:
.LBI365:
	.loc 4 230 20 view .LVU157
.LBB366:
	.loc 4 233 2 view .LVU158
	.loc 4 235 2 view .LVU159
	.loc 4 235 25 is_stmt 0 view .LVU160
	str	r1, [r0]
.LVL32:
	.loc 4 235 25 view .LVU161
.LBE366:
.LBE365:
	.loc 4 385 4 is_stmt 1 view .LVU162
.LBB367:
.LBI367:
	.loc 4 267 29 view .LVU163
.LBB368:
	.loc 4 269 2 view .LVU164
	.loc 4 269 13 is_stmt 0 view .LVU165
	ldr	r1, [r4, #4]
.LVL33:
	.loc 4 269 13 view .LVU166
.LBE368:
.LBE367:
	.loc 4 385 7 view .LVU167
	cbnz	r1, .L12
	.loc 4 385 5 is_stmt 1 view .LVU168
.LVL34:
.LBB369:
.LBI369:
	.loc 4 243 20 view .LVU169
.LBB370:
	.loc 4 245 2 view .LVU170
.LBE370:
.LBE369:
.LBB371:
.LBB372:
	.loc 4 240 13 is_stmt 0 view .LVU171
	strd	r0, r0, [r4]
.LVL35:
.L10:
	.loc 4 240 13 view .LVU172
.LBE372:
.LBE371:
.LBE379:
.LBE384:
.LBE397:
.LBE401:
	.loc 1 170 2 is_stmt 1 view .LVU173
.LBB402:
.LBI402:
	.loc 1 87 20 view .LVU174
.LBB403:
	.loc 1 90 2 view .LVU175
	movs	r1, #4
	add	r0, r4, #16
.LVL36:
	.loc 1 90 2 is_stmt 0 view .LVU176
	bl	z_handle_obj_poll_events
.LVL37:
	b	.L17
.LVL38:
.L12:
	.loc 1 90 2 view .LVU177
.LBE403:
.LBE402:
.LBB404:
.LBB398:
.LBB385:
.LBB380:
	.loc 4 385 76 is_stmt 1 view .LVU178
.LBB373:
.LBI373:
	.loc 4 230 20 view .LVU179
.LBB374:
	.loc 4 233 2 view .LVU180
.LBB375:
.LBI375:
	.loc 4 282 23 view .LVU181
.LBB376:
	.loc 4 284 2 view .LVU182
	.loc 4 284 2 is_stmt 0 view .LVU183
.LBE376:
.LBE375:
	.loc 4 235 2 is_stmt 1 view .LVU184
.LBB378:
.LBB377:
	.loc 4 284 30 is_stmt 0 view .LVU185
	ldr	r2, [r1]
.LBE377:
.LBE378:
	.loc 4 235 37 view .LVU186
	and	r2, r2, #3
	orrs	r2, r2, r0
	.loc 4 235 25 view .LVU187
	str	r2, [r1]
.LVL39:
	.loc 4 235 25 view .LVU188
	b	.L16
.LVL40:
.L11:
	.loc 4 235 25 view .LVU189
.LBE374:
.LBE373:
.LBE380:
.LBE385:
	.loc 4 432 45 is_stmt 1 view .LVU190
.LBB386:
.LBI386:
	.loc 4 230 20 view .LVU191
.LBB387:
	.loc 4 233 2 view .LVU192
	.loc 4 235 2 view .LVU193
.LBE387:
.LBE386:
.LBB389:
.LBB383:
	.loc 4 225 47 is_stmt 0 view .LVU194
	bic	r2, r2, #3
.LVL41:
	.loc 4 225 47 view .LVU195
.LBE383:
.LBE389:
.LBB390:
.LBB388:
	.loc 4 235 37 view .LVU196
	orrs	r2, r2, r1
	.loc 4 235 25 view .LVU197
	str	r2, [r0]
.LVL42:
	.loc 4 235 25 view .LVU198
.LBE388:
.LBE390:
	.loc 4 432 96 is_stmt 1 view .LVU199
.LBB391:
.LBI391:
	.loc 4 230 20 view .LVU200
.LBB392:
	.loc 4 233 2 view .LVU201
.LBB393:
.LBI393:
	.loc 4 282 23 view .LVU202
.LBB394:
	.loc 4 284 2 view .LVU203
	.loc 4 284 2 is_stmt 0 view .LVU204
.LBE394:
.LBE393:
	.loc 4 235 2 is_stmt 1 view .LVU205
.LBB396:
.LBB395:
	.loc 4 284 30 is_stmt 0 view .LVU206
	ldr	r2, [r5]
.LBE395:
.LBE396:
	.loc 4 235 37 view .LVU207
	and	r2, r2, #3
	orr	r3, r0, r2
	.loc 4 235 25 view .LVU208
	str	r3, [r5]
.LVL43:
	.loc 4 236 1 view .LVU209
	b	.L10
.LBE392:
.LBE391:
.LBE398:
.LBE404:
	.cfi_endproc
.LFE500:
	.size	queue_insert, .-queue_insert
	.section	.text.z_queue_node_peek,"ax",%progbits
	.align	1
	.global	z_queue_node_peek
	.syntax unified
	.thumb
	.thumb_func
	.type	z_queue_node_peek, %function
z_queue_node_peek:
.LVL44:
.LFB495:
	.loc 1 31 1 is_stmt 1 view -0
	.cfi_startproc
	@ args = 0, pretend = 0, frame = 0
	@ frame_needed = 0, uses_anonymous_args = 0
	.loc 1 32 2 view .LVU211
	.loc 1 34 2 view .LVU212
	.loc 1 31 1 is_stmt 0 view .LVU213
	push	{r4, lr}
	.cfi_def_cfa_offset 8
	.cfi_offset 4, -8
	.cfi_offset 14, -4
	.loc 1 34 5 view .LVU214
	mov	r4, r0
	cbz	r0, .L19
.LVL45:
.LBB412:
.LBI412:
	.loc 4 282 23 is_stmt 1 view .LVU215
.LBB413:
	.loc 4 284 2 view .LVU216
	.loc 4 284 30 is_stmt 0 view .LVU217
	ldr	r2, [r0]
.LBE413:
.LBE412:
	.loc 1 34 20 view .LVU218
	lsls	r3, r2, #30
	beq	.L19
.LVL46:
.LBB414:
.LBI414:
	.loc 1 30 7 is_stmt 1 view .LVU219
.LBB415:
.LBB416:
	.loc 1 40 3 view .LVU220
	.loc 1 42 3 view .LVU221
	.loc 1 43 3 view .LVU222
	.loc 1 43 7 is_stmt 0 view .LVU223
	ldr	r4, [r0, #4]
.LVL47:
	.loc 1 44 3 is_stmt 1 view .LVU224
	.loc 1 44 6 is_stmt 0 view .LVU225
	cbz	r1, .L19
	.loc 1 45 4 is_stmt 1 view .LVU226
	bl	k_free
.LVL48:
.L19:
	.loc 1 45 4 is_stmt 0 view .LVU227
.LBE416:
.LBE415:
.LBE414:
	.loc 1 55 2 is_stmt 1 view .LVU228
	.loc 1 56 1 is_stmt 0 view .LVU229
	mov	r0, r4
	pop	{r4, pc}
	.loc 1 56 1 view .LVU230
	.cfi_endproc
.LFE495:
	.size	z_queue_node_peek, .-z_queue_node_peek
	.section	.text.z_impl_k_queue_init,"ax",%progbits
	.align	1
	.global	z_impl_k_queue_init
	.syntax unified
	.thumb
	.thumb_func
	.type	z_impl_k_queue_init, %function
z_impl_k_queue_init:
.LVL49:
.LFB496:
	.loc 1 59 1 is_stmt 1 view -0
	.cfi_startproc
	@ args = 0, pretend = 0, frame = 0
	@ frame_needed = 0, uses_anonymous_args = 0
	@ link register save eliminated.
	.loc 1 60 2 view .LVU232
.LBB417:
.LBI417:
	.loc 4 210 20 view .LVU233
.LBB418:
	.loc 4 212 2 view .LVU234
	.loc 4 212 13 is_stmt 0 view .LVU235
	movs	r3, #0
	.loc 4 213 13 view .LVU236
	strd	r3, r3, [r0]
.LVL50:
	.loc 4 213 13 view .LVU237
.LBE418:
.LBE417:
	.loc 1 61 2 is_stmt 1 view .LVU238
	.loc 1 62 2 view .LVU239
.LBB419:
.LBI419:
	.file 7 "/home/g/mise-work/zmk-firmware/zmk/zephyr/kernel/include/wait_q.h"
	.loc 7 47 20 view .LVU240
.LBB420:
	.loc 7 49 2 view .LVU241
	add	r3, r0, #8
.LVL51:
.LBB421:
.LBI421:
	.file 8 "/home/g/mise-work/zmk-firmware/zmk/zephyr/include/zephyr/sys/dlist.h"
	.loc 8 203 20 view .LVU242
.LBB422:
	.loc 8 205 2 view .LVU243
	.loc 8 206 13 is_stmt 0 view .LVU244
	strd	r3, r3, [r0, #8]
.LVL52:
	.loc 8 206 13 view .LVU245
.LBE422:
.LBE421:
.LBE420:
.LBE419:
	.loc 1 64 2 is_stmt 1 view .LVU246
	add	r3, r0, #16
.LVL53:
.LBB423:
.LBI423:
	.loc 8 203 20 view .LVU247
.LBB424:
	.loc 8 205 2 view .LVU248
	.loc 8 206 13 is_stmt 0 view .LVU249
	strd	r3, r3, [r0, #16]
.LVL54:
	.loc 8 206 13 view .LVU250
.LBE424:
.LBE423:
	.loc 1 67 2 is_stmt 1 view .LVU251
	.loc 1 67 7 view .LVU252
	.loc 1 67 5 view .LVU253
	.loc 1 69 2 view .LVU254
	.loc 1 70 1 is_stmt 0 view .LVU255
	bx	lr
	.cfi_endproc
.LFE496:
	.size	z_impl_k_queue_init, .-z_impl_k_queue_init
	.section	.text.z_impl_k_queue_cancel_wait,"ax",%progbits
	.align	1
	.global	z_impl_k_queue_cancel_wait
	.syntax unified
	.thumb
	.thumb_func
	.type	z_impl_k_queue_cancel_wait, %function
z_impl_k_queue_cancel_wait:
.LVL55:
.LFB499:
	.loc 1 98 1 is_stmt 1 view -0
	.cfi_startproc
	@ args = 0, pretend = 0, frame = 0
	@ frame_needed = 0, uses_anonymous_args = 0
	.loc 1 99 2 view .LVU257
	.loc 1 99 7 view .LVU258
	.loc 1 99 5 view .LVU259
	.loc 1 101 2 view .LVU260
	.loc 1 98 1 is_stmt 0 view .LVU261
	push	{r4, r5, r6, lr}
	.cfi_def_cfa_offset 16
	.cfi_offset 4, -16
	.cfi_offset 5, -12
	.cfi_offset 6, -8
	.cfi_offset 14, -4
	.loc 1 98 1 view .LVU262
	mov	r4, r0
	.loc 1 101 25 view .LVU263
	add	r5, r0, #8
.LVL56:
.LBB425:
.LBI425:
	.loc 2 160 63 is_stmt 1 view .LVU264
.LBB426:
	.loc 2 162 2 view .LVU265
	.loc 2 163 2 view .LVU266
	.loc 2 169 2 view .LVU267
.LBB427:
.LBI427:
	.loc 3 42 59 view .LVU268
.LBB428:
	.loc 3 44 2 view .LVU269
	.loc 3 57 2 view .LVU270
	.loc 3 59 2 view .LVU271
	.syntax unified
@ 59 "/home/g/mise-work/zmk-firmware/zmk/zephyr/include/zephyr/arch/arm/asm_inline_gcc.h" 1
	mov r3, #32;mrs r6, BASEPRI;msr BASEPRI_MAX, r3;isb;
@ 0 "" 2
.LVL57:
	.loc 3 88 2 view .LVU272
	.loc 3 88 2 is_stmt 0 view .LVU273
	.thumb
	.syntax unified
.LBE428:
.LBE427:
	.loc 2 171 2 is_stmt 1 view .LVU274
	.loc 2 177 2 view .LVU275
	.loc 2 179 2 view .LVU276
	.loc 2 179 2 is_stmt 0 view .LVU277
.LBE426:
.LBE425:
	.loc 1 102 2 is_stmt 1 view .LVU278
	.loc 1 104 2 view .LVU279
	.loc 1 104 25 is_stmt 0 view .LVU280
	mov	r0, r5
.LVL58:
	.loc 1 104 25 view .LVU281
	bl	z_unpend_first_thread
.LVL59:
	.loc 1 106 2 is_stmt 1 view .LVU282
	.loc 1 106 5 is_stmt 0 view .LVU283
	cbz	r0, .L32
	.loc 1 107 3 is_stmt 1 view .LVU284
.LVL60:
.LBB429:
.LBI429:
	.loc 1 81 13 view .LVU285
.LBB430:
	.loc 1 83 2 view .LVU286
.LBB431:
.LBI431:
	.loc 5 137 1 view .LVU287
.LBB432:
	.loc 5 141 2 view .LVU288
.LBB433:
.LBI433:
	.loc 6 59 1 view .LVU289
.LBB434:
	.loc 6 61 2 view .LVU290
	.loc 6 61 33 is_stmt 0 view .LVU291
	movs	r2, #0
	str	r2, [r0, #124]
.LVL61:
	.loc 6 61 33 view .LVU292
.LBE434:
.LBE433:
	.loc 5 142 2 is_stmt 1 view .LVU293
	.loc 5 142 25 is_stmt 0 view .LVU294
	str	r2, [r0, #20]
.LVL62:
	.loc 5 142 25 view .LVU295
.LBE432:
.LBE431:
	.loc 1 84 2 is_stmt 1 view .LVU296
	bl	z_ready_thread
.LVL63:
.L32:
	.loc 1 84 2 is_stmt 0 view .LVU297
.LBE430:
.LBE429:
	.loc 1 110 2 is_stmt 1 view .LVU298
.LBB435:
.LBI435:
	.loc 1 87 20 view .LVU299
.LBB436:
	.loc 1 90 2 view .LVU300
	add	r0, r4, #16
	movs	r1, #8
	bl	z_handle_obj_poll_events
.LVL64:
	.loc 1 90 2 is_stmt 0 view .LVU301
.LBE436:
.LBE435:
	.loc 1 111 2 is_stmt 1 view .LVU302
	mov	r1, r6
	mov	r0, r5
	.loc 1 112 1 is_stmt 0 view .LVU303
	pop	{r4, r5, r6, lr}
	.cfi_restore 14
	.cfi_restore 6
	.cfi_restore 5
	.cfi_restore 4
	.cfi_def_cfa_offset 0
.LVL65:
	.loc 1 111 2 view .LVU304
	b	z_reschedule
.LVL66:
	.loc 1 111 2 view .LVU305
	.cfi_endproc
.LFE499:
	.size	z_impl_k_queue_cancel_wait, .-z_impl_k_queue_cancel_wait
	.section	.text.k_queue_insert,"ax",%progbits
	.align	1
	.global	k_queue_insert
	.syntax unified
	.thumb
	.thumb_func
	.type	k_queue_insert, %function
k_queue_insert:
.LVL67:
.LFB501:
	.loc 1 179 1 is_stmt 1 view -0
	.cfi_startproc
	@ args = 0, pretend = 0, frame = 0
	@ frame_needed = 0, uses_anonymous_args = 0
	.loc 1 180 2 view .LVU307
	.loc 1 180 7 view .LVU308
	.loc 1 180 5 view .LVU309
	.loc 1 182 2 view .LVU310
	.loc 1 179 1 is_stmt 0 view .LVU311
	push	{r0, r1, r2, lr}
	.cfi_def_cfa_offset 16
	.cfi_offset 14, -4
	.loc 1 182 8 view .LVU312
	movs	r3, #0
	str	r3, [sp]
	bl	queue_insert
.LVL68:
	.loc 1 184 2 is_stmt 1 view .LVU313
	.loc 1 184 7 view .LVU314
	.loc 1 184 5 view .LVU315
	.loc 1 185 1 is_stmt 0 view .LVU316
	add	sp, sp, #12
	.cfi_def_cfa_offset 4
	@ sp needed
	ldr	pc, [sp], #4
	.cfi_endproc
.LFE501:
	.size	k_queue_insert, .-k_queue_insert
	.section	.text.k_queue_append,"ax",%progbits
	.align	1
	.global	k_queue_append
	.syntax unified
	.thumb
	.thumb_func
	.type	k_queue_append, %function
k_queue_append:
.LVL69:
.LFB502:
	.loc 1 188 1 is_stmt 1 view -0
	.cfi_startproc
	@ args = 0, pretend = 0, frame = 0
	@ frame_needed = 0, uses_anonymous_args = 0
	.loc 1 189 2 view .LVU318
	.loc 1 189 7 view .LVU319
	.loc 1 189 5 view .LVU320
	.loc 1 191 2 view .LVU321
	.loc 1 188 1 is_stmt 0 view .LVU322
	push	{r0, r1, r2, lr}
	.cfi_def_cfa_offset 16
	.cfi_offset 14, -4
	.loc 1 191 8 view .LVU323
	movs	r3, #1
	str	r3, [sp]
	movs	r3, #0
	.loc 1 188 1 view .LVU324
	mov	r2, r1
	.loc 1 191 8 view .LVU325
	mov	r1, r3
.LVL70:
	.loc 1 191 8 view .LVU326
	bl	queue_insert
.LVL71:
	.loc 1 193 2 is_stmt 1 view .LVU327
	.loc 1 193 7 view .LVU328
	.loc 1 193 5 view .LVU329
	.loc 1 194 1 is_stmt 0 view .LVU330
	add	sp, sp, #12
	.cfi_def_cfa_offset 4
	@ sp needed
	ldr	pc, [sp], #4
	.cfi_endproc
.LFE502:
	.size	k_queue_append, .-k_queue_append
	.section	.text.k_queue_prepend,"ax",%progbits
	.align	1
	.global	k_queue_prepend
	.syntax unified
	.thumb
	.thumb_func
	.type	k_queue_prepend, %function
k_queue_prepend:
.LVL72:
.LFB503:
	.loc 1 197 1 is_stmt 1 view -0
	.cfi_startproc
	@ args = 0, pretend = 0, frame = 0
	@ frame_needed = 0, uses_anonymous_args = 0
	.loc 1 198 2 view .LVU332
	.loc 1 198 7 view .LVU333
	.loc 1 198 5 view .LVU334
	.loc 1 200 2 view .LVU335
	.loc 1 197 1 is_stmt 0 view .LVU336
	push	{r0, r1, r2, lr}
	.cfi_def_cfa_offset 16
	.cfi_offset 14, -4
	.loc 1 200 8 view .LVU337
	movs	r3, #0
	.loc 1 197 1 view .LVU338
	mov	r2, r1
	.loc 1 200 8 view .LVU339
	str	r3, [sp]
	mov	r1, r3
.LVL73:
	.loc 1 200 8 view .LVU340
	bl	queue_insert
.LVL74:
	.loc 1 202 2 is_stmt 1 view .LVU341
	.loc 1 202 7 view .LVU342
	.loc 1 202 5 view .LVU343
	.loc 1 203 1 is_stmt 0 view .LVU344
	add	sp, sp, #12
	.cfi_def_cfa_offset 4
	@ sp needed
	ldr	pc, [sp], #4
	.cfi_endproc
.LFE503:
	.size	k_queue_prepend, .-k_queue_prepend
	.section	.text.z_impl_k_queue_alloc_append,"ax",%progbits
	.align	1
	.global	z_impl_k_queue_alloc_append
	.syntax unified
	.thumb
	.thumb_func
	.type	z_impl_k_queue_alloc_append, %function
z_impl_k_queue_alloc_append:
.LVL75:
.LFB504:
	.loc 1 206 1 is_stmt 1 view -0
	.cfi_startproc
	@ args = 0, pretend = 0, frame = 0
	@ frame_needed = 0, uses_anonymous_args = 0
	.loc 1 207 2 view .LVU346
	.loc 1 207 7 view .LVU347
	.loc 1 207 5 view .LVU348
	.loc 1 209 2 view .LVU349
	.loc 1 206 1 is_stmt 0 view .LVU350
	push	{r0, r1, r2, lr}
	.cfi_def_cfa_offset 16
	.cfi_offset 14, -4
	.loc 1 209 16 view .LVU351
	movs	r3, #1
	.loc 1 206 1 view .LVU352
	mov	r2, r1
	.loc 1 209 16 view .LVU353
	str	r3, [sp]
	movs	r1, #0
.LVL76:
	.loc 1 209 16 view .LVU354
	bl	queue_insert
.LVL77:
	.loc 1 211 2 is_stmt 1 view .LVU355
	.loc 1 211 7 view .LVU356
	.loc 1 211 5 view .LVU357
	.loc 1 213 2 view .LVU358
	.loc 1 214 1 is_stmt 0 view .LVU359
	add	sp, sp, #12
	.cfi_def_cfa_offset 4
	@ sp needed
	ldr	pc, [sp], #4
	.cfi_endproc
.LFE504:
	.size	z_impl_k_queue_alloc_append, .-z_impl_k_queue_alloc_append
	.section	.text.z_impl_k_queue_alloc_prepend,"ax",%progbits
	.align	1
	.global	z_impl_k_queue_alloc_prepend
	.syntax unified
	.thumb
	.thumb_func
	.type	z_impl_k_queue_alloc_prepend, %function
z_impl_k_queue_alloc_prepend:
.LVL78:
.LFB505:
	.loc 1 227 1 is_stmt 1 view -0
	.cfi_startproc
	@ args = 0, pretend = 0, frame = 0
	@ frame_needed = 0, uses_anonymous_args = 0
	.loc 1 228 2 view .LVU361
	.loc 1 228 7 view .LVU362
	.loc 1 228 5 view .LVU363
	.loc 1 230 2 view .LVU364
	.loc 1 227 1 is_stmt 0 view .LVU365
	push	{r0, r1, r2, lr}
	.cfi_def_cfa_offset 16
	.cfi_offset 14, -4
	.loc 1 227 1 view .LVU366
	mov	r2, r1
	.loc 1 230 16 view .LVU367
	movs	r1, #0
.LVL79:
	.loc 1 230 16 view .LVU368
	str	r1, [sp]
	movs	r3, #1
	bl	queue_insert
.LVL80:
	.loc 1 232 2 is_stmt 1 view .LVU369
	.loc 1 232 7 view .LVU370
	.loc 1 232 5 view .LVU371
	.loc 1 234 2 view .LVU372
	.loc 1 235 1 is_stmt 0 view .LVU373
	add	sp, sp, #12
	.cfi_def_cfa_offset 4
	@ sp needed
	ldr	pc, [sp], #4
	.cfi_endproc
.LFE505:
	.size	z_impl_k_queue_alloc_prepend, .-z_impl_k_queue_alloc_prepend
	.section	.text.k_queue_append_list,"ax",%progbits
	.align	1
	.global	k_queue_append_list
	.syntax unified
	.thumb
	.thumb_func
	.type	k_queue_append_list, %function
k_queue_append_list:
.LVL81:
.LFB506:
	.loc 1 248 1 is_stmt 1 view -0
	.cfi_startproc
	@ args = 0, pretend = 0, frame = 0
	@ frame_needed = 0, uses_anonymous_args = 0
	.loc 1 249 2 view .LVU375
	.loc 1 249 7 view .LVU376
	.loc 1 249 5 view .LVU377
	.loc 1 252 2 view .LVU378
	.loc 1 248 1 is_stmt 0 view .LVU379
	push	{r3, r4, r5, r6, r7, r8, r9, lr}
	.cfi_def_cfa_offset 32
	.cfi_offset 3, -32
	.cfi_offset 4, -28
	.cfi_offset 5, -24
	.cfi_offset 6, -20
	.cfi_offset 7, -16
	.cfi_offset 8, -12
	.cfi_offset 9, -8
	.cfi_offset 14, -4
	.loc 1 248 1 view .LVU380
	mov	r8, r0
	mov	r5, r2
	.loc 1 252 5 view .LVU381
	mov	r4, r1
	cbz	r1, .L49
	.loc 1 252 1 discriminator 1 view .LVU382
	cbz	r2, .L49
	.loc 1 258 2 is_stmt 1 view .LVU383
	.loc 1 258 25 is_stmt 0 view .LVU384
	add	r6, r0, #8
.LVL82:
.LBB461:
.LBI461:
	.loc 2 160 63 is_stmt 1 view .LVU385
.LBB462:
	.loc 2 162 2 view .LVU386
	.loc 2 163 2 view .LVU387
	.loc 2 169 2 view .LVU388
.LBB463:
.LBI463:
	.loc 3 42 59 view .LVU389
.LBB464:
	.loc 3 44 2 view .LVU390
	.loc 3 57 2 view .LVU391
	.loc 3 59 2 view .LVU392
	.syntax unified
@ 59 "/home/g/mise-work/zmk-firmware/zmk/zephyr/include/zephyr/arch/arm/asm_inline_gcc.h" 1
	mov r3, #32;mrs r7, BASEPRI;msr BASEPRI_MAX, r3;isb;
@ 0 "" 2
.LVL83:
	.loc 3 88 2 view .LVU393
	.loc 3 88 2 is_stmt 0 view .LVU394
	.thumb
	.syntax unified
.LBE464:
.LBE463:
	.loc 2 171 2 is_stmt 1 view .LVU395
	.loc 2 177 2 view .LVU396
	.loc 2 179 2 view .LVU397
	.loc 2 179 2 is_stmt 0 view .LVU398
.LBE462:
.LBE461:
	.loc 1 259 2 is_stmt 1 view .LVU399
	.loc 1 261 2 view .LVU400
	.loc 1 262 3 view .LVU401
	.loc 1 262 12 is_stmt 0 view .LVU402
	mov	r0, r6
.LVL84:
	.loc 1 262 12 view .LVU403
	bl	z_unpend_first_thread
.LVL85:
	.loc 1 265 23 is_stmt 1 view .LVU404
	cbz	r0, .L43
.LBB465:
.LBB466:
.LBB467:
.LBB468:
.LBB469:
.LBB470:
	.loc 6 61 33 is_stmt 0 view .LVU405
	mov	r9, #0
.L45:
	.loc 6 61 33 view .LVU406
.LBE470:
.LBE469:
.LBE468:
.LBE467:
.LBE466:
.LBE465:
	.loc 1 266 3 is_stmt 1 view .LVU407
.LVL86:
.LBB478:
.LBI465:
	.loc 1 81 13 view .LVU408
.LBB477:
	.loc 1 83 2 view .LVU409
.LBB476:
.LBI467:
	.loc 5 137 1 view .LVU410
.LBB475:
	.loc 5 141 2 view .LVU411
.LBB473:
.LBI469:
	.loc 6 59 1 view .LVU412
.LBB471:
	.loc 6 61 2 view .LVU413
.LBE471:
.LBE473:
	.loc 5 142 25 is_stmt 0 view .LVU414
	str	r4, [r0, #20]
.LBB474:
.LBB472:
	.loc 6 61 33 view .LVU415
	str	r9, [r0, #124]
.LVL87:
	.loc 6 61 33 view .LVU416
.LBE472:
.LBE474:
	.loc 5 142 2 is_stmt 1 view .LVU417
	.loc 5 142 2 is_stmt 0 view .LVU418
.LBE475:
.LBE476:
	.loc 1 84 2 is_stmt 1 view .LVU419
	bl	z_ready_thread
.LVL88:
	.loc 1 84 2 is_stmt 0 view .LVU420
.LBE477:
.LBE478:
	.loc 1 267 3 is_stmt 1 view .LVU421
	.loc 1 267 8 is_stmt 0 view .LVU422
	ldr	r4, [r4]
.LVL89:
	.loc 1 268 3 is_stmt 1 view .LVU423
	.loc 1 268 12 is_stmt 0 view .LVU424
	mov	r0, r6
	bl	z_unpend_first_thread
.LVL90:
	.loc 1 265 23 is_stmt 1 view .LVU425
	cbz	r4, .L44
	.loc 1 265 23 is_stmt 0 discriminator 1 view .LVU426
	cmp	r0, #0
	bne	.L45
.L43:
	.loc 1 272 3 is_stmt 1 view .LVU427
.LVL91:
.LBB479:
.LBI479:
	.loc 4 403 20 view .LVU428
.LBB480:
	.loc 4 403 89 view .LVU429
	.loc 4 403 5 view .LVU430
.LBB481:
.LBI481:
	.loc 4 267 29 view .LVU431
.LBB482:
	.loc 4 269 2 view .LVU432
	.loc 4 269 13 is_stmt 0 view .LVU433
	ldr	r3, [r8, #4]
.LVL92:
	.loc 4 269 13 view .LVU434
.LBE482:
.LBE481:
	.loc 4 403 8 view .LVU435
	cbnz	r3, .L46
	.loc 4 403 5 is_stmt 1 view .LVU436
.LVL93:
.LBB483:
.LBI483:
	.loc 4 238 20 view .LVU437
.LBB484:
	.loc 4 240 2 view .LVU438
	.loc 4 240 13 is_stmt 0 view .LVU439
	str	r4, [r8]
.LVL94:
.L47:
	.loc 4 240 13 view .LVU440
.LBE484:
.LBE483:
	.loc 4 403 133 is_stmt 1 view .LVU441
.LBB485:
.LBI485:
	.loc 4 243 20 view .LVU442
.LBB486:
	.loc 4 245 2 view .LVU443
	.loc 4 245 13 is_stmt 0 view .LVU444
	str	r5, [r8, #4]
.LVL95:
.L44:
	.loc 4 245 13 view .LVU445
.LBE486:
.LBE485:
.LBE480:
.LBE479:
	.loc 1 275 2 is_stmt 1 view .LVU446
	.loc 1 275 7 view .LVU447
	.loc 1 275 5 view .LVU448
	.loc 1 277 2 view .LVU449
.LBB494:
.LBI494:
	.loc 1 87 20 view .LVU450
.LBB495:
	.loc 1 90 2 view .LVU451
	movs	r1, #4
	add	r0, r8, #16
.LVL96:
	.loc 1 90 2 is_stmt 0 view .LVU452
	bl	z_handle_obj_poll_events
.LVL97:
	.loc 1 90 2 view .LVU453
.LBE495:
.LBE494:
	.loc 1 278 2 is_stmt 1 view .LVU454
	mov	r0, r6
	mov	r1, r7
	bl	z_reschedule
.LVL98:
	.loc 1 279 2 view .LVU455
	.loc 1 279 9 is_stmt 0 view .LVU456
	movs	r0, #0
.LVL99:
.L41:
	.loc 1 280 1 view .LVU457
	pop	{r3, r4, r5, r6, r7, r8, r9, pc}
.LVL100:
.L46:
.LBB496:
.LBB493:
	.loc 4 403 61 is_stmt 1 view .LVU458
.LBB487:
.LBI487:
	.loc 4 230 20 view .LVU459
.LBB488:
	.loc 4 233 2 view .LVU460
.LBB489:
.LBI489:
	.loc 4 282 23 view .LVU461
.LBB490:
	.loc 4 284 2 view .LVU462
	.loc 4 284 2 is_stmt 0 view .LVU463
.LBE490:
.LBE489:
	.loc 4 235 2 is_stmt 1 view .LVU464
.LBB492:
.LBB491:
	.loc 4 284 30 is_stmt 0 view .LVU465
	ldr	r2, [r3]
.LBE491:
.LBE492:
	.loc 4 235 37 view .LVU466
	and	r2, r2, #3
	orrs	r4, r4, r2
.LVL101:
	.loc 4 235 25 view .LVU467
	str	r4, [r3]
.LVL102:
	.loc 4 236 1 view .LVU468
	b	.L47
.LVL103:
.L49:
	.loc 4 236 1 view .LVU469
.LBE488:
.LBE487:
.LBE493:
.LBE496:
	.loc 1 255 10 view .LVU470
	mvn	r0, #21
.LVL104:
	.loc 1 255 10 view .LVU471
	b	.L41
	.cfi_endproc
.LFE506:
	.size	k_queue_append_list, .-k_queue_append_list
	.section	.text.k_queue_merge_slist,"ax",%progbits
	.align	1
	.global	k_queue_merge_slist
	.syntax unified
	.thumb
	.thumb_func
	.type	k_queue_merge_slist, %function
k_queue_merge_slist:
.LVL105:
.LFB507:
	.loc 1 283 1 is_stmt 1 view -0
	.cfi_startproc
	@ args = 0, pretend = 0, frame = 0
	@ frame_needed = 0, uses_anonymous_args = 0
	.loc 1 284 2 view .LVU473
	.loc 1 286 2 view .LVU474
	.loc 1 286 7 view .LVU475
	.loc 1 286 5 view .LVU476
	.loc 1 289 2 view .LVU477
.LBB497:
.LBI497:
	.file 9 "/home/g/mise-work/zmk-firmware/zmk/zephyr/include/zephyr/sys/slist.h"
	.loc 9 268 1 view .LVU478
	.loc 9 268 41 view .LVU479
.LBB498:
.LBI498:
	.loc 9 238 28 view .LVU480
.LBB499:
	.loc 9 240 2 view .LVU481
.LBE499:
.LBE498:
.LBE497:
	.loc 1 283 1 is_stmt 0 view .LVU482
	push	{r4, lr}
	.cfi_def_cfa_offset 8
	.cfi_offset 4, -8
	.cfi_offset 14, -4
	.loc 1 283 1 view .LVU483
	mov	r4, r1
.LBB502:
.LBB501:
.LBB500:
	.loc 9 240 13 view .LVU484
	ldr	r1, [r1]
.LVL106:
	.loc 9 240 13 view .LVU485
.LBE500:
.LBE501:
.LBE502:
	.loc 1 289 5 view .LVU486
	cbz	r1, .L59
	.loc 1 304 2 is_stmt 1 view .LVU487
	.loc 1 304 8 is_stmt 0 view .LVU488
	ldr	r2, [r4, #4]
	bl	k_queue_append_list
.LVL107:
	.loc 1 305 2 is_stmt 1 view .LVU489
	.loc 1 305 5 is_stmt 0 view .LVU490
	cbnz	r0, .L57
	.loc 1 310 2 is_stmt 1 view .LVU491
.LVL108:
.LBB503:
.LBI503:
	.loc 9 199 20 view .LVU492
.LBB504:
	.loc 9 201 2 view .LVU493
	.loc 9 202 13 is_stmt 0 view .LVU494
	strd	r0, r0, [r4]
.LVL109:
	.loc 9 202 13 view .LVU495
.LBE504:
.LBE503:
	.loc 1 312 2 is_stmt 1 view .LVU496
	.loc 1 312 7 view .LVU497
	.loc 1 312 5 view .LVU498
	.loc 1 314 2 view .LVU499
.L57:
	.loc 1 315 1 is_stmt 0 view .LVU500
	pop	{r4, pc}
.LVL110:
.L59:
	.loc 1 292 10 view .LVU501
	mvn	r0, #21
.LVL111:
	.loc 1 292 10 view .LVU502
	b	.L57
	.cfi_endproc
.LFE507:
	.size	k_queue_merge_slist, .-k_queue_merge_slist
	.section	.text.z_impl_k_queue_get,"ax",%progbits
	.align	1
	.global	z_impl_k_queue_get
	.syntax unified
	.thumb
	.thumb_func
	.type	z_impl_k_queue_get, %function
z_impl_k_queue_get:
.LVL112:
.LFB508:
	.loc 1 318 1 is_stmt 1 view -0
	.cfi_startproc
	@ args = 0, pretend = 0, frame = 0
	@ frame_needed = 0, uses_anonymous_args = 0
	.loc 1 319 2 view .LVU504
.LBB532:
.LBI532:
	.loc 2 160 63 view .LVU505
.LBB533:
	.loc 2 162 2 view .LVU506
	.loc 2 163 2 view .LVU507
	.loc 2 169 2 view .LVU508
.LBB534:
.LBI534:
	.loc 3 42 59 view .LVU509
.LBB535:
	.loc 3 44 2 view .LVU510
	.loc 3 57 2 view .LVU511
	.loc 3 59 2 view .LVU512
.LBE535:
.LBE534:
.LBE533:
.LBE532:
	.loc 1 318 1 is_stmt 0 view .LVU513
	push	{r0, r1, r2, r4, r5, lr}
	.cfi_def_cfa_offset 24
	.cfi_offset 4, -12
	.cfi_offset 5, -8
	.cfi_offset 14, -4
.LVL113:
	.loc 1 318 1 view .LVU514
	mov	r1, r2
.LBB539:
.LBB538:
.LBB537:
.LBB536:
	.loc 3 59 2 view .LVU515
	.syntax unified
@ 59 "/home/g/mise-work/zmk-firmware/zmk/zephyr/include/zephyr/arch/arm/asm_inline_gcc.h" 1
	mov r2, #32;mrs r5, BASEPRI;msr BASEPRI_MAX, r2;isb;
@ 0 "" 2
.LVL114:
	.loc 3 88 2 is_stmt 1 view .LVU516
	.loc 3 88 2 is_stmt 0 view .LVU517
	.thumb
	.syntax unified
.LBE536:
.LBE537:
	.loc 2 171 2 is_stmt 1 view .LVU518
	.loc 2 177 2 view .LVU519
	.loc 2 179 2 view .LVU520
	.loc 2 179 2 is_stmt 0 view .LVU521
.LBE538:
.LBE539:
	.loc 1 320 2 is_stmt 1 view .LVU522
	.loc 1 322 2 view .LVU523
	.loc 1 322 7 view .LVU524
	.loc 1 322 5 view .LVU525
	.loc 1 324 2 view .LVU526
.LBB540:
.LBI540:
	.loc 4 335 1 view .LVU527
	.loc 4 335 43 view .LVU528
.LBB541:
.LBI541:
	.loc 4 255 29 view .LVU529
.LBB542:
	.loc 4 257 2 view .LVU530
	.loc 4 257 13 is_stmt 0 view .LVU531
	ldr	r4, [r0]
.LVL115:
	.loc 4 257 13 view .LVU532
.LBE542:
.LBE541:
.LBE540:
	.loc 1 324 5 view .LVU533
	cbz	r4, .L61
.LBB543:
	.loc 1 325 3 is_stmt 1 view .LVU534
	.loc 1 327 3 view .LVU535
.LVL116:
.LBB544:
.LBI544:
	.loc 4 446 30 view .LVU536
.LBB545:
	.loc 4 446 77 view .LVU537
	.loc 4 446 126 view .LVU538
.LBB546:
.LBI546:
	.loc 4 223 29 view .LVU539
.LBB547:
	.loc 4 225 2 view .LVU540
	.loc 4 225 47 is_stmt 0 view .LVU541
	ldr	r3, [r4]
.LBE547:
.LBE546:
	.loc 4 446 180 view .LVU542
	ldr	r2, [r0, #4]
.LBB549:
.LBB548:
	.loc 4 225 47 view .LVU543
	bic	r3, r3, #3
.LVL117:
	.loc 4 225 47 view .LVU544
.LBE548:
.LBE549:
.LBB550:
.LBI550:
	.loc 4 238 20 is_stmt 1 view .LVU545
.LBB551:
	.loc 4 240 2 view .LVU546
.LBE551:
.LBE550:
	.loc 4 446 180 is_stmt 0 view .LVU547
	cmp	r4, r2
.LBB553:
.LBB552:
	.loc 4 240 13 view .LVU548
	str	r3, [r0]
.LVL118:
	.loc 4 240 13 view .LVU549
.LBE552:
.LBE553:
	.loc 4 446 177 is_stmt 1 view .LVU550
.LBB554:
.LBI554:
	.loc 4 267 29 view .LVU551
.LBB555:
	.loc 4 269 2 view .LVU552
	.loc 4 269 2 is_stmt 0 view .LVU553
.LBE555:
.LBE554:
	.loc 4 446 219 is_stmt 1 view .LVU554
.LBB556:
.LBI556:
	.loc 4 243 20 view .LVU555
.LBB557:
	.loc 4 245 2 view .LVU556
	.loc 4 245 13 is_stmt 0 view .LVU557
	it	eq
	streq	r3, [r0, #4]
.LVL119:
	.loc 4 245 13 view .LVU558
.LBE557:
.LBE556:
	.loc 4 446 274 is_stmt 1 view .LVU559
	.loc 4 446 274 is_stmt 0 view .LVU560
.LBE545:
.LBE544:
	.loc 1 328 3 is_stmt 1 view .LVU561
	.loc 1 328 10 is_stmt 0 view .LVU562
	movs	r1, #1
	mov	r0, r4
.LVL120:
	.loc 1 328 10 view .LVU563
	bl	z_queue_node_peek
.LVL121:
	mov	r4, r0
.LVL122:
	.loc 1 329 3 is_stmt 1 view .LVU564
.LBB558:
.LBI558:
	.loc 2 235 51 view .LVU565
	.loc 2 238 2 view .LVU566
	.loc 2 261 2 view .LVU567
.LBB559:
.LBI559:
	.loc 3 96 51 view .LVU568
.LBB560:
	.loc 3 107 2 view .LVU569
.L67:
	.loc 3 107 2 is_stmt 0 view .LVU570
.LBE560:
.LBE559:
.LBE558:
.LBE543:
.LBB561:
	.loc 1 339 3 is_stmt 1 view .LVU571
.LBB562:
.LBI562:
	.loc 2 235 51 view .LVU572
	.loc 2 238 2 view .LVU573
	.loc 2 261 2 view .LVU574
.LBB563:
.LBI563:
	.loc 3 96 51 view .LVU575
.LBB564:
	.loc 3 107 2 view .LVU576
	.syntax unified
@ 107 "/home/g/mise-work/zmk-firmware/zmk/zephyr/include/zephyr/arch/arm/asm_inline_gcc.h" 1
	msr BASEPRI, r5;isb;
@ 0 "" 2
.LVL123:
	.loc 3 107 2 is_stmt 0 view .LVU577
	.thumb
	.syntax unified
.LBE564:
.LBE563:
.LBE562:
	.loc 1 341 3 is_stmt 1 view .LVU578
	.loc 1 341 8 view .LVU579
	.loc 1 341 6 view .LVU580
	.loc 1 343 3 view .LVU581
.L60:
	.loc 1 343 3 is_stmt 0 view .LVU582
.LBE561:
	.loc 1 352 1 view .LVU583
	mov	r0, r4
	add	sp, sp, #12
	.cfi_remember_state
	.cfi_def_cfa_offset 12
	@ sp needed
	pop	{r4, r5, pc}
.LVL124:
.L61:
	.cfi_restore_state
	.loc 1 336 2 is_stmt 1 view .LVU584
	.loc 1 336 7 view .LVU585
	.loc 1 336 5 view .LVU586
	.loc 1 338 2 view .LVU587
.LBB565:
	.loc 1 338 5 is_stmt 0 view .LVU588
	orrs	r2, r1, r3
	beq	.L67
.LBE565:
	.loc 1 346 2 is_stmt 1 view .LVU589
	.loc 1 319 25 is_stmt 0 view .LVU590
	add	r2, r0, #8
	.loc 1 346 12 view .LVU591
	strd	r1, r3, [sp]
	mov	r0, r2
.LVL125:
	.loc 1 346 12 view .LVU592
	mov	r1, r5
.LVL126:
	.loc 1 346 12 view .LVU593
	bl	z_pend_curr
.LVL127:
	.loc 1 348 2 is_stmt 1 view .LVU594
	.loc 1 348 7 view .LVU595
	.loc 1 348 5 view .LVU596
	.loc 1 351 2 view .LVU597
	.loc 1 351 26 is_stmt 0 view .LVU598
	cmp	r0, #0
	bne	.L60
	.loc 1 351 43 discriminator 1 view .LVU599
	ldr	r3, .L68
	.loc 1 351 26 discriminator 1 view .LVU600
	ldr	r3, [r3, #8]
	ldr	r4, [r3, #20]
.LVL128:
	.loc 1 351 26 discriminator 1 view .LVU601
	b	.L60
.L69:
	.align	2
.L68:
	.word	_kernel
	.cfi_endproc
.LFE508:
	.size	z_impl_k_queue_get, .-z_impl_k_queue_get
	.section	.text.k_queue_remove,"ax",%progbits
	.align	1
	.global	k_queue_remove
	.syntax unified
	.thumb
	.thumb_func
	.type	k_queue_remove, %function
k_queue_remove:
.LVL129:
.LFB509:
	.loc 1 355 1 is_stmt 1 view -0
	.cfi_startproc
	@ args = 0, pretend = 0, frame = 0
	@ frame_needed = 0, uses_anonymous_args = 0
	.loc 1 356 2 view .LVU603
	.loc 1 356 7 view .LVU604
	.loc 1 356 5 view .LVU605
	.loc 1 358 1 view .LVU606
.LBB599:
.LBI599:
	.loc 4 490 1 view .LVU607
.LBB600:
	.loc 4 490 70 view .LVU608
	.loc 4 490 3 view .LVU609
	.loc 4 490 23 view .LVU610
.LBB601:
.LBI601:
	.loc 4 255 29 view .LVU611
.LBB602:
	.loc 4 257 2 view .LVU612
.LBE602:
.LBE601:
.LBE600:
.LBE599:
	.loc 1 355 1 is_stmt 0 view .LVU613
	push	{r4, lr}
	.cfi_def_cfa_offset 8
	.cfi_offset 4, -8
	.cfi_offset 14, -4
.LBB643:
.LBB641:
.LBB604:
.LBB603:
	.loc 4 257 13 view .LVU614
	ldr	r3, [r0]
.LVL130:
	.loc 4 257 13 view .LVU615
.LBE603:
.LBE604:
	.loc 4 490 84 view .LVU616
	movs	r2, #0
.LVL131:
.L71:
	.loc 4 490 68 is_stmt 1 view .LVU617
	cbnz	r3, .L78
	.loc 4 490 1 is_stmt 0 view .LVU618
	mov	r0, r3
.LVL132:
	.loc 4 490 1 view .LVU619
	b	.L77
.LVL133:
.L78:
	.loc 4 490 40 is_stmt 1 view .LVU620
	.loc 4 490 43 is_stmt 0 view .LVU621
	cmp	r1, r3
	bne	.L72
	.loc 4 490 60 is_stmt 1 view .LVU622
.LVL134:
.LBB605:
.LBI605:
	.loc 4 475 20 view .LVU623
.LBB606:
	.loc 4 475 105 view .LVU624
.LBB607:
.LBB608:
	.loc 4 225 47 is_stmt 0 view .LVU625
	ldr	r4, [r1]
	bic	r4, r4, #3
.LBE608:
.LBE607:
	.loc 4 475 108 view .LVU626
	cbnz	r2, .L73
	.loc 4 475 5 is_stmt 1 view .LVU627
.LVL135:
.LBB610:
.LBI607:
	.loc 4 223 29 view .LVU628
.LBB609:
	.loc 4 225 2 view .LVU629
	.loc 4 225 2 is_stmt 0 view .LVU630
.LBE609:
.LBE610:
.LBB611:
.LBI611:
	.loc 4 238 20 is_stmt 1 view .LVU631
.LBB612:
	.loc 4 240 2 view .LVU632
.LBE612:
.LBE611:
	.loc 4 475 59 is_stmt 0 view .LVU633
	ldr	r3, [r0, #4]
.LVL136:
.LBB614:
.LBB613:
	.loc 4 240 13 view .LVU634
	str	r4, [r0]
.LVL137:
	.loc 4 240 13 view .LVU635
.LBE613:
.LBE614:
	.loc 4 475 56 is_stmt 1 view .LVU636
.LBB615:
.LBI615:
	.loc 4 267 29 view .LVU637
.LBB616:
	.loc 4 269 2 view .LVU638
	.loc 4 269 2 is_stmt 0 view .LVU639
.LBE616:
.LBE615:
	.loc 4 475 59 view .LVU640
	cmp	r1, r3
	bne	.L75
	.loc 4 475 98 is_stmt 1 view .LVU641
.LVL138:
.LBB617:
.LBI617:
	.loc 4 243 20 view .LVU642
.LBB618:
	.loc 4 245 2 view .LVU643
	.loc 4 245 13 is_stmt 0 view .LVU644
	str	r4, [r0, #4]
.LVL139:
.L75:
	.loc 4 245 13 view .LVU645
.LBE618:
.LBE617:
	.loc 4 475 300 is_stmt 1 view .LVU646
.LBB619:
.LBI619:
	.loc 4 230 20 view .LVU647
.LBB620:
	.loc 4 233 2 view .LVU648
.LBB621:
.LBI621:
	.loc 4 282 23 view .LVU649
.LBB622:
	.loc 4 284 2 view .LVU650
	.loc 4 284 2 is_stmt 0 view .LVU651
.LBE622:
.LBE621:
	.loc 4 235 2 is_stmt 1 view .LVU652
.LBB624:
.LBB623:
	.loc 4 284 30 is_stmt 0 view .LVU653
	ldr	r3, [r1]
.LBE623:
.LBE624:
	.loc 4 235 37 view .LVU654
	and	r3, r3, #3
	str	r3, [r1]
.LVL140:
	.loc 4 235 37 view .LVU655
.LBE620:
.LBE619:
.LBE606:
.LBE605:
	.loc 4 490 1 view .LVU656
	movs	r0, #1
.LVL141:
.L77:
	.loc 4 490 1 view .LVU657
.LBE641:
.LBE643:
	.loc 1 360 2 is_stmt 1 view .LVU658
	.loc 1 360 7 view .LVU659
	.loc 1 360 5 view .LVU660
	.loc 1 362 2 view .LVU661
	.loc 1 363 1 is_stmt 0 view .LVU662
	pop	{r4, pc}
.LVL142:
.L73:
.LBB644:
.LBB642:
.LBB636:
.LBB635:
	.loc 4 475 162 is_stmt 1 view .LVU663
.LBB625:
.LBI625:
	.loc 4 230 20 view .LVU664
.LBB626:
	.loc 4 233 2 view .LVU665
.LBB627:
.LBI627:
	.loc 4 282 23 view .LVU666
.LBB628:
	.loc 4 284 2 view .LVU667
	.loc 4 284 2 is_stmt 0 view .LVU668
.LBE628:
.LBE627:
	.loc 4 235 2 is_stmt 1 view .LVU669
.LBB630:
.LBB629:
	.loc 4 284 30 is_stmt 0 view .LVU670
	ldr	r3, [r2]
.LVL143:
	.loc 4 284 30 view .LVU671
.LBE629:
.LBE630:
	.loc 4 235 37 view .LVU672
	and	r3, r3, #3
	orrs	r3, r3, r4
	.loc 4 235 25 view .LVU673
	str	r3, [r2]
.LVL144:
	.loc 4 235 25 view .LVU674
.LBE626:
.LBE625:
	.loc 4 475 218 is_stmt 1 view .LVU675
.LBB631:
.LBI631:
	.loc 4 267 29 view .LVU676
.LBB632:
	.loc 4 269 2 view .LVU677
	.loc 4 269 2 is_stmt 0 view .LVU678
.LBE632:
.LBE631:
	.loc 4 475 221 view .LVU679
	ldr	r3, [r0, #4]
	cmp	r1, r3
	.loc 4 475 260 is_stmt 1 view .LVU680
.LVL145:
.LBB633:
.LBI633:
	.loc 4 243 20 view .LVU681
.LBB634:
	.loc 4 245 2 view .LVU682
	.loc 4 245 13 is_stmt 0 view .LVU683
	it	eq
	streq	r2, [r0, #4]
	.loc 4 246 1 view .LVU684
	b	.L75
.LVL146:
.L72:
	.loc 4 246 1 view .LVU685
.LBE634:
.LBE633:
.LBE635:
.LBE636:
	.loc 4 490 5 is_stmt 1 view .LVU686
	.loc 4 490 8 view .LVU687
.LBB637:
.LBI637:
	.loc 4 359 30 view .LVU688
	.loc 4 359 73 view .LVU689
.LBB638:
.LBI638:
	.loc 4 348 30 view .LVU690
	.loc 4 348 82 view .LVU691
.LBB639:
.LBI639:
	.loc 4 223 29 view .LVU692
.LBB640:
	.loc 4 225 2 view .LVU693
	.loc 4 225 47 is_stmt 0 view .LVU694
	ldr	r4, [r3]
.LVL147:
	.loc 4 225 9 view .LVU695
	mov	r2, r3
.LBE640:
.LBE639:
.LBE638:
.LBE637:
	.loc 4 490 10 view .LVU696
	bic	r3, r4, #3
.LVL148:
	.loc 4 490 10 view .LVU697
	b	.L71
.LBE642:
.LBE644:
	.cfi_endproc
.LFE509:
	.size	k_queue_remove, .-k_queue_remove
	.section	.text.k_queue_unique_append,"ax",%progbits
	.align	1
	.global	k_queue_unique_append
	.syntax unified
	.thumb
	.thumb_func
	.type	k_queue_unique_append, %function
k_queue_unique_append:
.LVL149:
.LFB510:
	.loc 1 366 1 is_stmt 1 view -0
	.cfi_startproc
	@ args = 0, pretend = 0, frame = 0
	@ frame_needed = 0, uses_anonymous_args = 0
	.loc 1 367 2 view .LVU699
	.loc 1 367 7 view .LVU700
	.loc 1 367 5 view .LVU701
	.loc 1 369 2 view .LVU702
	.loc 1 371 2 view .LVU703
.LBB652:
.LBI652:
	.loc 4 255 29 view .LVU704
.LBB653:
	.loc 4 257 2 view .LVU705
.LBE653:
.LBE652:
	.loc 1 366 1 is_stmt 0 view .LVU706
	push	{r3, lr}
	.cfi_def_cfa_offset 8
	.cfi_offset 3, -8
	.cfi_offset 14, -4
.LBB655:
.LBB654:
	.loc 4 257 13 view .LVU707
	ldr	r3, [r0]
.LVL150:
.L80:
	.loc 4 257 13 view .LVU708
.LBE654:
.LBE655:
	.loc 1 371 57 is_stmt 1 discriminator 1 view .LVU709
	cbnz	r3, .L82
	.loc 1 379 2 view .LVU710
	bl	k_queue_append
.LVL151:
	.loc 1 381 2 view .LVU711
	.loc 1 381 7 view .LVU712
	.loc 1 381 5 view .LVU713
	.loc 1 383 2 view .LVU714
	.loc 1 383 8 is_stmt 0 view .LVU715
	movs	r0, #1
.L81:
	.loc 1 384 1 view .LVU716
	pop	{r3, pc}
.LVL152:
.L82:
	.loc 1 372 3 is_stmt 1 view .LVU717
	.loc 1 372 6 is_stmt 0 view .LVU718
	cmp	r3, r1
	beq	.L83
	.loc 1 371 8 is_stmt 1 view .LVU719
.LVL153:
.LBB656:
.LBI656:
	.loc 4 359 30 view .LVU720
	.loc 4 359 73 view .LVU721
.LBB657:
.LBI657:
	.loc 4 348 30 view .LVU722
	.loc 4 348 82 view .LVU723
.LBB658:
.LBI658:
	.loc 4 223 29 view .LVU724
.LBB659:
	.loc 4 225 2 view .LVU725
	.loc 4 225 47 is_stmt 0 view .LVU726
	ldr	r3, [r3]
.LVL154:
	.loc 4 225 47 view .LVU727
	bic	r3, r3, #3
.LVL155:
	.loc 4 225 47 view .LVU728
	b	.L80
.L83:
	.loc 4 225 47 view .LVU729
.LBE659:
.LBE658:
.LBE657:
.LBE656:
	.loc 1 375 10 view .LVU730
	movs	r0, #0
.LVL156:
	.loc 1 375 10 view .LVU731
	b	.L81
	.cfi_endproc
.LFE510:
	.size	k_queue_unique_append, .-k_queue_unique_append
	.section	.text.z_impl_k_queue_peek_head,"ax",%progbits
	.align	1
	.global	z_impl_k_queue_peek_head
	.syntax unified
	.thumb
	.thumb_func
	.type	z_impl_k_queue_peek_head, %function
z_impl_k_queue_peek_head:
.LVL157:
.LFB511:
	.loc 1 387 1 is_stmt 1 view -0
	.cfi_startproc
	@ args = 0, pretend = 0, frame = 0
	@ frame_needed = 0, uses_anonymous_args = 0
	@ link register save eliminated.
	.loc 1 388 2 view .LVU733
.LBB660:
.LBI660:
	.loc 4 255 29 view .LVU734
.LBB661:
	.loc 4 257 2 view .LVU735
	.loc 4 257 2 is_stmt 0 view .LVU736
.LBE661:
.LBE660:
	.loc 1 388 14 view .LVU737
	ldr	r0, [r0]
.LVL158:
	.loc 1 388 14 view .LVU738
	movs	r1, #0
	b	z_queue_node_peek
.LVL159:
	.cfi_endproc
.LFE511:
	.size	z_impl_k_queue_peek_head, .-z_impl_k_queue_peek_head
	.section	.text.z_impl_k_queue_peek_tail,"ax",%progbits
	.align	1
	.global	z_impl_k_queue_peek_tail
	.syntax unified
	.thumb
	.thumb_func
	.type	z_impl_k_queue_peek_tail, %function
z_impl_k_queue_peek_tail:
.LVL160:
.LFB512:
	.loc 1 396 1 is_stmt 1 view -0
	.cfi_startproc
	@ args = 0, pretend = 0, frame = 0
	@ frame_needed = 0, uses_anonymous_args = 0
	@ link register save eliminated.
	.loc 1 397 2 view .LVU740
.LBB662:
.LBI662:
	.loc 4 267 29 view .LVU741
.LBB663:
	.loc 4 269 2 view .LVU742
	.loc 4 269 2 is_stmt 0 view .LVU743
.LBE663:
.LBE662:
	.loc 1 397 14 view .LVU744
	ldr	r0, [r0, #4]
.LVL161:
	.loc 1 397 14 view .LVU745
	movs	r1, #0
	b	z_queue_node_peek
.LVL162:
	.cfi_endproc
.LFE512:
	.size	z_impl_k_queue_peek_tail, .-z_impl_k_queue_peek_tail
	.text
.Letext0:
	.file 10 "/home/g/zephyr-sdk-0.16.3/arm-zephyr-eabi/lib/gcc/arm-zephyr-eabi/12.2.0/include/stddef.h"
	.file 11 "/home/g/zephyr-sdk-0.16.3/arm-zephyr-eabi/picolibc/include/machine/_default_types.h"
	.file 12 "/home/g/zephyr-sdk-0.16.3/arm-zephyr-eabi/picolibc/include/sys/_stdint.h"
	.file 13 "/home/g/mise-work/zmk-firmware/zmk/zephyr/include/zephyr/sys/rb.h"
	.file 14 "/home/g/mise-work/zmk-firmware/zmk/zephyr/include/zephyr/sys/sys_heap.h"
	.file 15 "/home/g/mise-work/zmk-firmware/zmk/zephyr/include/zephyr/kernel_structs.h"
	.file 16 "/home/g/mise-work/zmk-firmware/zmk/zephyr/include/zephyr/kernel/thread.h"
	.file 17 "/home/g/mise-work/zmk-firmware/zmk/zephyr/include/zephyr/arch/arm/thread.h"
	.file 18 "/home/g/mise-work/zmk-firmware/zmk/zephyr/include/zephyr/sys_clock.h"
	.file 19 "/home/g/mise-work/zmk-firmware/zmk/zephyr/include/zephyr/arch/structs.h"
	.file 20 "/home/g/mise-work/zmk-firmware/zmk/zephyr/include/zephyr/kernel.h"
	.file 21 "/home/g/mise-work/zmk-firmware/zmk/zephyr/kernel/include/ksched.h"
	.file 22 "/home/g/mise-work/zmk-firmware/zmk/zephyr/include/zephyr/sys/kobject.h"