	.cpu cortex-m4
	.arch armv7e-m
	.fpu fpv4-sp-d16
	.eabi_attribute 27, 1
	.eabi_attribute 28, 1
	.eabi_attribute 20, 1
	.eabi_attribute 21, 1
	.eabi_attribute 23, 3
	.eabi_attribute 24, 1
	.eabi_attribute 25, 1
	.eabi_attribute 26, 1
	.eabi_attribute 30, 4
	.eabi_attribute 34, 1
	.eabi_attribute 38, 1
	.eabi_attribute 18, 4
	.file	"sem.c"
	.text
.Ltext0:
	.cfi_sections	.debug_frame
	.file 1 "/home/g/mise-work/zmk-firmware/zmk/zephyr/kernel/sem.c"
	.section	.text.z_impl_k_sem_init,"ax",%progbits
	.align	1
	.global	z_impl_k_sem_init
	.syntax unified
	.thumb
	.thumb_func
	.type	z_impl_k_sem_init, %function
z_impl_k_sem_init:
.LVL0:
.LFB495:
	.loc 1 47 1 view -0
	.cfi_startproc
	@ args = 0, pretend = 0, frame = 0
	@ frame_needed = 0, uses_anonymous_args = 0
	@ link register save eliminated.
	.loc 1 51 2 view .LVU1
	.loc 1 51 5 is_stmt 0 view .LVU2
	cbz	r2, .L4
	.loc 1 51 1 discriminator 1 view .LVU3
	cmp	r2, r1
	bcc	.L4
	.loc 1 57 2 is_stmt 1 view .LVU4
	.loc 1 64 2 is_stmt 0 view .LVU5
	add	r3, r0, #16
	.loc 1 58 13 view .LVU6
	strd	r1, r2, [r0, #8]
	.loc 1 60 2 is_stmt 1 view .LVU7
	.loc 1 60 7 view .LVU8
	.loc 1 60 5 view .LVU9
	.loc 1 62 2 view .LVU10
.LVL1:
.LBB61:
.LBI61:
	.file 2 "/home/g/mise-work/zmk-firmware/zmk/zephyr/kernel/include/wait_q.h"
	.loc 2 47 20 view .LVU11
.LBB62:
	.loc 2 49 2 view .LVU12
.LBB63:
.LBI63:
	.file 3 "/home/g/mise-work/zmk-firmware/zmk/zephyr/include/zephyr/sys/dlist.h"
	.loc 3 203 20 view .LVU13
.LBB64:
	.loc 3 205 2 view .LVU14
	.loc 3 206 13 is_stmt 0 view .LVU15
	strd	r0, r0, [r0]
.LVL2:
	.loc 3 206 13 view .LVU16
.LBE64:
.LBE63:
.LBE62:
.LBE61:
	.loc 1 64 2 is_stmt 1 view .LVU17
.LBB65:
.LBI65:
	.loc 3 203 20 view .LVU18
.LBB66:
	.loc 3 205 2 view .LVU19
	.loc 3 206 13 is_stmt 0 view .LVU20
	strd	r3, r3, [r0, #16]
.LVL3:
	.loc 3 206 13 view .LVU21
.LBE66:
.LBE65:
	.loc 1 66 2 is_stmt 1 view .LVU22
	.loc 1 72 2 view .LVU23
	.loc 1 72 9 is_stmt 0 view .LVU24
	movs	r0, #0
.LVL4:
	.loc 1 72 9 view .LVU25
	bx	lr
.LVL5:
.L4:
	.loc 1 54 10 view .LVU26
	mvn	r0, #21
.LVL6:
	.loc 1 73 1 view .LVU27
	bx	lr
	.cfi_endproc
.LFE495:
	.size	z_impl_k_sem_init, .-z_impl_k_sem_init
	.section	.text.z_impl_k_sem_give,"ax",%progbits
	.align	1
	.global	z_impl_k_sem_give
	.syntax unified
	.thumb
	.thumb_func
	.type	z_impl_k_sem_give, %function
z_impl_k_sem_give:
.LVL7:
.LFB497:
	.loc 1 97 1 is_stmt 1 view -0
	.cfi_startproc
	@ args = 0, pretend = 0, frame = 0
	@ frame_needed = 0, uses_anonymous_args = 0
	.loc 1 98 2 view .LVU29
.LBB67:
.LBI67:
	.file 4 "/home/g/mise-work/zmk-firmware/zmk/zephyr/include/zephyr/spinlock.h"
	.loc 4 160 63 view .LVU30
.LBB68:
	.loc 4 162 2 view .LVU31
	.loc 4 163 2 view .LVU32
	.loc 4 169 2 view .LVU33
.LBB69:
.LBI69:
	.file 5 "/home/g/mise-work/zmk-firmware/zmk/zephyr/include/zephyr/arch/arm/asm_inline_gcc.h"
	.loc 5 42 59 view .LVU34
.LBB70:
	.loc 5 44 2 view .LVU35
	.loc 5 57 2 view .LVU36
	.loc 5 59 2 view .LVU37
.LBE70:
.LBE69:
.LBE68:
.LBE67:
	.loc 1 97 1 is_stmt 0 view .LVU38
	push	{r3, r4, r5, lr}
	.cfi_def_cfa_offset 16
	.cfi_offset 3, -16
	.cfi_offset 4, -12
	.cfi_offset 5, -8
	.cfi_offset 14, -4
	.loc 1 97 1 view .LVU39
	mov	r4, r0
.LBB74:
.LBB73:
.LBB72:
.LBB71:
	.loc 5 59 2 view .LVU40
	.syntax unified
@ 59 "/home/g/mise-work/zmk-firmware/zmk/zephyr/include/zephyr/arch/arm/asm_inline_gcc.h" 1
	mov r3, #32;mrs r5, BASEPRI;msr BASEPRI_MAX, r3;isb;
@ 0 "" 2
.LVL8:
	.loc 5 88 2 is_stmt 1 view .LVU41
	.loc 5 88 2 is_stmt 0 view .LVU42
	.thumb
	.syntax unified
.LBE71:
.LBE72:
	.loc 4 171 2 is_stmt 1 view .LVU43
	.loc 4 177 2 view .LVU44
	.loc 4 179 2 view .LVU45
	.loc 4 179 2 is_stmt 0 view .LVU46
.LBE73:
.LBE74:
	.loc 1 99 2 is_stmt 1 view .LVU47
	.loc 1 100 1 view .LVU48
	.loc 1 102 2 view .LVU49
	.loc 1 102 7 view .LVU50
	.loc 1 102 5 view .LVU51
	.loc 1 104 2 view .LVU52
	.loc 1 104 11 is_stmt 0 view .LVU53
	bl	z_unpend_first_thread
.LVL9:
	.loc 1 106 2 is_stmt 1 view .LVU54
	.loc 1 106 5 is_stmt 0 view .LVU55
	cbz	r0, .L6
	.loc 1 107 3 is_stmt 1 view .LVU56
.LVL10:
.LBB75:
.LBI75:
	.file 6 "/home/g/mise-work/zmk-firmware/zmk/zephyr/arch/arm/include/cortex_m/kernel_arch_func.h"
	.loc 6 59 1 view .LVU57
.LBB76:
	.loc 6 61 2 view .LVU58
	.loc 6 61 33 is_stmt 0 view .LVU59
	movs	r2, #0
	str	r2, [r0, #124]
.LVL11:
	.loc 6 61 33 view .LVU60
.LBE76:
.LBE75:
	.loc 1 108 3 is_stmt 1 view .LVU61
	bl	z_ready_thread
.LVL12:
.L7:
	.loc 1 114 2 view .LVU62
	.loc 1 115 3 view .LVU63
	mov	r1, r5
	ldr	r0, .L8
	.loc 1 121 1 is_stmt 0 view .LVU64
	pop	{r3, r4, r5, lr}
	.cfi_remember_state
	.cfi_restore 14
	.cfi_restore 5
	.cfi_restore 4
	.cfi_restore 3
	.cfi_def_cfa_offset 0
.LVL13:
	.loc 1 115 3 view .LVU65
	b	z_reschedule
.LVL14:
.L6:
	.cfi_restore_state
	.loc 1 110 3 is_stmt 1 view .LVU66
	.loc 1 110 49 is_stmt 0 view .LVU67
	ldrd	r3, r2, [r4, #8]
	.loc 1 110 14 view .LVU68
	cmp	r2, r3
	it	ne
	addne	r3, r3, #1
	str	r3, [r4, #8]
	.loc 1 111 3 is_stmt 1 view .LVU69
.LVL15:
.LBB77:
.LBI77:
	.loc 1 85 19 view .LVU70
.LBB78:
	.loc 1 88 2 view .LVU71
	movs	r1, #2
	add	r0, r4, #16
.LVL16:
	.loc 1 88 2 is_stmt 0 view .LVU72
	bl	z_handle_obj_poll_events
.LVL17:
	.loc 1 89 2 is_stmt 1 view .LVU73
	.loc 1 89 2 is_stmt 0 view .LVU74
	b	.L7
.L9:
	.align	2
.L8:
	.word	lock
.LBE78:
.LBE77:
	.cfi_endproc
.LFE497:
	.size	z_impl_k_sem_give, .-z_impl_k_sem_give
	.section	.text.z_impl_k_sem_take,"ax",%progbits
	.align	1
	.global	z_impl_k_sem_take
	.syntax unified
	.thumb
	.thumb_func
	.type	z_impl_k_sem_take, %function
z_impl_k_sem_take:
.LVL18:
.LFB498:
	.loc 1 133 1 is_stmt 1 view -0
	.cfi_startproc
	@ args = 0, pretend = 0, frame = 0
	@ frame_needed = 0, uses_anonymous_args = 0
	.loc 1 134 2 view .LVU76
	.loc 1 136 4 view .LVU77
	.loc 1 137 43 view .LVU78
	.loc 1 139 2 view .LVU79
.LBB79:
.LBI79:
	.loc 4 160 63 view .LVU80
.LBB80:
	.loc 4 162 2 view .LVU81
	.loc 4 163 2 view .LVU82
	.loc 4 169 2 view .LVU83
.LBB81:
.LBI81:
	.loc 5 42 59 view .LVU84
.LBB82:
	.loc 5 44 2 view .LVU85
	.loc 5 57 2 view .LVU86
	.loc 5 59 2 view .LVU87
.LBE82:
.LBE81:
.LBE80:
.LBE79:
	.loc 1 133 1 is_stmt 0 view .LVU88
	push	{r0, r1, r4, lr}
	.cfi_def_cfa_offset 16
	.cfi_offset 4, -8
	.cfi_offset 14, -4
.LBB86:
.LBB85:
.LBB84:
.LBB83:
	.loc 5 59 2 view .LVU89
	.syntax unified
@ 59 "/home/g/mise-work/zmk-firmware/zmk/zephyr/include/zephyr/arch/arm/asm_inline_gcc.h" 1
	mov r4, #32;mrs r1, BASEPRI;msr BASEPRI_MAX, r4;isb;
@ 0 "" 2
.LVL19:
	.loc 5 88 2 is_stmt 1 view .LVU90
	.loc 5 88 2 is_stmt 0 view .LVU91
	.thumb
	.syntax unified
.LBE83:
.LBE84:
	.loc 4 171 2 is_stmt 1 view .LVU92
	.loc 4 177 2 view .LVU93
	.loc 4 179 2 view .LVU94
	.loc 4 179 2 is_stmt 0 view .LVU95
.LBE85:
.LBE86:
	.loc 1 141 2 is_stmt 1 view .LVU96
	.loc 1 141 7 view .LVU97
	.loc 1 141 5 view .LVU98
	.loc 1 143 2 view .LVU99
	.loc 1 143 12 is_stmt 0 view .LVU100
	ldr	r4, [r0, #8]
	.loc 1 143 5 view .LVU101
	cbz	r4, .L11
	.loc 1 144 3 is_stmt 1 view .LVU102
	.loc 1 144 13 is_stmt 0 view .LVU103
	subs	r4, r4, #1
	str	r4, [r0, #8]
	.loc 1 145 3 is_stmt 1 view .LVU104
.LVL20:
.LBB87:
.LBI87:
	.loc 4 235 51 view .LVU105
	.loc 4 238 2 view .LVU106
	.loc 4 261 2 view .LVU107
.LBB88:
.LBI88:
	.loc 5 96 51 view .LVU108
.LBB89:
	.loc 5 107 2 view .LVU109
	.syntax unified
@ 107 "/home/g/mise-work/zmk-firmware/zmk/zephyr/include/zephyr/arch/arm/asm_inline_gcc.h" 1
	msr BASEPRI, r1;isb;
@ 0 "" 2
.LVL21:
	.loc 5 107 2 is_stmt 0 view .LVU110
	.thumb
	.syntax unified
.LBE89:
.LBE88:
.LBE87:
	.loc 1 146 3 is_stmt 1 view .LVU111
	.loc 1 147 3 view .LVU112
	.loc 1 146 7 is_stmt 0 view .LVU113
	movs	r0, #0
.LVL22:
.L10:
	.loc 1 164 1 view .LVU114
	add	sp, sp, #8
	.cfi_remember_state
	.cfi_def_cfa_offset 8
	@ sp needed
	pop	{r4, pc}
.LVL23:
.L11:
	.cfi_restore_state
	.loc 1 150 2 is_stmt 1 view .LVU115
.LBB90:
	.loc 1 150 5 is_stmt 0 view .LVU116
	orrs	r4, r2, r3
	bne	.L13
	.loc 1 151 3 is_stmt 1 view .LVU117
.LVL24:
.LBB91:
.LBI91:
	.loc 4 235 51 view .LVU118
	.loc 4 238 2 view .LVU119
	.loc 4 261 2 view .LVU120
.LBB92:
.LBI92:
	.loc 5 96 51 view .LVU121
.LBB93:
	.loc 5 107 2 view .LVU122
	.syntax unified
@ 107 "/home/g/mise-work/zmk-firmware/zmk/zephyr/include/zephyr/arch/arm/asm_inline_gcc.h" 1
	msr BASEPRI, r1;isb;
@ 0 "" 2
.LVL25:
	.loc 5 107 2 is_stmt 0 view .LVU123
	.thumb
	.syntax unified
.LBE93:
.LBE92:
.LBE91:
	.loc 1 152 3 is_stmt 1 view .LVU124
	.loc 1 153 3 view .LVU125
	.loc 1 152 7 is_stmt 0 view .LVU126
	mvn	r0, #15
.LVL26:
	.loc 1 152 7 view .LVU127
	b	.L10
.LVL27:
.L13:
.L12:
	.loc 1 152 7 view .LVU128
.LBE90:
	.loc 1 156 2 is_stmt 1 view .LVU129
	.loc 1 156 7 view .LVU130
	.loc 1 156 5 view .LVU131
	.loc 1 158 2 view .LVU132
	.loc 1 158 8 is_stmt 0 view .LVU133
	strd	r2, r3, [sp]
	mov	r2, r0
.LVL28:
	.loc 1 158 8 view .LVU134
	ldr	r0, .L14
.LVL29:
	.loc 1 158 8 view .LVU135
	bl	z_pend_curr
.LVL30:
	.loc 1 161 2 is_stmt 1 view .LVU136
	.loc 1 161 7 view .LVU137
	.loc 1 161 5 view .LVU138
	.loc 1 163 2 view .LVU139
	.loc 1 163 9 is_stmt 0 view .LVU140
	b	.L10
.L15:
	.align	2
.L14:
	.word	lock
	.cfi_endproc
.LFE498:
	.size	z_impl_k_sem_take, .-z_impl_k_sem_take
	.section	.text.z_impl_k_sem_reset,"ax",%progbits
	.align	1
	.global	z_impl_k_sem_reset
	.syntax unified
	.thumb
	.thumb_func
	.type	z_impl_k_sem_reset, %function
z_impl_k_sem_reset:
.LVL31:
.LFB499:
	.loc 1 167 1 is_stmt 1 view -0
	.cfi_startproc
	@ args = 0, pretend = 0, frame = 0
	@ frame_needed = 0, uses_anonymous_args = 0
	.loc 1 168 2 view .LVU142
	.loc 1 169 2 view .LVU143
.LBB102:
.LBI102:
	.loc 4 160 63 view .LVU144
.LBB103:
	.loc 4 162 2 view .LVU145
	.loc 4 163 2 view .LVU146
	.loc 4 169 2 view .LVU147
.LBB104:
.LBI104:
	.loc 5 42 59 view .LVU148
.LBB105:
	.loc 5 44 2 view .LVU149
	.loc 5 57 2 view .LVU150
	.loc 5 59 2 view .LVU151
.LBE105:
.LBE104:
.LBE103:
.LBE102:
	.loc 1 167 1 is_stmt 0 view .LVU152
	push	{r4, r5, r6, lr}
	.cfi_def_cfa_offset 16
	.cfi_offset 4, -16
	.cfi_offset 5, -12
	.cfi_offset 6, -8
	.cfi_offset 14, -4
	.loc 1 167 1 view .LVU153
	mov	r4, r0
.LBB109:
.LBB108:
.LBB107:
.LBB106:
	.loc 5 59 2 view .LVU154
	.syntax unified
@ 59 "/home/g/mise-work/zmk-firmware/zmk/zephyr/include/zephyr/arch/arm/asm_inline_gcc.h" 1
	mov r3, #32;mrs r5, BASEPRI;msr BASEPRI_MAX, r3;isb;
@ 0 "" 2
.LVL32:
	.loc 5 88 2 is_stmt 1 view .LVU155
	.loc 5 88 2 is_stmt 0 view .LVU156
	.thumb
	.syntax unified
.LBE106:
.LBE107:
	.loc 4 171 2 is_stmt 1 view .LVU157
	.loc 4 177 2 view .LVU158
	.loc 4 179 2 view .LVU159
	.loc 4 179 2 is_stmt 0 view .LVU160
.LBE108:
.LBE109:
.LBB110:
.LBB111:
	.loc 6 61 33 view .LVU161
	mvn	r6, #10
.LVL33:
.L18:
	.loc 6 61 33 view .LVU162
.LBE111:
.LBE110:
	.loc 1 171 2 is_stmt 1 view .LVU163
	.loc 1 172 3 view .LVU164
	.loc 1 172 12 is_stmt 0 view .LVU165
	mov	r0, r4
	bl	z_unpend_first_thread
.LVL34:
	.loc 1 173 3 is_stmt 1 view .LVU166
	.loc 1 173 6 is_stmt 0 view .LVU167
	cbz	r0, .L17
	.loc 1 176 3 is_stmt 1 view .LVU168
.LVL35:
.LBB113:
.LBI110:
	.loc 6 59 1 view .LVU169
.LBB112:
	.loc 6 61 2 view .LVU170
	.loc 6 61 33 is_stmt 0 view .LVU171
	str	r6, [r0, #124]
.LVL36:
	.loc 6 61 33 view .LVU172
.LBE112:
.LBE113:
	.loc 1 177 3 is_stmt 1 view .LVU173
	bl	z_ready_thread
.LVL37:
	.loc 1 171 8 view .LVU174
	.loc 1 172 10 is_stmt 0 view .LVU175
	b	.L18
.LVL38:
.L17:
	.loc 1 179 2 is_stmt 1 view .LVU176
	.loc 1 179 13 is_stmt 0 view .LVU177
	str	r0, [r4, #8]
	.loc 1 181 2 is_stmt 1 view .LVU178
	.loc 1 181 7 view .LVU179
	.loc 1 181 5 view .LVU180
	.loc 1 183 2 view .LVU181
.LVL39:
.LBB114:
.LBI114:
	.loc 1 85 19 view .LVU182
.LBB115:
	.loc 1 88 2 view .LVU183
	movs	r1, #2
	add	r0, r4, #16
.LVL40:
	.loc 1 88 2 is_stmt 0 view .LVU184
	bl	z_handle_obj_poll_events
.LVL41:
	.loc 1 89 2 is_stmt 1 view .LVU185
	.loc 1 89 2 is_stmt 0 view .LVU186
.LBE115:
.LBE114:
	.loc 1 185 2 is_stmt 1 view .LVU187
	mov	r1, r5
	ldr	r0, .L19
	.loc 1 186 1 is_stmt 0 view .LVU188
	pop	{r4, r5, r6, lr}
	.cfi_restore 14
	.cfi_restore 6
	.cfi_restore 5
	.cfi_restore 4
	.cfi_def_cfa_offset 0
.LVL42:
	.loc 1 185 2 view .LVU189
	b	z_reschedule
.LVL43:
.L20:
	.align	2
.L19:
	.word	lock
	.cfi_endproc
.LFE499:
	.size	z_impl_k_sem_reset, .-z_impl_k_sem_reset
	.section	.bss.lock,"aw",%nobits
	.type	lock, %object
	.size	lock, 0
lock:
	.text
.Letext0:
	.file 7 "/home/g/zephyr-sdk-0.16.3/arm-zephyr-eabi/lib/gcc/arm-zephyr-eabi/12.2.0/include/stddef.h"
	.file 8 "/home/g/zephyr-sdk-0.16.3/arm-zephyr-eabi/picolibc/include/machine/_default_types.h"
	.file 9 "/home/g/zephyr-sdk-0.16.3/arm-zephyr-eabi/picolibc/include/sys/_stdint.h"
	.file 10 "/home/g/mise-work/zmk-firmware/zmk/zephyr/include/zephyr/sys/rb.h"
	.file 11 "/home/g/mise-work/zmk-firmware/zmk/zephyr/include/zephyr/sys/sys_heap.h"
	.file 12 "/home/g/mise-work/zmk-firmware/zmk/zephyr/include/zephyr/kernel/thread.h"
	.file 13 "/home/g/mise-work/zmk-firmware/zmk/zephyr/include/zephyr/kernel_structs.h"
	.file 14 "/home/g/mise-work/zmk-firmware/zmk/zephyr/include/zephyr/arch/arm/thread.h"
	.file 15 "/home/g/mise-work/zmk-firmware/zmk/zephyr/include/zephyr/sys_clock.h"
	.file 16 "/home/g/mise-work/zmk-firmware/zmk/zephyr/include/zephyr/kernel.h"
	.file 17 "/home/g/mise-work/zmk-firmware/zmk/zephyr/include/zephyr/fatal_types.h"
	.file 18 "/home/g/mise-work/zmk-firmware/zmk/zephyr/kernel/include/kernel_internal.h"
	.file 19 "/home/g/mise-work/zmk-firmware/zmk/zephyr/kernel/include/ksched.h"
	.file 20 "/home/g/mise-work/zmk-firmware/zmk/zephyr/include/zephyr/sys/kobject.h"