	.cpu cortex-m4
	.arch armv7e-m
	.fpu fpv4-sp-d16
	.eabi_attribute 27, 1
	.eabi_attribute 28, 1
	.eabi_attribute 20, 1
	.eabi_attribute 21, 1
	.eabi_attribute 23, 3
	.eabi_attribute 24, 1
	.eabi_attribute 25, 1
	.eabi_attribute 26, 1
	.eabi_attribute 30, 4
	.eabi_attribute 34, 1
	.eabi_attribute 38, 1
	.eabi_attribute 18, 4
	.file	"timeout.c"
	.text
.Ltext0:
	.cfi_sections	.debug_frame
	.file 1 "/home/g/mise-work/zmk-firmware/zmk/zephyr/kernel/timeout.c"
	.section	.text.elapsed,"ax",%progbits
	.align	1
	.syntax unified
	.thumb
	.thumb_func
	.type	elapsed, %function
elapsed:
.LFB496:
	.loc 1 63 1 view -0
	.cfi_startproc
	@ args = 0, pretend = 0, frame = 0
	@ frame_needed = 0, uses_anonymous_args = 0
	@ link register save eliminated.
	.loc 1 80 2 view .LVU1
	.loc 1 80 28 is_stmt 0 view .LVU2
	ldr	r3, .L3
	.loc 1 80 55 view .LVU3
	ldr	r3, [r3]
	cbnz	r3, .L2
	.loc 1 80 35 discriminator 1 view .LVU4
	b	sys_clock_elapsed
.LVL0:
.L2:
	.loc 1 81 1 discriminator 4 view .LVU5
	movs	r0, #0
	bx	lr
.L4:
	.align	2
.L3:
	.word	announce_remaining
	.cfi_endproc
.LFE496:
	.size	elapsed, .-elapsed
	.section	.text.next_timeout,"ax",%progbits
	.align	1
	.syntax unified
	.thumb
	.thumb_func
	.type	next_timeout, %function
next_timeout:
.LFB497:
	.loc 1 84 1 is_stmt 1 view -0
	.cfi_startproc
	@ args = 0, pretend = 0, frame = 0
	@ frame_needed = 0, uses_anonymous_args = 0
	.loc 1 85 2 view .LVU7
.LBB134:
.LBI134:
	.loc 1 39 25 view .LVU8
.LBB135:
	.loc 1 41 2 view .LVU9
.LVL1:
.LBB136:
.LBI136:
	.file 2 "/home/g/mise-work/zmk-firmware/zmk/zephyr/include/zephyr/sys/dlist.h"
	.loc 2 303 28 view .LVU10
.LBB137:
	.loc 2 305 2 view .LVU11
.LBB138:
.LBI138:
	.loc 2 275 19 view .LVU12
.LBB139:
	.loc 2 277 2 view .LVU13
.LBE139:
.LBE138:
.LBE137:
.LBE136:
.LBE135:
.LBE134:
	.loc 1 84 1 is_stmt 0 view .LVU14
	push	{r4, lr}
	.cfi_def_cfa_offset 8
	.cfi_offset 4, -8
	.cfi_offset 14, -4
.LBB146:
.LBB144:
.LBB143:
.LBB142:
.LBB141:
.LBB140:
	.loc 2 277 13 view .LVU15
	ldr	r3, .L14
	ldr	r4, [r3]
.LVL2:
	.loc 2 277 13 view .LVU16
.LBE140:
.LBE141:
	.loc 2 305 40 view .LVU17
	cmp	r4, r3
	bne	.L6
.LVL3:
	.loc 2 305 40 view .LVU18
.LBE142:
.LBE143:
	.loc 1 43 2 is_stmt 1 view .LVU19
	.loc 1 43 2 is_stmt 0 view .LVU20
.LBE144:
.LBE146:
	.loc 1 86 2 is_stmt 1 view .LVU21
	.loc 1 86 26 is_stmt 0 view .LVU22
	bl	elapsed
.LVL4:
	.loc 1 87 2 is_stmt 1 view .LVU23
	.loc 1 89 2 view .LVU24
.L7:
	.loc 1 91 7 is_stmt 0 view .LVU25
	mvn	r0, #-2147483648
.L5:
	.loc 1 97 1 view .LVU26
	pop	{r4, pc}
.LVL5:
.L6:
.LBB147:
.LBB145:
	.loc 1 43 2 is_stmt 1 view .LVU27
	.loc 1 43 2 is_stmt 0 view .LVU28
.LBE145:
.LBE147:
	.loc 1 86 2 is_stmt 1 view .LVU29
	.loc 1 86 26 is_stmt 0 view .LVU30
	bl	elapsed
.LVL6:
	.loc 1 87 2 is_stmt 1 view .LVU31
	.loc 1 89 2 view .LVU32
	.loc 1 89 5 is_stmt 0 view .LVU33
	cmp	r4, #0
	beq	.L7
	.loc 1 90 28 discriminator 1 view .LVU34
	ldrd	r3, r2, [r4, #16]
	subs	r3, r3, r0
	sbc	r2, r2, r0, asr #31
	.loc 1 89 18 discriminator 1 view .LVU35
	cmp	r3, #-2147483648
	sbcs	r1, r2, #0
	bge	.L7
	.loc 1 93 3 is_stmt 1 view .LVU36
	.loc 1 93 53 is_stmt 0 view .LVU37
	cmp	r2, #0
	ite	ge
	movge	r0, r3
.LVL7:
	.loc 1 93 53 view .LVU38
	movlt	r0, #0
.LVL8:
	.loc 1 96 2 is_stmt 1 view .LVU39
	.loc 1 96 9 is_stmt 0 view .LVU40
	b	.L5
.L15:
	.align	2
.L14:
	.word	timeout_list
	.cfi_endproc
.LFE497:
	.size	next_timeout, .-next_timeout
	.section	.text.remove_timeout,"ax",%progbits
	.align	1
	.syntax unified
	.thumb
	.thumb_func
	.type	remove_timeout, %function
remove_timeout:
.LVL9:
.LFB495:
	.loc 1 54 1 is_stmt 1 view -0
	.cfi_startproc
	@ args = 0, pretend = 0, frame = 0
	@ frame_needed = 0, uses_anonymous_args = 0
	.loc 1 55 2 view .LVU42
.LBB160:
.LBI160:
	.loc 1 46 25 view .LVU43
.LBB161:
	.loc 1 48 2 view .LVU44
.LBB162:
.LBI162:
	.loc 2 350 28 view .LVU45
.LBB163:
	.loc 2 353 2 view .LVU46
.LBE163:
.LBE162:
.LBE161:
.LBE160:
	.loc 1 54 1 is_stmt 0 view .LVU47
	push	{r4, r5, lr}
	.cfi_def_cfa_offset 12
	.cfi_offset 4, -12
	.cfi_offset 5, -8
	.cfi_offset 14, -4
.LBB169:
.LBB168:
.LBB167:
.LBB166:
	.loc 2 353 66 view .LVU48
	cbz	r0, .L17
.LVL10:
.LBB164:
.LBI164:
	.loc 2 334 28 is_stmt 1 view .LVU49
.LBB165:
	.loc 2 337 2 view .LVU50
	.loc 2 337 22 is_stmt 0 view .LVU51
	ldr	r3, .L24
	.loc 2 337 36 view .LVU52
	ldr	r3, [r3, #4]
	cmp	r0, r3
	beq	.L17
	ldr	r3, [r0]
.LVL11:
	.loc 2 337 36 view .LVU53
.LBE165:
.LBE164:
.LBE166:
.LBE167:
	.loc 1 50 2 is_stmt 1 view .LVU54
	.loc 1 50 2 is_stmt 0 view .LVU55
.LBE168:
.LBE169:
	.loc 1 55 5 view .LVU56
	cbz	r3, .L17
	.loc 1 56 3 is_stmt 1 view .LVU57
	.loc 1 56 19 is_stmt 0 view .LVU58
	ldrd	r2, r1, [r3, #16]
	ldrd	r4, r5, [r0, #16]
	adds	r2, r2, r4
	adc	r1, r1, r5
	strd	r2, r1, [r3, #16]
.L17:
	.loc 1 59 2 is_stmt 1 view .LVU59
.LVL12:
.LBB170:
.LBI170:
	.loc 2 505 20 view .LVU60
.LBB171:
	.loc 2 507 2 view .LVU61
	.loc 2 508 21 is_stmt 0 view .LVU62
	ldrd	r3, r2, [r0]
.LVL13:
	.loc 2 510 2 is_stmt 1 view .LVU63
	.loc 2 510 13 is_stmt 0 view .LVU64
	str	r3, [r2]
	.loc 2 511 2 is_stmt 1 view .LVU65
	.loc 2 511 13 is_stmt 0 view .LVU66
	str	r2, [r3, #4]
	.loc 2 512 2 is_stmt 1 view .LVU67
.LVL14:
.LBB172:
.LBI172:
	.loc 2 220 20 view .LVU68
.LBB173:
	.loc 2 222 2 view .LVU69
	.loc 2 222 13 is_stmt 0 view .LVU70
	movs	r3, #0
.LVL15:
	.loc 2 223 13 view .LVU71
	strd	r3, r3, [r0]
.LVL16:
	.loc 2 223 13 view .LVU72
.LBE173:
.LBE172:
.LBE171:
.LBE170:
	.loc 1 60 1 view .LVU73
	pop	{r4, r5, pc}
.L25:
	.align	2
.L24:
	.word	timeout_list
	.cfi_endproc
.LFE495:
	.size	remove_timeout, .-remove_timeout
	.section	.text.timeout_rem,"ax",%progbits
	.align	1
	.syntax unified
	.thumb
	.thumb_func
	.type	timeout_rem, %function
timeout_rem:
.LVL17:
.LFB500:
	.loc 1 160 1 is_stmt 1 view -0
	.cfi_startproc
	@ args = 0, pretend = 0, frame = 0
	@ frame_needed = 0, uses_anonymous_args = 0
	.loc 1 161 2 view .LVU75
	.loc 1 163 2 view .LVU76
.LBB190:
.LBI190:
	.file 3 "/home/g/mise-work/zmk-firmware/zmk/zephyr/kernel/include/timeout_q.h"
	.loc 3 35 19 view .LVU77
	.loc 3 37 2 view .LVU78
.LBB191:
.LBI191:
	.loc 2 234 19 view .LVU79
.LBB192:
	.loc 2 236 2 view .LVU80
	.loc 2 236 2 is_stmt 0 view .LVU81
.LBE192:
.LBE191:
.LBE190:
	.loc 1 160 1 view .LVU82
	push	{r4, r5, r6, lr}
	.cfi_def_cfa_offset 16
	.cfi_offset 4, -16
	.cfi_offset 5, -12
	.cfi_offset 6, -8
	.cfi_offset 14, -4
	.loc 1 163 5 view .LVU83
	ldr	r4, [r0]
	cbz	r4, .L32
	.loc 1 167 2 is_stmt 1 view .LVU84
.LBB193:
	.loc 1 167 7 view .LVU85
.LBB194:
.LBI194:
	.loc 1 39 25 view .LVU86
.LBB195:
	.loc 1 41 2 view .LVU87
.LVL18:
.LBB196:
.LBI196:
	.loc 2 303 28 view .LVU88
.LBB197:
	.loc 2 305 2 view .LVU89
.LBB198:
.LBI198:
	.loc 2 275 19 view .LVU90
.LBB199:
	.loc 2 277 2 view .LVU91
	.loc 2 277 13 is_stmt 0 view .LVU92
	ldr	r2, .L34
	ldr	r3, [r2]
.LVL19:
	.loc 2 277 13 view .LVU93
.LBE199:
.LBE198:
.LBE197:
.LBE196:
.LBE195:
.LBE194:
.LBB203:
.LBB204:
.LBB205:
.LBB206:
.LBB207:
	.loc 2 337 22 view .LVU94
	ldr	r1, [r2, #4]
	movs	r4, #0
.LBE207:
.LBE206:
.LBE205:
.LBE204:
.LBE203:
.LBB216:
.LBB202:
.LBB201:
.LBB200:
	.loc 2 305 40 view .LVU95
	cmp	r3, r2
	it	eq
	moveq	r3, #0
.LBE200:
.LBE201:
.LBE202:
.LBE216:
.LBB217:
.LBB214:
.LBB212:
.LBB210:
.LBB208:
	.loc 2 337 22 view .LVU96
	mov	r5, r4
.LVL20:
.L29:
	.loc 2 337 22 view .LVU97
.LBE208:
.LBE210:
.LBE212:
.LBE214:
.LBE217:
	.loc 1 167 39 is_stmt 1 discriminator 1 view .LVU98
	cbnz	r3, .L31
.LVL21:
.L30:
	.loc 1 167 39 is_stmt 0 discriminator 1 view .LVU99
.LBE193:
	.loc 1 174 2 is_stmt 1 view .LVU100
	.loc 1 174 17 is_stmt 0 view .LVU101
	bl	elapsed
.LVL22:
	.loc 1 174 17 view .LVU102
	mov	r3, r0
	.loc 1 174 15 view .LVU103
	subs	r0, r4, r0
	sbc	r1, r5, r3, asr #31
.LVL23:
.L26:
	.loc 1 175 1 view .LVU104
	pop	{r4, r5, r6, pc}
.LVL24:
.L31:
.LBB219:
	.loc 1 168 3 is_stmt 1 view .LVU105
	.loc 1 168 9 is_stmt 0 view .LVU106
	ldrd	r2, r6, [r3, #16]
	adds	r4, r4, r2
.LVL25:
	.loc 1 168 9 view .LVU107
	adc	r5, r5, r6
.LVL26:
	.loc 1 169 3 is_stmt 1 view .LVU108
	.loc 1 169 6 is_stmt 0 view .LVU109
	cmp	r3, r0
	beq	.L30
	.loc 1 167 49 is_stmt 1 view .LVU110
.LVL27:
.LBB218:
.LBI203:
	.loc 1 46 25 view .LVU111
.LBB215:
	.loc 1 48 2 view .LVU112
.LBB213:
.LBI205:
	.loc 2 350 28 view .LVU113
	.loc 2 353 2 view .LVU114
.LBB211:
.LBI206:
	.loc 2 334 28 view .LVU115
.LBB209:
	.loc 2 337 2 view .LVU116
	.loc 2 337 36 is_stmt 0 view .LVU117
	cmp	r1, r3
	beq	.L30
	ldr	r3, [r3]
.LVL28:
	.loc 2 337 36 view .LVU118
	b	.L29
.LVL29:
.L32:
	.loc 2 337 36 view .LVU119
.LBE209:
.LBE211:
.LBE213:
.LBE215:
.LBE218:
.LBE219:
	.loc 1 164 10 view .LVU120
	mov	r0, r4
.LVL30:
	.loc 1 164 10 view .LVU121
	mov	r1, r4
	b	.L26
.L35:
	.align	2
.L34:
	.word	timeout_list
	.cfi_endproc
.LFE500:
	.size	timeout_rem, .-timeout_rem
	.section	.text.z_add_timeout,"ax",%progbits
	.align	1
	.global	z_add_timeout
	.syntax unified
	.thumb
	.thumb_func
	.type	z_add_timeout, %function
z_add_timeout:
.LVL31:
.LFB498:
	.loc 1 101 1 is_stmt 1 view -0
	.cfi_startproc
	@ args = 0, pretend = 0, frame = 0
	@ frame_needed = 0, uses_anonymous_args = 0
.LBB253:
	.loc 1 102 5 is_stmt 0 view .LVU123
	cmp	r3, #-1
	it	eq
	cmpeq	r2, #-1
.LBE253:
	.loc 1 101 1 view .LVU124
	push	{r3, r4, r5, r6, r7, lr}
	.cfi_def_cfa_offset 24
	.cfi_offset 3, -24
	.cfi_offset 4, -20
	.cfi_offset 5, -16
	.cfi_offset 6, -12
	.cfi_offset 7, -8
	.cfi_offset 14, -4
	.loc 1 101 1 view .LVU125
	mov	r4, r0
	mov	r5, r3
	.loc 1 101 1 view .LVU126
	mov	r6, r2
.LVL32:
	.loc 1 102 2 is_stmt 1 view .LVU127
.LBB254:
	.loc 1 102 5 is_stmt 0 view .LVU128
	beq	.L36
.LBE254:
	.loc 1 110 4 is_stmt 1 view .LVU129
	.loc 1 110 5 view .LVU130
	.loc 1 111 2 view .LVU131
	.loc 1 111 9 is_stmt 0 view .LVU132
	str	r1, [r0, #8]
	.loc 1 113 2 is_stmt 1 view .LVU133
.LBB255:
	.loc 1 113 7 view .LVU134
.LVL33:
.LBB256:
.LBI256:
	.file 4 "/home/g/mise-work/zmk-firmware/zmk/zephyr/include/zephyr/spinlock.h"
	.loc 4 160 63 view .LVU135
.LBB257:
	.loc 4 162 2 view .LVU136
	.loc 4 163 2 view .LVU137
	.loc 4 169 2 view .LVU138
.LBB258:
.LBI258:
	.file 5 "/home/g/mise-work/zmk-firmware/zmk/zephyr/include/zephyr/arch/arm/asm_inline_gcc.h"
	.loc 5 42 59 view .LVU139
.LBB259:
	.loc 5 44 2 view .LVU140
	.loc 5 57 2 view .LVU141
	.loc 5 59 2 view .LVU142
	.syntax unified
@ 59 "/home/g/mise-work/zmk-firmware/zmk/zephyr/include/zephyr/arch/arm/asm_inline_gcc.h" 1
	mov r3, #32;mrs r7, BASEPRI;msr BASEPRI_MAX, r3;isb;
@ 0 "" 2
.LVL34:
	.loc 5 88 2 view .LVU143
	.loc 5 88 2 is_stmt 0 view .LVU144
	.thumb
	.syntax unified
.LBE259:
.LBE258:
	.loc 4 171 2 is_stmt 1 view .LVU145
	.loc 4 177 2 view .LVU146
	.loc 4 179 2 view .LVU147
	.loc 4 179 2 is_stmt 0 view .LVU148
.LBE257:
.LBE256:
	.loc 1 113 70 is_stmt 1 view .LVU149
.LBB260:
	.loc 1 114 3 view .LVU150
	.loc 1 116 3 view .LVU151
	.loc 1 116 6 is_stmt 0 view .LVU152
	adds	r2, r2, #1
.LVL35:
	.loc 1 116 6 view .LVU153
	sbcs	r3, r5, #-1
	bge	.L38
.LBB261:
	.loc 1 118 4 is_stmt 1 view .LVU154
.LVL36:
	.loc 1 120 4 view .LVU155
	.loc 1 118 63 is_stmt 0 view .LVU156
	ldr	r1, .L49
.LVL37:
	.loc 1 118 63 view .LVU157
	ldrd	r2, r0, [r1]
.LVL38:
	.loc 1 118 63 view .LVU158
	mvn	r3, #1
	subs	r3, r3, r2
	mov	r2, #-1
	sbc	r0, r2, r0
	subs	r6, r3, r6
	sbc	r0, r0, r5
	.loc 1 120 40 view .LVU159
	cmp	r6, #1
	sbcs	r3, r0, #0
	bge	.L40
	movs	r6, #1
	movs	r0, #0
.LVL39:
.L40:
	.loc 1 120 15 view .LVU160
	strd	r6, r0, [r4, #16]
.LBE261:
	.loc 1 125 3 is_stmt 1 view .LVU161
.LBB262:
.LBI262:
	.loc 1 39 25 view .LVU162
.LBB263:
	.loc 1 41 2 view .LVU163
.LVL40:
.LBB264:
.LBI264:
	.loc 2 303 28 view .LVU164
.LBB265:
	.loc 2 305 2 view .LVU165
.LBB266:
.LBI266:
	.loc 2 275 19 view .LVU166
.LBB267:
	.loc 2 277 2 view .LVU167
	.loc 2 277 13 is_stmt 0 view .LVU168
	ldr	r6, .L49+4
	ldr	ip, [r6]
.LVL41:
	.loc 2 277 13 view .LVU169
.LBE267:
.LBE266:
.LBE265:
.LBE264:
.LBE263:
.LBE262:
.LBB271:
.LBB272:
.LBB273:
.LBB274:
.LBB275:
	.loc 2 337 22 view .LVU170
	ldr	r5, [r6, #4]
	.loc 2 337 22 view .LVU171
.LBE275:
.LBE274:
.LBE273:
.LBE272:
.LBE271:
.LBB284:
.LBB270:
.LBB269:
.LBB268:
	.loc 2 305 40 view .LVU172
	cmp	ip, r6
	it	eq
	moveq	ip, #0
.LVL42:
.L42:
	.loc 2 305 40 view .LVU173
.LBE268:
.LBE269:
.LBE270:
.LBE284:
	.loc 1 125 23 is_stmt 1 discriminator 1 view .LVU174
	cmp	ip, #0
	bne	.L46
.L45:
.LVL43:
	.loc 1 134 3 view .LVU175
	.loc 1 135 4 view .LVU176
.LBB285:
.LBI285:
	.loc 2 413 20 view .LVU177
.LBB286:
	.loc 2 415 2 view .LVU178
	.loc 2 417 2 view .LVU179
	.loc 2 418 13 is_stmt 0 view .LVU180
	strd	r6, r5, [r4]
	.loc 2 420 2 is_stmt 1 view .LVU181
	.loc 2 420 13 is_stmt 0 view .LVU182
	str	r4, [r5]
	.loc 2 421 2 is_stmt 1 view .LVU183
	.loc 2 421 13 is_stmt 0 view .LVU184
	str	r4, [r6, #4]
	.loc 2 422 1 view .LVU185
	b	.L44
.LVL44:
.L38:
	.loc 2 422 1 view .LVU186
.LBE286:
.LBE285:
	.loc 1 122 4 is_stmt 1 view .LVU187
	.loc 1 122 37 is_stmt 0 view .LVU188
	bl	elapsed
.LVL45:
	.loc 1 122 31 view .LVU189
	adds	r6, r6, #1
	adc	r5, r5, #0
	.loc 1 122 35 view .LVU190
	adds	r6, r6, r0
	adc	r0, r5, r0, asr #31
	b	.L40
.LVL46:
.L46:
	.loc 1 126 4 is_stmt 1 view .LVU191
	.loc 1 126 9 is_stmt 0 view .LVU192
	ldrd	r2, r0, [ip, #16]
	.loc 1 126 22 view .LVU193
	ldrd	r3, r1, [r4, #16]
	.loc 1 126 7 view .LVU194
	cmp	r3, r2
	sbcs	lr, r1, r0
	bge	.L43
	.loc 1 127 5 is_stmt 1 view .LVU195
	.loc 1 127 15 is_stmt 0 view .LVU196
	subs	r2, r2, r3
.LBB287:
.LBB288:
	.loc 2 454 21 view .LVU197
	ldr	r3, [ip, #4]
.LBE288:
.LBE287:
	.loc 1 127 15 view .LVU198
	sbc	r0, r0, r1
	strd	r2, r0, [ip, #16]
	.loc 1 128 5 is_stmt 1 view .LVU199
.LVL47:
.LBB290:
.LBI287:
	.loc 2 452 20 view .LVU200
.LBB289:
	.loc 2 454 2 view .LVU201
	.loc 2 456 2 view .LVU202
	.loc 2 457 13 is_stmt 0 view .LVU203
	strd	ip, r3, [r4]
	.loc 2 458 2 is_stmt 1 view .LVU204
	.loc 2 458 13 is_stmt 0 view .LVU205
	str	r4, [r3]
	.loc 2 459 2 is_stmt 1 view .LVU206
	.loc 2 459 18 is_stmt 0 view .LVU207
	str	r4, [ip, #4]
.LVL48:
	.loc 2 459 18 view .LVU208
.LBE289:
.LBE290:
	.loc 1 134 3 is_stmt 1 view .LVU209
.L44:
	.loc 1 138 3 view .LVU210
.LBB291:
.LBI291:
	.loc 1 39 25 view .LVU211
.LBB292:
	.loc 1 41 2 view .LVU212
.LBB293:
.LBI293:
	.loc 2 303 28 view .LVU213
.LBB294:
	.loc 2 305 2 view .LVU214
.LBB295:
.LBI295:
	.loc 2 275 19 view .LVU215
.LBB296:
	.loc 2 277 2 view .LVU216
	.loc 2 277 13 is_stmt 0 view .LVU217
	ldr	r3, [r6]
.LVL49:
	.loc 2 277 13 view .LVU218
.LBE296:
.LBE295:
	.loc 2 305 40 view .LVU219
	cmp	r3, r6
	beq	.L47
.LVL50:
	.loc 2 305 40 view .LVU220
.LBE294:
.LBE293:
	.loc 1 43 2 is_stmt 1 view .LVU221
.LBE292:
.LBE291:
	.loc 1 138 6 is_stmt 0 view .LVU222
	cmp	r4, r3
	bne	.L47
	.loc 1 139 4 is_stmt 1 view .LVU223
	bl	next_timeout
.LVL51:
	.loc 1 139 4 is_stmt 0 view .LVU224
	movs	r1, #0
	bl	sys_clock_set_timeout
.LVL52:
.L47:
	.loc 1 139 4 view .LVU225
.LBE260:
	.loc 1 113 115 is_stmt 1 discriminator 2 view .LVU226
.LBB299:
.LBI299:
	.loc 4 235 51 discriminator 2 view .LVU227
	.loc 4 238 2 discriminator 2 view .LVU228
	.loc 4 261 2 discriminator 2 view .LVU229
.LBB300:
.LBI300:
	.loc 5 96 51 discriminator 2 view .LVU230
.LBB301:
	.loc 5 107 2 discriminator 2 view .LVU231
	.syntax unified
@ 107 "/home/g/mise-work/zmk-firmware/zmk/zephyr/include/zephyr/arch/arm/asm_inline_gcc.h" 1
	msr BASEPRI, r7;isb;
@ 0 "" 2
.LVL53:
	.loc 5 107 2 is_stmt 0 discriminator 2 view .LVU232
	.thumb
	.syntax unified
.LBE301:
.LBE300:
.LBE299:
	.loc 1 113 70 is_stmt 1 discriminator 2 view .LVU233
.L36:
	.loc 1 113 70 is_stmt 0 discriminator 2 view .LVU234
.LBE255:
	.loc 1 142 1 view .LVU235
	pop	{r3, r4, r5, r6, r7, pc}
.LVL54:
.L43:
.LBB303:
.LBB302:
	.loc 1 131 4 is_stmt 1 view .LVU236
	.loc 1 131 15 is_stmt 0 view .LVU237
	subs	r3, r3, r2
	sbc	r1, r1, r0
.LBB297:
.LBB282:
.LBB280:
.LBB278:
.LBB276:
	.loc 2 337 36 view .LVU238
	cmp	ip, r5
.LBE276:
.LBE278:
.LBE280:
.LBE282:
.LBE297:
	.loc 1 131 15 view .LVU239
	strd	r3, r1, [r4, #16]
	.loc 1 125 33 is_stmt 1 view .LVU240
.LVL55:
.LBB298:
.LBI271:
	.loc 1 46 25 view .LVU241
.LBB283:
	.loc 1 48 2 view .LVU242
.LBB281:
.LBI273:
	.loc 2 350 28 view .LVU243
	.loc 2 353 2 view .LVU244
.LBB279:
.LBI274:
	.loc 2 334 28 view .LVU245
.LBB277:
	.loc 2 337 2 view .LVU246
	.loc 2 337 36 is_stmt 0 view .LVU247
	beq	.L45
	ldr	ip, [ip]
.LVL56:
	.loc 2 337 36 view .LVU248
	b	.L42
.L50:
	.align	2
.L49:
	.word	curr_tick
	.word	timeout_list
.LBE277:
.LBE279:
.LBE281:
.LBE283:
.LBE298:
.LBE302:
.LBE303:
	.cfi_endproc
.LFE498:
	.size	z_add_timeout, .-z_add_timeout
	.section	.text.z_abort_timeout,"ax",%progbits
	.align	1
	.global	z_abort_timeout
	.syntax unified
	.thumb
	.thumb_func
	.type	z_abort_timeout, %function
z_abort_timeout:
.LVL57:
.LFB499:
	.loc 1 145 1 is_stmt 1 view -0
	.cfi_startproc
	@ args = 0, pretend = 0, frame = 0
	@ frame_needed = 0, uses_anonymous_args = 0
	.loc 1 146 2 view .LVU250
	.loc 1 148 2 view .LVU251
.LBB304:
	.loc 1 148 7 view .LVU252
.LBB305:
.LBI305:
	.loc 4 160 63 view .LVU253
.LBB306:
	.loc 4 162 2 view .LVU254
	.loc 4 163 2 view .LVU255
	.loc 4 169 2 view .LVU256
.LBB307:
.LBI307:
	.loc 5 42 59 view .LVU257
.LBB308:
	.loc 5 44 2 view .LVU258
	.loc 5 57 2 view .LVU259
	.loc 5 59 2 view .LVU260
.LBE308:
.LBE307:
.LBE306:
.LBE305:
.LBE304:
	.loc 1 145 1 is_stmt 0 view .LVU261
	push	{r4, lr}
	.cfi_def_cfa_offset 8
	.cfi_offset 4, -8
	.cfi_offset 14, -4
.LBB318:
.LBB312:
.LBB311:
.LBB310:
.LBB309:
	.loc 5 59 2 view .LVU262
	.syntax unified
@ 59 "/home/g/mise-work/zmk-firmware/zmk/zephyr/include/zephyr/arch/arm/asm_inline_gcc.h" 1
	mov r2, #32;mrs r4, BASEPRI;msr BASEPRI_MAX, r2;isb;
@ 0 "" 2
.LVL58:
	.loc 5 88 2 is_stmt 1 view .LVU263
	.loc 5 88 2 is_stmt 0 view .LVU264
	.thumb
	.syntax unified
.LBE309:
.LBE310:
	.loc 4 171 2 is_stmt 1 view .LVU265
	.loc 4 177 2 view .LVU266
	.loc 4 179 2 view .LVU267
	.loc 4 179 2 is_stmt 0 view .LVU268
.LBE311:
.LBE312:
	.loc 1 148 70 is_stmt 1 view .LVU269
	.loc 1 149 3 view .LVU270
.LBB313:
.LBI313:
	.loc 2 234 19 view .LVU271
.LBB314:
	.loc 2 236 2 view .LVU272
	.loc 2 236 2 is_stmt 0 view .LVU273
.LBE314:
.LBE313:
	.loc 1 149 6 view .LVU274
	ldr	r3, [r0]
	cbz	r3, .L53
	.loc 1 150 4 is_stmt 1 view .LVU275
	bl	remove_timeout
.LVL59:
	.loc 1 151 4 view .LVU276
	.loc 1 151 8 is_stmt 0 view .LVU277
	movs	r0, #0
.LVL60:
.L52:
	.loc 1 148 115 is_stmt 1 discriminator 2 view .LVU278
.LBB315:
.LBI315:
	.loc 4 235 51 discriminator 2 view .LVU279
	.loc 4 238 2 discriminator 2 view .LVU280
	.loc 4 261 2 discriminator 2 view .LVU281
.LBB316:
.LBI316:
	.loc 5 96 51 discriminator 2 view .LVU282
.LBB317:
	.loc 5 107 2 discriminator 2 view .LVU283
	.syntax unified
@ 107 "/home/g/mise-work/zmk-firmware/zmk/zephyr/include/zephyr/arch/arm/asm_inline_gcc.h" 1
	msr BASEPRI, r4;isb;
@ 0 "" 2
.LVL61:
	.loc 5 107 2 is_stmt 0 discriminator 2 view .LVU284
	.thumb
	.syntax unified
.LBE317:
.LBE316:
.LBE315:
	.loc 1 148 70 is_stmt 1 discriminator 2 view .LVU285
	.loc 1 148 70 is_stmt 0 discriminator 2 view .LVU286
.LBE318:
	.loc 1 155 2 is_stmt 1 discriminator 2 view .LVU287
	.loc 1 156 1 is_stmt 0 discriminator 2 view .LVU288
	pop	{r4, pc}
.LVL62:
.L53:
	.loc 1 146 6 view .LVU289
	mvn	r0, #21
.LVL63:
	.loc 1 146 6 view .LVU290
	b	.L52
	.cfi_endproc
.LFE499:
	.size	z_abort_timeout, .-z_abort_timeout
	.section	.text.z_timeout_remaining,"ax",%progbits
	.align	1
	.global	z_timeout_remaining
	.syntax unified
	.thumb
	.thumb_func
	.type	z_timeout_remaining, %function
z_timeout_remaining:
.LVL64:
.LFB501:
	.loc 1 178 1 is_stmt 1 view -0
	.cfi_startproc
	@ args = 0, pretend = 0, frame = 0
	@ frame_needed = 0, uses_anonymous_args = 0
	.loc 1 179 2 view .LVU292
	.loc 1 181 2 view .LVU293
.LBB319:
	.loc 1 181 7 view .LVU294
.LBB320:
.LBI320:
	.loc 4 160 63 view .LVU295
.LBB321:
	.loc 4 162 2 view .LVU296
	.loc 4 163 2 view .LVU297
	.loc 4 169 2 view .LVU298
.LBB322:
.LBI322:
	.loc 5 42 59 view .LVU299
.LBB323:
	.loc 5 44 2 view .LVU300
	.loc 5 57 2 view .LVU301
	.loc 5 59 2 view .LVU302
.LBE323:
.LBE322:
.LBE321:
.LBE320:
.LBE319:
	.loc 1 178 1 is_stmt 0 view .LVU303
	push	{r4, lr}
	.cfi_def_cfa_offset 8
	.cfi_offset 4, -8
	.cfi_offset 14, -4
.LBB331:
.LBB327:
.LBB326:
.LBB325:
.LBB324:
	.loc 5 59 2 view .LVU304
	.syntax unified
@ 59 "/home/g/mise-work/zmk-firmware/zmk/zephyr/include/zephyr/arch/arm/asm_inline_gcc.h" 1
	mov r3, #32;mrs r4, BASEPRI;msr BASEPRI_MAX, r3;isb;
@ 0 "" 2
.LVL65:
	.loc 5 88 2 is_stmt 1 view .LVU305
	.loc 5 88 2 is_stmt 0 view .LVU306
	.thumb
	.syntax unified
.LBE324:
.LBE325:
	.loc 4 171 2 is_stmt 1 view .LVU307
	.loc 4 177 2 view .LVU308
	.loc 4 179 2 view .LVU309
	.loc 4 179 2 is_stmt 0 view .LVU310
.LBE326:
.LBE327:
	.loc 1 181 70 is_stmt 1 view .LVU311
	.loc 1 182 3 view .LVU312
	.loc 1 182 11 is_stmt 0 view .LVU313
	bl	timeout_rem
.LVL66:
	.loc 1 181 115 is_stmt 1 view .LVU314
.LBB328:
.LBI328:
	.loc 4 235 51 view .LVU315
	.loc 4 238 2 view .LVU316
	.loc 4 261 2 view .LVU317
.LBB329:
.LBI329:
	.loc 5 96 51 view .LVU318
.LBB330:
	.loc 5 107 2 view .LVU319
	.syntax unified
@ 107 "/home/g/mise-work/zmk-firmware/zmk/zephyr/include/zephyr/arch/arm/asm_inline_gcc.h" 1
	msr BASEPRI, r4;isb;
@ 0 "" 2
.LVL67:
	.loc 5 107 2 is_stmt 0 view .LVU320
	.thumb
	.syntax unified
.LBE330:
.LBE329:
.LBE328:
	.loc 1 181 70 is_stmt 1 view .LVU321
	.loc 1 181 70 is_stmt 0 view .LVU322
.LBE331:
	.loc 1 185 2 is_stmt 1 view .LVU323
	.loc 1 186 1 is_stmt 0 view .LVU324
	pop	{r4, pc}
	.cfi_endproc
.LFE501:
	.size	z_timeout_remaining, .-z_timeout_remaining
	.section	.text.z_timeout_expires,"ax",%progbits
	.align	1
	.global	z_timeout_expires
	.syntax unified
	.thumb
	.thumb_func
	.type	z_timeout_expires, %function
z_timeout_expires:
.LVL68:
.LFB502:
	.loc 1 189 1 is_stmt 1 view -0
	.cfi_startproc
	@ args = 0, pretend = 0, frame = 0
	@ frame_needed = 0, uses_anonymous_args = 0
	.loc 1 190 2 view .LVU326
	.loc 1 192 2 view .LVU327
.LBB332:
	.loc 1 192 7 view .LVU328
.LBB333:
.LBI333:
	.loc 4 160 63 view .LVU329
.LBB334:
	.loc 4 162 2 view .LVU330
	.loc 4 163 2 view .LVU331
	.loc 4 169 2 view .LVU332
.LBB335:
.LBI335:
	.loc 5 42 59 view .LVU333
.LBB336:
	.loc 5 44 2 view .LVU334
	.loc 5 57 2 view .LVU335
	.loc 5 59 2 view .LVU336
.LBE336:
.LBE335:
.LBE334:
.LBE333:
.LBE332:
	.loc 1 189 1 is_stmt 0 view .LVU337
	push	{r4, lr}
	.cfi_def_cfa_offset 8
	.cfi_offset 4, -8
	.cfi_offset 14, -4
.LBB344:
.LBB340:
.LBB339:
.LBB338:
.LBB337:
	.loc 5 59 2 view .LVU338
	.syntax unified
@ 59 "/home/g/mise-work/zmk-firmware/zmk/zephyr/include/zephyr/arch/arm/asm_inline_gcc.h" 1
	mov r3, #32;mrs r4, BASEPRI;msr BASEPRI_MAX, r3;isb;
@ 0 "" 2
.LVL69:
	.loc 5 88 2 is_stmt 1 view .LVU339
	.loc 5 88 2 is_stmt 0 view .LVU340
	.thumb
	.syntax unified
.LBE337:
.LBE338:
	.loc 4 171 2 is_stmt 1 view .LVU341
	.loc 4 177 2 view .LVU342
	.loc 4 179 2 view .LVU343
	.loc 4 179 2 is_stmt 0 view .LVU344
.LBE339:
.LBE340:
	.loc 1 192 70 is_stmt 1 view .LVU345
	.loc 1 193 3 view .LVU346
	.loc 1 193 23 is_stmt 0 view .LVU347
	bl	timeout_rem
.LVL70:
	.loc 1 193 21 view .LVU348
	ldr	r3, .L56
	ldrd	r2, r3, [r3]
	adds	r0, r0, r2
	adc	r1, r3, r1
.LVL71:
	.loc 1 192 115 is_stmt 1 view .LVU349
.LBB341:
.LBI341:
	.loc 4 235 51 view .LVU350
	.loc 4 238 2 view .LVU351
	.loc 4 261 2 view .LVU352
.LBB342:
.LBI342:
	.loc 5 96 51 view .LVU353
.LBB343:
	.loc 5 107 2 view .LVU354
	.syntax unified
@ 107 "/home/g/mise-work/zmk-firmware/zmk/zephyr/include/zephyr/arch/arm/asm_inline_gcc.h" 1
	msr BASEPRI, r4;isb;
@ 0 "" 2
.LVL72:
	.loc 5 107 2 is_stmt 0 view .LVU355
	.thumb
	.syntax unified
.LBE343:
.LBE342:
.LBE341:
	.loc 1 192 70 is_stmt 1 view .LVU356
	.loc 1 192 70 is_stmt 0 view .LVU357
.LBE344:
	.loc 1 196 2 is_stmt 1 view .LVU358
	.loc 1 197 1 is_stmt 0 view .LVU359
	pop	{r4, pc}
.L57:
	.align	2
.L56:
	.word	curr_tick
	.cfi_endproc
.LFE502:
	.size	z_timeout_expires, .-z_timeout_expires
	.section	.text.z_get_next_timeout_expiry,"ax",%progbits
	.align	1
	.global	z_get_next_timeout_expiry
	.syntax unified
	.thumb
	.thumb_func
	.type	z_get_next_timeout_expiry, %function
z_get_next_timeout_expiry:
.LFB503:
	.loc 1 200 1 is_stmt 1 view -0
	.cfi_startproc
	@ args = 0, pretend = 0, frame = 0
	@ frame_needed = 0, uses_anonymous_args = 0
	.loc 1 201 2 view .LVU361
.LVL73:
	.loc 1 203 2 view .LVU362
.LBB345:
	.loc 1 203 7 view .LVU363
.LBB346:
.LBI346:
	.loc 4 160 63 view .LVU364
.LBB347:
	.loc 4 162 2 view .LVU365
	.loc 4 163 2 view .LVU366
	.loc 4 169 2 view .LVU367
.LBB348:
.LBI348:
	.loc 5 42 59 view .LVU368
.LBB349:
	.loc 5 44 2 view .LVU369
	.loc 5 57 2 view .LVU370
	.loc 5 59 2 view .LVU371
.LBE349:
.LBE348:
.LBE347:
.LBE346:
.LBE345:
	.loc 1 200 1 is_stmt 0 view .LVU372
	push	{r4, lr}
	.cfi_def_cfa_offset 8
	.cfi_offset 4, -8
	.cfi_offset 14, -4
.LBB357:
.LBB353:
.LBB352:
.LBB351:
.LBB350:
	.loc 5 59 2 view .LVU373
	.syntax unified
@ 59 "/home/g/mise-work/zmk-firmware/zmk/zephyr/include/zephyr/arch/arm/asm_inline_gcc.h" 1
	mov r3, #32;mrs r4, BASEPRI;msr BASEPRI_MAX, r3;isb;
@ 0 "" 2
.LVL74:
	.loc 5 88 2 is_stmt 1 view .LVU374
	.loc 5 88 2 is_stmt 0 view .LVU375
	.thumb
	.syntax unified
.LBE350:
.LBE351:
	.loc 4 171 2 is_stmt 1 view .LVU376
	.loc 4 177 2 view .LVU377
	.loc 4 179 2 view .LVU378
	.loc 4 179 2 is_stmt 0 view .LVU379
.LBE352:
.LBE353:
	.loc 1 203 70 is_stmt 1 view .LVU380
	.loc 1 204 3 view .LVU381
	.loc 1 204 9 is_stmt 0 view .LVU382
	bl	next_timeout
.LVL75:
	.loc 1 203 115 is_stmt 1 view .LVU383
.LBB354:
.LBI354:
	.loc 4 235 51 view .LVU384
	.loc 4 238 2 view .LVU385
	.loc 4 261 2 view .LVU386
.LBB355:
.LBI355:
	.loc 5 96 51 view .LVU387
.LBB356:
	.loc 5 107 2 view .LVU388
	.syntax unified
@ 107 "/home/g/mise-work/zmk-firmware/zmk/zephyr/include/zephyr/arch/arm/asm_inline_gcc.h" 1
	msr BASEPRI, r4;isb;
@ 0 "" 2
.LVL76:
	.loc 5 107 2 is_stmt 0 view .LVU389
	.thumb
	.syntax unified
.LBE356:
.LBE355:
.LBE354:
	.loc 1 203 70 is_stmt 1 view .LVU390
	.loc 1 203 70 is_stmt 0 view .LVU391
.LBE357:
	.loc 1 206 2 is_stmt 1 view .LVU392
	.loc 1 207 1 is_stmt 0 view .LVU393
	pop	{r4, pc}
	.cfi_endproc
.LFE503:
	.size	z_get_next_timeout_expiry, .-z_get_next_timeout_expiry
	.section	.text.sys_clock_announce,"ax",%progbits
	.align	1
	.global	sys_clock_announce
	.syntax unified
	.thumb
	.thumb_func
	.type	sys_clock_announce, %function
sys_clock_announce:
.LVL77:
.LFB504:
	.loc 1 210 1 is_stmt 1 view -0
	.cfi_startproc
	@ args = 0, pretend = 0, frame = 0
	@ frame_needed = 0, uses_anonymous_args = 0
	.loc 1 211 2 view .LVU395
.LBB387:
.LBI387:
	.loc 4 160 63 view .LVU396
.LBB388:
	.loc 4 162 2 view .LVU397
	.loc 4 163 2 view .LVU398
	.loc 4 169 2 view .LVU399
.LBB389:
.LBI389:
	.loc 5 42 59 view .LVU400
.LBB390:
	.loc 5 44 2 view .LVU401
	.loc 5 57 2 view .LVU402
	.loc 5 59 2 view .LVU403
.LBE390:
.LBE389:
.LBE388:
.LBE387:
	.loc 1 210 1 is_stmt 0 view .LVU404
	push	{r3, r4, r5, r6, r7, r8, r9, r10, fp, lr}
	.cfi_def_cfa_offset 40
	.cfi_offset 3, -40
	.cfi_offset 4, -36
	.cfi_offset 5, -32
	.cfi_offset 6, -28
	.cfi_offset 7, -24
	.cfi_offset 8, -20
	.cfi_offset 9, -16
	.cfi_offset 10, -12
	.cfi_offset 11, -8
	.cfi_offset 14, -4
.LBB394:
.LBB393:
.LBB392:
.LBB391:
	.loc 5 59 2 view .LVU405
	.syntax unified
@ 59 "/home/g/mise-work/zmk-firmware/zmk/zephyr/include/zephyr/arch/arm/asm_inline_gcc.h" 1
	mov r3, #32;mrs r7, BASEPRI;msr BASEPRI_MAX, r3;isb;
@ 0 "" 2
.LVL78:
	.loc 5 88 2 is_stmt 1 view .LVU406
	.loc 5 88 2 is_stmt 0 view .LVU407
	.thumb
	.syntax unified
.LBE391:
.LBE392:
	.loc 4 171 2 is_stmt 1 view .LVU408
	.loc 4 177 2 view .LVU409
	.loc 4 179 2 view .LVU410
	.loc 4 179 2 is_stmt 0 view .LVU411
.LBE393:
.LBE394:
	.loc 1 219 2 is_stmt 1 view .LVU412
	.loc 1 225 2 view .LVU413
.LBB395:
.LBB396:
.LBB397:
.LBB398:
.LBB399:
.LBB400:
	.loc 2 277 13 is_stmt 0 view .LVU414
	ldr	r9, .L72+8
.LBE400:
.LBE399:
.LBE398:
.LBE397:
.LBE396:
.LBE395:
	.loc 1 225 21 view .LVU415
	ldr	r6, .L72
.LBB409:
	.loc 1 234 13 view .LVU416
	ldr	r4, .L72+4
.LBE409:
	.loc 1 225 21 view .LVU417
	str	r0, [r6]
	.loc 1 227 2 is_stmt 1 view .LVU418
	.loc 1 229 2 view .LVU419
.LBB422:
.LBI395:
	.loc 1 39 25 view .LVU420
.LBB407:
	.loc 1 41 2 view .LVU421
.LVL79:
.LBB405:
.LBI397:
	.loc 2 303 28 view .LVU422
.LBB403:
	.loc 2 305 2 view .LVU423
.LBB402:
.LBI399:
	.loc 2 275 19 view .LVU424
.LBB401:
	.loc 2 277 2 view .LVU425
	.loc 2 277 13 is_stmt 0 view .LVU426
	ldr	r0, [r9]
.LVL80:
	.loc 2 277 13 view .LVU427
.LBE401:
.LBE402:
.LBE403:
.LBE405:
.LBE407:
.LBE422:
.LBB423:
	.loc 1 235 13 view .LVU428
	mov	r10, #0
.LBE423:
.LBB424:
.LBB408:
.LBB406:
.LBB404:
	.loc 2 305 40 view .LVU429
	cmp	r0, r9
	it	eq
	moveq	r0, #0
.LBE404:
.LBE406:
.LBE408:
.LBE424:
.LBB425:
	.loc 1 235 13 view .LVU430
	mov	fp, #0
.LVL81:
.L61:
	.loc 1 235 13 view .LVU431
.LBE425:
	.loc 1 230 18 is_stmt 1 view .LVU432
.LBB426:
	.loc 1 234 13 is_stmt 0 view .LVU433
	ldrd	r1, lr, [r4]
.LBE426:
	.loc 1 230 32 view .LVU434
	ldr	r3, [r6]
.LBB427:
.LBB410:
.LBB411:
	.loc 4 261 2 view .LVU435
	mov	r5, r7
.LBE411:
.LBE410:
.LBE427:
	.loc 1 230 18 view .LVU436
	cbz	r0, .L65
	.loc 1 230 23 discriminator 1 view .LVU437
	ldrd	r8, r7, [r0, #16]
	.loc 1 230 32 discriminator 1 view .LVU438
	asr	ip, r3, #31
	.loc 1 230 18 discriminator 1 view .LVU439
	cmp	r3, r8
	sbcs	r2, ip, r7
	bge	.L63
	.loc 1 244 2 is_stmt 1 view .LVU440
	.loc 1 245 3 view .LVU441
	.loc 1 245 13 is_stmt 0 view .LVU442
	subs	r2, r8, r3
	sbc	r7, r7, ip
	strd	r2, r7, [r0, #16]
	b	.L65
.L63:
.LBB428:
	.loc 1 232 3 is_stmt 1 view .LVU443
.LVL82:
	.loc 1 234 3 view .LVU444
	.loc 1 234 13 is_stmt 0 view .LVU445
	adds	r1, r8, r1
	adc	r3, lr, r8, asr #31
	.loc 1 235 13 view .LVU446
	strd	r10, [r0, #16]
	.loc 1 234 13 view .LVU447
	strd	r1, r3, [r4]
	.loc 1 235 3 is_stmt 1 view .LVU448
	.loc 1 236 3 view .LVU449
	bl	remove_timeout
.LVL83:
	.loc 1 238 3 view .LVU450
.LBB415:
.LBI410:
	.loc 4 235 51 view .LVU451
.LBB414:
	.loc 4 238 2 view .LVU452
	.loc 4 261 2 view .LVU453
.LBB412:
.LBI412:
	.loc 5 96 51 view .LVU454
.LBB413:
	.loc 5 107 2 view .LVU455
	.syntax unified
@ 107 "/home/g/mise-work/zmk-firmware/zmk/zephyr/include/zephyr/arch/arm/asm_inline_gcc.h" 1
	msr BASEPRI, r5;isb;
@ 0 "" 2
.LVL84:
	.loc 5 107 2 is_stmt 0 view .LVU456
	.thumb
	.syntax unified
.LBE413:
.LBE412:
.LBE414:
.LBE415:
	.loc 1 239 3 is_stmt 1 view .LVU457
	ldr	r3, [r0, #8]
	blx	r3
.LVL85:
	.loc 1 240 3 view .LVU458
.LBB416:
.LBI416:
	.loc 4 160 63 view .LVU459
.LBB417:
	.loc 4 162 2 view .LVU460
	.loc 4 163 2 view .LVU461
	.loc 4 169 2 view .LVU462
.LBB418:
.LBI418:
	.loc 5 42 59 view .LVU463
.LBB419:
	.loc 5 44 2 view .LVU464
	.loc 5 57 2 view .LVU465
	.loc 5 59 2 view .LVU466
	.syntax unified
@ 59 "/home/g/mise-work/zmk-firmware/zmk/zephyr/include/zephyr/arch/arm/asm_inline_gcc.h" 1
	mov r3, #32;mrs r5, BASEPRI;msr BASEPRI_MAX, r3;isb;
@ 0 "" 2
.LVL86:
	.loc 5 88 2 view .LVU467
	.loc 5 88 2 is_stmt 0 view .LVU468
	.thumb
	.syntax unified
.LBE419:
.LBE418:
.LBE417:
.LBE416:
	.loc 1 241 22 view .LVU469
	ldr	r3, [r6]
.LBE428:
.LBB429:
.LBB430:
.LBB431:
.LBB432:
.LBB433:
.LBB434:
	.loc 2 277 13 view .LVU470
	ldr	r0, [r9]
.LBE434:
.LBE433:
.LBE432:
.LBE431:
.LBE430:
.LBE429:
.LBB443:
	.loc 1 241 22 view .LVU471
	sub	r3, r3, r8
.LBE443:
.LBB444:
.LBB441:
.LBB439:
.LBB437:
	.loc 2 305 40 view .LVU472
	cmp	r0, r9
.LBE437:
.LBE439:
.LBE441:
.LBE444:
.LBB445:
.LBB421:
.LBB420:
	.loc 4 169 10 view .LVU473
	mov	r7, r5
.LVL87:
	.loc 4 171 2 is_stmt 1 view .LVU474
	.loc 4 177 2 view .LVU475
	.loc 4 179 2 view .LVU476
	.loc 4 179 2 is_stmt 0 view .LVU477
.LBE420:
.LBE421:
	.loc 1 241 3 is_stmt 1 view .LVU478
	.loc 1 241 22 is_stmt 0 view .LVU479
	str	r3, [r6]
.LBE445:
	.loc 1 231 9 is_stmt 1 view .LVU480
.LBB446:
.LBI429:
	.loc 1 39 25 view .LVU481
.LBB442:
	.loc 1 41 2 view .LVU482
.LVL88:
.LBB440:
.LBI431:
	.loc 2 303 28 view .LVU483
.LBB438:
	.loc 2 305 2 view .LVU484
.LBB436:
.LBI433:
	.loc 2 275 19 view .LVU485
.LBB435:
	.loc 2 277 2 view .LVU486
	.loc 2 277 2 is_stmt 0 view .LVU487
.LBE435:
.LBE436:
	.loc 2 305 40 view .LVU488
	bne	.L61
.LVL89:
	.loc 2 305 40 view .LVU489
.LBE438:
.LBE440:
.LBE442:
.LBE446:
	.loc 1 230 18 is_stmt 1 view .LVU490
.LBB447:
	.loc 1 234 13 is_stmt 0 view .LVU491
	ldrd	r1, lr, [r4]
.LVL90:
.L65:
	.loc 1 234 13 view .LVU492
.LBE447:
	.loc 1 248 2 is_stmt 1 view .LVU493
	.loc 1 248 12 is_stmt 0 view .LVU494
	adds	r1, r3, r1
	adc	r3, lr, r3, asr #31
	strd	r1, r3, [r4]
	.loc 1 249 2 is_stmt 1 view .LVU495
	.loc 1 249 21 is_stmt 0 view .LVU496
	movs	r4, #0
	str	r4, [r6]
	.loc 1 251 2 is_stmt 1 view .LVU497
	bl	next_timeout
.LVL91:
	mov	r1, r4
	bl	sys_clock_set_timeout
.LVL92:
	.loc 1 253 2 view .LVU498
.LBB448:
.LBI448:
	.loc 4 235 51 view .LVU499
	.loc 4 238 2 view .LVU500
	.loc 4 261 2 view .LVU501
.LBB449:
.LBI449:
	.loc 5 96 51 view .LVU502
.LBB450:
	.loc 5 107 2 view .LVU503
	.syntax unified
@ 107 "/home/g/mise-work/zmk-firmware/zmk/zephyr/include/zephyr/arch/arm/asm_inline_gcc.h" 1
	msr BASEPRI, r5;isb;
@ 0 "" 2
.LVL93:
	.loc 5 107 2 is_stmt 0 view .LVU504
	.thumb
	.syntax unified
.LBE450:
.LBE449:
.LBE448:
	.loc 1 256 2 is_stmt 1 view .LVU505
	.loc 1 258 1 is_stmt 0 view .LVU506
	pop	{r3, r4, r5, r6, r7, r8, r9, r10, fp, lr}
	.cfi_restore 14
	.cfi_restore 11
	.cfi_restore 10
	.cfi_restore 9
	.cfi_restore 8
	.cfi_restore 7
	.cfi_restore 6
	.cfi_restore 5
	.cfi_restore 4
	.cfi_restore 3
	.cfi_def_cfa_offset 0
	.loc 1 256 2 view .LVU507
	b	z_time_slice
.LVL94:
.L73:
	.align	2
.L72:
	.word	announce_remaining
	.word	curr_tick
	.word	timeout_list
	.cfi_endproc
.LFE504:
	.size	sys_clock_announce, .-sys_clock_announce
	.section	.text.sys_clock_tick_get,"ax",%progbits
	.align	1
	.global	sys_clock_tick_get
	.syntax unified
	.thumb
	.thumb_func
	.type	sys_clock_tick_get, %function
sys_clock_tick_get:
.LFB505:
	.loc 1 261 1 is_stmt 1 view -0
	.cfi_startproc
	@ args = 0, pretend = 0, frame = 0
	@ frame_needed = 0, uses_anonymous_args = 0
	.loc 1 262 2 view .LVU509
.LVL95:
	.loc 1 264 2 view .LVU510
.LBB451:
	.loc 1 264 7 view .LVU511
.LBB452:
.LBI452:
	.loc 4 160 63 view .LVU512
.LBB453:
	.loc 4 162 2 view .LVU513
	.loc 4 163 2 view .LVU514
	.loc 4 169 2 view .LVU515
.LBB454:
.LBI454:
	.loc 5 42 59 view .LVU516
.LBB455:
	.loc 5 44 2 view .LVU517
	.loc 5 57 2 view .LVU518
	.loc 5 59 2 view .LVU519
.LBE455:
.LBE454:
.LBE453:
.LBE452:
.LBE451:
	.loc 1 261 1 is_stmt 0 view .LVU520
	push	{r4, lr}
	.cfi_def_cfa_offset 8
	.cfi_offset 4, -8
	.cfi_offset 14, -4
.LBB463:
.LBB459:
.LBB458:
.LBB457:
.LBB456:
	.loc 5 59 2 view .LVU521
	.syntax unified
@ 59 "/home/g/mise-work/zmk-firmware/zmk/zephyr/include/zephyr/arch/arm/asm_inline_gcc.h" 1
	mov r3, #32;mrs r4, BASEPRI;msr BASEPRI_MAX, r3;isb;
@ 0 "" 2
.LVL96:
	.loc 5 88 2 is_stmt 1 view .LVU522
	.loc 5 88 2 is_stmt 0 view .LVU523
	.thumb
	.syntax unified
.LBE456:
.LBE457:
	.loc 4 171 2 is_stmt 1 view .LVU524
	.loc 4 177 2 view .LVU525
	.loc 4 179 2 view .LVU526
	.loc 4 179 2 is_stmt 0 view .LVU527
.LBE458:
.LBE459:
	.loc 1 264 70 is_stmt 1 view .LVU528
	.loc 1 265 3 view .LVU529
	.loc 1 265 19 is_stmt 0 view .LVU530
	bl	elapsed
.LVL97:
	.loc 1 265 17 view .LVU531
	ldr	r2, .L75
	.loc 1 265 19 view .LVU532
	mov	r3, r0
	.loc 1 265 5 view .LVU533
	ldrd	r0, r1, [r2]
	adds	r0, r3, r0
	adc	r1, r1, r3, asr #31
.LVL98:
	.loc 1 264 115 is_stmt 1 view .LVU534
.LBB460:
.LBI460:
	.loc 4 235 51 view .LVU535
	.loc 4 238 2 view .LVU536
	.loc 4 261 2 view .LVU537
.LBB461:
.LBI461:
	.loc 5 96 51 view .LVU538
.LBB462:
	.loc 5 107 2 view .LVU539
	.syntax unified
@ 107 "/home/g/mise-work/zmk-firmware/zmk/zephyr/include/zephyr/arch/arm/asm_inline_gcc.h" 1
	msr BASEPRI, r4;isb;
@ 0 "" 2
.LVL99:
	.loc 5 107 2 is_stmt 0 view .LVU540
	.thumb
	.syntax unified
.LBE462:
.LBE461:
.LBE460:
	.loc 1 264 70 is_stmt 1 view .LVU541
	.loc 1 264 70 is_stmt 0 view .LVU542
.LBE463:
	.loc 1 267 2 is_stmt 1 view .LVU543
	.loc 1 268 1 is_stmt 0 view .LVU544
	pop	{r4, pc}
.L76:
	.align	2
.L75:
	.word	curr_tick
	.cfi_endproc
.LFE505:
	.size	sys_clock_tick_get, .-sys_clock_tick_get
	.section	.text.sys_clock_tick_get_32,"ax",%progbits
	.align	1
	.global	sys_clock_tick_get_32
	.syntax unified
	.thumb
	.thumb_func
	.type	sys_clock_tick_get_32, %function
sys_clock_tick_get_32:
.LFB506:
	.loc 1 271 1 is_stmt 1 view -0
	.cfi_startproc
	@ args = 0, pretend = 0, frame = 0
	@ frame_needed = 0, uses_anonymous_args = 0
	.loc 1 273 2 view .LVU546
	.loc 1 271 1 is_stmt 0 view .LVU547
	push	{r3, lr}
	.cfi_def_cfa_offset 8
	.cfi_offset 3, -8
	.cfi_offset 14, -4
	.loc 1 273 19 view .LVU548
	bl	sys_clock_tick_get
.LVL100:
	.loc 1 277 1 view .LVU549
	pop	{r3, pc}
	.cfi_endproc
.LFE506:
	.size	sys_clock_tick_get_32, .-sys_clock_tick_get_32
	.section	.text.z_impl_k_uptime_ticks,"ax",%progbits
	.align	1
	.global	z_impl_k_uptime_ticks
	.syntax unified
	.thumb
	.thumb_func
	.type	z_impl_k_uptime_ticks, %function
z_impl_k_uptime_ticks:
.LFB507:
	.loc 1 280 1 is_stmt 1 view -0
	.cfi_startproc
	@ args = 0, pretend = 0, frame = 0
	@ frame_needed = 0, uses_anonymous_args = 0
	@ link register save eliminated.
	.loc 1 281 2 view .LVU551
	.loc 1 281 9 is_stmt 0 view .LVU552
	b	sys_clock_tick_get
.LVL101:
	.cfi_endproc
.LFE507:
	.size	z_impl_k_uptime_ticks, .-z_impl_k_uptime_ticks
	.section	.text.sys_timepoint_calc,"ax",%progbits
	.align	1
	.global	sys_timepoint_calc
	.syntax unified
	.thumb
	.thumb_func
	.type	sys_timepoint_calc, %function
sys_timepoint_calc:
.LVL102:
.LFB508:
	.loc 1 293 1 is_stmt 1 view -0
	.cfi_startproc
	@ args = 0, pretend = 0, frame = 0
	@ frame_needed = 0, uses_anonymous_args = 0
.LBB464:
	.loc 1 296 5 is_stmt 0 view .LVU554
	cmp	r3, #-1
	it	eq
	cmpeq	r2, #-1
.LBE464:
	.loc 1 293 1 view .LVU555
	push	{r4, r5, r6, lr}
	.cfi_def_cfa_offset 16
	.cfi_offset 4, -16
	.cfi_offset 5, -12
	.cfi_offset 6, -8
	.cfi_offset 14, -4
	.loc 1 293 1 view .LVU556
	mov	r4, r0
	mov	r5, r3
	.loc 1 293 1 view .LVU557
	mov	r6, r2
.LVL103:
	.loc 1 294 2 is_stmt 1 view .LVU558
	.loc 1 296 2 view .LVU559
.LBB468:
	.loc 1 296 5 is_stmt 0 view .LVU560
	beq	.L82
	.loc 1 298 9 is_stmt 1 view .LVU561
.LBB465:
	.loc 1 298 12 is_stmt 0 view .LVU562
	orrs	r2, r2, r3
.LVL104:
	.loc 1 298 12 view .LVU563
	beq	.L83
.LBB466:
	.loc 1 301 3 is_stmt 1 view .LVU564
	.loc 1 303 3 view .LVU565
	.loc 1 303 34 is_stmt 0 view .LVU566
	mvn	r2, #1
	subs	r2, r2, r6
	mov	r3, #-1
.LVL105:
	.loc 1 303 34 view .LVU567
	sbc	r1, r3, r5
	.loc 1 303 6 view .LVU568
	cmp	r1, #0
	bge	.L80
	.loc 1 306 4 is_stmt 1 view .LVU569
	.loc 1 306 21 is_stmt 0 view .LVU570
	bl	sys_clock_tick_get
.LVL106:
	.loc 1 306 42 view .LVU571
	adds	r2, r0, r6
.LVL107:
	.loc 1 306 42 view .LVU572
	adc	r1, r1, r5
.LVL108:
.L80:
	.loc 1 306 42 view .LVU573
.LBE466:
.LBE465:
.LBE468:
	.loc 1 310 2 is_stmt 1 discriminator 1 view .LVU574
	.loc 1 310 9 is_stmt 0 discriminator 1 view .LVU575
	strd	r2, r1, [r4]
.LVL109:
	.loc 1 311 1 discriminator 1 view .LVU576
	mov	r0, r4
	pop	{r4, r5, r6, pc}
.LVL110:
.L82:
.LBB469:
	.loc 1 297 18 view .LVU577
	mov	r2, #-1
.LVL111:
.L84:
.LBB467:
	.loc 1 299 18 view .LVU578
	mov	r1, r2
	b	.L80
.L83:
	movs	r2, #0
	b	.L84
.LBE467:
.LBE469:
	.cfi_endproc
.LFE508:
	.size	sys_timepoint_calc, .-sys_timepoint_calc
	.section	.text.sys_timepoint_timeout,"ax",%progbits
	.align	1
	.global	sys_timepoint_timeout
	.syntax unified
	.thumb
	.thumb_func
	.type	sys_timepoint_timeout, %function
sys_timepoint_timeout:
.LVL112:
.LFB509:
	.loc 1 314 1 is_stmt 1 view -0
	.cfi_startproc
	@ args = 0, pretend = 0, frame = 0
	@ frame_needed = 0, uses_anonymous_args = 0
	.loc 1 315 2 view .LVU580
	.loc 1 317 2 view .LVU581
	.loc 1 317 5 is_stmt 0 view .LVU582
	cmp	r3, #-1
	it	eq
	cmpeq	r2, #-1
	.loc 1 314 1 view .LVU583
	push	{r3, r4, r5, r6, r7, lr}
	.cfi_def_cfa_offset 24
	.cfi_offset 3, -24
	.cfi_offset 4, -20
	.cfi_offset 5, -16
	.cfi_offset 6, -12
	.cfi_offset 7, -8
	.cfi_offset 14, -4
.LVL113:
	.loc 1 314 1 view .LVU584
	mov	r7, r0
	mov	r6, r2
.LVL114:
	.loc 1 314 1 view .LVU585
	mov	r4, r3
	.loc 1 317 5 view .LVU586
	beq	.L88
	.loc 1 320 2 is_stmt 1 view .LVU587
.LVL115:
	.loc 1 320 5 is_stmt 0 view .LVU588
	orrs	r3, r4, r2
.LVL116:
	.loc 1 320 5 view .LVU589
	beq	.L89
	.loc 1 324 2 is_stmt 1 view .LVU590
	.loc 1 324 8 is_stmt 0 view .LVU591
	bl	sys_clock_tick_get
.LVL117:
	.loc 1 325 62 view .LVU592
	cmp	r0, r6
	.loc 1 324 6 view .LVU593
	mov	r2, r1
.LVL118:
	.loc 1 325 2 is_stmt 1 view .LVU594
	.loc 1 325 62 is_stmt 0 view .LVU595
	sbcs	r1, r1, r4
.LVL119:
	.loc 1 324 6 view .LVU596
	mov	r3, r0
	.loc 1 325 62 view .LVU597
	bcs	.L89
	.loc 1 325 62 discriminator 1 view .LVU598
	subs	r3, r6, r3
	sbc	r4, r4, r2
.LVL120:
.L86:
.LBB470:
	.loc 1 318 10 discriminator 1 view .LVU599
	strd	r3, r4, [r7]
.LBE470:
	.loc 1 327 1 discriminator 1 view .LVU600
	mov	r0, r7
	pop	{r3, r4, r5, r6, r7, pc}
.LVL121:
.L88:
	.loc 1 327 1 discriminator 1 view .LVU601
	mov	r3, #-1
.LVL122:
.L91:
	.loc 1 327 1 discriminator 1 view .LVU602
	mov	r4, r3
.LVL123:
	.loc 1 327 1 discriminator 1 view .LVU603
	b	.L86
.LVL124:
.L89:
	.loc 1 327 1 discriminator 1 view .LVU604
	movs	r3, #0
	b	.L91
	.cfi_endproc
.LFE509:
	.size	sys_timepoint_timeout, .-sys_timepoint_timeout
	.section	.bss.announce_remaining,"aw",%nobits
	.align	2
	.type	announce_remaining, %object
	.size	announce_remaining, 4
announce_remaining:
	.space	4
	.section	.data.timeout_list,"aw"
	.align	2
	.type	timeout_list, %object
	.size	timeout_list, 8
timeout_list:
	.word	timeout_list
	.word	timeout_list
	.section	.bss.curr_tick,"aw",%nobits
	.align	3
	.type	curr_tick, %object
	.size	curr_tick, 8
curr_tick:
	.space	8
	.text
.Letext0:
	.file 6 "/home/g/zephyr-sdk-0.16.3/arm-zephyr-eabi/lib/gcc/arm-zephyr-eabi/12.2.0/include/stddef.h"
	.file 7 "/home/g/zephyr-sdk-0.16.3/arm-zephyr-eabi/picolibc/include/machine/_default_types.h"
	.file 8 "/home/g/zephyr-sdk-0.16.3/arm-zephyr-eabi/picolibc/include/sys/_stdint.h"
	.file 9 "/home/g/mise-work/zmk-firmware/zmk/zephyr/include/zephyr/kernel_structs.h"
	.file 10 "/home/g/mise-work/zmk-firmware/zmk/zephyr/include/zephyr/sys_clock.h"
	.file 11 "/home/g/mise-work/zmk-firmware/zmk/zephyr/include/zephyr/fatal_types.h"
	.file 12 "/home/g/mise-work/zmk-firmware/zmk/zephyr/include/zephyr/kernel.h"
	.file 13 "/home/g/mise-work/zmk-firmware/zmk/zephyr/kernel/include/ksched.h"
	.file 14 "/home/g/mise-work/zmk-firmware/zmk/zephyr/include/zephyr/drivers/timer/system_timer.h"