	.cpu cortex-m4
	.arch armv7e-m
	.fpu fpv4-sp-d16
	.eabi_attribute 27, 1
	.eabi_attribute 28, 1
	.eabi_attribute 20, 1
	.eabi_attribute 21, 1
	.eabi_attribute 23, 3
	.eabi_attribute 24, 1
	.eabi_attribute 25, 1
	.eabi_attribute 26, 1
	.eabi_attribute 30, 4
	.eabi_attribute 34, 1
	.eabi_attribute 38, 1
	.eabi_attribute 18, 4
	.file	"xip.c"
	.text
.Ltext0:
	.cfi_sections	.debug_frame
	.file 1 "/home/g/mise-work/zmk-firmware/zmk/zephyr/kernel/xip.c"
	.section	.text.z_data_copy,"ax",%progbits
	.align	1
	.global	z_data_copy
	.syntax unified
	.thumb
	.thumb_func
	.type	z_data_copy, %function
z_data_copy:
.LFB455:
	.loc 1 27 1 view -0
	.cfi_startproc
	@ args = 0, pretend = 0, frame = 0
	@ frame_needed = 0, uses_anonymous_args = 0
	.loc 1 28 2 view .LVU1
	.loc 1 27 1 is_stmt 0 view .LVU2
	push	{r3, lr}
	.cfi_def_cfa_offset 8
	.cfi_offset 3, -8
	.cfi_offset 14, -4
	.loc 1 29 28 view .LVU3
	ldr	r0, .L2
	.loc 1 28 2 view .LVU4
	ldr	r2, .L2+4
	ldr	r1, .L2+8
	subs	r2, r2, r0
	bl	z_early_memcpy
.LVL0:
	.loc 1 31 2 is_stmt 1 view .LVU5
	.loc 1 75 1 is_stmt 0 view .LVU6
	pop	{r3, lr}
	.cfi_restore 14
	.cfi_restore 3
	.cfi_def_cfa_offset 0
	.loc 1 31 2 view .LVU7
	ldr	r2, .L2+12
	ldr	r1, .L2+16
	ldr	r0, .L2+20
	b	z_early_memcpy
.LVL1:
.L3:
	.align	2
.L2:
	.word	__data_region_start
	.word	__data_region_end
	.word	__data_region_load_start
	.word	__ramfunc_size
	.word	__ramfunc_load_start
	.word	__ramfunc_start
	.cfi_endproc
.LFE455:
	.size	z_data_copy, .-z_data_copy
	.text
.Letext0:
	.file 2 "/home/g/zephyr-sdk-0.16.3/arm-zephyr-eabi/lib/gcc/arm-zephyr-eabi/12.2.0/include/stddef.h"
	.file 3 "/home/g/zephyr-sdk-0.16.3/arm-zephyr-eabi/picolibc/include/machine/_default_types.h"
	.file 4 "/home/g/zephyr-sdk-0.16.3/arm-zephyr-eabi/picolibc/include/sys/_stdint.h"
	.file 5 "/home/g/mise-work/zmk-firmware/zmk/zephyr/include/zephyr/linker/linker-defs.h"
	.file 6 "/home/g/mise-work/zmk-firmware/zmk/zephyr/kernel/include/kernel_internal.h"