	.cpu cortex-m4
	.arch armv7e-m
	.fpu fpv4-sp-d16
	.eabi_attribute 27, 1
	.eabi_attribute 28, 1
	.eabi_attribute 20, 1
	.eabi_attribute 21, 1
	.eabi_attribute 23, 3
	.eabi_attribute 24, 1
	.eabi_attribute 25, 1
	.eabi_attribute 26, 1
	.eabi_attribute 30, 4
	.eabi_attribute 34, 1
	.eabi_attribute 38, 1
	.eabi_attribute 18, 4
	.file	"assert.c"
	.text
.Ltext0:
	.cfi_sections	.debug_frame
	.file 1 "/home/g/mise-work/zmk-firmware/zmk/zephyr/lib/os/assert.c"
	.section	.text.assert_post_action,"ax",%progbits
	.align	1
	.weak	assert_post_action
	.syntax unified
	.thumb
	.thumb_func
	.type	assert_post_action, %function
assert_post_action:
.LVL0:
.LFB444:
	.loc 1 28 1 view -0
	.cfi_startproc
	@ args = 0, pretend = 0, frame = 0
	@ frame_needed = 0, uses_anonymous_args = 0
	@ link register save eliminated.
	.loc 1 30 2 view .LVU1
	.loc 1 31 2 view .LVU2
	.loc 1 43 2 view .LVU3
	.loc 1 43 7 view .LVU4
	.syntax unified
@ 43 "/home/g/mise-work/zmk-firmware/zmk/zephyr/lib/os/assert.c" 1
	eors.n r0, r0
	msr BASEPRI, r0
	mov r0, #4
	svc #2
	
@ 0 "" 2
	.loc 1 43 5 view .LVU5
	.loc 1 44 1 is_stmt 0 view .LVU6
	.thumb
	.syntax unified
	bx	lr
	.cfi_endproc
.LFE444:
	.size	assert_post_action, .-assert_post_action
	.section	.text.assert_print,"ax",%progbits
	.align	1
	.global	assert_print
	.syntax unified
	.thumb
	.thumb_func
	.type	assert_print, %function
assert_print:
.LVL1:
.LFB445:
	.loc 1 47 1 is_stmt 1 view -0
	.cfi_startproc
	@ args = 4, pretend = 16, frame = 8
	@ frame_needed = 0, uses_anonymous_args = 1
	.loc 1 48 2 view .LVU8
	.loc 1 50 1 view .LVU9
	.loc 1 47 1 is_stmt 0 view .LVU10
	push	{r0, r1, r2, r3}
	.cfi_def_cfa_offset 16
	.cfi_offset 0, -16
	.cfi_offset 1, -12
	.cfi_offset 2, -8
	.cfi_offset 3, -4
	push	{r0, r1, r2, lr}
	.cfi_def_cfa_offset 32
	.cfi_offset 14, -20
	.loc 1 47 1 view .LVU11
	add	r1, sp, #16
	ldr	r0, [r1], #4
	.loc 1 50 1 view .LVU12
	str	r1, [sp, #4]
	.loc 1 52 2 is_stmt 1 view .LVU13
	bl	vprintk
.LVL2:
	.loc 1 54 1 view .LVU14
	.loc 1 55 1 is_stmt 0 view .LVU15
	add	sp, sp, #12
	.cfi_def_cfa_offset 20
	@ sp needed
	ldr	lr, [sp], #4
	.cfi_restore 14
	.cfi_def_cfa_offset 16
	add	sp, sp, #16
	.cfi_restore 3
	.cfi_restore 2
	.cfi_restore 1
	.cfi_restore 0
	.cfi_def_cfa_offset 0
	bx	lr
	.cfi_endproc
.LFE445:
	.size	assert_print, .-assert_print
	.text
.Letext0:
	.file 2 "/home/g/zephyr-sdk-0.16.3/arm-zephyr-eabi/lib/gcc/arm-zephyr-eabi/12.2.0/include/stdarg.h"
	.file 3 "<built-in>"
	.file 4 "/home/g/mise-work/zmk-firmware/zmk/zephyr/include/zephyr/fatal_types.h"
	.file 5 "/home/g/mise-work/zmk-firmware/zmk/zephyr/include/zephyr/sys/printk.h"