	.cpu cortex-m4
	.arch armv7e-m
	.fpu fpv4-sp-d16
	.eabi_attribute 27, 1
	.eabi_attribute 28, 1
	.eabi_attribute 20, 1
	.eabi_attribute 21, 1
	.eabi_attribute 23, 3
	.eabi_attribute 24, 1
	.eabi_attribute 25, 1
	.eabi_attribute 26, 1
	.eabi_attribute 30, 4
	.eabi_attribute 34, 1
	.eabi_attribute 38, 1
	.eabi_attribute 18, 4
	.file	"bitarray.c"
	.text
.Ltext0:
	.cfi_sections	.debug_frame
	.file 1 "/home/g/mise-work/zmk-firmware/zmk/zephyr/lib/os/bitarray.c"
	.section	.text.setup_bundle_data.constprop.0,"ax",%progbits
	.align	1
	.syntax unified
	.thumb
	.thumb_func
	.type	setup_bundle_data.constprop.0, %function
setup_bundle_data.constprop.0:
.LVL0:
.LFB461:
	.loc 1 29 13 view -0
	.cfi_startproc
	@ args = 0, pretend = 0, frame = 0
	@ frame_needed = 0, uses_anonymous_args = 0
	.loc 1 33 2 view .LVU1
	.loc 1 36 32 is_stmt 0 view .LVU2
	subs	r2, r2, #1
.LVL1:
	.loc 1 36 32 view .LVU3
	add	r2, r2, r1
.LVL2:
	.loc 1 34 20 view .LVU4
	and	r3, r1, #31
	.loc 1 29 13 view .LVU5
	push	{r4, r5, lr}
	.cfi_def_cfa_offset 12
	.cfi_offset 4, -12
	.cfi_offset 5, -8
	.cfi_offset 14, -4
	.loc 1 33 20 view .LVU6
	lsrs	r4, r1, #5
	.loc 1 36 37 view .LVU7
	lsrs	r5, r2, #5
	.loc 1 39 21 view .LVU8
	movs	r1, #1
.LVL3:
	.loc 1 37 37 view .LVU9
	and	r2, r2, #31
	.loc 1 37 11 view .LVU10
	str	r2, [r0, #12]
	.loc 1 40 20 view .LVU11
	lsl	r2, r1, r2
	.loc 1 34 11 view .LVU12
	str	r3, [r0, #8]
	.loc 1 39 21 view .LVU13
	lsl	r3, r1, r3
	.loc 1 40 35 view .LVU14
	subs	r1, r2, #1
	.loc 1 39 14 view .LVU15
	rsbs	r3, r3, #0
	.loc 1 40 40 view .LVU16
	orrs	r2, r2, r1
	.loc 1 42 5 view .LVU17
	cmp	r4, r5
	.loc 1 39 12 view .LVU18
	str	r3, [r0, #16]
	.loc 1 44 13 view .LVU19
	it	eq
	andeq	r3, r3, r2
	.loc 1 33 11 view .LVU20
	str	r4, [r0]
	.loc 1 34 2 is_stmt 1 view .LVU21
	.loc 1 36 2 view .LVU22
	.loc 1 36 11 is_stmt 0 view .LVU23
	str	r5, [r0, #4]
	.loc 1 37 2 is_stmt 1 view .LVU24
	.loc 1 39 2 view .LVU25
	.loc 1 40 2 view .LVU26
	.loc 1 40 12 is_stmt 0 view .LVU27
	str	r2, [r0, #20]
	.loc 1 42 2 is_stmt 1 view .LVU28
	.loc 1 44 3 view .LVU29
	.loc 1 44 13 is_stmt 0 view .LVU30
	it	eq
	streq	r3, [r0, #16]
	.loc 1 46 1 view .LVU31
	pop	{r4, r5, pc}
	.cfi_endproc
.LFE461:
	.size	setup_bundle_data.constprop.0, .-setup_bundle_data.constprop.0
	.section	.text.set_region,"ax",%progbits
	.align	1
	.syntax unified
	.thumb
	.thumb_func
	.type	set_region, %function
set_region:
.LVL4:
.LFB446:
	.loc 1 175 1 is_stmt 1 view -0
	.cfi_startproc
	@ args = 4, pretend = 0, frame = 24
	@ frame_needed = 0, uses_anonymous_args = 0
	.loc 1 176 2 view .LVU33
	.loc 1 177 2 view .LVU34
	.loc 1 179 2 view .LVU35
	.loc 1 175 1 is_stmt 0 view .LVU36
	push	{r4, r5, r6, r7, lr}
	.cfi_def_cfa_offset 20
	.cfi_offset 4, -20
	.cfi_offset 5, -16
	.cfi_offset 6, -12
	.cfi_offset 7, -8
	.cfi_offset 14, -4
	sub	sp, sp, #28
	.cfi_def_cfa_offset 48
	.loc 1 175 1 view .LVU37
	mov	r4, r0
	ldr	r0, [sp, #48]
.LVL5:
	.loc 1 175 1 view .LVU38
	mov	r5, r3
	.loc 1 179 5 view .LVU39
	cbnz	r0, .L4
	.loc 1 180 3 is_stmt 1 view .LVU40
.LVL6:
	.loc 1 181 3 view .LVU41
	mov	r0, sp
	bl	setup_bundle_data.constprop.0
.LVL7:
.L4:
	.loc 1 184 2 view .LVU42
	.loc 1 184 8 is_stmt 0 view .LVU43
	ldr	r1, [r0]
	.loc 1 184 5 view .LVU44
	ldr	r7, [r0, #4]
	.loc 1 187 21 view .LVU45
	ldr	r3, [r4, #8]
	.loc 1 187 37 view .LVU46
	ldr	r6, [r0, #16]
	.loc 1 187 21 view .LVU47
	ldr	r2, [r3, r1, lsl #2]
	.loc 1 184 5 view .LVU48
	cmp	r1, r7
	bne	.L5
	.loc 1 186 3 is_stmt 1 view .LVU49
	.loc 1 186 6 is_stmt 0 view .LVU50
	cbz	r5, .L6
	.loc 1 187 4 is_stmt 1 view .LVU51
	.loc 1 187 32 is_stmt 0 view .LVU52
	orrs	r2, r2, r6
.L15:
	.loc 1 189 32 view .LVU53
	str	r2, [r3, r1, lsl #2]
.L3:
	.loc 1 211 1 view .LVU54
	add	sp, sp, #28
	.cfi_remember_state
	.cfi_def_cfa_offset 20
	@ sp needed
	pop	{r4, r5, r6, r7, pc}
.LVL8:
.L6:
	.cfi_restore_state
	.loc 1 189 4 is_stmt 1 view .LVU55
	.loc 1 189 32 is_stmt 0 view .LVU56
	bic	r2, r2, r6
	b	.L15
.L5:
	.loc 1 197 3 is_stmt 1 view .LVU57
	.loc 1 197 6 is_stmt 0 view .LVU58
	cbz	r5, .L8
	.loc 1 198 4 is_stmt 1 view .LVU59
	.loc 1 198 32 is_stmt 0 view .LVU60
	orrs	r2, r2, r6
	str	r2, [r3, r1, lsl #2]
	.loc 1 199 4 is_stmt 1 view .LVU61
	.loc 1 199 21 is_stmt 0 view .LVU62
	ldr	r1, [r0, #4]
	ldr	r2, [r4, #8]
	.loc 1 199 32 view .LVU63
	ldr	r5, [r0, #20]
	ldr	r3, [r2, r1, lsl #2]
	orrs	r3, r3, r5
	str	r3, [r2, r1, lsl #2]
	.loc 1 200 4 is_stmt 1 view .LVU64
	.loc 1 200 13 is_stmt 0 view .LVU65
	ldr	r3, [r0]
	.loc 1 201 28 view .LVU66
	mov	r1, #-1
	.loc 1 200 13 view .LVU67
	adds	r3, r3, #1
.LVL9:
.L9:
	.loc 1 200 33 is_stmt 1 discriminator 1 view .LVU68
	ldr	r2, [r0, #4]
	cmp	r2, r3
	bls	.L3
	.loc 1 201 5 discriminator 3 view .LVU69
	.loc 1 201 28 is_stmt 0 discriminator 3 view .LVU70
	ldr	r2, [r4, #8]
	str	r1, [r2, r3, lsl #2]
	.loc 1 200 48 is_stmt 1 discriminator 3 view .LVU71
	adds	r3, r3, #1
.LVL10:
	.loc 1 200 48 is_stmt 0 discriminator 3 view .LVU72
	b	.L9
.LVL11:
.L8:
	.loc 1 204 4 is_stmt 1 view .LVU73
	.loc 1 204 32 is_stmt 0 view .LVU74
	bic	r2, r2, r6
	str	r2, [r3, r1, lsl #2]
	.loc 1 205 4 is_stmt 1 view .LVU75
	.loc 1 205 21 is_stmt 0 view .LVU76
	ldr	r2, [r4, #8]
	ldr	r1, [r0, #4]
	.loc 1 205 35 view .LVU77
	ldr	r6, [r0, #20]
	.loc 1 205 32 view .LVU78
	ldr	r3, [r2, r1, lsl #2]
	bic	r3, r3, r6
	str	r3, [r2, r1, lsl #2]
	.loc 1 206 4 is_stmt 1 view .LVU79
	.loc 1 206 13 is_stmt 0 view .LVU80
	ldr	r2, [r0]
.L14:
	.loc 1 206 48 is_stmt 1 discriminator 3 view .LVU81
	.loc 1 206 33 is_stmt 0 discriminator 3 view .LVU82
	ldr	r3, [r0, #4]
	.loc 1 206 48 discriminator 3 view .LVU83
	adds	r2, r2, #1
.LVL12:
	.loc 1 206 33 is_stmt 1 discriminator 3 view .LVU84
	cmp	r3, r2
	bls	.L3
	.loc 1 207 5 discriminator 3 view .LVU85
	.loc 1 207 28 is_stmt 0 discriminator 3 view .LVU86
	ldr	r3, [r4, #8]
	str	r5, [r3, r2, lsl #2]
	b	.L14
	.cfi_endproc
.LFE446:
	.size	set_region, .-set_region
	.section	.text.set_clear_region,"ax",%progbits
	.align	1
	.syntax unified
	.thumb
	.thumb_func
	.type	set_clear_region, %function
set_clear_region:
.LVL13:
.LFB457:
	.loc 1 533 1 is_stmt 1 view -0
	.cfi_startproc
	@ args = 0, pretend = 0, frame = 0
	@ frame_needed = 0, uses_anonymous_args = 0
	.loc 1 534 2 view .LVU88
	.loc 1 535 2 view .LVU89
	.loc 1 533 1 is_stmt 0 view .LVU90
	push	{r0, r1, r2, r4, r5, r6, r7, lr}
	.cfi_def_cfa_offset 32
	.cfi_offset 4, -20
	.cfi_offset 5, -16
	.cfi_offset 6, -12
	.cfi_offset 7, -8
	.cfi_offset 14, -4
	.loc 1 533 1 view .LVU91
	mov	r5, r1
	mov	r1, r2
.LVL14:
	.loc 1 535 9 view .LVU92
	subs	r2, r5, #1
.LVL15:
	.loc 1 535 9 view .LVU93
	add	r2, r2, r1
.LVL16:
	.loc 1 536 2 is_stmt 1 view .LVU94
.LBB95:
.LBI95:
	.file 2 "/home/g/mise-work/zmk-firmware/zmk/zephyr/include/zephyr/spinlock.h"
	.loc 2 160 63 view .LVU95
.LBB96:
	.loc 2 162 2 view .LVU96
	.loc 2 163 2 view .LVU97
	.loc 2 169 2 view .LVU98
.LBB97:
.LBI97:
	.file 3 "/home/g/mise-work/zmk-firmware/zmk/zephyr/include/zephyr/arch/arm/asm_inline_gcc.h"
	.loc 3 42 59 view .LVU99
.LBB98:
	.loc 3 44 2 view .LVU100
	.loc 3 57 2 view .LVU101
	.loc 3 59 2 view .LVU102
	.syntax unified
@ 59 "/home/g/mise-work/zmk-firmware/zmk/zephyr/include/zephyr/arch/arm/asm_inline_gcc.h" 1
	mov r7, #32;mrs r6, BASEPRI;msr BASEPRI_MAX, r7;isb;
@ 0 "" 2
.LVL17:
	.loc 3 88 2 view .LVU103
	.loc 3 88 2 is_stmt 0 view .LVU104
	.thumb
	.syntax unified
.LBE98:
.LBE97:
	.loc 2 171 2 is_stmt 1 view .LVU105
	.loc 2 177 2 view .LVU106
	.loc 2 179 2 view .LVU107
	.loc 2 179 2 is_stmt 0 view .LVU108
.LBE96:
.LBE95:
	.loc 1 538 4 is_stmt 1 view .LVU109
	.loc 1 538 5 view .LVU110
	.loc 1 539 4 view .LVU111
	.loc 1 539 5 view .LVU112
	.loc 1 541 2 view .LVU113
	.loc 1 541 5 is_stmt 0 view .LVU114
	cbz	r5, .L21
	.loc 1 542 29 view .LVU115
	ldr	r4, [r0]
	.loc 1 542 6 view .LVU116
	cmp	r4, r5
	bcc	.L21
	.loc 1 543 6 view .LVU117
	cmp	r4, r1
	bls	.L21
	.loc 1 544 6 view .LVU118
	cmp	r4, r2
	bls	.L21
	.loc 1 549 2 is_stmt 1 view .LVU119
	movs	r4, #0
	str	r4, [sp]
	mov	r2, r5
.LVL18:
	.loc 1 549 2 is_stmt 0 view .LVU120
	bl	set_region
.LVL19:
	.loc 1 550 2 is_stmt 1 view .LVU121
	.loc 1 550 6 is_stmt 0 view .LVU122
	mov	r0, r4
.LVL20:
.L17:
	.loc 1 553 2 is_stmt 1 view .LVU123
.LBB99:
.LBI99:
	.loc 2 235 51 view .LVU124
	.loc 2 238 2 view .LVU125
	.loc 2 261 2 view .LVU126
.LBB100:
.LBI100:
	.loc 3 96 51 view .LVU127
.LBB101:
	.loc 3 107 2 view .LVU128
	.syntax unified
@ 107 "/home/g/mise-work/zmk-firmware/zmk/zephyr/include/zephyr/arch/arm/asm_inline_gcc.h" 1
	msr BASEPRI, r6;isb;
@ 0 "" 2
.LVL21:
	.loc 3 107 2 is_stmt 0 view .LVU129
	.thumb
	.syntax unified
.LBE101:
.LBE100:
.LBE99:
	.loc 1 554 2 is_stmt 1 view .LVU130
	.loc 1 555 1 is_stmt 0 view .LVU131
	add	sp, sp, #12
	.cfi_remember_state
	.cfi_def_cfa_offset 20
	@ sp needed
	pop	{r4, r5, r6, r7, pc}
.LVL22:
.L21:
	.cfi_restore_state
	.loc 1 545 7 view .LVU132
	mvn	r0, #21
.LVL23:
	.loc 1 545 7 view .LVU133
	b	.L17
	.cfi_endproc
.LFE457:
	.size	set_clear_region, .-set_clear_region
	.section	.text.match_region,"ax",%progbits
	.align	1
	.syntax unified
	.thumb
	.thumb_func
	.type	match_region, %function
match_region:
.LVL24:
.LFB445:
	.loc 1 69 1 is_stmt 1 view -0
	.cfi_startproc
	@ args = 8, pretend = 0, frame = 0
	@ frame_needed = 0, uses_anonymous_args = 0
	.loc 1 70 2 view .LVU135
	.loc 1 71 2 view .LVU136
	.loc 1 72 2 view .LVU137
	.loc 1 73 2 view .LVU138
	.loc 1 74 2 view .LVU139
	.loc 1 76 2 view .LVU140
	.loc 1 69 1 is_stmt 0 view .LVU141
	push	{r3, r4, r5, r6, r7, lr}
	.cfi_def_cfa_offset 24
	.cfi_offset 3, -24
	.cfi_offset 4, -20
	.cfi_offset 5, -16
	.cfi_offset 6, -12
	.cfi_offset 7, -8
	.cfi_offset 14, -4
	.loc 1 69 1 view .LVU142
	mov	r6, r0
	ldrd	r0, r5, [sp, #24]
.LVL25:
	.loc 1 69 1 view .LVU143
	mov	r4, r3
	.loc 1 76 2 view .LVU144
	bl	setup_bundle_data.constprop.0
.LVL26:
	.loc 1 78 2 is_stmt 1 view .LVU145
	.loc 1 78 20 is_stmt 0 view .LVU146
	ldrd	r1, r3, [r0]
	.loc 1 78 5 view .LVU147
	cmp	r1, r3
	ldr	r6, [r6, #8]
.LVL27:
	.loc 1 78 5 view .LVU148
	ldr	r2, [r0, #16]
	bne	.L23
	.loc 1 79 3 is_stmt 1 view .LVU149
	.loc 1 79 10 is_stmt 0 view .LVU150
	ldr	r3, [r6, r1, lsl #2]
.LVL28:
	.loc 1 80 3 is_stmt 1 view .LVU151
	.loc 1 80 6 is_stmt 0 view .LVU152
	cbnz	r4, .L24
	.loc 1 81 4 is_stmt 1 view .LVU153
	.loc 1 81 11 is_stmt 0 view .LVU154
	mvns	r3, r3
.LVL29:
.L24:
	.loc 1 84 3 is_stmt 1 view .LVU155
	.loc 1 84 6 is_stmt 0 view .LVU156
	bics	r0, r2, r3
	beq	.L37
	.loc 1 86 4 is_stmt 1 view .LVU157
	.loc 1 86 20 is_stmt 0 view .LVU158
	bic	r2, r2, r3
.LVL30:
	.loc 1 87 4 is_stmt 1 view .LVU159
	.loc 1 88 4 view .LVU160
.L26:
	.loc 1 146 2 view .LVU161
	.loc 1 146 5 is_stmt 0 view .LVU162
	cbnz	r5, .L34
.L36:
	.loc 1 157 8 view .LVU163
	movs	r0, #0
.LVL31:
.L25:
	.loc 1 158 1 view .LVU164
	pop	{r3, r4, r5, r6, r7, pc}
.LVL32:
.L23:
	.loc 1 98 2 is_stmt 1 view .LVU165
	.loc 1 98 9 is_stmt 0 view .LVU166
	ldr	r7, [r6, r1, lsl #2]
.LVL33:
	.loc 1 99 2 is_stmt 1 view .LVU167
	.loc 1 99 5 is_stmt 0 view .LVU168
	cbnz	r4, .L27
	.loc 1 100 3 is_stmt 1 view .LVU169
	.loc 1 100 10 is_stmt 0 view .LVU170
	mvns	r7, r7
.LVL34:
.L27:
	.loc 1 103 2 is_stmt 1 view .LVU171
	.loc 1 103 5 is_stmt 0 view .LVU172
	bics	ip, r2, r7
	beq	.L28
	.loc 1 105 3 is_stmt 1 view .LVU173
	.loc 1 105 19 is_stmt 0 view .LVU174
	bic	r2, r2, r7
.LVL35:
	.loc 1 106 3 is_stmt 1 view .LVU175
	.loc 1 107 3 view .LVU176
	b	.L26
.LVL36:
.L28:
	.loc 1 111 2 view .LVU177
	.loc 1 111 9 is_stmt 0 view .LVU178
	ldr	r7, [r6, r3, lsl #2]
.LVL37:
	.loc 1 112 2 is_stmt 1 view .LVU179
	.loc 1 112 5 is_stmt 0 view .LVU180
	cbnz	r4, .L29
	.loc 1 113 3 is_stmt 1 view .LVU181
	.loc 1 113 10 is_stmt 0 view .LVU182
	mvns	r7, r7
.LVL38:
.L29:
	.loc 1 116 2 is_stmt 1 view .LVU183
	.loc 1 116 18 is_stmt 0 view .LVU184
	ldr	r2, [r0, #20]
	.loc 1 116 5 view .LVU185
	bics	r0, r2, r7
	beq	.L41
	.loc 1 118 3 is_stmt 1 view .LVU186
	.loc 1 118 19 is_stmt 0 view .LVU187
	bic	r2, r2, r7
.LVL39:
	.loc 1 119 3 is_stmt 1 view .LVU188
	.loc 1 120 3 view .LVU189
	mov	r1, r3
	b	.L26
.LVL40:
.L33:
	.loc 1 128 3 view .LVU190
	.loc 1 128 10 is_stmt 0 view .LVU191
	ldr	r2, [r6, r1, lsl #2]
.LVL41:
	.loc 1 129 3 is_stmt 1 view .LVU192
	.loc 1 129 6 is_stmt 0 view .LVU193
	cbz	r4, .L32
	.loc 1 130 4 is_stmt 1 view .LVU194
	.loc 1 130 11 is_stmt 0 view .LVU195
	mvns	r2, r2
.LVL42:
.L32:
	.loc 1 133 3 is_stmt 1 view .LVU196
	.loc 1 133 6 is_stmt 0 view .LVU197
	cmp	r2, #0
	bne	.L26
.LVL43:
.L41:
	.loc 1 124 46 is_stmt 1 discriminator 2 view .LVU198
	adds	r1, r1, #1
.LVL44:
	.loc 1 124 31 discriminator 2 view .LVU199
	cmp	r3, r1
	bhi	.L33
.LVL45:
.L37:
	.loc 1 143 8 is_stmt 0 view .LVU200
	movs	r0, #1
	b	.L25
.LVL46:
.L34:
	.loc 1 150 5 is_stmt 1 view .LVU201
	.loc 1 150 6 view .LVU202
	.loc 1 152 3 view .LVU203
.LBB102:
.LBI102:
	.file 4 "/home/g/mise-work/zmk-firmware/zmk/zephyr/include/zephyr/arch/common/ffs.h"
	.loc 4 53 59 view .LVU204
.LBB103:
	.loc 4 56 2 view .LVU205
	.loc 4 56 9 is_stmt 0 view .LVU206
	rbit	r3, r2
	cmp	r2, #0
	clz	r3, r3
	it	eq
	moveq	r3, #-1
.LVL47:
	.loc 4 56 9 view .LVU207
.LBE103:
.LBE102:
	.loc 1 153 3 is_stmt 1 view .LVU208
	.loc 1 155 3 view .LVU209
	.loc 1 153 20 is_stmt 0 view .LVU210
	add	r3, r3, r1, lsl #5
.LVL48:
	.loc 1 155 13 view .LVU211
	str	r3, [r5]
	b	.L36
	.cfi_endproc
.LFE445:
	.size	match_region, .-match_region
	.section	.text.is_region_set_clear,"ax",%progbits
	.align	1
	.syntax unified
	.thumb
	.thumb_func
	.type	is_region_set_clear, %function
is_region_set_clear:
.LVL49:
.LFB454:
	.loc 1 495 1 is_stmt 1 view -0
	.cfi_startproc
	@ args = 0, pretend = 0, frame = 24
	@ frame_needed = 0, uses_anonymous_args = 0
	.loc 1 496 1 view .LVU213
	.loc 1 497 2 view .LVU214
	.loc 1 498 2 view .LVU215
	.loc 1 495 1 is_stmt 0 view .LVU216
	push	{r4, r5, r6, lr}
	.cfi_def_cfa_offset 16
	.cfi_offset 4, -16
	.cfi_offset 5, -12
	.cfi_offset 6, -8
	.cfi_offset 14, -4
	mov	r5, r1
	sub	sp, sp, #32
	.cfi_def_cfa_offset 48
	.loc 1 495 1 view .LVU217
	mov	r1, r2
.LVL50:
	.loc 1 499 2 is_stmt 1 view .LVU218
.LBB104:
.LBI104:
	.loc 2 160 63 view .LVU219
.LBB105:
	.loc 2 162 2 view .LVU220
	.loc 2 163 2 view .LVU221
	.loc 2 169 2 view .LVU222
.LBB106:
.LBI106:
	.loc 3 42 59 view .LVU223
.LBB107:
	.loc 3 44 2 view .LVU224
	.loc 3 57 2 view .LVU225
	.loc 3 59 2 view .LVU226
	.syntax unified
@ 59 "/home/g/mise-work/zmk-firmware/zmk/zephyr/include/zephyr/arch/arm/asm_inline_gcc.h" 1
	mov r2, #32;mrs r6, BASEPRI;msr BASEPRI_MAX, r2;isb;
@ 0 "" 2
.LVL51:
	.loc 3 88 2 view .LVU227
	.loc 3 88 2 is_stmt 0 view .LVU228
	.thumb
	.syntax unified
.LBE107:
.LBE106:
	.loc 2 171 2 is_stmt 1 view .LVU229
	.loc 2 177 2 view .LVU230
	.loc 2 179 2 view .LVU231
	.loc 2 179 2 is_stmt 0 view .LVU232
.LBE105:
.LBE104:
	.loc 1 501 4 is_stmt 1 view .LVU233
	.loc 1 501 5 view .LVU234
	.loc 1 502 4 view .LVU235
	.loc 1 502 5 view .LVU236
	.loc 1 504 2 view .LVU237
	.loc 1 504 5 is_stmt 0 view .LVU238
	cbz	r5, .L46
	.loc 1 505 29 view .LVU239
	ldr	r4, [r0]
	.loc 1 505 6 view .LVU240
	cmp	r4, r5
	bcc	.L46
	.loc 1 506 6 view .LVU241
	cmp	r4, r1
	bls	.L46
	.loc 1 498 9 view .LVU242
	subs	r2, r5, #1
.LVL52:
	.loc 1 498 9 view .LVU243
	add	r2, r2, r1
.LVL53:
	.loc 1 507 6 view .LVU244
	cmp	r4, r2
	mov	r4, #0
	bls	.L47
	.loc 1 512 2 is_stmt 1 view .LVU245
	.loc 1 512 8 is_stmt 0 view .LVU246
	add	r2, sp, #8
	str	r2, [sp]
	str	r4, [sp, #4]
	mov	r2, r5
	bl	match_region
.LVL54:
.L43:
	.loc 1 515 2 is_stmt 1 view .LVU247
.LBB108:
.LBI108:
	.loc 2 235 51 view .LVU248
	.loc 2 238 2 view .LVU249
	.loc 2 261 2 view .LVU250
.LBB109:
.LBI109:
	.loc 3 96 51 view .LVU251
.LBB110:
	.loc 3 107 2 view .LVU252
	.syntax unified
@ 107 "/home/g/mise-work/zmk-firmware/zmk/zephyr/include/zephyr/arch/arm/asm_inline_gcc.h" 1
	msr BASEPRI, r6;isb;
@ 0 "" 2
.LVL55:
	.loc 3 107 2 is_stmt 0 view .LVU253
	.thumb
	.syntax unified
.LBE110:
.LBE109:
.LBE108:
	.loc 1 516 2 is_stmt 1 view .LVU254
	.loc 1 517 1 is_stmt 0 view .LVU255
	add	sp, sp, #32
	.cfi_remember_state
	.cfi_def_cfa_offset 16
	@ sp needed
	pop	{r4, r5, r6, pc}
.LVL56:
.L46:
	.cfi_restore_state
	.loc 1 508 7 view .LVU256
	movs	r0, #0
.LVL57:
	.loc 1 508 7 view .LVU257
	b	.L43
.LVL58:
.L47:
	.loc 1 508 7 view .LVU258
	mov	r0, r4
.LVL59:
	.loc 1 508 7 view .LVU259
	b	.L43
	.cfi_endproc
.LFE454:
	.size	is_region_set_clear, .-is_region_set_clear
	.section	.text.sys_bitarray_set_bit,"ax",%progbits
	.align	1
	.global	sys_bitarray_set_bit
	.syntax unified
	.thumb
	.thumb_func
	.type	sys_bitarray_set_bit, %function
sys_bitarray_set_bit:
.LVL60:
.LFB447:
	.loc 1 214 1 is_stmt 1 view -0
	.cfi_startproc
	@ args = 0, pretend = 0, frame = 0
	@ frame_needed = 0, uses_anonymous_args = 0
	.loc 1 215 2 view .LVU261
	.loc 1 216 2 view .LVU262
	.loc 1 217 2 view .LVU263
	.loc 1 219 2 view .LVU264
.LBB111:
.LBI111:
	.loc 2 160 63 view .LVU265
.LBB112:
	.loc 2 162 2 view .LVU266
	.loc 2 163 2 view .LVU267
	.loc 2 169 2 view .LVU268
.LBB113:
.LBI113:
	.loc 3 42 59 view .LVU269
.LBB114:
	.loc 3 44 2 view .LVU270
	.loc 3 57 2 view .LVU271
	.loc 3 59 2 view .LVU272
.LBE114:
.LBE113:
.LBE112:
.LBE111:
	.loc 1 214 1 is_stmt 0 view .LVU273
	push	{r4, r5, lr}
	.cfi_def_cfa_offset 12
	.cfi_offset 4, -12
	.cfi_offset 5, -8
	.cfi_offset 14, -4
.LBB118:
.LBB117:
.LBB116:
.LBB115:
	.loc 3 59 2 view .LVU274
	.syntax unified
@ 59 "/home/g/mise-work/zmk-firmware/zmk/zephyr/include/zephyr/arch/arm/asm_inline_gcc.h" 1
	mov r3, #32;mrs r5, BASEPRI;msr BASEPRI_MAX, r3;isb;
@ 0 "" 2
.LVL61:
	.loc 3 88 2 is_stmt 1 view .LVU275
	.loc 3 88 2 is_stmt 0 view .LVU276
	.thumb
	.syntax unified
.LBE115:
.LBE116:
	.loc 2 171 2 is_stmt 1 view .LVU277
	.loc 2 177 2 view .LVU278
	.loc 2 179 2 view .LVU279
	.loc 2 179 2 is_stmt 0 view .LVU280
.LBE117:
.LBE118:
	.loc 1 221 4 is_stmt 1 view .LVU281
	.loc 1 221 5 view .LVU282
	.loc 1 222 4 view .LVU283
	.loc 1 222 5 view .LVU284
	.loc 1 224 2 view .LVU285
	.loc 1 224 5 is_stmt 0 view .LVU286
	ldr	r3, [r0]
	cmp	r3, r1
	bls	.L50
	.loc 1 229 2 is_stmt 1 view .LVU287
.LVL62:
	.loc 1 230 2 view .LVU288
	.loc 1 232 2 view .LVU289
	.loc 1 232 19 is_stmt 0 view .LVU290
	ldr	r0, [r0, #8]
.LVL63:
	.loc 1 229 6 view .LVU291
	lsrs	r4, r1, #5
.LVL64:
	.loc 1 232 33 view .LVU292
	movs	r2, #1
	.loc 1 232 25 view .LVU293
	ldr	r3, [r0, r4, lsl #2]
	.loc 1 230 6 view .LVU294
	and	r1, r1, #31
.LVL65:
	.loc 1 232 33 view .LVU295
	lsls	r2, r2, r1
	.loc 1 232 25 view .LVU296
	orrs	r3, r3, r2
	str	r3, [r0, r4, lsl #2]
	.loc 1 234 2 is_stmt 1 view .LVU297
.LVL66:
	.loc 1 234 6 is_stmt 0 view .LVU298
	movs	r0, #0
.LVL67:
.L49:
	.loc 1 237 2 is_stmt 1 view .LVU299
.LBB119:
.LBI119:
	.loc 2 235 51 view .LVU300
	.loc 2 238 2 view .LVU301
	.loc 2 261 2 view .LVU302
.LBB120:
.LBI120:
	.loc 3 96 51 view .LVU303
.LBB121:
	.loc 3 107 2 view .LVU304
	.syntax unified
@ 107 "/home/g/mise-work/zmk-firmware/zmk/zephyr/include/zephyr/arch/arm/asm_inline_gcc.h" 1
	msr BASEPRI, r5;isb;
@ 0 "" 2
.LVL68:
	.loc 3 107 2 is_stmt 0 view .LVU305
	.thumb
	.syntax unified
.LBE121:
.LBE120:
.LBE119:
	.loc 1 238 2 is_stmt 1 view .LVU306
	.loc 1 239 1 is_stmt 0 view .LVU307
	pop	{r4, r5, pc}
.LVL69:
.L50:
	.loc 1 225 7 view .LVU308
	mvn	r0, #21
.LVL70:
	.loc 1 225 7 view .LVU309
	b	.L49
	.cfi_endproc
.LFE447:
	.size	sys_bitarray_set_bit, .-sys_bitarray_set_bit
	.section	.text.sys_bitarray_clear_bit,"ax",%progbits
	.align	1
	.global	sys_bitarray_clear_bit
	.syntax unified
	.thumb
	.thumb_func
	.type	sys_bitarray_clear_bit, %function
sys_bitarray_clear_bit:
.LVL71:
.LFB448:
	.loc 1 242 1 is_stmt 1 view -0
	.cfi_startproc
	@ args = 0, pretend = 0, frame = 0
	@ frame_needed = 0, uses_anonymous_args = 0
	.loc 1 243 2 view .LVU311
	.loc 1 244 2 view .LVU312
	.loc 1 245 2 view .LVU313
	.loc 1 247 4 view .LVU314
	.loc 1 247 5 view .LVU315
	.loc 1 248 4 view .LVU316
	.loc 1 248 5 view .LVU317
	.loc 1 250 2 view .LVU318
.LBB122:
.LBI122:
	.loc 2 160 63 view .LVU319
.LBB123:
	.loc 2 162 2 view .LVU320
	.loc 2 163 2 view .LVU321
	.loc 2 169 2 view .LVU322
.LBB124:
.LBI124:
	.loc 3 42 59 view .LVU323
.LBB125:
	.loc 3 44 2 view .LVU324
	.loc 3 57 2 view .LVU325
	.loc 3 59 2 view .LVU326
.LBE125:
.LBE124:
.LBE123:
.LBE122:
	.loc 1 242 1 is_stmt 0 view .LVU327
	push	{r4, r5, lr}
	.cfi_def_cfa_offset 12
	.cfi_offset 4, -12
	.cfi_offset 5, -8
	.cfi_offset 14, -4
.LBB129:
.LBB128:
.LBB127:
.LBB126:
	.loc 3 59 2 view .LVU328
	.syntax unified
@ 59 "/home/g/mise-work/zmk-firmware/zmk/zephyr/include/zephyr/arch/arm/asm_inline_gcc.h" 1
	mov r3, #32;mrs r5, BASEPRI;msr BASEPRI_MAX, r3;isb;
@ 0 "" 2
.LVL72:
	.loc 3 88 2 is_stmt 1 view .LVU329
	.loc 3 88 2 is_stmt 0 view .LVU330
	.thumb
	.syntax unified
.LBE126:
.LBE127:
	.loc 2 171 2 is_stmt 1 view .LVU331
	.loc 2 177 2 view .LVU332
	.loc 2 179 2 view .LVU333
	.loc 2 179 2 is_stmt 0 view .LVU334
.LBE128:
.LBE129:
	.loc 1 252 2 is_stmt 1 view .LVU335
	.loc 1 252 5 is_stmt 0 view .LVU336
	ldr	r3, [r0]
	cmp	r3, r1
	bls	.L53
	.loc 1 257 2 is_stmt 1 view .LVU337
.LVL73:
	.loc 1 258 2 view .LVU338
	.loc 1 260 2 view .LVU339
	.loc 1 260 19 is_stmt 0 view .LVU340
	ldr	r0, [r0, #8]
.LVL74:
	.loc 1 257 6 view .LVU341
	lsrs	r4, r1, #5
.LVL75:
	.loc 1 260 34 view .LVU342
	movs	r2, #1
	.loc 1 260 25 view .LVU343
	ldr	r3, [r0, r4, lsl #2]
	.loc 1 258 6 view .LVU344
	and	r1, r1, #31
.LVL76:
	.loc 1 260 34 view .LVU345
	lsls	r2, r2, r1
	.loc 1 260 25 view .LVU346
	bic	r3, r3, r2
	str	r3, [r0, r4, lsl #2]
	.loc 1 262 2 is_stmt 1 view .LVU347
.LVL77:
	.loc 1 262 6 is_stmt 0 view .LVU348
	movs	r0, #0
.LVL78:
.L52:
	.loc 1 265 2 is_stmt 1 view .LVU349
.LBB130:
.LBI130:
	.loc 2 235 51 view .LVU350
	.loc 2 238 2 view .LVU351
	.loc 2 261 2 view .LVU352
.LBB131:
.LBI131:
	.loc 3 96 51 view .LVU353
.LBB132:
	.loc 3 107 2 view .LVU354
	.syntax unified
@ 107 "/home/g/mise-work/zmk-firmware/zmk/zephyr/include/zephyr/arch/arm/asm_inline_gcc.h" 1
	msr BASEPRI, r5;isb;
@ 0 "" 2
.LVL79:
	.loc 3 107 2 is_stmt 0 view .LVU355
	.thumb
	.syntax unified
.LBE132:
.LBE131:
.LBE130:
	.loc 1 266 2 is_stmt 1 view .LVU356
	.loc 1 267 1 is_stmt 0 view .LVU357
	pop	{r4, r5, pc}
.LVL80:
.L53:
	.loc 1 253 7 view .LVU358
	mvn	r0, #21
.LVL81:
	.loc 1 253 7 view .LVU359
	b	.L52
	.cfi_endproc
.LFE448:
	.size	sys_bitarray_clear_bit, .-sys_bitarray_clear_bit
	.section	.text.sys_bitarray_test_bit,"ax",%progbits
	.align	1
	.global	sys_bitarray_test_bit
	.syntax unified
	.thumb
	.thumb_func
	.type	sys_bitarray_test_bit, %function
sys_bitarray_test_bit:
.LVL82:
.LFB449:
	.loc 1 270 1 is_stmt 1 view -0
	.cfi_startproc
	@ args = 0, pretend = 0, frame = 0
	@ frame_needed = 0, uses_anonymous_args = 0
	.loc 1 271 2 view .LVU361
	.loc 1 272 2 view .LVU362
	.loc 1 273 2 view .LVU363
	.loc 1 275 4 view .LVU364
	.loc 1 275 5 view .LVU365
	.loc 1 276 4 view .LVU366
	.loc 1 276 5 view .LVU367
	.loc 1 278 2 view .LVU368
.LBB133:
.LBI133:
	.loc 2 160 63 view .LVU369
.LBB134:
	.loc 2 162 2 view .LVU370
	.loc 2 163 2 view .LVU371
	.loc 2 169 2 view .LVU372
.LBB135:
.LBI135:
	.loc 3 42 59 view .LVU373
.LBB136:
	.loc 3 44 2 view .LVU374
	.loc 3 57 2 view .LVU375
	.loc 3 59 2 view .LVU376
.LBE136:
.LBE135:
.LBE134:
.LBE133:
	.loc 1 270 1 is_stmt 0 view .LVU377
	push	{r4, r5, lr}
	.cfi_def_cfa_offset 12
	.cfi_offset 4, -12
	.cfi_offset 5, -8
	.cfi_offset 14, -4
.LBB140:
.LBB139:
.LBB138:
.LBB137:
	.loc 3 59 2 view .LVU378
	.syntax unified
@ 59 "/home/g/mise-work/zmk-firmware/zmk/zephyr/include/zephyr/arch/arm/asm_inline_gcc.h" 1
	mov r3, #32;mrs r4, BASEPRI;msr BASEPRI_MAX, r3;isb;
@ 0 "" 2
.LVL83:
	.loc 3 88 2 is_stmt 1 view .LVU379
	.loc 3 88 2 is_stmt 0 view .LVU380
	.thumb
	.syntax unified
.LBE137:
.LBE138:
	.loc 2 171 2 is_stmt 1 view .LVU381
	.loc 2 177 2 view .LVU382
	.loc 2 179 2 view .LVU383
	.loc 2 179 2 is_stmt 0 view .LVU384
.LBE139:
.LBE140:
	.loc 1 280 2 is_stmt 1 view .LVU385
	.loc 1 280 5 is_stmt 0 view .LVU386
	cbz	r2, .L57
	.loc 1 285 2 is_stmt 1 view .LVU387
	.loc 1 285 5 is_stmt 0 view .LVU388
	ldr	r3, [r0]
	cmp	r3, r1
	bls	.L57
	.loc 1 290 2 is_stmt 1 view .LVU389
.LVL84:
	.loc 1 291 2 view .LVU390
	.loc 1 293 2 view .LVU391
	.loc 1 293 24 is_stmt 0 view .LVU392
	ldr	r3, [r0, #8]
	.loc 1 290 6 view .LVU393
	lsrs	r5, r1, #5
.LVL85:
	.loc 1 291 6 view .LVU394
	and	r1, r1, #31
.LVL86:
	.loc 1 293 48 view .LVU395
	ldr	r3, [r3, r5, lsl #2]
	lsrs	r3, r3, r1
	and	r3, r3, #1
	.loc 1 296 8 view .LVU396
	str	r3, [r2]
	.loc 1 299 6 view .LVU397
	movs	r0, #0
.LVL87:
.L55:
	.loc 1 302 2 is_stmt 1 view .LVU398
.LBB141:
.LBI141:
	.loc 2 235 51 view .LVU399
	.loc 2 238 2 view .LVU400
	.loc 2 261 2 view .LVU401
.LBB142:
.LBI142:
	.loc 3 96 51 view .LVU402
.LBB143:
	.loc 3 107 2 view .LVU403
	.syntax unified
@ 107 "/home/g/mise-work/zmk-firmware/zmk/zephyr/include/zephyr/arch/arm/asm_inline_gcc.h" 1
	msr BASEPRI, r4;isb;
@ 0 "" 2
.LVL88:
	.loc 3 107 2 is_stmt 0 view .LVU404
	.thumb
	.syntax unified
.LBE143:
.LBE142:
.LBE141:
	.loc 1 303 2 is_stmt 1 view .LVU405
	.loc 1 304 1 is_stmt 0 view .LVU406
	pop	{r4, r5, pc}
.LVL89:
.L57:
	.loc 1 281 7 view .LVU407
	mvn	r0, #21
.LVL90:
	.loc 1 281 7 view .LVU408
	b	.L55
	.cfi_endproc
.LFE449:
	.size	sys_bitarray_test_bit, .-sys_bitarray_test_bit
	.section	.text.sys_bitarray_test_and_set_bit,"ax",%progbits
	.align	1
	.global	sys_bitarray_test_and_set_bit
	.syntax unified
	.thumb
	.thumb_func
	.type	sys_bitarray_test_and_set_bit, %function
sys_bitarray_test_and_set_bit:
.LVL91:
.LFB450:
	.loc 1 307 1 is_stmt 1 view -0
	.cfi_startproc
	@ args = 0, pretend = 0, frame = 0
	@ frame_needed = 0, uses_anonymous_args = 0
	.loc 1 308 2 view .LVU410
	.loc 1 309 2 view .LVU411
	.loc 1 310 2 view .LVU412
	.loc 1 312 4 view .LVU413
	.loc 1 312 5 view .LVU414
	.loc 1 313 4 view .LVU415
	.loc 1 313 5 view .LVU416
	.loc 1 315 2 view .LVU417
.LBB144:
.LBI144:
	.loc 2 160 63 view .LVU418
.LBB145:
	.loc 2 162 2 view .LVU419
	.loc 2 163 2 view .LVU420
	.loc 2 169 2 view .LVU421
.LBB146:
.LBI146:
	.loc 3 42 59 view .LVU422
.LBB147:
	.loc 3 44 2 view .LVU423
	.loc 3 57 2 view .LVU424
	.loc 3 59 2 view .LVU425
.LBE147:
.LBE146:
.LBE145:
.LBE144:
	.loc 1 307 1 is_stmt 0 view .LVU426
	push	{r4, r5, lr}
	.cfi_def_cfa_offset 12
	.cfi_offset 4, -12
	.cfi_offset 5, -8
	.cfi_offset 14, -4
.LBB151:
.LBB150:
.LBB149:
.LBB148:
	.loc 3 59 2 view .LVU427
	.syntax unified
@ 59 "/home/g/mise-work/zmk-firmware/zmk/zephyr/include/zephyr/arch/arm/asm_inline_gcc.h" 1
	mov r3, #32;mrs r4, BASEPRI;msr BASEPRI_MAX, r3;isb;
@ 0 "" 2
.LVL92:
	.loc 3 88 2 is_stmt 1 view .LVU428
	.loc 3 88 2 is_stmt 0 view .LVU429
	.thumb
	.syntax unified
.LBE148:
.LBE149:
	.loc 2 171 2 is_stmt 1 view .LVU430
	.loc 2 177 2 view .LVU431
	.loc 2 179 2 view .LVU432
	.loc 2 179 2 is_stmt 0 view .LVU433
.LBE150:
.LBE151:
	.loc 1 317 2 is_stmt 1 view .LVU434
	.loc 1 317 5 is_stmt 0 view .LVU435
	cbz	r2, .L61
	.loc 1 322 2 is_stmt 1 view .LVU436
	.loc 1 322 5 is_stmt 0 view .LVU437
	ldr	r3, [r0]
	cmp	r3, r1
	bls	.L61
	.loc 1 327 2 is_stmt 1 view .LVU438
.LVL93:
	.loc 1 328 2 view .LVU439
	.loc 1 330 24 is_stmt 0 view .LVU440
	ldr	r3, [r0, #8]
	.loc 1 328 6 view .LVU441
	and	r5, r1, #31
.LVL94:
	.loc 1 330 2 is_stmt 1 view .LVU442
	.loc 1 327 6 is_stmt 0 view .LVU443
	lsrs	r1, r1, #5
.LVL95:
	.loc 1 330 48 view .LVU444
	ldr	r3, [r3, r1, lsl #2]
	lsrs	r3, r3, r5
	and	r3, r3, #1
	str	r3, [r2]
	.loc 1 336 2 is_stmt 1 view .LVU445
	.loc 1 336 19 is_stmt 0 view .LVU446
	ldr	r0, [r0, #8]
.LVL96:
	.loc 1 336 33 view .LVU447
	movs	r2, #1
.LVL97:
	.loc 1 336 25 view .LVU448
	ldr	r3, [r0, r1, lsl #2]
	.loc 1 336 33 view .LVU449
	lsls	r2, r2, r5
	.loc 1 336 25 view .LVU450
	orrs	r3, r3, r2
	str	r3, [r0, r1, lsl #2]
	.loc 1 338 2 is_stmt 1 view .LVU451
.LVL98:
	.loc 1 338 6 is_stmt 0 view .LVU452
	movs	r0, #0
.LVL99:
.L59:
	.loc 1 341 2 is_stmt 1 view .LVU453
.LBB152:
.LBI152:
	.loc 2 235 51 view .LVU454
	.loc 2 238 2 view .LVU455
	.loc 2 261 2 view .LVU456
.LBB153:
.LBI153:
	.loc 3 96 51 view .LVU457
.LBB154:
	.loc 3 107 2 view .LVU458
	.syntax unified
@ 107 "/home/g/mise-work/zmk-firmware/zmk/zephyr/include/zephyr/arch/arm/asm_inline_gcc.h" 1
	msr BASEPRI, r4;isb;
@ 0 "" 2
.LVL100:
	.loc 3 107 2 is_stmt 0 view .LVU459
	.thumb
	.syntax unified
.LBE154:
.LBE153:
.LBE152:
	.loc 1 342 2 is_stmt 1 view .LVU460
	.loc 1 343 1 is_stmt 0 view .LVU461
	pop	{r4, r5, pc}
.LVL101:
.L61:
	.loc 1 318 7 view .LVU462
	mvn	r0, #21
.LVL102:
	.loc 1 318 7 view .LVU463
	b	.L59
	.cfi_endproc
.LFE450:
	.size	sys_bitarray_test_and_set_bit, .-sys_bitarray_test_and_set_bit
	.section	.text.sys_bitarray_test_and_clear_bit,"ax",%progbits
	.align	1
	.global	sys_bitarray_test_and_clear_bit
	.syntax unified
	.thumb
	.thumb_func
	.type	sys_bitarray_test_and_clear_bit, %function
sys_bitarray_test_and_clear_bit:
.LVL103:
.LFB451:
	.loc 1 346 1 is_stmt 1 view -0
	.cfi_startproc
	@ args = 0, pretend = 0, frame = 0
	@ frame_needed = 0, uses_anonymous_args = 0
	.loc 1 347 2 view .LVU465
	.loc 1 348 2 view .LVU466
	.loc 1 349 2 view .LVU467
	.loc 1 351 4 view .LVU468
	.loc 1 351 5 view .LVU469
	.loc 1 352 4 view .LVU470
	.loc 1 352 5 view .LVU471
	.loc 1 354 2 view .LVU472
.LBB155:
.LBI155:
	.loc 2 160 63 view .LVU473
.LBB156:
	.loc 2 162 2 view .LVU474
	.loc 2 163 2 view .LVU475
	.loc 2 169 2 view .LVU476
.LBB157:
.LBI157:
	.loc 3 42 59 view .LVU477
.LBB158:
	.loc 3 44 2 view .LVU478
	.loc 3 57 2 view .LVU479
	.loc 3 59 2 view .LVU480
.LBE158:
.LBE157:
.LBE156:
.LBE155:
	.loc 1 346 1 is_stmt 0 view .LVU481
	push	{r4, r5, lr}
	.cfi_def_cfa_offset 12
	.cfi_offset 4, -12
	.cfi_offset 5, -8
	.cfi_offset 14, -4
.LBB162:
.LBB161:
.LBB160:
.LBB159:
	.loc 3 59 2 view .LVU482
	.syntax unified
@ 59 "/home/g/mise-work/zmk-firmware/zmk/zephyr/include/zephyr/arch/arm/asm_inline_gcc.h" 1
	mov r3, #32;mrs r4, BASEPRI;msr BASEPRI_MAX, r3;isb;
@ 0 "" 2
.LVL104:
	.loc 3 88 2 is_stmt 1 view .LVU483
	.loc 3 88 2 is_stmt 0 view .LVU484
	.thumb
	.syntax unified
.LBE159:
.LBE160:
	.loc 2 171 2 is_stmt 1 view .LVU485
	.loc 2 177 2 view .LVU486
	.loc 2 179 2 view .LVU487
	.loc 2 179 2 is_stmt 0 view .LVU488
.LBE161:
.LBE162:
	.loc 1 356 2 is_stmt 1 view .LVU489
	.loc 1 356 5 is_stmt 0 view .LVU490
	cbz	r2, .L65
	.loc 1 361 2 is_stmt 1 view .LVU491
	.loc 1 361 5 is_stmt 0 view .LVU492
	ldr	r3, [r0]
	cmp	r3, r1
	bls	.L65
	.loc 1 366 2 is_stmt 1 view .LVU493
.LVL105:
	.loc 1 367 2 view .LVU494
	.loc 1 369 24 is_stmt 0 view .LVU495
	ldr	r3, [r0, #8]
	.loc 1 367 6 view .LVU496
	and	r5, r1, #31
.LVL106:
	.loc 1 369 2 is_stmt 1 view .LVU497
	.loc 1 366 6 is_stmt 0 view .LVU498
	lsrs	r1, r1, #5
.LVL107:
	.loc 1 369 48 view .LVU499
	ldr	r3, [r3, r1, lsl #2]
	lsrs	r3, r3, r5
	and	r3, r3, #1
	str	r3, [r2]
	.loc 1 375 2 is_stmt 1 view .LVU500
	.loc 1 375 19 is_stmt 0 view .LVU501
	ldr	r0, [r0, #8]
.LVL108:
	.loc 1 375 34 view .LVU502
	movs	r2, #1
.LVL109:
	.loc 1 375 25 view .LVU503
	ldr	r3, [r0, r1, lsl #2]
	.loc 1 375 34 view .LVU504
	lsls	r2, r2, r5
	.loc 1 375 25 view .LVU505
	bic	r3, r3, r2
	str	r3, [r0, r1, lsl #2]
	.loc 1 377 2 is_stmt 1 view .LVU506
.LVL110:
	.loc 1 377 6 is_stmt 0 view .LVU507
	movs	r0, #0
.LVL111:
.L63:
	.loc 1 380 2 is_stmt 1 view .LVU508
.LBB163:
.LBI163:
	.loc 2 235 51 view .LVU509
	.loc 2 238 2 view .LVU510
	.loc 2 261 2 view .LVU511
.LBB164:
.LBI164:
	.loc 3 96 51 view .LVU512
.LBB165:
	.loc 3 107 2 view .LVU513
	.syntax unified
@ 107 "/home/g/mise-work/zmk-firmware/zmk/zephyr/include/zephyr/arch/arm/asm_inline_gcc.h" 1
	msr BASEPRI, r4;isb;
@ 0 "" 2
.LVL112:
	.loc 3 107 2 is_stmt 0 view .LVU514
	.thumb
	.syntax unified
.LBE165:
.LBE164:
.LBE163:
	.loc 1 381 2 is_stmt 1 view .LVU515
	.loc 1 382 1 is_stmt 0 view .LVU516
	pop	{r4, r5, pc}
.LVL113:
.L65:
	.loc 1 357 7 view .LVU517
	mvn	r0, #21
.LVL114:
	.loc 1 357 7 view .LVU518
	b	.L63
	.cfi_endproc
.LFE451:
	.size	sys_bitarray_test_and_clear_bit, .-sys_bitarray_test_and_clear_bit
	.section	.text.sys_bitarray_alloc,"ax",%progbits
	.align	1
	.global	sys_bitarray_alloc
	.syntax unified
	.thumb
	.thumb_func
	.type	sys_bitarray_alloc, %function
sys_bitarray_alloc:
.LVL115:
.LFB452:
	.loc 1 386 1 is_stmt 1 view -0
	.cfi_startproc
	@ args = 0, pretend = 0, frame = 32
	@ frame_needed = 0, uses_anonymous_args = 0
	.loc 1 387 2 view .LVU520
	.loc 1 388 2 view .LVU521
	.loc 1 389 2 view .LVU522
	.loc 1 390 2 view .LVU523
	.loc 1 391 2 view .LVU524
	.loc 1 392 2 view .LVU525
	.loc 1 394 4 view .LVU526
	.loc 1 394 5 view .LVU527
	.loc 1 395 4 view .LVU528
	.loc 1 395 5 view .LVU529
	.loc 1 397 2 view .LVU530
.LBB166:
.LBI166:
	.loc 2 160 63 view .LVU531
.LBB167:
	.loc 2 162 2 view .LVU532
	.loc 2 163 2 view .LVU533
	.loc 2 169 2 view .LVU534
.LBB168:
.LBI168:
	.loc 3 42 59 view .LVU535
.LBB169:
	.loc 3 44 2 view .LVU536
	.loc 3 57 2 view .LVU537
	.loc 3 59 2 view .LVU538
.LBE169:
.LBE168:
.LBE167:
.LBE166:
	.loc 1 386 1 is_stmt 0 view .LVU539
	push	{r4, r5, r6, r7, r8, r9, r10, fp, lr}
	.cfi_def_cfa_offset 36
	.cfi_offset 4, -36
	.cfi_offset 5, -32
	.cfi_offset 6, -28
	.cfi_offset 7, -24
	.cfi_offset 8, -20
	.cfi_offset 9, -16
	.cfi_offset 10, -12
	.cfi_offset 11, -8
	.cfi_offset 14, -4
	mov	r5, r0
	sub	sp, sp, #44
	.cfi_def_cfa_offset 80
	.loc 1 386 1 view .LVU540
	mov	r6, r1
	mov	r8, r2
.LBB173:
.LBB172:
.LBB171:
.LBB170:
	.loc 3 59 2 view .LVU541
	.syntax unified
@ 59 "/home/g/mise-work/zmk-firmware/zmk/zephyr/include/zephyr/arch/arm/asm_inline_gcc.h" 1
	mov r3, #32;mrs r9, BASEPRI;msr BASEPRI_MAX, r3;isb;
@ 0 "" 2
.LVL116:
	.loc 3 88 2 is_stmt 1 view .LVU542
	.loc 3 88 2 is_stmt 0 view .LVU543
	.thumb
	.syntax unified
.LBE170:
.LBE171:
	.loc 2 171 2 is_stmt 1 view .LVU544
	.loc 2 177 2 view .LVU545
	.loc 2 179 2 view .LVU546
	.loc 2 179 2 is_stmt 0 view .LVU547
.LBE172:
.LBE173:
	.loc 1 399 2 is_stmt 1 view .LVU548
	.loc 1 399 5 is_stmt 0 view .LVU549
	cmp	r2, #0
	beq	.L77
	.loc 1 404 2 is_stmt 1 view .LVU550
	.loc 1 404 5 is_stmt 0 view .LVU551
	cmp	r1, #0
	beq	.L77
	.loc 1 404 45 discriminator 1 view .LVU552
	ldr	r1, [r0]
.LVL117:
	.loc 1 404 22 discriminator 1 view .LVU553
	cmp	r1, r6
	bcc	.L77
.LBB174:
	.loc 1 417 37 view .LVU554
	ldr	r0, [r0, #4]
.LVL118:
	.loc 1 417 14 view .LVU555
	movs	r2, #0
.LVL119:
.L68:
	.loc 1 417 27 discriminator 1 view .LVU556
	cmp	r0, r2
	lsl	r4, r2, #5
.LVL120:
	.loc 1 417 27 is_stmt 1 discriminator 1 view .LVU557
	beq	.L70
	.loc 1 418 3 view .LVU558
	.loc 1 418 25 is_stmt 0 view .LVU559
	ldr	r3, [r5, #8]
	ldr	r3, [r3, r2, lsl #2]
	.loc 1 418 6 view .LVU560
	adds	r7, r3, #1
	bne	.L69
	.loc 1 420 4 is_stmt 1 discriminator 1 view .LVU561
.LVL121:
	.loc 1 421 4 discriminator 1 view .LVU562
	.loc 1 417 55 discriminator 1 view .LVU563
	adds	r2, r2, #1
.LVL122:
	.loc 1 417 55 is_stmt 0 discriminator 1 view .LVU564
	b	.L68
.LVL123:
.L69:
	.loc 1 424 3 is_stmt 1 view .LVU565
	.loc 1 424 6 is_stmt 0 view .LVU566
	cbz	r3, .L70
	.loc 1 426 4 is_stmt 1 view .LVU567
.LVL124:
.LBB175:
.LBI175:
	.loc 4 53 59 view .LVU568
.LBB176:
	.loc 4 56 2 view .LVU569
.LBE176:
.LBE175:
	.loc 1 426 16 is_stmt 0 view .LVU570
	mvns	r3, r3
.LVL125:
.LBB178:
.LBB177:
	.loc 4 56 9 view .LVU571
	rbit	r3, r3
.LVL126:
	.loc 4 56 9 view .LVU572
	clz	r3, r3
.LVL127:
	.loc 4 56 9 view .LVU573
.LBE177:
.LBE178:
	.loc 1 427 4 is_stmt 1 view .LVU574
	.loc 1 427 12 is_stmt 0 view .LVU575
	add	r4, r4, r3
.LVL128:
.L70:
	.loc 1 427 12 view .LVU576
.LBE174:
	.loc 1 433 2 is_stmt 1 view .LVU577
	.loc 1 433 10 is_stmt 0 view .LVU578
	sub	r10, r1, r6
.LVL129:
	.loc 1 434 2 is_stmt 1 view .LVU579
	.loc 1 435 2 view .LVU580
	.loc 1 436 7 is_stmt 0 view .LVU581
	add	fp, sp, #12
	add	r7, sp, #16
.LVL130:
.L72:
	.loc 1 435 17 is_stmt 1 view .LVU582
	cmp	r4, r10
	bls	.L74
	.loc 1 434 6 is_stmt 0 view .LVU583
	mvn	r0, #27
	.loc 1 451 1 view .LVU584
	b	.L67
.L74:
	.loc 1 436 3 is_stmt 1 view .LVU585
	.loc 1 436 7 is_stmt 0 view .LVU586
	strd	r7, fp, [sp]
	movs	r3, #0
	mov	r2, r6
	mov	r1, r4
	mov	r0, r5
	bl	match_region
.LVL131:
	.loc 1 436 6 view .LVU587
	cbz	r0, .L73
	.loc 1 438 4 is_stmt 1 view .LVU588
	mov	r0, r5
	str	r7, [sp]
	movs	r3, #1
	mov	r2, r6
	mov	r1, r4
	bl	set_region
.LVL132:
	.loc 1 440 4 view .LVU589
	.loc 1 440 12 is_stmt 0 view .LVU590
	str	r4, [r8]
	.loc 1 441 4 is_stmt 1 view .LVU591
.LVL133:
	.loc 1 442 4 view .LVU592
	.loc 1 441 8 is_stmt 0 view .LVU593
	movs	r0, #0
.LVL134:
.L67:
	.loc 1 452 2 is_stmt 1 view .LVU594
.LBB179:
.LBI179:
	.loc 2 235 51 view .LVU595
	.loc 2 238 2 view .LVU596
	.loc 2 261 2 view .LVU597
.LBB180:
.LBI180:
	.loc 3 96 51 view .LVU598
.LBB181:
	.loc 3 107 2 view .LVU599
	.syntax unified
@ 107 "/home/g/mise-work/zmk-firmware/zmk/zephyr/include/zephyr/arch/arm/asm_inline_gcc.h" 1
	msr BASEPRI, r9;isb;
@ 0 "" 2
.LVL135:
	.loc 3 107 2 is_stmt 0 view .LVU600
	.thumb
	.syntax unified
.LBE181:
.LBE180:
.LBE179:
	.loc 1 453 2 is_stmt 1 view .LVU601
	.loc 1 454 1 is_stmt 0 view .LVU602
	add	sp, sp, #44
	.cfi_remember_state
	.cfi_def_cfa_offset 36
	@ sp needed
	pop	{r4, r5, r6, r7, r8, r9, r10, fp, pc}
.LVL136:
.L73:
	.cfi_restore_state
	.loc 1 448 3 is_stmt 1 view .LVU603
	.loc 1 448 11 is_stmt 0 view .LVU604
	ldr	r4, [sp, #12]
.LVL137:
	.loc 1 448 11 view .LVU605
	adds	r4, r4, #1
.LVL138:
	.loc 1 448 11 view .LVU606
	b	.L72
.LVL139:
.L77:
	.loc 1 400 7 view .LVU607
	mvn	r0, #21
.LVL140:
	.loc 1 400 7 view .LVU608
	b	.L67
	.cfi_endproc
.LFE452:
	.size	sys_bitarray_alloc, .-sys_bitarray_alloc
	.section	.text.sys_bitarray_free,"ax",%progbits
	.align	1
	.global	sys_bitarray_free
	.syntax unified
	.thumb
	.thumb_func
	.type	sys_bitarray_free, %function
sys_bitarray_free:
.LVL141:
.LFB453:
	.loc 1 458 1 is_stmt 1 view -0
	.cfi_startproc
	@ args = 0, pretend = 0, frame = 24
	@ frame_needed = 0, uses_anonymous_args = 0
	.loc 1 459 2 view .LVU610
	.loc 1 460 2 view .LVU611
	.loc 1 461 2 view .LVU612
	.loc 1 458 1 is_stmt 0 view .LVU613
	push	{r4, r5, r6, r7, r8, r9, lr}
	.cfi_def_cfa_offset 28
	.cfi_offset 4, -28
	.cfi_offset 5, -24
	.cfi_offset 6, -20
	.cfi_offset 7, -16
	.cfi_offset 8, -12
	.cfi_offset 9, -8
	.cfi_offset 14, -4
	.loc 1 461 9 view .LVU614
	subs	r3, r1, #1
	.loc 1 458 1 view .LVU615
	sub	sp, sp, #36
	.cfi_def_cfa_offset 64
	.loc 1 458 1 view .LVU616
	mov	r8, r0
	mov	r5, r1
	mov	r6, r2
	.loc 1 461 9 view .LVU617
	add	r3, r3, r2
.LVL142:
	.loc 1 462 2 is_stmt 1 view .LVU618
	.loc 1 464 4 view .LVU619
	.loc 1 464 5 view .LVU620
	.loc 1 465 4 view .LVU621
	.loc 1 465 5 view .LVU622
	.loc 1 467 2 view .LVU623
.LBB182:
.LBI182:
	.loc 2 160 63 view .LVU624
.LBB183:
	.loc 2 162 2 view .LVU625
	.loc 2 163 2 view .LVU626
	.loc 2 169 2 view .LVU627
.LBB184:
.LBI184:
	.loc 3 42 59 view .LVU628
.LBB185:
	.loc 3 44 2 view .LVU629
	.loc 3 57 2 view .LVU630
	.loc 3 59 2 view .LVU631
	.syntax unified
@ 59 "/home/g/mise-work/zmk-firmware/zmk/zephyr/include/zephyr/arch/arm/asm_inline_gcc.h" 1
	mov r2, #32;mrs r9, BASEPRI;msr BASEPRI_MAX, r2;isb;
@ 0 "" 2
.LVL143:
	.loc 3 88 2 view .LVU632
	.loc 3 88 2 is_stmt 0 view .LVU633
	.thumb
	.syntax unified
.LBE185:
.LBE184:
	.loc 2 171 2 is_stmt 1 view .LVU634
	.loc 2 177 2 view .LVU635
	.loc 2 179 2 view .LVU636
	.loc 2 179 2 is_stmt 0 view .LVU637
.LBE183:
.LBE182:
	.loc 1 469 2 is_stmt 1 view .LVU638
	.loc 1 469 5 is_stmt 0 view .LVU639
	cbz	r1, .L86
	.loc 1 470 29 view .LVU640
	ldr	r2, [r0]
	.loc 1 470 6 view .LVU641
	cmp	r2, r1
	bcc	.L86
	.loc 1 471 6 view .LVU642
	cmp	r2, r6
	bls	.L86
	.loc 1 472 6 view .LVU643
	cmp	r2, r3
	bls	.L86
	.loc 1 481 2 is_stmt 1 view .LVU644
	.loc 1 481 6 is_stmt 0 view .LVU645
	movs	r4, #0
	add	r7, sp, #8
	mov	r2, r1
	str	r4, [sp, #4]
	str	r7, [sp]
	movs	r3, #1
.LVL144:
	.loc 1 481 6 view .LVU646
	mov	r1, r6
.LVL145:
	.loc 1 481 6 view .LVU647
	bl	match_region
.LVL146:
	.loc 1 481 5 view .LVU648
	cbz	r0, .L87
	.loc 1 482 3 is_stmt 1 view .LVU649
	mov	r0, r8
	str	r7, [sp]
	mov	r3, r4
	mov	r2, r5
	mov	r1, r6
	bl	set_region
.LVL147:
	.loc 1 483 3 view .LVU650
	.loc 1 483 7 is_stmt 0 view .LVU651
	mov	r0, r4
.LVL148:
.L82:
	.loc 1 489 2 is_stmt 1 view .LVU652
.LBB186:
.LBI186:
	.loc 2 235 51 view .LVU653
	.loc 2 238 2 view .LVU654
	.loc 2 261 2 view .LVU655
.LBB187:
.LBI187:
	.loc 3 96 51 view .LVU656
.LBB188:
	.loc 3 107 2 view .LVU657
	.syntax unified
@ 107 "/home/g/mise-work/zmk-firmware/zmk/zephyr/include/zephyr/arch/arm/asm_inline_gcc.h" 1
	msr BASEPRI, r9;isb;
@ 0 "" 2
.LVL149:
	.loc 3 107 2 is_stmt 0 view .LVU658
	.thumb
	.syntax unified
.LBE188:
.LBE187:
.LBE186:
	.loc 1 490 2 is_stmt 1 view .LVU659
	.loc 1 491 1 is_stmt 0 view .LVU660
	add	sp, sp, #36
	.cfi_remember_state
	.cfi_def_cfa_offset 28
	@ sp needed
	pop	{r4, r5, r6, r7, r8, r9, pc}
.LVL150:
.L86:
	.cfi_restore_state
	.loc 1 473 7 view .LVU661
	mvn	r0, #21
.LVL151:
	.loc 1 473 7 view .LVU662
	b	.L82
.LVL152:
.L87:
	.loc 1 485 7 view .LVU663
	mvn	r0, #13
	b	.L82
	.cfi_endproc
.LFE453:
	.size	sys_bitarray_free, .-sys_bitarray_free
	.section	.text.sys_bitarray_is_region_set,"ax",%progbits
	.align	1
	.global	sys_bitarray_is_region_set
	.syntax unified
	.thumb
	.thumb_func
	.type	sys_bitarray_is_region_set, %function
sys_bitarray_is_region_set:
.LVL153:
.LFB455:
	.loc 1 521 1 is_stmt 1 view -0
	.cfi_startproc
	@ args = 0, pretend = 0, frame = 0
	@ frame_needed = 0, uses_anonymous_args = 0
	@ link register save eliminated.
	.loc 1 522 2 view .LVU665
	.loc 1 522 9 is_stmt 0 view .LVU666
	movs	r3, #1
	b	is_region_set_clear
.LVL154:
	.loc 1 522 9 view .LVU667
	.cfi_endproc
.LFE455:
	.size	sys_bitarray_is_region_set, .-sys_bitarray_is_region_set
	.section	.text.sys_bitarray_is_region_cleared,"ax",%progbits
	.align	1
	.global	sys_bitarray_is_region_cleared
	.syntax unified
	.thumb
	.thumb_func
	.type	sys_bitarray_is_region_cleared, %function
sys_bitarray_is_region_cleared:
.LVL155:
.LFB456:
	.loc 1 527 1 is_stmt 1 view -0
	.cfi_startproc
	@ args = 0, pretend = 0, frame = 0
	@ frame_needed = 0, uses_anonymous_args = 0
	@ link register save eliminated.
	.loc 1 528 2 view .LVU669
	.loc 1 528 9 is_stmt 0 view .LVU670
	movs	r3, #0
	b	is_region_set_clear
.LVL156:
	.loc 1 528 9 view .LVU671
	.cfi_endproc
.LFE456:
	.size	sys_bitarray_is_region_cleared, .-sys_bitarray_is_region_cleared
	.section	.text.sys_bitarray_test_and_set_region,"ax",%progbits
	.align	1
	.global	sys_bitarray_test_and_set_region
	.syntax unified
	.thumb
	.thumb_func
	.type	sys_bitarray_test_and_set_region, %function
sys_bitarray_test_and_set_region:
.LVL157:
.LFB458:
	.loc 1 559 1 is_stmt 1 view -0
	.cfi_startproc
	@ args = 0, pretend = 0, frame = 24
	@ frame_needed = 0, uses_anonymous_args = 0
	.loc 1 560 2 view .LVU673
	.loc 1 561 1 view .LVU674
	.loc 1 562 2 view .LVU675
	.loc 1 564 4 view .LVU676
	.loc 1 564 5 view .LVU677
	.loc 1 565 4 view .LVU678
	.loc 1 565 5 view .LVU679
	.loc 1 567 2 view .LVU680
	.loc 1 559 1 is_stmt 0 view .LVU681
	push	{r4, r5, r6, r7, r8, r9, r10, lr}
	.cfi_def_cfa_offset 32
	.cfi_offset 4, -32
	.cfi_offset 5, -28
	.cfi_offset 6, -24
	.cfi_offset 7, -20
	.cfi_offset 8, -16
	.cfi_offset 9, -12
	.cfi_offset 10, -8
	.cfi_offset 14, -4
	mov	r9, r3
	.loc 1 567 9 view .LVU682
	subs	r3, r1, #1
.LVL158:
	.loc 1 559 1 view .LVU683
	sub	sp, sp, #32
	.cfi_def_cfa_offset 64
	.loc 1 559 1 view .LVU684
	mov	r8, r0
	mov	r5, r1
	mov	r6, r2
	.loc 1 567 9 view .LVU685
	add	r3, r3, r2
.LVL159:
	.loc 1 568 2 is_stmt 1 view .LVU686
.LBB189:
.LBI189:
	.loc 2 160 63 view .LVU687
.LBB190:
	.loc 2 162 2 view .LVU688
	.loc 2 163 2 view .LVU689
	.loc 2 169 2 view .LVU690
.LBB191:
.LBI191:
	.loc 3 42 59 view .LVU691
.LBB192:
	.loc 3 44 2 view .LVU692
	.loc 3 57 2 view .LVU693
	.loc 3 59 2 view .LVU694
	.syntax unified
@ 59 "/home/g/mise-work/zmk-firmware/zmk/zephyr/include/zephyr/arch/arm/asm_inline_gcc.h" 1
	mov r2, #32;mrs r10, BASEPRI;msr BASEPRI_MAX, r2;isb;
@ 0 "" 2
.LVL160:
	.loc 3 88 2 view .LVU695
	.loc 3 88 2 is_stmt 0 view .LVU696
	.thumb
	.syntax unified
.LBE192:
.LBE191:
	.loc 2 171 2 is_stmt 1 view .LVU697
	.loc 2 177 2 view .LVU698
	.loc 2 179 2 view .LVU699
	.loc 2 179 2 is_stmt 0 view .LVU700
.LBE190:
.LBE189:
	.loc 1 571 2 is_stmt 1 view .LVU701
	.loc 1 571 5 is_stmt 0 view .LVU702
	cbz	r1, .L95
	.loc 1 572 29 view .LVU703
	ldr	r2, [r0]
	.loc 1 572 6 view .LVU704
	cmp	r2, r1
	bcc	.L95
	.loc 1 573 6 view .LVU705
	cmp	r2, r6
	bls	.L95
	.loc 1 574 6 view .LVU706
	cmp	r2, r3
	bls	.L95
	.loc 1 579 2 is_stmt 1 view .LVU707
	.loc 1 579 17 is_stmt 0 view .LVU708
	movs	r4, #0
	add	r7, sp, #8
	mov	r2, r1
	str	r4, [sp, #4]
	str	r7, [sp]
	eor	r3, r9, #1
.LVL161:
	.loc 1 579 17 view .LVU709
	mov	r1, r6
.LVL162:
	.loc 1 579 17 view .LVU710
	bl	match_region
.LVL163:
	.loc 1 580 2 is_stmt 1 view .LVU711
	.loc 1 580 5 is_stmt 0 view .LVU712
	cbz	r0, .L96
	.loc 1 581 3 is_stmt 1 view .LVU713
	mov	r0, r8
.LVL164:
	.loc 1 581 3 is_stmt 0 view .LVU714
	str	r7, [sp]
	mov	r3, r9
	mov	r2, r5
	mov	r1, r6
	bl	set_region
.LVL165:
	.loc 1 582 3 is_stmt 1 view .LVU715
	.loc 1 582 7 is_stmt 0 view .LVU716
	mov	r0, r4
.LVL166:
.L91:
	.loc 1 588 2 is_stmt 1 view .LVU717
.LBB193:
.LBI193:
	.loc 2 235 51 view .LVU718
	.loc 2 238 2 view .LVU719
	.loc 2 261 2 view .LVU720
.LBB194:
.LBI194:
	.loc 3 96 51 view .LVU721
.LBB195:
	.loc 3 107 2 view .LVU722
	.syntax unified
@ 107 "/home/g/mise-work/zmk-firmware/zmk/zephyr/include/zephyr/arch/arm/asm_inline_gcc.h" 1
	msr BASEPRI, r10;isb;
@ 0 "" 2
.LVL167:
	.loc 3 107 2 is_stmt 0 view .LVU723
	.thumb
	.syntax unified
.LBE195:
.LBE194:
.LBE193:
	.loc 1 589 2 is_stmt 1 view .LVU724
	.loc 1 590 1 is_stmt 0 view .LVU725
	add	sp, sp, #32
	.cfi_remember_state
	.cfi_def_cfa_offset 32
	@ sp needed
	pop	{r4, r5, r6, r7, r8, r9, r10, pc}
.LVL168:
.L95:
	.cfi_restore_state
	.loc 1 575 7 view .LVU726
	mvn	r0, #21
.LVL169:
	.loc 1 575 7 view .LVU727
	b	.L91
.LVL170:
.L96:
	.loc 1 584 7 view .LVU728
	mvn	r0, #16
.LVL171:
	.loc 1 584 7 view .LVU729
	b	.L91
	.cfi_endproc
.LFE458:
	.size	sys_bitarray_test_and_set_region, .-sys_bitarray_test_and_set_region
	.section	.text.sys_bitarray_set_region,"ax",%progbits
	.align	1
	.global	sys_bitarray_set_region
	.syntax unified
	.thumb
	.thumb_func
	.type	sys_bitarray_set_region, %function
sys_bitarray_set_region:
.LVL172:
.LFB459:
	.loc 1 594 1 is_stmt 1 view -0
	.cfi_startproc
	@ args = 0, pretend = 0, frame = 0
	@ frame_needed = 0, uses_anonymous_args = 0
	@ link register save eliminated.
	.loc 1 595 2 view .LVU731
	.loc 1 595 9 is_stmt 0 view .LVU732
	movs	r3, #1
	b	set_clear_region
.LVL173:
	.loc 1 595 9 view .LVU733
	.cfi_endproc
.LFE459:
	.size	sys_bitarray_set_region, .-sys_bitarray_set_region
	.section	.text.sys_bitarray_clear_region,"ax",%progbits
	.align	1
	.global	sys_bitarray_clear_region
	.syntax unified
	.thumb
	.thumb_func
	.type	sys_bitarray_clear_region, %function
sys_bitarray_clear_region:
.LVL174:
.LFB460:
	.loc 1 600 1 is_stmt 1 view -0
	.cfi_startproc
	@ args = 0, pretend = 0, frame = 0
	@ frame_needed = 0, uses_anonymous_args = 0
	@ link register save eliminated.
	.loc 1 601 2 view .LVU735
	.loc 1 601 9 is_stmt 0 view .LVU736
	movs	r3, #0
	b	set_clear_region
.LVL175:
	.loc 1 601 9 view .LVU737
	.cfi_endproc
.LFE460:
	.size	sys_bitarray_clear_region, .-sys_bitarray_clear_region
	.text
.Letext0:
	.file 5 "/home/g/zephyr-sdk-0.16.3/arm-zephyr-eabi/lib/gcc/arm-zephyr-eabi/12.2.0/include/stddef.h"
	.file 6 "/home/g/zephyr-sdk-0.16.3/arm-zephyr-eabi/picolibc/include/machine/_default_types.h"
	.file 7 "/home/g/zephyr-sdk-0.16.3/arm-zephyr-eabi/picolibc/include/sys/_stdint.h"
	.file 8 "/home/g/mise-work/zmk-firmware/zmk/zephyr/include/zephyr/sys/bitarray.h"