	.cpu cortex-m4
	.arch armv7e-m
	.fpu fpv4-sp-d16
	.eabi_attribute 27, 1
	.eabi_attribute 28, 1
	.eabi_attribute 20, 1
	.eabi_attribute 21, 1
	.eabi_attribute 23, 3
	.eabi_attribute 24, 1
	.eabi_attribute 25, 1
	.eabi_attribute 26, 1
	.eabi_attribute 30, 4
	.eabi_attribute 34, 1
	.eabi_attribute 38, 1
	.eabi_attribute 18, 4
	.file	"cbprintf_nano.c"
	.text
.Ltext0:
	.cfi_sections	.debug_frame
	.file 1 "/home/g/mise-work/zmk-firmware/zmk/zephyr/lib/os/cbprintf_nano.c"
	.section	.rodata.z_cbvprintf_impl.str1.1,"aMS",%progbits,1
.LC0:
	.ascii	"-\000"
.LC1:
	.ascii	" \000"
.LC2:
	.ascii	"\000"
.LC3:
	.ascii	"+\000"
.LC4:
	.ascii	"0x\000"
.LC5:
	.ascii	"0X\000"
.LC6:
	.ascii	"(nil)\000"
	.global	__aeabi_uldivmod
	.section	.text.z_cbvprintf_impl,"ax",%progbits
	.align	1
	.global	z_cbvprintf_impl
	.syntax unified
	.thumb
	.thumb_func
	.type	z_cbvprintf_impl, %function
z_cbvprintf_impl:
.LVL0:
.LFB274:
	.loc 1 78 1 view -0
	.cfi_startproc
	@ args = 4, pretend = 0, frame = 40
	@ frame_needed = 0, uses_anonymous_args = 0
	.loc 1 78 1 is_stmt 0 view .LVU1
	push	{r4, r5, r6, r7, r8, r9, r10, fp, lr}
	.cfi_def_cfa_offset 36
	.cfi_offset 4, -36
	.cfi_offset 5, -32
	.cfi_offset 6, -28
	.cfi_offset 7, -24
	.cfi_offset 8, -20
	.cfi_offset 9, -16
	.cfi_offset 10, -12
	.cfi_offset 11, -8
	.cfi_offset 14, -4
	sub	sp, sp, #44
	.cfi_def_cfa_offset 80
	.loc 1 78 1 view .LVU2
	mov	r4, r3
.LVL1:
	.loc 1 79 2 is_stmt 1 view .LVU3
	.loc 1 80 2 view .LVU4
	.loc 1 81 2 view .LVU5
	.loc 1 82 2 view .LVU6
	.loc 1 83 2 view .LVU7
	.loc 1 85 2 view .LVU8
	.loc 1 89 2 view .LVU9
	.loc 1 89 5 is_stmt 0 view .LVU10
	subs	r3, r2, #1
.LVL2:
	.loc 1 78 1 view .LVU11
	mov	r9, r0
	mov	r10, r1
	.loc 1 89 5 view .LVU12
	str	r3, [sp, #4]
.LVL3:
.L2:
	.loc 1 96 6 is_stmt 1 discriminator 3 view .LVU13
	.loc 1 92 16 discriminator 3 view .LVU14
	ldr	r3, [sp, #4]
	.loc 1 92 9 is_stmt 0 discriminator 3 view .LVU15
	ldrb	r0, [r3, #1]	@ zero_extendqisi2
	.loc 1 92 16 discriminator 3 view .LVU16
	cmp	r0, #37
	add	r5, r3, #1
.LVL4:
	.loc 1 92 16 discriminator 3 view .LVU17
	bne	.L4
	.loc 1 99 2 is_stmt 1 view .LVU18
.LVL5:
	.loc 1 100 2 view .LVU19
	.loc 1 101 2 view .LVU20
	.loc 1 102 2 view .LVU21
	.loc 1 103 2 view .LVU22
	.loc 1 104 2 view .LVU23
	.loc 1 106 2 view .LVU24
	.loc 1 104 10 is_stmt 0 view .LVU25
	movs	r0, #0
	.loc 1 106 10 view .LVU26
	mov	r6, r3
	.loc 1 100 12 view .LVU27
	mov	r7, #-1
	.loc 1 106 10 view .LVU28
	adds	r6, r6, #2
.LVL6:
	.loc 1 103 13 view .LVU29
	mov	r2, r0
	.loc 1 102 15 view .LVU30
	str	r0, [sp]
	.loc 1 99 12 view .LVU31
	mov	r5, r7
.LVL7:
.L67:
	.loc 1 107 11 view .LVU32
	ldrb	r3, [r6]	@ zero_extendqisi2
	str	r6, [sp, #4]
.LVL8:
	.loc 1 107 3 is_stmt 1 view .LVU33
	cmp	r3, #57
	bhi	.L5
	.loc 1 107 3 is_stmt 0 view .LVU34
	cmp	r3, #31
	bhi	.L6
	cmp	r3, #0
	beq	.L3
.L7:
	.loc 1 321 4 is_stmt 1 view .LVU35
	.loc 1 321 9 view .LVU36
	mov	r1, r10
	movs	r0, #37
	blx	r9
.LVL9:
	.loc 1 321 31 view .LVU37
	.loc 1 321 7 view .LVU38
	.loc 1 322 4 view .LVU39
	.loc 1 322 9 view .LVU40
	ldrb	r0, [r6]	@ zero_extendqisi2
	mov	r1, r10
	b	.L96
.LVL10:
.L4:
	.loc 1 93 3 view .LVU41
	.loc 1 93 6 is_stmt 0 view .LVU42
	cmp	r0, #0
	beq	.L3
	.loc 1 96 3 is_stmt 1 view .LVU43
	.loc 1 96 8 view .LVU44
	mov	r1, r10
	blx	r9
.LVL11:
	.loc 1 96 31 view .LVU45
	.loc 1 92 16 is_stmt 0 view .LVU46
	str	r5, [sp, #4]
	b	.L2
.LVL12:
.L6:
	.loc 1 107 3 view .LVU47
	sub	r1, r3, #32
	cmp	r1, #25
	bhi	.L7
	adr	ip, .L15
	ldr	pc, [ip, r1, lsl #2]
	.p2align 2
.L15:
	.word	.L19+1
	.word	.L7+1
	.word	.L7+1
	.word	.L19+1
	.word	.L7+1
	.word	.L21+1
	.word	.L7+1
	.word	.L7+1
	.word	.L7+1
	.word	.L7+1
	.word	.L20+1
	.word	.L19+1
	.word	.L7+1
	.word	.L68+1
	.word	.L17+1
	.word	.L7+1
	.word	.L16+1
	.word	.L14+1
	.word	.L14+1
	.word	.L14+1
	.word	.L14+1
	.word	.L14+1
	.word	.L14+1
	.word	.L14+1
	.word	.L14+1
	.word	.L14+1
	.p2align 1
.L19:
	.loc 1 107 11 view .LVU48
	mov	r0, r3
.LVL13:
.L18:
	.loc 1 107 11 view .LVU49
	adds	r6, r6, #1
.LVL14:
	.loc 1 106 20 is_stmt 1 view .LVU50
	.loc 1 106 2 view .LVU51
	.loc 1 107 3 is_stmt 0 view .LVU52
	b	.L67
.LVL15:
.L5:
	.loc 1 107 3 view .LVU53
	cmp	r3, #88
	beq	.L22
	sub	r1, r3, #99
	uxtb	ip, r1
	cmp	ip, #23
	bhi	.L7
	cmp	r1, #23
	bhi	.L7
	adr	ip, .L9
	ldr	pc, [ip, r1, lsl #2]
	.p2align 2
.L9:
	.word	.L13+1
	.word	.L11+1
	.word	.L7+1
	.word	.L7+1
	.word	.L7+1
	.word	.L8+1
	.word	.L11+1
	.word	.L7+1
	.word	.L7+1
	.word	.L8+1
	.word	.L7+1
	.word	.L7+1
	.word	.L7+1
	.word	.L10+1
	.word	.L7+1
	.word	.L7+1
	.word	.L12+1
	.word	.L7+1
	.word	.L11+1
	.word	.L7+1
	.word	.L7+1
	.word	.L10+1
	.word	.L7+1
	.word	.L8+1
	.p2align 1
.L21:
	.loc 1 112 4 is_stmt 1 view .LVU54
	.loc 1 112 9 view .LVU55
	mov	r1, r10
	movs	r0, #37
.LVL16:
.L96:
	.loc 1 322 9 is_stmt 0 view .LVU56
	blx	r9
.LVL17:
	.loc 1 322 32 is_stmt 1 view .LVU57
	.loc 1 322 7 view .LVU58
	.loc 1 323 4 view .LVU59
	b	.L2
.LVL18:
.L17:
	.loc 1 120 4 discriminator 3 view .LVU60
	.loc 1 121 4 discriminator 3 view .LVU61
	.loc 1 121 17 is_stmt 0 discriminator 3 view .LVU62
	ldr	r3, [sp]
	and	r3, r3, #254
	str	r3, [sp]
.LVL19:
	.loc 1 122 4 is_stmt 1 discriminator 3 view .LVU63
	.loc 1 120 14 is_stmt 0 discriminator 3 view .LVU64
	movs	r7, #0
	.loc 1 122 4 discriminator 3 view .LVU65
	b	.L18
.LVL20:
.L16:
	.loc 1 125 4 is_stmt 1 view .LVU66
	.loc 1 125 7 is_stmt 0 view .LVU67
	cmp	r5, #0
	bge	.L14
	.loc 1 125 22 discriminator 1 view .LVU68
	cmp	r7, #0
	bge	.L25
	.loc 1 125 39 discriminator 2 view .LVU69
	ldr	r1, [sp]
	cmp	r1, #0
	beq	.L69
.L26:
	.loc 1 143 5 is_stmt 1 view .LVU70
	.loc 1 146 5 view .LVU71
	.loc 1 143 8 is_stmt 0 view .LVU72
	bic	r5, r5, r5, asr #31
	.loc 1 146 32 view .LVU73
	movs	r1, #10
	mla	r5, r1, r5, r3
.LVL21:
	.loc 1 146 15 view .LVU74
	subs	r5, r5, #48
.LVL22:
	.loc 1 146 15 view .LVU75
	b	.L18
.LVL23:
.L14:
	.loc 1 129 4 is_stmt 1 view .LVU76
	.loc 1 140 4 view .LVU77
	.loc 1 140 7 is_stmt 0 view .LVU78
	cmp	r7, #0
	blt	.L26
.L25:
	.loc 1 141 5 is_stmt 1 view .LVU79
	.loc 1 141 32 is_stmt 0 view .LVU80
	movs	r1, #10
	mla	r3, r1, r7, r3
	.loc 1 141 15 view .LVU81
	sub	r7, r3, #48
.LVL24:
	.loc 1 141 15 view .LVU82
	b	.L18
.L20:
	.loc 1 151 4 is_stmt 1 discriminator 3 view .LVU83
	.loc 1 151 9 discriminator 3 view .LVU84
	.loc 1 151 7 discriminator 3 view .LVU85
	.loc 1 153 4 discriminator 3 view .LVU86
	.loc 1 153 7 is_stmt 0 discriminator 3 view .LVU87
	cmp	r7, #0
	.loc 1 154 15 discriminator 3 view .LVU88
	ldr	r3, [r4], #4
.LVL25:
	.loc 1 153 7 discriminator 3 view .LVU89
	bge	.L70
	.loc 1 156 5 is_stmt 1 view .LVU90
.LVL26:
	.loc 1 157 5 view .LVU91
	.loc 1 157 8 is_stmt 0 view .LVU92
	cmp	r3, #0
	bge	.L71
	.loc 1 158 6 is_stmt 1 view .LVU93
	.loc 1 158 16 is_stmt 0 view .LVU94
	rsbs	r5, r3, #0
.LVL27:
	.loc 1 159 6 is_stmt 1 view .LVU95
.L68:
	.loc 1 107 3 is_stmt 0 view .LVU96
	movs	r3, #2
.L100:
	.loc 1 126 18 view .LVU97
	str	r3, [sp]
	b	.L18
.LVL28:
.L8:
	.loc 1 173 4 is_stmt 1 view .LVU98
	.loc 1 173 7 is_stmt 0 view .LVU99
	cmp	r3, #104
	bne	.L27
	.loc 1 173 20 discriminator 1 view .LVU100
	cmp	r2, #104
	bne	.L28
	.loc 1 174 16 view .LVU101
	movs	r2, #72
.LVL29:
	.loc 1 174 16 view .LVU102
	b	.L18
.LVL30:
.L27:
	.loc 1 175 11 is_stmt 1 view .LVU103
	.loc 1 175 14 is_stmt 0 view .LVU104
	cmp	r3, #108
	bne	.L28
	.loc 1 175 27 discriminator 1 view .LVU105
	cmp	r2, #108
	beq	.L73
.L28:
	.loc 1 177 11 is_stmt 1 view .LVU106
	.loc 1 177 14 is_stmt 0 view .LVU107
	cmp	r2, #0
	bne	.L7
	.loc 1 107 11 view .LVU108
	mov	r2, r3
.LVL31:
	.loc 1 107 11 view .LVU109
	b	.L18
.LVL32:
.L11:
.LBB14:
	.loc 1 189 4 is_stmt 1 discriminator 3 view .LVU110
	.loc 1 191 4 discriminator 3 view .LVU111
	.loc 1 191 9 discriminator 3 view .LVU112
	.loc 1 191 7 discriminator 3 view .LVU113
	.loc 1 193 4 discriminator 3 view .LVU114
	.loc 1 193 7 is_stmt 0 discriminator 3 view .LVU115
	cmp	r2, #122
	bne	.L29
.L35:
	.loc 1 228 11 is_stmt 1 view .LVU116
	.loc 1 228 14 is_stmt 0 view .LVU117
	cmp	r3, #117
.LBE14:
	.loc 1 154 15 view .LVU118
	ldr	r6, [r4], #4
.LVL33:
.LBB24:
	.loc 1 228 14 view .LVU119
	bne	.L37
	.loc 1 229 5 is_stmt 1 view .LVU120
.LVL34:
	.loc 1 229 7 is_stmt 0 view .LVU121
	mov	fp, #0
.LVL35:
	.loc 1 234 4 is_stmt 1 view .LVU122
	b	.L31
.LVL36:
.L29:
	.loc 1 199 11 view .LVU123
	.loc 1 199 14 is_stmt 0 view .LVU124
	cmp	r2, #108
	beq	.L35
	.loc 1 205 11 is_stmt 1 view .LVU125
	.loc 1 205 14 is_stmt 0 view .LVU126
	cmp	r2, #76
	bne	.L35
	.loc 1 206 5 is_stmt 1 view .LVU127
.LBB15:
	.loc 1 207 25 is_stmt 0 view .LVU128
	adds	r2, r4, #7
.LVL37:
	.loc 1 207 25 view .LVU129
	bic	r2, r2, #7
.LBE15:
	.loc 1 206 8 view .LVU130
	cmp	r3, #117
.LBB16:
	.loc 1 207 25 view .LVU131
	ldrd	r6, fp, [r2]
.LVL38:
	.loc 1 207 25 view .LVU132
	add	r4, r2, #8
.LVL39:
	.loc 1 207 25 view .LVU133
.LBE16:
	.loc 1 206 8 view .LVU134
	bne	.L32
.LVL40:
.L31:
	.loc 1 238 11 is_stmt 1 view .LVU135
	.loc 1 238 14 is_stmt 0 view .LVU136
	cmp	r0, #32
	bne	.L39
	.loc 1 239 5 is_stmt 1 view .LVU137
.LVL41:
	.loc 1 240 5 view .LVU138
	.loc 1 239 12 is_stmt 0 view .LVU139
	ldr	r8, .L103+4
	.loc 1 240 14 view .LVU140
	subs	r5, r5, #1
.LVL42:
	.loc 1 240 14 view .LVU141
	b	.L38
.LVL43:
.L37:
	.loc 1 231 5 is_stmt 1 view .LVU142
	.loc 1 231 7 is_stmt 0 view .LVU143
	asr	fp, r6, #31
.LVL44:
	.loc 1 234 4 is_stmt 1 view .LVU144
.L32:
	.loc 1 234 20 is_stmt 0 discriminator 1 view .LVU145
	cmp	fp, #0
	bge	.L31
	.loc 1 235 5 is_stmt 1 view .LVU146
	.loc 1 235 7 is_stmt 0 view .LVU147
	negs	r6, r6
.LVL45:
	.loc 1 236 12 view .LVU148
	ldr	r8, .L103+8
	.loc 1 235 7 view .LVU149
	sbc	fp, fp, fp, lsl #1
.LVL46:
	.loc 1 236 5 is_stmt 1 view .LVU150
	.loc 1 237 5 view .LVU151
	.loc 1 237 14 is_stmt 0 view .LVU152
	subs	r5, r5, #1
.LVL47:
.L38:
	.loc 1 245 5 is_stmt 1 view .LVU153
	.loc 1 247 4 view .LVU154
.LBB17:
.LBI17:
	.loc 1 31 19 view .LVU155
.LBB18:
	.loc 1 34 2 view .LVU156
	.loc 1 34 2 is_stmt 0 view .LVU157
	add	r3, sp, #37
	str	r3, [sp, #12]
.LBE18:
.LBE17:
	.loc 1 242 12 view .LVU158
	movs	r3, #0
	str	r3, [sp, #8]
.LVL48:
.L40:
.LBB23:
.LBB22:
	.loc 1 36 2 is_stmt 1 view .LVU159
.LBB19:
	.loc 1 37 3 view .LVU160
	mov	r0, r6
	mov	r1, fp
	movs	r2, #10
	movs	r3, #0
	bl	__aeabi_uldivmod
.LVL49:
	.loc 1 38 3 view .LVU161
	.loc 1 41 3 view .LVU162
	.loc 1 41 15 is_stmt 0 view .LVU163
	ldr	r3, [sp, #12]
	.loc 1 41 19 view .LVU164
	adds	r2, r2, #48
.LVL50:
	.loc 1 41 15 view .LVU165
	strb	r2, [r3, #-1]!
	mov	ip, r6
	str	r3, [sp, #12]
	.loc 1 42 3 is_stmt 1 view .LVU166
	ldr	r3, [sp, #8]
	mov	r2, fp
.LVL51:
	.loc 1 42 3 is_stmt 0 view .LVU167
.LBE19:
	.loc 1 43 11 view .LVU168
	cmp	ip, #10
.LBB20:
	.loc 1 42 7 view .LVU169
	mov	fp, r1
.LVL52:
	.loc 1 42 7 view .LVU170
.LBE20:
	.loc 1 43 11 is_stmt 1 view .LVU171
	sbcs	r2, r2, #0
	add	r1, r3, #-1
.LVL53:
.LBB21:
	.loc 1 42 7 is_stmt 0 view .LVU172
	mov	r6, r0
.LBE21:
	.loc 1 43 11 view .LVU173
	str	r1, [sp, #8]
	bcs	.L40
	.loc 1 45 2 is_stmt 1 view .LVU174
	.loc 1 45 9 is_stmt 0 view .LVU175
	rsb	fp, r3, #1
.LVL54:
	.loc 1 45 9 view .LVU176
.LBE22:
.LBE23:
	.loc 1 248 4 is_stmt 1 view .LVU177
	.loc 1 248 29 is_stmt 0 view .LVU178
	adds	r3, r3, #40
.LVL55:
.L98:
	.loc 1 248 29 view .LVU179
.LBE24:
.LBB25:
	.loc 1 290 29 view .LVU180
	add	r6, sp, r3
.LBE25:
	.loc 1 326 6 view .LVU181
	cmp	r7, #0
.LBB36:
	.loc 1 290 9 view .LVU182
	sub	r6, r6, #4
.LVL56:
	.loc 1 291 4 is_stmt 1 view .LVU183
	.loc 1 291 4 is_stmt 0 view .LVU184
.LBE36:
	.loc 1 326 3 is_stmt 1 view .LVU185
	.loc 1 326 6 is_stmt 0 view .LVU186
	bge	.L54
	.loc 1 326 21 discriminator 1 view .LVU187
	ldr	r3, [sp]
	lsls	r1, r3, #31
	bmi	.L80
	.loc 1 329 13 view .LVU188
	sub	r5, r5, fp
	.loc 1 329 3 is_stmt 1 view .LVU189
	.loc 1 330 3 view .LVU190
	.loc 1 330 13 is_stmt 0 view .LVU191
	sub	r3, r7, fp
.LVL57:
	.loc 1 331 3 is_stmt 1 view .LVU192
.L53:
	.loc 1 335 3 view .LVU193
	.loc 1 335 6 is_stmt 0 view .LVU194
	ldr	r2, [sp]
	lsls	r2, r2, #30
	bmi	.L57
	.loc 1 335 6 view .LVU195
	mov	r7, r5
	b	.L56
.LVL58:
.L39:
.LBB37:
	.loc 1 241 11 is_stmt 1 view .LVU196
	.loc 1 241 14 is_stmt 0 view .LVU197
	cmp	r0, #43
	.loc 1 242 5 is_stmt 1 view .LVU198
.LVL59:
	.loc 1 243 5 view .LVU199
	.loc 1 242 12 is_stmt 0 view .LVU200
	itet	eq
	ldreq	r8, .L103+12
.LBE37:
	.loc 1 101 9 view .LVU201
	ldrne	r8, .L103+16
.LBB38:
	.loc 1 243 14 view .LVU202
	addeq	r5, r5, #-1
.LVL60:
	.loc 1 243 14 view .LVU203
	b	.L38
.LVL61:
.L10:
	.loc 1 243 14 view .LVU204
.LBE38:
.LBB39:
	.loc 1 255 4 is_stmt 1 discriminator 3 view .LVU205
	.loc 1 257 4 discriminator 3 view .LVU206
	.loc 1 257 9 discriminator 3 view .LVU207
	.loc 1 257 7 discriminator 3 view .LVU208
	.loc 1 259 4 discriminator 3 view .LVU209
	.loc 1 259 7 is_stmt 0 discriminator 3 view .LVU210
	cmp	r3, #112
	bne	.L76
	.loc 1 260 5 is_stmt 1 view .LVU211
.LVL62:
	.loc 1 260 7 is_stmt 0 view .LVU212
	ldr	r1, [r4], #4
.LVL63:
	.loc 1 260 7 view .LVU213
	movs	r2, #0
.LVL64:
	.loc 1 261 5 is_stmt 1 view .LVU214
	.loc 1 261 8 is_stmt 0 view .LVU215
	cmp	r1, #0
	beq	.L42
.LVL65:
.L43:
	.loc 1 285 35 view .LVU216
	ldr	r8, .L103+20
.L48:
.LVL66:
	.loc 1 286 5 is_stmt 1 discriminator 4 view .LVU217
	.loc 1 286 15 is_stmt 0 discriminator 4 view .LVU218
	subs	r5, r5, #2
.LVL67:
.L47:
	.loc 1 288 4 is_stmt 1 view .LVU219
	.loc 1 288 45 is_stmt 0 view .LVU220
	and	r3, r3, #96
	.loc 1 288 64 view .LVU221
	subs	r3, r3, #57
.LVL68:
.LBB26:
.LBI26:
	.loc 1 31 19 is_stmt 1 view .LVU222
.LBB27:
	.loc 1 34 2 view .LVU223
	.loc 1 34 2 is_stmt 0 view .LVU224
	add	ip, sp, #37
.LBE27:
.LBE26:
	.loc 1 288 15 view .LVU225
	movs	r6, #0
.LVL69:
.L50:
.LBB33:
.LBB31:
	.loc 1 36 2 is_stmt 1 view .LVU226
.LBB28:
	.loc 1 37 3 view .LVU227
	.loc 1 37 24 is_stmt 0 view .LVU228
	and	r0, r1, #15
.LVL70:
	.loc 1 38 3 is_stmt 1 view .LVU229
	.loc 1 38 6 is_stmt 0 view .LVU230
	cmp	r0, #9
	.loc 1 39 4 is_stmt 1 view .LVU231
	.loc 1 39 6 is_stmt 0 view .LVU232
	it	hi
	addhi	r0, r0, r3
.LVL71:
	.loc 1 41 3 is_stmt 1 view .LVU233
	.loc 1 41 19 is_stmt 0 view .LVU234
	adds	r0, r0, #48
.LVL72:
	.loc 1 41 15 view .LVU235
	strb	r0, [ip, #-1]!
	.loc 1 42 3 is_stmt 1 view .LVU236
.LBE28:
	.loc 1 43 11 is_stmt 0 view .LVU237
	cmp	r1, #16
.LBB29:
	.loc 1 42 7 view .LVU238
	lsr	r0, r1, #4
.LVL73:
	.loc 1 42 7 view .LVU239
	orr	r0, r0, r2, lsl #28
	lsr	fp, r2, #4
.LVL74:
	.loc 1 42 7 view .LVU240
.LBE29:
	.loc 1 43 11 is_stmt 1 view .LVU241
	sbcs	r2, r2, #0
	add	lr, r6, #-1
.LVL75:
	.loc 1 43 11 is_stmt 0 view .LVU242
	bcs	.L79
	.loc 1 45 2 is_stmt 1 view .LVU243
	.loc 1 45 9 is_stmt 0 view .LVU244
	rsb	fp, r6, #1
.LVL76:
	.loc 1 45 9 view .LVU245
.LBE31:
.LBE33:
	.loc 1 290 4 is_stmt 1 view .LVU246
	.loc 1 290 29 is_stmt 0 view .LVU247
	add	r3, r6, #40
	b	.L98
.LVL77:
.L76:
	.loc 1 290 29 view .LVU248
.LBE39:
	.loc 1 107 11 view .LVU249
	movs	r3, #120
.L22:
.LBB40:
	.loc 1 268 11 is_stmt 1 view .LVU250
	.loc 1 268 14 is_stmt 0 view .LVU251
	cmp	r2, #108
	bne	.L44
.L46:
	.loc 1 282 5 is_stmt 1 view .LVU252
.LVL78:
	.loc 1 282 7 is_stmt 0 view .LVU253
	ldr	r1, [r4], #4
.LVL79:
	.loc 1 282 7 view .LVU254
	movs	r2, #0
.LVL80:
	.loc 1 282 7 view .LVU255
	b	.L45
.LVL81:
.L44:
	.loc 1 270 11 is_stmt 1 view .LVU256
	.loc 1 270 14 is_stmt 0 view .LVU257
	cmp	r2, #76
	bne	.L46
.LBB34:
	.loc 1 271 5 is_stmt 1 view .LVU258
	.loc 1 271 24 is_stmt 0 view .LVU259
	adds	r2, r4, #7
.LVL82:
	.loc 1 271 24 view .LVU260
	bic	r2, r2, #7
	mov	r4, r2
.LVL83:
	.loc 1 271 24 view .LVU261
	ldr	r2, [r2, #4]
.LVL84:
	.loc 1 274 5 is_stmt 1 view .LVU262
	.loc 1 280 5 view .LVU263
	.loc 1 271 24 is_stmt 0 view .LVU264
	ldr	r1, [r4], #8
.LVL85:
.L45:
	.loc 1 271 24 view .LVU265
.LBE34:
	.loc 1 284 4 is_stmt 1 view .LVU266
	.loc 1 284 7 is_stmt 0 view .LVU267
	cmp	r0, #35
	bne	.L77
.LVL86:
	.loc 1 285 5 is_stmt 1 view .LVU268
	.loc 1 285 35 is_stmt 0 view .LVU269
	lsls	r0, r3, #26
	bmi	.L43
	ldr	r8, .L103+24
	b	.L48
.LVL87:
.L77:
	.loc 1 285 35 view .LVU270
.LBE40:
	.loc 1 101 9 view .LVU271
	ldr	r8, .L103+16
	b	.L47
.LVL88:
.L79:
.LBB41:
.LBB35:
.LBB32:
	.loc 1 101 9 view .LVU272
	mov	r6, lr
.LBB30:
	.loc 1 42 7 view .LVU273
	mov	r1, r0
.LVL89:
	.loc 1 42 7 view .LVU274
	mov	r2, fp
	b	.L50
.LVL90:
.L12:
	.loc 1 42 7 view .LVU275
.LBE30:
.LBE32:
.LBE35:
.LBE41:
	.loc 1 295 4 is_stmt 1 view .LVU276
	.loc 1 295 9 view .LVU277
	.loc 1 295 7 view .LVU278
	.loc 1 297 4 view .LVU279
	.loc 1 297 9 is_stmt 0 view .LVU280
	ldr	r6, [r4], #4
.LVL91:
	.loc 1 298 4 is_stmt 1 view .LVU281
	.loc 1 298 15 is_stmt 0 view .LVU282
	mov	r0, r6
	bl	strlen
.LVL92:
	.loc 1 299 7 view .LVU283
	cmp	r7, #0
	.loc 1 298 15 view .LVU284
	mov	fp, r0
.LVL93:
	.loc 1 299 4 is_stmt 1 view .LVU285
	.loc 1 299 7 is_stmt 0 view .LVU286
	blt	.L51
.LVL94:
	.loc 1 299 7 view .LVU287
	cmp	r0, r7
	it	ge
	movge	fp, r7
.LVL95:
	.loc 1 326 3 is_stmt 1 view .LVU288
	.loc 1 329 3 view .LVU289
	.loc 1 330 3 view .LVU290
	.loc 1 101 9 is_stmt 0 view .LVU291
	ldr	r8, .L103+16
	.loc 1 330 13 view .LVU292
	rsb	r3, fp, #0
.LVL96:
	.loc 1 331 3 is_stmt 1 view .LVU293
.L52:
	.loc 1 329 13 is_stmt 0 view .LVU294
	sub	r5, r5, fp
	b	.L53
.LVL97:
.L13:
.LBB42:
	.loc 1 307 4 is_stmt 1 view .LVU295
	.loc 1 309 4 view .LVU296
	.loc 1 309 9 view .LVU297
	.loc 1 309 7 view .LVU298
	.loc 1 311 4 view .LVU299
	.loc 1 313 4 view .LVU300
	.loc 1 313 11 is_stmt 0 view .LVU301
	ldr	r3, [r4], #4
.LVL98:
	.loc 1 313 11 view .LVU302
	strb	r3, [sp, #16]
	.loc 1 314 4 is_stmt 1 view .LVU303
.LVL99:
	.loc 1 315 4 view .LVU304
	.loc 1 316 4 view .LVU305
	.loc 1 317 4 view .LVU306
	.loc 1 317 4 is_stmt 0 view .LVU307
.LBE42:
	.loc 1 326 3 is_stmt 1 view .LVU308
	.loc 1 329 3 view .LVU309
	.loc 1 329 13 is_stmt 0 view .LVU310
	subs	r5, r5, #1
.LVL100:
	.loc 1 330 3 is_stmt 1 view .LVU311
	.loc 1 331 3 view .LVU312
	.loc 1 330 13 is_stmt 0 view .LVU313
	mov	r3, #-1
.LBB43:
	.loc 1 315 13 view .LVU314
	mov	fp, #1
	.loc 1 314 9 view .LVU315
	add	r6, sp, #16
.LVL101:
.L99:
	.loc 1 314 9 view .LVU316
.LBE43:
	.loc 1 101 9 view .LVU317
	ldr	r8, .L103+16
	b	.L53
.LVL102:
.L51:
	.loc 1 329 3 is_stmt 1 view .LVU318
	.loc 1 329 13 is_stmt 0 view .LVU319
	subs	r5, r5, r0
.LVL103:
	.loc 1 330 3 is_stmt 1 view .LVU320
	.loc 1 330 13 is_stmt 0 view .LVU321
	rsbs	r3, r0, #0
.LVL104:
	.loc 1 331 3 is_stmt 1 view .LVU322
	b	.L99
.LVL105:
.L42:
	.loc 1 329 3 view .LVU323
.LBB44:
	.loc 1 262 11 is_stmt 0 view .LVU324
	ldr	r6, .L103
.LVL106:
	.loc 1 262 11 view .LVU325
.LBE44:
	.loc 1 329 13 view .LVU326
	subs	r5, r5, #5
.LVL107:
	.loc 1 330 3 is_stmt 1 view .LVU327
	.loc 1 331 3 view .LVU328
	.loc 1 330 13 is_stmt 0 view .LVU329
	mvn	r3, #4
.LBB45:
	.loc 1 263 15 view .LVU330
	mov	fp, #5
	b	.L99
.LVL108:
.L80:
	.loc 1 263 15 view .LVU331
.LBE45:
	mov	r7, r5
.LVL109:
.L54:
	.loc 1 329 3 is_stmt 1 view .LVU332
	.loc 1 330 3 view .LVU333
	.loc 1 330 13 is_stmt 0 view .LVU334
	sub	r3, r7, fp
.LVL110:
	.loc 1 331 3 is_stmt 1 view .LVU335
	.loc 1 331 6 is_stmt 0 view .LVU336
	cmp	r3, #0
	ble	.L52
	.loc 1 332 4 is_stmt 1 view .LVU337
	.loc 1 332 14 is_stmt 0 view .LVU338
	subs	r5, r5, r7
.LVL111:
	.loc 1 332 14 view .LVU339
	b	.L53
.LVL112:
.L58:
	.loc 1 332 14 view .LVU340
	str	r3, [sp]
	.loc 1 337 5 is_stmt 1 view .LVU341
	.loc 1 337 10 view .LVU342
	mov	r1, r10
	movs	r0, #32
	blx	r9
.LVL113:
	.loc 1 337 32 view .LVU343
	ldr	r3, [sp]
.L56:
	.loc 1 337 8 discriminator 3 view .LVU344
	.loc 1 336 23 discriminator 3 view .LVU345
.LVL114:
	.loc 1 336 23 is_stmt 0 discriminator 3 view .LVU346
	subs	r7, r7, #1
.LVL115:
	.loc 1 336 23 discriminator 3 view .LVU347
	bpl	.L58
	subs	r2, r5, #1
	.loc 1 336 23 view .LVU348
	cmp	r5, #0
	ite	ge
	subge	r5, r2, r5
	movlt	r5, r2
.LVL116:
.L57:
	.loc 1 336 23 view .LVU349
	add	r8, r8, #-1
	b	.L59
.LVL117:
.L60:
	.loc 1 336 23 view .LVU350
	str	r3, [sp]
	.loc 1 341 4 is_stmt 1 view .LVU351
	.loc 1 341 9 view .LVU352
.LVL118:
	.loc 1 341 9 is_stmt 0 view .LVU353
	mov	r1, r10
	blx	r9
.LVL119:
	.loc 1 341 37 is_stmt 1 view .LVU354
	ldr	r3, [sp]
.LVL120:
.L59:
	.loc 1 341 7 discriminator 3 view .LVU355
	.loc 1 340 10 discriminator 3 view .LVU356
	ldrb	r0, [r8, #1]!	@ zero_extendqisi2
.LVL121:
	.loc 1 340 10 is_stmt 0 discriminator 3 view .LVU357
	cmp	r0, #0
	bne	.L60
.L61:
.LVL122:
	.loc 1 344 7 is_stmt 1 discriminator 3 view .LVU358
	.loc 1 343 22 discriminator 3 view .LVU359
	.loc 1 343 22 is_stmt 0 discriminator 3 view .LVU360
	subs	r3, r3, #1
.LVL123:
	.loc 1 343 22 discriminator 3 view .LVU361
	bpl	.L62
	add	fp, fp, r6
.LVL124:
.L63:
	.loc 1 347 7 is_stmt 1 discriminator 3 view .LVU362
	.loc 1 346 21 discriminator 3 view .LVU363
	.loc 1 346 21 is_stmt 0 discriminator 3 view .LVU364
	cmp	r6, fp
	bne	.L64
.L65:
.LVL125:
	.loc 1 350 7 is_stmt 1 discriminator 3 view .LVU365
	.loc 1 349 22 discriminator 3 view .LVU366
	.loc 1 349 22 is_stmt 0 discriminator 3 view .LVU367
	subs	r5, r5, #1
.LVL126:
	.loc 1 349 22 discriminator 3 view .LVU368
	bmi	.L2
	.loc 1 350 4 is_stmt 1 view .LVU369
	.loc 1 350 9 view .LVU370
	mov	r1, r10
	movs	r0, #32
	blx	r9
.LVL127:
	.loc 1 350 31 view .LVU371
	b	.L65
.LVL128:
.L62:
	.loc 1 350 31 is_stmt 0 view .LVU372
	str	r3, [sp]
	.loc 1 344 4 is_stmt 1 view .LVU373
	.loc 1 344 9 view .LVU374
	mov	r1, r10
	movs	r0, #48
	blx	r9
.LVL129:
	.loc 1 344 9 is_stmt 0 view .LVU375
	ldr	r3, [sp]
	.loc 1 344 31 is_stmt 1 view .LVU376
	b	.L61
.LVL130:
.L64:
	.loc 1 347 4 view .LVU377
	.loc 1 347 9 view .LVU378
	.loc 1 347 9 is_stmt 0 view .LVU379
	ldrb	r0, [r6], #1	@ zero_extendqisi2
.LVL131:
	.loc 1 347 9 view .LVU380
	mov	r1, r10
	blx	r9
.LVL132:
	.loc 1 347 35 is_stmt 1 view .LVU381
	b	.L63
.LVL133:
.L69:
	.loc 1 126 18 is_stmt 0 view .LVU382
	movs	r3, #1
	b	.L100
.LVL134:
.L70:
	.loc 1 154 15 view .LVU383
	mov	r7, r3
.LVL135:
	.loc 1 154 15 view .LVU384
	b	.L18
.LVL136:
.L71:
	.loc 1 154 15 view .LVU385
	mov	r5, r3
	b	.L18
.LVL137:
.L73:
	.loc 1 176 16 view .LVU386
	movs	r2, #76
.LVL138:
	.loc 1 176 16 view .LVU387
	b	.L18
.LVL139:
.L3:
	.loc 1 355 1 view .LVU388
	movs	r0, #0
	add	sp, sp, #44
	.cfi_def_cfa_offset 36
	@ sp needed
	pop	{r4, r5, r6, r7, r8, r9, r10, fp, pc}
.LVL140:
.L104:
	.loc 1 355 1 view .LVU389
	.align	2
.L103:
	.word	.LC6
	.word	.LC1
	.word	.LC0
	.word	.LC3
	.word	.LC2
	.word	.LC4
	.word	.LC5
	.cfi_endproc
.LFE274:
	.size	z_cbvprintf_impl, .-z_cbvprintf_impl
	.text
.Letext0:
	.file 2 "/home/g/zephyr-sdk-0.16.3/arm-zephyr-eabi/lib/gcc/arm-zephyr-eabi/12.2.0/include/stdarg.h"
	.file 3 "/home/g/zephyr-sdk-0.16.3/arm-zephyr-eabi/picolibc/include/machine/_default_types.h"
	.file 4 "/home/g/zephyr-sdk-0.16.3/arm-zephyr-eabi/picolibc/include/sys/_stdint.h"
	.file 5 "/home/g/zephyr-sdk-0.16.3/arm-zephyr-eabi/lib/gcc/arm-zephyr-eabi/12.2.0/include/stddef.h"
	.file 6 "/home/g/mise-work/zmk-firmware/zmk/zephyr/include/zephyr/sys/cbprintf.h"
	.file 7 "<built-in>"
	.file 8 "/home/g/zephyr-sdk-0.16.3/arm-zephyr-eabi/picolibc/include/string.h"