	.cpu cortex-m4
	.arch armv7e-m
	.fpu fpv4-sp-d16
	.eabi_attribute 27, 1
	.eabi_attribute 28, 1
	.eabi_attribute 20, 1
	.eabi_attribute 21, 1
	.eabi_attribute 23, 3
	.eabi_attribute 24, 1
	.eabi_attribute 25, 1
	.eabi_attribute 26, 1
	.eabi_attribute 30, 4
	.eabi_attribute 34, 1
	.eabi_attribute 38, 1
	.eabi_attribute 18, 4
	.file	"cbprintf_packaged.c"
	.text
.Ltext0:
	.cfi_sections	.debug_frame
	.file 1 "/home/g/mise-work/zmk-firmware/zmk/zephyr/lib/os/cbprintf_packaged.c"
	.section	.text.cbvprintf_package,"ax",%progbits
	.align	1
	.global	cbvprintf_package
	.syntax unified
	.thumb
	.thumb_func
	.type	cbvprintf_package, %function
cbvprintf_package:
.LVL0:
.LFB298:
	.loc 1 235 1 view -0
	.cfi_startproc
	@ args = 4, pretend = 0, frame = 64
	@ frame_needed = 0, uses_anonymous_args = 0
	.loc 1 235 1 is_stmt 0 view .LVU1
	push	{r4, r5, r6, r7, r8, r9, r10, fp, lr}
	.cfi_def_cfa_offset 36
	.cfi_offset 4, -36
	.cfi_offset 5, -32
	.cfi_offset 6, -28
	.cfi_offset 7, -24
	.cfi_offset 8, -20
	.cfi_offset 9, -16
	.cfi_offset 10, -12
	.cfi_offset 11, -8
	.cfi_offset 14, -4
	sub	sp, sp, #68
	.cfi_def_cfa_offset 104
	.loc 1 273 5 view .LVU2
	lsls	r4, r0, #30
	.loc 1 235 1 view .LVU3
	str	r3, [sp]
	.loc 1 263 28 view .LVU4
	and	r3, r2, #4
.LVL1:
	.loc 1 263 28 view .LVU5
	str	r3, [sp, #8]
	.loc 1 268 37 view .LVU6
	ubfx	r3, r2, #3, #3
	.loc 1 268 19 view .LVU7
	add	r3, r3, #1
	ldr	r9, [sp, #104]
.LVL2:
	.loc 1 247 2 is_stmt 1 view .LVU8
	.loc 1 248 2 view .LVU9
	.loc 1 249 2 view .LVU10
	.loc 1 250 2 view .LVU11
	.loc 1 251 2 view .LVU12
	.loc 1 252 2 view .LVU13
	.loc 1 253 2 view .LVU14
	.loc 1 254 2 view .LVU15
	.loc 1 255 2 view .LVU16
	.loc 1 256 2 view .LVU17
	.loc 1 257 2 view .LVU18
	.loc 1 258 2 view .LVU19
	.loc 1 259 1 view .LVU20
	.loc 1 263 1 view .LVU21
	.loc 1 268 2 view .LVU22
	.loc 1 235 1 is_stmt 0 view .LVU23
	str	r2, [sp, #12]
	mov	r5, r0
	mov	r6, r1
	.loc 1 268 19 view .LVU24
	str	r3, [sp, #20]
.LVL3:
	.loc 1 269 1 is_stmt 1 view .LVU25
	.loc 1 270 2 view .LVU26
	.loc 1 273 2 view .LVU27
	.loc 1 273 5 is_stmt 0 view .LVU28
	bne	.L56
	.loc 1 297 2 is_stmt 1 view .LVU29
	.loc 1 297 6 is_stmt 0 view .LVU30
	adds	r4, r0, #4
.LVL4:
	.loc 1 305 2 is_stmt 1 view .LVU31
	.loc 1 305 5 is_stmt 0 view .LVU32
	cbz	r0, .L3
	.loc 1 327 2 is_stmt 1 view .LVU33
	.loc 1 327 18 is_stmt 0 view .LVU34
	cmp	r1, #7
	bhi	.L4
.LVL5:
.L23:
	.loc 1 328 10 view .LVU35
	mvn	r0, #27
.LVL6:
.L1:
	.loc 1 813 1 view .LVU36
	add	sp, sp, #68
	.cfi_remember_state
	.cfi_def_cfa_offset 36
	@ sp needed
	pop	{r4, r5, r6, r7, r8, r9, r10, fp, pc}
.LVL7:
.L3:
	.cfi_restore_state
	.loc 1 306 3 is_stmt 1 view .LVU37
	.loc 1 306 14 is_stmt 0 view .LVU38
	and	r6, r1, #7
	.loc 1 306 7 view .LVU39
	adds	r4, r6, #4
.LVL8:
	.loc 1 320 3 is_stmt 1 view .LVU40
	.loc 1 320 7 is_stmt 0 view .LVU41
	rsb	r6, r6, #8
.LVL9:
	.loc 1 327 2 is_stmt 1 view .LVU42
.L4:
	.loc 1 338 2 view .LVU43
	.loc 1 338 9 is_stmt 0 view .LVU44
	ldr	r3, [sp]
.LVL10:
	.loc 1 255 15 view .LVU45
	mov	r8, #0
	.loc 1 338 9 view .LVU46
	subs	r1, r3, #1
.LVL11:
	.loc 1 339 2 is_stmt 1 view .LVU47
	.loc 1 340 2 view .LVU48
	.loc 1 341 2 view .LVU49
	.loc 1 339 8 is_stmt 0 view .LVU50
	mov	r10, #4
	.loc 1 256 6 view .LVU51
	mov	r3, #-1
.LVL12:
	.loc 1 256 6 view .LVU52
	str	r3, [sp, #4]
	.loc 1 254 15 view .LVU53
	str	r8, [sp, #16]
	.loc 1 253 15 view .LVU54
	mov	r7, r8
	.loc 1 259 6 view .LVU55
	mov	fp, r8
	.loc 1 340 7 view .LVU56
	mov	r3, r10
.LVL13:
.L5:
.LBB128:
	.loc 1 616 4 is_stmt 1 view .LVU57
	.loc 1 616 7 is_stmt 0 view .LVU58
	cbz	r5, .L33
	.loc 1 617 5 is_stmt 1 view .LVU59
	.loc 1 617 25 is_stmt 0 view .LVU60
	ldr	r0, [sp]
	str	r0, [r4]
.L33:
	.loc 1 620 3 is_stmt 1 view .LVU61
.LVL14:
	.loc 1 620 40 is_stmt 0 view .LVU62
	ldr	r0, [sp, #20]
	cmp	r0, #0
	bgt	.L34
.LVL15:
.LBB129:
.LBI129:
	.loc 1 33 19 is_stmt 1 view .LVU63
	.loc 1 41 2 view .LVU64
.LBB130:
.LBI130:
	.file 2 "/home/g/mise-work/zmk-firmware/zmk/zephyr/include/zephyr/linker/utils.h"
	.loc 2 24 19 view .LVU65
.LBB131:
	.loc 2 40 2 view .LVU66
	.loc 2 41 2 view .LVU67
	.loc 2 49 2 view .LVU68
	.loc 2 49 70 is_stmt 0 view .LVU69
	ldr	r0, .L99
	ldr	r2, [sp]
	cmp	r2, r0
	bcc	.L35
	ldr	r0, .L99+4
	cmp	r2, r0
	bcc	.L34
.L35:
.LVL16:
	.loc 2 49 70 view .LVU70
.LBE131:
.LBE130:
.LBE129:
	.loc 1 621 3 is_stmt 1 view .LVU71
	.loc 1 623 4 view .LVU72
.LBB132:
	.loc 1 626 5 view .LVU73
	.loc 1 634 8 is_stmt 0 view .LVU74
	ldr	r2, [sp, #12]
	.loc 1 626 42 view .LVU75
	sub	lr, r4, r5
	.loc 1 634 8 view .LVU76
	lsls	r2, r2, #30
	.loc 1 626 14 view .LVU77
	lsr	r0, lr, #2
.LVL17:
	.loc 1 634 5 is_stmt 1 view .LVU78
	.loc 1 634 8 is_stmt 0 view .LVU79
	bmi	.L65
	.loc 1 639 5 is_stmt 1 view .LVU80
	.loc 1 639 8 is_stmt 0 view .LVU81
	cmp	r7, #15
	bhi	.L32
	.loc 1 644 5 is_stmt 1 view .LVU82
	.loc 1 644 8 is_stmt 0 view .LVU83
	cmp	r5, #0
	beq	.L37
	.loc 1 649 6 is_stmt 1 view .LVU84
	.loc 1 649 25 is_stmt 0 view .LVU85
	add	r2, r7, #64
	add	ip, sp, r2
	.loc 1 650 25 view .LVU86
	ldr	r2, [sp, #4]
	.loc 1 649 25 view .LVU87
	strb	r0, [ip, #-32]
	.loc 1 650 6 is_stmt 1 view .LVU88
	.loc 1 650 25 is_stmt 0 view .LVU89
	strb	r2, [ip, #-16]
	.loc 1 651 6 is_stmt 1 view .LVU90
.LVL18:
.L38:
	.loc 1 656 7 view .LVU91
	.loc 1 656 15 is_stmt 0 view .LVU92
	ldr	r0, [sp, #16]
	adds	r0, r0, #1
	str	r0, [sp, #16]
.LVL19:
	.loc 1 656 15 view .LVU93
	b	.L41
.LVL20:
.L8:
	.loc 1 656 15 view .LVU94
.LBE132:
.LBE128:
	.loc 1 481 4 is_stmt 1 view .LVU95
	cmp	r0, #122
	bhi	.L95
	cmp	r0, #75
	bhi	.L9
	cmp	r0, #71
	bhi	.L95
	cmp	r0, #41
	bhi	.L10
	cmp	r0, #37
	beq	.L11
	bhi	.L95
	cmp	r0, #32
	beq	.L42
	subs	r0, r0, #35
	rsbs	fp, r0, #0
.LVL21:
	.loc 1 481 4 is_stmt 0 view .LVU96
	adc	fp, fp, r0
	b	.L42
.LVL22:
.L9:
	.loc 1 481 4 view .LVU97
	subs	r0, r0, #76
	cmp	r0, #46
	bhi	.L95
	tbb	[pc, r0]
.L14:
	.byte	(.L42-.L14)/2
	.byte	(.L95-.L14)/2
	.byte	(.L95-.L14)/2
	.byte	(.L95-.L14)/2
	.byte	(.L95-.L14)/2
	.byte	(.L95-.L14)/2
	.byte	(.L95-.L14)/2
	.byte	(.L95-.L14)/2
	.byte	(.L95-.L14)/2
	.byte	(.L95-.L14)/2
	.byte	(.L95-.L14)/2
	.byte	(.L95-.L14)/2
	.byte	(.L15-.L14)/2
	.byte	(.L95-.L14)/2
	.byte	(.L95-.L14)/2
	.byte	(.L95-.L14)/2
	.byte	(.L95-.L14)/2
	.byte	(.L95-.L14)/2
	.byte	(.L95-.L14)/2
	.byte	(.L95-.L14)/2
	.byte	(.L95-.L14)/2
	.byte	(.L19-.L14)/2
	.byte	(.L95-.L14)/2
	.byte	(.L15-.L14)/2
	.byte	(.L15-.L14)/2
	.byte	(.L19-.L14)/2
	.byte	(.L19-.L14)/2
	.byte	(.L19-.L14)/2
	.byte	(.L42-.L14)/2
	.byte	(.L15-.L14)/2
	.byte	(.L60-.L14)/2
	.byte	(.L95-.L14)/2
	.byte	(.L42-.L14)/2
	.byte	(.L95-.L14)/2
	.byte	(.L17-.L14)/2
	.byte	(.L15-.L14)/2
	.byte	(.L17-.L14)/2
	.byte	(.L95-.L14)/2
	.byte	(.L95-.L14)/2
	.byte	(.L61-.L14)/2
	.byte	(.L13-.L14)/2
	.byte	(.L15-.L14)/2
	.byte	(.L95-.L14)/2
	.byte	(.L95-.L14)/2
	.byte	(.L15-.L14)/2
	.byte	(.L95-.L14)/2
	.byte	(.L13-.L14)/2
	.p2align 1
.L17:
	movs	r0, #0
.L98:
	mov	fp, #0
.LVL23:
.L64:
	.loc 1 550 11 view .LVU98
	mov	r10, #4
.LVL24:
	.loc 1 550 11 view .LVU99
	b	.L97
.LVL25:
.L10:
	.loc 1 481 4 view .LVU100
	subs	r0, r0, #42
	uxtb	r0, r0
	movs	r2, #1
	lsl	r0, r2, r0
	tst	r0, lr
	bne	.L42
	ands	ip, r0, #947912704
	bne	.L19
	ands	fp, r0, r2
.LVL26:
	.loc 1 481 4 view .LVU101
	beq	.L42
	mov	r0, ip
.LVL27:
.L16:
	.loc 1 605 3 is_stmt 1 view .LVU102
	.loc 1 605 42 is_stmt 0 view .LVU103
	subs	r4, r4, #1
.LVL28:
	.loc 1 605 42 view .LVU104
	add	r4, r4, r10
.LVL29:
	.loc 1 605 100 view .LVU105
	udiv	r4, r4, r10
	mul	r4, r10, r4
.LVL30:
	.loc 1 608 3 is_stmt 1 view .LVU106
	.loc 1 608 6 is_stmt 0 view .LVU107
	cmp	r5, #0
	beq	.L25
	.loc 1 608 57 discriminator 1 view .LVU108
	sub	ip, r3, r5
	add	ip, ip, r4
	.loc 1 608 19 discriminator 1 view .LVU109
	cmp	r6, ip
	bcc	.L23
	.loc 1 613 3 is_stmt 1 view .LVU110
	.loc 1 613 6 is_stmt 0 view .LVU111
	cmp	r0, #0
	bne	.L26
	.loc 1 683 10 is_stmt 1 view .LVU112
	.loc 1 683 13 is_stmt 0 view .LVU113
	cmp	r3, #4
	bne	.L27
.LBB137:
	.loc 1 684 4 is_stmt 1 view .LVU114
.LVL31:
	.loc 1 684 8 is_stmt 0 view .LVU115
	ldr	r3, [r9], #4
.LVL32:
	.loc 1 686 4 is_stmt 1 view .LVU116
	.loc 1 687 5 view .LVU117
	.loc 1 687 17 is_stmt 0 view .LVU118
	str	r3, [r4]
.L28:
	.loc 1 689 4 is_stmt 1 view .LVU119
	.loc 1 689 8 is_stmt 0 view .LVU120
	adds	r4, r4, #4
.LVL33:
	.loc 1 689 8 view .LVU121
.LBE137:
	movs	r3, #4
	b	.L42
.LVL34:
.L11:
	.loc 1 483 5 is_stmt 1 discriminator 3 view .LVU122
	.loc 1 484 5 discriminator 3 view .LVU123
	.loc 1 484 12 is_stmt 0 discriminator 3 view .LVU124
	ldr	r2, [sp, #4]
	subs	r2, r2, #1
	str	r2, [sp, #4]
.LVL35:
.L95:
	.loc 1 485 5 is_stmt 1 discriminator 3 view .LVU125
	.loc 1 483 13 is_stmt 0 discriminator 3 view .LVU126
	mov	fp, #0
	.loc 1 485 5 discriminator 3 view .LVU127
	b	.L42
.LVL36:
.L15:
	.loc 1 532 5 is_stmt 1 view .LVU128
	.loc 1 532 8 is_stmt 0 view .LVU129
	ldrb	r0, [r1, #-1]	@ zero_extendqisi2
	cmp	r0, #108
	bne	.L63
	.loc 1 533 6 is_stmt 1 view .LVU130
	.loc 1 533 9 is_stmt 0 view .LVU131
	ldrb	r3, [r1, #-2]	@ zero_extendqisi2
.LVL37:
	.loc 1 533 9 view .LVU132
	movs	r0, #0
	cmp	r3, #108
	.loc 1 541 13 view .LVU133
	mov	fp, r0
.LVL38:
	.loc 1 533 9 view .LVU134
	bne	.L64
	.loc 1 534 13 view .LVU135
	mov	r10, #8
.LVL39:
.L97:
	.loc 1 551 10 view .LVU136
	mov	r3, r10
	b	.L16
.LVL40:
.L19:
.LBB138:
	.loc 1 567 5 is_stmt 1 view .LVU137
	.loc 1 569 5 view .LVU138
	.loc 1 570 12 is_stmt 0 view .LVU139
	add	r9, r9, #7
.LVL41:
	.loc 1 570 12 view .LVU140
	bic	r9, r9, #7
.LVL42:
	.loc 1 579 44 view .LVU141
	adds	r4, r4, #7
.LVL43:
	.loc 1 570 12 view .LVU142
	ldrd	r10, [r9], #8
.LVL44:
	.loc 1 579 5 is_stmt 1 view .LVU143
	.loc 1 579 102 is_stmt 0 view .LVU144
	bic	r4, r4, #7
.LVL45:
	.loc 1 580 5 is_stmt 1 view .LVU145
	.loc 1 580 8 is_stmt 0 view .LVU146
	cbz	r5, .L22
	.loc 1 582 6 is_stmt 1 view .LVU147
	.loc 1 582 45 is_stmt 0 view .LVU148
	ldr	r0, [sp, #24]
	add	r0, r0, r4
	.loc 1 582 9 view .LVU149
	cmp	r0, r6
	bhi	.L23
	.loc 1 585 6 is_stmt 1 view .LVU150
	.loc 1 587 13 view .LVU151
	.loc 1 588 27 is_stmt 0 view .LVU152
	strd	r10, [r4]
.LVL46:
.L22:
	.loc 1 593 5 is_stmt 1 view .LVU153
	.loc 1 593 9 is_stmt 0 view .LVU154
	adds	r4, r4, #8
.LVL47:
	.loc 1 594 5 is_stmt 1 view .LVU155
	.loc 1 595 5 view .LVU156
	.loc 1 594 13 is_stmt 0 view .LVU157
	mov	fp, #0
.LVL48:
.L60:
	.loc 1 594 13 view .LVU158
.LBE138:
	.loc 1 481 4 view .LVU159
	mov	r10, #8
.LVL49:
.L96:
	.loc 1 481 4 view .LVU160
	mov	r3, r10
.LVL50:
.L42:
	.loc 1 343 8 is_stmt 1 view .LVU161
	.loc 1 343 2 view .LVU162
	.loc 1 468 4 view .LVU163
	.loc 1 468 8 is_stmt 0 view .LVU164
	ldrb	r0, [r1, #1]!	@ zero_extendqisi2
.LVL51:
	.loc 1 468 7 view .LVU165
	cmp	r0, #0
	beq	.L7
	.loc 1 472 4 is_stmt 1 view .LVU166
	.loc 1 472 7 is_stmt 0 view .LVU167
	cmp	fp, #0
	bne	.L8
	.loc 1 473 5 is_stmt 1 view .LVU168
	.loc 1 473 8 is_stmt 0 view .LVU169
	cmp	r0, #37
	bne	.L42
	.loc 1 474 6 is_stmt 1 view .LVU170
.LVL52:
	.loc 1 475 6 view .LVU171
	.loc 1 475 13 is_stmt 0 view .LVU172
	ldr	r3, [sp, #4]
.LVL53:
	.loc 1 475 13 view .LVU173
	adds	r3, r3, #1
	str	r3, [sp, #4]
.LVL54:
	.loc 1 476 6 is_stmt 1 view .LVU174
	.loc 1 477 6 view .LVU175
	.loc 1 474 14 is_stmt 0 view .LVU176
	mov	fp, #1
.LVL55:
.L13:
	.loc 1 516 11 view .LVU177
	mov	r10, #4
	b	.L96
.LVL56:
.L61:
	.loc 1 481 4 view .LVU178
	mov	r0, fp
	b	.L98
.L63:
	.loc 1 481 4 view .LVU179
	movs	r0, #0
	.loc 1 541 13 view .LVU180
	mov	fp, r0
.LVL57:
	.loc 1 541 13 view .LVU181
	b	.L16
.LVL58:
.L27:
	.loc 1 690 10 is_stmt 1 view .LVU182
	.loc 1 697 10 view .LVU183
	.loc 1 697 13 is_stmt 0 view .LVU184
	cmp	r3, #8
	beq	.L29
.LVL59:
.L32:
.LBB139:
.LBB133:
	.loc 1 636 13 view .LVU185
	mvn	r0, #21
	b	.L1
.LVL60:
.L29:
	.loc 1 636 13 view .LVU186
.LBE133:
.LBE139:
.LBB140:
	.loc 1 698 4 is_stmt 1 view .LVU187
	.loc 1 698 17 is_stmt 0 view .LVU188
	add	r9, r9, #7
.LVL61:
	.loc 1 698 17 view .LVU189
	bic	r9, r9, #7
.LVL62:
	.loc 1 698 17 view .LVU190
	vldmia.64	r9!, {d7}	@ int
.LVL63:
	.loc 1 700 4 is_stmt 1 view .LVU191
	.loc 1 701 5 view .LVU192
	.loc 1 704 6 view .LVU193
	.loc 1 704 24 is_stmt 0 view .LVU194
	vstr.64	d7, [r4]	@ int
.L30:
	.loc 1 707 4 is_stmt 1 discriminator 1 view .LVU195
	.loc 1 707 8 is_stmt 0 discriminator 1 view .LVU196
	adds	r4, r4, #8
.LVL64:
	.loc 1 707 8 discriminator 1 view .LVU197
.LBE140:
	movs	r3, #8
.LVL65:
	.loc 1 707 8 discriminator 1 view .LVU198
	b	.L42
.LVL66:
.L25:
	.loc 1 613 3 is_stmt 1 view .LVU199
	.loc 1 613 6 is_stmt 0 view .LVU200
	cbnz	r0, .L26
	.loc 1 683 10 is_stmt 1 view .LVU201
	.loc 1 683 13 is_stmt 0 view .LVU202
	cmp	r3, #4
	bne	.L31
.LBB141:
	.loc 1 684 4 is_stmt 1 view .LVU203
	.loc 1 684 8 is_stmt 0 view .LVU204
	add	r9, r9, #4
.LVL67:
	.loc 1 686 4 is_stmt 1 view .LVU205
	b	.L28
.L31:
	.loc 1 686 4 is_stmt 0 view .LVU206
.LBE141:
	.loc 1 690 10 is_stmt 1 view .LVU207
	.loc 1 697 10 view .LVU208
	.loc 1 697 13 is_stmt 0 view .LVU209
	cmp	r3, #8
	bne	.L32
.LBB142:
	.loc 1 698 4 is_stmt 1 view .LVU210
	.loc 1 698 17 is_stmt 0 view .LVU211
	add	r9, r9, #7
.LVL68:
	.loc 1 698 17 view .LVU212
	bic	r9, r9, #7
.LVL69:
	.loc 1 698 17 view .LVU213
	add	r9, r9, #8
.LVL70:
	.loc 1 700 4 is_stmt 1 view .LVU214
	b	.L30
.L26:
	.loc 1 700 4 is_stmt 0 view .LVU215
.LBE142:
.LBB143:
	.loc 1 620 25 view .LVU216
	ldr	r0, [sp, #20]
.LVL71:
	.loc 1 620 25 view .LVU217
	subs	r0, r0, #1
	str	r0, [sp, #20]
	.loc 1 614 4 is_stmt 1 view .LVU218
.LVL72:
	.loc 1 614 6 is_stmt 0 view .LVU219
	ldr	r0, [r9], #4
.LVL73:
	.loc 1 614 6 view .LVU220
	str	r0, [sp]
.LVL74:
	.loc 1 614 6 view .LVU221
	b	.L5
.LVL75:
.L34:
	.loc 1 621 3 is_stmt 1 discriminator 3 view .LVU222
	.loc 1 623 4 discriminator 3 view .LVU223
	.loc 1 623 14 is_stmt 0 discriminator 3 view .LVU224
	ldr	r2, [sp, #12]
	lsls	r0, r2, #30
	bpl	.L39
.LBB134:
	.loc 1 626 5 is_stmt 1 view .LVU225
	.loc 1 626 42 is_stmt 0 view .LVU226
	sub	lr, r4, r5
	.loc 1 626 14 view .LVU227
	lsr	r0, lr, #2
.LVL76:
	.loc 1 634 5 is_stmt 1 view .LVU228
.LBE134:
	.loc 1 620 40 is_stmt 0 view .LVU229
	mov	ip, #1
.LVL77:
.L36:
.LBB135:
	.loc 1 634 15 discriminator 1 view .LVU230
	cmp	lr, #512
	bcs	.L32
	.loc 1 639 5 is_stmt 1 view .LVU231
	.loc 1 639 8 is_stmt 0 view .LVU232
	cmp	r7, #15
	bhi	.L32
	.loc 1 644 5 is_stmt 1 view .LVU233
	.loc 1 644 8 is_stmt 0 view .LVU234
	cbz	r5, .L40
	.loc 1 649 6 is_stmt 1 view .LVU235
	.loc 1 649 25 is_stmt 0 view .LVU236
	add	r2, r7, #64
	add	lr, sp, r2
	uxtb	r0, r0
.LVL78:
	.loc 1 650 25 view .LVU237
	ldr	r2, [sp, #4]
	.loc 1 649 25 view .LVU238
	strb	r0, [lr, #-32]
	.loc 1 650 6 is_stmt 1 view .LVU239
	.loc 1 650 25 is_stmt 0 view .LVU240
	strb	r2, [lr, #-16]
	.loc 1 651 6 is_stmt 1 view .LVU241
	.loc 1 651 9 is_stmt 0 view .LVU242
	cmp	ip, #0
	beq	.L38
	.loc 1 653 7 is_stmt 1 view .LVU243
	.loc 1 653 26 is_stmt 0 view .LVU244
	orn	r0, r0, #127
	strb	r0, [lr, #-32]
	.loc 1 654 7 is_stmt 1 view .LVU245
	.loc 1 654 15 is_stmt 0 view .LVU246
	add	r8, r8, #1
.LVL79:
.L41:
	.loc 1 678 5 is_stmt 1 view .LVU247
	.loc 1 678 10 is_stmt 0 view .LVU248
	adds	r7, r7, #1
.LVL80:
.L39:
	.loc 1 678 10 view .LVU249
.LBE135:
	.loc 1 680 4 is_stmt 1 view .LVU250
.LBE143:
.LBB144:
	.loc 1 582 45 is_stmt 0 view .LVU251
	rsb	r2, r5, #8
.LBE144:
.LBB145:
	.loc 1 680 8 view .LVU252
	adds	r4, r4, #4
.LVL81:
	.loc 1 682 4 is_stmt 1 view .LVU253
	.loc 1 682 4 is_stmt 0 view .LVU254
.LBE145:
.LBB146:
	.loc 1 582 45 view .LVU255
	str	r2, [sp, #24]
.LBE146:
	.loc 1 481 4 view .LVU256
	movw	lr, #65498
	b	.L42
.LVL82:
.L65:
.LBB147:
	.loc 1 620 40 view .LVU257
	mov	ip, #0
	b	.L36
.LVL83:
.L40:
.LBB136:
	.loc 1 658 12 is_stmt 1 view .LVU258
	.loc 1 658 15 is_stmt 0 view .LVU259
	cmp	ip, #0
	beq	.L37
	.loc 1 663 6 is_stmt 1 view .LVU260
	.loc 1 663 10 is_stmt 0 view .LVU261
	adds	r6, r6, #1
.LVL84:
	.loc 1 663 10 view .LVU262
	b	.L41
.L37:
	.loc 1 664 12 is_stmt 1 view .LVU263
	.loc 1 664 15 is_stmt 0 view .LVU264
	ldr	r2, [sp, #8]
	.loc 1 669 10 view .LVU265
	adds	r6, r6, #2
.LVL85:
	.loc 1 664 15 view .LVU266
	cmp	r2, #0
	bne	.L41
	.loc 1 675 13 view .LVU267
	ldr	r0, [sp]
.LVL86:
	.loc 1 675 13 view .LVU268
	strd	r3, r1, [sp, #24]
	.loc 1 675 6 is_stmt 1 view .LVU269
	.loc 1 675 13 is_stmt 0 view .LVU270
	bl	strlen
.LVL87:
	.loc 1 675 10 view .LVU271
	ldrd	r3, r1, [sp, #24]
	add	r6, r6, r0
.LVL88:
	.loc 1 675 10 view .LVU272
	b	.L41
.LVL89:
.L7:
	.loc 1 675 10 view .LVU273
.LBE136:
.LBE147:
	.loc 1 720 2 is_stmt 1 view .LVU274
	.loc 1 720 22 is_stmt 0 view .LVU275
	subs	r3, r4, r5
.LVL90:
	.loc 1 720 5 view .LVU276
	cmp	r3, #1024
	bcs	.L32
	.loc 1 729 2 is_stmt 1 view .LVU277
	.loc 1 729 5 is_stmt 0 view .LVU278
	cbnz	r5, .L43
	.loc 1 730 3 is_stmt 1 view .LVU279
	.loc 1 730 51 is_stmt 0 view .LVU280
	sub	r4, r6, #8
.LVL91:
	.loc 1 730 51 view .LVU281
	adds	r0, r4, r3
	b	.L1
.L100:
	.align	2
.L99:
	.word	__rodata_region_start
	.word	__rodata_region_end
.LVL92:
.L43:
	.loc 1 734 2 is_stmt 1 view .LVU282
	.loc 1 739 5 is_stmt 0 view .LVU283
	ldr	r2, [sp, #8]
	.loc 1 734 17 view .LVU284
	str	r0, [r5]
	.loc 1 737 2 is_stmt 1 view .LVU285
	.loc 1 737 57 is_stmt 0 view .LVU286
	lsrs	r3, r3, #2
	.loc 1 737 20 view .LVU287
	strb	r3, [r5]
	.loc 1 739 2 is_stmt 1 view .LVU288
	.loc 1 742 28 is_stmt 0 view .LVU289
	ldrb	r3, [sp, #16]	@ zero_extendqisi2
	.loc 1 739 5 view .LVU290
	cbz	r2, .L44
	.loc 1 741 3 is_stmt 1 view .LVU291
	.loc 1 742 3 view .LVU292
	.loc 1 742 28 is_stmt 0 view .LVU293
	strb	r3, [r5, #3]
.L45:
	.loc 1 749 2 is_stmt 1 view .LVU294
	.loc 1 749 27 is_stmt 0 view .LVU295
	strb	r8, [r5, #2]
	.loc 1 756 2 is_stmt 1 view .LVU296
	.loc 1 756 5 is_stmt 0 view .LVU297
	cmp	r8, #0
	beq	.L46
	add	r0, sp, #32
	.loc 1 757 10 view .LVU298
	movs	r2, #0
.LBB148:
	.loc 1 765 43 view .LVU299
	rsb	ip, r5, #1
.LVL93:
.L47:
	.loc 1 765 43 view .LVU300
.LBE148:
	.loc 1 757 17 is_stmt 1 discriminator 1 view .LVU301
	cmp	r7, r2
	bne	.L49
.LVL94:
.L46:
	.loc 1 793 46 is_stmt 0 discriminator 1 view .LVU302
	rsb	r3, r5, #1
	add	r9, sp, #32
.LVL95:
	.loc 1 782 8 discriminator 1 view .LVU303
	mov	r10, #0
.LVL96:
	.loc 1 793 46 discriminator 1 view .LVU304
	str	r3, [sp, #4]
.LVL97:
	.loc 1 782 24 discriminator 1 view .LVU305
	add	fp, sp, #48
.LVL98:
.L50:
	.loc 1 774 16 is_stmt 1 discriminator 1 view .LVU306
	cmp	r7, r10
	bne	.L55
	.loc 1 808 2 view .LVU307
	.loc 1 808 25 is_stmt 0 view .LVU308
	subs	r0, r4, r5
	b	.L1
.LVL99:
.L44:
	.loc 1 745 3 is_stmt 1 view .LVU309
	.loc 1 745 25 is_stmt 0 view .LVU310
	strb	r3, [r5, #1]
	.loc 1 746 3 is_stmt 1 view .LVU311
	b	.L45
.LVL100:
.L49:
.LBB149:
	.loc 1 758 4 view .LVU312
	.loc 1 758 21 is_stmt 0 view .LVU313
	ldrb	r3, [r0], #1	@ zero_extendqisi2
	.loc 1 758 7 view .LVU314
	lsls	r1, r3, #24
	bpl	.L48
	.loc 1 762 4 is_stmt 1 view .LVU315
	.loc 1 765 43 is_stmt 0 view .LVU316
	add	lr, r4, ip
	.loc 1 765 7 view .LVU317
	cmp	r6, lr
	.loc 1 762 12 view .LVU318
	and	r3, r3, #127
.LVL101:
	.loc 1 765 4 is_stmt 1 view .LVU319
	.loc 1 765 7 is_stmt 0 view .LVU320
	bcc	.L23
	.loc 1 769 4 is_stmt 1 view .LVU321
.LVL102:
	.loc 1 769 11 is_stmt 0 view .LVU322
	strb	r3, [r4], #1
.LVL103:
.L48:
	.loc 1 769 11 view .LVU323
.LBE149:
	.loc 1 757 27 is_stmt 1 discriminator 2 view .LVU324
	adds	r2, r2, #1
.LVL104:
	.loc 1 757 27 is_stmt 0 discriminator 2 view .LVU325
	b	.L47
.LVL105:
.L55:
	.loc 1 776 3 is_stmt 1 view .LVU326
	.loc 1 776 6 is_stmt 0 view .LVU327
	cmp	r8, #0
	beq	.L51
	.loc 1 776 16 discriminator 1 view .LVU328
	ldrsb	r2, [r9]
	cmp	r2, #0
	blt	.L52
.L51:
	.loc 1 780 3 is_stmt 1 view .LVU329
	.loc 1 780 6 is_stmt 0 view .LVU330
	ldr	r3, [sp, #8]
	cbz	r3, .L53
	.loc 1 781 4 is_stmt 1 view .LVU331
.LVL106:
	.loc 1 782 4 view .LVU332
	.loc 1 782 11 is_stmt 0 view .LVU333
	ldrb	r2, [r10, fp]	@ zero_extendqisi2
	strb	r2, [r4], #1
.LVL107:
	.loc 1 781 9 view .LVU334
	movs	r2, #0
.LVL108:
.L54:
	.loc 1 793 3 is_stmt 1 view .LVU335
	.loc 1 793 46 is_stmt 0 view .LVU336
	ldr	r3, [sp, #4]
	adds	r0, r3, r2
	add	r0, r0, r4
	.loc 1 793 6 view .LVU337
	cmp	r6, r0
	bcc	.L23
	.loc 1 797 3 is_stmt 1 view .LVU338
.LVL109:
	.loc 1 797 10 is_stmt 0 view .LVU339
	ldrb	r0, [r9]	@ zero_extendqisi2
	strb	r0, [r4], #1
.LVL110:
	.loc 1 799 2 is_stmt 1 view .LVU340
.LBB150:
.LBI150:
	.file 3 "/home/g/zephyr-sdk-0.16.3/arm-zephyr-eabi/picolibc/include/ssp/string.h"
	.loc 3 83 216 view .LVU341
.LBB151:
	.loc 3 83 292 view .LVU342
	.loc 3 83 299 is_stmt 0 view .LVU343
	ldr	r1, [sp]
	str	r2, [sp, #12]
	mov	r0, r4
	bl	memcpy
.LVL111:
	.loc 3 83 299 view .LVU344
.LBE151:
.LBE150:
	.loc 1 800 3 is_stmt 1 view .LVU345
	.loc 1 800 7 is_stmt 0 view .LVU346
	ldr	r2, [sp, #12]
	add	r4, r4, r2
.LVL112:
.L52:
	.loc 1 774 26 is_stmt 1 discriminator 2 view .LVU347
	add	r10, r10, #1
.LVL113:
	.loc 1 774 26 is_stmt 0 discriminator 2 view .LVU348
	add	r9, r9, #1
	b	.L50
.L53:
	.loc 1 785 4 is_stmt 1 view .LVU349
	.loc 1 785 41 is_stmt 0 view .LVU350
	ldrb	r2, [r9]	@ zero_extendqisi2
	.loc 1 785 6 view .LVU351
	ldr	r3, [r5, r2, lsl #2]
	str	r3, [sp]
.LVL114:
	.loc 1 787 4 is_stmt 1 view .LVU352
	.loc 1 787 52 is_stmt 0 view .LVU353
	ldr	r3, [sp, #8]
.LVL115:
	.loc 1 787 52 view .LVU354
	str	r3, [r5, r2, lsl #2]
	.loc 1 789 4 is_stmt 1 view .LVU355
	.loc 1 789 11 is_stmt 0 view .LVU356
	ldr	r0, [sp]
	bl	strlen
.LVL116:
	.loc 1 789 9 view .LVU357
	adds	r2, r0, #1
.LVL117:
	.loc 1 789 9 view .LVU358
	b	.L54
.LVL118:
.L56:
	.loc 1 274 10 view .LVU359
	mvn	r0, #13
.LVL119:
	.loc 1 274 10 view .LVU360
	b	.L1
	.cfi_endproc
.LFE298:
	.size	cbvprintf_package, .-cbvprintf_package
	.section	.text.cbprintf_package,"ax",%progbits
	.align	1
	.global	cbprintf_package
	.syntax unified
	.thumb
	.thumb_func
	.type	cbprintf_package, %function
cbprintf_package:
.LVL120:
.LFB299:
	.loc 1 817 1 is_stmt 1 view -0
	.cfi_startproc
	@ args = 4, pretend = 4, frame = 8
	@ frame_needed = 0, uses_anonymous_args = 1
	.loc 1 818 2 view .LVU362
	.loc 1 819 2 view .LVU363
	.loc 1 821 1 view .LVU364
	.loc 1 817 1 is_stmt 0 view .LVU365
	push	{r3}
	.cfi_def_cfa_offset 4
	.cfi_offset 3, -4
	push	{r4, lr}
	.cfi_def_cfa_offset 12
	.cfi_offset 4, -12
	.cfi_offset 14, -8
	sub	sp, sp, #20
	.cfi_def_cfa_offset 32
	.loc 1 817 1 view .LVU366
	add	r4, sp, #28
	ldr	r3, [r4], #4
	.loc 1 822 8 view .LVU367
	str	r4, [sp]
	.loc 1 821 1 view .LVU368
	str	r4, [sp, #12]
	.loc 1 822 2 is_stmt 1 view .LVU369
	.loc 1 822 8 is_stmt 0 view .LVU370
	bl	cbvprintf_package
.LVL121:
	.loc 1 823 1 is_stmt 1 view .LVU371
	.loc 1 824 2 view .LVU372
	.loc 1 825 1 is_stmt 0 view .LVU373
	add	sp, sp, #20
	.cfi_def_cfa_offset 12
	@ sp needed
	pop	{r4, lr}
	.cfi_restore 14
	.cfi_restore 4
	.cfi_def_cfa_offset 4
	add	sp, sp, #4
	.cfi_restore 3
	.cfi_def_cfa_offset 0
	bx	lr
	.cfi_endproc
.LFE299:
	.size	cbprintf_package, .-cbprintf_package
	.section	.text.cbpprintf_external,"ax",%progbits
	.align	1
	.global	cbpprintf_external
	.syntax unified
	.thumb
	.thumb_func
	.type	cbpprintf_external, %function
cbpprintf_external:
.LVL122:
.LFB300:
	.loc 1 830 1 is_stmt 1 view -0
	.cfi_startproc
	@ args = 0, pretend = 0, frame = 0
	@ frame_needed = 0, uses_anonymous_args = 0
	.loc 1 831 2 view .LVU375
	.loc 1 832 2 view .LVU376
	.loc 1 833 2 view .LVU377
	.loc 1 834 2 view .LVU378
	.loc 1 836 2 view .LVU379
	.loc 1 830 1 is_stmt 0 view .LVU380
	push	{r4, r5, r6, r7, r8, r9, r10, lr}
	.cfi_def_cfa_offset 32
	.cfi_offset 4, -32
	.cfi_offset 5, -28
	.cfi_offset 6, -24
	.cfi_offset 7, -20
	.cfi_offset 8, -16
	.cfi_offset 9, -12
	.cfi_offset 10, -8
	.cfi_offset 14, -4
	.loc 1 830 1 view .LVU381
	mov	r6, r0
	mov	r5, r1
	mov	r7, r2
	.loc 1 836 5 view .LVU382
	mov	r8, r3
	cbz	r3, .L103
	.loc 1 841 2 is_stmt 1 view .LVU383
.LVL123:
	.loc 1 842 2 view .LVU384
	.loc 1 841 12 is_stmt 0 view .LVU385
	ldrb	r4, [r8]	@ zero_extendqisi2
	.loc 1 842 8 view .LVU386
	ldrb	r9, [r3, #1]	@ zero_extendqisi2
.LVL124:
	.loc 1 843 2 is_stmt 1 view .LVU387
	.loc 1 844 2 view .LVU388
	.loc 1 847 2 view .LVU389
	.loc 1 847 41 is_stmt 0 view .LVU390
	ldrb	r3, [r3, #3]	@ zero_extendqisi2
.LVL125:
	.loc 1 841 12 view .LVU391
	lsls	r4, r4, #2
.LVL126:
	.loc 1 847 41 view .LVU392
	add	r4, r4, r3, lsl #1
.LVL127:
	.loc 1 843 10 view .LVU393
	ldrb	r3, [r8, #2]	@ zero_extendqisi2
.LVL128:
	.loc 1 847 41 view .LVU394
	add	r4, r4, r3
	.loc 1 847 4 view .LVU395
	add	r4, r4, r8
.LVL129:
	.loc 1 852 2 is_stmt 1 view .LVU396
	.loc 1 852 9 is_stmt 0 view .LVU397
	mov	r10, #0
.LVL130:
.L104:
	.loc 1 852 16 is_stmt 1 discriminator 1 view .LVU398
	cmp	r10, r9
	bcc	.L105
	.loc 1 863 2 view .LVU399
.LVL131:
	.loc 1 866 2 view .LVU400
.LBB154:
.LBI154:
	.loc 1 179 12 view .LVU401
.LBB155:
	.loc 1 184 2 view .LVU402
	.loc 1 189 2 view .LVU403
	.loc 1 191 2 view .LVU404
	.loc 1 191 9 is_stmt 0 view .LVU405
	ldr	r2, [r8, #4]	@ unaligned
.LVL132:
	.loc 1 191 9 view .LVU406
	add	r3, r8, #8
.LVL133:
	.loc 1 191 9 view .LVU407
	mov	r1, r7
	mov	r0, r6
	mov	ip, r5
.LBE155:
.LBE154:
	.loc 1 867 1 view .LVU408
	pop	{r4, r5, r6, r7, r8, r9, r10, lr}
	.cfi_remember_state
	.cfi_restore 14
	.cfi_restore 10
	.cfi_restore 9
	.cfi_restore 8
	.cfi_restore 7
	.cfi_restore 6
	.cfi_restore 5
	.cfi_restore 4
	.cfi_def_cfa_offset 0
.LVL134:
.LBB157:
.LBB156:
	.loc 1 191 9 view .LVU409
	bx	ip
.LVL135:
.L105:
	.cfi_restore_state
	.loc 1 191 9 view .LVU410
.LBE156:
.LBE157:
	.loc 1 854 3 is_stmt 1 discriminator 3 view .LVU411
	.loc 1 855 3 discriminator 3 view .LVU412
	.loc 1 857 3 discriminator 3 view .LVU413
	.loc 1 855 30 is_stmt 0 discriminator 3 view .LVU414
	ldrb	r3, [r4], #1	@ zero_extendqisi2
.LVL136:
	.loc 1 857 7 discriminator 3 view .LVU415
	str	r4, [r8, r3, lsl #2]
.LVL137:
	.loc 1 859 3 is_stmt 1 discriminator 3 view .LVU416
	.loc 1 859 8 is_stmt 0 discriminator 3 view .LVU417
	mov	r0, r4
	bl	strlen
.LVL138:
	.loc 1 859 5 discriminator 3 view .LVU418
	adds	r0, r0, #1
	add	r4, r4, r0
.LVL139:
	.loc 1 852 26 is_stmt 1 discriminator 3 view .LVU419
	add	r10, r10, #1
.LVL140:
	.loc 1 852 26 is_stmt 0 discriminator 3 view .LVU420
	b	.L104
.LVL141:
.L103:
	.loc 1 867 1 view .LVU421
	mvn	r0, #21
.LVL142:
	.loc 1 867 1 view .LVU422
	pop	{r4, r5, r6, r7, r8, r9, r10, pc}
	.loc 1 867 1 view .LVU423
	.cfi_endproc
.LFE300:
	.size	cbpprintf_external, .-cbpprintf_external
	.section	.text.is_ptr,"ax",%progbits
	.align	1
	.global	is_ptr
	.syntax unified
	.thumb
	.thumb_func
	.type	is_ptr, %function
is_ptr:
.LVL143:
.LFB302:
	.loc 1 882 1 is_stmt 1 view -0
	.cfi_startproc
	@ args = 0, pretend = 0, frame = 0
	@ frame_needed = 0, uses_anonymous_args = 0
	.loc 1 883 2 view .LVU425
	.loc 1 884 1 view .LVU426
	.loc 1 885 2 view .LVU427
	.loc 1 887 2 view .LVU428
	.loc 1 882 1 is_stmt 0 view .LVU429
	push	{r4, r5, r6, lr}
	.cfi_def_cfa_offset 16
	.cfi_offset 4, -16
	.cfi_offset 5, -12
	.cfi_offset 6, -8
	.cfi_offset 14, -4
	.loc 1 885 6 view .LVU430
	movs	r5, #0
	.loc 1 882 1 view .LVU431
	mov	r2, r0
	.loc 1 884 6 view .LVU432
	mov	r0, r5
.LVL144:
.L107:
	.loc 1 887 22 is_stmt 1 view .LVU433
	.loc 1 887 18 is_stmt 0 view .LVU434
	mov	r4, r2
.LVL145:
	.loc 1 887 12 view .LVU435
	ldrb	r3, [r4], #1	@ zero_extendqisi2
.LVL146:
	.loc 1 887 22 view .LVU436
	cbnz	r3, .L112
.LVL147:
.L114:
	.loc 1 893 12 view .LVU437
	mov	r0, r3
	b	.L110
.LVL148:
.L112:
	.loc 1 888 3 is_stmt 1 view .LVU438
	.loc 1 888 6 is_stmt 0 view .LVU439
	cbz	r0, .L108
	.loc 1 889 4 is_stmt 1 view .LVU440
	.loc 1 889 7 is_stmt 0 view .LVU441
	cmp	r5, r1
	bne	.L109
	.loc 1 890 5 is_stmt 1 view .LVU442
	.loc 1 890 8 is_stmt 0 view .LVU443
	cmp	r3, #112
	beq	.L110
	.loc 1 892 12 is_stmt 1 view .LVU444
.LVL149:
.LBB158:
.LBI158:
	.loc 1 873 12 view .LVU445
.LBB159:
	.loc 1 875 2 view .LVU446
	.loc 1 875 2 is_stmt 0 view .LVU447
.LBE159:
.LBE158:
	.loc 1 892 15 view .LVU448
	sub	r2, r3, #64
	cmp	r2, #58
	bhi	.L108
	.loc 1 893 12 view .LVU449
	movs	r0, #0
.LVL150:
.L110:
	.loc 1 906 1 view .LVU450
	pop	{r4, r5, r6, pc}
.LVL151:
.L109:
	.loc 1 895 11 is_stmt 1 view .LVU451
.LBB160:
.LBI160:
	.loc 1 873 12 view .LVU452
.LBB161:
	.loc 1 875 2 view .LVU453
	.loc 1 875 2 is_stmt 0 view .LVU454
.LBE161:
.LBE160:
	.loc 1 895 14 view .LVU455
	sub	r6, r3, #64
	cmp	r6, #58
	bhi	.L108
	.loc 1 896 5 is_stmt 1 view .LVU456
	.loc 1 887 12 is_stmt 0 view .LVU457
	ldrb	r3, [r2, #1]	@ zero_extendqisi2
.LVL152:
	.loc 1 896 8 view .LVU458
	adds	r5, r5, #1
.LVL153:
	.loc 1 897 5 is_stmt 1 view .LVU459
	.loc 1 900 3 view .LVU460
	.loc 1 887 22 view .LVU461
	.loc 1 887 18 is_stmt 0 view .LVU462
	adds	r4, r2, #2
.LVL154:
	.loc 1 887 22 view .LVU463
	cmp	r3, #0
	beq	.L114
	movs	r0, #0
.LVL155:
.L108:
	.loc 1 900 3 is_stmt 1 view .LVU464
	.loc 1 900 6 is_stmt 0 view .LVU465
	cmp	r3, #37
	.loc 1 901 4 is_stmt 1 view .LVU466
	it	eq
	eoreq	r0, r0, #1
.LVL156:
	.loc 1 887 22 is_stmt 0 view .LVU467
	mov	r2, r4
	b	.L107
	.cfi_endproc
.LFE302:
	.size	is_ptr, .-is_ptr
	.section	.rodata.cbprintf_package_convert.str1.1,"aMS",%progbits,1
.LC0:
	.ascii	"(unsigned) char * used for %%p argument. It's recom"
	.ascii	"mended to cast it to void * because it may cause mi"
	.ascii	"sbehavior in certain configurations. String:\"%s\" "
	.ascii	"argument:%d\000"
	.section	.text.cbprintf_package_convert,"ax",%progbits
	.align	1
	.global	cbprintf_package_convert
	.syntax unified
	.thumb
	.thumb_func
	.type	cbprintf_package_convert, %function
cbprintf_package_convert:
.LVL157:
.LFB303:
	.loc 1 915 1 is_stmt 1 view -0
	.cfi_startproc
	@ args = 12, pretend = 0, frame = 80
	@ frame_needed = 1, uses_anonymous_args = 0
	.loc 1 915 1 is_stmt 0 view .LVU469
	push	{r4, r5, r6, r7, r8, r9, r10, fp, lr}
	.cfi_def_cfa_offset 36
	.cfi_offset 4, -36
	.cfi_offset 5, -32
	.cfi_offset 6, -28
	.cfi_offset 7, -24
	.cfi_offset 8, -20
	.cfi_offset 9, -16
	.cfi_offset 10, -12
	.cfi_offset 11, -8
	.cfi_offset 14, -4
	sub	sp, sp, #84
	.cfi_def_cfa_offset 120
	add	r7, sp, #0
	.cfi_def_cfa_register 7
.LBB210:
.LBB211:
	.loc 1 206 15 view .LVU470
	ldrb	fp, [r0, #2]	@ zero_extendqisi2
.LBE211:
.LBE210:
	.loc 1 915 1 view .LVU471
	str	r3, [r7, #24]
	ldr	r3, [r7, #120]
.LVL158:
	.loc 1 915 1 view .LVU472
	str	r2, [r7, #36]
	ubfx	r3, r3, #3, #1
	mov	r4, r0
	.loc 1 916 4 is_stmt 1 view .LVU473
	.loc 1 916 5 view .LVU474
	.loc 1 918 2 view .LVU475
.LVL159:
	.loc 1 919 2 view .LVU476
	.loc 1 920 2 view .LVU477
	.loc 1 921 1 view .LVU478
	str	r3, [r7, #16]
.LVL160:
	.loc 1 922 1 view .LVU479
	.loc 1 923 1 view .LVU480
	.loc 1 924 2 view .LVU481
	.loc 1 926 2 view .LVU482
	.loc 1 926 32 is_stmt 0 view .LVU483
	mov	r10, r1
	cbnz	r1, .L122
.LVL161:
.LBB216:
.LBI210:
	.loc 1 196 15 is_stmt 1 view .LVU484
.LBB214:
	.loc 1 198 4 view .LVU485
	.loc 1 198 5 view .LVU486
	.loc 1 200 2 view .LVU487
	.loc 1 201 2 view .LVU488
	.loc 1 202 2 view .LVU489
	.loc 1 204 2 view .LVU490
	.loc 1 205 2 view .LVU491
	.loc 1 205 8 is_stmt 0 view .LVU492
	ldrb	r5, [r0, #1]	@ zero_extendqisi2
.LVL162:
	.loc 1 206 2 is_stmt 1 view .LVU493
	.loc 1 209 2 view .LVU494
	.loc 1 212 2 view .LVU495
	.loc 1 212 6 is_stmt 0 view .LVU496
	ldrb	r0, [r0]	@ zero_extendqisi2
.LVL163:
	.loc 1 212 6 view .LVU497
	add	r0, fp, r0, lsl #2
	add	r0, r0, r4
.LVL164:
	.loc 1 215 2 is_stmt 1 view .LVU498
.LBB212:
	.loc 1 215 7 view .LVU499
.L123:
	.loc 1 215 29 view .LVU500
	cmp	r5, r10
	bhi	.L124
	.loc 1 215 29 is_stmt 0 view .LVU501
.LBE212:
	.loc 1 220 2 is_stmt 1 view .LVU502
.LVL165:
	.loc 1 220 33 is_stmt 0 view .LVU503
	sub	r10, r0, r4
.LVL166:
.L122:
	.loc 1 220 33 view .LVU504
.LBE214:
.LBE216:
	.loc 1 931 2 is_stmt 1 discriminator 4 view .LVU505
	.loc 1 932 2 discriminator 4 view .LVU506
	.loc 1 938 19 is_stmt 0 discriminator 4 view .LVU507
	ldrb	r3, [r4, #3]	@ zero_extendqisi2
	str	r3, [r7, #20]
	.loc 1 932 19 discriminator 4 view .LVU508
	cmp	fp, #0
	beq	.L125
	.loc 1 932 19 discriminator 1 view .LVU509
	ldr	r3, [r7, #120]
	lsls	r0, r3, #31
	bmi	.L126
.L125:
.LVL167:
	.loc 1 938 2 is_stmt 1 view .LVU510
	.loc 1 939 2 view .LVU511
	.loc 1 939 23 is_stmt 0 view .LVU512
	ldr	r3, [r7, #20]
	cbnz	r3, .L127
.L128:
	.loc 1 947 3 is_stmt 1 view .LVU513
	.loc 1 947 6 is_stmt 0 view .LVU514
	ldr	r3, [r7, #36]
	cbz	r3, .L132
	.loc 1 948 4 is_stmt 1 view .LVU515
	ldr	r2, [r7, #24]
	mov	r1, r10
	mov	r0, r4
	blx	r3
.LVL168:
.L132:
	.loc 1 951 3 view .LVU516
	.loc 1 951 10 is_stmt 0 view .LVU517
	mov	r5, r10
.LVL169:
.L121:
	.loc 1 1165 1 view .LVU518
	mov	r0, r5
	adds	r7, r7, #84
	.cfi_remember_state
	.cfi_def_cfa_offset 36
	mov	sp, r7
	.cfi_def_cfa_register 13
	@ sp needed
	pop	{r4, r5, r6, r7, r8, r9, r10, fp, pc}
.LVL170:
.L124:
	.cfi_restore_state
.LBB217:
.LBB215:
.LBB213:
	.loc 1 216 3 is_stmt 1 view .LVU519
	.loc 1 216 6 is_stmt 0 view .LVU520
	adds	r6, r0, #1
.LVL171:
	.loc 1 217 3 is_stmt 1 view .LVU521
	.loc 1 217 10 is_stmt 0 view .LVU522
	mov	r0, r6
	bl	strlen
.LVL172:
	.loc 1 217 7 view .LVU523
	adds	r0, r0, #1
	add	r0, r0, r6
.LVL173:
	.loc 1 215 39 is_stmt 1 view .LVU524
	.loc 1 215 39 is_stmt 0 view .LVU525
	add	r10, r10, #1
.LVL174:
	.loc 1 215 39 view .LVU526
	b	.L123
.LVL175:
.L126:
	.loc 1 215 39 view .LVU527
.LBE213:
.LBE215:
.LBE217:
	.loc 1 938 2 is_stmt 1 view .LVU528
	.loc 1 939 2 view .LVU529
	ldrb	r3, [r4]	@ zero_extendqisi2
	.loc 1 958 21 is_stmt 0 view .LVU530
	str	r3, [r7, #32]
	.loc 1 958 12 view .LVU531
	lsls	r3, r3, #2
	str	r3, [r7, #12]
	.loc 1 966 11 view .LVU532
	ldr	r3, [r7, #32]
	ldr	r2, [r4, #4]
.LVL176:
	.loc 1 946 2 is_stmt 1 view .LVU533
	.loc 1 958 2 view .LVU534
	.loc 1 960 2 view .LVU535
	.loc 1 965 2 view .LVU536
	.loc 1 965 14 is_stmt 0 view .LVU537
	str	r2, [r7, #28]
.LVL177:
	.loc 1 966 2 is_stmt 1 view .LVU538
	.loc 1 966 11 is_stmt 0 view .LVU539
	add	r9, r4, r3, lsl #2
.LVL178:
	.loc 1 967 2 is_stmt 1 view .LVU540
	.loc 1 970 2 view .LVU541
	.loc 1 970 5 is_stmt 0 view .LVU542
	ldr	r3, [r7, #36]
	cmp	r3, #0
	bne	.L171
.LBB218:
	.loc 1 971 3 is_stmt 1 view .LVU543
	.loc 1 971 11 is_stmt 0 view .LVU544
	mov	r5, r10
.LVL179:
	.loc 1 972 3 is_stmt 1 view .LVU545
	mov	r8, r9
	add	r10, r9, fp
.LVL180:
	.loc 1 972 3 is_stmt 0 view .LVU546
.LBE218:
	.loc 1 967 9 view .LVU547
	movs	r6, #0
.LVL181:
.L139:
.LBB289:
.LBB219:
	.loc 1 973 31 is_stmt 1 discriminator 1 view .LVU548
	cmp	r8, r10
	bne	.L141
	.loc 1 973 31 is_stmt 0 discriminator 1 view .LVU549
	add	r9, r9, fp
	b	.L138
.LVL182:
.L127:
	.loc 1 973 31 discriminator 1 view .LVU550
.LBE219:
.LBE289:
	.loc 1 939 23 view .LVU551
	ldr	r3, [r7, #120]
	lsls	r1, r3, #30
	bpl	.L128
.LVL183:
	.loc 1 946 2 is_stmt 1 view .LVU552
	.loc 1 958 2 view .LVU553
	.loc 1 958 21 is_stmt 0 view .LVU554
	ldrb	r3, [r4]	@ zero_extendqisi2
	str	r3, [r7, #32]
	.loc 1 958 12 view .LVU555
	mov	r9, r3
	lsls	r3, r3, #2
	str	r3, [r7, #12]
.LVL184:
	.loc 1 960 2 is_stmt 1 view .LVU556
	.loc 1 965 2 view .LVU557
	.loc 1 965 14 is_stmt 0 view .LVU558
	ldr	r3, [r4, #4]
.LVL185:
	.loc 1 965 14 view .LVU559
	str	r3, [r7, #28]
.LVL186:
	.loc 1 966 2 is_stmt 1 view .LVU560
	.loc 1 970 5 is_stmt 0 view .LVU561
	ldr	r3, [r7, #36]
.LVL187:
	.loc 1 966 11 view .LVU562
	add	r9, r4, r9, lsl #2
.LVL188:
	.loc 1 967 2 is_stmt 1 view .LVU563
	.loc 1 970 2 view .LVU564
	.loc 1 970 5 is_stmt 0 view .LVU565
	cmp	r3, #0
	bne	.L136
.LBB290:
	.loc 1 971 3 is_stmt 1 view .LVU566
	.loc 1 971 11 is_stmt 0 view .LVU567
	mov	r5, r10
.LVL189:
	.loc 1 972 3 is_stmt 1 view .LVU568
	.loc 1 985 4 view .LVU569
	.loc 1 985 7 is_stmt 0 view .LVU570
	cmp	fp, #0
	bne	.L137
.LVL190:
	.loc 1 985 7 view .LVU571
.LBE290:
	.loc 1 967 9 view .LVU572
	mov	r6, fp
.LVL191:
.L138:
.LBB291:
	.loc 1 990 2 is_stmt 1 view .LVU573
	.loc 1 995 3 view .LVU574
.LBB230:
	.loc 1 995 8 view .LVU575
	.loc 1 995 8 is_stmt 0 view .LVU576
	ldr	r3, [r7, #120]
	tst	r3, #5
	ldr	r3, [r7, #20]
	add	r10, r9, r3, lsl #1
.LBB231:
	.loc 1 1020 21 view .LVU577
	ldr	r3, [r7, #120]
	and	r3, r3, #2
	ite	eq
	moveq	fp, #2
	movne	fp, #1
	str	r3, [r7, #36]
.LVL192:
.L142:
	.loc 1 1020 21 view .LVU578
.LBE231:
	.loc 1 995 30 is_stmt 1 discriminator 1 view .LVU579
	cmp	r9, r10
	beq	.L121
.LBB277:
	.loc 1 996 4 view .LVU580
.LVL193:
	.loc 1 996 12 is_stmt 0 view .LVU581
	ldrb	r1, [r9], #2	@ zero_extendqisi2
.LVL194:
	.loc 1 997 4 is_stmt 1 view .LVU582
	.loc 1 998 4 view .LVU583
	.loc 1 998 44 is_stmt 0 view .LVU584
	ldrb	r3, [r9, #-1]	@ zero_extendqisi2
	.loc 1 998 16 view .LVU585
	ldr	r8, [r4, r3, lsl #2]
.LVL195:
	.loc 1 999 3 is_stmt 1 view .LVU586
.LBB232:
.LBI232:
	.loc 1 33 19 view .LVU587
	.loc 1 41 2 view .LVU588
.LBB233:
.LBI233:
	.loc 2 24 19 view .LVU589
.LBB234:
	.loc 2 40 2 view .LVU590
	.loc 2 41 2 view .LVU591
	.loc 2 49 2 view .LVU592
	.loc 2 49 70 is_stmt 0 view .LVU593
	ldr	r3, .L222
	cmp	r8, r3
	bcc	.L143
	ldr	r3, .L222+4
	cmp	r8, r3
	bcc	.L144
.L143:
.LVL196:
	.loc 2 49 70 view .LVU594
.LBE234:
.LBE233:
.LBE232:
	.loc 1 1000 4 is_stmt 1 view .LVU595
	.loc 1 1002 4 view .LVU596
	.loc 1 1002 7 is_stmt 0 view .LVU597
	ldr	r3, [r7, #16]
	cmp	r3, #0
	beq	.L145
	.loc 1 1002 23 view .LVU598
	ldr	r0, [r7, #28]
	bl	is_ptr
.LVL197:
	.loc 1 1002 20 view .LVU599
	cmp	r0, #0
	beq	.L145
.LVL198:
.L146:
	.loc 1 1003 5 is_stmt 1 view .LVU600
.LBB235:
	.loc 1 1003 10 view .LVU601
	.loc 1 1003 59 view .LVU602
	.loc 1 1003 16 view .LVU603
	.loc 1 1003 4 view .LVU604
	.loc 1 1003 43 view .LVU605
	.loc 1 1003 178 view .LVU606
	.loc 1 1003 189 view .LVU607
	.loc 1 1003 277 view .LVU608
.LBB236:
	.loc 1 1003 5 view .LVU609
	.loc 1 1003 7 view .LVU610
	.loc 1 1003 37 view .LVU611
	.loc 1 1003 5 view .LVU612
.LBB237:
	.loc 1 1003 10 view .LVU613
	.loc 1 1003 4 view .LVU614
.LBE237:
.LBE236:
.LBE235:
.LBE277:
.LBE230:
.LBE291:
	.loc 1 1003 5 view .LVU615
	.loc 1 1003 14 view .LVU616
	.loc 1 1003 109 view .LVU617
	.loc 1 1003 5 view .LVU618
.LBB292:
.LBB283:
.LBB278:
.LBB266:
.LBB261:
.LBB256:
	.loc 1 1003 14 view .LVU619
	.loc 1 1003 104 view .LVU620
	.loc 1 1003 106 view .LVU621
.LBB238:
	.loc 1 1003 109 is_stmt 0 view .LVU622
	mov	r8, sp
.LVL199:
	.loc 1 1003 111 is_stmt 1 view .LVU623
	.loc 1 1003 122 view .LVU624
	.loc 1 1003 211 view .LVU625
	.loc 1 1003 28 view .LVU626
.LBE238:
.LBE256:
.LBE261:
.LBE266:
.LBE278:
.LBE283:
.LBE292:
	.loc 1 1003 5 view .LVU627
	.loc 1 1003 370 view .LVU628
	.loc 1 1003 77 view .LVU629
	.loc 1 1003 4 view .LVU630
	.loc 1 1003 4 view .LVU631
	.loc 1 1003 4 view .LVU632
	.loc 1 1003 40 view .LVU633
	.loc 1 1003 6 view .LVU634
	.loc 1 1003 32 view .LVU635
	.loc 1 1003 58 view .LVU636
	.loc 1 1003 971 view .LVU637
	.loc 1 1003 1033 view .LVU638
	.loc 1 1003 2020 view .LVU639
	.loc 1 1003 2085 view .LVU640
	.loc 1 1003 2110 view .LVU641
	.loc 1 1003 2111 view .LVU642
	.loc 1 1003 2113 view .LVU643
	.loc 1 1003 2143 view .LVU644
	.loc 1 1003 2173 view .LVU645
	.loc 1 1003 2205 view .LVU646
	.loc 1 1003 2237 view .LVU647
	.loc 1 1003 2269 view .LVU648
	.loc 1 1003 2466 view .LVU649
	.loc 1 1003 2490 view .LVU650
	.loc 1 1003 2491 view .LVU651
	.loc 1 1003 2493 view .LVU652
	.loc 1 1003 2522 view .LVU653
	.loc 1 1003 2551 view .LVU654
	.loc 1 1003 2582 view .LVU655
	.loc 1 1003 2613 view .LVU656
	.loc 1 1003 2644 view .LVU657
	.loc 1 1003 2851 view .LVU658
	.loc 1 1003 6 view .LVU659
	.loc 1 1003 24 view .LVU660
	.loc 1 1003 44 view .LVU661
	.loc 1 1003 6 view .LVU662
	.loc 1 1003 44 view .LVU663
	.loc 1 1003 15 view .LVU664
	.loc 1 1003 15 view .LVU665
	.loc 1 1003 63 view .LVU666
	.loc 1 1003 94 view .LVU667
	.loc 1 1003 128 view .LVU668
	.loc 1 1003 133 view .LVU669
	.loc 1 1003 530 view .LVU670
	.loc 1 1003 2171 view .LVU671
	.loc 1 1003 2236 view .LVU672
	.loc 1 1003 2260 view .LVU673
	.loc 1 1003 2461 view .LVU674
	.loc 1 1003 2472 view .LVU675
	.loc 1 1003 2731 view .LVU676
	.loc 1 1003 2747 view .LVU677
	.loc 1 1003 2787 view .LVU678
	.loc 1 1003 2812 view .LVU679
	.loc 1 1003 0 view .LVU680
	.loc 1 1003 0 view .LVU681
	.loc 1 1003 9 view .LVU682
	.loc 1 1003 32 view .LVU683
	.loc 1 1003 131 view .LVU684
	.loc 1 1003 8 view .LVU685
	.loc 1 1003 13 view .LVU686
	.loc 1 1003 238 view .LVU687
	.loc 1 1003 1191 view .LVU688
	.loc 1 1003 1256 view .LVU689
	.loc 1 1003 1280 view .LVU690
	.loc 1 1003 1309 view .LVU691
	.loc 1 1003 1320 view .LVU692
	.loc 1 1003 1407 view .LVU693
	.loc 1 1003 1423 view .LVU694
	.loc 1 1003 1463 view .LVU695
	.loc 1 1003 1553 view .LVU696
	.loc 1 1003 1956 view .LVU697
	.loc 1 1003 2613 view .LVU698
	.loc 1 1003 2632 view .LVU699
	.loc 1 1003 2669 view .LVU700
	.loc 1 1003 2727 view .LVU701
	.loc 1 1003 2768 view .LVU702
	.loc 1 1003 9 view .LVU703
	.loc 1 1003 32 view .LVU704
	.loc 1 1003 11 view .LVU705
	.loc 1 1003 8 view .LVU706
	.loc 1 1003 13 view .LVU707
	.loc 1 1003 238 view .LVU708
	.loc 1 1003 1191 view .LVU709
	.loc 1 1003 1256 view .LVU710
	.loc 1 1003 1280 view .LVU711
	.loc 1 1003 1309 view .LVU712
	.loc 1 1003 1320 view .LVU713
	.loc 1 1003 1407 view .LVU714
	.loc 1 1003 1423 view .LVU715
	.loc 1 1003 1463 view .LVU716
	.loc 1 1003 2727 view .LVU717
	.loc 1 1003 2768 view .LVU718
	.loc 1 1003 9 view .LVU719
	.loc 1 1003 32 view .LVU720
	.loc 1 1003 11 view .LVU721
	.loc 1 1003 7 view .LVU722
	.loc 1 1003 30 view .LVU723
	.loc 1 1003 54 view .LVU724
	.loc 1 1003 82 view .LVU725
	.loc 1 1003 258 view .LVU726
	.loc 1 1003 18 view .LVU727
.LBB293:
.LBB284:
.LBB279:
.LBB267:
.LBB262:
.LBB257:
.LBB252:
	.loc 1 1003 31 view .LVU728
	.loc 1 1003 5 view .LVU729
	.loc 1 1003 5 view .LVU730
	.loc 1 1003 72 view .LVU731
	.loc 1 1003 84 is_stmt 0 view .LVU732
	sub	sp, sp, #40
	mov	r2, sp
.LVL200:
	.loc 1 1003 76 is_stmt 1 view .LVU733
	.loc 1 1003 486 view .LVU734
	.loc 1 1003 7 view .LVU735
	.loc 1 1003 9 view .LVU736
	.loc 1 1003 14 view .LVU737
	.loc 1 1003 12 view .LVU738
	.loc 1 1003 7 view .LVU739
	.loc 1 1003 25 view .LVU740
.LBB239:
	.loc 1 1003 5 view .LVU741
	.loc 1 1003 370 view .LVU742
	.loc 1 1003 77 view .LVU743
.LVL201:
	.loc 1 1003 4 view .LVU744
	.loc 1 1003 4 view .LVU745
	.loc 1 1003 4 view .LVU746
	.loc 1 1003 40 view .LVU747
	.loc 1 1003 69 view .LVU748
	.loc 1 1003 95 view .LVU749
	.loc 1 1003 121 view .LVU750
	.loc 1 1003 1034 view .LVU751
	.loc 1 1003 1096 view .LVU752
	.loc 1 1003 2083 view .LVU753
	.loc 1 1003 2148 view .LVU754
	.loc 1 1003 2173 view .LVU755
	.loc 1 1003 2174 view .LVU756
	.loc 1 1003 2176 view .LVU757
	.loc 1 1003 2206 view .LVU758
	.loc 1 1003 2236 view .LVU759
	.loc 1 1003 2268 view .LVU760
	.loc 1 1003 2300 view .LVU761
	.loc 1 1003 2332 view .LVU762
	.loc 1 1003 2529 view .LVU763
	.loc 1 1003 2553 view .LVU764
	.loc 1 1003 2554 view .LVU765
	.loc 1 1003 2556 view .LVU766
	.loc 1 1003 2585 view .LVU767
	.loc 1 1003 2614 view .LVU768
	.loc 1 1003 2645 view .LVU769
	.loc 1 1003 2676 view .LVU770
	.loc 1 1003 2707 view .LVU771
	.loc 1 1003 2914 view .LVU772
.LBB240:
	.loc 1 1003 0 view .LVU773
	.loc 1 1003 0 view .LVU774
	.loc 1 1003 0 view .LVU775
	ldr	r3, .L222+8
	str	r3, [r2, #20]
	.loc 1 1003 0 view .LVU776
	.loc 1 1003 9 view .LVU777
.LVL202:
	.loc 1 1003 32 view .LVU778
	.loc 1 1003 32 is_stmt 0 view .LVU779
.LBE240:
	.loc 1 1003 131 is_stmt 1 view .LVU780
	.loc 1 1003 8 view .LVU781
.LBB241:
	.loc 1 1003 13 view .LVU782
	.loc 1 1003 238 view .LVU783
	.loc 1 1003 1191 view .LVU784
	.loc 1 1003 1256 view .LVU785
.LBE241:
.LBE239:
.LBE252:
.LBE257:
.LBE262:
.LBE267:
.LBE279:
.LBE284:
.LBE293:
	.loc 1 1003 1280 view .LVU786
	.loc 1 1003 1309 view .LVU787
	.loc 1 1003 1320 view .LVU788
	.loc 1 1003 1407 view .LVU789
.LBB294:
.LBB285:
.LBB280:
.LBB268:
.LBB263:
.LBB258:
.LBB253:
.LBB248:
.LBB242:
	.loc 1 1003 1423 view .LVU790
	.loc 1 1003 1463 view .LVU791
	.loc 1 1003 1553 view .LVU792
	.loc 1 1003 1956 view .LVU793
	.loc 1 1003 2613 view .LVU794
	.loc 1 1003 2632 view .LVU795
	.loc 1 1003 2669 view .LVU796
	.loc 1 1003 2727 view .LVU797
	.loc 1 1003 2765 view .LVU798
	.loc 1 1003 2770 view .LVU799
	.loc 1 1003 3214 view .LVU800
	.loc 1 1003 3813 is_stmt 0 view .LVU801
	ldr	r3, [r7, #28]
.LBE242:
.LBB243:
	.loc 1 1003 3813 view .LVU802
	strd	r3, r1, [r2, #24]
	.loc 1 1003 2768 is_stmt 1 view .LVU803
	.loc 1 1003 9 view .LVU804
.LVL203:
	.loc 1 1003 32 view .LVU805
	.loc 1 1003 32 is_stmt 0 view .LVU806
.LBE243:
	.loc 1 1003 11 is_stmt 1 view .LVU807
	.loc 1 1003 7 view .LVU808
	.loc 1 1003 30 view .LVU809
	.loc 1 1003 54 view .LVU810
	.loc 1 1003 82 view .LVU811
.LBB244:
	.loc 1 1003 8 view .LVU812
	.loc 1 1003 47 view .LVU813
.LBE244:
.LBE248:
.LBE253:
.LBE258:
.LBE263:
.LBE268:
.LBE280:
.LBE285:
.LBE294:
	.loc 1 1003 52 view .LVU814
	.loc 1 1003 82 view .LVU815
.LBB295:
.LBB286:
.LBB281:
.LBB269:
.LBB264:
.LBB259:
.LBB254:
.LBB249:
.LBB246:
.LBB245:
	.loc 1 1003 184 view .LVU816
	.loc 1 1003 216 view .LVU817
	.loc 1 1003 210 view .LVU818
	.loc 1 1003 184 view .LVU819
	.loc 1 1003 216 view .LVU820
	.loc 1 1003 229 is_stmt 0 view .LVU821
	mov	r3, #512
	strh	r3, [r2, #32]	@ movhi
	.loc 1 1003 210 is_stmt 1 view .LVU822
.LVL204:
	.loc 1 1003 184 view .LVU823
.LBE245:
.LBE246:
	.loc 1 1003 258 view .LVU824
	.loc 1 1003 18 view .LVU825
.LBB247:
	.loc 1 1003 8 view .LVU826
	.loc 1 1003 166 view .LVU827
	.loc 1 1003 168 view .LVU828
	.loc 1 1003 178 is_stmt 0 view .LVU829
	ldr	r3, .L222+12
	str	r3, [r2, #16]!
.LVL205:
	.loc 1 1003 178 view .LVU830
.LBE247:
.LBE249:
	.loc 1 1003 28 is_stmt 1 view .LVU831
	.loc 1 1003 9 view .LVU832
	.loc 1 1003 149 view .LVU833
	.loc 1 1003 151 view .LVU834
.LBB250:
.LBI250:
	.file 4 "/home/g/mise-work/zmk-firmware/zmk/app/build/zephyr/include/generated/syscalls/log_msg.h"
	.loc 4 26 20 view .LVU835
.LBB251:
	.loc 4 38 2 view .LVU836
	.loc 4 38 7 view .LVU837
	.loc 4 38 5 view .LVU838
	.loc 4 39 2 view .LVU839
	ldr	r0, .L222+16
	movs	r3, #0
	mov	r1, #9344
.LVL206:
	.loc 4 39 2 is_stmt 0 view .LVU840
	bl	z_impl_z_log_msg_static_create
.LVL207:
	.loc 4 39 2 view .LVU841
.LBE251:
.LBE250:
.LBE254:
.LBE259:
.LBE264:
.LBE269:
	.loc 1 1010 13 view .LVU842
	subs	r5, r5, #2
.LVL208:
.LBB270:
.LBB265:
.LBB260:
.LBB255:
	.loc 1 1010 13 view .LVU843
	mov	sp, r8
.LVL209:
	.loc 1 1010 13 view .LVU844
.LBE255:
	.loc 1 1003 109 is_stmt 1 view .LVU845
	.loc 1 1003 7 view .LVU846
	.loc 1 1003 44 view .LVU847
.LBE260:
	.loc 1 1003 8 view .LVU848
.LBE265:
	.loc 1 1003 280 view .LVU849
	.loc 1 1003 7 view .LVU850
	.loc 1 1003 20 view .LVU851
.LBE270:
	.loc 1 1003 8 view .LVU852
	.loc 1 1010 5 view .LVU853
	.loc 1 1011 5 view .LVU854
	b	.L142
.LVL210:
.L141:
	.loc 1 1011 5 is_stmt 0 view .LVU855
.LBE281:
.LBE286:
.LBB287:
.LBB220:
	.loc 1 974 5 is_stmt 1 view .LVU856
	.loc 1 975 5 view .LVU857
.LBB221:
.LBI221:
	.loc 1 223 12 view .LVU858
	.loc 1 225 2 view .LVU859
.LBB222:
.LBI222:
	.loc 1 223 12 view .LVU860
.LBB223:
	.loc 1 226 3 view .LVU861
.LBE223:
.LBE222:
.LBE221:
	.loc 1 974 45 is_stmt 0 view .LVU862
	ldrb	r3, [r8], #1	@ zero_extendqisi2
.LVL211:
.LBB228:
.LBB226:
.LBB224:
	.loc 1 226 14 view .LVU863
	ldr	r0, [r4, r3, lsl #2]
	bl	strlen
.LVL212:
	.loc 1 226 14 view .LVU864
.LBE224:
.LBE226:
.LBE228:
	.loc 1 978 8 view .LVU865
	ldr	r3, [r7, #124]
.LBB229:
.LBB227:
.LBB225:
	.loc 1 226 12 view .LVU866
	adds	r0, r0, #1
.LVL213:
	.loc 1 226 12 view .LVU867
.LBE225:
.LBE227:
.LBE229:
	.loc 1 978 5 is_stmt 1 view .LVU868
	.loc 1 978 8 is_stmt 0 view .LVU869
	cbz	r3, .L140
	.loc 1 978 14 discriminator 1 view .LVU870
	ldr	r3, [r7, #128]
	cmp	r6, r3
	.loc 1 979 6 is_stmt 1 discriminator 1 view .LVU871
.LVL214:
	.loc 1 979 25 is_stmt 0 discriminator 1 view .LVU872
	ittt	cc
	ldrcc	r3, [r7, #124]
	strhcc	r0, [r3, r6, lsl #1]	@ movhi
	.loc 1 979 19 discriminator 1 view .LVU873
	addcc	r6, r6, #1
.LVL215:
.L140:
	.loc 1 981 5 is_stmt 1 discriminator 2 view .LVU874
	.loc 1 981 13 is_stmt 0 discriminator 2 view .LVU875
	add	r5, r5, r0
.LVL216:
	.loc 1 982 5 is_stmt 1 discriminator 2 view .LVU876
	.loc 1 982 5 is_stmt 0 discriminator 2 view .LVU877
.LBE220:
	.loc 1 973 43 is_stmt 1 discriminator 2 view .LVU878
	.loc 1 973 43 is_stmt 0 discriminator 2 view .LVU879
	b	.L139
.LVL217:
.L137:
	.loc 1 973 43 discriminator 2 view .LVU880
.LBE287:
	.loc 1 985 16 discriminator 1 view .LVU881
	ldr	r3, [r7, #120]
	ands	r6, r3, #4
	.loc 1 986 5 is_stmt 1 discriminator 1 view .LVU882
.LBE295:
	.loc 1 967 9 is_stmt 0 discriminator 1 view .LVU883
	itt	ne
	ldrne	r6, [r7, #36]
.LBB296:
	.loc 1 986 13 discriminator 1 view .LVU884
	addne	r9, r9, fp
.LVL218:
	.loc 1 986 13 discriminator 1 view .LVU885
	b	.L138
.LVL219:
.L144:
.LBB288:
.LBB282:
	.loc 1 1000 4 is_stmt 1 view .LVU886
	.loc 1 1002 4 view .LVU887
	.loc 1 1002 7 is_stmt 0 view .LVU888
	ldr	r3, [r7, #16]
	cbz	r3, .L147
	.loc 1 1002 23 view .LVU889
	ldr	r0, [r7, #28]
	bl	is_ptr
.LVL220:
	.loc 1 1002 20 view .LVU890
	cmp	r0, #0
	bne	.L146
.L147:
	.loc 1 1015 5 is_stmt 1 view .LVU891
	.loc 1 1015 8 is_stmt 0 view .LVU892
	ldr	r3, [r7, #120]
	lsls	r2, r3, #31
	bmi	.L149
	.loc 1 1018 6 is_stmt 1 discriminator 4 view .LVU893
	.loc 1 1018 14 is_stmt 0 discriminator 4 view .LVU894
	sub	r5, r5, fp
.LVL221:
	.loc 1 1018 14 discriminator 4 view .LVU895
	b	.L142
.LVL222:
.L145:
	.loc 1 1020 11 is_stmt 1 view .LVU896
	.loc 1 1020 14 is_stmt 0 view .LVU897
	ldr	r3, [r7, #36]
	cmp	r3, #0
	beq	.L142
.LVL223:
.L149:
	.loc 1 1022 5 is_stmt 1 view .LVU898
.LBB271:
.LBI271:
	.loc 1 223 12 view .LVU899
	.loc 1 225 2 view .LVU900
.LBB272:
.LBI272:
	.loc 1 223 12 view .LVU901
.LBB273:
	.loc 1 226 3 view .LVU902
	.loc 1 226 14 is_stmt 0 view .LVU903
	mov	r0, r8
	bl	strlen
.LVL224:
	.loc 1 226 14 view .LVU904
.LBE273:
.LBE272:
.LBE271:
	.loc 1 1025 5 is_stmt 1 view .LVU905
	.loc 1 1025 8 is_stmt 0 view .LVU906
	ldr	r3, [r7, #124]
	cbz	r3, .L150
	.loc 1 1025 14 discriminator 1 view .LVU907
	ldr	r3, [r7, #128]
	cmp	r6, r3
	.loc 1 1026 6 is_stmt 1 discriminator 1 view .LVU908
.LVL225:
	.loc 1 1026 25 is_stmt 0 discriminator 1 view .LVU909
	itttt	cc
	ldrcc	r2, [r7, #124]
.LBB276:
.LBB275:
.LBB274:
	.loc 1 226 12 discriminator 1 view .LVU910
	addcc	r3, r0, #1
.LBE274:
.LBE275:
.LBE276:
	.loc 1 1026 25 discriminator 1 view .LVU911
	strhcc	r3, [r2, r6, lsl #1]	@ movhi
	.loc 1 1026 19 discriminator 1 view .LVU912
	addcc	r6, r6, #1
.LVL226:
.L150:
	.loc 1 1031 5 is_stmt 1 view .LVU913
	.loc 1 1031 13 is_stmt 0 view .LVU914
	add	r5, r5, r0
.LVL227:
	.loc 1 1031 13 view .LVU915
.LBE282:
	.loc 1 995 42 is_stmt 1 view .LVU916
	b	.L142
.LVL228:
.L136:
	.loc 1 995 42 is_stmt 0 view .LVU917
.LBE288:
.LBE296:
	.loc 1 1038 2 is_stmt 1 view .LVU918
	.loc 1 1040 2 view .LVU919
	.loc 1 1042 2 view .LVU920
	.loc 1 1043 2 view .LVU921
	.loc 1 1044 2 view .LVU922
	.loc 1 1045 2 view .LVU923
	.loc 1 1046 2 view .LVU924
	.loc 1 1052 2 view .LVU925
	.loc 1 1056 9 view .LVU926
	.loc 1 1056 12 is_stmt 0 view .LVU927
	cmp	fp, #0
	beq	.L172
	.loc 1 1056 21 discriminator 1 view .LVU928
	ldr	r3, [r7, #120]
	ands	r6, r3, #4
	beq	.L173
	.loc 1 1058 12 view .LVU929
	mov	r8, fp
	.loc 1 1057 12 view .LVU930
	movs	r6, #0
	.loc 1 1059 7 view .LVU931
	add	r0, r7, #64
.LVL229:
.L134:
	.loc 1 1066 2 is_stmt 1 view .LVU932
.LBB297:
.LBI297:
	.loc 3 83 216 view .LVU933
.LBB298:
	.loc 3 83 292 view .LVU934
	.loc 3 83 299 is_stmt 0 view .LVU935
	mov	r2, fp
	mov	r1, r9
	bl	memcpy
.LVL230:
.L152:
	.loc 3 83 299 view .LVU936
.LBE298:
.LBE297:
	.loc 1 1068 2 is_stmt 1 view .LVU937
	ldr	r3, [r7, #20]
	lsls	r3, r3, #1
	str	r3, [r7, #4]
	ldr	r3, [r7, #20]
	.loc 1 1068 10 is_stmt 0 view .LVU938
	add	r9, r9, fp
.LVL231:
	.loc 1 1074 2 is_stmt 1 view .LVU939
.LBB299:
	.loc 1 1074 7 view .LVU940
	.loc 1 1074 7 is_stmt 0 view .LVU941
	add	r3, r9, r3, lsl #1
	str	r3, [r7, #8]
.LBB300:
	.loc 1 1095 14 view .LVU942
	ldr	r3, [r7, #120]
	and	r3, r3, #2
	str	r3, [r7]
.LVL232:
.L153:
	.loc 1 1095 14 view .LVU943
.LBE300:
	.loc 1 1074 29 is_stmt 1 discriminator 1 view .LVU944
	ldr	r3, [r7, #8]
	cmp	r3, r9
	bne	.L161
	.loc 1 1074 29 is_stmt 0 discriminator 1 view .LVU945
.LBE299:
	.loc 1 1107 2 is_stmt 1 view .LVU946
.LVL233:
	.loc 1 1108 2 view .LVU947
	.loc 1 1109 22 is_stmt 0 view .LVU948
	ldr	r1, [r7, #120]
	.loc 1 1108 28 view .LVU949
	ldrb	r3, [r4, #1]	@ zero_extendqisi2
	.loc 1 1110 22 view .LVU950
	ldr	r0, [r7, #120]
	.loc 1 1109 22 view .LVU951
	lsls	r1, r1, #30
	.loc 1 1108 38 view .LVU952
	add	r2, r6, r3
	.loc 1 1109 22 view .LVU953
	ite	pl
	lsrpl	r1, r8, #1
	movmi	r1, #0
	.loc 1 1110 22 view .LVU954
	lsls	r5, r0, #31
	.loc 1 1108 38 view .LVU955
	uxtb	r2, r2
.LVL234:
	.loc 1 1109 2 is_stmt 1 view .LVU956
	.loc 1 1110 2 view .LVU957
	.loc 1 1110 22 is_stmt 0 view .LVU958
	bmi	.L175
	.loc 1 1110 22 discriminator 1 view .LVU959
	tst	r0, #4
	ite	ne
	movne	r0, r8
	moveq	r0, #0
.L163:
	str	r3, [r7, #28]
.LVL235:
	.loc 1 1114 2 is_stmt 1 discriminator 8 view .LVU960
	.loc 1 1115 2 discriminator 8 view .LVU961
	.loc 1 1115 11 is_stmt 0 discriminator 8 view .LVU962
	strb	r2, [r4, #1]
	strb	r0, [r4, #2]
	strb	r1, [r4, #3]
	.loc 1 1118 2 is_stmt 1 discriminator 8 view .LVU963
	.loc 1 1118 7 is_stmt 0 discriminator 8 view .LVU964
	ldr	r2, [r7, #24]
.LVL236:
	.loc 1 1118 7 discriminator 8 view .LVU965
	ldr	r1, [r7, #12]
.LVL237:
	.loc 1 1118 7 discriminator 8 view .LVU966
	ldr	r3, [r7, #36]
	mov	r0, r4
.LVL238:
	.loc 1 1118 7 discriminator 8 view .LVU967
	blx	r3
.LVL239:
	.loc 1 1119 2 is_stmt 1 discriminator 8 view .LVU968
	.loc 1 1119 5 is_stmt 0 discriminator 8 view .LVU969
	subs	r5, r0, #0
	blt	.L121
	.loc 1 1122 2 is_stmt 1 view .LVU970
.LVL240:
	.loc 1 1124 2 view .LVU971
	.loc 1 1124 11 is_stmt 0 view .LVU972
	ldr	r3, [r7, #32]
	strb	r3, [r4]
	ldr	r3, [r7, #28]
	strb	r3, [r4, #1]
	ldr	r3, [r7, #20]
	strb	r3, [r4, #3]
	.loc 1 1127 2 is_stmt 1 view .LVU973
	.loc 1 1127 7 is_stmt 0 view .LVU974
	mov	r1, r8
	ldr	r2, [r7, #24]
	ldr	r3, [r7, #36]
	.loc 1 1124 11 view .LVU975
	strb	fp, [r4, #2]
	.loc 1 1127 7 view .LVU976
	add	r0, r7, #64
.LVL241:
	.loc 1 1127 7 view .LVU977
	blx	r3
.LVL242:
	.loc 1 1128 2 is_stmt 1 view .LVU978
	.loc 1 1128 5 is_stmt 0 view .LVU979
	subs	r8, r0, #0
.LVL243:
	.loc 1 1128 5 view .LVU980
	blt	.L177
	.loc 1 1131 2 is_stmt 1 view .LVU981
.LVL244:
	.loc 1 1134 2 view .LVU982
	.loc 1 1136 2 view .LVU983
	.loc 1 1134 9 is_stmt 0 view .LVU984
	ldr	r3, [r7, #12]
	.loc 1 1136 7 view .LVU985
	ldr	r2, [r7, #24]
	.loc 1 1134 9 view .LVU986
	sub	r1, r10, fp
	subs	r1, r1, r3
	.loc 1 1136 7 view .LVU987
	ldr	r3, [r7, #4]
	mov	r0, r9
.LVL245:
	.loc 1 1136 7 view .LVU988
	subs	r1, r1, r3
	ldr	r3, [r7, #36]
	blx	r3
.LVL246:
	.loc 1 1137 2 is_stmt 1 view .LVU989
	.loc 1 1137 5 is_stmt 0 view .LVU990
	cmp	r0, #0
	.loc 1 1137 5 view .LVU991
	blt	.L178
	.loc 1 1140 2 is_stmt 1 view .LVU992
	.loc 1 1131 10 is_stmt 0 view .LVU993
	add	r8, r8, r5
.LVL247:
	.loc 1 1140 10 view .LVU994
	add	r5, r8, r0
.LVL248:
	.loc 1 1143 2 is_stmt 1 view .LVU995
.LBB309:
	.loc 1 1143 7 view .LVU996
	.loc 1 1143 20 is_stmt 0 view .LVU997
	mov	fp, #0
.LVL249:
.LBB310:
	.loc 1 1144 28 view .LVU998
	add	r10, r7, #48
.LVL250:
.L164:
	.loc 1 1144 28 view .LVU999
.LBE310:
	.loc 1 1143 29 is_stmt 1 discriminator 1 view .LVU1000
	cmp	fp, r6
	bcc	.L168
	.loc 1 1143 29 is_stmt 0 discriminator 1 view .LVU1001
.LBE309:
	.loc 1 1162 2 is_stmt 1 view .LVU1002
	.loc 1 1162 8 is_stmt 0 view .LVU1003
	movs	r1, #0
	ldr	r2, [r7, #24]
	ldr	r3, [r7, #36]
	mov	r0, r1
.LVL251:
	.loc 1 1162 8 view .LVU1004
	blx	r3
.LVL252:
	.loc 1 1164 2 is_stmt 1 view .LVU1005
	.loc 1 1164 9 is_stmt 0 view .LVU1006
	b	.L121
.LVL253:
.L171:
	.loc 1 970 5 view .LVU1007
	mov	r6, fp
	mov	r8, #0
	add	r0, r7, #48
.LVL254:
	.loc 1 970 5 view .LVU1008
	b	.L134
.LVL255:
.L172:
	.loc 1 1061 12 view .LVU1009
	mov	r6, fp
	.loc 1 1062 12 view .LVU1010
	mov	r8, fp
	b	.L152
.L173:
	mov	r8, r6
	b	.L152
.LVL256:
.L161:
.LBB315:
.LBB307:
	.loc 1 1075 3 is_stmt 1 view .LVU1011
	.loc 1 1075 11 is_stmt 0 view .LVU1012
	ldrb	r1, [r9], #2	@ zero_extendqisi2
.LVL257:
	.loc 1 1076 3 is_stmt 1 view .LVU1013
.LBB301:
.LBB302:
.LBB303:
	.loc 2 49 70 is_stmt 0 view .LVU1014
	ldr	r3, .L222
.LBE303:
.LBE302:
.LBE301:
	.loc 1 1076 11 view .LVU1015
	ldrb	r5, [r9, #-1]	@ zero_extendqisi2
.LVL258:
	.loc 1 1077 3 is_stmt 1 view .LVU1016
	.loc 1 1077 15 is_stmt 0 view .LVU1017
	ldr	r0, [r4, r5, lsl #2]
.LVL259:
	.loc 1 1078 2 is_stmt 1 view .LVU1018
.LBB306:
.LBI301:
	.loc 1 33 19 view .LVU1019
	.loc 1 41 2 view .LVU1020
.LBB305:
.LBI302:
	.loc 2 24 19 view .LVU1021
.LBB304:
	.loc 2 40 2 view .LVU1022
	.loc 2 41 2 view .LVU1023
	.loc 2 49 2 view .LVU1024
	.loc 2 49 70 is_stmt 0 view .LVU1025
	cmp	r0, r3
	bcc	.L154
	ldr	r3, .L222+4
	cmp	r0, r3
	bcc	.L155
.L154:
.LVL260:
	.loc 2 49 70 view .LVU1026
.LBE304:
.LBE305:
.LBE306:
	.loc 1 1080 3 is_stmt 1 view .LVU1027
	.loc 1 1080 6 is_stmt 0 view .LVU1028
	ldr	r3, [r7, #16]
	cbz	r3, .L156
	.loc 1 1080 22 view .LVU1029
	ldr	r0, [r7, #28]
.LVL261:
	.loc 1 1080 22 view .LVU1030
	bl	is_ptr
.LVL262:
	.loc 1 1080 19 view .LVU1031
	cmp	r0, #0
	bne	.L153
.L156:
	.loc 1 1095 4 is_stmt 1 view .LVU1032
	.loc 1 1095 7 is_stmt 0 view .LVU1033
	ldr	r3, [r7]
	cbnz	r3, .L220
	.loc 1 1099 7 is_stmt 1 view .LVU1034
	.loc 1 1099 8 view .LVU1035
	.loc 1 1100 5 view .LVU1036
	.loc 1 1100 30 is_stmt 0 view .LVU1037
	add	r3, r8, #40
	add	r2, r7, #40
	.loc 1 1100 26 view .LVU1038
	add	r0, r8, #1
.LVL263:
	.loc 1 1100 30 view .LVU1039
	add	ip, r3, r2
	.loc 1 1101 30 view .LVU1040
	add	r3, r7, #80
	uxtab	r0, r3, r0
.LVL264:
	.loc 1 1101 26 view .LVU1041
	add	r8, r8, #2
.LVL265:
	.loc 1 1100 30 view .LVU1042
	strb	r1, [ip, #-16]
	.loc 1 1101 5 is_stmt 1 view .LVU1043
	.loc 1 1101 26 is_stmt 0 view .LVU1044
	uxtb	r8, r8
.LVL266:
	.loc 1 1101 30 view .LVU1045
	strb	r5, [r0, #-16]
	.loc 1 1101 30 view .LVU1046
.LBE307:
	.loc 1 1074 41 is_stmt 1 view .LVU1047
	b	.L153
.LVL267:
.L155:
.LBB308:
	.loc 1 1080 3 view .LVU1048
	.loc 1 1080 6 is_stmt 0 view .LVU1049
	ldr	r3, [r7, #16]
	cbz	r3, .L158
	.loc 1 1080 22 view .LVU1050
	ldr	r0, [r7, #28]
.LVL268:
	.loc 1 1080 22 view .LVU1051
	bl	is_ptr
.LVL269:
	.loc 1 1080 19 view .LVU1052
	cmp	r0, #0
	bne	.L153
.L158:
	.loc 1 1085 4 is_stmt 1 view .LVU1053
	.loc 1 1085 7 is_stmt 0 view .LVU1054
	ldr	r3, [r7, #120]
	lsls	r3, r3, #31
	bpl	.L159
.LVL270:
.L220:
	.loc 1 1096 7 is_stmt 1 view .LVU1055
	.loc 1 1096 8 view .LVU1056
	.loc 1 1097 5 view .LVU1057
	.loc 1 1097 29 is_stmt 0 view .LVU1058
	add	r3, r6, #40
	add	r2, r7, #40
	.loc 1 1097 25 view .LVU1059
	adds	r1, r6, #1
.LVL271:
	.loc 1 1097 29 view .LVU1060
	adds	r6, r3, r2
	strb	r5, [r6, #-32]
	.loc 1 1097 25 view .LVU1061
	uxtb	r6, r1
	b	.L153
.LVL272:
.L159:
	.loc 1 1088 11 is_stmt 1 view .LVU1062
	.loc 1 1088 14 is_stmt 0 view .LVU1063
	ldr	r3, [r7, #120]
	lsls	r0, r3, #29
	bpl	.L153
	.loc 1 1089 7 is_stmt 1 view .LVU1064
	.loc 1 1089 8 view .LVU1065
	.loc 1 1090 5 view .LVU1066
	.loc 1 1090 30 is_stmt 0 view .LVU1067
	add	r3, r8, #40
	add	r2, r7, #40
	.loc 1 1090 26 view .LVU1068
	add	r1, r8, #1
.LVL273:
	.loc 1 1090 30 view .LVU1069
	add	r8, r3, r2
	strb	r5, [r8, #-16]
	.loc 1 1090 26 view .LVU1070
	uxtb	r8, r1
	b	.L153
.LVL274:
.L175:
	.loc 1 1090 26 view .LVU1071
.LBE308:
.LBE315:
	.loc 1 1110 22 view .LVU1072
	movs	r0, #0
	b	.L163
.LVL275:
.L168:
.LBB316:
.LBB313:
	.loc 1 1144 3 is_stmt 1 view .LVU1073
	.loc 1 1144 28 is_stmt 0 view .LVU1074
	ldrb	r3, [fp, r10]	@ zero_extendqisi2
	.loc 1 1144 11 view .LVU1075
	strb	r3, [r7, #47]
	.loc 1 1145 3 is_stmt 1 view .LVU1076
	.loc 1 1145 15 is_stmt 0 view .LVU1077
	ldr	r9, [r4, r3, lsl #2]
.LVL276:
	.loc 1 1146 3 is_stmt 1 view .LVU1078
	.loc 1 1146 12 is_stmt 0 view .LVU1079
	ldr	r3, [r7, #124]
	cbz	r3, .L179
	.loc 1 1146 12 discriminator 1 view .LVU1080
	ldrh	r8, [r3, fp, lsl #1]
.L165:
.LVL277:
	.loc 1 1148 3 is_stmt 1 discriminator 4 view .LVU1081
	.loc 1 1148 8 is_stmt 0 discriminator 4 view .LVU1082
	ldr	r2, [r7, #24]
	ldr	r3, [r7, #36]
	movs	r1, #1
	add	r0, r7, #47
.LVL278:
	.loc 1 1148 8 discriminator 4 view .LVU1083
	blx	r3
.LVL279:
	.loc 1 1149 3 is_stmt 1 discriminator 4 view .LVU1084
	.loc 1 1149 6 is_stmt 0 discriminator 4 view .LVU1085
	cmp	r0, #0
	.loc 1 1149 6 discriminator 4 view .LVU1086
	blt	.L178
	.loc 1 1152 3 is_stmt 1 view .LVU1087
	.loc 1 1152 11 is_stmt 0 view .LVU1088
	add	r5, r5, r0
.LVL280:
	.loc 1 1154 3 is_stmt 1 view .LVU1089
.LBB311:
.LBI311:
	.loc 1 223 12 view .LVU1090
.LBB312:
	.loc 1 225 2 view .LVU1091
	.loc 1 229 2 view .LVU1092
	.loc 1 229 7 is_stmt 0 view .LVU1093
	cmp	r8, #0
	bne	.L167
.LVL281:
	.loc 1 229 27 view .LVU1094
	mov	r0, r9
.LVL282:
	.loc 1 229 27 view .LVU1095
	bl	strlen
.LVL283:
	.loc 1 229 7 view .LVU1096
	add	r8, r0, #1
.LVL284:
	.loc 1 229 7 view .LVU1097
	uxth	r8, r8
.LVL285:
.L167:
	.loc 1 230 2 is_stmt 1 view .LVU1098
	.loc 1 230 9 is_stmt 0 view .LVU1099
	ldr	r2, [r7, #24]
	ldr	r3, [r7, #36]
	mov	r1, r8
	mov	r0, r9
	blx	r3
.LVL286:
	.loc 1 230 9 view .LVU1100
.LBE312:
.LBE311:
	.loc 1 1155 3 is_stmt 1 view .LVU1101
	.loc 1 1155 6 is_stmt 0 view .LVU1102
	cmp	r0, #0
	.loc 1 1155 6 view .LVU1103
	blt	.L178
	.loc 1 1158 3 is_stmt 1 view .LVU1104
	.loc 1 1158 11 is_stmt 0 view .LVU1105
	add	r5, r5, r0
.LVL287:
	.loc 1 1158 11 view .LVU1106
.LBE313:
	.loc 1 1143 42 is_stmt 1 view .LVU1107
	add	fp, fp, #1
.LVL288:
	.loc 1 1143 42 is_stmt 0 view .LVU1108
	b	.L164
.LVL289:
.L179:
.LBB314:
	.loc 1 1146 12 view .LVU1109
	ldr	r8, [r7, #124]
	b	.L165
.LVL290:
.L177:
	.loc 1 1146 12 view .LVU1110
.LBE314:
.LBE316:
	mov	r5, r8
.LVL291:
	.loc 1 1146 12 view .LVU1111
	b	.L121
.LVL292:
.L178:
	.loc 1 1146 12 view .LVU1112
	mov	r5, r0
.LVL293:
	.loc 1 1146 12 view .LVU1113
	b	.L121
.L223:
	.align	2
.L222:
	.word	__rodata_region_start
	.word	__rodata_region_end
	.word	.LC0
	.word	16777220
	.word	log_const_cbprintf_package
	.cfi_endproc
.LFE303:
	.size	cbprintf_package_convert, .-cbprintf_package_convert
	.global	log_const_cbprintf_package
	.section	.rodata.str1.1,"aMS",%progbits,1
.LC1:
	.ascii	"cbprintf_package\000"
	.section	._log_const.static.log_const_cbprintf_package_,"a"
	.align	2
	.type	log_const_cbprintf_package, %object
	.size	log_const_cbprintf_package, 8
log_const_cbprintf_package:
	.word	.LC1
	.byte	3
	.space	3
	.text
.Letext0:
	.file 5 "/home/g/zephyr-sdk-0.16.3/arm-zephyr-eabi/lib/gcc/arm-zephyr-eabi/12.2.0/include/stdarg.h"
	.file 6 "/home/g/zephyr-sdk-0.16.3/arm-zephyr-eabi/picolibc/include/machine/_default_types.h"
	.file 7 "/home/g/zephyr-sdk-0.16.3/arm-zephyr-eabi/picolibc/include/sys/_stdint.h"
	.file 8 "/home/g/zephyr-sdk-0.16.3/arm-zephyr-eabi/lib/gcc/arm-zephyr-eabi/12.2.0/include/stddef.h"
	.file 9 "/home/g/mise-work/zmk-firmware/zmk/zephyr/include/zephyr/sys/cbprintf.h"
	.file 10 "/home/g/mise-work/zmk-firmware/zmk/zephyr/include/zephyr/logging/log_instance.h"
	.file 11 "/home/g/mise-work/zmk-firmware/zmk/zephyr/include/zephyr/logging/log_msg.h"
	.file 12 "/home/g/mise-work/zmk-firmware/zmk/zephyr/include/zephyr/fatal_types.h"
	.file 13 "/home/g/mise-work/zmk-firmware/zmk/zephyr/include/zephyr/sys/cbprintf_internal.h"
	.file 14 "/home/g/zephyr-sdk-0.16.3/arm-zephyr-eabi/picolibc/include/string.h"
	.file 15 "<built-in>"
	.file 16 "/home/g/mise-work/zmk-firmware/zmk/zephyr/include/zephyr/syscall.h"