	.cpu cortex-m4
	.arch armv7e-m
	.fpu fpv4-sp-d16
	.eabi_attribute 27, 1
	.eabi_attribute 28, 1
	.eabi_attribute 20, 1
	.eabi_attribute 21, 1
	.eabi_attribute 23, 3
	.eabi_attribute 24, 1
	.eabi_attribute 25, 1
	.eabi_attribute 26, 1
	.eabi_attribute 30, 4
	.eabi_attribute 34, 1
	.eabi_attribute 38, 1
	.eabi_attribute 18, 4
	.file	"dec.c"
	.text
.Ltext0:
	.cfi_sections	.debug_frame
	.file 1 "/home/g/mise-work/zmk-firmware/zmk/zephyr/lib/os/dec.c"
	.section	.text.u8_to_dec,"ax",%progbits
	.align	1
	.global	u8_to_dec
	.syntax unified
	.thumb
	.thumb_func
	.type	u8_to_dec, %function
u8_to_dec:
.LVL0:
.LFB6:
	.loc 1 10 1 view -0
	.cfi_startproc
	@ args = 0, pretend = 0, frame = 0
	@ frame_needed = 0, uses_anonymous_args = 0
	.loc 1 11 2 view .LVU1
	.loc 1 12 2 view .LVU2
	.loc 1 13 2 view .LVU3
	.loc 1 15 2 view .LVU4
	.loc 1 10 1 is_stmt 0 view .LVU5
	push	{r4, r5, r6, r7, lr}
	.cfi_def_cfa_offset 20
	.cfi_offset 4, -20
	.cfi_offset 5, -16
	.cfi_offset 6, -12
	.cfi_offset 7, -8
	.cfi_offset 14, -4
	.loc 1 11 10 view .LVU6
	movs	r3, #100
	.loc 1 10 1 view .LVU7
	mov	r5, r0
	.loc 1 15 8 view .LVU8
	movs	r6, #4
	.loc 1 12 10 view .LVU9
	movs	r0, #0
.LVL1:
	.loc 1 25 11 view .LVU10
	movs	r7, #10
.LVL2:
.L2:
	.loc 1 15 22 is_stmt 1 view .LVU11
	cbnz	r1, .L4
.LVL3:
.L11:
	.loc 1 33 1 is_stmt 0 view .LVU12
	pop	{r4, r5, r6, r7, pc}
.L6:
	.loc 1 16 3 is_stmt 1 view .LVU13
.LVL4:
	.loc 1 17 3 view .LVU14
	.loc 1 17 6 is_stmt 0 view .LVU15
	cmp	r2, r3
	udiv	r4, r2, r3
	bcs	.L3
	.loc 1 17 20 discriminator 1 view .LVU16
	cmp	r3, #1
	beq	.L3
	.loc 1 17 38 discriminator 2 view .LVU17
	cbnz	r0, .L3
.LVL5:
	.loc 1 24 3 is_stmt 1 view .LVU18
	mls	r2, r3, r4, r2
.LVL6:
	.loc 1 24 3 is_stmt 0 view .LVU19
	uxtb	r2, r2
.LVL7:
	.loc 1 25 3 is_stmt 1 view .LVU20
	.loc 1 25 11 is_stmt 0 view .LVU21
	movs	r4, #10
	udiv	r3, r3, r4
.LVL8:
	.loc 1 15 22 is_stmt 1 view .LVU22
.L4:
	.loc 1 15 22 is_stmt 0 discriminator 1 view .LVU23
	subs	r6, r6, #1
	bne	.L6
	.loc 1 28 2 is_stmt 1 view .LVU24
	.loc 1 29 3 view .LVU25
	.loc 1 29 8 is_stmt 0 view .LVU26
	strb	r6, [r5]
	.loc 1 32 2 is_stmt 1 view .LVU27
	.loc 1 32 9 is_stmt 0 view .LVU28
	b	.L11
.LVL9:
.L3:
	.loc 1 18 4 is_stmt 1 view .LVU29
	.loc 1 18 17 is_stmt 0 view .LVU30
	adds	r4, r4, #48
	.loc 1 18 9 view .LVU31
	strb	r4, [r5], #1
	.loc 1 19 4 is_stmt 1 view .LVU32
.LVL10:
	.loc 1 20 4 view .LVU33
	udiv	r4, r2, r3
	.loc 1 20 10 is_stmt 0 view .LVU34
	subs	r1, r1, #1
	mls	r2, r3, r4, r2
.LVL11:
	.loc 1 21 14 view .LVU35
	adds	r0, r0, #1
	.loc 1 25 11 view .LVU36
	udiv	r3, r3, r7
.LVL12:
	.loc 1 20 10 view .LVU37
	uxtb	r1, r1
.LVL13:
	.loc 1 21 4 is_stmt 1 view .LVU38
	.loc 1 21 14 is_stmt 0 view .LVU39
	uxtb	r0, r0
.LVL14:
	.loc 1 24 3 is_stmt 1 view .LVU40
	uxtb	r2, r2
.LVL15:
	.loc 1 25 3 view .LVU41
	.loc 1 25 11 is_stmt 0 view .LVU42
	uxtb	r3, r3
.LVL16:
	.loc 1 25 11 view .LVU43
	b	.L2
	.cfi_endproc
.LFE6:
	.size	u8_to_dec, .-u8_to_dec
	.text
.Letext0:
	.file 2 "/home/g/zephyr-sdk-0.16.3/arm-zephyr-eabi/picolibc/include/machine/_default_types.h"
	.file 3 "/home/g/zephyr-sdk-0.16.3/arm-zephyr-eabi/picolibc/include/sys/_stdint.h"