	.cpu cortex-m4
	.arch armv7e-m
	.fpu fpv4-sp-d16
	.eabi_attribute 27, 1
	.eabi_attribute 28, 1
	.eabi_attribute 20, 1
	.eabi_attribute 21, 1
	.eabi_attribute 23, 3
	.eabi_attribute 24, 1
	.eabi_attribute 25, 1
	.eabi_attribute 26, 1
	.eabi_attribute 30, 4
	.eabi_attribute 34, 1
	.eabi_attribute 38, 1
	.eabi_attribute 18, 4
	.file	"heap.c"
	.text
.Ltext0:
	.cfi_sections	.debug_frame
	.file 1 "/home/g/mise-work/zmk-firmware/zmk/zephyr/lib/os/heap.c"
	.section	.text.chunk_size,"ax",%progbits
	.align	1
	.syntax unified
	.thumb
	.thumb_func
	.type	chunk_size, %function
chunk_size:
.LVL0:
.LFB454:
	.file 2 "/home/g/mise-work/zmk-firmware/zmk/zephyr/lib/os/heap.h"
	.loc 2 143 1 view -0
	.cfi_startproc
	@ args = 0, pretend = 0, frame = 0
	@ frame_needed = 0, uses_anonymous_args = 0
	@ link register save eliminated.
	.loc 2 144 2 view .LVU1
.LBB261:
.LBI261:
	.loc 2 107 25 view .LVU2
.LBB262:
	.loc 2 110 2 view .LVU3
	.loc 2 111 2 view .LVU4
	.loc 2 113 2 view .LVU5
	.loc 2 116 3 view .LVU6
	.loc 2 116 28 is_stmt 0 view .LVU7
	add	r0, r0, r1, lsl #3
.LVL1:
	.loc 2 116 28 view .LVU8
	ldrh	r0, [r0, #2]
.LVL2:
	.loc 2 116 28 view .LVU9
.LBE262:
.LBE261:
	.loc 2 145 1 view .LVU10
	lsrs	r0, r0, #1
	bx	lr
	.cfi_endproc
.LFE454:
	.size	chunk_size, .-chunk_size
	.section	.text.free_list_add,"ax",%progbits
	.align	1
	.syntax unified
	.thumb
	.thumb_func
	.type	free_list_add, %function
free_list_add:
.LVL3:
.LFB477:
	.loc 1 99 1 is_stmt 1 view -0
	.cfi_startproc
	@ args = 0, pretend = 0, frame = 0
	@ frame_needed = 0, uses_anonymous_args = 0
	.loc 1 99 1 is_stmt 0 view .LVU12
	push	{r3, r4, r5, r6, r7, lr}
	.cfi_def_cfa_offset 24
	.cfi_offset 3, -24
	.cfi_offset 4, -20
	.cfi_offset 5, -16
	.cfi_offset 6, -12
	.cfi_offset 7, -8
	.cfi_offset 14, -4
	.loc 1 99 1 view .LVU13
	mov	r3, r0
	.loc 1 100 2 is_stmt 1 view .LVU14
.LBB292:
	.loc 1 101 3 view .LVU15
	.loc 1 101 14 is_stmt 0 view .LVU16
	bl	chunk_size
.LVL4:
.LBB293:
.LBI293:
	.loc 2 250 19 is_stmt 1 view .LVU17
.LBB294:
	.loc 2 252 2 view .LVU18
	.loc 2 253 2 view .LVU19
	.loc 2 253 14 is_stmt 0 view .LVU20
	clz	r0, r0
.LVL5:
	.loc 2 253 12 view .LVU21
	rsb	r0, r0, #31
.LVL6:
	.loc 2 253 12 view .LVU22
.LBE294:
.LBE293:
	.loc 1 102 3 is_stmt 1 view .LVU23
.LBB295:
.LBI295:
	.loc 1 68 13 view .LVU24
.LBB296:
	.loc 1 70 2 view .LVU25
	.loc 1 72 2 view .LVU26
	add	ip, r3, r0, lsl #2
.LBB297:
.LBB298:
.LBB299:
	.loc 2 126 19 is_stmt 0 view .LVU27
	lsls	r2, r1, #3
.LBE299:
.LBE298:
.LBE297:
	.loc 1 72 7 view .LVU28
	ldr	r6, [ip, #16]
.LBB306:
.LBB303:
.LBB300:
	.loc 2 133 21 view .LVU29
	adds	r7, r2, #4
.LBE300:
.LBE303:
.LBE306:
.LBE296:
.LBE295:
.LBE292:
	.loc 1 99 1 view .LVU30
	mov	r4, r1
.LBB344:
.LBB342:
.LBB340:
.LBB307:
.LBB308:
.LBB309:
.LBB310:
	.loc 2 133 21 view .LVU31
	adds	r2, r2, #6
.LBE310:
.LBE309:
.LBE308:
.LBE307:
.LBB314:
.LBB304:
.LBB301:
	.loc 2 133 25 view .LVU32
	uxth	r5, r1
.LBE301:
.LBE304:
.LBE314:
	.loc 1 72 5 view .LVU33
	cbnz	r6, .L3
	.loc 1 73 3 is_stmt 1 view .LVU34
	.loc 1 76 3 view .LVU35
	.loc 1 76 28 is_stmt 0 view .LVU36
	movs	r1, #1
.LVL7:
	.loc 1 76 28 view .LVU37
	lsl	r0, r1, r0
.LVL8:
	.loc 1 76 20 view .LVU38
	ldr	r1, [r3, #12]
	orrs	r1, r1, r0
	str	r1, [r3, #12]
	.loc 1 77 3 is_stmt 1 view .LVU39
	.loc 1 77 11 is_stmt 0 view .LVU40
	str	r4, [ip, #16]
	.loc 1 78 3 is_stmt 1 view .LVU41
.LVL9:
.LBB315:
.LBI297:
	.loc 2 187 20 view .LVU42
	.loc 2 190 2 view .LVU43
.LBB305:
.LBI298:
	.loc 2 120 20 view .LVU44
.LBB302:
	.loc 2 123 2 view .LVU45
	.loc 2 125 2 view .LVU46
	.loc 2 126 2 view .LVU47
	.loc 2 128 2 view .LVU48
	.loc 2 132 3 view .LVU49
	.loc 2 133 3 view .LVU50
	.loc 2 133 25 is_stmt 0 view .LVU51
	strh	r5, [r3, r7]	@ movhi
.LVL10:
	.loc 2 133 25 view .LVU52
.LBE302:
.LBE305:
.LBE315:
	.loc 1 79 3 is_stmt 1 view .LVU53
.LBB316:
.LBI307:
	.loc 2 193 20 view .LVU54
.LBB313:
	.loc 2 196 2 view .LVU55
.LBB312:
.LBI309:
	.loc 2 120 20 view .LVU56
.LBB311:
	.loc 2 123 2 view .LVU57
	.loc 2 125 2 view .LVU58
	.loc 2 126 2 view .LVU59
	.loc 2 128 2 view .LVU60
	.loc 2 132 3 view .LVU61
	.loc 2 133 3 view .LVU62
	.loc 2 133 25 is_stmt 0 view .LVU63
	strh	r5, [r3, r2]	@ movhi
.LVL11:
.L2:
	.loc 2 133 25 view .LVU64
.LBE311:
.LBE312:
.LBE313:
.LBE316:
.LBE340:
.LBE342:
.LBE344:
	.loc 1 104 1 view .LVU65
	pop	{r3, r4, r5, r6, r7, pc}
.LVL12:
.L3:
.LBB345:
.LBB343:
.LBB341:
.LBB317:
	.loc 1 81 3 is_stmt 1 view .LVU66
	.loc 1 84 3 view .LVU67
	.loc 1 85 3 view .LVU68
.LBB318:
.LBI318:
	.loc 2 177 25 view .LVU69
	.loc 2 179 2 view .LVU70
.LBB319:
.LBI319:
	.loc 2 107 25 view .LVU71
.LBB320:
	.loc 2 110 2 view .LVU72
	.loc 2 111 2 view .LVU73
	.loc 2 113 2 view .LVU74
	.loc 2 116 3 view .LVU75
	.loc 2 111 19 is_stmt 0 view .LVU76
	lsls	r1, r6, #3
.LVL13:
	.loc 2 116 28 view .LVU77
	adds	r1, r1, #4
	ldrh	r0, [r3, r1]
.LVL14:
	.loc 2 116 28 view .LVU78
.LBE320:
.LBE319:
.LBE318:
	.loc 1 87 3 is_stmt 1 view .LVU79
.LBB321:
.LBI321:
	.loc 2 187 20 view .LVU80
	.loc 2 190 2 view .LVU81
.LBB322:
.LBI322:
	.loc 2 120 20 view .LVU82
.LBB323:
	.loc 2 123 2 view .LVU83
	.loc 2 125 2 view .LVU84
	.loc 2 126 2 view .LVU85
	.loc 2 128 2 view .LVU86
	.loc 2 132 3 view .LVU87
	.loc 2 133 3 view .LVU88
	.loc 2 133 25 is_stmt 0 view .LVU89
	strh	r0, [r3, r7]	@ movhi
.LVL15:
	.loc 2 133 25 view .LVU90
.LBE323:
.LBE322:
.LBE321:
	.loc 1 88 3 is_stmt 1 view .LVU91
.LBB324:
.LBI324:
	.loc 2 193 20 view .LVU92
	.loc 2 196 2 view .LVU93
.LBB325:
.LBI325:
	.loc 2 120 20 view .LVU94
.LBB326:
	.loc 2 123 2 view .LVU95
	.loc 2 125 2 view .LVU96
	.loc 2 126 2 view .LVU97
	.loc 2 128 2 view .LVU98
	.loc 2 132 3 view .LVU99
	.loc 2 133 3 view .LVU100
.LBE326:
.LBE325:
.LBE324:
.LBB329:
.LBB330:
.LBB331:
	.loc 2 133 25 is_stmt 0 view .LVU101
	add	r0, r3, r0, lsl #3
.LVL16:
	.loc 2 133 25 view .LVU102
.LBE331:
.LBE330:
.LBE329:
.LBB334:
.LBB328:
.LBB327:
	strh	r6, [r3, r2]	@ movhi
.LVL17:
	.loc 2 133 25 view .LVU103
.LBE327:
.LBE328:
.LBE334:
	.loc 1 89 3 is_stmt 1 view .LVU104
.LBB335:
.LBI329:
	.loc 2 193 20 view .LVU105
	.loc 2 196 2 view .LVU106
.LBB333:
.LBI330:
	.loc 2 120 20 view .LVU107
.LBB332:
	.loc 2 123 2 view .LVU108
	.loc 2 125 2 view .LVU109
	.loc 2 126 2 view .LVU110
	.loc 2 128 2 view .LVU111
	.loc 2 132 3 view .LVU112
	.loc 2 133 3 view .LVU113
	.loc 2 133 25 is_stmt 0 view .LVU114
	strh	r5, [r0, #6]	@ movhi
.LVL18:
	.loc 2 133 25 view .LVU115
.LBE332:
.LBE333:
.LBE335:
	.loc 1 90 3 is_stmt 1 view .LVU116
.LBB336:
.LBI336:
	.loc 2 187 20 view .LVU117
.LBB337:
	.loc 2 190 2 view .LVU118
.LBB338:
.LBI338:
	.loc 2 120 20 view .LVU119
.LBB339:
	.loc 2 123 2 view .LVU120
	.loc 2 125 2 view .LVU121
	.loc 2 126 2 view .LVU122
	.loc 2 128 2 view .LVU123
	.loc 2 132 3 view .LVU124
	.loc 2 133 3 view .LVU125
	.loc 2 133 25 is_stmt 0 view .LVU126
	strh	r5, [r3, r1]	@ movhi
.LVL19:
	.loc 2 133 25 view .LVU127
.LBE339:
.LBE338:
.LBE337:
.LBE336:
.LBE317:
.LBE341:
.LBE343:
.LBE345:
	.loc 1 104 1 view .LVU128
	b	.L2
	.cfi_endproc
.LFE477:
	.size	free_list_add, .-free_list_add
	.section	.text.free_list_remove_bidx,"ax",%progbits
	.align	1
	.syntax unified
	.thumb
	.thumb_func
	.type	free_list_remove_bidx, %function
free_list_remove_bidx:
.LVL20:
.LFB474:
	.loc 1 35 1 is_stmt 1 view -0
	.cfi_startproc
	@ args = 0, pretend = 0, frame = 0
	@ frame_needed = 0, uses_anonymous_args = 0
	.loc 1 36 2 view .LVU130
	.loc 1 38 2 view .LVU131
	.loc 1 39 2 view .LVU132
	.loc 1 40 2 view .LVU133
	.loc 1 42 2 view .LVU134
.LBB379:
.LBI379:
	.loc 2 182 25 view .LVU135
	.loc 2 184 2 view .LVU136
.LBB380:
.LBI380:
	.loc 2 107 25 view .LVU137
.LBB381:
	.loc 2 110 2 view .LVU138
	.loc 2 111 2 view .LVU139
	.loc 2 113 2 view .LVU140
	.loc 2 116 3 view .LVU141
.LBE381:
.LBE380:
.LBE379:
	.loc 1 35 1 is_stmt 0 view .LVU142
	push	{r4, lr}
	.cfi_def_cfa_offset 8
	.cfi_offset 4, -8
	.cfi_offset 14, -4
.LBB384:
.LBB383:
.LBB382:
	.loc 2 116 28 view .LVU143
	add	r4, r0, r1, lsl #3
	ldrh	r3, [r4, #6]
.LVL21:
	.loc 2 116 28 view .LVU144
.LBE382:
.LBE383:
.LBE384:
	.loc 1 42 5 view .LVU145
	cmp	r1, r3
	add	r1, r2, #4
.LVL22:
	.loc 1 42 5 view .LVU146
	bne	.L6
.LVL23:
.LBB385:
.LBI385:
	.loc 1 34 13 is_stmt 1 view .LVU147
.LBB386:
	.loc 1 44 3 view .LVU148
	.loc 1 44 29 is_stmt 0 view .LVU149
	movs	r3, #1
	lsl	r2, r3, r2
.LVL24:
	.loc 1 44 20 view .LVU150
	ldr	r3, [r0, #12]
	bic	r3, r3, r2
	str	r3, [r0, #12]
	.loc 1 45 3 is_stmt 1 view .LVU151
	.loc 1 45 11 is_stmt 0 view .LVU152
	movs	r3, #0
	str	r3, [r0, r1, lsl #2]
.LVL25:
.L5:
	.loc 1 45 11 view .LVU153
.LBE386:
.LBE385:
	.loc 1 58 1 view .LVU154
	pop	{r4, pc}
.LVL26:
.L6:
.LBB387:
	.loc 1 47 3 is_stmt 1 view .LVU155
.LBB388:
.LBI388:
	.loc 2 177 25 view .LVU156
	.loc 2 179 2 view .LVU157
.LBB389:
.LBI389:
	.loc 2 107 25 view .LVU158
.LBB390:
	.loc 2 110 2 view .LVU159
	.loc 2 111 2 view .LVU160
	.loc 2 113 2 view .LVU161
	.loc 2 116 3 view .LVU162
	.loc 2 116 28 is_stmt 0 view .LVU163
	ldrh	r2, [r4, #4]
.LVL27:
	.loc 2 116 28 view .LVU164
.LBE390:
.LBE389:
.LBE388:
	.loc 1 50 3 is_stmt 1 view .LVU165
	.loc 1 50 11 is_stmt 0 view .LVU166
	str	r3, [r0, r1, lsl #2]
	.loc 1 51 3 is_stmt 1 view .LVU167
.LVL28:
.LBB391:
.LBI391:
	.loc 2 193 20 view .LVU168
	.loc 2 196 2 view .LVU169
.LBB392:
.LBI392:
	.loc 2 120 20 view .LVU170
.LBB393:
	.loc 2 123 2 view .LVU171
	.loc 2 125 2 view .LVU172
	.loc 2 126 2 view .LVU173
	.loc 2 128 2 view .LVU174
	.loc 2 132 3 view .LVU175
	.loc 2 133 3 view .LVU176
	.loc 2 133 25 is_stmt 0 view .LVU177
	add	r1, r0, r2, lsl #3
.LVL29:
	.loc 2 133 25 view .LVU178
.LBE393:
.LBE392:
.LBE391:
.LBB396:
.LBB397:
.LBB398:
.LBB399:
	add	r0, r0, r3, lsl #3
.LVL30:
	.loc 2 133 25 view .LVU179
.LBE399:
.LBE398:
.LBE397:
.LBE396:
.LBB403:
.LBB395:
.LBB394:
	strh	r3, [r1, #6]	@ movhi
.LVL31:
	.loc 2 133 25 view .LVU180
.LBE394:
.LBE395:
.LBE403:
	.loc 1 52 3 is_stmt 1 view .LVU181
.LBB404:
.LBI396:
	.loc 2 187 20 view .LVU182
.LBB402:
	.loc 2 190 2 view .LVU183
.LBB401:
.LBI398:
	.loc 2 120 20 view .LVU184
.LBB400:
	.loc 2 123 2 view .LVU185
	.loc 2 125 2 view .LVU186
	.loc 2 126 2 view .LVU187
	.loc 2 128 2 view .LVU188
	.loc 2 132 3 view .LVU189
	.loc 2 133 3 view .LVU190
	.loc 2 133 25 is_stmt 0 view .LVU191
	strh	r2, [r0, #4]	@ movhi
.LVL32:
	.loc 2 133 25 view .LVU192
.LBE400:
.LBE401:
.LBE402:
.LBE404:
.LBE387:
	.loc 1 58 1 view .LVU193
	b	.L5
	.cfi_endproc
.LFE474:
	.size	free_list_remove_bidx, .-free_list_remove_bidx
	.section	.text.free_list_remove,"ax",%progbits
	.align	1
	.syntax unified
	.thumb
	.thumb_func
	.type	free_list_remove, %function
free_list_remove:
.LVL33:
.LFB475:
	.loc 1 61 1 is_stmt 1 view -0
	.cfi_startproc
	@ args = 0, pretend = 0, frame = 0
	@ frame_needed = 0, uses_anonymous_args = 0
	.loc 1 62 2 view .LVU195
	.loc 1 61 1 is_stmt 0 view .LVU196
	push	{r3, lr}
	.cfi_def_cfa_offset 8
	.cfi_offset 3, -8
	.cfi_offset 14, -4
	.loc 1 61 1 view .LVU197
	mov	r3, r0
.LBB405:
	.loc 1 63 3 is_stmt 1 view .LVU198
	.loc 1 63 14 is_stmt 0 view .LVU199
	bl	chunk_size
.LVL34:
.LBB406:
.LBI406:
	.loc 2 250 19 is_stmt 1 view .LVU200
.LBB407:
	.loc 2 252 2 view .LVU201
	.loc 2 253 2 view .LVU202
	.loc 2 253 14 is_stmt 0 view .LVU203
	clz	r2, r0
.LVL35:
	.loc 2 253 14 view .LVU204
.LBE407:
.LBE406:
	.loc 1 64 3 is_stmt 1 view .LVU205
	rsb	r2, r2, #31
.LVL36:
	.loc 1 64 3 is_stmt 0 view .LVU206
	mov	r0, r3
.LVL37:
	.loc 1 64 3 view .LVU207
.LBE405:
	.loc 1 66 1 view .LVU208
	pop	{r3, lr}
	.cfi_restore 14
	.cfi_restore 3
	.cfi_def_cfa_offset 0
.LVL38:
.LBB408:
	.loc 1 64 3 view .LVU209
	b	free_list_remove_bidx
.LVL39:
	.loc 1 64 3 view .LVU210
.LBE408:
	.cfi_endproc
.LFE475:
	.size	free_list_remove, .-free_list_remove
	.section	.text.alloc_chunk,"ax",%progbits
	.align	1
	.syntax unified
	.thumb
	.thumb_func
	.type	alloc_chunk, %function
alloc_chunk:
.LVL40:
.LFB484:
	.loc 1 212 1 is_stmt 1 view -0
	.cfi_startproc
	@ args = 0, pretend = 0, frame = 0
	@ frame_needed = 0, uses_anonymous_args = 0
	.loc 1 213 2 view .LVU212
.LBB409:
.LBI409:
	.loc 2 250 19 view .LVU213
.LBB410:
	.loc 2 252 2 view .LVU214
	.loc 2 253 2 view .LVU215
.LBE410:
.LBE409:
	.loc 1 212 1 is_stmt 0 view .LVU216
	push	{r3, r4, r5, r6, r7, r8, r9, lr}
	.cfi_def_cfa_offset 32
	.cfi_offset 3, -32
	.cfi_offset 4, -28
	.cfi_offset 5, -24
	.cfi_offset 6, -20
	.cfi_offset 7, -16
	.cfi_offset 8, -12
	.cfi_offset 9, -8
	.cfi_offset 14, -4
.LBB412:
.LBB411:
	.loc 2 253 14 view .LVU217
	clz	r5, r1
	.loc 2 253 12 view .LVU218
	rsb	r9, r5, #31
.LVL41:
	.loc 2 253 12 view .LVU219
.LBE411:
.LBE412:
	.loc 1 214 2 is_stmt 1 view .LVU220
	.loc 1 216 2 view .LVU221
	.loc 1 232 2 view .LVU222
	add	r8, r0, r9, lsl #2
	.loc 1 212 1 is_stmt 0 view .LVU223
	mov	r3, r0
	.loc 1 232 7 view .LVU224
	ldr	r2, [r8, #16]
	.loc 1 212 1 view .LVU225
	mov	r6, r1
	.loc 1 232 5 view .LVU226
	cbz	r2, .L10
	movs	r7, #3
.LVL42:
.L13:
.LBB413:
	.loc 1 235 3 is_stmt 1 view .LVU227
.LBB414:
	.loc 1 236 4 view .LVU228
	.loc 1 236 14 is_stmt 0 view .LVU229
	ldr	r4, [r8, #16]
.LVL43:
	.loc 1 237 4 is_stmt 1 view .LVU230
	.loc 1 237 8 is_stmt 0 view .LVU231
	mov	r0, r3
	mov	r1, r4
	bl	chunk_size
.LVL44:
	.loc 1 237 7 view .LVU232
	cmp	r0, r6
	bcc	.L11
	.loc 1 238 5 is_stmt 1 view .LVU233
	mov	r2, r9
.LVL45:
.L24:
	.loc 1 238 5 is_stmt 0 view .LVU234
.LBE414:
.LBE413:
.LBB423:
	.loc 1 255 3 view .LVU235
	mov	r0, r3
	bl	free_list_remove_bidx
.LVL46:
	.loc 1 256 3 is_stmt 1 view .LVU236
	.loc 1 257 3 view .LVU237
.L9:
	.loc 1 257 3 is_stmt 0 view .LVU238
.LBE423:
	.loc 1 261 1 view .LVU239
	mov	r0, r4
	pop	{r3, r4, r5, r6, r7, r8, r9, pc}
.LVL47:
.L11:
.LBB424:
.LBB421:
	.loc 1 241 4 is_stmt 1 view .LVU240
.LBB415:
.LBI415:
	.loc 2 182 25 view .LVU241
	.loc 2 184 2 view .LVU242
.LBB416:
.LBI416:
	.loc 2 107 25 view .LVU243
.LBB417:
	.loc 2 110 2 view .LVU244
	.loc 2 111 2 view .LVU245
	.loc 2 113 2 view .LVU246
	.loc 2 116 3 view .LVU247
	.loc 2 116 28 is_stmt 0 view .LVU248
	add	r4, r3, r4, lsl #3
.LVL48:
	.loc 2 116 28 view .LVU249
.LBE417:
.LBE416:
.LBE415:
.LBE421:
	.loc 1 243 16 view .LVU250
	subs	r7, r7, #1
.LVL49:
.LBB422:
.LBB420:
.LBB419:
.LBB418:
	.loc 2 116 28 view .LVU251
	ldrh	r0, [r4, #6]
.LVL50:
	.loc 2 116 28 view .LVU252
.LBE418:
.LBE419:
.LBE420:
	.loc 1 241 12 view .LVU253
	str	r0, [r8, #16]
	.loc 1 242 4 is_stmt 1 view .LVU254
.LBE422:
	.loc 1 243 16 view .LVU255
.LVL51:
	.loc 1 243 16 is_stmt 0 view .LVU256
	beq	.L10
.LVL52:
	.loc 1 243 16 discriminator 1 view .LVU257
	cmp	r2, r0
	bne	.L13
.LVL53:
.L10:
	.loc 1 243 16 discriminator 1 view .LVU258
.LBE424:
	.loc 1 249 2 is_stmt 1 view .LVU259
	.loc 1 249 52 is_stmt 0 view .LVU260
	rsb	r2, r5, #32
	.loc 1 249 45 view .LVU261
	mov	r4, #-1
	.loc 1 249 38 view .LVU262
	lsls	r4, r4, r2
	.loc 1 249 11 view .LVU263
	ldr	r2, [r3, #12]
.LVL54:
	.loc 1 251 2 is_stmt 1 view .LVU264
	.loc 1 251 5 is_stmt 0 view .LVU265
	ands	r4, r4, r2
.LVL55:
	.loc 1 251 5 view .LVU266
	beq	.L9
.LBB425:
	.loc 1 252 3 is_stmt 1 view .LVU267
	.loc 1 252 19 is_stmt 0 view .LVU268
	rbit	r2, r4
	clz	r2, r2
.LVL56:
	.loc 1 253 3 is_stmt 1 view .LVU269
	.loc 1 253 13 is_stmt 0 view .LVU270
	adds	r1, r2, #4
	ldr	r4, [r3, r1, lsl #2]
.LVL57:
	.loc 1 255 3 is_stmt 1 view .LVU271
	mov	r1, r4
	b	.L24
.LBE425:
	.cfi_endproc
.LFE484:
	.size	alloc_chunk, .-alloc_chunk
	.section	.text.merge_chunks,"ax",%progbits
	.align	1
	.syntax unified
	.thumb
	.thumb_func
	.type	merge_chunks, %function
merge_chunks:
.LVL58:
.LFB479:
	.loc 1 126 1 view -0
	.cfi_startproc
	@ args = 0, pretend = 0, frame = 0
	@ frame_needed = 0, uses_anonymous_args = 0
	.loc 1 127 2 view .LVU273
	.loc 1 126 1 is_stmt 0 view .LVU274
	push	{r3, r4, r5, lr}
	.cfi_def_cfa_offset 16
	.cfi_offset 3, -16
	.cfi_offset 4, -12
	.cfi_offset 5, -8
	.cfi_offset 14, -4
	.loc 1 126 1 view .LVU275
	mov	r3, r0
	.loc 1 127 20 view .LVU276
	bl	chunk_size
.LVL59:
	.loc 1 126 1 view .LVU277
	mov	r5, r1
	.loc 1 127 20 view .LVU278
	mov	r4, r0
	.loc 1 127 40 view .LVU279
	mov	r1, r2
.LVL60:
	.loc 1 127 40 view .LVU280
	mov	r0, r3
	bl	chunk_size
.LVL61:
.LBB435:
.LBB436:
.LBB437:
.LBB438:
	.loc 2 133 25 view .LVU281
	add	r5, r3, r5, lsl #3
.LVL62:
	.loc 2 133 25 view .LVU282
.LBE438:
.LBE437:
.LBE436:
.LBE435:
	.loc 1 127 12 view .LVU283
	add	r4, r4, r0
.LVL63:
	.loc 1 129 2 is_stmt 1 view .LVU284
.LBB444:
.LBI435:
	.loc 2 172 20 view .LVU285
.LBB443:
	.loc 2 174 2 view .LVU286
.LBB441:
.LBI437:
	.loc 2 120 20 view .LVU287
.LBB439:
	.loc 2 123 2 view .LVU288
	.loc 2 125 2 view .LVU289
	.loc 2 126 2 view .LVU290
	.loc 2 128 2 view .LVU291
	.loc 2 132 3 view .LVU292
	.loc 2 133 3 view .LVU293
.LBE439:
.LBE441:
	.loc 2 174 2 is_stmt 0 view .LVU294
	lsls	r0, r4, #1
.LVL64:
.LBB442:
.LBB440:
	.loc 2 133 25 view .LVU295
	strh	r0, [r5, #2]	@ movhi
.LVL65:
	.loc 2 133 25 view .LVU296
.LBE440:
.LBE442:
.LBE443:
.LBE444:
	.loc 1 130 2 is_stmt 1 view .LVU297
.LBB445:
.LBI445:
	.loc 2 204 25 view .LVU298
.LBB446:
	.loc 2 206 2 view .LVU299
	.loc 2 206 13 is_stmt 0 view .LVU300
	mov	r0, r3
	bl	chunk_size
.LVL66:
	.loc 2 206 13 view .LVU301
.LBE446:
.LBE445:
.LBB447:
.LBI447:
	.loc 2 209 20 is_stmt 1 view .LVU302
	.loc 2 212 2 view .LVU303
.LBB448:
.LBI448:
	.loc 2 120 20 view .LVU304
.LBB449:
	.loc 2 123 2 view .LVU305
	.loc 2 125 2 view .LVU306
	.loc 2 126 2 view .LVU307
	.loc 2 128 2 view .LVU308
	.loc 2 132 3 view .LVU309
	.loc 2 133 3 view .LVU310
	.loc 2 126 19 is_stmt 0 view .LVU311
	add	r1, r1, r0
.LVL67:
	.loc 2 133 25 view .LVU312
	strh	r4, [r3, r1, lsl #3]	@ movhi
.LVL68:
	.loc 2 133 25 view .LVU313
.LBE449:
.LBE448:
.LBE447:
	.loc 1 131 1 view .LVU314
	pop	{r3, r4, r5, pc}
	.loc 1 131 1 view .LVU315
	.cfi_endproc
.LFE479:
	.size	merge_chunks, .-merge_chunks
	.section	.text.split_chunks,"ax",%progbits
	.align	1
	.syntax unified
	.thumb
	.thumb_func
	.type	split_chunks, %function
split_chunks:
.LVL69:
.LFB478:
	.loc 1 110 1 is_stmt 1 view -0
	.cfi_startproc
	@ args = 0, pretend = 0, frame = 0
	@ frame_needed = 0, uses_anonymous_args = 0
	.loc 1 111 2 view .LVU317
	.loc 1 112 2 view .LVU318
	.loc 1 114 2 view .LVU319
	.loc 1 110 1 is_stmt 0 view .LVU320
	push	{r3, r4, r5, lr}
	.cfi_def_cfa_offset 16
	.cfi_offset 3, -16
	.cfi_offset 4, -12
	.cfi_offset 5, -8
	.cfi_offset 14, -4
	.loc 1 110 1 view .LVU321
	mov	r3, r0
	.loc 1 114 18 view .LVU322
	bl	chunk_size
.LVL70:
	.loc 1 115 2 is_stmt 1 view .LVU323
	.loc 1 110 1 is_stmt 0 view .LVU324
	mov	r4, r1
	.loc 1 116 12 view .LVU325
	subs	r5, r4, r2
	.loc 1 115 12 view .LVU326
	subs	r1, r2, r1
.LVL71:
	.loc 1 116 2 is_stmt 1 view .LVU327
.LBB466:
.LBB467:
.LBB468:
.LBB469:
	.loc 2 133 25 is_stmt 0 view .LVU328
	add	r4, r3, r4, lsl #3
.LVL72:
	.loc 2 133 25 view .LVU329
.LBE469:
.LBE468:
.LBE467:
.LBE466:
	.loc 1 116 12 view .LVU330
	add	r5, r5, r0
.LVL73:
	.loc 1 118 2 is_stmt 1 view .LVU331
.LBB475:
.LBI466:
	.loc 2 172 20 view .LVU332
.LBB474:
	.loc 2 174 2 view .LVU333
.LBB472:
.LBI468:
	.loc 2 120 20 view .LVU334
.LBB470:
	.loc 2 123 2 view .LVU335
	.loc 2 125 2 view .LVU336
	.loc 2 126 2 view .LVU337
	.loc 2 128 2 view .LVU338
	.loc 2 132 3 view .LVU339
	.loc 2 133 3 view .LVU340
.LBE470:
.LBE472:
	.loc 2 174 2 is_stmt 0 view .LVU341
	lsls	r0, r1, #1
.LVL74:
.LBB473:
.LBB471:
	.loc 2 133 25 view .LVU342
	strh	r0, [r4, #2]	@ movhi
.LVL75:
	.loc 2 133 25 view .LVU343
.LBE471:
.LBE473:
.LBE474:
.LBE475:
	.loc 1 119 2 is_stmt 1 view .LVU344
.LBB476:
.LBI476:
	.loc 2 172 20 view .LVU345
.LBB477:
	.loc 2 174 2 view .LVU346
.LBB478:
.LBI478:
	.loc 2 120 20 view .LVU347
.LBB479:
	.loc 2 123 2 view .LVU348
	.loc 2 125 2 view .LVU349
	.loc 2 126 2 view .LVU350
	.loc 2 128 2 view .LVU351
	.loc 2 132 3 view .LVU352
	.loc 2 133 3 view .LVU353
	.loc 2 133 25 is_stmt 0 view .LVU354
	add	r0, r3, r2, lsl #3
.LVL76:
	.loc 2 133 25 view .LVU355
.LBE479:
.LBE478:
	.loc 2 174 2 view .LVU356
	lsls	r4, r5, #1
.LVL77:
.LBB481:
.LBB480:
	.loc 2 133 25 view .LVU357
	strh	r4, [r0, #2]	@ movhi
.LVL78:
	.loc 2 133 25 view .LVU358
.LBE480:
.LBE481:
.LBE477:
.LBE476:
	.loc 1 120 2 is_stmt 1 view .LVU359
.LBB482:
.LBI482:
	.loc 2 209 20 view .LVU360
	.loc 2 212 2 view .LVU361
.LBB483:
.LBI483:
	.loc 2 120 20 view .LVU362
.LBB484:
	.loc 2 123 2 view .LVU363
	.loc 2 125 2 view .LVU364
	.loc 2 126 2 view .LVU365
	.loc 2 128 2 view .LVU366
	.loc 2 132 3 view .LVU367
	.loc 2 133 3 view .LVU368
	.loc 2 133 25 is_stmt 0 view .LVU369
	strh	r1, [r3, r2, lsl #3]	@ movhi
.LVL79:
	.loc 2 133 25 view .LVU370
.LBE484:
.LBE483:
.LBE482:
	.loc 1 121 2 is_stmt 1 view .LVU371
.LBB485:
.LBI485:
	.loc 2 204 25 view .LVU372
.LBB486:
	.loc 2 206 2 view .LVU373
	.loc 2 206 13 is_stmt 0 view .LVU374
	mov	r0, r3
.LVL80:
	.loc 2 206 13 view .LVU375
	mov	r1, r2
.LVL81:
	.loc 2 206 13 view .LVU376
	bl	chunk_size
.LVL82:
	.loc 2 206 13 view .LVU377
.LBE486:
.LBE485:
.LBB487:
.LBI487:
	.loc 2 209 20 is_stmt 1 view .LVU378
	.loc 2 212 2 view .LVU379
.LBB488:
.LBI488:
	.loc 2 120 20 view .LVU380
.LBB489:
	.loc 2 123 2 view .LVU381
	.loc 2 125 2 view .LVU382
	.loc 2 126 2 view .LVU383
	.loc 2 128 2 view .LVU384
	.loc 2 132 3 view .LVU385
	.loc 2 133 3 view .LVU386
	.loc 2 126 19 is_stmt 0 view .LVU387
	add	r1, r1, r0
.LVL83:
	.loc 2 133 25 view .LVU388
	strh	r5, [r3, r1, lsl #3]	@ movhi
.LVL84:
	.loc 2 133 25 view .LVU389
.LBE489:
.LBE488:
.LBE487:
	.loc 1 122 1 view .LVU390
	pop	{r3, r4, r5, pc}
	.loc 1 122 1 view .LVU391
	.cfi_endproc
.LFE478:
	.size	split_chunks, .-split_chunks
	.section	.text.free_chunk,"ax",%progbits
	.align	1
	.syntax unified
	.thumb
	.thumb_func
	.type	free_chunk, %function
free_chunk:
.LVL85:
.LFB480:
	.loc 1 134 1 is_stmt 1 view -0
	.cfi_startproc
	@ args = 0, pretend = 0, frame = 0
	@ frame_needed = 0, uses_anonymous_args = 0
	.loc 1 136 2 view .LVU393
	.loc 1 134 1 is_stmt 0 view .LVU394
	push	{r3, r4, r5, lr}
	.cfi_def_cfa_offset 16
	.cfi_offset 3, -16
	.cfi_offset 4, -12
	.cfi_offset 5, -8
	.cfi_offset 14, -4
	.loc 1 134 1 view .LVU395
	mov	r5, r0
.LVL86:
.LBB514:
.LBI514:
	.loc 2 204 25 is_stmt 1 view .LVU396
.LBB515:
	.loc 2 206 2 view .LVU397
	.loc 2 206 13 is_stmt 0 view .LVU398
	bl	chunk_size
.LVL87:
	.loc 2 206 13 view .LVU399
.LBE515:
.LBE514:
	.loc 1 134 1 view .LVU400
	mov	r4, r1
.LBB517:
.LBB516:
	.loc 2 206 11 view .LVU401
	add	r1, r1, r0
.LVL88:
	.loc 2 206 11 view .LVU402
.LBE516:
.LBE517:
.LBB518:
.LBI518:
	.loc 2 137 19 is_stmt 1 view .LVU403
.LBB519:
	.loc 2 139 2 view .LVU404
.LBB520:
.LBI520:
	.loc 2 107 25 view .LVU405
.LBB521:
	.loc 2 110 2 view .LVU406
	.loc 2 111 2 view .LVU407
	.loc 2 113 2 view .LVU408
	.loc 2 116 3 view .LVU409
	.loc 2 116 28 is_stmt 0 view .LVU410
	add	r3, r5, r1, lsl #3
.LVL89:
	.loc 2 116 28 view .LVU411
.LBE521:
.LBE520:
	.loc 2 139 42 view .LVU412
	ldrh	r3, [r3, #2]
.LVL90:
	.loc 2 139 42 view .LVU413
.LBE519:
.LBE518:
	.loc 1 136 5 view .LVU414
	lsls	r2, r3, #31
	bmi	.L28
	.loc 1 137 3 is_stmt 1 view .LVU415
	mov	r0, r5
	bl	free_list_remove
.LVL91:
	.loc 1 138 3 view .LVU416
.LBB522:
.LBI522:
	.loc 2 204 25 view .LVU417
.LBB523:
	.loc 2 206 2 view .LVU418
	.loc 2 206 13 is_stmt 0 view .LVU419
	mov	r1, r4
	mov	r0, r5
	bl	chunk_size
.LVL92:
	.loc 2 206 13 view .LVU420
.LBE523:
.LBE522:
	.loc 1 138 3 view .LVU421
	adds	r2, r4, r0
	mov	r0, r5
	bl	merge_chunks
.LVL93:
.L28:
	.loc 1 142 2 is_stmt 1 view .LVU422
.LBB524:
.LBI524:
	.loc 2 199 25 view .LVU423
.LBB525:
	.loc 2 201 2 view .LVU424
.LBB526:
.LBI526:
	.loc 2 107 25 view .LVU425
.LBB527:
	.loc 2 110 2 view .LVU426
	.loc 2 111 2 view .LVU427
	.loc 2 113 2 view .LVU428
	.loc 2 116 3 view .LVU429
	.loc 2 116 28 is_stmt 0 view .LVU430
	ldrh	r1, [r5, r4, lsl #3]
.LBE527:
.LBE526:
	.loc 2 201 11 view .LVU431
	subs	r1, r4, r1
.LVL94:
	.loc 2 201 11 view .LVU432
.LBE525:
.LBE524:
.LBB528:
.LBI528:
	.loc 2 137 19 is_stmt 1 view .LVU433
.LBB529:
	.loc 2 139 2 view .LVU434
.LBB530:
.LBI530:
	.loc 2 107 25 view .LVU435
.LBB531:
	.loc 2 110 2 view .LVU436
	.loc 2 111 2 view .LVU437
	.loc 2 113 2 view .LVU438
	.loc 2 116 3 view .LVU439
	.loc 2 116 28 is_stmt 0 view .LVU440
	add	r3, r5, r1, lsl #3
.LVL95:
	.loc 2 116 28 view .LVU441
.LBE531:
.LBE530:
	.loc 2 139 42 view .LVU442
	ldrh	r3, [r3, #2]
.LVL96:
	.loc 2 139 42 view .LVU443
.LBE529:
.LBE528:
	.loc 1 142 5 view .LVU444
	lsls	r3, r3, #31
	bmi	.L29
	.loc 1 143 3 is_stmt 1 view .LVU445
.LVL97:
	.loc 1 143 3 is_stmt 0 view .LVU446
	mov	r0, r5
	bl	free_list_remove
.LVL98:
	.loc 1 144 3 is_stmt 1 view .LVU447
.LBB532:
.LBI532:
	.loc 2 199 25 view .LVU448
.LBB533:
	.loc 2 201 2 view .LVU449
.LBB534:
.LBI534:
	.loc 2 107 25 view .LVU450
.LBB535:
	.loc 2 110 2 view .LVU451
	.loc 2 111 2 view .LVU452
	.loc 2 113 2 view .LVU453
	.loc 2 116 3 view .LVU454
	.loc 2 116 28 is_stmt 0 view .LVU455
	ldrh	r1, [r5, r4, lsl #3]
.LBE535:
.LBE534:
.LBE533:
.LBE532:
	.loc 1 144 3 view .LVU456
	mov	r2, r4
	subs	r1, r4, r1
	mov	r0, r5
	bl	merge_chunks
.LVL99:
	.loc 1 145 3 is_stmt 1 view .LVU457
.LBB536:
.LBI536:
	.loc 2 199 25 view .LVU458
.LBB537:
	.loc 2 201 2 view .LVU459
.LBB538:
.LBI538:
	.loc 2 107 25 view .LVU460
.LBB539:
	.loc 2 110 2 view .LVU461
	.loc 2 111 2 view .LVU462
	.loc 2 113 2 view .LVU463
	.loc 2 116 3 view .LVU464
	.loc 2 116 28 is_stmt 0 view .LVU465
	ldrh	r3, [r5, r4, lsl #3]
.LBE539:
.LBE538:
	.loc 2 201 11 view .LVU466
	subs	r4, r4, r3
.LVL100:
.L29:
	.loc 2 201 11 view .LVU467
.LBE537:
.LBE536:
	.loc 1 148 2 is_stmt 1 view .LVU468
	mov	r1, r4
	mov	r0, r5
	.loc 1 149 1 is_stmt 0 view .LVU469
	pop	{r3, r4, r5, lr}
	.cfi_restore 14
	.cfi_restore 5
	.cfi_restore 4
	.cfi_restore 3
	.cfi_def_cfa_offset 0
.LVL101:
	.loc 1 148 2 view .LVU470
	b	free_list_add
.LVL102:
	.loc 1 148 2 view .LVU471
	.cfi_endproc
.LFE480:
	.size	free_chunk, .-free_chunk
	.section	.text.sys_heap_free,"ax",%progbits
	.align	1
	.global	sys_heap_free
	.syntax unified
	.thumb
	.thumb_func
	.type	sys_heap_free, %function
sys_heap_free:
.LVL103:
.LFB482:
	.loc 1 164 1 is_stmt 1 view -0
	.cfi_startproc
	@ args = 0, pretend = 0, frame = 0
	@ frame_needed = 0, uses_anonymous_args = 0
	@ link register save eliminated.
	.loc 1 165 2 view .LVU473
	.loc 1 165 5 is_stmt 0 view .LVU474
	cbz	r1, .L30
	ldr	r0, [r0]
.LVL104:
.LBB548:
.LBI548:
	.loc 1 163 6 is_stmt 1 view .LVU475
.LBB549:
	.loc 1 168 2 view .LVU476
	.loc 1 169 2 view .LVU477
.LBB550:
.LBI550:
	.loc 1 157 18 view .LVU478
.LBB551:
	.loc 1 159 2 view .LVU479
	.loc 1 160 2 view .LVU480
	.loc 1 160 14 is_stmt 0 view .LVU481
	subs	r1, r1, #4
.LVL105:
	.loc 1 160 38 view .LVU482
	subs	r1, r1, r0
.LVL106:
	.loc 1 160 38 view .LVU483
.LBE551:
.LBE550:
	.loc 1 175 4 is_stmt 1 view .LVU484
	.loc 1 176 65 view .LVU485
	.loc 1 183 4 view .LVU486
	.loc 1 185 8 view .LVU487
	.loc 1 187 2 view .LVU488
.LBB552:
.LBI552:
	.loc 2 147 20 view .LVU489
.LBB553:
	.loc 2 149 2 view .LVU490
	.loc 2 150 2 view .LVU491
	.loc 2 150 19 is_stmt 0 view .LVU492
	bic	r3, r1, #7
	.loc 2 150 8 view .LVU493
	add	r3, r3, r0
.LVL107:
	.loc 2 152 2 is_stmt 1 view .LVU494
	.loc 2 159 3 view .LVU495
	.loc 2 162 4 view .LVU496
.LBE553:
.LBE552:
	.loc 1 197 2 is_stmt 0 view .LVU497
	lsrs	r1, r1, #3
.LVL108:
.LBB555:
.LBB554:
	.loc 2 162 38 view .LVU498
	ldrh	r2, [r3, #2]
	bic	r2, r2, #1
	strh	r2, [r3, #2]	@ movhi
.LVL109:
	.loc 2 162 38 view .LVU499
.LBE554:
.LBE555:
	.loc 1 197 2 is_stmt 1 view .LVU500
	b	free_chunk
.LVL110:
.L30:
	.loc 1 197 2 is_stmt 0 view .LVU501
.LBE549:
.LBE548:
	.loc 1 198 1 view .LVU502
	bx	lr
	.cfi_endproc
.LFE482:
	.size	sys_heap_free, .-sys_heap_free
	.section	.text.sys_heap_usable_size,"ax",%progbits
	.align	1
	.global	sys_heap_usable_size
	.syntax unified
	.thumb
	.thumb_func
	.type	sys_heap_usable_size, %function
sys_heap_usable_size:
.LVL111:
.LFB483:
	.loc 1 201 1 is_stmt 1 view -0
	.cfi_startproc
	@ args = 0, pretend = 0, frame = 0
	@ frame_needed = 0, uses_anonymous_args = 0
	.loc 1 202 2 view .LVU504
	.loc 1 201 1 is_stmt 0 view .LVU505
	push	{r4, lr}
	.cfi_def_cfa_offset 8
	.cfi_offset 4, -8
	.cfi_offset 14, -4
	.loc 1 202 17 view .LVU506
	ldr	r3, [r0]
.LVL112:
	.loc 1 203 2 is_stmt 1 view .LVU507
.LBB556:
.LBI556:
	.loc 1 157 18 view .LVU508
.LBB557:
	.loc 1 159 2 view .LVU509
	.loc 1 160 2 view .LVU510
	.loc 1 160 14 is_stmt 0 view .LVU511
	subs	r2, r1, #4
	.loc 1 160 38 view .LVU512
	subs	r2, r2, r3
.LBE557:
.LBE556:
	.loc 1 201 1 view .LVU513
	mov	r4, r1
	.loc 1 206 20 view .LVU514
	mov	r0, r3
.LVL113:
.LBB559:
.LBB558:
	.loc 1 160 46 view .LVU515
	lsrs	r1, r2, #3
.LVL114:
	.loc 1 160 46 view .LVU516
.LBE558:
.LBE559:
	.loc 1 204 2 is_stmt 1 view .LVU517
	.loc 1 205 2 view .LVU518
	.loc 1 206 2 view .LVU519
	.loc 1 206 20 is_stmt 0 view .LVU520
	bl	chunk_size
.LVL115:
	.loc 1 208 2 is_stmt 1 view .LVU521
	.loc 1 205 30 is_stmt 0 view .LVU522
	add	r3, r3, r1, lsl #3
.LVL116:
	.loc 1 208 18 view .LVU523
	subs	r3, r3, r4
.LVL117:
	.loc 1 209 1 view .LVU524
	add	r0, r3, r0, lsl #3
.LVL118:
	.loc 1 209 1 view .LVU525
	pop	{r4, pc}
	.loc 1 209 1 view .LVU526
	.cfi_endproc
.LFE483:
	.size	sys_heap_usable_size, .-sys_heap_usable_size
	.section	.text.sys_heap_alloc,"ax",%progbits
	.align	1
	.global	sys_heap_alloc
	.syntax unified
	.thumb
	.thumb_func
	.type	sys_heap_alloc, %function
sys_heap_alloc:
.LVL119:
.LFB485:
	.loc 1 264 1 is_stmt 1 view -0
	.cfi_startproc
	@ args = 0, pretend = 0, frame = 0
	@ frame_needed = 0, uses_anonymous_args = 0
	.loc 1 265 2 view .LVU528
	.loc 1 264 1 is_stmt 0 view .LVU529
	push	{r4, r5, r6, lr}
	.cfi_def_cfa_offset 16
	.cfi_offset 4, -16
	.cfi_offset 5, -12
	.cfi_offset 6, -8
	.cfi_offset 14, -4
	.loc 1 265 17 view .LVU530
	ldr	r5, [r0]
.LVL120:
	.loc 1 266 2 is_stmt 1 view .LVU531
	.loc 1 268 2 view .LVU532
	.loc 1 268 5 is_stmt 0 view .LVU533
	cbnz	r1, .L34
.LVL121:
.L36:
	.loc 1 269 9 view .LVU534
	movs	r0, #0
.L33:
	.loc 1 299 1 view .LVU535
	pop	{r4, r5, r6, pc}
.LVL122:
.L34:
.LBB569:
.LBI569:
	.loc 2 256 19 is_stmt 1 view .LVU536
.LBB570:
	.loc 2 262 2 view .LVU537
	.loc 2 262 2 is_stmt 0 view .LVU538
.LBE570:
.LBE569:
	.loc 1 268 18 view .LVU539
	ldr	r3, [r5, #8]
	cmp	r3, r1, lsr #3
	bls	.L36
	.loc 1 272 2 is_stmt 1 view .LVU540
.LVL123:
.LBB571:
.LBI571:
	.loc 2 235 25 view .LVU541
	.loc 2 237 2 view .LVU542
.LBB572:
.LBI572:
	.loc 2 230 25 view .LVU543
.LBB573:
	.loc 2 232 2 view .LVU544
	.loc 2 232 21 is_stmt 0 view .LVU545
	adds	r1, r1, #11
.LVL124:
	.loc 2 232 27 view .LVU546
	lsrs	r4, r1, #3
.LVL125:
	.loc 2 232 27 view .LVU547
.LBE573:
.LBE572:
.LBE571:
	.loc 1 273 2 is_stmt 1 view .LVU548
	.loc 1 273 16 is_stmt 0 view .LVU549
	mov	r1, r4
	mov	r0, r5
.LVL126:
	.loc 1 273 16 view .LVU550
	bl	alloc_chunk
.LVL127:
	.loc 1 274 2 is_stmt 1 view .LVU551
	.loc 1 274 5 is_stmt 0 view .LVU552
	mov	r6, r0
	cmp	r0, #0
	beq	.L36
	.loc 1 279 2 is_stmt 1 view .LVU553
	.loc 1 279 6 is_stmt 0 view .LVU554
	mov	r1, r0
	mov	r0, r5
.LVL128:
	.loc 1 279 6 view .LVU555
	bl	chunk_size
.LVL129:
	.loc 1 279 5 view .LVU556
	cmp	r0, r4
	bls	.L37
	.loc 1 280 3 is_stmt 1 view .LVU557
	adds	r2, r6, r4
	mov	r0, r5
	bl	split_chunks
.LVL130:
	.loc 1 281 3 view .LVU558
	mov	r1, r2
	mov	r0, r5
	bl	free_list_add
.LVL131:
.L37:
	.loc 1 284 2 view .LVU559
.LBB574:
.LBI574:
	.loc 2 147 20 view .LVU560
.LBB575:
	.loc 2 149 2 view .LVU561
	.loc 2 150 2 view .LVU562
	.loc 2 150 8 is_stmt 0 view .LVU563
	add	r2, r5, r6, lsl #3
.LVL132:
	.loc 2 152 2 is_stmt 1 view .LVU564
	.loc 2 159 3 view .LVU565
	.loc 2 160 4 view .LVU566
.LBE575:
.LBE574:
.LBB577:
.LBB578:
	.loc 1 27 38 is_stmt 0 view .LVU567
	mov	r0, r2
.LBE578:
.LBE577:
.LBB580:
.LBB576:
	.loc 2 160 38 view .LVU568
	ldrh	r3, [r2, #2]
	orr	r3, r3, #1
	strh	r3, [r2, #2]	@ movhi
.LVL133:
	.loc 2 160 38 view .LVU569
.LBE576:
.LBE580:
	.loc 1 286 2 is_stmt 1 view .LVU570
.LBB581:
.LBI577:
	.loc 1 24 14 view .LVU571
.LBB579:
	.loc 1 26 2 view .LVU572
	.loc 1 27 2 view .LVU573
	.loc 1 27 11 is_stmt 0 view .LVU574
	adds	r0, r0, #4
.LVL134:
	.loc 1 29 2 is_stmt 1 view .LVU575
	.loc 1 31 2 view .LVU576
	.loc 1 31 2 is_stmt 0 view .LVU577
.LBE579:
.LBE581:
	.loc 1 297 2 is_stmt 1 view .LVU578
	.loc 1 298 2 view .LVU579
	.loc 1 298 9 is_stmt 0 view .LVU580
	b	.L33
	.cfi_endproc
.LFE485:
	.size	sys_heap_alloc, .-sys_heap_alloc
	.section	.text.sys_heap_aligned_alloc,"ax",%progbits
	.align	1
	.global	sys_heap_aligned_alloc
	.syntax unified
	.thumb
	.thumb_func
	.type	sys_heap_aligned_alloc, %function
sys_heap_aligned_alloc:
.LVL135:
.LFB486:
	.loc 1 302 1 is_stmt 1 view -0
	.cfi_startproc
	@ args = 0, pretend = 0, frame = 0
	@ frame_needed = 0, uses_anonymous_args = 0
	.loc 1 303 2 view .LVU582
	.loc 1 302 1 is_stmt 0 view .LVU583
	push	{r3, r4, r5, r6, r7, r8, r9, lr}
	.cfi_def_cfa_offset 32
	.cfi_offset 3, -32
	.cfi_offset 4, -28
	.cfi_offset 5, -24
	.cfi_offset 6, -20
	.cfi_offset 7, -16
	.cfi_offset 8, -12
	.cfi_offset 9, -8
	.cfi_offset 14, -4
	add	r9, r1, #-1
	.loc 1 314 5 view .LVU584
	ands	r9, r9, r1
	.loc 1 303 17 view .LVU585
	ldr	r6, [r0]
.LVL136:
	.loc 1 304 2 is_stmt 1 view .LVU586
	.loc 1 313 2 view .LVU587
	.loc 1 314 2 view .LVU588
	.loc 1 302 1 is_stmt 0 view .LVU589
	mov	r7, r1
	mov	r4, r2
	.loc 1 314 5 view .LVU590
	beq	.L42
	.loc 1 313 16 view .LVU591
	rsbs	r3, r1, #0
.LVL137:
	.loc 1 313 6 view .LVU592
	ands	r3, r3, r1
.LVL138:
	.loc 1 315 3 is_stmt 1 view .LVU593
	.loc 1 316 3 view .LVU594
	.loc 1 316 52 is_stmt 0 view .LVU595
	cmp	r3, #4
	mov	r2, r3
.LVL139:
	.loc 1 316 52 view .LVU596
	mov	r7, r9
	it	cs
	movcs	r2, #4
	.loc 1 313 6 view .LVU597
	mov	r9, r3
.LVL140:
.L43:
	.loc 1 324 4 is_stmt 1 view .LVU598
	.loc 1 324 5 view .LVU599
	.loc 1 326 2 view .LVU600
	.loc 1 326 5 is_stmt 0 view .LVU601
	cbnz	r4, .L44
.LVL141:
.L46:
	.loc 1 327 9 view .LVU602
	movs	r5, #0
.LVL142:
.L41:
	.loc 1 377 1 view .LVU603
	mov	r0, r5
	pop	{r3, r4, r5, r6, r7, r8, r9, pc}
.LVL143:
.L42:
	.loc 1 318 3 is_stmt 1 view .LVU604
	.loc 1 318 6 is_stmt 0 view .LVU605
	cmp	r1, #4
	bhi	.L49
	.loc 1 319 4 is_stmt 1 view .LVU606
	.loc 1 377 1 is_stmt 0 view .LVU607
	pop	{r3, r4, r5, r6, r7, r8, r9, lr}
	.cfi_remember_state
	.cfi_restore 14
	.cfi_restore 9
	.cfi_restore 8
	.cfi_restore 7
	.cfi_restore 6
	.cfi_restore 5
	.cfi_restore 4
	.cfi_restore 3
	.cfi_def_cfa_offset 0
	.loc 1 319 11 view .LVU608
	mov	r1, r2
.LVL144:
	.loc 1 319 11 view .LVU609
	b	sys_heap_alloc
.LVL145:
.L49:
	.cfi_restore_state
	.loc 1 322 9 view .LVU610
	movs	r2, #4
.LVL146:
	.loc 1 322 9 view .LVU611
	b	.L43
.LVL147:
.L44:
.LBB595:
.LBI595:
	.loc 2 256 19 is_stmt 1 view .LVU612
.LBB596:
	.loc 2 262 2 view .LVU613
	.loc 2 262 2 is_stmt 0 view .LVU614
.LBE596:
.LBE595:
	.loc 1 326 17 view .LVU615
	ldr	r3, [r6, #8]
	cmp	r3, r4, lsr #3
	bls	.L46
	.loc 1 335 2 is_stmt 1 view .LVU616
.LVL148:
.LBB597:
.LBI597:
	.loc 2 235 25 view .LVU617
	.loc 2 237 2 view .LVU618
.LBB598:
.LBI598:
	.loc 2 230 25 view .LVU619
.LBB599:
	.loc 2 232 2 view .LVU620
	.loc 2 232 2 is_stmt 0 view .LVU621
.LBE599:
.LBE598:
.LBE597:
	.loc 1 336 2 is_stmt 1 view .LVU622
.LBB602:
.LBB601:
.LBB600:
	.loc 2 232 21 is_stmt 0 view .LVU623
	add	r1, r4, #11
	add	r1, r1, r7
	subs	r1, r1, r2
.LBE600:
.LBE601:
.LBE602:
	.loc 1 336 17 view .LVU624
	lsrs	r1, r1, #3
	mov	r0, r6
.LVL149:
	.loc 1 336 17 view .LVU625
	bl	alloc_chunk
.LVL150:
	.loc 1 338 2 is_stmt 1 view .LVU626
	.loc 1 338 5 is_stmt 0 view .LVU627
	mov	r8, r0
	cmp	r0, #0
	beq	.L46
	.loc 1 341 2 is_stmt 1 view .LVU628
.LVL151:
.LBB603:
.LBI603:
	.loc 1 24 14 view .LVU629
.LBB604:
	.loc 1 26 2 view .LVU630
	.loc 1 27 2 view .LVU631
	.loc 1 29 2 view .LVU632
	.loc 1 31 2 view .LVU633
	.loc 1 31 2 is_stmt 0 view .LVU634
.LBE604:
.LBE603:
	.loc 1 344 2 is_stmt 1 view .LVU635
	.loc 1 344 43 is_stmt 0 view .LVU636
	add	r5, r9, #4
	add	r5, r5, r0, lsl #3
	.loc 1 344 50 view .LVU637
	subs	r3, r7, #1
	.loc 1 344 43 view .LVU638
	add	r5, r5, r6
	.loc 1 344 50 view .LVU639
	add	r5, r5, r3
	.loc 1 344 108 view .LVU640
	udiv	r5, r5, r7
	muls	r5, r7, r5
	.loc 1 344 134 view .LVU641
	sub	r5, r5, r9
.LVL152:
	.loc 1 345 2 is_stmt 1 view .LVU642
	.loc 1 348 2 view .LVU643
.LBB605:
.LBI605:
	.loc 1 157 18 view .LVU644
.LBB606:
	.loc 1 159 2 view .LVU645
	.loc 1 160 2 view .LVU646
.LBE606:
.LBE605:
	.loc 1 345 62 is_stmt 0 view .LVU647
	add	r4, r4, r5
.LVL153:
.LBB610:
.LBB607:
	.loc 1 160 14 view .LVU648
	subs	r3, r5, #4
.LBE607:
.LBE610:
	.loc 1 345 71 view .LVU649
	adds	r4, r4, #7
.LBB611:
.LBB608:
	.loc 1 160 38 view .LVU650
	subs	r3, r3, r6
.LBE608:
.LBE611:
	.loc 1 345 123 view .LVU651
	bic	r4, r4, #7
.LVL154:
	.loc 1 349 24 view .LVU652
	subs	r4, r4, r6
.LVL155:
	.loc 1 353 5 view .LVU653
	cmp	r0, r3, lsr #3
.LBB612:
.LBB609:
	.loc 1 160 46 view .LVU654
	lsr	r7, r3, #3
.LVL156:
	.loc 1 160 46 view .LVU655
.LBE609:
.LBE612:
	.loc 1 349 2 is_stmt 1 view .LVU656
	.loc 1 349 24 is_stmt 0 view .LVU657
	asr	r4, r4, #3
.LVL157:
	.loc 1 350 2 is_stmt 1 view .LVU658
	.loc 1 353 2 view .LVU659
	.loc 1 353 5 is_stmt 0 view .LVU660
	bcs	.L47
	.loc 1 354 3 is_stmt 1 view .LVU661
	mov	r1, r0
	mov	r2, r7
	mov	r0, r6
.LVL158:
	.loc 1 354 3 is_stmt 0 view .LVU662
	bl	split_chunks
.LVL159:
	.loc 1 355 3 is_stmt 1 view .LVU663
	mov	r1, r8
	mov	r0, r6
	bl	free_list_add
.LVL160:
.L47:
	.loc 1 359 2 view .LVU664
.LBB613:
.LBI613:
	.loc 2 204 25 view .LVU665
.LBB614:
	.loc 2 206 2 view .LVU666
	.loc 2 206 13 is_stmt 0 view .LVU667
	mov	r1, r7
	mov	r0, r6
	bl	chunk_size
.LVL161:
	.loc 2 206 11 view .LVU668
	add	r0, r0, r7
.LBE614:
.LBE613:
	.loc 1 359 5 view .LVU669
	cmp	r4, r0
	bcs	.L48
.LVL162:
	.loc 1 360 3 is_stmt 1 view .LVU670
	mov	r0, r6
	mov	r2, r4
	bl	split_chunks
.LVL163:
	.loc 1 361 3 view .LVU671
	mov	r1, r4
	mov	r0, r6
	bl	free_list_add
.LVL164:
.L48:
	.loc 1 364 2 view .LVU672
.LBB615:
.LBI615:
	.loc 2 147 20 view .LVU673
.LBB616:
	.loc 2 149 2 view .LVU674
	.loc 2 150 2 view .LVU675
	.loc 2 150 8 is_stmt 0 view .LVU676
	add	r6, r6, r7, lsl #3
.LVL165:
	.loc 2 152 2 is_stmt 1 view .LVU677
	.loc 2 159 3 view .LVU678
	.loc 2 160 4 view .LVU679
	.loc 2 160 38 is_stmt 0 view .LVU680
	ldrh	r3, [r6, #2]
	orr	r3, r3, #1
	strh	r3, [r6, #2]	@ movhi
.LVL166:
	.loc 2 160 38 view .LVU681
	b	.L41
.LBE616:
.LBE615:
	.cfi_endproc
.LFE486:
	.size	sys_heap_aligned_alloc, .-sys_heap_aligned_alloc
	.section	.text.sys_heap_aligned_realloc,"ax",%progbits
	.align	1
	.global	sys_heap_aligned_realloc
	.syntax unified
	.thumb
	.thumb_func
	.type	sys_heap_aligned_realloc, %function
sys_heap_aligned_realloc:
.LVL167:
.LFB487:
	.loc 1 381 1 is_stmt 1 view -0
	.cfi_startproc
	@ args = 0, pretend = 0, frame = 8
	@ frame_needed = 0, uses_anonymous_args = 0
	.loc 1 382 2 view .LVU683
	.loc 1 381 1 is_stmt 0 view .LVU684
	push	{r0, r1, r2, r4, r5, r6, r7, r8, r9, r10, fp, lr}
	.cfi_def_cfa_offset 48
	.cfi_offset 4, -36
	.cfi_offset 5, -32
	.cfi_offset 6, -28
	.cfi_offset 7, -24
	.cfi_offset 8, -20
	.cfi_offset 9, -16
	.cfi_offset 10, -12
	.cfi_offset 11, -8
	.cfi_offset 14, -4
	.loc 1 381 1 view .LVU685
	mov	r9, r2
	.loc 1 382 17 view .LVU686
	ldr	r4, [r0]
.LVL168:
	.loc 1 385 2 is_stmt 1 view .LVU687
	.loc 1 381 1 is_stmt 0 view .LVU688
	str	r0, [sp]
.LVL169:
	.loc 1 381 1 view .LVU689
	mov	r8, r3
	.loc 1 385 5 view .LVU690
	mov	r6, r1
	cbnz	r1, .L54
	.loc 1 386 3 is_stmt 1 view .LVU691
	.loc 1 386 10 is_stmt 0 view .LVU692
	mov	r2, r8
.LVL170:
	.loc 1 386 10 view .LVU693
	mov	r1, r9
.LVL171:
	.loc 1 483 1 view .LVU694
	add	sp, sp, #12
	.cfi_remember_state
	.cfi_def_cfa_offset 36
	@ sp needed
	pop	{r4, r5, r6, r7, r8, r9, r10, fp, lr}
	.cfi_restore 14
	.cfi_restore 11
	.cfi_restore 10
	.cfi_restore 9
	.cfi_restore 8
	.cfi_restore 7
	.cfi_restore 6
	.cfi_restore 5
	.cfi_restore 4
	.cfi_def_cfa_offset 0
.LVL172:
	.loc 1 386 10 view .LVU695
	b	sys_heap_aligned_alloc
.LVL173:
.L54:
	.cfi_restore_state
	.loc 1 388 2 is_stmt 1 view .LVU696
	.loc 1 388 5 is_stmt 0 view .LVU697
	cmp	r8, #0
	bne	.L55
	.loc 1 389 3 is_stmt 1 view .LVU698
	bl	sys_heap_free
.LVL174:
	.loc 1 390 3 view .LVU699
.L56:
	.loc 1 390 9 is_stmt 0 view .LVU700
	movs	r7, #0
.LVL175:
.L53:
	.loc 1 483 1 view .LVU701
	mov	r0, r7
	add	sp, sp, #12
	.cfi_remember_state
	.cfi_def_cfa_offset 36
.LVL176:
	.loc 1 483 1 view .LVU702
	@ sp needed
	pop	{r4, r5, r6, r7, r8, r9, r10, fp, pc}
.LVL177:
.L55:
	.cfi_restore_state
	.loc 1 393 4 is_stmt 1 view .LVU703
	.loc 1 393 5 view .LVU704
	.loc 1 395 2 view .LVU705
.LBB642:
.LBI642:
	.loc 2 256 19 view .LVU706
.LBB643:
	.loc 2 262 2 view .LVU707
	.loc 2 262 2 is_stmt 0 view .LVU708
.LBE643:
.LBE642:
	.loc 1 395 5 view .LVU709
	ldr	r3, [r4, #8]
.LVL178:
	.loc 1 395 5 view .LVU710
	cmp	r3, r8, lsr #3
	bls	.L56
	.loc 1 399 2 is_stmt 1 view .LVU711
.LVL179:
.LBB644:
.LBI644:
	.loc 1 157 18 view .LVU712
.LBB645:
	.loc 1 159 2 view .LVU713
	.loc 1 160 2 view .LVU714
	.loc 1 160 14 is_stmt 0 view .LVU715
	subs	r5, r1, #4
	.loc 1 160 38 view .LVU716
	subs	r5, r5, r4
	.loc 1 160 46 view .LVU717
	lsrs	r5, r5, #3
.LVL180:
	.loc 1 160 46 view .LVU718
.LBE645:
.LBE644:
	.loc 1 400 2 is_stmt 1 view .LVU719
.LBB646:
.LBI646:
	.loc 2 204 25 view .LVU720
.LBB647:
	.loc 2 206 2 view .LVU721
.LBE647:
.LBE646:
.LBB652:
.LBB653:
	.loc 1 27 33 is_stmt 0 view .LVU722
	lsls	r7, r5, #3
	.loc 1 27 38 view .LVU723
	adds	r2, r7, #4
.LVL181:
	.loc 1 27 11 view .LVU724
	add	r2, r2, r4
.LBE653:
.LBE652:
.LBB655:
.LBB648:
	.loc 2 206 13 view .LVU725
	mov	r1, r5
.LVL182:
	.loc 2 206 13 view .LVU726
.LBE648:
.LBE655:
	.loc 1 401 36 view .LVU727
	subs	r2, r6, r2
.LBB656:
.LBB649:
	.loc 2 206 13 view .LVU728
	mov	r0, r4
.LVL183:
	.loc 2 206 13 view .LVU729
	bl	chunk_size
.LVL184:
	.loc 2 206 13 view .LVU730
.LBE649:
.LBE656:
	.loc 1 401 36 view .LVU731
	str	r2, [sp, #4]
.LBB657:
.LBB658:
.LBB659:
	.loc 2 232 21 view .LVU732
	ldr	r1, [sp, #4]
	add	r2, r8, #11
	add	r2, r2, r1
.LBE659:
.LBE658:
.LBE657:
.LBB662:
.LBB650:
	.loc 2 206 13 view .LVU733
	mov	r3, r0
.LVL185:
	.loc 2 206 13 view .LVU734
.LBE650:
.LBE662:
	.loc 1 401 2 is_stmt 1 view .LVU735
.LBB663:
.LBI652:
	.loc 1 24 14 view .LVU736
.LBB654:
	.loc 1 26 2 view .LVU737
	.loc 1 27 2 view .LVU738
	.loc 1 29 2 view .LVU739
	.loc 1 31 2 view .LVU740
	.loc 1 31 2 is_stmt 0 view .LVU741
.LBE654:
.LBE663:
	.loc 1 402 2 is_stmt 1 view .LVU742
.LBB664:
.LBI657:
	.loc 2 235 25 view .LVU743
	.loc 2 237 2 view .LVU744
.LBB661:
.LBI658:
	.loc 2 230 25 view .LVU745
.LBB660:
	.loc 2 232 2 view .LVU746
	.loc 2 232 27 is_stmt 0 view .LVU747
	lsr	r10, r2, #3
.LVL186:
	.loc 2 232 27 view .LVU748
.LBE660:
.LBE661:
.LBE664:
	.loc 1 404 2 is_stmt 1 view .LVU749
	.loc 1 404 5 is_stmt 0 view .LVU750
	cmp	r9, #0
	beq	.L59
	.loc 1 404 40 discriminator 1 view .LVU751
	add	r1, r9, #-1
.LVL187:
	.loc 1 404 12 discriminator 1 view .LVU752
	tst	r6, r1
	bne	.L60
.L59:
	.loc 1 406 9 is_stmt 1 view .LVU753
	.loc 1 406 12 is_stmt 0 view .LVU754
	cmp	r10, r3
	beq	.L61
	.loc 1 409 9 is_stmt 1 view .LVU755
	.loc 1 409 12 is_stmt 0 view .LVU756
	bcs	.L62
	.loc 1 420 3 is_stmt 1 view .LVU757
.LBB665:
.LBB666:
	.loc 2 150 8 is_stmt 0 view .LVU758
	add	r7, r7, r4
.LBE666:
.LBE665:
	.loc 1 420 3 view .LVU759
	add	r2, r5, r10
	mov	r1, r5
	mov	r0, r4
.LVL188:
	.loc 1 420 3 view .LVU760
	bl	split_chunks
.LVL189:
	.loc 1 421 3 is_stmt 1 view .LVU761
.LBB668:
.LBI665:
	.loc 2 147 20 view .LVU762
.LBB667:
	.loc 2 149 2 view .LVU763
	.loc 2 150 2 view .LVU764
	.loc 2 152 2 view .LVU765
	.loc 2 159 3 view .LVU766
	.loc 2 160 4 view .LVU767
	.loc 2 160 38 is_stmt 0 view .LVU768
	ldrh	r3, [r7, #2]
	orr	r3, r3, #1
	strh	r3, [r7, #2]	@ movhi
.LVL190:
	.loc 2 160 38 view .LVU769
.LBE667:
.LBE668:
	.loc 1 422 3 is_stmt 1 view .LVU770
	mov	r1, r2
	mov	r0, r4
	bl	free_chunk
.LVL191:
	.loc 1 431 3 view .LVU771
.L61:
	.loc 1 390 9 is_stmt 0 view .LVU772
	mov	r7, r6
	b	.L53
.LVL192:
.L62:
.LBB669:
.LBB651:
	.loc 2 206 11 view .LVU773
	add	fp, r5, r3
.LBE651:
.LBE669:
	.loc 1 432 9 is_stmt 1 view .LVU774
.LVL193:
.LBB670:
.LBI670:
	.loc 2 137 19 view .LVU775
.LBB671:
	.loc 2 139 2 view .LVU776
.LBB672:
.LBI672:
	.loc 2 107 25 view .LVU777
.LBB673:
	.loc 2 110 2 view .LVU778
	.loc 2 111 2 view .LVU779
	.loc 2 113 2 view .LVU780
	.loc 2 116 3 view .LVU781
	.loc 2 116 28 is_stmt 0 view .LVU782
	add	r1, r4, fp, lsl #3
.LBE673:
.LBE672:
	.loc 2 139 42 view .LVU783
	ldrh	r1, [r1, #2]
.LBE671:
.LBE670:
	.loc 1 432 12 view .LVU784
	lsls	r2, r1, #31
	bmi	.L60
	.loc 1 433 26 discriminator 1 view .LVU785
	mov	r1, fp
	mov	r0, r4
.LVL194:
	.loc 1 433 26 discriminator 1 view .LVU786
	bl	chunk_size
.LVL195:
	.loc 1 433 24 discriminator 1 view .LVU787
	add	r0, r0, r3
	.loc 1 432 32 discriminator 1 view .LVU788
	cmp	r0, r10
	bcc	.L60
.LBB674:
	.loc 1 435 3 is_stmt 1 view .LVU789
	.loc 1 445 3 is_stmt 0 view .LVU790
	mov	r0, r4
	.loc 1 435 13 view .LVU791
	sub	r8, r10, r3
.LVL196:
	.loc 1 445 3 is_stmt 1 view .LVU792
	bl	free_list_remove
.LVL197:
	.loc 1 447 3 view .LVU793
	.loc 1 447 20 is_stmt 0 view .LVU794
	mov	r1, fp
	mov	r0, r4
	bl	chunk_size
.LVL198:
	.loc 1 447 6 view .LVU795
	cmp	r0, r8
	bls	.L63
	.loc 1 448 4 is_stmt 1 view .LVU796
	add	r2, r5, r10
	mov	r0, r4
	bl	split_chunks
.LVL199:
	.loc 1 449 4 view .LVU797
	mov	r1, r2
	mov	r0, r4
	bl	free_list_add
.LVL200:
.L63:
	.loc 1 452 3 view .LVU798
.LBB675:
.LBB676:
	.loc 2 150 8 is_stmt 0 view .LVU799
	add	r7, r7, r4
.LBE676:
.LBE675:
	.loc 1 452 3 view .LVU800
	mov	r2, fp
	mov	r1, r5
	mov	r0, r4
	bl	merge_chunks
.LVL201:
	.loc 1 453 3 is_stmt 1 view .LVU801
.LBB678:
.LBI675:
	.loc 2 147 20 view .LVU802
.LBB677:
	.loc 2 149 2 view .LVU803
	.loc 2 150 2 view .LVU804
	.loc 2 152 2 view .LVU805
	.loc 2 159 3 view .LVU806
	.loc 2 160 4 view .LVU807
	.loc 2 160 38 is_stmt 0 view .LVU808
	ldrh	r3, [r7, #2]
	orr	r3, r3, #1
	strh	r3, [r7, #2]	@ movhi
	b	.L61
.LVL202:
.L60:
	.loc 2 160 38 view .LVU809
.LBE677:
.LBE678:
.LBE674:
	.loc 1 464 3 is_stmt 1 view .LVU810
	.loc 1 474 2 view .LVU811
	.loc 1 474 15 is_stmt 0 view .LVU812
	ldr	r0, [sp]
	mov	r2, r8
	mov	r1, r9
	bl	sys_heap_aligned_alloc
.LVL203:
	.loc 1 476 2 is_stmt 1 view .LVU813
	.loc 1 476 5 is_stmt 0 view .LVU814
	mov	r7, r0
	cmp	r0, #0
	beq	.L56
.LBB679:
	.loc 1 477 3 is_stmt 1 view .LVU815
	.loc 1 477 22 is_stmt 0 view .LVU816
	mov	r1, r5
	mov	r0, r4
.LVL204:
	.loc 1 477 22 view .LVU817
	bl	chunk_size
.LVL205:
.LBB680:
.LBI680:
	.loc 2 245 22 is_stmt 1 view .LVU818
.LBB681:
	.loc 2 247 2 view .LVU819
	.loc 2 247 2 is_stmt 0 view .LVU820
.LBE681:
.LBE680:
	.loc 1 479 2 is_stmt 1 view .LVU821
.LBB682:
.LBI682:
	.file 3 "/home/g/zephyr-sdk-0.16.3/arm-zephyr-eabi/picolibc/include/ssp/string.h"
	.loc 3 83 216 view .LVU822
.LBB683:
	.loc 3 83 292 view .LVU823
.LBE683:
.LBE682:
	.loc 1 477 10 is_stmt 0 view .LVU824
	ldr	r3, [sp, #4]
	rsb	r2, r3, r0, lsl #3
	subs	r2, r2, #4
.LVL206:
.LBB685:
.LBB684:
	.loc 3 83 299 view .LVU825
	cmp	r2, r8
	mov	r1, r6
	it	cs
	movcs	r2, r8
.LVL207:
	.loc 3 83 299 view .LVU826
	mov	r0, r7
.LVL208:
	.loc 3 83 299 view .LVU827
	bl	memcpy
.LVL209:
	.loc 3 83 299 view .LVU828
.LBE684:
.LBE685:
	.loc 1 480 3 is_stmt 1 view .LVU829
	ldr	r0, [sp]
	mov	r1, r6
	bl	sys_heap_free
.LVL210:
	b	.L53
.LBE679:
	.cfi_endproc
.LFE487:
	.size	sys_heap_aligned_realloc, .-sys_heap_aligned_realloc
	.section	.text.sys_heap_init,"ax",%progbits
	.align	1
	.global	sys_heap_init
	.syntax unified
	.thumb
	.thumb_func
	.type	sys_heap_init, %function
sys_heap_init:
.LVL211:
.LFB488:
	.loc 1 486 1 view -0
	.cfi_startproc
	@ args = 0, pretend = 0, frame = 0
	@ frame_needed = 0, uses_anonymous_args = 0
	.loc 1 487 2 view .LVU831
	.loc 1 489 2 view .LVU832
	.loc 1 491 5 view .LVU833
	.loc 1 491 6 view .LVU834
	.loc 1 494 5 view .LVU835
	.loc 1 494 6 view .LVU836
	.loc 1 498 4 view .LVU837
	.loc 1 498 5 view .LVU838
	.loc 1 499 2 view .LVU839
	.loc 1 502 2 view .LVU840
	.loc 1 499 8 is_stmt 0 view .LVU841
	subs	r2, r2, #4
.LVL212:
	.loc 1 486 1 view .LVU842
	push	{r4, r5, r6, r7, r8, lr}
	.cfi_def_cfa_offset 24
	.cfi_offset 4, -24
	.cfi_offset 5, -20
	.cfi_offset 6, -16
	.cfi_offset 7, -12
	.cfi_offset 8, -8
	.cfi_offset 14, -4
	.loc 1 502 43 view .LVU843
	adds	r4, r1, #7
	.loc 1 503 51 view .LVU844
	add	r1, r1, r2
.LVL213:
	.loc 1 502 12 view .LVU845
	bic	r4, r4, #7
.LVL214:
	.loc 1 503 2 is_stmt 1 view .LVU846
	.loc 1 504 2 view .LVU847
	.loc 1 503 12 is_stmt 0 view .LVU848
	bic	r1, r1, #7
	.loc 1 504 27 view .LVU849
	subs	r6, r1, r4
	.loc 1 504 12 view .LVU850
	lsrs	r7, r6, #3
.LVL215:
	.loc 1 506 2 is_stmt 1 view .LVU851
	.loc 1 507 4 view .LVU852
	.loc 1 507 5 view .LVU853
	.loc 1 509 2 view .LVU854
	.loc 1 510 2 view .LVU855
.LBB715:
.LBB716:
	.loc 2 253 14 is_stmt 0 view .LVU856
	clz	r2, r7
.LVL216:
	.loc 2 253 14 view .LVU857
.LBE716:
.LBE715:
	.loc 1 521 56 view .LVU858
	rsb	r5, r2, #36
	.loc 1 521 26 view .LVU859
	lsls	r5, r5, #2
	.loc 1 512 19 view .LVU860
	mov	r8, #0
.LBB718:
.LBB719:
	.loc 2 232 21 view .LVU861
	adds	r5, r5, #7
.LBE719:
.LBE718:
	.loc 1 520 6 view .LVU862
	rsb	r2, r2, #32
.LBB722:
.LBB720:
	.loc 2 232 27 view .LVU863
	lsrs	r5, r5, #3
.LBE720:
.LBE722:
	.loc 1 510 13 view .LVU864
	str	r4, [r0]
	.loc 1 511 2 is_stmt 1 view .LVU865
.LBB723:
	.loc 1 527 22 is_stmt 0 view .LVU866
	mov	r1, r8
.LBE723:
	.loc 1 511 15 view .LVU867
	str	r7, [r4, #8]
	.loc 1 512 2 is_stmt 1 view .LVU868
	.loc 1 512 19 is_stmt 0 view .LVU869
	str	r8, [r4, #12]
	.loc 1 520 2 is_stmt 1 view .LVU870
.LVL217:
.LBB724:
.LBI715:
	.loc 2 250 19 view .LVU871
.LBB717:
	.loc 2 252 2 view .LVU872
	.loc 2 253 2 view .LVU873
	.loc 2 253 2 is_stmt 0 view .LVU874
.LBE717:
.LBE724:
	.loc 1 521 2 is_stmt 1 view .LVU875
.LBB725:
.LBI718:
	.loc 2 230 25 view .LVU876
.LBB721:
	.loc 2 232 2 view .LVU877
	.loc 2 232 2 is_stmt 0 view .LVU878
.LBE721:
.LBE725:
	.loc 1 524 4 is_stmt 1 view .LVU879
	.loc 1 524 5 view .LVU880
	.loc 1 526 2 view .LVU881
.LBB726:
	.loc 1 526 7 view .LVU882
	.loc 1 526 20 view .LVU883
	.loc 1 527 22 is_stmt 0 view .LVU884
	lsls	r2, r2, #2
	add	r0, r4, #16
.LVL218:
	.loc 1 527 22 view .LVU885
	bl	memset
.LVL219:
	.loc 1 527 22 view .LVU886
.LBE726:
	.loc 1 531 2 is_stmt 1 view .LVU887
.LBB727:
.LBI727:
	.loc 2 172 20 view .LVU888
.LBB728:
	.loc 2 174 2 view .LVU889
.LBB729:
.LBI729:
	.loc 2 120 20 view .LVU890
.LBB730:
	.loc 2 123 2 view .LVU891
	.loc 2 125 2 view .LVU892
	.loc 2 126 2 view .LVU893
	.loc 2 128 2 view .LVU894
	.loc 2 132 3 view .LVU895
	.loc 2 133 3 view .LVU896
	.loc 2 133 3 is_stmt 0 view .LVU897
.LBE730:
.LBE729:
.LBE728:
.LBE727:
	.loc 1 532 2 is_stmt 1 view .LVU898
.LBB732:
.LBI732:
	.loc 2 209 20 view .LVU899
	.loc 2 212 2 view .LVU900
.LBB733:
.LBI733:
	.loc 2 120 20 view .LVU901
.LBB734:
	.loc 2 123 2 view .LVU902
	.loc 2 125 2 view .LVU903
	.loc 2 126 2 view .LVU904
	.loc 2 128 2 view .LVU905
	.loc 2 132 3 view .LVU906
	.loc 2 133 3 view .LVU907
.LBE734:
.LBE733:
.LBE732:
.LBB737:
.LBB731:
	.loc 2 174 2 is_stmt 0 view .LVU908
	lsls	r3, r5, #1
.LBE731:
.LBE737:
.LBB738:
.LBB739:
	.loc 2 160 38 view .LVU909
	orr	r3, r3, #1
	strh	r3, [r4, #2]	@ movhi
.LBE739:
.LBE738:
.LBB741:
.LBB742:
.LBB743:
.LBB744:
	.loc 2 133 25 view .LVU910
	add	r2, r4, r5, lsl #3
.LBE744:
.LBE743:
.LBE742:
.LBE741:
	.loc 1 536 2 view .LVU911
	subs	r3, r7, r5
.LBB749:
.LBB747:
	.loc 2 174 2 view .LVU912
	lsls	r1, r3, #1
.LBE747:
.LBE749:
.LBB750:
.LBB736:
.LBB735:
	.loc 2 133 25 view .LVU913
	strh	r8, [r4]	@ movhi
.LVL220:
	.loc 2 133 25 view .LVU914
.LBE735:
.LBE736:
.LBE750:
	.loc 1 533 2 is_stmt 1 view .LVU915
.LBB751:
.LBI738:
	.loc 2 147 20 view .LVU916
.LBB740:
	.loc 2 149 2 view .LVU917
	.loc 2 150 2 view .LVU918
	.loc 2 152 2 view .LVU919
	.loc 2 159 3 view .LVU920
	.loc 2 160 4 view .LVU921
	.loc 2 160 4 is_stmt 0 view .LVU922
.LBE740:
.LBE751:
	.loc 1 536 2 is_stmt 1 view .LVU923
.LBB752:
.LBI741:
	.loc 2 172 20 view .LVU924
.LBB748:
	.loc 2 174 2 view .LVU925
.LBB746:
.LBI743:
	.loc 2 120 20 view .LVU926
.LBB745:
	.loc 2 123 2 view .LVU927
	.loc 2 125 2 view .LVU928
	.loc 2 126 2 view .LVU929
	.loc 2 128 2 view .LVU930
	.loc 2 132 3 view .LVU931
	.loc 2 133 3 view .LVU932
	.loc 2 133 25 is_stmt 0 view .LVU933
	strh	r1, [r2, #2]	@ movhi
.LVL221:
	.loc 2 133 25 view .LVU934
.LBE745:
.LBE746:
.LBE748:
.LBE752:
	.loc 1 537 2 is_stmt 1 view .LVU935
.LBB753:
.LBI753:
	.loc 2 209 20 view .LVU936
	.loc 2 212 2 view .LVU937
.LBB754:
.LBI754:
	.loc 2 120 20 view .LVU938
.LBB755:
	.loc 2 123 2 view .LVU939
	.loc 2 125 2 view .LVU940
	.loc 2 126 2 view .LVU941
	.loc 2 128 2 view .LVU942
	.loc 2 132 3 view .LVU943
	.loc 2 133 3 view .LVU944
.LBE755:
.LBE754:
.LBE753:
.LBB758:
.LBB759:
.LBB760:
	.loc 2 133 25 is_stmt 0 view .LVU945
	adds	r2, r4, r6
.LVL222:
	.loc 2 133 25 view .LVU946
.LBE760:
.LBE759:
.LBE758:
.LBB763:
.LBB757:
.LBB756:
	strh	r5, [r4, r5, lsl #3]	@ movhi
.LVL223:
	.loc 2 133 25 view .LVU947
.LBE756:
.LBE757:
.LBE763:
	.loc 1 540 2 is_stmt 1 view .LVU948
.LBB764:
.LBI758:
	.loc 2 172 20 view .LVU949
	.loc 2 174 2 view .LVU950
.LBB762:
.LBI759:
	.loc 2 120 20 view .LVU951
.LBB761:
	.loc 2 123 2 view .LVU952
	.loc 2 125 2 view .LVU953
	.loc 2 126 2 view .LVU954
	.loc 2 128 2 view .LVU955
	.loc 2 132 3 view .LVU956
	.loc 2 133 3 view .LVU957
	.loc 2 133 25 is_stmt 0 view .LVU958
	strh	r8, [r2, #2]	@ movhi
.LVL224:
	.loc 2 133 25 view .LVU959
.LBE761:
.LBE762:
.LBE764:
	.loc 1 541 2 is_stmt 1 view .LVU960
.LBB765:
.LBI765:
	.loc 2 209 20 view .LVU961
	.loc 2 212 2 view .LVU962
.LBB766:
.LBI766:
	.loc 2 120 20 view .LVU963
.LBB767:
	.loc 2 123 2 view .LVU964
	.loc 2 125 2 view .LVU965
	.loc 2 126 2 view .LVU966
	.loc 2 128 2 view .LVU967
	.loc 2 132 3 view .LVU968
	.loc 2 133 3 view .LVU969
	.loc 2 133 25 is_stmt 0 view .LVU970
	strh	r3, [r4, r6]	@ movhi
.LVL225:
	.loc 2 133 25 view .LVU971
.LBE767:
.LBE766:
.LBE765:
	.loc 1 542 2 is_stmt 1 view .LVU972
.LBB768:
.LBI768:
	.loc 2 147 20 view .LVU973
.LBB769:
	.loc 2 149 2 view .LVU974
	.loc 2 150 2 view .LVU975
	.loc 2 150 8 is_stmt 0 view .LVU976
	add	r3, r4, r7, lsl #3
.LVL226:
	.loc 2 152 2 is_stmt 1 view .LVU977
	.loc 2 159 3 view .LVU978
	.loc 2 160 4 view .LVU979
.LBE769:
.LBE768:
	.loc 1 544 2 is_stmt 0 view .LVU980
	mov	r1, r5
.LBB771:
.LBB770:
	.loc 2 160 38 view .LVU981
	ldrh	r2, [r3, #2]
.LVL227:
	.loc 2 160 38 view .LVU982
	orr	r2, r2, #1
	strh	r2, [r3, #2]	@ movhi
.LVL228:
	.loc 2 160 38 view .LVU983
.LBE770:
.LBE771:
	.loc 1 544 2 is_stmt 1 view .LVU984
	mov	r0, r4
	.loc 1 545 1 is_stmt 0 view .LVU985
	pop	{r4, r5, r6, r7, r8, lr}
	.cfi_restore 14
	.cfi_restore 8
	.cfi_restore 7
	.cfi_restore 6
	.cfi_restore 5
	.cfi_restore 4
	.cfi_def_cfa_offset 0
.LVL229:
	.loc 1 544 2 view .LVU986
	b	free_list_add
.LVL230:
	.loc 1 544 2 view .LVU987
	.cfi_endproc
.LFE488:
	.size	sys_heap_init, .-sys_heap_init
	.text
.Letext0:
	.file 4 "/home/g/zephyr-sdk-0.16.3/arm-zephyr-eabi/lib/gcc/arm-zephyr-eabi/12.2.0/include/stddef.h"
	.file 5 "/home/g/zephyr-sdk-0.16.3/arm-zephyr-eabi/picolibc/include/machine/_default_types.h"
	.file 6 "/home/g/zephyr-sdk-0.16.3/arm-zephyr-eabi/picolibc/include/sys/_stdint.h"
	.file 7 "/home/g/mise-work/zmk-firmware/zmk/zephyr/include/zephyr/sys/sys_heap.h"
	.file 8 "<built-in>"