	.cpu cortex-m4
	.arch armv7e-m
	.fpu fpv4-sp-d16
	.eabi_attribute 27, 1
	.eabi_attribute 28, 1
	.eabi_attribute 20, 1
	.eabi_attribute 21, 1
	.eabi_attribute 23, 3
	.eabi_attribute 24, 1
	.eabi_attribute 25, 1
	.eabi_attribute 26, 1
	.eabi_attribute 30, 4
	.eabi_attribute 34, 1
	.eabi_attribute 38, 1
	.eabi_attribute 18, 4
	.file	"hex.c"
	.text
.Ltext0:
	.cfi_sections	.debug_frame
	.file 1 "/home/g/mise-work/zmk-firmware/zmk/zephyr/lib/os/hex.c"
	.section	.text.char2hex,"ax",%progbits
	.align	1
	.global	char2hex
	.syntax unified
	.thumb
	.thumb_func
	.type	char2hex, %function
char2hex:
.LVL0:
.LFB6:
	.loc 1 13 1 view -0
	.cfi_startproc
	@ args = 0, pretend = 0, frame = 0
	@ frame_needed = 0, uses_anonymous_args = 0
	@ link register save eliminated.
	.loc 1 14 2 view .LVU1
	.loc 1 14 15 is_stmt 0 view .LVU2
	sub	r3, r0, #48
	uxtb	r3, r3
	.loc 1 14 5 view .LVU3
	cmp	r3, #9
	bhi	.L2
.LVL1:
.L5:
	.loc 1 15 6 view .LVU4
	strb	r3, [r1]
	.loc 1 24 9 view .LVU5
	movs	r0, #0
	bx	lr
.LVL2:
.L2:
	.loc 1 16 9 is_stmt 1 view .LVU6
	.loc 1 16 12 is_stmt 0 view .LVU7
	sub	r3, r0, #97
	cmp	r3, #5
	bhi	.L4
	.loc 1 17 3 is_stmt 1 view .LVU8
	.loc 1 17 16 is_stmt 0 view .LVU9
	subs	r0, r0, #87
.LVL3:
.L7:
	.loc 1 19 16 view .LVU10
	uxtb	r3, r0
	b	.L5
.LVL4:
.L4:
	.loc 1 18 9 is_stmt 1 view .LVU11
	.loc 1 18 12 is_stmt 0 view .LVU12
	sub	r3, r0, #65
	cmp	r3, #5
	bhi	.L6
	.loc 1 19 3 is_stmt 1 view .LVU13
	.loc 1 19 16 is_stmt 0 view .LVU14
	subs	r0, r0, #55
.LVL5:
	.loc 1 19 16 view .LVU15
	b	.L7
.LVL6:
.L6:
	.loc 1 21 10 view .LVU16
	mvn	r0, #21
.LVL7:
	.loc 1 25 1 view .LVU17
	bx	lr
	.cfi_endproc
.LFE6:
	.size	char2hex, .-char2hex
	.section	.text.hex2char,"ax",%progbits
	.align	1
	.global	hex2char
	.syntax unified
	.thumb
	.thumb_func
	.type	hex2char, %function
hex2char:
.LVL8:
.LFB7:
	.loc 1 28 1 is_stmt 1 view -0
	.cfi_startproc
	@ args = 0, pretend = 0, frame = 0
	@ frame_needed = 0, uses_anonymous_args = 0
	@ link register save eliminated.
	.loc 1 29 2 view .LVU19
	.loc 1 29 5 is_stmt 0 view .LVU20
	cmp	r0, #9
	bhi	.L9
	.loc 1 30 3 is_stmt 1 view .LVU21
	.loc 1 30 10 is_stmt 0 view .LVU22
	adds	r0, r0, #48
.LVL9:
.L13:
	.loc 1 30 10 view .LVU23
	uxtb	r0, r0
	.loc 1 30 6 view .LVU24
	strb	r0, [r1]
	.loc 1 37 9 view .LVU25
	movs	r0, #0
	bx	lr
.LVL10:
.L9:
	.loc 1 31 9 is_stmt 1 view .LVU26
	.loc 1 31 12 is_stmt 0 view .LVU27
	cmp	r0, #15
	bhi	.L12
	.loc 1 32 3 is_stmt 1 view .LVU28
	.loc 1 32 15 is_stmt 0 view .LVU29
	adds	r0, r0, #87
.LVL11:
	.loc 1 32 15 view .LVU30
	b	.L13
.LVL12:
.L12:
	.loc 1 34 10 view .LVU31
	mvn	r0, #21
.LVL13:
	.loc 1 38 1 view .LVU32
	bx	lr
	.cfi_endproc
.LFE7:
	.size	hex2char, .-hex2char
	.section	.text.bin2hex,"ax",%progbits
	.align	1
	.global	bin2hex
	.syntax unified
	.thumb
	.thumb_func
	.type	bin2hex, %function
bin2hex:
.LVL14:
.LFB8:
	.loc 1 41 1 is_stmt 1 view -0
	.cfi_startproc
	@ args = 0, pretend = 0, frame = 0
	@ frame_needed = 0, uses_anonymous_args = 0
	.loc 1 42 2 view .LVU34
	.loc 1 41 1 is_stmt 0 view .LVU35
	push	{r4, r5, r6, r7, r8, lr}
	.cfi_def_cfa_offset 24
	.cfi_offset 4, -24
	.cfi_offset 5, -20
	.cfi_offset 6, -16
	.cfi_offset 7, -12
	.cfi_offset 8, -8
	.cfi_offset 14, -4
	.loc 1 42 23 view .LVU36
	lsls	r6, r1, #1
	.loc 1 41 1 view .LVU37
	mov	r4, r1
	.loc 1 42 28 view .LVU38
	adds	r1, r6, #1
.LVL15:
	.loc 1 42 5 view .LVU39
	cmp	r1, r3
	bls	.L15
.LVL16:
.L18:
	.loc 1 43 10 view .LVU40
	movs	r6, #0
.L14:
	.loc 1 57 1 view .LVU41
	mov	r0, r6
	pop	{r4, r5, r6, r7, r8, pc}
.LVL17:
.L15:
	.loc 1 57 1 view .LVU42
	mov	r3, r0
.LVL18:
	.loc 1 57 1 view .LVU43
	adds	r5, r2, #1
	adds	r7, r0, r4
.LVL19:
.L17:
.LBB2:
	.loc 1 46 23 is_stmt 1 discriminator 1 view .LVU44
	cmp	r3, r7
	bne	.L19
.LBE2:
	.loc 1 55 2 view .LVU45
	.loc 1 55 19 is_stmt 0 view .LVU46
	movs	r3, #0
.LVL20:
	.loc 1 55 19 view .LVU47
	strb	r3, [r2, r4, lsl #1]
	.loc 1 56 2 is_stmt 1 view .LVU48
	.loc 1 56 12 is_stmt 0 view .LVU49
	b	.L14
.LVL21:
.L19:
.LBB3:
	.loc 1 47 3 is_stmt 1 view .LVU50
	.loc 1 47 7 is_stmt 0 view .LVU51
	ldrb	r0, [r3]	@ zero_extendqisi2
	subs	r1, r5, #1
	lsrs	r0, r0, #4
	bl	hex2char
.LVL22:
	.loc 1 47 6 view .LVU52
	cmp	r0, #0
	mov	r8, r3
	blt	.L18
	.loc 1 50 3 is_stmt 1 view .LVU53
	.loc 1 50 7 is_stmt 0 view .LVU54
	ldrb	r0, [r8]	@ zero_extendqisi2
	mov	r1, r5
	and	r0, r0, #15
	bl	hex2char
.LVL23:
	.loc 1 50 6 view .LVU55
	cmp	r0, #0
	add	r3, r3, #1
.LVL24:
	.loc 1 50 6 view .LVU56
	add	r5, r5, #2
	bge	.L17
	b	.L18
.LBE3:
	.cfi_endproc
.LFE8:
	.size	bin2hex, .-bin2hex
	.section	.text.hex2bin,"ax",%progbits
	.align	1
	.global	hex2bin
	.syntax unified
	.thumb
	.thumb_func
	.type	hex2bin, %function
hex2bin:
.LVL25:
.LFB9:
	.loc 1 60 1 is_stmt 1 view -0
	.cfi_startproc
	@ args = 0, pretend = 0, frame = 8
	@ frame_needed = 0, uses_anonymous_args = 0
	.loc 1 60 1 is_stmt 0 view .LVU58
	push	{r0, r1, r2, r4, r5, r6, r7, lr}
	.cfi_def_cfa_offset 32
	.cfi_offset 4, -20
	.cfi_offset 5, -16
	.cfi_offset 6, -12
	.cfi_offset 7, -8
	.cfi_offset 14, -4
	.loc 1 60 1 view .LVU59
	mov	r5, r0
	.loc 1 61 2 is_stmt 1 view .LVU60
	.loc 1 63 2 view .LVU61
	.loc 1 63 36 is_stmt 0 view .LVU62
	and	r0, r1, #1
.LVL26:
	.loc 1 63 27 view .LVU63
	add	r6, r0, r1, lsr #1
	.loc 1 63 5 view .LVU64
	cmp	r6, r3
	.loc 1 63 22 view .LVU65
	lsr	r7, r1, #1
	.loc 1 63 5 view .LVU66
	bls	.L21
.LVL27:
.L24:
	.loc 1 64 10 view .LVU67
	movs	r6, #0
.L20:
	.loc 1 91 1 view .LVU68
	mov	r0, r6
	add	sp, sp, #12
	.cfi_remember_state
	.cfi_def_cfa_offset 20
	@ sp needed
	pop	{r4, r5, r6, r7, pc}
.LVL28:
.L21:
	.cfi_restore_state
	.loc 1 68 2 is_stmt 1 view .LVU69
	.loc 1 68 5 is_stmt 0 view .LVU70
	cbz	r0, .L23
	.loc 1 69 3 is_stmt 1 view .LVU71
	.loc 1 69 7 is_stmt 0 view .LVU72
	ldrb	r0, [r5]	@ zero_extendqisi2
	add	r1, sp, #7
.LVL29:
	.loc 1 69 7 view .LVU73
	bl	char2hex
.LVL30:
	.loc 1 69 6 view .LVU74
	cmp	r0, #0
	blt	.L24
	.loc 1 72 3 is_stmt 1 view .LVU75
	.loc 1 72 10 is_stmt 0 view .LVU76
	ldrb	r3, [sp, #7]	@ zero_extendqisi2
	strb	r3, [r2], #1
.LVL31:
	.loc 1 73 3 is_stmt 1 view .LVU77
	.loc 1 73 6 is_stmt 0 view .LVU78
	adds	r5, r5, #1
.LVL32:
	.loc 1 74 3 is_stmt 1 view .LVU79
.L23:
	.loc 1 78 2 view .LVU80
.LBB4:
	.loc 1 78 7 view .LVU81
	.loc 1 78 7 is_stmt 0 view .LVU82
	adds	r5, r5, #1
.LVL33:
	.loc 1 78 7 view .LVU83
	add	r7, r7, r2
.LVL34:
.L25:
	.loc 1 78 23 is_stmt 1 discriminator 1 view .LVU84
	cmp	r2, r7
	beq	.L20
	.loc 1 79 3 view .LVU85
	.loc 1 79 7 is_stmt 0 view .LVU86
	ldrb	r0, [r5, #-1]	@ zero_extendqisi2
	add	r1, sp, #7
	bl	char2hex
.LVL35:
	.loc 1 79 6 view .LVU87
	cmp	r0, #0
	blt	.L24
	.loc 1 82 3 is_stmt 1 view .LVU88
	.loc 1 82 16 is_stmt 0 view .LVU89
	ldrb	r4, [sp, #7]	@ zero_extendqisi2
	lsls	r4, r4, #4
	uxtb	r4, r4
	.loc 1 82 10 view .LVU90
	strb	r4, [r2]
	.loc 1 84 3 is_stmt 1 view .LVU91
	.loc 1 84 7 is_stmt 0 view .LVU92
	ldrb	r0, [r5], #2	@ zero_extendqisi2
	bl	char2hex
.LVL36:
	.loc 1 84 6 view .LVU93
	cmp	r0, #0
	blt	.L24
	.loc 1 87 3 is_stmt 1 discriminator 2 view .LVU94
	.loc 1 87 10 is_stmt 0 discriminator 2 view .LVU95
	ldrb	r3, [sp, #7]	@ zero_extendqisi2
	add	r4, r4, r3
	strb	r4, [r2], #1
	.loc 1 78 39 is_stmt 1 discriminator 2 view .LVU96
	.loc 1 78 39 is_stmt 0 discriminator 2 view .LVU97
	b	.L25
.LBE4:
	.cfi_endproc
.LFE9:
	.size	hex2bin, .-hex2bin
	.text
.Letext0:
	.file 2 "/home/g/zephyr-sdk-0.16.3/arm-zephyr-eabi/lib/gcc/arm-zephyr-eabi/12.2.0/include/stddef.h"
	.file 3 "/home/g/zephyr-sdk-0.16.3/arm-zephyr-eabi/picolibc/include/machine/_default_types.h"
	.file 4 "/home/g/zephyr-sdk-0.16.3/arm-zephyr-eabi/picolibc/include/sys/_stdint.h"