	.cpu cortex-m4
	.arch armv7e-m
	.fpu fpv4-sp-d16
	.eabi_attribute 27, 1
	.eabi_attribute 28, 1
	.eabi_attribute 20, 1
	.eabi_attribute 21, 1
	.eabi_attribute 23, 3
	.eabi_attribute 24, 1
	.eabi_attribute 25, 1
	.eabi_attribute 26, 1
	.eabi_attribute 30, 4
	.eabi_attribute 34, 1
	.eabi_attribute 38, 1
	.eabi_attribute 18, 4
	.file	"onoff.c"
	.text
.Ltext0:
	.cfi_sections	.debug_frame
	.file 1 "/home/g/mise-work/zmk-firmware/zmk/zephyr/lib/os/onoff.c"
	.section	.text.sys_slist_find_and_remove,"ax",%progbits
	.align	1
	.syntax unified
	.thumb
	.thumb_func
	.type	sys_slist_find_and_remove, %function
sys_slist_find_and_remove:
.LVL0:
.LFB71:
	.file 2 "/home/g/mise-work/zmk-firmware/zmk/zephyr/include/zephyr/sys/slist.h"
	.loc 2 435 65 view -0
	.cfi_startproc
	@ args = 0, pretend = 0, frame = 0
	@ frame_needed = 0, uses_anonymous_args = 0
	@ link register save eliminated.
	.loc 2 435 67 view .LVU1
	.loc 2 435 3 view .LVU2
	.loc 2 435 22 view .LVU3
.LBB269:
.LBI269:
	.loc 2 238 28 view .LVU4
.LBB270:
	.loc 2 240 2 view .LVU5
	.loc 2 240 13 is_stmt 0 view .LVU6
	ldr	r3, [r0]
.LVL1:
	.loc 2 240 13 view .LVU7
.LBE270:
.LBE269:
	.loc 2 435 80 view .LVU8
	movs	r2, #0
.LVL2:
.L2:
	.loc 2 435 66 is_stmt 1 discriminator 4 view .LVU9
	cbnz	r3, .L9
	.loc 2 435 1 is_stmt 0 view .LVU10
	mov	r0, r3
.LVL3:
	.loc 2 435 3 view .LVU11
	bx	lr
.LVL4:
.L9:
	.loc 2 435 39 is_stmt 1 discriminator 5 view .LVU12
	.loc 2 435 42 is_stmt 0 discriminator 5 view .LVU13
	cmp	r3, r1
	bne	.L3
	.loc 2 435 59 is_stmt 1 discriminator 2 view .LVU14
.LVL5:
.LBB271:
.LBI271:
	.loc 2 408 20 discriminator 2 view .LVU15
.LBB272:
	.loc 2 408 101 discriminator 2 view .LVU16
.LBB273:
.LBB274:
	.loc 2 213 13 is_stmt 0 discriminator 2 view .LVU17
	ldr	r3, [r1]
.LVL6:
	.loc 2 213 13 discriminator 2 view .LVU18
.LBE274:
.LBE273:
	.loc 2 408 104 discriminator 2 view .LVU19
	cbnz	r2, .L4
	.loc 2 408 5 is_stmt 1 view .LVU20
.LVL7:
.LBB276:
.LBI273:
	.loc 2 211 28 view .LVU21
.LBB275:
	.loc 2 213 2 view .LVU22
	.loc 2 213 2 is_stmt 0 view .LVU23
.LBE275:
.LBE276:
.LBB277:
.LBI277:
	.loc 2 221 20 is_stmt 1 view .LVU24
.LBB278:
	.loc 2 223 2 view .LVU25
.LBE278:
.LBE277:
	.loc 2 408 57 is_stmt 0 view .LVU26
	ldr	r2, [r0, #4]
.LVL8:
.LBB280:
.LBB279:
	.loc 2 223 13 view .LVU27
	str	r3, [r0]
.LVL9:
	.loc 2 223 13 view .LVU28
.LBE279:
.LBE280:
	.loc 2 408 54 is_stmt 1 view .LVU29
.LBB281:
.LBI281:
	.loc 2 250 28 view .LVU30
.LBB282:
	.loc 2 252 2 view .LVU31
	.loc 2 252 2 is_stmt 0 view .LVU32
.LBE282:
.LBE281:
	.loc 2 408 57 view .LVU33
	cmp	r1, r2
	bne	.L6
	.loc 2 408 95 is_stmt 1 view .LVU34
.LVL10:
.LBB283:
.LBI283:
	.loc 2 226 20 view .LVU35
.LBB284:
	.loc 2 228 2 view .LVU36
	.loc 2 228 13 is_stmt 0 view .LVU37
	str	r3, [r0, #4]
.LVL11:
.L6:
	.loc 2 228 13 view .LVU38
.LBE284:
.LBE283:
	.loc 2 408 291 is_stmt 1 view .LVU39
.LBB285:
.LBI285:
	.loc 2 216 20 view .LVU40
.LBB286:
	.loc 2 218 2 view .LVU41
	.loc 2 218 15 is_stmt 0 view .LVU42
	movs	r3, #0
	str	r3, [r1]
.LVL12:
	.loc 2 218 15 view .LVU43
.LBE286:
.LBE285:
.LBE272:
.LBE271:
	.loc 2 435 1 view .LVU44
	movs	r0, #1
.LVL13:
.LBB294:
.LBB293:
	.loc 2 408 4 view .LVU45
	bx	lr
.LVL14:
.L4:
	.loc 2 408 157 is_stmt 1 view .LVU46
.LBB287:
.LBI287:
	.loc 2 216 20 view .LVU47
.LBB288:
	.loc 2 218 2 view .LVU48
	.loc 2 218 15 is_stmt 0 view .LVU49
	str	r3, [r2]
.LVL15:
	.loc 2 218 15 view .LVU50
.LBE288:
.LBE287:
	.loc 2 408 211 is_stmt 1 view .LVU51
.LBB289:
.LBI289:
	.loc 2 250 28 view .LVU52
.LBB290:
	.loc 2 252 2 view .LVU53
	.loc 2 252 2 is_stmt 0 view .LVU54
.LBE290:
.LBE289:
	.loc 2 408 214 view .LVU55
	ldr	r3, [r0, #4]
	cmp	r1, r3
	.loc 2 408 252 is_stmt 1 view .LVU56
.LVL16:
.LBB291:
.LBI291:
	.loc 2 226 20 view .LVU57
.LBB292:
	.loc 2 228 2 view .LVU58
	.loc 2 228 13 is_stmt 0 view .LVU59
	it	eq
	streq	r2, [r0, #4]
	.loc 2 229 1 view .LVU60
	b	.L6
.LVL17:
.L3:
	.loc 2 229 1 view .LVU61
.LBE292:
.LBE291:
.LBE293:
.LBE294:
	.loc 2 435 5 is_stmt 1 view .LVU62
	.loc 2 435 8 view .LVU63
.LBB295:
.LBI295:
	.loc 2 292 29 view .LVU64
	.loc 2 292 70 view .LVU65
.LBB296:
.LBI296:
	.loc 2 281 29 view .LVU66
	.loc 2 281 79 view .LVU67
.LBB297:
.LBI297:
	.loc 2 211 28 view .LVU68
.LBB298:
	.loc 2 213 2 view .LVU69
	.loc 2 213 13 is_stmt 0 view .LVU70
	mov	r2, r3
.LBE298:
.LBE297:
.LBE296:
.LBE295:
	.loc 2 435 10 view .LVU71
	ldr	r3, [r3]
.LVL18:
	.loc 2 435 10 view .LVU72
	b	.L2
	.cfi_endproc
.LFE71:
	.size	sys_slist_find_and_remove, .-sys_slist_find_and_remove
	.section	.text.process_recheck,"ax",%progbits
	.align	1
	.syntax unified
	.thumb
	.thumb_func
	.type	process_recheck, %function
process_recheck:
.LVL19:
.LFB459:
	.loc 1 212 1 is_stmt 1 view -0
	.cfi_startproc
	@ args = 0, pretend = 0, frame = 0
	@ frame_needed = 0, uses_anonymous_args = 0
	@ link register save eliminated.
	.loc 1 213 2 view .LVU74
	.loc 1 214 2 view .LVU75
	ldrh	r3, [r0, #24]
.LVL20:
	.loc 1 216 2 view .LVU76
	.loc 1 216 5 is_stmt 0 view .LVU77
	ands	r3, r3, #7
.LVL21:
	.loc 1 216 5 view .LVU78
	bne	.L11
.LVL22:
.LBB299:
.LBI299:
	.loc 2 268 1 is_stmt 1 view .LVU79
	.loc 2 268 41 view .LVU80
.LBB300:
.LBI300:
	.loc 2 238 28 view .LVU81
.LBB301:
	.loc 2 240 2 view .LVU82
	.loc 2 240 2 is_stmt 0 view .LVU83
.LBE301:
.LBE300:
.LBE299:
	.loc 1 217 6 view .LVU84
	ldr	r3, [r0]
.LVL23:
	.loc 1 218 7 view .LVU85
	cmp	r3, #0
	ite	eq
	moveq	r0, #0
.LVL24:
	.loc 1 218 7 view .LVU86
	movne	r0, #3
	bx	lr
.LVL25:
.L11:
	.loc 1 219 9 is_stmt 1 view .LVU87
	.loc 1 219 12 is_stmt 0 view .LVU88
	cmp	r3, #2
	bne	.L13
	.loc 1 220 6 view .LVU89
	ldrh	r0, [r0, #26]
.LVL26:
	.loc 1 220 6 view .LVU90
	clz	r0, r0
	lsrs	r0, r0, #5
	lsls	r0, r0, #2
	bx	lr
.LVL27:
.L13:
	.loc 1 222 9 is_stmt 1 view .LVU91
	.loc 1 222 12 is_stmt 0 view .LVU92
	cmp	r3, #1
	bne	.L15
.LVL28:
.LBB302:
.LBI302:
	.loc 2 268 1 is_stmt 1 view .LVU93
	.loc 2 268 41 view .LVU94
.LBB303:
.LBI303:
	.loc 2 238 28 view .LVU95
.LBB304:
	.loc 2 240 2 view .LVU96
	.loc 2 240 2 is_stmt 0 view .LVU97
.LBE304:
.LBE303:
.LBE302:
	.loc 1 223 6 view .LVU98
	ldr	r3, [r0]
.LVL29:
	.loc 1 224 7 view .LVU99
	cmp	r3, #0
	ite	eq
	moveq	r0, #0
.LVL30:
	.loc 1 224 7 view .LVU100
	movne	r0, #5
	bx	lr
.LVL31:
.L15:
	.loc 1 213 6 view .LVU101
	movs	r0, #0
.LVL32:
	.loc 1 230 1 view .LVU102
	bx	lr
	.cfi_endproc
.LFE459:
	.size	process_recheck, .-process_recheck
	.section	.text.validate_args,"ax",%progbits
	.align	1
	.syntax unified
	.thumb
	.thumb_func
	.type	validate_args, %function
validate_args:
.LVL33:
.LFB453:
	.loc 1 124 1 is_stmt 1 view -0
	.cfi_startproc
	@ args = 0, pretend = 0, frame = 0
	@ frame_needed = 0, uses_anonymous_args = 0
	.loc 1 125 2 view .LVU104
	.loc 1 124 1 is_stmt 0 view .LVU105
	push	{r4, lr}
	.cfi_def_cfa_offset 8
	.cfi_offset 4, -8
	.cfi_offset 14, -4
	.loc 1 124 1 view .LVU106
	mov	r4, r1
	.loc 1 125 5 view .LVU107
	cbz	r0, .L18
	.loc 1 125 19 discriminator 1 view .LVU108
	cbnz	r1, .L19
.LVL34:
.L18:
	.loc 1 126 10 view .LVU109
	mvn	r0, #21
.L17:
	.loc 1 138 1 view .LVU110
	pop	{r4, pc}
.LVL35:
.L19:
	.loc 1 129 2 is_stmt 1 view .LVU111
	.loc 1 129 11 is_stmt 0 view .LVU112
	adds	r0, r1, #4
.LVL36:
	.loc 1 129 11 view .LVU113
	bl	sys_notify_validate
.LVL37:
	.loc 1 131 2 is_stmt 1 view .LVU114
	.loc 1 131 5 is_stmt 0 view .LVU115
	cmp	r0, #0
	bne	.L17
	.loc 1 132 22 view .LVU116
	ldr	r3, [r4, #8]
	.loc 1 132 6 view .LVU117
	cmp	r3, #3
	bls	.L17
	b	.L18
	.cfi_endproc
.LFE453:
	.size	validate_args, .-validate_args
	.section	.text.notify_one,"ax",%progbits
	.align	1
	.syntax unified
	.thumb
	.thumb_func
	.type	notify_one, %function
notify_one:
.LVL38:
.LFB456:
	.loc 1 172 1 is_stmt 1 view -0
	.cfi_startproc
	@ args = 0, pretend = 0, frame = 0
	@ frame_needed = 0, uses_anonymous_args = 0
	.loc 1 173 2 view .LVU119
	.loc 1 172 1 is_stmt 0 view .LVU120
	push	{r4, r5, r6, r7, r8, lr}
	.cfi_def_cfa_offset 24
	.cfi_offset 4, -24
	.cfi_offset 5, -20
	.cfi_offset 6, -16
	.cfi_offset 7, -12
	.cfi_offset 8, -8
	.cfi_offset 14, -4
	.loc 1 172 1 view .LVU121
	mov	r5, r1
	mov	r7, r0
	.loc 1 174 26 view .LVU122
	mov	r1, r3
.LVL39:
	.loc 1 174 26 view .LVU123
	adds	r0, r5, #4
.LVL40:
	.loc 1 172 1 view .LVU124
	mov	r8, r2
	mov	r6, r3
	.loc 1 174 26 view .LVU125
	bl	sys_notify_finalize
.LVL41:
	.loc 1 176 2 is_stmt 1 view .LVU126
	.loc 1 176 5 is_stmt 0 view .LVU127
	mov	r4, r0
	cbz	r0, .L24
	.loc 1 177 3 is_stmt 1 view .LVU128
	mov	r3, r6
	mov	r2, r8
	mov	r1, r5
	mov	r0, r7
.LVL42:
	.loc 1 177 3 is_stmt 0 view .LVU129
	mov	ip, r4
	.loc 1 179 1 view .LVU130
	pop	{r4, r5, r6, r7, r8, lr}
	.cfi_remember_state
	.cfi_restore 14
	.cfi_restore 8
	.cfi_restore 7
	.cfi_restore 6
	.cfi_restore 5
	.cfi_restore 4
	.cfi_def_cfa_offset 0
.LVL43:
	.loc 1 177 3 view .LVU131
	bx	ip	@ indirect register sibling call
.LVL44:
.L24:
	.cfi_restore_state
	.loc 1 179 1 view .LVU132
	pop	{r4, r5, r6, r7, r8, pc}
	.loc 1 179 1 view .LVU133
	.cfi_endproc
.LFE456:
	.size	notify_one, .-notify_one
	.section	.text.process_event,"ax",%progbits
	.align	1
	.syntax unified
	.thumb
	.thumb_func
	.type	process_event, %function
process_event:
.LVL45:
.LFB461:
	.loc 1 301 1 is_stmt 1 view -0
	.cfi_startproc
	@ args = 0, pretend = 0, frame = 0
	@ frame_needed = 0, uses_anonymous_args = 0
	.loc 1 301 1 is_stmt 0 view .LVU135
	push	{r4, r5, r6, r7, r8, r9, r10, lr}
	.cfi_def_cfa_offset 32
	.cfi_offset 4, -32
	.cfi_offset 5, -28
	.cfi_offset 6, -24
	.cfi_offset 7, -20
	.cfi_offset 8, -16
	.cfi_offset 9, -12
	.cfi_offset 10, -8
	.cfi_offset 14, -4
	.loc 1 303 22 view .LVU136
	ldrh	r5, [r0, #24]
	.loc 1 301 1 view .LVU137
	mov	r4, r0
	.loc 1 312 5 view .LVU138
	lsls	r0, r5, #28
.LVL46:
	.loc 1 301 1 view .LVU139
	mov	r8, r2
.LVL47:
	.loc 1 302 2 is_stmt 1 view .LVU140
	.loc 1 303 2 view .LVU141
	.loc 1 304 2 view .LVU142
	.loc 1 305 1 view .LVU143
	.loc 1 307 4 view .LVU144
	.loc 1 307 5 view .LVU145
	.loc 1 312 2 view .LVU146
	.loc 1 312 5 is_stmt 0 view .LVU147
	bmi	.L27
.LBB389:
	.loc 1 328 6 view .LVU148
	cmp	r1, #2
.LBE389:
	.loc 1 303 11 view .LVU149
	and	r5, r5, #7
.LVL48:
	.loc 1 325 2 is_stmt 1 view .LVU150
.LBB493:
	.loc 1 326 3 view .LVU151
	.loc 1 328 3 view .LVU152
	.loc 1 328 6 is_stmt 0 view .LVU153
	bne	.L29
.LVL49:
.L28:
	.loc 1 329 4 is_stmt 1 view .LVU154
	.loc 1 329 10 is_stmt 0 view .LVU155
	mov	r0, r4
	bl	process_recheck
.LVL50:
	.loc 1 332 3 is_stmt 1 view .LVU156
	.loc 1 332 6 is_stmt 0 view .LVU157
	cbz	r0, .L32
.LVL51:
	.loc 1 336 3 is_stmt 1 view .LVU158
	.loc 1 337 3 view .LVU159
	subs	r0, r0, #1
.LBB390:
.LBB391:
	.loc 1 119 14 is_stmt 0 view .LVU160
	ldrh	r1, [r4, #24]
	cmp	r0, #4
	bhi	.L33
	tbb	[pc, r0]
.L35:
	.byte	(.L29-.L35)/2
	.byte	(.L33-.L35)/2
	.byte	(.L37-.L35)/2
	.byte	(.L36-.L35)/2
	.byte	(.L34-.L35)/2
.LVL52:
	.p2align 1
.L27:
	.loc 1 119 14 view .LVU161
.LBE391:
.LBE390:
.LBE493:
	.loc 1 313 3 is_stmt 1 view .LVU162
	.loc 1 313 6 is_stmt 0 view .LVU163
	cmp	r1, #1
	.loc 1 314 4 is_stmt 1 view .LVU164
	.loc 1 314 15 is_stmt 0 view .LVU165
	ite	eq
	orreq	r5, r5, #16
.LVL53:
	.loc 1 316 6 is_stmt 1 view .LVU166
	.loc 1 316 7 view .LVU167
	.loc 1 318 4 view .LVU168
	.loc 1 318 15 is_stmt 0 view .LVU169
	orrne	r5, r5, #32
	strh	r5, [r4, #24]	@ movhi
.LVL54:
.L32:
	.loc 1 418 2 is_stmt 1 view .LVU170
.LBB494:
.LBI494:
	.file 3 "/home/g/mise-work/zmk-firmware/zmk/zephyr/include/zephyr/spinlock.h"
	.loc 3 235 51 view .LVU171
.LBB495:
	.loc 3 238 2 view .LVU172
	.loc 3 261 2 view .LVU173
.LBB496:
.LBI496:
	.file 4 "/home/g/mise-work/zmk-firmware/zmk/zephyr/include/zephyr/arch/arm/asm_inline_gcc.h"
	.loc 4 96 51 view .LVU174
.LBB497:
	.loc 4 107 2 view .LVU175
	.syntax unified
@ 107 "/home/g/mise-work/zmk-firmware/zmk/zephyr/include/zephyr/arch/arm/asm_inline_gcc.h" 1
	msr BASEPRI, r8;isb;
@ 0 "" 2
.LVL55:
	.loc 4 107 2 is_stmt 0 view .LVU176
	.thumb
	.syntax unified
.LBE497:
.LBE496:
.LBE495:
.LBE494:
	.loc 1 419 1 view .LVU177
	pop	{r4, r5, r6, r7, r8, r9, r10, pc}
.LVL56:
.L33:
.LBB498:
	.loc 1 363 6 is_stmt 1 view .LVU178
	.loc 1 363 7 view .LVU179
	.loc 1 371 2 view .LVU180
	.loc 1 371 43 is_stmt 0 view .LVU181
	and	r10, r1, #7
	.loc 1 372 8 view .LVU182
	cmp	r10, r5
	beq	.L38
.LBB394:
.LBB395:
.LBB396:
	.loc 3 261 2 view .LVU183
	movs	r7, #0
	mov	r9, r7
	mov	r6, r7
.LVL57:
.L39:
	.loc 3 261 2 view .LVU184
.LBE396:
.LBE395:
.LBE394:
.LBB442:
.LBI442:
	.loc 2 268 1 is_stmt 1 discriminator 1 view .LVU185
	.loc 2 268 41 discriminator 1 view .LVU186
.LBB443:
.LBI443:
	.loc 2 238 28 discriminator 1 view .LVU187
.LBB444:
	.loc 2 240 2 discriminator 1 view .LVU188
	.loc 2 240 2 is_stmt 0 discriminator 1 view .LVU189
.LBE444:
.LBE443:
.LBE442:
	.loc 1 372 8 discriminator 1 view .LVU190
	ldr	r3, [r4, #8]
	cmp	r3, #0
	beq	.L49
.LBB445:
	.loc 1 378 4 is_stmt 1 view .LVU191
.LVL58:
	.loc 1 380 4 view .LVU192
	.loc 1 378 32 is_stmt 0 view .LVU193
	orr	r1, r1, #8
.LVL59:
	.loc 1 380 15 view .LVU194
	strh	r1, [r4, #24]	@ movhi
	.loc 1 381 4 is_stmt 1 view .LVU195
.LVL60:
	.loc 1 383 4 view .LVU196
.LBB407:
.LBI395:
	.loc 3 235 51 view .LVU197
.LBB403:
	.loc 3 238 2 view .LVU198
	.loc 3 261 2 view .LVU199
.LBB397:
.LBI397:
	.loc 4 96 51 view .LVU200
.LBB398:
	.loc 4 107 2 view .LVU201
	.syntax unified
@ 107 "/home/g/mise-work/zmk-firmware/zmk/zephyr/include/zephyr/arch/arm/asm_inline_gcc.h" 1
	msr BASEPRI, r8;isb;
@ 0 "" 2
.LVL61:
	.loc 4 107 2 is_stmt 0 view .LVU202
	.thumb
	.syntax unified
.LBE398:
.LBE397:
.LBE403:
.LBE407:
	.loc 1 385 4 is_stmt 1 view .LVU203
	.loc 1 386 5 view .LVU204
.LBB408:
.LBI408:
	.loc 1 155 13 view .LVU205
.LBB409:
	.loc 1 159 2 view .LVU206
	.loc 1 160 2 view .LVU207
	.loc 1 161 2 view .LVU208
	.loc 1 163 2 view .LVU209
.LBB410:
.LBI410:
	.loc 2 238 28 view .LVU210
.LBB411:
	.loc 2 240 2 view .LVU211
	.loc 2 240 13 is_stmt 0 view .LVU212
	ldr	r1, [r4, #8]
.LVL62:
	.loc 2 240 13 view .LVU213
.LBE411:
.LBE410:
	.loc 1 163 8 view .LVU214
	cmp	r1, #0
	beq	.L53
.LVL63:
.LBB412:
.LBI412:
	.loc 2 292 29 is_stmt 1 view .LVU215
	.loc 2 292 70 view .LVU216
.LBB413:
.LBI413:
	.loc 2 281 29 view .LVU217
	.loc 2 281 79 view .LVU218
.LBB414:
.LBI414:
	.loc 2 211 28 view .LVU219
.LBB415:
	.loc 2 213 2 view .LVU220
	.loc 2 213 13 is_stmt 0 view .LVU221
	ldr	r5, [r1]
.LVL64:
.L54:
	.loc 2 213 13 view .LVU222
.LBE415:
.LBE414:
.LBE413:
.LBE412:
	.loc 1 163 8 is_stmt 1 view .LVU223
	cmp	r1, #0
	beq	.L53
	.loc 1 164 3 view .LVU224
	ldr	r8, [r1, #4]
	mov	r3, r6
	mov	r2, r10
.LVL65:
	.loc 1 164 3 is_stmt 0 view .LVU225
	mov	r0, r4
	blx	r8
.LVL66:
	.loc 1 163 12 is_stmt 1 view .LVU226
	.loc 1 163 3 is_stmt 0 view .LVU227
	cmp	r5, #0
	beq	.L67
.LVL67:
.LBB416:
.LBI416:
	.loc 2 292 29 is_stmt 1 view .LVU228
	.loc 2 292 70 view .LVU229
.LBB417:
.LBI417:
	.loc 2 281 29 view .LVU230
	.loc 2 281 79 view .LVU231
.LBB418:
.LBI418:
	.loc 2 211 28 view .LVU232
.LBB419:
	.loc 2 213 2 view .LVU233
	.loc 2 213 13 is_stmt 0 view .LVU234
	ldr	r3, [r5]
.LVL68:
.L55:
	.loc 2 213 13 view .LVU235
.LBE419:
.LBE418:
.LBE417:
.LBE416:
	.loc 1 163 3 view .LVU236
	mov	r1, r5
	mov	r5, r3
.LVL69:
	.loc 1 163 3 view .LVU237
	b	.L54
.LVL70:
.L40:
	.loc 1 163 3 view .LVU238
	and	r3, r1, #7
.LBE409:
.LBE408:
.LBE445:
.LBB446:
.LBB447:
	.loc 1 248 9 is_stmt 1 view .LVU239
	.loc 1 249 6 is_stmt 0 view .LVU240
	subs	r2, r3, #5
.LVL71:
	.loc 1 248 12 view .LVU241
	cmp	r2, #1
	bhi	.L42
	.loc 1 250 3 is_stmt 1 view .LVU242
.LBB448:
.LBB449:
	.loc 2 201 13 is_stmt 0 view .LVU243
	movs	r2, #0
.LBE449:
.LBE448:
.LBB452:
.LBB453:
	.loc 1 119 22 view .LVU244
	bic	r1, r1, #7
.LVL72:
	.loc 1 119 22 view .LVU245
.LBE453:
.LBE452:
	.loc 1 253 6 view .LVU246
	cmp	r3, #6
	.loc 1 250 12 view .LVU247
	ldr	r7, [r4]
.LVL73:
	.loc 1 251 3 is_stmt 1 view .LVU248
.LBB456:
.LBI448:
	.loc 2 199 20 view .LVU249
.LBB450:
	.loc 2 201 2 view .LVU250
.LBE450:
.LBE456:
.LBB457:
.LBB454:
	.loc 1 119 22 is_stmt 0 view .LVU251
	uxth	r1, r1
.LBE454:
.LBE457:
.LBB458:
.LBB451:
	.loc 2 202 13 view .LVU252
	strd	r2, r2, [r4]
.LVL74:
	.loc 2 202 13 view .LVU253
.LBE451:
.LBE458:
	.loc 1 253 3 is_stmt 1 view .LVU254
	.loc 1 253 6 is_stmt 0 view .LVU255
	bne	.L44
	mov	r3, r7
	b	.L43
.LVL75:
.L45:
.LBB459:
	.loc 1 260 5 is_stmt 1 view .LVU256
	.loc 1 260 15 is_stmt 0 view .LVU257
	ldrh	r2, [r4, #26]
	adds	r2, r2, #1
	strh	r2, [r4, #26]	@ movhi
	.loc 1 259 8 is_stmt 1 view .LVU258
.LVL76:
.LBB460:
.LBI460:
	.loc 2 292 29 view .LVU259
	.loc 2 292 70 view .LVU260
.LBB461:
.LBI461:
	.loc 2 281 29 view .LVU261
	.loc 2 281 79 view .LVU262
.LBB462:
.LBI462:
	.loc 2 211 28 view .LVU263
.LBB463:
	.loc 2 213 2 view .LVU264
	.loc 2 213 13 is_stmt 0 view .LVU265
	ldr	r3, [r3]
.LVL77:
.L43:
	.loc 2 213 13 view .LVU266
.LBE463:
.LBE462:
.LBE461:
.LBE460:
	.loc 1 259 9 is_stmt 1 view .LVU267
	cmp	r3, #0
	bne	.L45
	.loc 1 263 4 view .LVU268
.LVL78:
.LBB464:
.LBI464:
	.loc 1 115 13 view .LVU269
.LBB465:
	.loc 1 118 2 view .LVU270
	.loc 1 119 8 is_stmt 0 view .LVU271
	orr	r1, r1, #2
.LVL79:
.L44:
	.loc 1 118 13 view .LVU272
	strh	r1, [r4, #24]	@ movhi
.LVL80:
	.loc 1 118 13 view .LVU273
.LBE465:
.LBE464:
.LBE459:
	.loc 1 269 3 is_stmt 1 view .LVU274
	.loc 1 269 7 is_stmt 0 view .LVU275
	mov	r0, r4
	bl	process_recheck
.LVL81:
	.loc 1 269 6 view .LVU276
	cmp	r0, #0
	beq	.L41
	.loc 1 270 4 is_stmt 1 view .LVU277
	.loc 1 270 15 is_stmt 0 view .LVU278
	orr	r1, r1, #32
	b	.L99
.LVL82:
.L42:
	.loc 1 272 9 is_stmt 1 view .LVU279
	.loc 1 272 12 is_stmt 0 view .LVU280
	cmp	r3, #4
	bne	.L47
	.loc 1 278 3 is_stmt 1 view .LVU281
.LVL83:
.LBB466:
.LBI466:
	.loc 1 115 13 view .LVU282
.LBB467:
	.loc 1 118 2 view .LVU283
	.loc 1 119 22 is_stmt 0 view .LVU284
	bic	r1, r1, #7
.LVL84:
	.loc 1 119 22 view .LVU285
	uxth	r1, r1
	.loc 1 118 13 view .LVU286
	strh	r1, [r4, #24]	@ movhi
.LVL85:
	.loc 1 118 13 view .LVU287
.LBE467:
.LBE466:
	.loc 1 279 3 is_stmt 1 view .LVU288
	.loc 1 279 7 is_stmt 0 view .LVU289
	mov	r0, r4
	bl	process_recheck
.LVL86:
	.loc 1 279 6 view .LVU290
	cbz	r0, .L47
	.loc 1 280 4 is_stmt 1 view .LVU291
	.loc 1 280 15 is_stmt 0 view .LVU292
	orr	r1, r1, #32
	strh	r1, [r4, #24]	@ movhi
.L47:
.LVL87:
	.loc 1 280 15 view .LVU293
.LBE447:
.LBE446:
	.loc 1 363 6 is_stmt 1 view .LVU294
	.loc 1 363 7 view .LVU295
	.loc 1 371 2 view .LVU296
	.loc 1 371 35 is_stmt 0 view .LVU297
	ldrh	r1, [r4, #24]
	.loc 1 371 43 view .LVU298
	and	r10, r1, #7
	.loc 1 372 8 view .LVU299
	cmp	r10, r5
	beq	.L38
.LBB474:
.LBB421:
.LBB404:
	.loc 3 261 2 view .LVU300
	movs	r7, #0
.LBE404:
.LBE421:
.LBE474:
	.loc 1 326 23 view .LVU301
	mov	r9, r7
	b	.L39
.LVL88:
.L37:
	.loc 1 342 6 is_stmt 1 view .LVU302
	.loc 1 342 7 view .LVU303
	.loc 1 343 6 view .LVU304
	.loc 1 343 7 view .LVU305
	.loc 1 345 4 view .LVU306
	.loc 1 345 12 is_stmt 0 view .LVU307
	ldr	r3, [r4, #16]
.LBB475:
.LBB392:
	.loc 1 119 22 view .LVU308
	bic	r1, r1, #7
	.loc 1 119 8 view .LVU309
	orr	r1, r1, #6
.LBE392:
.LBE475:
	.loc 1 372 8 view .LVU310
	cmp	r5, #6
	.loc 1 345 12 view .LVU311
	ldr	r9, [r3]
.LVL89:
	.loc 1 346 6 is_stmt 1 view .LVU312
	.loc 1 346 7 view .LVU313
	.loc 1 347 4 view .LVU314
.LBB476:
.LBI390:
	.loc 1 115 13 view .LVU315
.LBB393:
	.loc 1 118 2 view .LVU316
	.loc 1 118 13 is_stmt 0 view .LVU317
	strh	r1, [r4, #24]	@ movhi
.LVL90:
	.loc 1 118 13 view .LVU318
.LBE393:
.LBE476:
	.loc 1 363 6 is_stmt 1 view .LVU319
	.loc 1 363 7 view .LVU320
	.loc 1 371 2 view .LVU321
	.loc 1 372 8 is_stmt 0 view .LVU322
	bne	.L63
.LVL91:
.L48:
	.loc 1 377 7 view .LVU323
	cmp	r9, #0
	beq	.L38
.LBB477:
	.loc 1 378 4 is_stmt 1 view .LVU324
.LVL92:
	.loc 1 380 4 view .LVU325
	.loc 1 378 32 is_stmt 0 view .LVU326
	orr	r1, r1, #8
.LVL93:
	.loc 1 380 15 view .LVU327
	strh	r1, [r4, #24]	@ movhi
	.loc 1 381 4 is_stmt 1 view .LVU328
.LVL94:
	.loc 1 383 4 view .LVU329
.LBB422:
	.loc 3 235 51 view .LVU330
.LBB405:
	.loc 3 238 2 view .LVU331
	.loc 3 261 2 view .LVU332
.LBB401:
	.loc 4 96 51 view .LVU333
.LBB399:
	.loc 4 107 2 view .LVU334
	.syntax unified
@ 107 "/home/g/mise-work/zmk-firmware/zmk/zephyr/include/zephyr/arch/arm/asm_inline_gcc.h" 1
	msr BASEPRI, r8;isb;
@ 0 "" 2
.LVL95:
	.loc 4 107 2 is_stmt 0 view .LVU335
	.thumb
	.syntax unified
.LBE399:
.LBE401:
.LBE405:
.LBE422:
	.loc 1 385 4 is_stmt 1 view .LVU336
	.loc 1 389 4 view .LVU337
	.loc 1 393 4 view .LVU338
.L52:
	.loc 1 394 5 view .LVU339
	ldr	r1, .L100
	mov	r0, r4
	blx	r9
.LVL96:
	.loc 1 394 5 is_stmt 0 view .LVU340
	b	.L60
.LVL97:
.L36:
	.loc 1 394 5 view .LVU341
.LBE477:
	.loc 1 349 6 is_stmt 1 view .LVU342
	.loc 1 349 7 view .LVU343
	.loc 1 350 6 view .LVU344
	.loc 1 350 7 view .LVU345
	.loc 1 352 4 view .LVU346
.LBB478:
.LBB479:
	.loc 1 119 22 is_stmt 0 view .LVU347
	bic	r1, r1, #7
.LBE479:
.LBE478:
	.loc 1 352 12 view .LVU348
	ldr	r3, [r4, #16]
.LBB482:
.LBB480:
	.loc 1 119 8 view .LVU349
	orr	r1, r1, #4
	uxth	r1, r1
.LBE480:
.LBE482:
	.loc 1 372 8 view .LVU350
	cmp	r5, #4
	.loc 1 352 12 view .LVU351
	ldr	r9, [r3, #4]
.LVL98:
	.loc 1 353 6 is_stmt 1 view .LVU352
	.loc 1 353 7 view .LVU353
	.loc 1 354 4 view .LVU354
.LBB483:
.LBI478:
	.loc 1 115 13 view .LVU355
.LBB481:
	.loc 1 118 2 view .LVU356
	.loc 1 118 13 is_stmt 0 view .LVU357
	strh	r1, [r4, #24]	@ movhi
.LVL99:
	.loc 1 118 13 view .LVU358
.LBE481:
.LBE483:
	.loc 1 363 6 is_stmt 1 view .LVU359
	.loc 1 363 7 view .LVU360
	.loc 1 371 2 view .LVU361
	.loc 1 372 8 is_stmt 0 view .LVU362
	beq	.L48
	.loc 1 372 8 view .LVU363
	movs	r7, #0
	.loc 1 336 7 view .LVU364
	mov	r6, r7
	.loc 1 371 43 view .LVU365
	mov	r10, #4
	b	.L39
.LVL100:
.L34:
	.loc 1 356 6 is_stmt 1 view .LVU366
	.loc 1 356 7 view .LVU367
	.loc 1 357 6 view .LVU368
	.loc 1 357 7 view .LVU369
	.loc 1 359 4 view .LVU370
.LBB484:
.LBB485:
	.loc 1 119 22 is_stmt 0 view .LVU371
	bic	r1, r1, #7
.LBE485:
.LBE484:
	.loc 1 359 12 view .LVU372
	ldr	r3, [r4, #16]
.LBB488:
.LBB486:
	.loc 1 119 8 view .LVU373
	orr	r1, r1, #5
	uxth	r1, r1
.LBE486:
.LBE488:
	.loc 1 372 8 view .LVU374
	cmp	r5, #5
	.loc 1 359 12 view .LVU375
	ldr	r9, [r3, #8]
.LVL101:
	.loc 1 360 6 is_stmt 1 view .LVU376
	.loc 1 360 7 view .LVU377
	.loc 1 361 4 view .LVU378
.LBB489:
.LBI484:
	.loc 1 115 13 view .LVU379
.LBB487:
	.loc 1 118 2 view .LVU380
	.loc 1 118 13 is_stmt 0 view .LVU381
	strh	r1, [r4, #24]	@ movhi
.LVL102:
	.loc 1 118 13 view .LVU382
.LBE487:
.LBE489:
	.loc 1 363 6 is_stmt 1 view .LVU383
	.loc 1 363 7 view .LVU384
	.loc 1 371 2 view .LVU385
	.loc 1 372 8 is_stmt 0 view .LVU386
	beq	.L48
	.loc 1 372 8 view .LVU387
	movs	r7, #0
	.loc 1 336 7 view .LVU388
	mov	r6, r7
	.loc 1 371 43 view .LVU389
	mov	r10, #5
	b	.L39
.L63:
	.loc 1 372 8 view .LVU390
	movs	r7, #0
	.loc 1 336 7 view .LVU391
	mov	r6, r7
	.loc 1 371 43 view .LVU392
	mov	r10, #6
	b	.L39
.LVL103:
.L67:
.LBB490:
.LBB423:
.LBB420:
	.loc 1 163 3 view .LVU393
	mov	r3, r5
	b	.L55
.LVL104:
.L57:
	.loc 1 163 3 view .LVU394
.LBE420:
.LBE423:
	.loc 1 393 4 is_stmt 1 view .LVU395
	.loc 1 393 7 is_stmt 0 view .LVU396
	cmp	r9, #0
	bne	.L52
.LVL105:
.L60:
	.loc 1 397 4 is_stmt 1 view .LVU397
.LBB424:
.LBI424:
	.loc 3 160 63 view .LVU398
.LBB425:
	.loc 3 162 2 view .LVU399
	.loc 3 163 2 view .LVU400
	.loc 3 169 2 view .LVU401
.LBB426:
.LBI426:
	.loc 4 42 59 view .LVU402
.LBB427:
	.loc 4 44 2 view .LVU403
	.loc 4 57 2 view .LVU404
	.loc 4 59 2 view .LVU405
	.syntax unified
@ 59 "/home/g/mise-work/zmk-firmware/zmk/zephyr/include/zephyr/arch/arm/asm_inline_gcc.h" 1
	mov r3, #32;mrs r8, BASEPRI;msr BASEPRI_MAX, r3;isb;
@ 0 "" 2
.LVL106:
	.loc 4 88 2 view .LVU406
	.loc 4 88 2 is_stmt 0 view .LVU407
	.thumb
	.syntax unified
.LBE427:
.LBE426:
	.loc 3 171 2 is_stmt 1 view .LVU408
	.loc 3 177 2 view .LVU409
	.loc 3 179 2 view .LVU410
	.loc 3 179 2 is_stmt 0 view .LVU411
.LBE425:
.LBE424:
	.loc 1 398 4 is_stmt 1 view .LVU412
	.loc 1 398 15 is_stmt 0 view .LVU413
	ldrh	r3, [r4, #24]
	bic	r3, r3, #8
	strh	r3, [r4, #24]	@ movhi
.LVL107:
.L38:
	.loc 1 398 15 view .LVU414
.LBE490:
	.loc 1 404 3 is_stmt 1 view .LVU415
	.loc 1 404 11 is_stmt 0 view .LVU416
	ldrh	r5, [r4, #24]
	.loc 1 404 6 view .LVU417
	lsls	r2, r5, #27
.LVL108:
	.loc 1 404 6 view .LVU418
	bpl	.L61
	.loc 1 405 4 is_stmt 1 view .LVU419
	.loc 1 406 4 view .LVU420
.LVL109:
	.loc 1 405 15 is_stmt 0 view .LVU421
	bic	r3, r5, #16
	strh	r3, [r4, #24]	@ movhi
	.loc 1 411 4 is_stmt 1 view .LVU422
	.loc 1 414 3 view .LVU423
	.loc 1 414 9 is_stmt 0 view .LVU424
	and	r5, r5, #7
.LVL110:
	.loc 1 414 9 view .LVU425
.LBE498:
	.loc 1 415 15 is_stmt 1 view .LVU426
	.loc 1 325 2 view .LVU427
.LBB499:
	.loc 1 326 3 view .LVU428
	.loc 1 328 3 view .LVU429
.L29:
	.loc 1 338 4 view .LVU430
	.loc 1 338 8 is_stmt 0 view .LVU431
	ldr	r6, [r4, #20]
.LVL111:
	.loc 1 339 4 is_stmt 1 view .LVU432
.LBB491:
.LBI446:
	.loc 1 237 13 view .LVU433
.LBB473:
	.loc 1 241 2 view .LVU434
	.loc 1 241 22 is_stmt 0 view .LVU435
	ldrh	r1, [r4, #24]
.LVL112:
	.loc 1 243 2 is_stmt 1 view .LVU436
	.loc 1 243 5 is_stmt 0 view .LVU437
	cmp	r6, #0
	bge	.L40
	.loc 1 245 3 is_stmt 1 view .LVU438
.LBB468:
.LBB469:
	.loc 2 201 13 is_stmt 0 view .LVU439
	movs	r3, #0
.LBE469:
.LBE468:
	.loc 1 245 12 view .LVU440
	ldr	r7, [r4]
.LVL113:
	.loc 1 246 3 is_stmt 1 view .LVU441
.LBB471:
.LBI468:
	.loc 2 199 20 view .LVU442
.LBB470:
	.loc 2 201 2 view .LVU443
	.loc 2 202 13 is_stmt 0 view .LVU444
	strd	r3, r3, [r4]
.LVL114:
	.loc 2 202 13 view .LVU445
.LBE470:
.LBE471:
	.loc 1 247 3 is_stmt 1 view .LVU446
.LBB472:
.LBI452:
	.loc 1 115 13 view .LVU447
.LBB455:
	.loc 1 118 2 view .LVU448
	.loc 1 119 22 is_stmt 0 view .LVU449
	bic	r1, r1, #7
.LVL115:
	.loc 1 119 8 view .LVU450
	orr	r1, r1, #1
.LVL116:
.L99:
	.loc 1 119 8 view .LVU451
.LBE455:
.LBE472:
	.loc 1 270 15 view .LVU452
	strh	r1, [r4, #24]	@ movhi
.L41:
.LVL117:
	.loc 1 270 15 view .LVU453
.LBE473:
.LBE491:
	.loc 1 363 6 is_stmt 1 view .LVU454
	.loc 1 363 7 view .LVU455
	.loc 1 371 2 view .LVU456
	.loc 1 371 35 is_stmt 0 view .LVU457
	ldrh	r1, [r4, #24]
	.loc 1 371 43 view .LVU458
	and	r10, r1, #7
	.loc 1 372 8 view .LVU459
	cmp	r10, r5
	mov	r9, #0
	bne	.L39
.LVL118:
.L49:
	.loc 1 374 3 is_stmt 1 discriminator 4 view .LVU460
	.loc 1 375 3 discriminator 4 view .LVU461
	.loc 1 376 7 is_stmt 0 discriminator 4 view .LVU462
	cmp	r7, #0
	beq	.L48
.LVL119:
.LBB492:
	.loc 1 378 4 is_stmt 1 view .LVU463
	.loc 1 380 4 view .LVU464
	.loc 1 378 32 is_stmt 0 view .LVU465
	orr	r1, r1, #8
.LVL120:
	.loc 1 380 15 view .LVU466
	strh	r1, [r4, #24]	@ movhi
	.loc 1 381 4 is_stmt 1 view .LVU467
.LVL121:
	.loc 1 383 4 view .LVU468
.LBB428:
	.loc 3 235 51 view .LVU469
.LBB406:
	.loc 3 238 2 view .LVU470
	.loc 3 261 2 view .LVU471
.LBB402:
	.loc 4 96 51 view .LVU472
.LBB400:
	.loc 4 107 2 view .LVU473
	.syntax unified
@ 107 "/home/g/mise-work/zmk-firmware/zmk/zephyr/include/zephyr/arch/arm/asm_inline_gcc.h" 1
	msr BASEPRI, r8;isb;
@ 0 "" 2
.LVL122:
	.loc 4 107 2 is_stmt 0 view .LVU474
	.thumb
	.syntax unified
.LBE400:
.LBE402:
.LBE406:
.LBE428:
	.loc 1 385 4 is_stmt 1 view .LVU475
	.loc 1 389 4 view .LVU476
.L53:
	.loc 1 389 4 view .LVU477
	.loc 1 389 7 is_stmt 0 view .LVU478
	cmp	r7, #0
	beq	.L57
.LVL123:
.LBB429:
.LBB430:
.LBB431:
	.loc 1 187 3 is_stmt 1 view .LVU479
.LBB432:
.LBI432:
	.loc 2 379 29 view .LVU480
.LBB433:
	.loc 2 379 74 view .LVU481
	.loc 2 379 121 view .LVU482
.LBB434:
.LBI434:
	.loc 2 211 28 view .LVU483
.LBB435:
	.loc 2 213 2 view .LVU484
	.loc 2 213 13 is_stmt 0 view .LVU485
	ldr	r5, [r7]
.LVL124:
	.loc 2 213 13 view .LVU486
.LBE435:
.LBE434:
.LBB436:
.LBI436:
	.loc 2 221 20 is_stmt 1 view .LVU487
.LBB437:
	.loc 2 223 2 view .LVU488
	.loc 2 223 2 is_stmt 0 view .LVU489
.LBE437:
.LBE436:
	.loc 2 379 170 is_stmt 1 view .LVU490
	.loc 2 379 264 view .LVU491
	.loc 2 379 264 is_stmt 0 view .LVU492
.LBE433:
.LBE432:
	.loc 1 188 3 is_stmt 1 view .LVU493
	.loc 1 193 3 view .LVU494
	mov	r1, r7
	mov	r3, r6
	mov	r2, r10
.LVL125:
	.loc 1 193 3 is_stmt 0 view .LVU495
	mov	r0, r4
	bl	notify_one
.LVL126:
.LBB441:
.LBB440:
.LBB439:
.LBB438:
	.loc 2 223 13 view .LVU496
	mov	r7, r5
.LVL127:
	.loc 2 223 13 view .LVU497
.LBE438:
.LBE439:
.LBE440:
.LBE441:
.LBE431:
	.loc 1 186 9 is_stmt 1 view .LVU498
	b	.L53
.LVL128:
.L61:
	.loc 1 186 9 is_stmt 0 view .LVU499
.LBE430:
.LBE429:
.LBE492:
	.loc 1 407 10 is_stmt 1 view .LVU500
	.loc 1 407 13 is_stmt 0 view .LVU501
	lsls	r3, r5, #26
	bpl	.L32
	.loc 1 408 4 is_stmt 1 view .LVU502
	.loc 1 409 4 view .LVU503
.LVL129:
	.loc 1 408 15 is_stmt 0 view .LVU504
	bic	r3, r5, #32
	.loc 1 405 15 view .LVU505
	strh	r3, [r4, #24]	@ movhi
	.loc 1 411 4 is_stmt 1 view .LVU506
	.loc 1 414 3 view .LVU507
	.loc 1 414 9 is_stmt 0 view .LVU508
	and	r5, r5, #7
.LVL130:
	.loc 1 414 9 view .LVU509
.LBE499:
	.loc 1 415 15 is_stmt 1 view .LVU510
	.loc 1 325 2 view .LVU511
.LBB500:
	.loc 1 326 3 view .LVU512
	.loc 1 328 3 view .LVU513
	b	.L28
.L101:
	.align	2
.L100:
	.word	transition_complete
.LBE500:
	.cfi_endproc
.LFE461:
	.size	process_event, .-process_event
	.section	.text.transition_complete,"ax",%progbits
	.align	1
	.syntax unified
	.thumb
	.thumb_func
	.type	transition_complete, %function
transition_complete:
.LVL131:
.LFB458:
	.loc 1 203 1 view -0
	.cfi_startproc
	@ args = 0, pretend = 0, frame = 0
	@ frame_needed = 0, uses_anonymous_args = 0
	@ link register save eliminated.
	.loc 1 204 2 view .LVU515
.LBB501:
.LBI501:
	.loc 3 160 63 view .LVU516
.LBB502:
	.loc 3 162 2 view .LVU517
	.loc 3 163 2 view .LVU518
	.loc 3 169 2 view .LVU519
.LBB503:
.LBI503:
	.loc 4 42 59 view .LVU520
.LBB504:
	.loc 4 44 2 view .LVU521
	.loc 4 57 2 view .LVU522
	.loc 4 59 2 view .LVU523
.LBE504:
.LBE503:
.LBE502:
.LBE501:
	.loc 1 203 1 is_stmt 0 view .LVU524
	push	{r4}
	.cfi_def_cfa_offset 4
	.cfi_offset 4, -4
.LBB508:
.LBB507:
.LBB506:
.LBB505:
	.loc 4 59 2 view .LVU525
	.syntax unified
@ 59 "/home/g/mise-work/zmk-firmware/zmk/zephyr/include/zephyr/arch/arm/asm_inline_gcc.h" 1
	mov r4, #32;mrs r2, BASEPRI;msr BASEPRI_MAX, r4;isb;
@ 0 "" 2
.LVL132:
	.loc 4 88 2 is_stmt 1 view .LVU526
	.loc 4 88 2 is_stmt 0 view .LVU527
	.thumb
	.syntax unified
.LBE505:
.LBE506:
	.loc 3 171 2 is_stmt 1 view .LVU528
	.loc 3 177 2 view .LVU529
	.loc 3 179 2 view .LVU530
	.loc 3 179 2 is_stmt 0 view .LVU531
.LBE507:
.LBE508:
	.loc 1 206 2 is_stmt 1 view .LVU532
	.loc 1 206 16 is_stmt 0 view .LVU533
	str	r1, [r0, #20]
	.loc 1 207 2 is_stmt 1 view .LVU534
	.loc 1 208 1 is_stmt 0 view .LVU535
	ldr	r4, [sp], #4
	.cfi_restore 4
	.cfi_def_cfa_offset 0
	.loc 1 207 2 view .LVU536
	movs	r1, #1
.LVL133:
	.loc 1 207 2 view .LVU537
	b	process_event
.LVL134:
	.loc 1 207 2 view .LVU538
	.cfi_endproc
.LFE458:
	.size	transition_complete, .-transition_complete
	.section	.text.onoff_manager_init,"ax",%progbits
	.align	1
	.global	onoff_manager_init
	.syntax unified
	.thumb
	.thumb_func
	.type	onoff_manager_init, %function
onoff_manager_init:
.LVL135:
.LFB454:
	.loc 1 142 1 is_stmt 1 view -0
	.cfi_startproc
	@ args = 0, pretend = 0, frame = 0
	@ frame_needed = 0, uses_anonymous_args = 0
	.loc 1 143 2 view .LVU540
	.loc 1 142 1 is_stmt 0 view .LVU541
	push	{r3, r4, r5, lr}
	.cfi_def_cfa_offset 16
	.cfi_offset 3, -16
	.cfi_offset 4, -12
	.cfi_offset 5, -8
	.cfi_offset 14, -4
	.loc 1 142 1 view .LVU542
	mov	r4, r1
	.loc 1 143 5 view .LVU543
	mov	r5, r0
	cbz	r0, .L108
	.loc 1 144 6 view .LVU544
	cbz	r1, .L108
	.loc 1 145 6 view .LVU545
	ldr	r3, [r1]
	cbz	r3, .L108
	.loc 1 146 6 view .LVU546
	ldr	r3, [r1, #4]
	cbz	r3, .L108
	.loc 1 150 2 is_stmt 1 view .LVU547
	.loc 1 150 7 is_stmt 0 view .LVU548
	movs	r2, #28
	movs	r1, #0
.LVL136:
	.loc 1 150 7 view .LVU549
	bl	memset
.LVL137:
	.loc 1 150 7 view .LVU550
	str	r4, [r5, #16]
	.loc 1 152 2 is_stmt 1 view .LVU551
	.loc 1 152 9 is_stmt 0 view .LVU552
	movs	r0, #0
.L103:
	.loc 1 153 1 view .LVU553
	pop	{r3, r4, r5, pc}
.LVL138:
.L108:
	.loc 1 147 10 view .LVU554
	mvn	r0, #21
.LVL139:
	.loc 1 147 10 view .LVU555
	b	.L103
	.cfi_endproc
.LFE454:
	.size	onoff_manager_init, .-onoff_manager_init
	.section	.text.onoff_request,"ax",%progbits
	.align	1
	.global	onoff_request
	.syntax unified
	.thumb
	.thumb_func
	.type	onoff_request, %function
onoff_request:
.LVL140:
.LFB462:
	.loc 1 423 1 is_stmt 1 view -0
	.cfi_startproc
	@ args = 0, pretend = 0, frame = 0
	@ frame_needed = 0, uses_anonymous_args = 0
	.loc 1 424 1 view .LVU557
	.loc 1 425 1 view .LVU558
	.loc 1 426 1 view .LVU559
	.loc 1 427 2 view .LVU560
	.loc 1 423 1 is_stmt 0 view .LVU561
	push	{r4, r5, r6, lr}
	.cfi_def_cfa_offset 16
	.cfi_offset 4, -16
	.cfi_offset 5, -12
	.cfi_offset 6, -8
	.cfi_offset 14, -4
	.loc 1 423 1 view .LVU562
	mov	r5, r0
	mov	r6, r1
	.loc 1 427 11 view .LVU563
	bl	validate_args
.LVL141:
	.loc 1 429 2 is_stmt 1 view .LVU564
	.loc 1 429 5 is_stmt 0 view .LVU565
	subs	r4, r0, #0
	blt	.L109
	.loc 1 433 2 is_stmt 1 view .LVU566
.LVL142:
.LBB530:
.LBI530:
	.loc 3 160 63 view .LVU567
.LBB531:
	.loc 3 162 2 view .LVU568
	.loc 3 163 2 view .LVU569
	.loc 3 169 2 view .LVU570
.LBB532:
.LBI532:
	.loc 4 42 59 view .LVU571
.LBB533:
	.loc 4 44 2 view .LVU572
	.loc 4 57 2 view .LVU573
	.loc 4 59 2 view .LVU574
	.syntax unified
@ 59 "/home/g/mise-work/zmk-firmware/zmk/zephyr/include/zephyr/arch/arm/asm_inline_gcc.h" 1
	mov r3, #32;mrs r2, BASEPRI;msr BASEPRI_MAX, r3;isb;
@ 0 "" 2
.LVL143:
	.loc 4 88 2 view .LVU575
	.loc 4 88 2 is_stmt 0 view .LVU576
	.thumb
	.syntax unified
.LBE533:
.LBE532:
	.loc 3 171 2 is_stmt 1 view .LVU577
	.loc 3 177 2 view .LVU578
	.loc 3 179 2 view .LVU579
	.loc 3 179 2 is_stmt 0 view .LVU580
.LBE531:
.LBE530:
	.loc 1 434 2 is_stmt 1 view .LVU581
	.loc 1 437 9 is_stmt 0 view .LVU582
	ldrh	r3, [r5, #26]
	ldrh	r4, [r5, #24]
	.loc 1 437 5 view .LVU583
	movw	r1, #65535
	cmp	r3, r1
	and	r4, r4, #7
.LVL144:
	.loc 1 437 2 is_stmt 1 view .LVU584
	.loc 1 437 5 is_stmt 0 view .LVU585
	bne	.L111
.LVL145:
	.loc 1 465 2 is_stmt 1 view .LVU586
	.loc 1 468 3 view .LVU587
.LBB534:
.LBI534:
	.loc 3 235 51 view .LVU588
	.loc 3 238 2 view .LVU589
	.loc 3 261 2 view .LVU590
.LBB535:
.LBI535:
	.loc 4 96 51 view .LVU591
.LBB536:
	.loc 4 107 2 view .LVU592
	.syntax unified
@ 107 "/home/g/mise-work/zmk-firmware/zmk/zephyr/include/zephyr/arch/arm/asm_inline_gcc.h" 1
	msr BASEPRI, r2;isb;
@ 0 "" 2
.LVL146:
	.loc 4 107 2 is_stmt 0 view .LVU593
	.thumb
	.syntax unified
.LBE536:
.LBE535:
.LBE534:
	.loc 1 470 3 is_stmt 1 view .LVU594
	.loc 1 438 6 is_stmt 0 view .LVU595
	mvn	r4, #10
.LVL147:
.L109:
	.loc 1 476 1 view .LVU596
	mov	r0, r4
	pop	{r4, r5, r6, pc}
.LVL148:
.L111:
	.loc 1 442 2 is_stmt 1 view .LVU597
	.loc 1 443 2 view .LVU598
	.loc 1 443 5 is_stmt 0 view .LVU599
	cmp	r4, #2
	bne	.L112
	.loc 1 445 3 is_stmt 1 view .LVU600
.LVL149:
	.loc 1 446 3 view .LVU601
	.loc 1 446 13 is_stmt 0 view .LVU602
	adds	r3, r3, #1
	strh	r3, [r5, #26]	@ movhi
.LVL150:
	.loc 1 461 2 is_stmt 1 view .LVU603
	.loc 1 465 2 view .LVU604
	.loc 1 468 3 view .LVU605
.LBB547:
	.loc 3 235 51 view .LVU606
	.loc 3 238 2 view .LVU607
	.loc 3 261 2 view .LVU608
.LBB542:
	.loc 4 96 51 view .LVU609
.LBB537:
	.loc 4 107 2 view .LVU610
	.syntax unified
@ 107 "/home/g/mise-work/zmk-firmware/zmk/zephyr/include/zephyr/arch/arm/asm_inline_gcc.h" 1
	msr BASEPRI, r2;isb;
@ 0 "" 2
.LVL151:
	.loc 4 107 2 is_stmt 0 view .LVU611
	.thumb
	.syntax unified
.LBE537:
.LBE542:
.LBE547:
	.loc 1 470 3 is_stmt 1 view .LVU612
	.loc 1 471 4 view .LVU613
	movs	r3, #0
	mov	r2, r4
	mov	r1, r6
	mov	r0, r5
	bl	notify_one
.LVL152:
	b	.L109
.LVL153:
.L112:
	.loc 1 447 9 view .LVU614
	cmp	r4, #6
	bhi	.L113
	tbb	[pc, r4]
.L115:
	.byte	(.L114-.L115)/2
	.byte	(.L113-.L115)/2
	.byte	(.L113-.L115)/2
	.byte	(.L113-.L115)/2
	.byte	(.L114-.L115)/2
	.byte	(.L116-.L115)/2
	.byte	(.L114-.L115)/2
	.p2align 1
.L114:
	.loc 1 451 3 view .LVU615
.LVL154:
	.loc 1 452 3 view .LVU616
	.loc 1 461 2 view .LVU617
	.loc 1 462 3 view .LVU618
.LBB548:
.LBI548:
	.loc 2 318 20 view .LVU619
.LBB549:
	.loc 2 318 77 view .LVU620
.LBB550:
.LBI550:
	.loc 2 216 20 view .LVU621
.LBB551:
	.loc 2 218 2 view .LVU622
	.loc 2 218 15 is_stmt 0 view .LVU623
	movs	r3, #0
	str	r3, [r6]
.LVL155:
	.loc 2 218 15 view .LVU624
.LBE551:
.LBE550:
	.loc 2 318 4 is_stmt 1 view .LVU625
.LBB552:
.LBI552:
	.loc 2 250 28 view .LVU626
.LBB553:
	.loc 2 252 2 view .LVU627
	.loc 2 252 13 is_stmt 0 view .LVU628
	ldr	r3, [r5, #4]
.LVL156:
	.loc 2 252 13 view .LVU629
.LBE553:
.LBE552:
	.loc 2 318 7 view .LVU630
	cbnz	r3, .L117
	.loc 2 318 5 is_stmt 1 view .LVU631
.LVL157:
.LBB554:
.LBI554:
	.loc 2 226 20 view .LVU632
.LBB555:
	.loc 2 228 2 view .LVU633
.LBE555:
.LBE554:
.LBB556:
.LBB557:
	.loc 2 223 13 is_stmt 0 view .LVU634
	strd	r6, r6, [r5]
.LVL158:
.L118:
	.loc 2 223 13 view .LVU635
.LBE557:
.LBE556:
.LBE549:
.LBE548:
	.loc 1 465 2 is_stmt 1 view .LVU636
	.loc 1 465 5 is_stmt 0 view .LVU637
	cbnz	r4, .L119
	.loc 1 466 3 is_stmt 1 view .LVU638
	movs	r1, #2
	mov	r0, r5
	bl	process_event
.LVL159:
	b	.L109
.LVL160:
.L117:
.LBB563:
.LBB562:
	.loc 2 318 74 view .LVU639
.LBB558:
.LBI558:
	.loc 2 216 20 view .LVU640
.LBB559:
	.loc 2 218 2 view .LVU641
	.loc 2 218 15 is_stmt 0 view .LVU642
	str	r6, [r3]
.LVL161:
	.loc 2 218 15 view .LVU643
.LBE559:
.LBE558:
	.loc 2 318 126 is_stmt 1 view .LVU644
.LBB560:
.LBI560:
	.loc 2 226 20 view .LVU645
.LBB561:
	.loc 2 228 2 view .LVU646
	.loc 2 228 13 is_stmt 0 view .LVU647
	str	r6, [r5, #4]
	.loc 2 229 1 view .LVU648
	b	.L118
.LVL162:
.L113:
	.loc 2 229 1 view .LVU649
.LBE561:
.LBE560:
.LBE562:
.LBE563:
	.loc 1 461 2 is_stmt 1 view .LVU650
	.loc 1 465 2 view .LVU651
	.loc 1 468 3 view .LVU652
.LBB564:
	.loc 3 235 51 view .LVU653
	.loc 3 238 2 view .LVU654
	.loc 3 261 2 view .LVU655
.LBB543:
	.loc 4 96 51 view .LVU656
.LBB538:
	.loc 4 107 2 view .LVU657
	.syntax unified
@ 107 "/home/g/mise-work/zmk-firmware/zmk/zephyr/include/zephyr/arch/arm/asm_inline_gcc.h" 1
	msr BASEPRI, r2;isb;
@ 0 "" 2
.LVL163:
	.loc 4 107 2 is_stmt 0 view .LVU658
	.thumb
	.syntax unified
.LBE538:
.LBE543:
.LBE564:
	.loc 1 470 3 is_stmt 1 view .LVU659
	.loc 1 457 6 is_stmt 0 view .LVU660
	mvn	r4, #4
.LVL164:
	.loc 1 457 6 view .LVU661
	b	.L109
.LVL165:
.L116:
	.loc 1 468 3 is_stmt 1 view .LVU662
.LBB565:
	.loc 3 235 51 view .LVU663
	.loc 3 238 2 view .LVU664
	.loc 3 261 2 view .LVU665
.LBB544:
	.loc 4 96 51 view .LVU666
.LBB539:
	.loc 4 107 2 view .LVU667
	.syntax unified
@ 107 "/home/g/mise-work/zmk-firmware/zmk/zephyr/include/zephyr/arch/arm/asm_inline_gcc.h" 1
	msr BASEPRI, r2;isb;
@ 0 "" 2
.LVL166:
	.loc 4 107 2 is_stmt 0 view .LVU668
	.thumb
	.syntax unified
.LBE539:
.LBE544:
.LBE565:
	.loc 1 470 3 is_stmt 1 view .LVU669
.LBB566:
.LBB545:
.LBB540:
	.loc 4 107 2 is_stmt 0 view .LVU670
	mvn	r4, #133
.LVL167:
	.loc 4 107 2 view .LVU671
	b	.L109
.LVL168:
.L119:
	.loc 4 107 2 view .LVU672
.LBE540:
.LBE545:
.LBE566:
	.loc 1 468 3 is_stmt 1 view .LVU673
.LBB567:
	.loc 3 235 51 view .LVU674
	.loc 3 238 2 view .LVU675
	.loc 3 261 2 view .LVU676
.LBB546:
	.loc 4 96 51 view .LVU677
.LBB541:
	.loc 4 107 2 view .LVU678
	.syntax unified
@ 107 "/home/g/mise-work/zmk-firmware/zmk/zephyr/include/zephyr/arch/arm/asm_inline_gcc.h" 1
	msr BASEPRI, r2;isb;
@ 0 "" 2
.LVL169:
	.loc 4 107 2 is_stmt 0 view .LVU679
	.thumb
	.syntax unified
.LBE541:
.LBE546:
.LBE567:
	.loc 1 470 3 is_stmt 1 view .LVU680
	.loc 1 470 3 is_stmt 0 view .LVU681
	b	.L109
	.cfi_endproc
.LFE462:
	.size	onoff_request, .-onoff_request
	.section	.text.onoff_release,"ax",%progbits
	.align	1
	.global	onoff_release
	.syntax unified
	.thumb
	.thumb_func
	.type	onoff_release, %function
onoff_release:
.LVL170:
.LFB463:
	.loc 1 479 1 is_stmt 1 view -0
	.cfi_startproc
	@ args = 0, pretend = 0, frame = 0
	@ frame_needed = 0, uses_anonymous_args = 0
	.loc 1 480 1 view .LVU683
	.loc 1 482 2 view .LVU684
.LBB568:
.LBI568:
	.loc 3 160 63 view .LVU685
.LBB569:
	.loc 3 162 2 view .LVU686
	.loc 3 163 2 view .LVU687
	.loc 3 169 2 view .LVU688
.LBB570:
.LBI570:
	.loc 4 42 59 view .LVU689
.LBB571:
	.loc 4 44 2 view .LVU690
	.loc 4 57 2 view .LVU691
	.loc 4 59 2 view .LVU692
.LBE571:
.LBE570:
.LBE569:
.LBE568:
	.loc 1 479 1 is_stmt 0 view .LVU693
	push	{r4, lr}
	.cfi_def_cfa_offset 8
	.cfi_offset 4, -8
	.cfi_offset 14, -4
.LBB575:
.LBB574:
.LBB573:
.LBB572:
	.loc 4 59 2 view .LVU694
	.syntax unified
@ 59 "/home/g/mise-work/zmk-firmware/zmk/zephyr/include/zephyr/arch/arm/asm_inline_gcc.h" 1
	mov r3, #32;mrs r2, BASEPRI;msr BASEPRI_MAX, r3;isb;
@ 0 "" 2
.LVL171:
	.loc 4 88 2 is_stmt 1 view .LVU695
	.loc 4 88 2 is_stmt 0 view .LVU696
	.thumb
	.syntax unified
.LBE572:
.LBE573:
	.loc 3 171 2 is_stmt 1 view .LVU697
	.loc 3 177 2 view .LVU698
	.loc 3 179 2 view .LVU699
	.loc 3 179 2 is_stmt 0 view .LVU700
.LBE574:
.LBE575:
	.loc 1 483 2 is_stmt 1 view .LVU701
	ldrh	r4, [r0, #24]
	and	r4, r4, #7
.LVL172:
	.loc 1 484 2 view .LVU702
	.loc 1 486 2 view .LVU703
	.loc 1 486 5 is_stmt 0 view .LVU704
	cmp	r4, #2
	beq	.L121
	.loc 1 487 3 is_stmt 1 view .LVU705
	.loc 1 490 7 is_stmt 0 view .LVU706
	cmp	r4, #1
	ite	eq
	mvneq	r0, #4
.LVL173:
	.loc 1 490 7 view .LVU707
	mvnne	r0, #133
.LVL174:
.L123:
	.loc 1 503 3 is_stmt 1 view .LVU708
.LBB576:
.LBI576:
	.loc 3 235 51 view .LVU709
	.loc 3 238 2 view .LVU710
	.loc 3 261 2 view .LVU711
.LBB577:
.LBI577:
	.loc 4 96 51 view .LVU712
.LBB578:
	.loc 4 107 2 view .LVU713
	.syntax unified
@ 107 "/home/g/mise-work/zmk-firmware/zmk/zephyr/include/zephyr/arch/arm/asm_inline_gcc.h" 1
	msr BASEPRI, r2;isb;
@ 0 "" 2
.LVL175:
	.loc 4 107 2 is_stmt 0 view .LVU714
	.thumb
	.syntax unified
.LBE578:
.LBE577:
.LBE576:
	.loc 1 506 2 is_stmt 1 view .LVU715
	.loc 1 506 9 is_stmt 0 view .LVU716
	b	.L120
.LVL176:
.L121:
	.loc 1 495 4 is_stmt 1 view .LVU717
	.loc 1 495 5 view .LVU718
	.loc 1 496 2 view .LVU719
	.loc 1 496 12 is_stmt 0 view .LVU720
	ldrh	r3, [r0, #26]
	subs	r3, r3, #1
	uxth	r3, r3
	strh	r3, [r0, #26]	@ movhi
	.loc 1 497 2 is_stmt 1 view .LVU721
.LDL1:
.LVL177:
	.loc 1 500 2 view .LVU722
	.loc 1 500 5 is_stmt 0 view .LVU723
	cbnz	r3, .L125
	.loc 1 501 3 is_stmt 1 view .LVU724
	mov	r1, r4
	bl	process_event
.LVL178:
	.loc 1 484 6 is_stmt 0 view .LVU725
	mov	r0, r4
.LVL179:
.L120:
	.loc 1 507 1 view .LVU726
	pop	{r4, pc}
.LVL180:
.L125:
	.loc 1 484 6 view .LVU727
	mov	r0, r4
.LVL181:
	.loc 1 484 6 view .LVU728
	b	.L123
	.cfi_endproc
.LFE463:
	.size	onoff_release, .-onoff_release
	.section	.text.onoff_reset,"ax",%progbits
	.align	1
	.global	onoff_reset
	.syntax unified
	.thumb
	.thumb_func
	.type	onoff_reset, %function
onoff_reset:
.LVL182:
.LFB464:
	.loc 1 511 1 is_stmt 1 view -0
	.cfi_startproc
	@ args = 0, pretend = 0, frame = 0
	@ frame_needed = 0, uses_anonymous_args = 0
	.loc 1 512 1 view .LVU730
	.loc 1 513 2 view .LVU731
	.loc 1 511 1 is_stmt 0 view .LVU732
	push	{r4, r5, r6, lr}
	.cfi_def_cfa_offset 16
	.cfi_offset 4, -16
	.cfi_offset 5, -12
	.cfi_offset 6, -8
	.cfi_offset 14, -4
	.loc 1 511 1 view .LVU733
	mov	r5, r0
	mov	r6, r1
	.loc 1 513 11 view .LVU734
	bl	validate_args
.LVL183:
	.loc 1 515 2 is_stmt 1 view .LVU735
	.loc 1 515 5 is_stmt 0 view .LVU736
	subs	r4, r0, #0
	blt	.L126
	.loc 1 516 26 view .LVU737
	ldr	r3, [r5, #16]
	.loc 1 516 6 view .LVU738
	ldr	r3, [r3, #8]
	cbz	r3, .L131
	.loc 1 520 2 is_stmt 1 view .LVU739
	.loc 1 524 2 view .LVU740
.LVL184:
.LBB600:
.LBI600:
	.loc 3 160 63 view .LVU741
.LBB601:
	.loc 3 162 2 view .LVU742
	.loc 3 163 2 view .LVU743
	.loc 3 169 2 view .LVU744
.LBB602:
.LBI602:
	.loc 4 42 59 view .LVU745
.LBB603:
	.loc 4 44 2 view .LVU746
	.loc 4 57 2 view .LVU747
	.loc 4 59 2 view .LVU748
	.syntax unified
@ 59 "/home/g/mise-work/zmk-firmware/zmk/zephyr/include/zephyr/arch/arm/asm_inline_gcc.h" 1
	mov r3, #32;mrs r2, BASEPRI;msr BASEPRI_MAX, r3;isb;
@ 0 "" 2
.LVL185:
	.loc 4 88 2 view .LVU749
	.loc 4 88 2 is_stmt 0 view .LVU750
	.thumb
	.syntax unified
.LBE603:
.LBE602:
	.loc 3 171 2 is_stmt 1 view .LVU751
	.loc 3 177 2 view .LVU752
	.loc 3 179 2 view .LVU753
	.loc 3 179 2 is_stmt 0 view .LVU754
.LBE601:
.LBE600:
	.loc 1 525 2 is_stmt 1 view .LVU755
	.loc 1 525 22 is_stmt 0 view .LVU756
	ldrh	r4, [r5, #24]
.LVL186:
	.loc 1 527 2 is_stmt 1 view .LVU757
	.loc 1 529 2 view .LVU758
	.loc 1 529 5 is_stmt 0 view .LVU759
	lsls	r3, r4, #31
	bpl	.L132
	.loc 1 532 3 is_stmt 1 view .LVU760
.LVL187:
	.loc 1 533 3 view .LVU761
.LBB604:
.LBI604:
	.loc 2 318 20 view .LVU762
.LBB605:
	.loc 2 318 77 view .LVU763
.LBB606:
.LBI606:
	.loc 2 216 20 view .LVU764
.LBB607:
	.loc 2 218 2 view .LVU765
	.loc 2 218 15 is_stmt 0 view .LVU766
	movs	r3, #0
	str	r3, [r6]
.LVL188:
	.loc 2 218 15 view .LVU767
.LBE607:
.LBE606:
	.loc 2 318 4 is_stmt 1 view .LVU768
.LBB608:
.LBI608:
	.loc 2 250 28 view .LVU769
.LBB609:
	.loc 2 252 2 view .LVU770
	.loc 2 252 13 is_stmt 0 view .LVU771
	ldr	r3, [r5, #4]
.LVL189:
	.loc 2 252 13 view .LVU772
.LBE609:
.LBE608:
	.loc 2 318 7 view .LVU773
	cbnz	r3, .L129
	.loc 2 318 5 is_stmt 1 view .LVU774
.LVL190:
.LBB610:
.LBI610:
	.loc 2 226 20 view .LVU775
.LBB611:
	.loc 2 228 2 view .LVU776
.LBE611:
.LBE610:
.LBB612:
.LBB613:
	.loc 2 223 13 is_stmt 0 view .LVU777
	strd	r6, r6, [r5]
.LVL191:
.L130:
	.loc 2 223 13 view .LVU778
	and	r4, r4, #7
.LVL192:
	.loc 2 223 13 view .LVU779
.LBE613:
.LBE612:
.LBE605:
.LBE604:
	.loc 1 536 2 is_stmt 1 view .LVU780
	.loc 1 536 5 is_stmt 0 view .LVU781
	cmp	r4, #5
	beq	.L128
	.loc 1 537 3 is_stmt 1 view .LVU782
	movs	r1, #2
	mov	r0, r5
	bl	process_event
.LVL193:
.L126:
	.loc 1 543 1 is_stmt 0 view .LVU783
	mov	r0, r4
	pop	{r4, r5, r6, pc}
.LVL194:
.L129:
.LBB619:
.LBB618:
	.loc 2 318 74 is_stmt 1 view .LVU784
.LBB614:
.LBI614:
	.loc 2 216 20 view .LVU785
.LBB615:
	.loc 2 218 2 view .LVU786
	.loc 2 218 15 is_stmt 0 view .LVU787
	str	r6, [r3]
.LVL195:
	.loc 2 218 15 view .LVU788
.LBE615:
.LBE614:
	.loc 2 318 126 is_stmt 1 view .LVU789
.LBB616:
.LBI616:
	.loc 2 226 20 view .LVU790
.LBB617:
	.loc 2 228 2 view .LVU791
	.loc 2 228 13 is_stmt 0 view .LVU792
	str	r6, [r5, #4]
	.loc 2 229 1 view .LVU793
	b	.L130
.LVL196:
.L132:
	.loc 2 229 1 view .LVU794
.LBE617:
.LBE616:
.LBE618:
.LBE619:
	.loc 1 530 6 view .LVU795
	mvn	r4, #119
.LVL197:
.L128:
	.loc 1 539 3 is_stmt 1 view .LVU796
.LBB620:
.LBI620:
	.loc 3 235 51 view .LVU797
	.loc 3 238 2 view .LVU798
	.loc 3 261 2 view .LVU799
.LBB621:
.LBI621:
	.loc 4 96 51 view .LVU800
.LBB622:
	.loc 4 107 2 view .LVU801
	.syntax unified
@ 107 "/home/g/mise-work/zmk-firmware/zmk/zephyr/include/zephyr/arch/arm/asm_inline_gcc.h" 1
	msr BASEPRI, r2;isb;
@ 0 "" 2
.LVL198:
	.loc 4 107 2 is_stmt 0 view .LVU802
	.thumb
	.syntax unified
	b	.L126
.LVL199:
.L131:
	.loc 4 107 2 view .LVU803
.LBE622:
.LBE621:
.LBE620:
	.loc 1 517 6 view .LVU804
	mvn	r4, #133
.LVL200:
	.loc 1 517 6 view .LVU805
	b	.L126
	.cfi_endproc
.LFE464:
	.size	onoff_reset, .-onoff_reset
	.section	.text.onoff_cancel,"ax",%progbits
	.align	1
	.global	onoff_cancel
	.syntax unified
	.thumb
	.thumb_func
	.type	onoff_cancel, %function
onoff_cancel:
.LVL201:
.LFB465:
	.loc 1 547 1 is_stmt 1 view -0
	.cfi_startproc
	@ args = 0, pretend = 0, frame = 0
	@ frame_needed = 0, uses_anonymous_args = 0
	.loc 1 548 2 view .LVU807
	.loc 1 547 1 is_stmt 0 view .LVU808
	push	{r3, r4, r5, lr}
	.cfi_def_cfa_offset 16
	.cfi_offset 3, -16
	.cfi_offset 4, -12
	.cfi_offset 5, -8
	.cfi_offset 14, -4
	.loc 1 548 5 view .LVU809
	cbz	r0, .L138
	.loc 1 548 19 discriminator 1 view .LVU810
	cbz	r1, .L138
	.loc 1 552 2 is_stmt 1 view .LVU811
.LVL202:
	.loc 1 553 2 view .LVU812
.LBB623:
.LBI623:
	.loc 3 160 63 view .LVU813
.LBB624:
	.loc 3 162 2 view .LVU814
	.loc 3 163 2 view .LVU815
	.loc 3 169 2 view .LVU816
.LBB625:
.LBI625:
	.loc 4 42 59 view .LVU817
.LBB626:
	.loc 4 44 2 view .LVU818
	.loc 4 57 2 view .LVU819
	.loc 4 59 2 view .LVU820
	.syntax unified
@ 59 "/home/g/mise-work/zmk-firmware/zmk/zephyr/include/zephyr/arch/arm/asm_inline_gcc.h" 1
	mov r2, #32;mrs r5, BASEPRI;msr BASEPRI_MAX, r2;isb;
@ 0 "" 2
.LVL203:
	.loc 4 88 2 view .LVU821
	.loc 4 88 2 is_stmt 0 view .LVU822
	.thumb
	.syntax unified
.LBE626:
.LBE625:
	.loc 3 171 2 is_stmt 1 view .LVU823
	.loc 3 177 2 view .LVU824
	.loc 3 179 2 view .LVU825
	.loc 3 179 2 is_stmt 0 view .LVU826
.LBE624:
.LBE623:
	.loc 1 554 2 is_stmt 1 view .LVU827
	.loc 1 554 22 is_stmt 0 view .LVU828
	ldrh	r4, [r0, #24]
.LVL204:
	.loc 1 556 2 is_stmt 1 view .LVU829
	.loc 1 556 6 is_stmt 0 view .LVU830
	bl	sys_slist_find_and_remove
.LVL205:
	.loc 1 556 5 view .LVU831
	cbz	r0, .L139
	.loc 1 557 5 is_stmt 1 view .LVU832
	.loc 1 559 41 view .LVU833
	.loc 1 560 3 view .LVU834
	.loc 1 560 6 is_stmt 0 view .LVU835
	and	r0, r4, #7
.LVL206:
.L136:
	.loc 1 563 2 is_stmt 1 view .LVU836
.LBB627:
.LBI627:
	.loc 3 235 51 view .LVU837
	.loc 3 238 2 view .LVU838
	.loc 3 261 2 view .LVU839
.LBB628:
.LBI628:
	.loc 4 96 51 view .LVU840
.LBB629:
	.loc 4 107 2 view .LVU841
	.syntax unified
@ 107 "/home/g/mise-work/zmk-firmware/zmk/zephyr/include/zephyr/arch/arm/asm_inline_gcc.h" 1
	msr BASEPRI, r5;isb;
@ 0 "" 2
.LVL207:
	.loc 4 107 2 is_stmt 0 view .LVU842
	.thumb
	.syntax unified
.LBE629:
.LBE628:
.LBE627:
	.loc 1 565 2 is_stmt 1 view .LVU843
.L134:
	.loc 1 566 1 is_stmt 0 view .LVU844
	pop	{r3, r4, r5, pc}
.LVL208:
.L139:
	.loc 1 552 6 view .LVU845
	mvn	r0, #119
	b	.L136
.LVL209:
.L138:
	.loc 1 549 10 view .LVU846
	mvn	r0, #21
.LVL210:
	.loc 1 549 10 view .LVU847
	b	.L134
	.cfi_endproc
.LFE465:
	.size	onoff_cancel, .-onoff_cancel
	.section	.text.onoff_monitor_register,"ax",%progbits
	.align	1
	.global	onoff_monitor_register
	.syntax unified
	.thumb
	.thumb_func
	.type	onoff_monitor_register, %function
onoff_monitor_register:
.LVL211:
.LFB466:
	.loc 1 570 1 is_stmt 1 view -0
	.cfi_startproc
	@ args = 0, pretend = 0, frame = 0
	@ frame_needed = 0, uses_anonymous_args = 0
	@ link register save eliminated.
	.loc 1 571 2 view .LVU849
	.loc 1 571 5 is_stmt 0 view .LVU850
	cbz	r0, .L146
	.loc 1 572 6 view .LVU851
	cbz	r1, .L146
	.loc 1 573 6 view .LVU852
	ldr	r3, [r1, #4]
	cbz	r3, .L146
	.loc 1 577 2 is_stmt 1 view .LVU853
.LVL212:
.LBB651:
.LBI651:
	.loc 3 160 63 view .LVU854
.LBB652:
	.loc 3 162 2 view .LVU855
	.loc 3 163 2 view .LVU856
	.loc 3 169 2 view .LVU857
.LBB653:
.LBI653:
	.loc 4 42 59 view .LVU858
.LBB654:
	.loc 4 44 2 view .LVU859
	.loc 4 57 2 view .LVU860
	.loc 4 59 2 view .LVU861
	.syntax unified
@ 59 "/home/g/mise-work/zmk-firmware/zmk/zephyr/include/zephyr/arch/arm/asm_inline_gcc.h" 1
	mov r3, #32;mrs r2, BASEPRI;msr BASEPRI_MAX, r3;isb;
@ 0 "" 2
.LVL213:
	.loc 4 88 2 view .LVU862
	.loc 4 88 2 is_stmt 0 view .LVU863
	.thumb
	.syntax unified
.LBE654:
.LBE653:
	.loc 3 171 2 is_stmt 1 view .LVU864
	.loc 3 177 2 view .LVU865
	.loc 3 179 2 view .LVU866
	.loc 3 179 2 is_stmt 0 view .LVU867
.LBE652:
.LBE651:
	.loc 1 579 2 is_stmt 1 view .LVU868
.LBB655:
.LBI655:
	.loc 2 318 20 view .LVU869
.LBB656:
	.loc 2 318 77 view .LVU870
.LBB657:
.LBI657:
	.loc 2 216 20 view .LVU871
.LBB658:
	.loc 2 218 2 view .LVU872
	.loc 2 218 15 is_stmt 0 view .LVU873
	movs	r3, #0
	str	r3, [r1]
.LVL214:
	.loc 2 218 15 view .LVU874
.LBE658:
.LBE657:
	.loc 2 318 4 is_stmt 1 view .LVU875
.LBB659:
.LBI659:
	.loc 2 250 28 view .LVU876
.LBB660:
	.loc 2 252 2 view .LVU877
	.loc 2 252 13 is_stmt 0 view .LVU878
	ldr	r3, [r0, #12]
.LVL215:
	.loc 2 252 13 view .LVU879
.LBE660:
.LBE659:
	.loc 2 318 7 view .LVU880
	cbnz	r3, .L142
	.loc 2 318 5 is_stmt 1 view .LVU881
.LVL216:
.LBB661:
.LBI661:
	.loc 2 226 20 view .LVU882
.LBB662:
	.loc 2 228 2 view .LVU883
.LBE662:
.LBE661:
.LBB663:
.LBB664:
	.loc 2 223 13 is_stmt 0 view .LVU884
	strd	r1, r1, [r0, #8]
.LVL217:
.L143:
	.loc 2 223 13 view .LVU885
.LBE664:
.LBE663:
.LBE656:
.LBE655:
	.loc 1 581 2 is_stmt 1 view .LVU886
.LBB670:
.LBI670:
	.loc 3 235 51 view .LVU887
	.loc 3 238 2 view .LVU888
	.loc 3 261 2 view .LVU889
.LBB671:
.LBI671:
	.loc 4 96 51 view .LVU890
.LBB672:
	.loc 4 107 2 view .LVU891
	.syntax unified
@ 107 "/home/g/mise-work/zmk-firmware/zmk/zephyr/include/zephyr/arch/arm/asm_inline_gcc.h" 1
	msr BASEPRI, r2;isb;
@ 0 "" 2
.LVL218:
	.loc 4 107 2 is_stmt 0 view .LVU892
	.thumb
	.syntax unified
.LBE672:
.LBE671:
.LBE670:
	.loc 1 583 2 is_stmt 1 view .LVU893
	.loc 1 583 9 is_stmt 0 view .LVU894
	movs	r0, #0
.LVL219:
	.loc 1 583 9 view .LVU895
	bx	lr
.LVL220:
.L142:
.LBB673:
.LBB669:
	.loc 2 318 74 is_stmt 1 view .LVU896
.LBB665:
.LBI665:
	.loc 2 216 20 view .LVU897
.LBB666:
	.loc 2 218 2 view .LVU898
	.loc 2 218 15 is_stmt 0 view .LVU899
	str	r1, [r3]
.LVL221:
	.loc 2 218 15 view .LVU900
.LBE666:
.LBE665:
	.loc 2 318 126 is_stmt 1 view .LVU901
.LBB667:
.LBI667:
	.loc 2 226 20 view .LVU902
.LBB668:
	.loc 2 228 2 view .LVU903
	.loc 2 228 13 is_stmt 0 view .LVU904
	str	r1, [r0, #12]
	.loc 2 229 1 view .LVU905
	b	.L143
.LVL222:
.L146:
	.loc 2 229 1 view .LVU906
.LBE668:
.LBE667:
.LBE669:
.LBE673:
	.loc 1 574 10 view .LVU907
	mvn	r0, #21
.LVL223:
	.loc 1 584 1 view .LVU908
	bx	lr
	.cfi_endproc
.LFE466:
	.size	onoff_monitor_register, .-onoff_monitor_register
	.section	.text.onoff_monitor_unregister,"ax",%progbits
	.align	1
	.global	onoff_monitor_unregister
	.syntax unified
	.thumb
	.thumb_func
	.type	onoff_monitor_unregister, %function
onoff_monitor_unregister:
.LVL224:
.LFB467:
	.loc 1 588 1 is_stmt 1 view -0
	.cfi_startproc
	@ args = 0, pretend = 0, frame = 0
	@ frame_needed = 0, uses_anonymous_args = 0
	.loc 1 589 2 view .LVU910
	.loc 1 591 2 view .LVU911
	.loc 1 588 1 is_stmt 0 view .LVU912
	push	{r4, lr}
	.cfi_def_cfa_offset 8
	.cfi_offset 4, -8
	.cfi_offset 14, -4
	.loc 1 591 5 view .LVU913
	cbz	r0, .L151
	.loc 1 592 6 view .LVU914
	cbz	r1, .L151
	.loc 1 596 2 is_stmt 1 view .LVU915
.LVL225:
.LBB674:
.LBI674:
	.loc 3 160 63 view .LVU916
.LBB675:
	.loc 3 162 2 view .LVU917
	.loc 3 163 2 view .LVU918
	.loc 3 169 2 view .LVU919
.LBB676:
.LBI676:
	.loc 4 42 59 view .LVU920
.LBB677:
	.loc 4 44 2 view .LVU921
	.loc 4 57 2 view .LVU922
	.loc 4 59 2 view .LVU923
	.syntax unified
@ 59 "/home/g/mise-work/zmk-firmware/zmk/zephyr/include/zephyr/arch/arm/asm_inline_gcc.h" 1
	mov r3, #32;mrs r4, BASEPRI;msr BASEPRI_MAX, r3;isb;
@ 0 "" 2
.LVL226:
	.loc 4 88 2 view .LVU924
	.loc 4 88 2 is_stmt 0 view .LVU925
	.thumb
	.syntax unified
.LBE677:
.LBE676:
	.loc 3 171 2 is_stmt 1 view .LVU926
	.loc 3 177 2 view .LVU927
	.loc 3 179 2 view .LVU928
	.loc 3 179 2 is_stmt 0 view .LVU929
.LBE675:
.LBE674:
	.loc 1 598 2 is_stmt 1 view .LVU930
	.loc 1 598 6 is_stmt 0 view .LVU931
	adds	r0, r0, #8
.LVL227:
	.loc 1 598 6 view .LVU932
	bl	sys_slist_find_and_remove
.LVL228:
	.loc 1 589 6 view .LVU933
	cmp	r0, #0
	ite	ne
	movne	r0, #0
	mvneq	r0, #21
.LVL229:
	.loc 1 602 2 is_stmt 1 view .LVU934
.LBB678:
.LBI678:
	.loc 3 235 51 view .LVU935
	.loc 3 238 2 view .LVU936
	.loc 3 261 2 view .LVU937
.LBB679:
.LBI679:
	.loc 4 96 51 view .LVU938
.LBB680:
	.loc 4 107 2 view .LVU939
	.syntax unified
@ 107 "/home/g/mise-work/zmk-firmware/zmk/zephyr/include/zephyr/arch/arm/asm_inline_gcc.h" 1
	msr BASEPRI, r4;isb;
@ 0 "" 2
.LVL230:
	.loc 4 107 2 is_stmt 0 view .LVU940
	.thumb
	.syntax unified
.LBE680:
.LBE679:
.LBE678:
	.loc 1 604 2 is_stmt 1 view .LVU941
.L147:
	.loc 1 605 1 is_stmt 0 view .LVU942
	pop	{r4, pc}
.LVL231:
.L151:
	.loc 1 593 10 view .LVU943
	mvn	r0, #21
.LVL232:
	.loc 1 593 10 view .LVU944
	b	.L147
	.cfi_endproc
.LFE467:
	.size	onoff_monitor_unregister, .-onoff_monitor_unregister
	.section	.text.onoff_sync_lock,"ax",%progbits
	.align	1
	.global	onoff_sync_lock
	.syntax unified
	.thumb
	.thumb_func
	.type	onoff_sync_lock, %function
onoff_sync_lock:
.LVL233:
.LFB468:
	.loc 1 609 1 is_stmt 1 view -0
	.cfi_startproc
	@ args = 0, pretend = 0, frame = 0
	@ frame_needed = 0, uses_anonymous_args = 0
	@ link register save eliminated.
	.loc 1 610 2 view .LVU946
.LBB681:
.LBI681:
	.loc 3 160 63 view .LVU947
.LBB682:
	.loc 3 162 2 view .LVU948
	.loc 3 163 2 view .LVU949
	.loc 3 169 2 view .LVU950
.LBB683:
.LBI683:
	.loc 4 42 59 view .LVU951
.LBB684:
	.loc 4 44 2 view .LVU952
	.loc 4 57 2 view .LVU953
	.loc 4 59 2 view .LVU954
	.syntax unified
@ 59 "/home/g/mise-work/zmk-firmware/zmk/zephyr/include/zephyr/arch/arm/asm_inline_gcc.h" 1
	mov r2, #32;mrs r3, BASEPRI;msr BASEPRI_MAX, r2;isb;
@ 0 "" 2
.LVL234:
	.loc 4 88 2 view .LVU955
	.loc 4 88 2 is_stmt 0 view .LVU956
	.thumb
	.syntax unified
.LBE684:
.LBE683:
	.loc 3 171 2 is_stmt 1 view .LVU957
	.loc 3 177 2 view .LVU958
	.loc 3 179 2 view .LVU959
	.loc 3 179 2 is_stmt 0 view .LVU960
.LBE682:
.LBE681:
	.loc 1 610 10 view .LVU961
	str	r3, [r1]
	.loc 1 611 2 is_stmt 1 view .LVU962
	.loc 1 612 1 is_stmt 0 view .LVU963
	ldr	r0, [r0]
.LVL235:
	.loc 1 612 1 view .LVU964
	bx	lr
	.cfi_endproc
.LFE468:
	.size	onoff_sync_lock, .-onoff_sync_lock
	.section	.text.onoff_sync_finalize,"ax",%progbits
	.align	1
	.global	onoff_sync_finalize
	.syntax unified
	.thumb
	.thumb_func
	.type	onoff_sync_finalize, %function
onoff_sync_finalize:
.LVL236:
.LFB469:
	.loc 1 619 1 is_stmt 1 view -0
	.cfi_startproc
	@ args = 4, pretend = 0, frame = 0
	@ frame_needed = 0, uses_anonymous_args = 0
	.loc 1 620 2 view .LVU966
	.loc 1 626 2 view .LVU967
	.loc 1 619 1 is_stmt 0 view .LVU968
	push	{r3, r4, r5, lr}
	.cfi_def_cfa_offset 16
	.cfi_offset 3, -16
	.cfi_offset 4, -12
	.cfi_offset 5, -8
	.cfi_offset 14, -4
	.loc 1 626 5 view .LVU969
	ldr	r4, [r0]
	cmp	r4, #0
	.loc 1 627 3 is_stmt 1 view .LVU970
	.loc 1 627 14 is_stmt 0 view .LVU971
	itt	lt
	movlt	r4, #0
	strlt	r4, [r0]
	.loc 1 629 2 is_stmt 1 view .LVU972
	.loc 1 629 5 is_stmt 0 view .LVU973
	cmp	r3, #0
	.loc 1 619 1 view .LVU974
	mov	r5, r1
.LVL237:
	.loc 1 619 1 view .LVU975
	mov	r1, r2
	ldrb	r2, [sp, #16]	@ zero_extendqisi2
.LVL238:
	.loc 1 629 5 view .LVU976
	blt	.L159
	.loc 1 632 9 is_stmt 1 view .LVU977
	.loc 1 633 6 is_stmt 0 view .LVU978
	ldr	r4, [r0]
	.loc 1 632 12 view .LVU979
	cbz	r2, .L157
	.loc 1 633 3 is_stmt 1 view .LVU980
	.loc 1 633 14 is_stmt 0 view .LVU981
	adds	r4, r4, #1
.L163:
	.loc 1 620 11 view .LVU982
	movs	r2, #2
.L156:
.LVL239:
	.loc 1 630 14 view .LVU983
	str	r4, [r0]
.LVL240:
	.loc 1 642 2 is_stmt 1 view .LVU984
	.loc 1 644 2 view .LVU985
.LBB685:
.LBI685:
	.loc 3 235 51 view .LVU986
.LBB686:
	.loc 3 238 2 view .LVU987
	.loc 3 261 2 view .LVU988
.LBB687:
.LBI687:
	.loc 4 96 51 view .LVU989
.LBB688:
	.loc 4 107 2 view .LVU990
	.syntax unified
@ 107 "/home/g/mise-work/zmk-firmware/zmk/zephyr/include/zephyr/arch/arm/asm_inline_gcc.h" 1
	msr BASEPRI, r5;isb;
@ 0 "" 2
.LVL241:
	.loc 4 107 2 is_stmt 0 view .LVU991
	.thumb
	.syntax unified
.LBE688:
.LBE687:
.LBE686:
.LBE685:
	.loc 1 646 2 is_stmt 1 view .LVU992
	.loc 1 646 5 is_stmt 0 view .LVU993
	cbz	r1, .L154
	.loc 1 650 5 is_stmt 1 view .LVU994
	.loc 1 650 6 view .LVU995
	.loc 1 651 3 view .LVU996
	movs	r0, #0
.LVL242:
	.loc 1 651 3 is_stmt 0 view .LVU997
	bl	notify_one
.LVL243:
	.loc 1 654 2 is_stmt 1 view .LVU998
.L154:
	.loc 1 655 1 is_stmt 0 view .LVU999
	mov	r0, r4
	pop	{r3, r4, r5, pc}
.LVL244:
.L157:
	.loc 1 635 3 is_stmt 1 view .LVU1000
	.loc 1 635 14 is_stmt 0 view .LVU1001
	subs	r4, r4, #1
	b	.L163
.L159:
	mov	r4, r3
	.loc 1 631 9 view .LVU1002
	movs	r2, #1
	b	.L156
	.cfi_endproc
.LFE469:
	.size	onoff_sync_finalize, .-onoff_sync_finalize
	.text
.Letext0:
	.file 5 "/home/g/zephyr-sdk-0.16.3/arm-zephyr-eabi/picolibc/include/machine/_default_types.h"
	.file 6 "/home/g/zephyr-sdk-0.16.3/arm-zephyr-eabi/picolibc/include/sys/_stdint.h"
	.file 7 "/home/g/mise-work/zmk-firmware/zmk/zephyr/include/zephyr/sys/dlist.h"
	.file 8 "/home/g/mise-work/zmk-firmware/zmk/zephyr/include/zephyr/kernel.h"
	.file 9 "/home/g/mise-work/zmk-firmware/zmk/zephyr/include/zephyr/sys/notify.h"
	.file 10 "/home/g/mise-work/zmk-firmware/zmk/zephyr/include/zephyr/sys/onoff.h"
	.file 11 "<built-in>"