	.cpu cortex-m4
	.arch armv7e-m
	.fpu fpv4-sp-d16
	.eabi_attribute 27, 1
	.eabi_attribute 28, 1
	.eabi_attribute 20, 1
	.eabi_attribute 21, 1
	.eabi_attribute 23, 3
	.eabi_attribute 24, 1
	.eabi_attribute 25, 1
	.eabi_attribute 26, 1
	.eabi_attribute 30, 4
	.eabi_attribute 34, 1
	.eabi_attribute 38, 1
	.eabi_attribute 18, 4
	.file	"printk.c"
	.text
.Ltext0:
	.cfi_sections	.debug_frame
	.file 1 "/home/g/mise-work/zmk-firmware/zmk/zephyr/lib/os/printk.c"
	.section	.text.arch_printk_char_out,"ax",%progbits
	.align	1
	.weak	arch_printk_char_out
	.syntax unified
	.thumb
	.thumb_func
	.type	arch_printk_char_out, %function
arch_printk_char_out:
.LVL0:
.LFB469:
	.loc 1 47 1 view -0
	.cfi_startproc
	@ args = 0, pretend = 0, frame = 0
	@ frame_needed = 0, uses_anonymous_args = 0
	@ link register save eliminated.
	.loc 1 48 2 view .LVU1
	.loc 1 51 2 view .LVU2
	.loc 1 52 1 is_stmt 0 view .LVU3
	movs	r0, #0
.LVL1:
	.loc 1 52 1 view .LVU4
	bx	lr
	.cfi_endproc
.LFE469:
	.size	arch_printk_char_out, .-arch_printk_char_out
	.section	.text.printk,"ax",%progbits
	.align	1
	.global	printk
	.syntax unified
	.thumb
	.thumb_func
	.type	printk, %function
printk:
.LVL2:
.LFB477:
	.loc 1 205 1 is_stmt 1 view -0
	.cfi_startproc
	@ args = 4, pretend = 16, frame = 8
	@ frame_needed = 0, uses_anonymous_args = 1
	.loc 1 206 2 view .LVU6
	.loc 1 208 1 view .LVU7
	.loc 1 205 1 is_stmt 0 view .LVU8
	push	{r0, r1, r2, r3}
	.cfi_def_cfa_offset 16
	.cfi_offset 0, -16
	.cfi_offset 1, -12
	.cfi_offset 2, -8
	.cfi_offset 3, -4
	push	{r0, r1, r2, lr}
	.cfi_def_cfa_offset 32
	.cfi_offset 14, -20
	.loc 1 205 1 view .LVU9
	add	r1, sp, #16
	ldr	r0, [r1], #4
	.loc 1 208 1 view .LVU10
	str	r1, [sp, #4]
	.loc 1 210 2 is_stmt 1 view .LVU11
.LVL3:
.LBB4:
.LBI4:
	.loc 1 114 6 view .LVU12
.LBB5:
	.loc 1 116 2 view .LVU13
	.loc 1 117 3 view .LVU14
	bl	z_log_vprintk
.LVL4:
	.loc 1 118 3 view .LVU15
	.loc 1 118 3 is_stmt 0 view .LVU16
.LBE5:
.LBE4:
	.loc 1 212 1 is_stmt 1 view .LVU17
	.loc 1 213 1 is_stmt 0 view .LVU18
	add	sp, sp, #12
	.cfi_def_cfa_offset 20
	@ sp needed
	ldr	lr, [sp], #4
	.cfi_restore 14
	.cfi_def_cfa_offset 16
	add	sp, sp, #16
	.cfi_restore 3
	.cfi_restore 2
	.cfi_restore 1
	.cfi_restore 0
	.cfi_def_cfa_offset 0
	bx	lr
	.cfi_endproc
.LFE477:
	.size	printk, .-printk
	.section	.text.__printk_hook_install,"ax",%progbits
	.align	1
	.global	__printk_hook_install
	.syntax unified
	.thumb
	.thumb_func
	.type	__printk_hook_install, %function
__printk_hook_install:
.LVL5:
.LFB470:
	.loc 1 65 1 is_stmt 1 view -0
	.cfi_startproc
	@ args = 0, pretend = 0, frame = 0
	@ frame_needed = 0, uses_anonymous_args = 0
	@ link register save eliminated.
	.loc 1 66 2 view .LVU20
	.loc 1 66 12 is_stmt 0 view .LVU21
	ldr	r3, .L4
	str	r0, [r3]
	.loc 1 67 1 view .LVU22
	bx	lr
.L5:
	.align	2
.L4:
	.word	_char_out
	.cfi_endproc
.LFE470:
	.size	__printk_hook_install, .-__printk_hook_install
	.section	.text.__printk_get_hook,"ax",%progbits
	.align	1
	.global	__printk_get_hook
	.syntax unified
	.thumb
	.thumb_func
	.type	__printk_get_hook, %function
__printk_get_hook:
.LFB471:
	.loc 1 78 1 is_stmt 1 view -0
	.cfi_startproc
	@ args = 0, pretend = 0, frame = 0
	@ frame_needed = 0, uses_anonymous_args = 0
	@ link register save eliminated.
	.loc 1 79 2 view .LVU24
	.loc 1 80 1 is_stmt 0 view .LVU25
	ldr	r3, .L7
	ldr	r0, [r3]
	bx	lr
.L8:
	.align	2
.L7:
	.word	_char_out
	.cfi_endproc
.LFE471:
	.size	__printk_get_hook, .-__printk_get_hook
	.section	.text.vprintk,"ax",%progbits
	.align	1
	.global	vprintk
	.syntax unified
	.thumb
	.thumb_func
	.type	vprintk, %function
vprintk:
.LVL6:
.LFB475:
	.loc 1 115 1 is_stmt 1 view -0
	.cfi_startproc
	@ args = 0, pretend = 0, frame = 0
	@ frame_needed = 0, uses_anonymous_args = 0
	@ link register save eliminated.
	.loc 1 116 2 view .LVU27
	.loc 1 117 3 view .LVU28
	b	z_log_vprintk
.LVL7:
	.loc 1 117 3 is_stmt 0 view .LVU29
	.cfi_endproc
.LFE475:
	.size	vprintk, .-vprintk
	.section	.text.z_impl_k_str_out,"ax",%progbits
	.align	1
	.global	z_impl_k_str_out
	.syntax unified
	.thumb
	.thumb_func
	.type	z_impl_k_str_out, %function
z_impl_k_str_out:
.LVL8:
.LFB476:
	.loc 1 159 1 is_stmt 1 view -0
	.cfi_startproc
	@ args = 0, pretend = 0, frame = 0
	@ frame_needed = 0, uses_anonymous_args = 0
	.loc 1 160 2 view .LVU31
	.loc 1 165 2 view .LVU32
	.loc 1 159 1 is_stmt 0 view .LVU33
	push	{r4, r5, r6, lr}
	.cfi_def_cfa_offset 16
	.cfi_offset 4, -16
	.cfi_offset 5, -12
	.cfi_offset 6, -8
	.cfi_offset 14, -4
	.loc 1 166 3 view .LVU34
	ldr	r6, .L13
	mov	r4, r0
	adds	r5, r0, r1
.LVL9:
.L11:
	.loc 1 165 16 is_stmt 1 discriminator 1 view .LVU35
	cmp	r4, r5
	bne	.L12
	.loc 1 172 1 is_stmt 0 view .LVU36
	pop	{r4, r5, r6, pc}
.LVL10:
.L12:
	.loc 1 166 3 is_stmt 1 discriminator 3 view .LVU37
	ldr	r3, [r6]
	ldrb	r0, [r4], #1	@ zero_extendqisi2
.LVL11:
	.loc 1 166 3 is_stmt 0 discriminator 3 view .LVU38
	blx	r3
.LVL12:
	.loc 1 165 22 is_stmt 1 discriminator 3 view .LVU39
	.loc 1 165 22 is_stmt 0 discriminator 3 view .LVU40
	b	.L11
.L14:
	.align	2
.L13:
	.word	_char_out
	.cfi_endproc
.LFE476:
	.size	z_impl_k_str_out, .-z_impl_k_str_out
	.section	.rodata.str1.1,"aMS",%progbits,1
.LC0:
	.ascii	"printk\000"
	.section	._llext_const_symbol.static.printk_sym_,"a"
	.align	2
	.type	printk_sym, %object
	.size	printk_sym, 8
printk_sym:
	.word	.LC0
	.word	printk
	.global	_char_out
	.section	.data._char_out,"aw"
	.align	2
	.type	_char_out, %object
	.size	_char_out, 4
_char_out:
	.word	arch_printk_char_out
	.text
.Letext0:
	.file 2 "/home/g/zephyr-sdk-0.16.3/arm-zephyr-eabi/lib/gcc/arm-zephyr-eabi/12.2.0/include/stddef.h"
	.file 3 "/home/g/zephyr-sdk-0.16.3/arm-zephyr-eabi/picolibc/include/machine/_default_types.h"
	.file 4 "/home/g/zephyr-sdk-0.16.3/arm-zephyr-eabi/picolibc/include/sys/_stdint.h"
	.file 5 "/home/g/zephyr-sdk-0.16.3/arm-zephyr-eabi/lib/gcc/arm-zephyr-eabi/12.2.0/include/stdarg.h"
	.file 6 "/home/g/zephyr-sdk-0.16.3/arm-zephyr-eabi/picolibc/include/stdio.h"
	.file 7 "/home/g/mise-work/zmk-firmware/zmk/zephyr/include/zephyr/fatal_types.h"
	.file 8 "/home/g/mise-work/zmk-firmware/zmk/zephyr/include/zephyr/kernel.h"
	.file 9 "/home/g/mise-work/zmk-firmware/zmk/zephyr/include/zephyr/llext/symbol.h"
	.file 10 "/home/g/mise-work/zmk-firmware/zmk/zephyr/include/zephyr/logging/log.h"
	.file 11 "<built-in>"