	.cpu cortex-m4
	.arch armv7e-m
	.fpu fpv4-sp-d16
	.eabi_attribute 27, 1
	.eabi_attribute 28, 1
	.eabi_attribute 20, 1
	.eabi_attribute 21, 1
	.eabi_attribute 23, 3
	.eabi_attribute 24, 1
	.eabi_attribute 25, 1
	.eabi_attribute 26, 1
	.eabi_attribute 30, 4
	.eabi_attribute 34, 1
	.eabi_attribute 38, 1
	.eabi_attribute 18, 4
	.file	"rb.c"
	.text
.Ltext0:
	.cfi_sections	.debug_frame
	.file 1 "/home/g/mise-work/zmk-firmware/zmk/zephyr/lib/os/rb.c"
	.section	.text.find_and_stack,"ax",%progbits
	.align	1
	.syntax unified
	.thumb
	.thumb_func
	.type	find_and_stack, %function
find_and_stack:
.LVL0:
.LFB450:
	.loc 1 81 1 view -0
	.cfi_startproc
	@ args = 0, pretend = 0, frame = 0
	@ frame_needed = 0, uses_anonymous_args = 0
	.loc 1 82 2 view .LVU1
	.loc 1 84 2 view .LVU2
	.loc 1 81 1 is_stmt 0 view .LVU3
	push	{r3, r4, r5, r6, r7, lr}
	.cfi_def_cfa_offset 24
	.cfi_offset 3, -24
	.cfi_offset 4, -20
	.cfi_offset 5, -16
	.cfi_offset 6, -12
	.cfi_offset 7, -8
	.cfi_offset 14, -4
	.loc 1 84 20 view .LVU4
	ldr	r3, [r0]
	.loc 1 84 14 view .LVU5
	str	r3, [r2]
	.loc 1 86 2 is_stmt 1 view .LVU6
	.loc 1 81 1 is_stmt 0 view .LVU7
	mov	r6, r0
	mov	r5, r1
	mov	r4, r2
	.loc 1 84 10 view .LVU8
	movs	r7, #1
.LVL1:
.L2:
	.loc 1 86 23 is_stmt 1 view .LVU9
	.loc 1 86 14 is_stmt 0 view .LVU10
	ldr	r1, [r4], #4
	.loc 1 86 23 view .LVU11
	cmp	r1, r5
	bne	.L6
.L1:
	.loc 1 98 1 view .LVU12
	mov	r0, r7
	pop	{r3, r4, r5, r6, r7, pc}
.LVL2:
.L6:
.LBB218:
	.loc 1 87 3 is_stmt 1 view .LVU13
	.loc 1 87 18 is_stmt 0 view .LVU14
	ldr	r3, [r6, #4]
	mov	r0, r5
	blx	r3
.LVL3:
	.loc 1 88 3 is_stmt 1 view .LVU15
	.loc 1 88 23 is_stmt 0 view .LVU16
	ldr	r3, [r4, #-4]
.LVL4:
.LBB219:
.LBI219:
	.loc 1 21 23 is_stmt 1 view .LVU17
.LBB220:
	.loc 1 23 2 view .LVU18
	.loc 1 24 2 view .LVU19
	.loc 1 24 5 is_stmt 0 view .LVU20
	cbnz	r0, .L3
	.loc 1 25 3 is_stmt 1 view .LVU21
	.loc 1 25 21 is_stmt 0 view .LVU22
	ldr	r3, [r3, #4]
.LVL5:
.L4:
	.loc 1 25 21 view .LVU23
.LBE220:
.LBE219:
	.loc 1 90 3 is_stmt 1 view .LVU24
	.loc 1 90 6 is_stmt 0 view .LVU25
	cmp	r3, #0
	beq	.L1
	.loc 1 91 4 is_stmt 1 view .LVU26
	.loc 1 91 12 is_stmt 0 view .LVU27
	adds	r7, r7, #1
.LVL6:
	.loc 1 91 16 view .LVU28
	str	r3, [r4]
	b	.L2
.LVL7:
.L3:
.LBB222:
.LBB221:
	.loc 1 28 2 is_stmt 1 view .LVU29
	.loc 1 28 12 is_stmt 0 view .LVU30
	ldr	r3, [r3]
.LVL8:
	.loc 1 30 2 is_stmt 1 view .LVU31
	.loc 1 31 2 view .LVU32
	.loc 1 30 4 is_stmt 0 view .LVU33
	bic	r3, r3, #1
.LVL9:
	.loc 1 31 9 view .LVU34
	b	.L4
.LBE221:
.LBE222:
.LBE218:
	.cfi_endproc
.LFE450:
	.size	find_and_stack, .-find_and_stack
	.section	.text.stack_left_limb,"ax",%progbits
	.align	1
	.syntax unified
	.thumb
	.thumb_func
	.type	stack_left_limb, %function
stack_left_limb:
.LVL10:
.LFB462:
	.loc 1 535 1 is_stmt 1 view -0
	.cfi_startproc
	@ args = 0, pretend = 0, frame = 0
	@ frame_needed = 0, uses_anonymous_args = 0
	.loc 1 536 2 view .LVU36
	.loc 1 536 8 is_stmt 0 view .LVU37
	ldr	r3, [r1, #8]
	.loc 1 537 19 view .LVU38
	ldr	r2, [r1]
	.loc 1 536 8 view .LVU39
	adds	r3, r3, #1
	.loc 1 535 1 view .LVU40
	push	{r4, r5, lr}
	.cfi_def_cfa_offset 12
	.cfi_offset 4, -12
	.cfi_offset 5, -8
	.cfi_offset 14, -4
	.loc 1 536 8 view .LVU41
	str	r3, [r1, #8]
	.loc 1 537 2 is_stmt 1 view .LVU42
	.loc 1 537 19 is_stmt 0 view .LVU43
	str	r0, [r2, r3, lsl #2]
	.loc 1 538 2 is_stmt 1 view .LVU44
	.loc 1 538 21 is_stmt 0 view .LVU45
	ldrd	r2, r3, [r1, #4]
	movs	r4, #0
	strb	r4, [r2, r3]
	.loc 1 540 2 is_stmt 1 view .LVU46
	.loc 1 543 22 is_stmt 0 view .LVU47
	movs	r5, #1
.L9:
	.loc 1 540 32 is_stmt 1 view .LVU48
.LVL11:
.LBB223:
.LBI223:
	.loc 1 21 23 view .LVU49
.LBB224:
	.loc 1 23 2 view .LVU50
	.loc 1 24 2 view .LVU51
	.loc 1 28 2 view .LVU52
	.loc 1 28 12 is_stmt 0 view .LVU53
	ldr	r4, [r0]
.LVL12:
	.loc 1 30 2 is_stmt 1 view .LVU54
	.loc 1 31 2 view .LVU55
.LBE224:
.LBE223:
	.loc 1 541 4 is_stmt 0 view .LVU56
	ldr	r3, [r1, #8]
	.loc 1 546 10 view .LVU57
	ldr	r2, [r1]
	.loc 1 540 32 view .LVU58
	cmp	r4, #1
.LBB226:
.LBB225:
	.loc 1 30 4 view .LVU59
	bic	r0, r4, #1
.LVL13:
	.loc 1 30 4 view .LVU60
.LBE225:
.LBE226:
	.loc 1 540 32 view .LVU61
	bhi	.L10
	.loc 1 546 2 is_stmt 1 view .LVU62
	.loc 1 547 1 is_stmt 0 view .LVU63
	ldr	r0, [r2, r3, lsl #2]
.LVL14:
	.loc 1 547 1 view .LVU64
	pop	{r4, r5, pc}
.LVL15:
.L10:
	.loc 1 541 3 is_stmt 1 view .LVU65
	.loc 1 541 9 is_stmt 0 view .LVU66
	adds	r3, r3, #1
	str	r3, [r1, #8]
	.loc 1 542 3 is_stmt 1 view .LVU67
	.loc 1 542 20 is_stmt 0 view .LVU68
	str	r0, [r2, r3, lsl #2]
	.loc 1 543 3 is_stmt 1 view .LVU69
	.loc 1 543 22 is_stmt 0 view .LVU70
	ldrd	r2, r3, [r1, #4]
	strb	r5, [r2, r3]
	b	.L9
	.cfi_endproc
.LFE462:
	.size	stack_left_limb, .-stack_left_limb
	.section	.text.set_child,"ax",%progbits
	.align	1
	.syntax unified
	.thumb
	.thumb_func
	.type	set_child, %function
set_child:
.LVL16:
.LFB445:
	.loc 1 35 1 is_stmt 1 view -0
	.cfi_startproc
	@ args = 0, pretend = 0, frame = 0
	@ frame_needed = 0, uses_anonymous_args = 0
	@ link register save eliminated.
	.loc 1 36 2 view .LVU72
	.loc 1 37 2 view .LVU73
	.loc 1 37 5 is_stmt 0 view .LVU74
	cbz	r1, .L12
	.loc 1 38 3 is_stmt 1 view .LVU75
	.loc 1 38 18 is_stmt 0 view .LVU76
	str	r2, [r0, #4]
	bx	lr
.L12:
.LVL17:
.LBB230:
.LBI230:
	.loc 1 34 13 is_stmt 1 view .LVU77
.LBB231:
.LBB232:
	.loc 1 40 3 view .LVU78
	.loc 1 41 3 view .LVU79
	.loc 1 43 3 view .LVU80
	.loc 1 43 41 is_stmt 0 view .LVU81
	ldr	r3, [r0]
	and	r3, r3, #1
	.loc 1 43 20 view .LVU82
	orrs	r2, r2, r3
.LVL18:
	.loc 1 43 18 view .LVU83
	str	r2, [r0]
.LVL19:
	.loc 1 43 18 view .LVU84
.LBE232:
.LBE231:
.LBE230:
	.loc 1 45 1 view .LVU85
	bx	lr
	.cfi_endproc
.LFE445:
	.size	set_child, .-set_child
	.section	.text.rotate,"ax",%progbits
	.align	1
	.syntax unified
	.thumb
	.thumb_func
	.type	rotate, %function
rotate:
.LVL20:
.LFB453:
	.loc 1 129 1 is_stmt 1 view -0
	.cfi_startproc
	@ args = 0, pretend = 0, frame = 0
	@ frame_needed = 0, uses_anonymous_args = 0
	.loc 1 130 2 view .LVU87
	.loc 1 132 2 view .LVU88
	.loc 1 129 1 is_stmt 0 view .LVU89
	push	{r3, r4, r5, r6, r7, r8, r9, r10, fp, lr}
	.cfi_def_cfa_offset 40
	.cfi_offset 3, -40
	.cfi_offset 4, -36
	.cfi_offset 5, -32
	.cfi_offset 6, -28
	.cfi_offset 7, -24
	.cfi_offset 8, -20
	.cfi_offset 9, -16
	.cfi_offset 10, -12
	.cfi_offset 11, -8
	.cfi_offset 14, -4
	.loc 1 132 31 view .LVU90
	add	r8, r1, #1073741824
	sub	r8, r8, #2
	lsl	r3, r8, #2
	.loc 1 133 30 view .LVU91
	add	fp, r3, #4
	.loc 1 132 17 view .LVU92
	ldr	r10, [r0, r8, lsl #2]
.LVL21:
	.loc 1 133 2 is_stmt 1 view .LVU93
	.loc 1 133 17 is_stmt 0 view .LVU94
	ldr	r5, [r0, fp]
.LVL22:
	.loc 1 134 2 is_stmt 1 view .LVU95
.LBB233:
.LBI233:
	.loc 1 111 16 view .LVU96
.LBB234:
	.loc 1 113 2 view .LVU97
	.loc 1 115 2 view .LVU98
.LBB235:
.LBI235:
	.loc 1 21 23 view .LVU99
.LBB236:
	.loc 1 23 2 view .LVU100
	.loc 1 24 2 view .LVU101
	.loc 1 25 3 view .LVU102
	.loc 1 25 3 is_stmt 0 view .LVU103
.LBE236:
.LBE235:
	.loc 1 115 47 view .LVU104
	ldr	r2, [r10, #4]
.LBE234:
.LBE233:
.LBB242:
.LBB243:
	.loc 1 30 4 view .LVU105
	ldr	r7, [r5]
.LBE243:
.LBE242:
.LBB249:
.LBB250:
	.loc 1 25 21 view .LVU106
	ldr	r9, [r5, #4]
.LBE250:
.LBE249:
.LBB254:
.LBB237:
	.loc 1 115 47 view .LVU107
	cmp	r5, r2
.LBE237:
.LBE254:
	.loc 1 129 1 view .LVU108
	mov	r6, r0
.LBB255:
.LBB244:
	.loc 1 30 4 view .LVU109
	bic	r7, r7, #1
.LBE244:
.LBE255:
.LBB256:
.LBB238:
	.loc 1 115 47 view .LVU110
	bne	.L15
.LVL23:
	.loc 1 115 47 view .LVU111
.LBE238:
.LBE256:
	.loc 1 135 2 is_stmt 1 view .LVU112
.LBB257:
.LBI249:
	.loc 1 21 23 view .LVU113
.LBB251:
	.loc 1 23 2 view .LVU114
	.loc 1 24 2 view .LVU115
	.loc 1 25 3 view .LVU116
	.loc 1 25 3 is_stmt 0 view .LVU117
.LBE251:
.LBE257:
	.loc 1 136 2 is_stmt 1 view .LVU118
.LBB258:
.LBI242:
	.loc 1 21 23 view .LVU119
.LBB245:
	.loc 1 23 2 view .LVU120
	.loc 1 24 2 view .LVU121
	.loc 1 28 2 view .LVU122
	.loc 1 30 2 view .LVU123
	.loc 1 31 2 view .LVU124
	.loc 1 31 2 is_stmt 0 view .LVU125
.LBE245:
.LBE258:
	.loc 1 138 2 is_stmt 1 view .LVU126
	.loc 1 138 5 is_stmt 0 view .LVU127
	cmp	r1, #2
	bgt	.L20
	.loc 1 144 2 is_stmt 1 view .LVU128
	movs	r1, #1
.LVL24:
	.loc 1 144 2 is_stmt 0 view .LVU129
	mov	r2, r9
	mov	r0, r5
.LVL25:
	.loc 1 144 2 view .LVU130
	bl	set_child
.LVL26:
	.loc 1 145 2 is_stmt 1 view .LVU131
	.loc 1 144 2 is_stmt 0 view .LVU132
	mov	r4, r1
.LBB259:
.LBB246:
	.loc 1 31 9 view .LVU133
	mov	r9, r7
.LVL27:
	.loc 1 31 9 view .LVU134
.LBE246:
.LBE259:
	.loc 1 145 2 view .LVU135
	movs	r1, #0
.LVL28:
.L19:
	.loc 1 145 2 discriminator 4 view .LVU136
	mov	r2, r10
	mov	r0, r5
	bl	set_child
.LVL29:
	.loc 1 146 2 is_stmt 1 discriminator 4 view .LVU137
	mov	r2, r9
	mov	r1, r4
	mov	r0, r10
	bl	set_child
.LVL30:
	.loc 1 147 2 discriminator 4 view .LVU138
	.loc 1 147 21 is_stmt 0 discriminator 4 view .LVU139
	str	r5, [r6, r8, lsl #2]
	.loc 1 148 2 is_stmt 1 discriminator 4 view .LVU140
	.loc 1 148 21 is_stmt 0 discriminator 4 view .LVU141
	str	r10, [r6, fp]
	.loc 1 149 1 discriminator 4 view .LVU142
	pop	{r3, r4, r5, r6, r7, r8, r9, r10, fp, pc}
.LVL31:
.L15:
	.loc 1 135 2 is_stmt 1 view .LVU143
.LBB260:
	.loc 1 21 23 view .LVU144
.LBB252:
	.loc 1 23 2 view .LVU145
	.loc 1 24 2 view .LVU146
	.loc 1 28 2 view .LVU147
	.loc 1 30 2 view .LVU148
	.loc 1 31 2 view .LVU149
	.loc 1 31 2 is_stmt 0 view .LVU150
.LBE252:
.LBE260:
	.loc 1 136 2 is_stmt 1 view .LVU151
.LBB261:
	.loc 1 21 23 view .LVU152
.LBB247:
	.loc 1 23 2 view .LVU153
	.loc 1 24 2 view .LVU154
	.loc 1 25 3 view .LVU155
	.loc 1 25 3 is_stmt 0 view .LVU156
.LBE247:
.LBE261:
	.loc 1 138 2 is_stmt 1 view .LVU157
	.loc 1 138 5 is_stmt 0 view .LVU158
	cmp	r1, #2
	bgt	.L21
	.loc 1 144 2 is_stmt 1 view .LVU159
	movs	r1, #0
.LVL32:
	.loc 1 144 2 is_stmt 0 view .LVU160
	mov	r2, r7
	mov	r0, r5
.LVL33:
	.loc 1 144 2 view .LVU161
	bl	set_child
.LVL34:
	.loc 1 145 2 is_stmt 1 view .LVU162
.LBB262:
.LBB239:
	.loc 1 115 47 is_stmt 0 view .LVU163
	mov	r4, r1
.LBE239:
.LBE262:
	.loc 1 145 2 view .LVU164
	movs	r1, #1
	b	.L19
.LVL35:
.L20:
	.loc 1 138 5 view .LVU165
	mov	r2, r7
.LBB263:
.LBB240:
	.loc 1 115 47 view .LVU166
	movs	r4, #1
.LBE240:
.LBE263:
.LBB264:
.LBB253:
	.loc 1 25 21 view .LVU167
	mov	r7, r9
.LBE253:
.LBE264:
.LBB265:
.LBB248:
	.loc 1 31 9 view .LVU168
	mov	r9, r2
.LVL36:
.L16:
	.loc 1 31 9 view .LVU169
.LBE248:
.LBE265:
.LBB266:
	.loc 1 139 3 is_stmt 1 view .LVU170
	.loc 1 139 18 is_stmt 0 view .LVU171
	add	r3, r3, r6
	.loc 1 141 3 view .LVU172
	mov	r2, r5
	.loc 1 139 18 view .LVU173
	ldr	r0, [r3, #-4]
.LVL37:
	.loc 1 141 3 is_stmt 1 view .LVU174
.LBB267:
.LBI267:
	.loc 1 111 16 view .LVU175
.LBB268:
	.loc 1 113 2 view .LVU176
	.loc 1 115 2 view .LVU177
.LBB269:
.LBI269:
	.loc 1 21 23 view .LVU178
.LBB270:
	.loc 1 23 2 view .LVU179
	.loc 1 24 2 view .LVU180
	.loc 1 25 3 view .LVU181
	.loc 1 25 3 is_stmt 0 view .LVU182
.LBE270:
.LBE269:
	.loc 1 115 47 view .LVU183
	ldr	r1, [r0, #4]
.LVL38:
	.loc 1 115 47 view .LVU184
.LBE268:
.LBE267:
	.loc 1 141 3 view .LVU185
	sub	r3, r1, r10
	rsbs	r1, r3, #0
	adcs	r1, r1, r3
	bl	set_child
.LVL39:
.LBE266:
	.loc 1 144 2 is_stmt 1 view .LVU186
	mov	r1, r4
	mov	r2, r7
	mov	r0, r5
.LVL40:
	.loc 1 144 2 is_stmt 0 view .LVU187
	bl	set_child
.LVL41:
	.loc 1 145 2 is_stmt 1 view .LVU188
	eor	r1, r4, #1
	b	.L19
.LVL42:
.L21:
.LBB271:
.LBB241:
	.loc 1 115 47 is_stmt 0 view .LVU189
	movs	r4, #0
	b	.L16
.LBE241:
.LBE271:
	.cfi_endproc
.LFE453:
	.size	rotate, .-rotate
	.section	.text.z_rb_get_minmax,"ax",%progbits
	.align	1
	.global	z_rb_get_minmax
	.syntax unified
	.thumb
	.thumb_func
	.type	z_rb_get_minmax, %function
z_rb_get_minmax:
.LVL43:
.LFB451:
	.loc 1 101 1 is_stmt 1 view -0
	.cfi_startproc
	@ args = 0, pretend = 0, frame = 0
	@ frame_needed = 0, uses_anonymous_args = 0
	@ link register save eliminated.
	.loc 1 102 2 view .LVU191
	.loc 1 104 2 view .LVU192
	.loc 1 104 9 is_stmt 0 view .LVU193
	ldr	r0, [r0]
.LVL44:
	.loc 1 104 34 is_stmt 1 view .LVU194
	cbnz	r0, .L29
	bx	lr
.LVL45:
.L30:
	.loc 1 104 34 is_stmt 0 view .LVU195
	mov	r0, r3
.L29:
.LVL46:
.LBB272:
.LBI272:
	.loc 1 21 23 is_stmt 1 view .LVU196
.LBB273:
	.loc 1 23 2 view .LVU197
	.loc 1 24 2 view .LVU198
	.loc 1 24 5 is_stmt 0 view .LVU199
	cbz	r1, .L27
	.loc 1 25 3 is_stmt 1 view .LVU200
	.loc 1 25 21 is_stmt 0 view .LVU201
	ldr	r3, [r0, #4]
.L28:
.LVL47:
	.loc 1 25 21 view .LVU202
.LBE273:
.LBE272:
	.loc 1 104 34 view .LVU203
	cmp	r3, #0
	bne	.L30
	.loc 1 109 1 view .LVU204
	bx	lr
.LVL48:
.L27:
.LBB275:
.LBB274:
	.loc 1 28 2 is_stmt 1 view .LVU205
	.loc 1 28 12 is_stmt 0 view .LVU206
	ldr	r3, [r0]
.LVL49:
	.loc 1 30 2 is_stmt 1 view .LVU207
	.loc 1 31 2 view .LVU208
	.loc 1 30 4 is_stmt 0 view .LVU209
	bic	r3, r3, #1
.LVL50:
	.loc 1 31 9 view .LVU210
	b	.L28
.LBE274:
.LBE275:
	.cfi_endproc
.LFE451:
	.size	z_rb_get_minmax, .-z_rb_get_minmax
	.section	.text.rb_insert,"ax",%progbits
	.align	1
	.global	rb_insert
	.syntax unified
	.thumb
	.thumb_func
	.type	rb_insert, %function
rb_insert:
.LVL51:
.LFB455:
	.loc 1 218 1 is_stmt 1 view -0
	.cfi_startproc
	@ args = 0, pretend = 0, frame = 8
	@ frame_needed = 1, uses_anonymous_args = 0
	.loc 1 218 1 is_stmt 0 view .LVU212
	push	{r4, r5, r6, r7, r8, r9, r10, fp, lr}
	.cfi_def_cfa_offset 36
	.cfi_offset 4, -36
	.cfi_offset 5, -32
	.cfi_offset 6, -28
	.cfi_offset 7, -24
	.cfi_offset 8, -20
	.cfi_offset 9, -16
	.cfi_offset 10, -12
	.cfi_offset 11, -8
	.cfi_offset 14, -4
	sub	sp, sp, #12
	.cfi_def_cfa_offset 48
.LBB320:
.LBB321:
.LBB322:
	.loc 1 43 41 view .LVU213
	ldr	r3, [r1]
	and	r3, r3, #1
	.loc 1 43 18 view .LVU214
	str	r3, [r1]
.LBE322:
.LBE321:
.LBE320:
.LBB325:
.LBB326:
	.loc 1 38 18 view .LVU215
	movs	r3, #0
	str	r3, [r1, #4]
.LBE326:
.LBE325:
	.loc 1 218 1 view .LVU216
	add	r7, sp, #0
	.cfi_def_cfa_register 7
	.loc 1 222 5 view .LVU217
	ldr	r3, [r0]
	.loc 1 218 1 view .LVU218
	str	sp, [r7, #4]
	.loc 1 219 2 is_stmt 1 view .LVU219
.LVL52:
.LBB328:
.LBI320:
	.loc 1 34 13 view .LVU220
	.loc 1 36 2 view .LVU221
	.loc 1 37 2 view .LVU222
.LBB324:
.LBI321:
	.loc 1 34 13 view .LVU223
.LBB323:
	.loc 1 40 3 view .LVU224
	.loc 1 41 3 view .LVU225
	.loc 1 43 3 view .LVU226
	.loc 1 43 3 is_stmt 0 view .LVU227
.LBE323:
.LBE324:
.LBE328:
	.loc 1 220 2 is_stmt 1 view .LVU228
.LBB329:
.LBI325:
	.loc 1 34 13 view .LVU229
.LBB327:
	.loc 1 36 2 view .LVU230
	.loc 1 37 2 view .LVU231
	.loc 1 38 3 view .LVU232
	.loc 1 38 3 is_stmt 0 view .LVU233
.LBE327:
.LBE329:
	.loc 1 222 2 is_stmt 1 view .LVU234
	.loc 1 218 1 is_stmt 0 view .LVU235
	mov	r6, r0
	mov	r5, r1
	.loc 1 222 5 view .LVU236
	cbnz	r3, .L35
	.loc 1 223 3 is_stmt 1 view .LVU237
	.loc 1 224 19 is_stmt 0 view .LVU238
	movs	r3, #1
	.loc 1 223 14 view .LVU239
	str	r1, [r0]
	.loc 1 224 3 is_stmt 1 view .LVU240
	.loc 1 224 19 is_stmt 0 view .LVU241
	str	r3, [r0, #8]
	.loc 1 225 3 is_stmt 1 view .LVU242
.LVL53:
.LBB330:
.LBI330:
	.loc 1 63 13 view .LVU243
.LBB331:
	.loc 1 65 2 view .LVU244
	.loc 1 67 2 view .LVU245
	.loc 1 69 2 view .LVU246
	.loc 1 69 11 is_stmt 0 view .LVU247
	ldr	r3, [r1]
	.loc 1 69 19 view .LVU248
	orr	r3, r3, #1
	.loc 1 69 5 view .LVU249
	str	r3, [r1]
.LVL54:
	.loc 1 69 5 view .LVU250
.LBE331:
.LBE330:
	.loc 1 226 3 is_stmt 1 view .LVU251
.LVL55:
.L34:
	.loc 1 254 1 is_stmt 0 view .LVU252
	adds	r7, r7, #12
	.cfi_remember_state
	.cfi_def_cfa_offset 36
	mov	sp, r7
	.cfi_def_cfa_register 13
	@ sp needed
	pop	{r4, r5, r6, r7, r8, r9, r10, fp, pc}
.LVL56:
.L35:
	.cfi_restore_state
	.loc 1 232 2 is_stmt 1 view .LVU253
	.loc 1 232 39 is_stmt 0 view .LVU254
	ldr	r3, [r0, #8]
	.loc 1 232 17 view .LVU255
	lsls	r3, r3, #2
	adds	r3, r3, #11
	bic	r3, r3, #7
	sub	sp, sp, r3
	mov	r3, sp
	.loc 1 235 16 view .LVU256
	mov	r2, r3
	.loc 1 232 17 view .LVU257
	lsr	r9, r3, #2
	.loc 1 235 16 view .LVU258
	bl	find_and_stack
.LVL57:
	.loc 1 232 17 view .LVU259
	mov	r8, sp
	.loc 1 235 2 is_stmt 1 view .LVU260
	add	r2, r8, r0, lsl #2
	.loc 1 235 16 is_stmt 0 view .LVU261
	mov	r4, r0
.LVL58:
	.loc 1 237 2 is_stmt 1 view .LVU262
	.loc 1 237 17 is_stmt 0 view .LVU263
	ldr	r10, [r2, #-4]
.LVL59:
	.loc 1 239 2 is_stmt 1 view .LVU264
	.loc 1 239 17 is_stmt 0 view .LVU265
	ldr	r2, [r6, #4]
	mov	r1, r10
	lsl	fp, r0, #2
	mov	r0, r5
.LVL60:
	.loc 1 239 17 view .LVU266
	blx	r2
.LVL61:
	.loc 1 241 2 is_stmt 1 view .LVU267
	.loc 1 239 54 is_stmt 0 view .LVU268
	eor	r1, r0, #1
	.loc 1 241 2 view .LVU269
	mov	r2, r5
	mov	r0, r10
.LVL62:
	.loc 1 241 2 view .LVU270
	uxtb	r1, r1
	bl	set_child
.LVL63:
	.loc 1 242 2 is_stmt 1 view .LVU271
.LBB332:
.LBI332:
	.loc 1 63 13 view .LVU272
.LBB333:
	.loc 1 65 2 view .LVU273
	.loc 1 67 2 view .LVU274
	.loc 1 69 2 view .LVU275
	.loc 1 69 11 is_stmt 0 view .LVU276
	ldr	r2, [r5]
.LBE333:
.LBE332:
	.loc 1 244 19 view .LVU277
	str	r5, [fp, r9, lsl #2]
	.loc 1 244 15 view .LVU278
	add	r10, r4, #1
.LVL64:
	.loc 1 244 15 view .LVU279
	add	r4, r4, #1073741824
.LVL65:
.LBB335:
.LBB334:
	.loc 1 69 11 view .LVU280
	bic	r2, r2, #1
	subs	r4, r4, #1
.LVL66:
	.loc 1 69 5 view .LVU281
	str	r2, [r5]
.LVL67:
	.loc 1 69 5 view .LVU282
.LBE334:
.LBE335:
	.loc 1 244 2 is_stmt 1 view .LVU283
	.loc 1 245 2 view .LVU284
.LBB336:
.LBI336:
	.loc 1 155 13 view .LVU285
.LBB337:
	.loc 1 157 2 view .LVU286
	add	r4, r8, r4, lsl #2
.LBE337:
.LBE336:
	.loc 1 244 15 is_stmt 0 view .LVU287
	mov	r5, r10
.LVL68:
.L37:
.LBB382:
.LBB381:
	.loc 1 157 17 is_stmt 1 view .LVU288
	cmp	r5, #1
	bgt	.L42
	.loc 1 214 2 view .LVU289
	ldr	r2, [r8]
.LVL69:
.LBB338:
.LBI338:
	.loc 1 63 13 view .LVU290
.LBB339:
	.loc 1 65 2 view .LVU291
	.loc 1 67 2 view .LVU292
	.loc 1 69 2 view .LVU293
	.loc 1 69 11 is_stmt 0 view .LVU294
	ldr	r3, [r2]
	.loc 1 69 19 view .LVU295
	orr	r3, r3, #1
	b	.L51
.LVL70:
.L42:
	.loc 1 69 19 view .LVU296
.LBE339:
.LBE338:
.LBB341:
	.loc 1 158 3 is_stmt 1 view .LVU297
	.loc 1 159 18 is_stmt 0 view .LVU298
	ldrd	r0, lr, [r4]
.LVL71:
	.loc 1 163 39 is_stmt 1 view .LVU299
	.loc 1 165 39 view .LVU300
	.loc 1 167 3 view .LVU301
.LBB342:
.LBI342:
	.loc 1 53 12 view .LVU302
.LBB343:
	.loc 1 55 2 view .LVU303
.LBB344:
.LBI344:
	.loc 1 47 22 view .LVU304
.LBB345:
	.loc 1 49 2 view .LVU305
	.loc 1 50 2 view .LVU306
	.loc 1 50 2 is_stmt 0 view .LVU307
.LBE345:
.LBE344:
	.loc 1 55 22 view .LVU308
	ldr	r3, [r0]
.LBE343:
.LBE342:
	.loc 1 167 6 view .LVU309
	ands	r3, r3, #1
	bne	.L38
	.loc 1 174 3 is_stmt 1 view .LVU310
	.loc 1 176 3 view .LVU311
	.loc 1 176 18 is_stmt 0 view .LVU312
	ldr	r2, [r4, #-4]
.LVL72:
	.loc 1 177 3 is_stmt 1 view .LVU313
.LBB346:
.LBI346:
	.loc 1 111 16 view .LVU314
.LBB347:
	.loc 1 113 2 view .LVU315
	.loc 1 115 2 view .LVU316
.LBB348:
.LBI348:
	.loc 1 21 23 view .LVU317
.LBB349:
	.loc 1 23 2 view .LVU318
	.loc 1 24 2 view .LVU319
	.loc 1 25 3 view .LVU320
	.loc 1 25 21 is_stmt 0 view .LVU321
	ldr	r1, [r2, #4]
.LVL73:
	.loc 1 25 21 view .LVU322
.LBE349:
.LBE348:
	.loc 1 115 47 view .LVU323
	cmp	r0, r1
.LVL74:
	.loc 1 115 47 view .LVU324
.LBE347:
.LBE346:
	.loc 1 178 3 is_stmt 1 view .LVU325
.LBB351:
.LBI351:
	.loc 1 21 23 view .LVU326
.LBB352:
	.loc 1 23 2 view .LVU327
	.loc 1 24 2 view .LVU328
	.loc 1 28 2 view .LVU329
	.loc 1 28 12 is_stmt 0 view .LVU330
	ittte	eq
	ldreq	r1, [r2]
.LVL75:
	.loc 1 30 2 is_stmt 1 view .LVU331
	.loc 1 31 2 view .LVU332
	.loc 1 30 4 is_stmt 0 view .LVU333
	biceq	r1, r1, #1
.LVL76:
	.loc 1 30 4 view .LVU334
.LBE352:
.LBE351:
.LBB353:
.LBB350:
	.loc 1 115 47 view .LVU335
	moveq	ip, #1
	movne	ip, r3
.LVL77:
	.loc 1 115 47 view .LVU336
.LBE350:
.LBE353:
	.loc 1 181 3 is_stmt 1 view .LVU337
	.loc 1 181 6 is_stmt 0 view .LVU338
	cbz	r1, .L40
.LVL78:
.LBB354:
.LBI354:
	.loc 1 58 12 is_stmt 1 view .LVU339
.LBB355:
	.loc 1 60 2 view .LVU340
.LBB356:
.LBI356:
	.loc 1 47 22 view .LVU341
.LBB357:
	.loc 1 49 2 view .LVU342
	.loc 1 50 2 view .LVU343
	.loc 1 50 2 is_stmt 0 view .LVU344
.LBE357:
.LBE356:
.LBE355:
.LBE354:
	.loc 1 181 21 view .LVU345
	ldr	r3, [r1]
	lsls	r3, r3, #31
	bmi	.L40
.LBB358:
.LBB359:
	.loc 1 69 11 view .LVU346
	ldr	r3, [r2]
	bic	r3, r3, #1
	.loc 1 69 5 view .LVU347
	str	r3, [r2]
.LBE359:
.LBE358:
.LBB361:
.LBB362:
	.loc 1 69 11 view .LVU348
	ldr	r3, [r0]
	.loc 1 69 19 view .LVU349
	orr	r3, r3, #1
	.loc 1 69 5 view .LVU350
	str	r3, [r0]
.LBE362:
.LBE361:
.LBB364:
.LBB365:
	.loc 1 69 11 view .LVU351
	ldr	r3, [r1]
	.loc 1 69 19 view .LVU352
	orr	r3, r3, #1
.LBE365:
.LBE364:
	.loc 1 181 21 view .LVU353
	subs	r4, r4, #8
	.loc 1 182 4 is_stmt 1 view .LVU354
.LVL79:
.LBB367:
.LBI358:
	.loc 1 63 13 view .LVU355
.LBB360:
	.loc 1 65 2 view .LVU356
	.loc 1 67 2 view .LVU357
	.loc 1 69 2 view .LVU358
	.loc 1 69 2 is_stmt 0 view .LVU359
.LBE360:
.LBE367:
	.loc 1 183 4 is_stmt 1 view .LVU360
.LBB368:
.LBI361:
	.loc 1 63 13 view .LVU361
.LBB363:
	.loc 1 65 2 view .LVU362
	.loc 1 67 2 view .LVU363
	.loc 1 69 2 view .LVU364
	.loc 1 69 2 is_stmt 0 view .LVU365
.LBE363:
.LBE368:
	.loc 1 184 4 is_stmt 1 view .LVU366
.LBB369:
.LBI364:
	.loc 1 63 13 view .LVU367
.LBB366:
	.loc 1 65 2 view .LVU368
	.loc 1 67 2 view .LVU369
	.loc 1 69 2 view .LVU370
	.loc 1 69 5 is_stmt 0 view .LVU371
	str	r3, [r1]
.LVL80:
	.loc 1 69 5 view .LVU372
.LBE366:
.LBE369:
	.loc 1 190 4 is_stmt 1 view .LVU373
	.loc 1 190 12 is_stmt 0 view .LVU374
	subs	r5, r5, #2
.LVL81:
	.loc 1 191 4 is_stmt 1 view .LVU375
	b	.L37
.LVL82:
.L40:
	.loc 1 198 3 view .LVU376
.LBB370:
.LBI370:
	.loc 1 111 16 view .LVU377
.LBB371:
	.loc 1 113 2 view .LVU378
	.loc 1 115 2 view .LVU379
.LBB372:
.LBI372:
	.loc 1 21 23 view .LVU380
.LBB373:
	.loc 1 23 2 view .LVU381
	.loc 1 24 2 view .LVU382
	.loc 1 25 3 view .LVU383
	.loc 1 25 3 is_stmt 0 view .LVU384
.LBE373:
.LBE372:
.LBE371:
.LBE370:
	.loc 1 200 3 is_stmt 1 view .LVU385
.LBB375:
.LBB374:
	.loc 1 115 47 is_stmt 0 view .LVU386
	ldr	r2, [r0, #4]
.LVL83:
	.loc 1 115 47 view .LVU387
.LBE374:
.LBE375:
	.loc 1 200 6 view .LVU388
	sub	r3, r2, lr
	rsbs	r2, r3, #0
	adcs	r2, r2, r3
	cmp	r2, ip
	beq	.L41
	.loc 1 201 4 is_stmt 1 view .LVU389
	mov	r1, r5
.LVL84:
	.loc 1 201 4 is_stmt 0 view .LVU390
	mov	r0, r8
.LVL85:
	.loc 1 201 4 view .LVU391
	bl	rotate
.LVL86:
.L41:
	.loc 1 205 3 is_stmt 1 view .LVU392
	subs	r1, r5, #1
	mov	r0, r8
	bl	rotate
.LVL87:
	.loc 1 206 3 view .LVU393
	ldr	r2, [r4, #-4]
.LVL88:
.LBB376:
.LBI376:
	.loc 1 63 13 view .LVU394
.LBB377:
	.loc 1 65 2 view .LVU395
	.loc 1 67 2 view .LVU396
	.loc 1 69 2 view .LVU397
	.loc 1 69 11 is_stmt 0 view .LVU398
	ldr	r3, [r2]
	.loc 1 69 19 view .LVU399
	orr	r3, r3, #1
	.loc 1 69 5 view .LVU400
	str	r3, [r2]
.LVL89:
	.loc 1 69 5 view .LVU401
.LBE377:
.LBE376:
	.loc 1 207 3 is_stmt 1 view .LVU402
	ldr	r2, [r4]
.LVL90:
.LBB378:
.LBI378:
	.loc 1 63 13 view .LVU403
.LBB379:
	.loc 1 65 2 view .LVU404
	.loc 1 67 2 view .LVU405
	.loc 1 69 2 view .LVU406
	.loc 1 69 11 is_stmt 0 view .LVU407
	ldr	r3, [r2]
	bic	r3, r3, #1
.LVL91:
.L51:
	.loc 1 69 11 view .LVU408
.LBE379:
.LBE378:
.LBE341:
.LBB380:
.LBB340:
	.loc 1 69 5 view .LVU409
	str	r3, [r2]
.LVL92:
.L38:
	.loc 1 69 5 view .LVU410
.LBE340:
.LBE380:
.LBE381:
.LBE382:
	.loc 1 247 2 is_stmt 1 view .LVU411
	.loc 1 247 5 is_stmt 0 view .LVU412
	ldr	r3, [r6, #8]
	cmp	r3, r10
	.loc 1 248 3 is_stmt 1 view .LVU413
	.loc 1 252 13 is_stmt 0 view .LVU414
	ldr	r3, [r8]
	.loc 1 248 19 view .LVU415
	it	lt
	strlt	r10, [r6, #8]
	.loc 1 252 2 is_stmt 1 view .LVU416
	.loc 1 252 13 is_stmt 0 view .LVU417
	str	r3, [r6]
	.loc 1 253 2 is_stmt 1 view .LVU418
	ldr	sp, [r7, #4]
	b	.L34
	.cfi_endproc
.LFE455:
	.size	rb_insert, .-rb_insert
	.section	.text.rb_remove,"ax",%progbits
	.align	1
	.global	rb_remove
	.syntax unified
	.thumb
	.thumb_func
	.type	rb_remove, %function
rb_remove:
.LVL93:
.LFB457:
	.loc 1 368 1 view -0
	.cfi_startproc
	@ args = 0, pretend = 0, frame = 24
	@ frame_needed = 1, uses_anonymous_args = 0
	.loc 1 368 1 is_stmt 0 view .LVU420
	push	{r4, r5, r6, r7, r8, r9, r10, fp, lr}
	.cfi_def_cfa_offset 36
	.cfi_offset 4, -36
	.cfi_offset 5, -32
	.cfi_offset 6, -28
	.cfi_offset 7, -24
	.cfi_offset 8, -20
	.cfi_offset 9, -16
	.cfi_offset 10, -12
	.cfi_offset 11, -8
	.cfi_offset 14, -4
	sub	sp, sp, #28
	.cfi_def_cfa_offset 64
	.loc 1 373 39 view .LVU421
	ldr	r3, [r0, #8]
	.loc 1 373 17 view .LVU422
	lsls	r3, r3, #2
	.loc 1 368 1 view .LVU423
	add	r7, sp, #0
	.cfi_def_cfa_register 7
	.loc 1 373 17 view .LVU424
	adds	r3, r3, #11
	bic	r3, r3, #7
	.loc 1 368 1 view .LVU425
	str	sp, [r7, #12]
	.loc 1 369 2 is_stmt 1 view .LVU426
	.loc 1 373 2 view .LVU427
.LVL94:
	.loc 1 373 17 is_stmt 0 view .LVU428
	sub	sp, sp, r3
	mov	r9, sp
.LVL95:
	.loc 1 376 2 is_stmt 1 view .LVU429
	.loc 1 373 17 is_stmt 0 view .LVU430
	mov	r3, sp
	lsrs	r3, r3, #2
	.loc 1 376 16 view .LVU431
	mov	r2, r9
	.loc 1 368 1 view .LVU432
	mov	r6, r1
	.loc 1 373 17 view .LVU433
	str	r3, [r7, #16]
	.loc 1 368 1 view .LVU434
	mov	fp, r0
	.loc 1 376 16 view .LVU435
	bl	find_and_stack
.LVL96:
	.loc 1 376 16 view .LVU436
	add	r8, r9, r0, lsl #2
	mov	r4, r0
.LVL97:
	.loc 1 378 2 is_stmt 1 view .LVU437
	.loc 1 378 5 is_stmt 0 view .LVU438
	ldr	r2, [r8, #-4]
	cmp	r2, r6
	lsl	r3, r0, #2
	bne	.L53
	.loc 1 387 2 is_stmt 1 view .LVU439
.LVL98:
.LBB527:
.LBI527:
	.loc 1 21 23 view .LVU440
.LBB528:
	.loc 1 23 2 view .LVU441
	.loc 1 24 2 view .LVU442
	.loc 1 28 2 view .LVU443
	.loc 1 28 12 is_stmt 0 view .LVU444
	ldr	r5, [r6]
.LVL99:
	.loc 1 30 2 is_stmt 1 view .LVU445
	.loc 1 31 2 view .LVU446
	.loc 1 31 2 is_stmt 0 view .LVU447
.LBE528:
.LBE527:
	.loc 1 387 5 view .LVU448
	cmp	r5, #1
	bls	.L54
.LVL100:
.LBB530:
.LBI530:
	.loc 1 21 23 is_stmt 1 view .LVU449
.LBB531:
	.loc 1 23 2 view .LVU450
	.loc 1 24 2 view .LVU451
	.loc 1 25 3 view .LVU452
	.loc 1 25 3 is_stmt 0 view .LVU453
.LBE531:
.LBE530:
	.loc 1 387 35 view .LVU454
	ldr	r2, [r6, #4]
	cmp	r2, #0
	beq	.L54
.LBB532:
	.loc 1 388 3 is_stmt 1 view .LVU455
.LVL101:
	.loc 1 389 3 view .LVU456
	.loc 1 390 3 view .LVU457
	.loc 1 392 3 view .LVU458
	.loc 1 393 20 is_stmt 0 view .LVU459
	ldr	r2, [r7, #16]
	.loc 1 392 49 view .LVU460
	cmp	r0, #1
.LBE532:
.LBB598:
.LBB529:
	.loc 1 30 4 view .LVU461
	bic	r5, r5, #1
.LVL102:
	.loc 1 30 4 view .LVU462
.LBE529:
.LBE598:
.LBB599:
	.loc 1 392 49 view .LVU463
	it	gt
	ldrgt	r0, [r8, #-8]
.LVL103:
	.loc 1 393 20 view .LVU464
	str	r5, [r3, r2, lsl #2]
	.loc 1 392 49 view .LVU465
	it	le
	movle	r0, #0
.LVL104:
	.loc 1 393 3 is_stmt 1 view .LVU466
	.loc 1 394 3 view .LVU467
	.loc 1 393 16 is_stmt 0 view .LVU468
	adds	r4, r4, #1
.LVL105:
.L56:
	.loc 1 394 31 is_stmt 1 view .LVU469
.LBB533:
.LBI533:
	.loc 1 21 23 view .LVU470
.LBB534:
	.loc 1 23 2 view .LVU471
	.loc 1 24 2 view .LVU472
	.loc 1 25 3 view .LVU473
	.loc 1 25 21 is_stmt 0 view .LVU474
	ldr	r3, [r5, #4]
.LVL106:
	.loc 1 25 21 view .LVU475
.LBE534:
.LBE533:
	.loc 1 394 31 view .LVU476
	cmp	r3, #0
	bne	.L57
	.loc 1 399 3 is_stmt 1 view .LVU477
	add	r10, r9, r4, lsl #2
	.loc 1 399 12 is_stmt 0 view .LVU478
	ldr	r3, [r10, #-8]
.LVL107:
	.loc 1 417 3 is_stmt 1 view .LVU479
	.loc 1 417 6 is_stmt 0 view .LVU480
	cmp	r0, #0
	beq	.L58
.LBB535:
.LBB536:
	.loc 1 115 47 view .LVU481
	ldr	r1, [r0, #4]
	str	r3, [r7, #20]
.LBE536:
.LBE535:
	.loc 1 418 4 is_stmt 1 view .LVU482
.LVL108:
.LBB540:
.LBI535:
	.loc 1 111 16 view .LVU483
.LBB539:
	.loc 1 113 2 view .LVU484
	.loc 1 115 2 view .LVU485
.LBB537:
.LBI537:
	.loc 1 21 23 view .LVU486
.LBB538:
	.loc 1 23 2 view .LVU487
	.loc 1 24 2 view .LVU488
	.loc 1 25 3 view .LVU489
	.loc 1 25 3 is_stmt 0 view .LVU490
.LBE538:
.LBE537:
.LBE539:
.LBE540:
	.loc 1 418 4 view .LVU491
	sub	ip, r1, r6
	rsbs	r1, ip, #0
	mov	r2, r5
	adc	r1, r1, ip
	bl	set_child
.LVL109:
	.loc 1 418 4 view .LVU492
	ldr	r3, [r7, #20]
.LVL110:
.L59:
	.loc 1 423 3 is_stmt 1 view .LVU493
	.loc 1 423 6 is_stmt 0 view .LVU494
	cmp	r6, r3
	bne	.L60
	.loc 1 424 4 is_stmt 1 view .LVU495
.LVL111:
.LBB541:
.LBI541:
	.loc 1 21 23 view .LVU496
.LBB542:
	.loc 1 23 2 view .LVU497
	.loc 1 24 2 view .LVU498
	.loc 1 28 2 view .LVU499
	.loc 1 28 12 is_stmt 0 view .LVU500
	ldr	r2, [r5]
.LVL112:
	.loc 1 30 2 is_stmt 1 view .LVU501
	.loc 1 31 2 view .LVU502
	.loc 1 31 2 is_stmt 0 view .LVU503
.LBE542:
.LBE541:
.LBB544:
.LBI544:
	.loc 1 34 13 is_stmt 1 view .LVU504
	.loc 1 36 2 view .LVU505
	.loc 1 37 2 view .LVU506
.LBB545:
.LBI545:
	.loc 1 34 13 view .LVU507
.LBB546:
	.loc 1 40 3 view .LVU508
	.loc 1 41 3 view .LVU509
	.loc 1 43 3 view .LVU510
	.loc 1 43 41 is_stmt 0 view .LVU511
	ldr	r3, [r6]
.LBE546:
.LBE545:
.LBE544:
.LBB549:
.LBB543:
	.loc 1 30 4 view .LVU512
	bic	r2, r2, #1
.LVL113:
	.loc 1 30 4 view .LVU513
.LBE543:
.LBE549:
.LBB550:
.LBB548:
.LBB547:
	.loc 1 43 41 view .LVU514
	and	r3, r3, #1
	.loc 1 43 20 view .LVU515
	orrs	r3, r3, r2
	.loc 1 43 18 view .LVU516
	str	r3, [r6]
.LVL114:
	.loc 1 43 18 view .LVU517
.LBE547:
.LBE548:
.LBE550:
	.loc 1 425 4 is_stmt 1 view .LVU518
.LBB551:
.LBI551:
	.loc 1 34 13 view .LVU519
	.loc 1 36 2 view .LVU520
	.loc 1 37 2 view .LVU521
.LBB552:
.LBI552:
	.loc 1 34 13 view .LVU522
.LBB553:
	.loc 1 40 3 view .LVU523
	.loc 1 41 3 view .LVU524
	.loc 1 43 3 view .LVU525
	.loc 1 43 41 is_stmt 0 view .LVU526
	ldr	r3, [r5]
	and	r3, r3, #1
	.loc 1 43 20 view .LVU527
	orrs	r3, r3, r6
.LVL115:
.L61:
	.loc 1 43 18 view .LVU528
	str	r3, [r5]
.LBE553:
.LBE552:
.LBE551:
	.loc 1 433 3 is_stmt 1 view .LVU529
.LVL116:
.LBB554:
.LBI554:
	.loc 1 21 23 view .LVU530
.LBB555:
	.loc 1 23 2 view .LVU531
	.loc 1 24 2 view .LVU532
	.loc 1 25 3 view .LVU533
	.loc 1 25 21 is_stmt 0 view .LVU534
	ldr	r3, [r6, #4]
.LVL117:
	.loc 1 25 21 view .LVU535
.LBE555:
.LBE554:
.LBB556:
.LBI556:
	.loc 1 34 13 is_stmt 1 view .LVU536
.LBB557:
	.loc 1 36 2 view .LVU537
	.loc 1 37 2 view .LVU538
	.loc 1 38 3 view .LVU539
	.loc 1 38 18 is_stmt 0 view .LVU540
	str	r3, [r5, #4]
.LVL118:
	.loc 1 38 18 view .LVU541
.LBE557:
.LBE556:
	.loc 1 434 3 is_stmt 1 view .LVU542
.LBB558:
.LBI558:
	.loc 1 34 13 view .LVU543
.LBB559:
	.loc 1 36 2 view .LVU544
	.loc 1 37 2 view .LVU545
	.loc 1 38 3 view .LVU546
	.loc 1 38 18 is_stmt 0 view .LVU547
	movs	r3, #0
	str	r3, [r6, #4]
.LVL119:
	.loc 1 38 18 view .LVU548
.LBE559:
.LBE558:
	.loc 1 436 3 is_stmt 1 view .LVU549
	.loc 1 437 30 is_stmt 0 view .LVU550
	ldr	r2, [r10, #-4]
	.loc 1 436 7 view .LVU551
	ldr	r3, [r8, #-4]
.LVL120:
	.loc 1 437 3 is_stmt 1 view .LVU552
	.loc 1 437 23 is_stmt 0 view .LVU553
	str	r2, [r8, #-4]
	.loc 1 438 3 is_stmt 1 view .LVU554
.LBB560:
.LBB561:
	.loc 1 50 32 is_stmt 0 view .LVU555
	ldr	r2, [r6]
.LBE561:
.LBE560:
	.loc 1 438 22 view .LVU556
	str	r3, [r10, #-4]
	.loc 1 440 3 is_stmt 1 view .LVU557
.LVL121:
.LBB563:
.LBI560:
	.loc 1 47 22 view .LVU558
.LBB562:
	.loc 1 49 2 view .LVU559
	.loc 1 50 2 view .LVU560
	.loc 1 50 2 is_stmt 0 view .LVU561
.LBE562:
.LBE563:
	.loc 1 442 3 is_stmt 1 view .LVU562
.LBB564:
.LBI564:
	.loc 1 47 22 view .LVU563
.LBB565:
	.loc 1 49 2 view .LVU564
	.loc 1 50 2 view .LVU565
	.loc 1 50 2 is_stmt 0 view .LVU566
.LBE565:
.LBE564:
.LBB567:
.LBI567:
	.loc 1 63 13 is_stmt 1 view .LVU567
.LBB568:
	.loc 1 65 2 view .LVU568
	.loc 1 67 2 view .LVU569
	.loc 1 69 2 view .LVU570
.LBE568:
.LBE567:
.LBB570:
.LBB566:
	.loc 1 50 37 is_stmt 0 view .LVU571
	ldr	r3, [r5]
.LVL122:
	.loc 1 50 37 view .LVU572
.LBE566:
.LBE570:
.LBB571:
.LBB569:
	.loc 1 69 11 view .LVU573
	bic	r1, r2, #1
	.loc 1 69 21 view .LVU574
	and	r3, r3, #1
	.loc 1 69 19 view .LVU575
	orrs	r3, r3, r1
	.loc 1 69 5 view .LVU576
	str	r3, [r6]
.LVL123:
	.loc 1 69 5 view .LVU577
.LBE569:
.LBE571:
	.loc 1 443 3 is_stmt 1 view .LVU578
.LBB572:
.LBI572:
	.loc 1 63 13 view .LVU579
.LBB573:
	.loc 1 65 2 view .LVU580
	.loc 1 67 2 view .LVU581
	.loc 1 69 2 view .LVU582
	.loc 1 69 11 is_stmt 0 view .LVU583
	ldr	r3, [r5]
	.loc 1 69 21 view .LVU584
	and	r2, r2, #1
.LVL124:
	.loc 1 69 11 view .LVU585
	bic	r3, r3, #1
	.loc 1 69 19 view .LVU586
	orrs	r3, r3, r2
	.loc 1 69 5 view .LVU587
	str	r3, [r5]
.LVL125:
.L54:
	.loc 1 69 5 view .LVU588
.LBE573:
.LBE572:
.LBE599:
	.loc 1 447 38 is_stmt 1 view .LVU589
	.loc 1 449 2 view .LVU590
.LBB600:
.LBI600:
	.loc 1 21 23 view .LVU591
.LBB601:
	.loc 1 23 2 view .LVU592
	.loc 1 24 2 view .LVU593
	.loc 1 28 2 view .LVU594
	.loc 1 28 39 is_stmt 0 view .LVU595
	ldr	r2, [r6]
.LVL126:
	.loc 1 30 2 is_stmt 1 view .LVU596
	.loc 1 31 2 view .LVU597
	.loc 1 31 2 is_stmt 0 view .LVU598
.LBE601:
.LBE600:
	.loc 1 451 2 is_stmt 1 view .LVU599
	.loc 1 451 5 is_stmt 0 view .LVU600
	cmp	r2, #1
	bls	.L62
	.loc 1 456 5 view .LVU601
	cmp	r4, #1
.LBB603:
.LBB602:
	.loc 1 30 4 view .LVU602
	bic	r5, r2, #1
.LVL127:
	.loc 1 30 4 view .LVU603
.LBE602:
.LBE603:
	.loc 1 456 2 is_stmt 1 view .LVU604
	.loc 1 456 5 is_stmt 0 view .LVU605
	bgt	.L63
	.loc 1 457 3 is_stmt 1 view .LVU606
	.loc 1 457 14 is_stmt 0 view .LVU607
	str	r5, [fp]
	.loc 1 458 3 is_stmt 1 view .LVU608
.L64:
	.loc 1 459 4 view .LVU609
.LVL128:
.LBB604:
.LBI604:
	.loc 1 63 13 view .LVU610
.LBB605:
	.loc 1 65 2 view .LVU611
	.loc 1 67 2 view .LVU612
	.loc 1 69 2 view .LVU613
	.loc 1 69 11 is_stmt 0 view .LVU614
	ldr	r3, [r5]
	.loc 1 69 19 view .LVU615
	orr	r3, r3, #1
	.loc 1 69 5 view .LVU616
	str	r3, [r5]
.LVL129:
.L53:
	.loc 1 69 5 view .LVU617
.LBE605:
.LBE604:
	.loc 1 379 3 discriminator 1 view .LVU618
	ldr	sp, [r7, #12]
	.loc 1 494 1 discriminator 1 view .LVU619
	adds	r7, r7, #28
	.cfi_remember_state
	.cfi_def_cfa_offset 36
	mov	sp, r7
	.cfi_def_cfa_register 13
	@ sp needed
	pop	{r4, r5, r6, r7, r8, r9, r10, fp, pc}
.LVL130:
.L57:
	.cfi_restore_state
.LBB606:
	.loc 1 395 4 is_stmt 1 view .LVU620
	.loc 1 396 4 view .LVU621
	.loc 1 396 21 is_stmt 0 view .LVU622
	str	r3, [r9, r4, lsl #2]
	mov	r5, r3
	adds	r4, r4, #1
.LVL131:
	.loc 1 396 21 view .LVU623
	b	.L56
.LVL132:
.L58:
	.loc 1 420 4 is_stmt 1 view .LVU624
	.loc 1 420 15 is_stmt 0 view .LVU625
	str	r5, [fp]
	b	.L59
.LVL133:
.L60:
	.loc 1 427 4 is_stmt 1 view .LVU626
.LBB574:
.LBI574:
	.loc 1 111 16 view .LVU627
.LBB575:
	.loc 1 113 2 view .LVU628
	.loc 1 115 2 view .LVU629
.LBB576:
.LBI576:
	.loc 1 21 23 view .LVU630
.LBB577:
	.loc 1 23 2 view .LVU631
	.loc 1 24 2 view .LVU632
	.loc 1 25 3 view .LVU633
	.loc 1 25 3 is_stmt 0 view .LVU634
.LBE577:
.LBE576:
	.loc 1 115 47 view .LVU635
	ldr	r1, [r3, #4]
.LBE575:
.LBE574:
	.loc 1 427 4 view .LVU636
	subs	r0, r1, r5
.LVL134:
	.loc 1 427 4 view .LVU637
	rsbs	r1, r0, #0
	adcs	r1, r1, r0
	mov	r2, r6
	mov	r0, r3
	bl	set_child
.LVL135:
	.loc 1 428 4 is_stmt 1 view .LVU638
.LBB578:
.LBI578:
	.loc 1 21 23 view .LVU639
.LBB579:
	.loc 1 23 2 view .LVU640
	.loc 1 24 2 view .LVU641
	.loc 1 28 2 view .LVU642
	.loc 1 28 12 is_stmt 0 view .LVU643
	ldr	r2, [r6]
.LVL136:
	.loc 1 30 2 is_stmt 1 view .LVU644
	.loc 1 31 2 view .LVU645
	.loc 1 31 2 is_stmt 0 view .LVU646
.LBE579:
.LBE578:
	.loc 1 429 4 is_stmt 1 view .LVU647
.LBB581:
.LBI581:
	.loc 1 21 23 view .LVU648
.LBB582:
	.loc 1 23 2 view .LVU649
	.loc 1 24 2 view .LVU650
	.loc 1 28 2 view .LVU651
	.loc 1 28 12 is_stmt 0 view .LVU652
	ldr	r3, [r5]
.LVL137:
	.loc 1 30 2 is_stmt 1 view .LVU653
	.loc 1 31 2 view .LVU654
	.loc 1 31 2 is_stmt 0 view .LVU655
.LBE582:
.LBE581:
.LBB584:
.LBI584:
	.loc 1 34 13 is_stmt 1 view .LVU656
	.loc 1 36 2 view .LVU657
	.loc 1 37 2 view .LVU658
.LBB585:
.LBI585:
	.loc 1 34 13 view .LVU659
.LBB586:
	.loc 1 40 3 view .LVU660
	.loc 1 41 3 view .LVU661
	.loc 1 43 3 view .LVU662
	.loc 1 43 41 is_stmt 0 view .LVU663
	and	r1, r2, #1
.LBE586:
.LBE585:
.LBE584:
.LBB589:
.LBB583:
	.loc 1 30 4 view .LVU664
	bic	r3, r3, #1
.LVL138:
	.loc 1 30 4 view .LVU665
.LBE583:
.LBE589:
.LBB590:
.LBB588:
.LBB587:
	.loc 1 43 20 view .LVU666
	orrs	r3, r3, r1
.LVL139:
	.loc 1 43 18 view .LVU667
	str	r3, [r6]
.LVL140:
	.loc 1 43 18 view .LVU668
.LBE587:
.LBE588:
.LBE590:
	.loc 1 430 4 is_stmt 1 view .LVU669
.LBB591:
.LBI591:
	.loc 1 34 13 view .LVU670
	.loc 1 36 2 view .LVU671
	.loc 1 37 2 view .LVU672
.LBB592:
.LBI592:
	.loc 1 34 13 view .LVU673
.LBB593:
	.loc 1 40 3 view .LVU674
	.loc 1 41 3 view .LVU675
	.loc 1 43 3 view .LVU676
	.loc 1 43 41 is_stmt 0 view .LVU677
	ldr	r3, [r5]
.LBE593:
.LBE592:
.LBE591:
.LBB596:
.LBB580:
	.loc 1 30 4 view .LVU678
	bic	r2, r2, #1
.LVL141:
	.loc 1 30 4 view .LVU679
.LBE580:
.LBE596:
.LBB597:
.LBB595:
.LBB594:
	.loc 1 43 41 view .LVU680
	and	r3, r3, #1
	.loc 1 43 20 view .LVU681
	orrs	r3, r3, r2
	b	.L61
.LVL142:
.L62:
	.loc 1 43 20 view .LVU682
.LBE594:
.LBE595:
.LBE597:
.LBE606:
	.loc 1 452 3 is_stmt 1 view .LVU683
.LBB607:
.LBI607:
	.loc 1 21 23 view .LVU684
.LBB608:
	.loc 1 23 2 view .LVU685
	.loc 1 24 2 view .LVU686
	.loc 1 25 3 view .LVU687
.LBE608:
.LBE607:
	.loc 1 456 5 is_stmt 0 view .LVU688
	cmp	r4, #1
.LBB610:
.LBB609:
	.loc 1 25 21 view .LVU689
	ldr	r5, [r6, #4]
.LVL143:
	.loc 1 25 21 view .LVU690
.LBE609:
.LBE610:
	.loc 1 456 2 is_stmt 1 view .LVU691
	.loc 1 456 5 is_stmt 0 view .LVU692
	bgt	.L65
	.loc 1 457 3 is_stmt 1 view .LVU693
	.loc 1 457 14 is_stmt 0 view .LVU694
	str	r5, [fp]
	.loc 1 458 3 is_stmt 1 view .LVU695
	.loc 1 458 6 is_stmt 0 view .LVU696
	cmp	r5, #0
	bne	.L64
	.loc 1 461 4 is_stmt 1 view .LVU697
	.loc 1 461 20 is_stmt 0 view .LVU698
	str	r5, [fp, #8]
	b	.L53
.L63:
	.loc 1 466 2 is_stmt 1 view .LVU699
	.loc 1 466 17 is_stmt 0 view .LVU700
	subs	r4, r4, #2
.LVL144:
	.loc 1 466 17 view .LVU701
	ldr	r0, [r9, r4, lsl #2]
.LVL145:
	.loc 1 473 2 is_stmt 1 view .LVU702
.L67:
	.loc 1 481 3 view .LVU703
.LBB611:
.LBI611:
	.loc 1 111 16 view .LVU704
.LBB612:
	.loc 1 113 2 view .LVU705
	.loc 1 115 2 view .LVU706
.LBB613:
.LBI613:
	.loc 1 21 23 view .LVU707
.LBB614:
	.loc 1 23 2 view .LVU708
	.loc 1 24 2 view .LVU709
	.loc 1 25 3 view .LVU710
	.loc 1 25 3 is_stmt 0 view .LVU711
.LBE614:
.LBE613:
	.loc 1 115 47 view .LVU712
	ldr	r1, [r0, #4]
.LBE612:
.LBE611:
	.loc 1 481 3 view .LVU713
	subs	r4, r1, r6
	rsbs	r1, r4, #0
	adcs	r1, r1, r4
	mov	r2, r5
	bl	set_child
.LVL146:
	.loc 1 486 5 is_stmt 1 view .LVU714
	.loc 1 486 6 view .LVU715
	.loc 1 487 3 view .LVU716
.LBB615:
.LBI615:
	.loc 1 58 12 view .LVU717
.LBB616:
	.loc 1 60 2 view .LVU718
.LBB617:
.LBI617:
	.loc 1 47 22 view .LVU719
.LBB618:
	.loc 1 49 2 view .LVU720
	.loc 1 50 2 view .LVU721
	.loc 1 50 37 is_stmt 0 view .LVU722
	ldr	r3, [r6]
.LBE618:
.LBE617:
.LBE616:
.LBE615:
	.loc 1 487 6 view .LVU723
	lsls	r6, r3, #31
.LVL147:
	.loc 1 487 6 view .LVU724
	bpl	.L89
.LVL148:
.LBB619:
.LBI619:
	.loc 1 58 12 is_stmt 1 view .LVU725
.LBB620:
	.loc 1 60 2 view .LVU726
.LBB621:
.LBI621:
	.loc 1 47 22 view .LVU727
.LBB622:
	.loc 1 49 2 view .LVU728
	.loc 1 50 2 view .LVU729
	.loc 1 50 37 is_stmt 0 view .LVU730
	ldr	r3, [r5]
.LBE622:
.LBE621:
.LBE620:
.LBE619:
	.loc 1 487 20 view .LVU731
	lsls	r3, r3, #31
	bmi	.L79
.L89:
	.loc 1 488 4 is_stmt 1 view .LVU732
.LVL149:
.LBB623:
.LBI623:
	.loc 1 63 13 view .LVU733
.LBB624:
	.loc 1 65 2 view .LVU734
	.loc 1 67 2 view .LVU735
	.loc 1 69 2 view .LVU736
	.loc 1 69 11 is_stmt 0 view .LVU737
	ldr	r3, [r5]
	.loc 1 69 19 view .LVU738
	orr	r3, r3, #1
	.loc 1 69 5 view .LVU739
	str	r3, [r5]
	.loc 1 70 1 view .LVU740
	b	.L79
.LVL150:
.L65:
	.loc 1 70 1 view .LVU741
.LBE624:
.LBE623:
	.loc 1 466 2 is_stmt 1 view .LVU742
	.loc 1 466 17 is_stmt 0 view .LVU743
	subs	r3, r4, #2
	ldr	r0, [r9, r3, lsl #2]
.LVL151:
	.loc 1 473 2 is_stmt 1 view .LVU744
	.loc 1 473 5 is_stmt 0 view .LVU745
	cmp	r5, #0
	bne	.L67
	.loc 1 474 3 is_stmt 1 view .LVU746
.LVL152:
.LBB625:
.LBI625:
	.loc 1 53 12 view .LVU747
.LBB626:
	.loc 1 55 2 view .LVU748
.LBB627:
.LBI627:
	.loc 1 47 22 view .LVU749
.LBB628:
	.loc 1 49 2 view .LVU750
	.loc 1 50 2 view .LVU751
	.loc 1 50 2 is_stmt 0 view .LVU752
.LBE628:
.LBE627:
.LBE626:
.LBE625:
	.loc 1 474 6 view .LVU753
	ands	r2, r2, #1
	beq	.L68
.LVL153:
.L78:
.LBB629:
.LBB630:
.LBB631:
	.loc 1 271 3 is_stmt 1 view .LVU754
	.loc 1 272 3 view .LVU755
	.loc 1 272 27 is_stmt 0 view .LVU756
	add	r3, r4, #1073741824
	subs	r3, r3, #1
	add	r2, r9, r3, lsl #2
	.loc 1 272 18 view .LVU757
	ldr	r1, [r9, r3, lsl #2]
	.loc 1 273 18 view .LVU758
	ldr	r10, [r2, #-4]
	.loc 1 272 18 view .LVU759
	str	r1, [r7, #20]
.LVL154:
	.loc 1 273 3 is_stmt 1 view .LVU760
	.loc 1 274 3 view .LVU761
.LBB632:
.LBI632:
	.loc 1 111 16 view .LVU762
.LBB633:
	.loc 1 113 2 view .LVU763
	.loc 1 115 2 view .LVU764
.LBB634:
.LBI634:
	.loc 1 21 23 view .LVU765
.LBB635:
	.loc 1 23 2 view .LVU766
	.loc 1 24 2 view .LVU767
	.loc 1 25 3 view .LVU768
	.loc 1 25 21 is_stmt 0 view .LVU769
	ldr	r5, [r10, #4]
.LVL155:
	.loc 1 25 21 view .LVU770
.LBE635:
.LBE634:
	.loc 1 115 47 view .LVU771
	cmp	r1, r5
.LVL156:
	.loc 1 115 47 view .LVU772
.LBE633:
.LBE632:
	.loc 1 275 3 is_stmt 1 view .LVU773
.LBB638:
.LBI638:
	.loc 1 21 23 view .LVU774
.LBB639:
	.loc 1 23 2 view .LVU775
	.loc 1 24 2 view .LVU776
	.loc 1 28 2 view .LVU777
	.loc 1 28 12 is_stmt 0 view .LVU778
	ittt	eq
	ldreq	r5, [r10]
.LVL157:
	.loc 1 30 2 is_stmt 1 view .LVU779
	.loc 1 31 2 view .LVU780
	.loc 1 30 4 is_stmt 0 view .LVU781
	biceq	r5, r5, #1
.LVL158:
	.loc 1 30 4 view .LVU782
.LBE639:
.LBE638:
.LBB640:
.LBB636:
	.loc 1 115 47 view .LVU783
	moveq	r8, #1
.LBE636:
.LBE640:
.LBB641:
.LBB642:
	.loc 1 55 22 view .LVU784
	ldr	r1, [r5]
.LVL159:
	.loc 1 55 22 view .LVU785
.LBE642:
.LBE641:
.LBB646:
.LBB637:
	.loc 1 115 47 view .LVU786
	it	ne
	movne	r8, #0
.LVL160:
	.loc 1 115 47 view .LVU787
.LBE637:
.LBE646:
	.loc 1 278 3 is_stmt 1 view .LVU788
	.loc 1 285 3 view .LVU789
.LBB647:
.LBI641:
	.loc 1 53 12 view .LVU790
.LBB645:
	.loc 1 55 2 view .LVU791
.LBB643:
.LBI643:
	.loc 1 47 22 view .LVU792
.LBB644:
	.loc 1 49 2 view .LVU793
	.loc 1 50 2 view .LVU794
	.loc 1 50 2 is_stmt 0 view .LVU795
.LBE644:
.LBE643:
.LBE645:
.LBE647:
	.loc 1 285 6 view .LVU796
	lsls	r1, r1, #31
	bmi	.L70
	.loc 1 287 4 view .LVU797
	mov	r1, r4
	.loc 1 286 23 view .LVU798
	str	r5, [r9, r3, lsl #2]
	.loc 1 287 4 view .LVU799
	mov	r0, r9
	str	r2, [r7, #4]
	.loc 1 286 4 is_stmt 1 view .LVU800
	.loc 1 286 23 is_stmt 0 view .LVU801
	str	r3, [r7, #8]
	.loc 1 287 4 is_stmt 1 view .LVU802
	bl	rotate
.LVL161:
	.loc 1 288 4 view .LVU803
.LBB648:
.LBI648:
	.loc 1 63 13 view .LVU804
.LBB649:
	.loc 1 65 2 view .LVU805
	.loc 1 67 2 view .LVU806
	.loc 1 69 2 view .LVU807
	.loc 1 69 11 is_stmt 0 view .LVU808
	ldr	r1, [r10]
.LBE649:
.LBE648:
	.loc 1 290 21 view .LVU809
	ldr	r2, [r7, #4]
	ldr	r3, [r7, #20]
	str	r3, [r2, #4]
.LBB651:
.LBB650:
	.loc 1 69 11 view .LVU810
	bic	r1, r1, #1
	.loc 1 69 5 view .LVU811
	str	r1, [r10]
.LVL162:
	.loc 1 69 5 view .LVU812
.LBE650:
.LBE651:
	.loc 1 289 4 is_stmt 1 view .LVU813
.LBB652:
.LBI652:
	.loc 1 63 13 view .LVU814
.LBB653:
	.loc 1 65 2 view .LVU815
	.loc 1 67 2 view .LVU816
	.loc 1 69 2 view .LVU817
	.loc 1 69 11 is_stmt 0 view .LVU818
	ldr	r1, [r5]
.LBE653:
.LBE652:
	.loc 1 292 11 view .LVU819
	ldr	r3, [r7, #8]
.LBB656:
.LBB654:
	.loc 1 69 19 view .LVU820
	orr	r1, r1, #1
.LBE654:
.LBE656:
	.loc 1 292 11 view .LVU821
	ldr	r10, [r9, r3, lsl #2]
.LVL163:
.LBB657:
.LBB655:
	.loc 1 69 5 view .LVU822
	str	r1, [r5]
.LVL164:
	.loc 1 69 5 view .LVU823
.LBE655:
.LBE657:
	.loc 1 290 4 is_stmt 1 view .LVU824
	.loc 1 290 17 is_stmt 0 view .LVU825
	adds	r4, r4, #1
.LVL165:
	.loc 1 292 4 is_stmt 1 view .LVU826
	.loc 1 293 4 view .LVU827
	.loc 1 293 10 is_stmt 0 view .LVU828
	cmp	r8, #0
	beq	.L71
.LVL166:
.LBB658:
.LBI658:
	.loc 1 21 23 is_stmt 1 view .LVU829
.LBB659:
	.loc 1 23 2 view .LVU830
	.loc 1 24 2 view .LVU831
	.loc 1 28 2 view .LVU832
	.loc 1 28 12 is_stmt 0 view .LVU833
	ldr	r5, [r10]
.LVL167:
	.loc 1 30 2 is_stmt 1 view .LVU834
	.loc 1 31 2 view .LVU835
	.loc 1 30 4 is_stmt 0 view .LVU836
	bic	r5, r5, #1
.LVL168:
.L70:
	.loc 1 30 4 view .LVU837
.LBE659:
.LBE658:
	.loc 1 296 3 is_stmt 1 view .LVU838
	.loc 1 301 3 view .LVU839
.LBB661:
.LBI661:
	.loc 1 21 23 view .LVU840
.LBB662:
	.loc 1 23 2 view .LVU841
	.loc 1 24 2 view .LVU842
	.loc 1 28 2 view .LVU843
	.loc 1 28 12 is_stmt 0 view .LVU844
	ldr	r0, [r5]
.LVL169:
	.loc 1 30 2 is_stmt 1 view .LVU845
	.loc 1 31 2 view .LVU846
.LBE662:
.LBE661:
.LBB665:
.LBB666:
	.loc 1 25 21 is_stmt 0 view .LVU847
	ldr	r3, [r5, #4]
.LBE666:
.LBE665:
	.loc 1 303 6 view .LVU848
	cmp	r0, #1
.LBB668:
.LBB663:
	.loc 1 30 4 view .LVU849
	bic	r1, r0, #1
.LVL170:
	.loc 1 30 4 view .LVU850
.LBE663:
.LBE668:
	.loc 1 302 3 is_stmt 1 view .LVU851
.LBB669:
.LBI665:
	.loc 1 21 23 view .LVU852
.LBB667:
	.loc 1 23 2 view .LVU853
	.loc 1 24 2 view .LVU854
	.loc 1 25 3 view .LVU855
	.loc 1 25 3 is_stmt 0 view .LVU856
.LBE667:
.LBE669:
	.loc 1 303 3 is_stmt 1 view .LVU857
	.loc 1 303 6 is_stmt 0 view .LVU858
	bls	.L72
.LVL171:
.LBB670:
.LBI670:
	.loc 1 53 12 is_stmt 1 view .LVU859
.LBB671:
	.loc 1 55 2 view .LVU860
.LBB672:
.LBI672:
	.loc 1 47 22 view .LVU861
.LBB673:
	.loc 1 49 2 view .LVU862
	.loc 1 50 2 view .LVU863
	.loc 1 50 2 is_stmt 0 view .LVU864
.LBE673:
.LBE672:
	.loc 1 55 22 view .LVU865
	ldr	r2, [r1]
.LBE671:
.LBE670:
	.loc 1 303 20 view .LVU866
	lsls	r2, r2, #31
	bpl	.L73
.L72:
	.loc 1 303 37 view .LVU867
	cbz	r3, .L74
.LVL172:
.LBB674:
.LBI674:
	.loc 1 53 12 is_stmt 1 view .LVU868
.LBB675:
	.loc 1 55 2 view .LVU869
.LBB676:
.LBI676:
	.loc 1 47 22 view .LVU870
.LBB677:
	.loc 1 49 2 view .LVU871
	.loc 1 50 2 view .LVU872
	.loc 1 50 2 is_stmt 0 view .LVU873
.LBE677:
.LBE676:
	.loc 1 55 22 view .LVU874
	ldr	r2, [r3]
.LBE675:
.LBE674:
	.loc 1 303 54 view .LVU875
	lsls	r2, r2, #31
	bpl	.L75
.L74:
	.loc 1 305 4 is_stmt 1 view .LVU876
	.loc 1 305 7 is_stmt 0 view .LVU877
	ldr	r3, [r7, #20]
.LVL173:
	.loc 1 305 7 view .LVU878
	cmp	r6, r3
	bne	.L76
	.loc 1 306 5 is_stmt 1 view .LVU879
	movs	r2, #0
	mov	r1, r8
.LVL174:
	.loc 1 306 5 is_stmt 0 view .LVU880
	mov	r0, r10
.LVL175:
	.loc 1 306 5 view .LVU881
	bl	set_child
.LVL176:
.L76:
	.loc 1 309 4 is_stmt 1 view .LVU882
.LBB678:
.LBI678:
	.loc 1 63 13 view .LVU883
.LBB679:
	.loc 1 65 2 view .LVU884
	.loc 1 67 2 view .LVU885
	.loc 1 69 2 view .LVU886
	.loc 1 69 11 is_stmt 0 view .LVU887
	ldr	r3, [r5]
	bic	r3, r3, #1
	.loc 1 69 5 view .LVU888
	str	r3, [r5]
.LVL177:
	.loc 1 69 5 view .LVU889
.LBE679:
.LBE678:
	.loc 1 310 4 is_stmt 1 view .LVU890
.LBB680:
.LBI680:
	.loc 1 53 12 view .LVU891
.LBB681:
	.loc 1 55 2 view .LVU892
.LBB682:
.LBI682:
	.loc 1 47 22 view .LVU893
.LBB683:
	.loc 1 49 2 view .LVU894
	.loc 1 50 2 view .LVU895
	.loc 1 50 32 is_stmt 0 view .LVU896
	ldr	r3, [r10]
.LVL178:
	.loc 1 50 32 view .LVU897
.LBE683:
.LBE682:
.LBE681:
.LBE680:
	.loc 1 310 7 view .LVU898
	lsls	r1, r3, #31
	bpl	.L77
	.loc 1 316 5 is_stmt 1 view .LVU899
	.loc 1 316 12 is_stmt 0 view .LVU900
	subs	r4, r4, #1
.LVL179:
	.loc 1 317 5 is_stmt 1 view .LVU901
	.loc 1 317 5 is_stmt 0 view .LVU902
.LBE631:
	.loc 1 270 17 is_stmt 1 view .LVU903
	cmp	r4, #1
	bne	.L78
.LVL180:
.L79:
	.loc 1 270 17 is_stmt 0 view .LVU904
.LBE630:
.LBE629:
	.loc 1 493 2 is_stmt 1 discriminator 1 view .LVU905
	.loc 1 493 13 is_stmt 0 discriminator 1 view .LVU906
	ldr	r3, [r9]
	str	r3, [fp]
	b	.L53
.LVL181:
.L71:
.LBB724:
.LBB722:
.LBB720:
.LBB684:
	.loc 1 21 23 is_stmt 1 view .LVU907
.LBB660:
	.loc 1 23 2 view .LVU908
	.loc 1 24 2 view .LVU909
	.loc 1 25 3 view .LVU910
	.loc 1 25 21 is_stmt 0 view .LVU911
	ldr	r5, [r10, #4]
.LVL182:
	.loc 1 25 21 view .LVU912
	b	.L70
.LVL183:
.L77:
	.loc 1 25 21 view .LVU913
.LBE660:
.LBE684:
	.loc 1 320 5 is_stmt 1 view .LVU914
.LBB685:
.LBI685:
	.loc 1 63 13 view .LVU915
.LBB686:
	.loc 1 65 2 view .LVU916
	.loc 1 67 2 view .LVU917
	.loc 1 69 2 view .LVU918
	.loc 1 69 19 is_stmt 0 view .LVU919
	orr	r3, r3, #1
	.loc 1 69 5 view .LVU920
	str	r3, [r10]
.LVL184:
	.loc 1 69 5 view .LVU921
.LBE686:
.LBE685:
	.loc 1 321 5 is_stmt 1 view .LVU922
	b	.L79
.LVL185:
.L75:
	.loc 1 325 3 view .LVU923
	.loc 1 331 3 view .LVU924
	.loc 1 331 11 is_stmt 0 view .LVU925
	cmp	r8, #0
	beq	.L80
.LVL186:
	.loc 1 332 3 is_stmt 1 view .LVU926
	.loc 1 332 6 is_stmt 0 view .LVU927
	cmp	r0, #1
	bhi	.L83
.LVL187:
.L84:
	.loc 1 335 4 is_stmt 1 view .LVU928
	.loc 1 335 9 is_stmt 0 view .LVU929
	add	r1, r4, #1073741824
.LVL188:
	.loc 1 335 9 view .LVU930
	subs	r1, r1, #1
	lsls	r2, r1, #2
	.loc 1 335 23 view .LVU931
	ldr	r0, [r7, #16]
.LVL189:
	.loc 1 335 23 view .LVU932
	str	r2, [r7, #4]
	.loc 1 336 4 is_stmt 1 view .LVU933
.LVL190:
	.loc 1 335 9 is_stmt 0 view .LVU934
	add	r1, r9, r1, lsl #2
	.loc 1 335 23 view .LVU935
	str	r5, [r2, r0, lsl #2]
	.loc 1 336 21 view .LVU936
	str	r3, [r1, #4]
	.loc 1 337 4 view .LVU937
	mov	r0, r9
	adds	r1, r4, #1
.LVL191:
	.loc 1 336 21 view .LVU938
	str	r3, [r7, #8]
	.loc 1 337 4 is_stmt 1 view .LVU939
	bl	rotate
.LVL192:
	.loc 1 338 4 view .LVU940
.LBB687:
.LBI687:
	.loc 1 63 13 view .LVU941
.LBB688:
	.loc 1 65 2 view .LVU942
	.loc 1 67 2 view .LVU943
	.loc 1 69 2 view .LVU944
	.loc 1 69 11 is_stmt 0 view .LVU945
	ldr	r1, [r5]
.LBE688:
.LBE687:
.LBB690:
.LBB691:
	ldr	r3, [r7, #8]
.LBE691:
.LBE690:
	.loc 1 344 8 view .LVU946
	ldr	r2, [r7, #4]
.LBB693:
.LBB689:
	.loc 1 69 11 view .LVU947
	bic	r1, r1, #1
	.loc 1 69 5 view .LVU948
	str	r1, [r5]
.LVL193:
	.loc 1 69 5 view .LVU949
.LBE689:
.LBE693:
	.loc 1 339 4 is_stmt 1 view .LVU950
.LBB694:
.LBI690:
	.loc 1 63 13 view .LVU951
.LBB692:
	.loc 1 65 2 view .LVU952
	.loc 1 67 2 view .LVU953
	.loc 1 69 2 view .LVU954
	.loc 1 69 11 is_stmt 0 view .LVU955
	ldr	r1, [r3]
	.loc 1 69 19 view .LVU956
	orr	r1, r1, #1
	.loc 1 69 5 view .LVU957
	str	r1, [r3]
.LVL194:
	.loc 1 69 5 view .LVU958
.LBE692:
.LBE694:
	.loc 1 344 4 is_stmt 1 view .LVU959
	.loc 1 344 8 is_stmt 0 view .LVU960
	ldr	r3, [r7, #16]
.LVL195:
	.loc 1 344 8 view .LVU961
	ldr	r5, [r2, r3, lsl #2]
.LVL196:
	.loc 1 345 4 is_stmt 1 view .LVU962
	.loc 1 345 12 is_stmt 0 view .LVU963
	cmp	r8, #0
	beq	.L86
.LVL197:
.LBB695:
.LBI695:
	.loc 1 21 23 is_stmt 1 view .LVU964
.LBB696:
	.loc 1 23 2 view .LVU965
	.loc 1 24 2 view .LVU966
	.loc 1 28 2 view .LVU967
	.loc 1 28 12 is_stmt 0 view .LVU968
	ldr	r1, [r5]
.LVL198:
	.loc 1 30 2 is_stmt 1 view .LVU969
	.loc 1 31 2 view .LVU970
	.loc 1 30 4 is_stmt 0 view .LVU971
	bic	r1, r1, #1
.LVL199:
.L87:
	.loc 1 30 4 view .LVU972
.LBE696:
.LBE695:
	.loc 1 346 4 is_stmt 1 view .LVU973
	.loc 1 346 23 is_stmt 0 view .LVU974
	ldrd	r3, r0, [r7, #16]
	str	r0, [r2, r3, lsl #2]
	.loc 1 347 4 is_stmt 1 view .LVU975
.LVL200:
	.loc 1 347 4 is_stmt 0 view .LVU976
	b	.L85
.LVL201:
.L73:
	.loc 1 325 3 is_stmt 1 view .LVU977
	.loc 1 331 3 view .LVU978
	.loc 1 331 11 is_stmt 0 view .LVU979
	cmp	r8, #0
	beq	.L82
.L83:
.LVL202:
.LBB698:
.LBI698:
	.loc 1 58 12 is_stmt 1 view .LVU980
.LBB699:
	.loc 1 60 2 view .LVU981
.LBB700:
.LBI700:
	.loc 1 47 22 view .LVU982
.LBB701:
	.loc 1 49 2 view .LVU983
	.loc 1 50 2 view .LVU984
	.loc 1 50 37 is_stmt 0 view .LVU985
	ldr	r2, [r1]
.LBE701:
.LBE700:
.LBE699:
.LBE698:
	.loc 1 332 7 view .LVU986
	lsls	r2, r2, #31
	mov	r8, #1
	bmi	.L84
.LVL203:
.L85:
	.loc 1 354 3 is_stmt 1 view .LVU987
	.loc 1 355 3 view .LVU988
.LBB705:
.LBI705:
	.loc 1 47 22 view .LVU989
.LBB706:
	.loc 1 49 2 view .LVU990
	.loc 1 50 2 view .LVU991
	.loc 1 50 2 is_stmt 0 view .LVU992
.LBE706:
.LBE705:
.LBB708:
.LBI708:
	.loc 1 63 13 is_stmt 1 view .LVU993
.LBB709:
	.loc 1 65 2 view .LVU994
	.loc 1 67 2 view .LVU995
	.loc 1 69 2 view .LVU996
	.loc 1 69 11 is_stmt 0 view .LVU997
	ldr	r3, [r5]
.LBE709:
.LBE708:
.LBB711:
.LBB707:
	.loc 1 50 37 view .LVU998
	ldr	r2, [r10]
.LBE707:
.LBE711:
.LBB712:
.LBB710:
	.loc 1 69 11 view .LVU999
	bic	r3, r3, #1
	.loc 1 69 21 view .LVU1000
	and	r2, r2, #1
	.loc 1 69 19 view .LVU1001
	orrs	r3, r3, r2
	.loc 1 69 5 view .LVU1002
	str	r3, [r5]
.LVL204:
	.loc 1 69 5 view .LVU1003
.LBE710:
.LBE712:
	.loc 1 356 3 is_stmt 1 view .LVU1004
.LBB713:
.LBI713:
	.loc 1 63 13 view .LVU1005
.LBB714:
	.loc 1 65 2 view .LVU1006
	.loc 1 67 2 view .LVU1007
	.loc 1 69 2 view .LVU1008
	.loc 1 69 11 is_stmt 0 view .LVU1009
	ldr	r3, [r10]
	.loc 1 69 19 view .LVU1010
	orr	r3, r3, #1
	.loc 1 69 5 view .LVU1011
	str	r3, [r10]
.LVL205:
	.loc 1 69 5 view .LVU1012
.LBE714:
.LBE713:
	.loc 1 357 3 is_stmt 1 view .LVU1013
.LBB715:
.LBI715:
	.loc 1 63 13 view .LVU1014
.LBB716:
	.loc 1 65 2 view .LVU1015
	.loc 1 67 2 view .LVU1016
	.loc 1 69 2 view .LVU1017
	.loc 1 69 11 is_stmt 0 view .LVU1018
	ldr	r3, [r1]
	.loc 1 69 19 view .LVU1019
	orr	r3, r3, #1
	.loc 1 69 5 view .LVU1020
	str	r3, [r1]
.LVL206:
	.loc 1 69 5 view .LVU1021
.LBE716:
.LBE715:
	.loc 1 358 3 is_stmt 1 view .LVU1022
	.loc 1 358 8 is_stmt 0 view .LVU1023
	add	r3, r4, #1073741824
	subs	r3, r3, #1
	.loc 1 359 3 view .LVU1024
	mov	r1, r4
.LVL207:
	.loc 1 358 22 view .LVU1025
	str	r5, [r9, r3, lsl #2]
	.loc 1 359 3 is_stmt 1 view .LVU1026
	mov	r0, r9
	bl	rotate
.LVL208:
	.loc 1 360 3 view .LVU1027
	.loc 1 360 6 is_stmt 0 view .LVU1028
	ldr	r3, [r7, #20]
	cmp	r6, r3
	bne	.L79
	.loc 1 361 4 is_stmt 1 view .LVU1029
	movs	r2, #0
	mov	r1, r8
	mov	r0, r10
.LVL209:
.L110:
	.loc 1 361 4 is_stmt 0 view .LVU1030
.LBE720:
.LBE722:
.LBE724:
	.loc 1 478 4 view .LVU1031
	bl	set_child
.LVL210:
	b	.L79
.LVL211:
.L82:
.LBB725:
.LBB723:
.LBB721:
	.loc 1 332 3 is_stmt 1 view .LVU1032
	.loc 1 332 6 is_stmt 0 view .LVU1033
	cbz	r3, .L94
.LVL212:
.L80:
.LBB717:
	.loc 1 58 12 is_stmt 1 view .LVU1034
.LBB704:
	.loc 1 60 2 view .LVU1035
.LBB703:
	.loc 1 47 22 view .LVU1036
.LBB702:
	.loc 1 49 2 view .LVU1037
	.loc 1 50 2 view .LVU1038
	.loc 1 50 37 is_stmt 0 view .LVU1039
	ldr	r2, [r3]
.LBE702:
.LBE703:
	.loc 1 60 22 view .LVU1040
	mvn	r8, r2
.LBE704:
.LBE717:
	.loc 1 332 7 view .LVU1041
	ands	r8, r8, #1
	bne	.L95
.L94:
.LBB718:
.LBB664:
	.loc 1 31 9 view .LVU1042
	mov	r3, r1
.LVL213:
	.loc 1 31 9 view .LVU1043
	b	.L84
.LVL214:
.L86:
	.loc 1 31 9 view .LVU1044
.LBE664:
.LBE718:
.LBB719:
	.loc 1 21 23 is_stmt 1 view .LVU1045
.LBB697:
	.loc 1 23 2 view .LVU1046
	.loc 1 24 2 view .LVU1047
	.loc 1 25 3 view .LVU1048
	.loc 1 25 21 is_stmt 0 view .LVU1049
	ldr	r1, [r5, #4]
	b	.L87
.LVL215:
.L95:
	.loc 1 25 21 view .LVU1050
.LBE697:
.LBE719:
	.loc 1 332 7 view .LVU1051
	mov	r1, r3
.LVL216:
	.loc 1 332 7 view .LVU1052
	mov	r8, #0
	b	.L85
.LVL217:
.L68:
	.loc 1 332 7 view .LVU1053
.LBE721:
.LBE723:
.LBE725:
	.loc 1 478 4 is_stmt 1 view .LVU1054
.LBB726:
.LBI726:
	.loc 1 111 16 view .LVU1055
.LBB727:
	.loc 1 113 2 view .LVU1056
	.loc 1 115 2 view .LVU1057
.LBB728:
.LBI728:
	.loc 1 21 23 view .LVU1058
.LBB729:
	.loc 1 23 2 view .LVU1059
	.loc 1 24 2 view .LVU1060
	.loc 1 25 3 view .LVU1061
	.loc 1 25 3 is_stmt 0 view .LVU1062
.LBE729:
.LBE728:
	.loc 1 115 47 view .LVU1063
	ldr	r1, [r0, #4]
.LBE727:
.LBE726:
	.loc 1 478 4 view .LVU1064
	sub	ip, r1, r6
	rsbs	r1, ip, #0
	adc	r1, r1, ip
	b	.L110
	.cfi_endproc
.LFE457:
	.size	rb_remove, .-rb_remove
	.section	.text.z_rb_walk,"ax",%progbits
	.align	1
	.global	z_rb_walk
	.syntax unified
	.thumb
	.thumb_func
	.type	z_rb_walk, %function
z_rb_walk:
.LVL218:
.LFB458:
	.loc 1 498 1 is_stmt 1 view -0
	.cfi_startproc
	@ args = 0, pretend = 0, frame = 0
	@ frame_needed = 0, uses_anonymous_args = 0
	.loc 1 498 1 is_stmt 0 view .LVU1066
	push	{r4, r5, r6, lr}
	.cfi_def_cfa_offset 16
	.cfi_offset 4, -16
	.cfi_offset 5, -12
	.cfi_offset 6, -8
	.cfi_offset 14, -4
	mov	r4, r0
	mov	r5, r1
	mov	r6, r2
.LVL219:
.L113:
	.loc 1 499 2 is_stmt 1 view .LVU1067
	.loc 1 499 5 is_stmt 0 view .LVU1068
	cbz	r4, .L111
	.loc 1 500 3 is_stmt 1 view .LVU1069
.LVL220:
.LBB730:
.LBI730:
	.loc 1 21 23 view .LVU1070
.LBB731:
	.loc 1 23 2 view .LVU1071
	.loc 1 24 2 view .LVU1072
	.loc 1 28 2 view .LVU1073
	.loc 1 28 12 is_stmt 0 view .LVU1074
	ldr	r0, [r4]
.LVL221:
	.loc 1 30 2 is_stmt 1 view .LVU1075
	.loc 1 31 2 view .LVU1076
	.loc 1 31 2 is_stmt 0 view .LVU1077
.LBE731:
.LBE730:
	.loc 1 500 3 view .LVU1078
	mov	r2, r6
	mov	r1, r5
	bic	r0, r0, #1
	bl	z_rb_walk
.LVL222:
	.loc 1 501 3 is_stmt 1 view .LVU1079
	mov	r0, r4
	mov	r1, r6
	blx	r5
.LVL223:
	.loc 1 502 3 view .LVU1080
.LBB732:
.LBI732:
	.loc 1 21 23 view .LVU1081
.LBB733:
	.loc 1 23 2 view .LVU1082
	.loc 1 24 2 view .LVU1083
	.loc 1 25 3 view .LVU1084
	.loc 1 25 21 is_stmt 0 view .LVU1085
	ldr	r4, [r4, #4]
.LVL224:
	.loc 1 25 21 view .LVU1086
	b	.L113
.L111:
	.loc 1 25 21 view .LVU1087
.LBE733:
.LBE732:
	.loc 1 504 1 view .LVU1088
	pop	{r4, r5, r6, pc}
	.loc 1 504 1 view .LVU1089
	.cfi_endproc
.LFE458:
	.size	z_rb_walk, .-z_rb_walk
	.section	.text.z_rb_child,"ax",%progbits
	.align	1
	.global	z_rb_child
	.syntax unified
	.thumb
	.thumb_func
	.type	z_rb_child, %function
z_rb_child:
.LVL225:
.LFB459:
	.loc 1 508 1 is_stmt 1 view -0
	.cfi_startproc
	@ args = 0, pretend = 0, frame = 0
	@ frame_needed = 0, uses_anonymous_args = 0
	@ link register save eliminated.
	.loc 1 509 2 view .LVU1091
.LBB734:
.LBI734:
	.loc 1 21 23 view .LVU1092
.LBB735:
	.loc 1 23 2 view .LVU1093
	.loc 1 24 2 view .LVU1094
	.loc 1 24 5 is_stmt 0 view .LVU1095
	cbz	r1, .L115
	.loc 1 25 3 is_stmt 1 view .LVU1096
	.loc 1 25 21 is_stmt 0 view .LVU1097
	ldr	r0, [r0, #4]
.LVL226:
	.loc 1 25 21 view .LVU1098
	bx	lr
.LVL227:
.L115:
	.loc 1 28 2 is_stmt 1 view .LVU1099
	.loc 1 28 12 is_stmt 0 view .LVU1100
	ldr	r0, [r0]
.LVL228:
	.loc 1 30 2 is_stmt 1 view .LVU1101
	.loc 1 31 2 view .LVU1102
	.loc 1 30 4 is_stmt 0 view .LVU1103
	bic	r0, r0, #1
.LVL229:
	.loc 1 30 4 view .LVU1104
.LBE735:
.LBE734:
	.loc 1 510 1 view .LVU1105
	bx	lr
	.cfi_endproc
.LFE459:
	.size	z_rb_child, .-z_rb_child
	.section	.text.z_rb_is_black,"ax",%progbits
	.align	1
	.global	z_rb_is_black
	.syntax unified
	.thumb
	.thumb_func
	.type	z_rb_is_black, %function
z_rb_is_black:
.LVL230:
.LFB460:
	.loc 1 513 1 is_stmt 1 view -0
	.cfi_startproc
	@ args = 0, pretend = 0, frame = 0
	@ frame_needed = 0, uses_anonymous_args = 0
	@ link register save eliminated.
	.loc 1 514 2 view .LVU1107
.LBB736:
.LBI736:
	.loc 1 53 12 view .LVU1108
	.loc 1 55 2 view .LVU1109
.LBB737:
.LBI737:
	.loc 1 47 22 view .LVU1110
.LBB738:
	.loc 1 49 2 view .LVU1111
	.loc 1 50 2 view .LVU1112
	.loc 1 50 2 is_stmt 0 view .LVU1113
.LBE738:
.LBE737:
.LBE736:
	.loc 1 514 9 view .LVU1114
	ldr	r0, [r0]
.LVL231:
	.loc 1 515 1 view .LVU1115
	and	r0, r0, #1
	bx	lr
	.cfi_endproc
.LFE460:
	.size	z_rb_is_black, .-z_rb_is_black
	.section	.text.rb_contains,"ax",%progbits
	.align	1
	.global	rb_contains
	.syntax unified
	.thumb
	.thumb_func
	.type	rb_contains, %function
rb_contains:
.LVL232:
.LFB461:
	.loc 1 518 1 is_stmt 1 view -0
	.cfi_startproc
	@ args = 0, pretend = 0, frame = 0
	@ frame_needed = 0, uses_anonymous_args = 0
	.loc 1 519 2 view .LVU1117
	.loc 1 518 1 is_stmt 0 view .LVU1118
	push	{r4, r5, r6, lr}
	.cfi_def_cfa_offset 16
	.cfi_offset 4, -16
	.cfi_offset 5, -12
	.cfi_offset 6, -8
	.cfi_offset 14, -4
	.loc 1 519 17 view .LVU1119
	ldr	r4, [r0]
.LVL233:
	.loc 1 521 2 is_stmt 1 view .LVU1120
	.loc 1 518 1 is_stmt 0 view .LVU1121
	mov	r6, r0
	mov	r5, r1
.LVL234:
.L119:
	.loc 1 521 20 is_stmt 1 view .LVU1122
	cbz	r4, .L122
	.loc 1 521 20 is_stmt 0 discriminator 1 view .LVU1123
	cmp	r4, r5
	bne	.L123
.L122:
	.loc 1 525 2 is_stmt 1 view .LVU1124
	.loc 1 526 1 is_stmt 0 view .LVU1125
	subs	r3, r5, r4
	rsbs	r0, r3, #0
	adcs	r0, r0, r3
	pop	{r4, r5, r6, pc}
.LVL235:
.L123:
	.loc 1 522 3 is_stmt 1 view .LVU1126
	.loc 1 522 20 is_stmt 0 view .LVU1127
	ldr	r3, [r6, #4]
	mov	r1, r5
	mov	r0, r4
	blx	r3
.LVL236:
.LBB739:
.LBI739:
	.loc 1 21 23 is_stmt 1 view .LVU1128
.LBB740:
	.loc 1 23 2 view .LVU1129
	.loc 1 24 2 view .LVU1130
	.loc 1 24 5 is_stmt 0 view .LVU1131
	cbz	r0, .L120
	.loc 1 25 3 is_stmt 1 view .LVU1132
	.loc 1 25 21 is_stmt 0 view .LVU1133
	ldr	r4, [r4, #4]
.LVL237:
	.loc 1 25 21 view .LVU1134
	b	.L119
.LVL238:
.L120:
	.loc 1 28 2 is_stmt 1 view .LVU1135
	.loc 1 28 12 is_stmt 0 view .LVU1136
	ldr	r4, [r4]
.LVL239:
	.loc 1 30 2 is_stmt 1 view .LVU1137
	.loc 1 31 2 view .LVU1138
	.loc 1 30 4 is_stmt 0 view .LVU1139
	bic	r4, r4, #1
.LVL240:
	.loc 1 31 9 view .LVU1140
	b	.L119
.LBE740:
.LBE739:
	.cfi_endproc
.LFE461:
	.size	rb_contains, .-rb_contains
	.section	.text.z_rb_foreach_next,"ax",%progbits
	.align	1
	.global	z_rb_foreach_next
	.syntax unified
	.thumb
	.thumb_func
	.type	z_rb_foreach_next, %function
z_rb_foreach_next:
.LVL241:
.LFB463:
	.loc 1 558 1 is_stmt 1 view -0
	.cfi_startproc
	@ args = 0, pretend = 0, frame = 0
	@ frame_needed = 0, uses_anonymous_args = 0
	@ link register save eliminated.
	.loc 1 559 2 view .LVU1142
	.loc 1 561 2 view .LVU1143
	.loc 1 558 1 is_stmt 0 view .LVU1144
	push	{r4, r5}
	.cfi_def_cfa_offset 8
	.cfi_offset 4, -8
	.cfi_offset 5, -4
	.loc 1 561 10 view .LVU1145
	ldr	r0, [r0]
.LVL242:
	.loc 1 558 1 view .LVU1146
	mov	r3, r1
	.loc 1 561 5 view .LVU1147
	cbnz	r0, .L128
.LVL243:
.L135:
	.loc 1 562 9 view .LVU1148
	movs	r0, #0
.L127:
	.loc 1 599 1 view .LVU1149
	pop	{r4, r5}
	.cfi_remember_state
	.cfi_restore 5
	.cfi_restore 4
	.cfi_def_cfa_offset 0
	bx	lr
.LVL244:
.L128:
	.cfi_restore_state
	.loc 1 568 2 is_stmt 1 view .LVU1150
	.loc 1 568 7 is_stmt 0 view .LVU1151
	ldr	r2, [r1, #8]
	.loc 1 568 5 view .LVU1152
	adds	r4, r2, #1
	bne	.L130
.L138:
	.loc 1 577 3 is_stmt 1 view .LVU1153
	.loc 1 599 1 is_stmt 0 view .LVU1154
	pop	{r4, r5}
	.cfi_remember_state
	.cfi_restore 5
	.cfi_restore 4
	.cfi_def_cfa_offset 0
	.loc 1 577 10 view .LVU1155
	b	stack_left_limb
.LVL245:
.L130:
	.cfi_restore_state
	.loc 1 575 2 is_stmt 1 view .LVU1156
	.loc 1 575 17 is_stmt 0 view .LVU1157
	ldr	r4, [r1]
.LBB741:
.LBB742:
	.loc 1 25 21 view .LVU1158
	ldr	r0, [r4, r2, lsl #2]
	ldr	r0, [r0, #4]
.LBE742:
.LBE741:
	.loc 1 575 24 view .LVU1159
	lsls	r5, r2, #2
.LVL246:
.LBB744:
.LBI741:
	.loc 1 21 23 is_stmt 1 view .LVU1160
.LBB743:
	.loc 1 23 2 view .LVU1161
	.loc 1 24 2 view .LVU1162
	.loc 1 25 3 view .LVU1163
	.loc 1 25 3 is_stmt 0 view .LVU1164
.LBE743:
.LBE744:
	.loc 1 576 2 is_stmt 1 view .LVU1165
	.loc 1 576 5 is_stmt 0 view .LVU1166
	cmp	r0, #0
	bne	.L138
	.loc 1 585 2 is_stmt 1 view .LVU1167
	.loc 1 585 7 is_stmt 0 view .LVU1168
	ldr	r0, [r1, #4]
.LVL247:
	.loc 1 585 5 view .LVU1169
	ldrb	r1, [r0, r2]	@ zero_extendqisi2
.LVL248:
	.loc 1 585 5 view .LVU1170
	cbz	r1, .L132
	.loc 1 586 3 is_stmt 1 view .LVU1171
	.loc 1 586 19 is_stmt 0 view .LVU1172
	subs	r2, r2, #1
.LVL249:
	.loc 1 586 18 view .LVU1173
	add	r4, r4, r5
.LVL250:
	.loc 1 586 18 view .LVU1174
	str	r2, [r3, #8]
.LVL251:
	.loc 1 586 18 view .LVU1175
	ldr	r0, [r4, #-4]
	b	.L127
.L132:
	.loc 1 593 22 is_stmt 1 view .LVU1176
	.loc 1 593 11 is_stmt 0 view .LVU1177
	ldr	r1, [r3, #8]
	.loc 1 593 22 view .LVU1178
	cmp	r1, #0
	.loc 1 594 9 view .LVU1179
	add	r2, r1, #-1
	.loc 1 593 22 view .LVU1180
	ble	.L133
	.loc 1 593 22 discriminator 1 view .LVU1181
	ldrb	r1, [r0, r1]	@ zero_extendqisi2
	.loc 1 594 9 discriminator 1 view .LVU1182
	str	r2, [r3, #8]
	.loc 1 593 22 discriminator 1 view .LVU1183
	cmp	r1, #0
	beq	.L132
	.loc 1 597 2 is_stmt 1 view .LVU1184
	.loc 1 598 2 view .LVU1185
	.loc 1 598 42 is_stmt 0 view .LVU1186
	ldr	r0, [r4, r2, lsl #2]
	b	.L127
.L133:
	.loc 1 597 2 is_stmt 1 view .LVU1187
	.loc 1 597 8 is_stmt 0 view .LVU1188
	str	r2, [r3, #8]
	.loc 1 598 2 is_stmt 1 view .LVU1189
	b	.L135
	.cfi_endproc
.LFE463:
	.size	z_rb_foreach_next, .-z_rb_foreach_next
	.text
.Letext0:
	.file 2 "/home/g/zephyr-sdk-0.16.3/arm-zephyr-eabi/picolibc/include/machine/_default_types.h"
	.file 3 "/home/g/zephyr-sdk-0.16.3/arm-zephyr-eabi/picolibc/include/sys/_stdint.h"
	.file 4 "/home/g/mise-work/zmk-firmware/zmk/zephyr/include/zephyr/sys/rb.h"