	.cpu cortex-m4
	.arch armv7e-m
	.fpu fpv4-sp-d16
	.eabi_attribute 27, 1
	.eabi_attribute 28, 1
	.eabi_attribute 20, 1
	.eabi_attribute 21, 1
	.eabi_attribute 23, 3
	.eabi_attribute 24, 1
	.eabi_attribute 25, 1
	.eabi_attribute 26, 1
	.eabi_attribute 30, 4
	.eabi_attribute 34, 1
	.eabi_attribute 38, 1
	.eabi_attribute 18, 4
	.file	"timeutil.c"
	.text
.Ltext0:
	.cfi_sections	.debug_frame
	.file 1 "/home/g/mise-work/zmk-firmware/zmk/zephyr/lib/os/timeutil.c"
	.global	__aeabi_ldivmod
	.section	.text.timeutil_timegm64,"ax",%progbits
	.align	1
	.global	timeutil_timegm64
	.syntax unified
	.thumb
	.thumb_func
	.type	timeutil_timegm64, %function
timeutil_timegm64:
.LVL0:
.LFB1:
	.loc 1 46 1 view -0
	.cfi_startproc
	@ args = 0, pretend = 0, frame = 0
	@ frame_needed = 0, uses_anonymous_args = 0
	.loc 1 47 2 view .LVU1
	.loc 1 48 2 view .LVU2
	.loc 1 46 1 is_stmt 0 view .LVU3
	push	{r3, r4, r5, r6, r7, r8, r9, lr}
	.cfi_def_cfa_offset 32
	.cfi_offset 3, -32
	.cfi_offset 4, -28
	.cfi_offset 5, -24
	.cfi_offset 6, -20
	.cfi_offset 7, -16
	.cfi_offset 8, -12
	.cfi_offset 9, -8
	.cfi_offset 14, -4
	.loc 1 47 21 view .LVU4
	ldr	r4, [r0, #20]
	.loc 1 48 30 view .LVU5
	ldr	r5, [r0, #16]
	.loc 1 49 31 view .LVU6
	ldr	r7, [r0, #12]
	.loc 1 47 10 view .LVU7
	movw	r3, #1900
	.loc 1 47 21 view .LVU8
	asrs	r1, r4, #31
	.loc 1 48 30 view .LVU9
	adds	r5, r5, #1
.LVL1:
	.loc 1 49 2 is_stmt 1 view .LVU10
	.loc 1 47 10 is_stmt 0 view .LVU11
	adds	r4, r4, r3
	adc	r1, r1, #0
.LBB4:
.LBB5:
	.loc 1 35 9 view .LVU12
	cmp	r5, #2
	ite	hi
	movhi	r3, #0
	movls	r3, #1
	.loc 1 35 4 view .LVU13
	subs	r4, r4, r3
	sbc	r1, r1, #0
	.loc 1 37 39 view .LVU14
	cmp	r1, #0
.LBE5:
.LBE4:
	.loc 1 46 1 view .LVU15
	mov	r6, r0
	.loc 1 49 31 view .LVU16
	add	r7, r7, #-1
.LVL2:
	.loc 1 50 2 is_stmt 1 view .LVU17
.LBB13:
.LBI4:
	.loc 1 31 16 view .LVU18
.LBB6:
	.loc 1 35 2 view .LVU19
	.loc 1 37 2 view .LVU20
	.loc 1 37 39 is_stmt 0 view .LVU21
	bge	.L2
	.loc 1 37 32 view .LVU22
	mvn	r0, #398
.LVL3:
	.loc 1 37 32 view .LVU23
	adds	r0, r4, r0
	.loc 1 37 39 view .LVU24
	mov	r2, #400
	mov	r3, #0
	sbc	r1, r1, #0
.LVL4:
.L6:
	.loc 1 37 39 view .LVU25
	bl	__aeabi_ldivmod
.LVL5:
	.loc 1 38 15 view .LVU26
	ldr	r3, .L7
	mla	r4, r3, r0, r4
	.loc 1 38 15 view .LVU27
.LBE6:
.LBE13:
	.loc 1 53 29 view .LVU28
	ldrd	r8, r3, [r6]
	ldr	r6, [r6, #8]
.LVL6:
	.loc 1 53 29 view .LVU29
	asr	ip, r3, #31
	mov	lr, #60
	mov	r9, r3
	mov	r3, ip
	smlal	r9, r3, r6, lr
	.loc 1 53 15 view .LVU30
	umull	ip, r6, r9, lr
	mla	r6, lr, r3, r6
.LBB14:
.LBB7:
	.loc 1 40 38 view .LVU31
	lsrs	r3, r4, #2
	.loc 1 40 15 view .LVU32
	movw	lr, #365
	.loc 1 39 46 view .LVU33
	cmp	r5, #2
	.loc 1 40 15 view .LVU34
	mla	r3, lr, r4, r3
	.loc 1 37 39 view .LVU35
	mov	r2, r0
.LVL7:
	.loc 1 38 2 is_stmt 1 view .LVU36
	.loc 1 39 2 view .LVU37
	.loc 1 40 15 is_stmt 0 view .LVU38
	add	r3, r3, r7
	.loc 1 39 46 view .LVU39
	ite	hi
	mvnhi	r0, #2
.LVL8:
	.loc 1 39 46 view .LVU40
	movls	r0, #9
.LVL9:
	.loc 1 40 2 is_stmt 1 view .LVU41
	.loc 1 42 2 view .LVU42
	.loc 1 42 2 is_stmt 0 view .LVU43
.LBE7:
.LBE14:
	.loc 1 51 2 is_stmt 1 view .LVU44
.LBB15:
.LBB8:
	.loc 1 40 49 is_stmt 0 view .LVU45
	movs	r7, #100
.LVL10:
	.loc 1 39 32 view .LVU46
	add	r5, r5, r0
.LVL11:
	.loc 1 40 49 view .LVU47
	udiv	r4, r4, r7
	.loc 1 39 27 view .LVU48
	movs	r0, #153
	.loc 1 40 15 view .LVU49
	subs	r3, r3, r4
	.loc 1 42 13 view .LVU50
	ldr	r4, .L7+4
	.loc 1 39 27 view .LVU51
	muls	r5, r0, r5
	.loc 1 39 27 view .LVU52
.LBE8:
.LBE15:
	.loc 1 53 7 view .LVU53
	adds	ip, ip, r8
.LBB16:
.LBB9:
	.loc 1 39 58 view .LVU54
	mov	r0, #5
	.loc 1 39 52 view .LVU55
	add	r5, r5, #2
	.loc 1 39 58 view .LVU56
	udiv	r5, r5, r0
	.loc 1 42 13 view .LVU57
	umull	r2, r0, r2, r4
.LVL12:
	.loc 1 40 15 view .LVU58
	add	r3, r3, r5
	.loc 1 42 13 view .LVU59
	mla	r1, r4, r1, r0
.LBE9:
.LBE16:
	.loc 1 53 7 view .LVU60
	adc	r6, r6, r8, asr #31
.LVL13:
	.loc 1 54 2 is_stmt 1 view .LVU61
	.loc 1 56 2 view .LVU62
.LBB17:
.LBB10:
	.loc 1 42 22 is_stmt 0 view .LVU63
	adds	r0, r3, r2
	.loc 1 42 36 view .LVU64
	ldr	r2, .L7+8
	.loc 1 42 22 view .LVU65
	adc	r3, r1, #0
	.loc 1 42 36 view .LVU66
	adds	r0, r0, r2
.LBE10:
.LBE17:
	.loc 1 54 18 view .LVU67
	ldr	r2, .L7+12
.LBB18:
.LBB11:
	.loc 1 42 36 view .LVU68
	sbc	r3, r3, #0
.LBE11:
.LBE18:
	.loc 1 54 18 view .LVU69
	umull	r0, r1, r0, r2
	mla	r1, r2, r3, r1
	.loc 1 54 7 view .LVU70
	adds	r0, r0, ip
	.loc 1 57 1 view .LVU71
	adc	r1, r1, r6
	pop	{r3, r4, r5, r6, r7, r8, r9, pc}
.LVL14:
.L2:
.LBB19:
.LBB12:
	.loc 1 37 39 view .LVU72
	mov	r2, #400
	movs	r3, #0
	mov	r0, r4
.LVL15:
	.loc 1 37 39 view .LVU73
	b	.L6
.L8:
	.align	2
.L7:
	.word	-400
	.word	146097
	.word	-719468
	.word	86400
.LBE12:
.LBE19:
	.cfi_endproc
.LFE1:
	.size	timeutil_timegm64, .-timeutil_timegm64
	.section	.text.timeutil_timegm,"ax",%progbits
	.align	1
	.global	timeutil_timegm
	.syntax unified
	.thumb
	.thumb_func
	.type	timeutil_timegm, %function
timeutil_timegm:
.LVL16:
.LFB2:
	.loc 1 60 1 is_stmt 1 view -0
	.cfi_startproc
	@ args = 0, pretend = 0, frame = 0
	@ frame_needed = 0, uses_anonymous_args = 0
	.loc 1 61 2 view .LVU75
	.loc 1 60 1 is_stmt 0 view .LVU76
	push	{r4, lr}
	.cfi_def_cfa_offset 8
	.cfi_offset 4, -8
	.cfi_offset 14, -4
	.loc 1 61 17 view .LVU77
	bl	timeutil_timegm64
.LVL17:
	.loc 1 61 17 view .LVU78
	mov	r2, r0
	.loc 1 64 7 view .LVU79
	bl	__aeabi_read_tp	@ load_tp_soft
	.loc 1 61 17 view .LVU80
	mov	r3, r1
.LVL18:
	.loc 1 62 2 is_stmt 1 view .LVU81
	.loc 1 64 1 view .LVU82
	.loc 1 64 7 is_stmt 0 view .LVU83
	ldr	r1, .L10
	movs	r4, #0
	str	r4, [r0, r1]
	.loc 1 65 2 is_stmt 1 view .LVU84
	.loc 1 72 2 view .LVU85
	.loc 1 73 1 is_stmt 0 view .LVU86
	mov	r0, r2
	mov	r1, r3
	pop	{r4, pc}
.L11:
	.align	2
.L10:
	.word	errno(tpoff)
	.cfi_endproc
.LFE2:
	.size	timeutil_timegm, .-timeutil_timegm
	.section	.text.timeutil_sync_state_update,"ax",%progbits
	.align	1
	.global	timeutil_sync_state_update
	.syntax unified
	.thumb
	.thumb_func
	.type	timeutil_sync_state_update, %function
timeutil_sync_state_update:
.LVL19:
.LFB3:
	.loc 1 77 1 is_stmt 1 view -0
	.cfi_startproc
	@ args = 0, pretend = 0, frame = 0
	@ frame_needed = 0, uses_anonymous_args = 0
	.loc 1 78 2 view .LVU88
	.loc 1 80 2 view .LVU89
	.loc 1 77 1 is_stmt 0 view .LVU90
	push	{r4, r5, r6, lr}
	.cfi_def_cfa_offset 16
	.cfi_offset 4, -16
	.cfi_offset 5, -12
	.cfi_offset 6, -8
	.cfi_offset 14, -4
	.loc 1 80 17 view .LVU91
	ldrd	r5, r3, [r0, #8]
	.loc 1 80 5 view .LVU92
	orrs	r6, r5, r3
	.loc 1 77 1 view .LVU93
	mov	r4, r0
	.loc 1 80 36 view .LVU94
	ldrd	r2, r0, [r1]
.LVL20:
	.loc 1 80 5 view .LVU95
	bne	.L13
	.loc 1 80 28 discriminator 1 view .LVU96
	orrs	r2, r2, r0
	bne	.L14
.L17:
	.loc 1 78 6 view .LVU97
	mvn	r0, #21
	.loc 1 94 2 is_stmt 1 view .LVU98
	.loc 1 94 9 is_stmt 0 view .LVU99
	b	.L12
.L13:
	.loc 1 81 6 view .LVU100
	cmp	r5, r2
	sbcs	r3, r3, r0
	bcs	.L17
	.loc 1 82 3 view .LVU101
	ldrd	r0, r2, [r1, #8]
	ldrd	r5, r3, [r4, #16]
	cmp	r5, r0
	sbcs	r3, r3, r2
	bcs	.L17
	.loc 1 83 3 is_stmt 1 view .LVU102
	.loc 1 89 4 view .LVU103
	.loc 1 89 16 is_stmt 0 view .LVU104
	ldm	r1, {r0, r1, r2, r3}
.LVL21:
	.loc 1 89 16 view .LVU105
	adds	r4, r4, #24
.LVL22:
	.loc 1 89 16 view .LVU106
	stm	r4, {r0, r1, r2, r3}
	.loc 1 90 4 is_stmt 1 view .LVU107
.LVL23:
	.loc 1 90 7 is_stmt 0 view .LVU108
	movs	r0, #1
	b	.L12
.LVL24:
.L14:
.LBB20:
	.loc 1 84 4 is_stmt 1 view .LVU109
	.loc 1 84 14 is_stmt 0 view .LVU110
	ldm	r1, {r0, r1, r2, r3}
.LVL25:
	.loc 1 84 14 view .LVU111
	add	r5, r4, #8
	stm	r5, {r0, r1, r2, r3}
	.loc 1 85 4 is_stmt 1 view .LVU112
	.loc 1 85 16 is_stmt 0 view .LVU113
	movs	r2, #16
	movs	r1, #0
	add	r0, r4, #24
	bl	memset
.LVL26:
	.loc 1 86 4 is_stmt 1 view .LVU114
	.loc 1 86 14 is_stmt 0 view .LVU115
	mov	r3, #1065353216
	str	r3, [r4, #40]	@ float
	.loc 1 87 4 is_stmt 1 view .LVU116
.LVL27:
	.loc 1 87 7 is_stmt 0 view .LVU117
	movs	r0, #0
.LVL28:
.L12:
	.loc 1 87 7 view .LVU118
.LBE20:
	.loc 1 95 1 view .LVU119
	pop	{r4, r5, r6, pc}
	.cfi_endproc
.LFE3:
	.size	timeutil_sync_state_update, .-timeutil_sync_state_update
	.section	.text.timeutil_sync_state_set_skew,"ax",%progbits
	.align	1
	.global	timeutil_sync_state_set_skew
	.syntax unified
	.thumb
	.thumb_func
	.type	timeutil_sync_state_set_skew, %function
timeutil_sync_state_set_skew:
.LVL29:
.LFB4:
	.loc 1 99 1 is_stmt 1 view -0
	.cfi_startproc
	@ args = 0, pretend = 0, frame = 0
	@ frame_needed = 0, uses_anonymous_args = 0
	.loc 1 100 2 view .LVU121
	.loc 1 102 2 view .LVU122
	.loc 1 102 5 is_stmt 0 view .LVU123
	vcmpe.f32	s0, #0
	vmrs	APSR_nzcv, FPSCR
	.loc 1 99 1 view .LVU124
	push	{r3, r4, r5, lr}
	.cfi_def_cfa_offset 16
	.cfi_offset 3, -16
	.cfi_offset 4, -12
	.cfi_offset 5, -8
	.cfi_offset 14, -4
	.loc 1 99 1 view .LVU125
	mov	r4, r0
	.loc 1 102 5 view .LVU126
	ble	.L25
	.loc 1 103 3 is_stmt 1 view .LVU127
	.loc 1 103 13 is_stmt 0 view .LVU128
	vstr.32	s0, [r0, #40]
	.loc 1 104 3 is_stmt 1 view .LVU129
	.loc 1 104 6 is_stmt 0 view .LVU130
	cbnz	r1, .L21
.LVL30:
.L22:
	.loc 1 108 6 view .LVU131
	movs	r0, #0
.L18:
	.loc 1 112 1 view .LVU132
	pop	{r3, r4, r5, pc}
.LVL31:
.L21:
.LBB21:
	.loc 1 105 4 is_stmt 1 view .LVU133
	.loc 1 105 14 is_stmt 0 view .LVU134
	add	r5, r0, #8
	ldm	r1, {r0, r1, r2, r3}
.LVL32:
	.loc 1 105 14 view .LVU135
	stm	r5, {r0, r1, r2, r3}
	.loc 1 106 4 is_stmt 1 view .LVU136
	.loc 1 106 16 is_stmt 0 view .LVU137
	movs	r2, #16
	movs	r1, #0
	add	r0, r4, #24
	bl	memset
.LVL33:
	.loc 1 106 16 view .LVU138
	b	.L22
.LVL34:
.L25:
	.loc 1 106 16 view .LVU139
.LBE21:
	.loc 1 100 6 view .LVU140
	mvn	r0, #21
.LVL35:
	.loc 1 111 2 is_stmt 1 view .LVU141
	.loc 1 111 9 is_stmt 0 view .LVU142
	b	.L18
	.cfi_endproc
.LFE4:
	.size	timeutil_sync_state_set_skew, .-timeutil_sync_state_set_skew
	.global	__aeabi_ui2d
	.global	__aeabi_ul2d
	.global	__aeabi_dmul
	.global	__aeabi_ddiv
	.global	__aeabi_d2f
	.section	.text.timeutil_sync_estimate_skew,"ax",%progbits
	.align	1
	.global	timeutil_sync_estimate_skew
	.syntax unified
	.thumb
	.thumb_func
	.type	timeutil_sync_estimate_skew, %function
timeutil_sync_estimate_skew:
.LVL36:
.LFB5:
	.loc 1 115 1 is_stmt 1 view -0
	.cfi_startproc
	@ args = 0, pretend = 0, frame = 16
	@ frame_needed = 0, uses_anonymous_args = 0
	.loc 1 116 2 view .LVU144
	.loc 1 118 2 view .LVU145
	.loc 1 115 1 is_stmt 0 view .LVU146
	push	{r4, r5, r6, r7, r8, r9, r10, fp, lr}
	.cfi_def_cfa_offset 36
	.cfi_offset 4, -36
	.cfi_offset 5, -32
	.cfi_offset 6, -28
	.cfi_offset 7, -24
	.cfi_offset 8, -20
	.cfi_offset 9, -16
	.cfi_offset 10, -12
	.cfi_offset 11, -8
	.cfi_offset 14, -4
	.loc 1 118 16 view .LVU147
	ldrd	r8, fp, [r0, #8]
	.loc 1 118 5 view .LVU148
	orrs	r3, r8, fp
	.loc 1 115 1 view .LVU149
	sub	sp, sp, #20
	.cfi_def_cfa_offset 56
	.loc 1 118 5 view .LVU150
	beq	.L30
	.loc 1 118 42 discriminator 1 view .LVU151
	ldrd	r5, r3, [r0, #24]
	.loc 1 118 27 discriminator 1 view .LVU152
	orrs	r2, r5, r3
	str	r3, [sp, #12]
	beq	.L30
	.loc 1 119 21 view .LVU153
	ldrd	r4, r6, [r0, #32]
	.loc 1 119 39 view .LVU154
	ldrd	r7, r10, [r0, #16]
	.loc 1 119 6 view .LVU155
	cmp	r7, r4
	sbcs	r2, r10, r6
	bcs	.L30
.LBB22:
	.loc 1 120 3 is_stmt 1 view .LVU156
	.loc 1 120 38 is_stmt 0 view .LVU157
	ldr	r9, [r0]
.LVL37:
	.loc 1 121 3 is_stmt 1 view .LVU158
	.loc 1 122 3 view .LVU159
	.loc 1 124 3 view .LVU160
	.loc 1 124 18 is_stmt 0 view .LVU161
	ldr	r0, [r9, #4]
.LVL38:
	.loc 1 124 18 view .LVU162
	bl	__aeabi_ui2d
.LVL39:
	.loc 1 121 10 view .LVU163
	ldr	r3, [sp, #12]
	.loc 1 124 18 view .LVU164
	strd	r0, [sp]
	.loc 1 121 38 view .LVU165
	subs	r0, r5, r8
	.loc 1 121 10 view .LVU166
	sbc	r1, r3, fp
	bl	__aeabi_ul2d
.LVL40:
	mov	r2, r0
	mov	r3, r1
	.loc 1 124 18 view .LVU167
	ldrd	r0, [sp]
	bl	__aeabi_dmul
.LVL41:
	strd	r0, [sp]
	.loc 1 122 42 view .LVU168
	subs	r0, r4, r7
	sbc	r1, r6, r10
	.loc 1 122 10 view .LVU169
	bl	__aeabi_ul2d
.LVL42:
	mov	r2, r0
	mov	r3, r1
	.loc 1 124 34 view .LVU170
	ldrd	r0, [sp]
	bl	__aeabi_ddiv
.LVL43:
	mov	r4, r0
.LVL44:
	.loc 1 124 48 view .LVU171
	ldr	r0, [r9]
	.loc 1 124 34 view .LVU172
	mov	r5, r1
.LVL45:
	.loc 1 124 48 view .LVU173
	bl	__aeabi_ui2d
.LVL46:
	mov	r2, r0
	mov	r3, r1
	mov	r0, r4
	mov	r1, r5
	bl	__aeabi_ddiv
.LVL47:
	.loc 1 124 6 view .LVU174
	bl	__aeabi_d2f
.LVL48:
	vmov	s0, r0
.LVL49:
.L26:
	.loc 1 124 6 view .LVU175
.LBE22:
	.loc 1 128 1 view .LVU176
	add	sp, sp, #20
	.cfi_remember_state
	.cfi_def_cfa_offset 36
	@ sp needed
	pop	{r4, r5, r6, r7, r8, r9, r10, fp, pc}
.LVL50:
.L30:
	.cfi_restore_state
	.loc 1 116 8 view .LVU177
	vldr.32	s0, .L31
	.loc 1 127 2 is_stmt 1 view .LVU178
	.loc 1 127 9 is_stmt 0 view .LVU179
	b	.L26
.L32:
	.align	2
.L31:
	.word	0
	.cfi_endproc
.LFE5:
	.size	timeutil_sync_estimate_skew, .-timeutil_sync_estimate_skew
	.global	__aeabi_l2d
	.global	__aeabi_f2d
	.global	__aeabi_d2lz
	.section	.text.timeutil_sync_ref_from_local,"ax",%progbits
	.align	1
	.global	timeutil_sync_ref_from_local
	.syntax unified
	.thumb
	.thumb_func
	.type	timeutil_sync_ref_from_local, %function
timeutil_sync_ref_from_local:
.LVL51:
.LFB6:
	.loc 1 132 1 is_stmt 1 view -0
	.cfi_startproc
	@ args = 4, pretend = 0, frame = 0
	@ frame_needed = 0, uses_anonymous_args = 0
	.loc 1 133 2 view .LVU181
	.loc 1 135 2 view .LVU182
	.loc 1 132 1 is_stmt 0 view .LVU183
	push	{r4, r5, r6, r7, r8, r9, r10, lr}
	.cfi_def_cfa_offset 32
	.cfi_offset 4, -32
	.cfi_offset 5, -28
	.cfi_offset 6, -24
	.cfi_offset 7, -20
	.cfi_offset 8, -16
	.cfi_offset 9, -12
	.cfi_offset 10, -8
	.cfi_offset 14, -4
	vpush.64	{d8}
	.cfi_def_cfa_offset 40
	.cfi_offset 80, -40
	.cfi_offset 81, -36
	.loc 1 135 10 view .LVU184
	vldr.32	s16, [r0, #40]
	.loc 1 132 1 view .LVU185
	ldr	r6, [sp, #40]
	.loc 1 135 5 view .LVU186
	vcmpe.f32	s16, #0
	vmrs	APSR_nzcv, FPSCR
	.loc 1 132 1 view .LVU187
	mov	r4, r0
	.loc 1 135 5 view .LVU188
	ble	.L39
	.loc 1 135 35 discriminator 1 view .LVU189
	ldrd	r7, r5, [r0, #8]
	.loc 1 135 22 discriminator 1 view .LVU190
	orrs	r1, r7, r5
	beq	.L39
	.loc 1 135 45 discriminator 2 view .LVU191
	cmp	r6, #0
	beq	.L39
.LBB23:
	.loc 1 136 3 is_stmt 1 view .LVU192
	.loc 1 136 38 is_stmt 0 view .LVU193
	ldr	r10, [r0]
.LVL52:
	.loc 1 137 3 is_stmt 1 view .LVU194
	.loc 1 137 31 is_stmt 0 view .LVU195
	ldrd	r0, r1, [r0, #16]
.LVL53:
	.loc 1 141 6 view .LVU196
	vmov.f32	s17, #1.0e+0
	.loc 1 137 31 view .LVU197
	subs	r0, r2, r0
	.loc 1 141 6 view .LVU198
	vcmp.f32	s16, s17
	.loc 1 137 31 view .LVU199
	sbc	r1, r3, r1
.LVL54:
	.loc 1 141 3 is_stmt 1 view .LVU200
	.loc 1 141 6 is_stmt 0 view .LVU201
	vmrs	APSR_nzcv, FPSCR
	beq	.L36
	.loc 1 142 4 is_stmt 1 view .LVU202
	.loc 1 142 16 is_stmt 0 view .LVU203
	bl	__aeabi_l2d
.LVL55:
	.loc 1 142 16 view .LVU204
	mov	r8, r0
	.loc 1 142 19 view .LVU205
	vmov	r0, s16
	.loc 1 142 16 view .LVU206
	mov	r9, r1
	.loc 1 142 19 view .LVU207
	bl	__aeabi_f2d
.LVL56:
	mov	r2, r0
	mov	r3, r1
	.loc 1 142 16 view .LVU208
	mov	r0, r8
	mov	r1, r9
	bl	__aeabi_dmul
.LVL57:
	bl	__aeabi_d2lz
.LVL58:
.L36:
	.loc 1 144 3 is_stmt 1 view .LVU209
	.loc 1 145 3 view .LVU210
	.loc 1 144 40 is_stmt 0 view .LVU211
	ldr	ip, [r10]
	.loc 1 144 11 view .LVU212
	ldr	r2, [r10, #4]
	.loc 1 144 35 view .LVU213
	umull	r0, lr, ip, r0
.LVL59:
	.loc 1 144 11 view .LVU214
	movs	r3, #0
	mla	r1, ip, r1, lr
	bl	__aeabi_ldivmod
.LVL60:
	.loc 1 145 11 view .LVU215
	adds	r0, r0, r7
	adc	r5, r5, r1
.LVL61:
	.loc 1 147 3 is_stmt 1 view .LVU216
	.loc 1 147 6 is_stmt 0 view .LVU217
	cmp	r5, #0
	blt	.L40
	.loc 1 150 4 is_stmt 1 view .LVU218
	.loc 1 150 10 is_stmt 0 view .LVU219
	strd	r0, r5, [r6]
	.loc 1 151 4 is_stmt 1 view .LVU220
	.loc 1 151 9 is_stmt 0 view .LVU221
	vldr.32	s15, [r4, #40]
	vcmp.f32	s15, s17
	vmrs	APSR_nzcv, FPSCR
	ite	ne
	movne	r0, #1
.LVL62:
	.loc 1 151 9 view .LVU222
	moveq	r0, #0
.LVL63:
.L33:
	.loc 1 151 9 view .LVU223
.LBE23:
	.loc 1 156 1 view .LVU224
	vldm	sp!, {d8}
	.cfi_remember_state
	.cfi_restore 80
	.cfi_restore 81
	.cfi_def_cfa_offset 32
	pop	{r4, r5, r6, r7, r8, r9, r10, pc}
.LVL64:
.L39:
	.cfi_restore_state
	.loc 1 133 6 view .LVU225
	mvn	r0, #21
.LVL65:
	.loc 1 133 6 view .LVU226
	b	.L33
.LVL66:
.L40:
.LBB24:
	.loc 1 148 7 view .LVU227
	mvn	r0, #33
.LVL67:
	.loc 1 148 7 view .LVU228
.LBE24:
	.loc 1 155 2 is_stmt 1 view .LVU229
	.loc 1 155 9 is_stmt 0 view .LVU230
	b	.L33
	.cfi_endproc
.LFE6:
	.size	timeutil_sync_ref_from_local, .-timeutil_sync_ref_from_local
	.section	.text.timeutil_sync_local_from_ref,"ax",%progbits
	.align	1
	.global	timeutil_sync_local_from_ref
	.syntax unified
	.thumb
	.thumb_func
	.type	timeutil_sync_local_from_ref, %function
timeutil_sync_local_from_ref:
.LVL68:
.LFB7:
	.loc 1 160 1 is_stmt 1 view -0
	.cfi_startproc
	@ args = 4, pretend = 0, frame = 0
	@ frame_needed = 0, uses_anonymous_args = 0
	.loc 1 161 2 view .LVU232
	.loc 1 163 2 view .LVU233
	.loc 1 160 1 is_stmt 0 view .LVU234
	push	{r3, r4, r5, r6, r7, lr}
	.cfi_def_cfa_offset 24
	.cfi_offset 3, -24
	.cfi_offset 4, -20
	.cfi_offset 5, -16
	.cfi_offset 6, -12
	.cfi_offset 7, -8
	.cfi_offset 14, -4
	vpush.64	{d8}
	.cfi_def_cfa_offset 32
	.cfi_offset 80, -32
	.cfi_offset 81, -28
	.loc 1 163 10 view .LVU235
	vldr.32	s16, [r0, #40]
	.loc 1 160 1 view .LVU236
	ldr	r5, [sp, #32]
	.loc 1 163 5 view .LVU237
	vcmpe.f32	s16, #0
	vmrs	APSR_nzcv, FPSCR
	.loc 1 160 1 view .LVU238
	mov	r4, r0
	.loc 1 163 5 view .LVU239
	ble	.L49
	.loc 1 163 35 discriminator 1 view .LVU240
	ldrd	r0, r6, [r0, #8]
.LVL69:
	.loc 1 163 22 discriminator 1 view .LVU241
	orrs	r1, r0, r6
	beq	.L49
	.loc 1 163 45 discriminator 2 view .LVU242
	cmp	r5, #0
	beq	.L49
.LBB25:
	.loc 1 164 3 is_stmt 1 view .LVU243
	.loc 1 164 38 is_stmt 0 view .LVU244
	ldr	r7, [r4]
.LVL70:
	.loc 1 165 3 is_stmt 1 view .LVU245
	.loc 1 169 3 view .LVU246
	.loc 1 169 41 is_stmt 0 view .LVU247
	ldr	r1, [r7, #4]
	.loc 1 165 37 view .LVU248
	subs	r2, r2, r0
.LVL71:
	.loc 1 165 37 view .LVU249
	sbc	r6, r3, r6
	.loc 1 169 36 view .LVU250
	umull	r0, ip, r1, r2
	.loc 1 169 11 view .LVU251
	movs	r3, #0
	ldr	r2, [r7]
	mla	r1, r1, r6, ip
	bl	__aeabi_ldivmod
.LVL72:
	.loc 1 171 6 view .LVU252
	vmov.f32	s17, #1.0e+0
	vcmp.f32	s16, s17
	vmrs	APSR_nzcv, FPSCR
	.loc 1 169 11 view .LVU253
	mov	r2, r0
	mov	r3, r1
.LVL73:
	.loc 1 171 3 is_stmt 1 view .LVU254
	.loc 1 171 6 is_stmt 0 view .LVU255
	beq	.L46
	.loc 1 172 4 is_stmt 1 view .LVU256
	.loc 1 172 16 is_stmt 0 view .LVU257
	bl	__aeabi_l2d
.LVL74:
	.loc 1 172 16 view .LVU258
	mov	r6, r0
	.loc 1 172 19 view .LVU259
	vmov	r0, s16
	.loc 1 172 16 view .LVU260
	mov	r7, r1
.LVL75:
	.loc 1 172 19 view .LVU261
	bl	__aeabi_f2d
.LVL76:
	mov	r2, r0
	mov	r3, r1
	.loc 1 172 16 view .LVU262
	mov	r0, r6
	mov	r1, r7
	bl	__aeabi_ddiv
.LVL77:
	bl	__aeabi_d2lz
.LVL78:
	mov	r2, r0
	mov	r3, r1
.LVL79:
.L46:
	.loc 1 174 3 is_stmt 1 view .LVU263
	.loc 1 177 3 view .LVU264
	.loc 1 174 11 is_stmt 0 view .LVU265
	ldrd	r1, r0, [r4, #16]
	adds	r1, r1, r2
	adc	r3, r3, r0
.LVL80:
	.loc 1 177 11 view .LVU266
	strd	r1, r3, [r5]
	.loc 1 178 3 is_stmt 1 view .LVU267
	.loc 1 178 8 is_stmt 0 view .LVU268
	vldr.32	s15, [r4, #40]
	vcmp.f32	s15, s17
	vmrs	APSR_nzcv, FPSCR
	ite	ne
	movne	r0, #1
	moveq	r0, #0
.LVL81:
.L43:
	.loc 1 178 8 view .LVU269
.LBE25:
	.loc 1 182 1 view .LVU270
	vldm	sp!, {d8}
	.cfi_remember_state
	.cfi_restore 80
	.cfi_restore 81
	.cfi_def_cfa_offset 24
	pop	{r3, r4, r5, r6, r7, pc}
.LVL82:
.L49:
	.cfi_restore_state
	.loc 1 161 6 view .LVU271
	mvn	r0, #21
	.loc 1 181 2 is_stmt 1 view .LVU272
	.loc 1 181 9 is_stmt 0 view .LVU273
	b	.L43
	.cfi_endproc
.LFE7:
	.size	timeutil_sync_local_from_ref, .-timeutil_sync_local_from_ref
	.global	__aeabi_dsub
	.section	.text.timeutil_sync_skew_to_ppb,"ax",%progbits
	.align	1
	.global	timeutil_sync_skew_to_ppb
	.syntax unified
	.thumb
	.thumb_func
	.type	timeutil_sync_skew_to_ppb, %function
timeutil_sync_skew_to_ppb:
.LVL83:
.LFB8:
	.loc 1 185 1 is_stmt 1 view -0
	.cfi_startproc
	@ args = 0, pretend = 0, frame = 0
	@ frame_needed = 0, uses_anonymous_args = 0
	.loc 1 186 2 view .LVU275
	.loc 1 185 1 is_stmt 0 view .LVU276
	push	{r3, lr}
	.cfi_def_cfa_offset 8
	.cfi_offset 3, -8
	.cfi_offset 14, -4
	.loc 1 185 1 view .LVU277
	vmov	r0, s0
	.loc 1 186 35 view .LVU278
	bl	__aeabi_f2d
.LVL84:
	.loc 1 186 35 view .LVU279
	mov	r2, r0
	mov	r3, r1
	.loc 1 186 33 view .LVU280
	movs	r0, #0
	ldr	r1, .L55+8
	bl	__aeabi_dsub
.LVL85:
	.loc 1 186 49 view .LVU281
	adr	r3, .L55
	ldrd	r2, [r3]
	bl	__aeabi_dmul
.LVL86:
	.loc 1 186 10 view .LVU282
	bl	__aeabi_d2lz
.LVL87:
	.loc 1 187 2 is_stmt 1 view .LVU283
	.loc 1 189 2 view .LVU284
	.loc 1 189 34 is_stmt 0 view .LVU285
	cmp	r1, r0, asr #31
	it	ne
	movne	r0, #-2147483648
.LVL88:
	.loc 1 190 1 view .LVU286
	pop	{r3, pc}
.L56:
	.align	3
.L55:
	.word	0
	.word	1104006501
	.word	1072693248
	.cfi_endproc
.LFE8:
	.size	timeutil_sync_skew_to_ppb, .-timeutil_sync_skew_to_ppb
	.text
.Letext0:
	.file 2 "/home/g/zephyr-sdk-0.16.3/arm-zephyr-eabi/picolibc/include/machine/_default_types.h"
	.file 3 "/home/g/zephyr-sdk-0.16.3/arm-zephyr-eabi/picolibc/include/sys/_stdint.h"
	.file 4 "/home/g/zephyr-sdk-0.16.3/arm-zephyr-eabi/picolibc/include/sys/types.h"
	.file 5 "/home/g/zephyr-sdk-0.16.3/arm-zephyr-eabi/picolibc/include/time.h"
	.file 6 "/home/g/mise-work/zmk-firmware/zmk/zephyr/include/zephyr/sys/timeutil.h"
	.file 7 "/home/g/zephyr-sdk-0.16.3/arm-zephyr-eabi/picolibc/include/sys/errno.h"
	.file 8 "<built-in>"