	.cpu cortex-m4
	.arch armv7e-m
	.fpu fpv4-sp-d16
	.eabi_attribute 27, 1
	.eabi_attribute 28, 1
	.eabi_attribute 20, 1
	.eabi_attribute 21, 1
	.eabi_attribute 23, 3
	.eabi_attribute 24, 1
	.eabi_attribute 25, 1
	.eabi_attribute 26, 1
	.eabi_attribute 30, 4
	.eabi_attribute 34, 1
	.eabi_attribute 38, 1
	.eabi_attribute 18, 4
	.file	"spi_nrfx_common.c"
	.text
.Ltext0:
	.cfi_sections	.debug_frame
	.file 1 "/home/g/mise-work/zmk-firmware/zmk/zephyr/drivers/spi/spi_nrfx_common.c"
	.section	.text.nrf_gpio_cfg_input,"ax",%progbits
	.align	1
	.syntax unified
	.thumb
	.thumb_func
	.type	nrf_gpio_cfg_input, %function
nrf_gpio_cfg_input:
.LVL0:
.LFB502:
	.file 2 "/home/g/mise-work/zmk-firmware/zmk/modules/hal/nordic/nrfx/hal/nrf_gpio.h"
	.loc 2 1025 1 view -0
	.cfi_startproc
	@ args = 0, pretend = 0, frame = 0
	@ frame_needed = 0, uses_anonymous_args = 0
	@ link register save eliminated.
	.loc 2 1026 5 view .LVU1
.LBB27:
.LBI27:
	.loc 2 928 20 view .LVU2
.LBB28:
	.loc 2 936 5 view .LVU3
.LBB29:
.LBI29:
	.loc 2 891 31 view .LVU4
.LBB30:
	.loc 2 893 7 view .LVU5
	.loc 2 893 8 view .LVU6
	.loc 2 895 5 view .LVU7
	.loc 2 897 5 view .LVU8
.LBB31:
.LBI31:
	.loc 2 1449 24 view .LVU9
.LBB32:
	.loc 2 1451 5 view .LVU10
	.loc 2 1452 5 view .LVU11
	.loc 2 1452 28 is_stmt 0 view .LVU12
	and	r2, r0, #31
.LVL1:
	.loc 2 1454 5 is_stmt 1 view .LVU13
	.loc 2 1454 5 is_stmt 0 view .LVU14
.LBE32:
.LBE31:
	.loc 2 897 5 view .LVU15
	lsrs	r0, r0, #5
.LVL2:
	.loc 2 897 5 view .LVU16
	beq	.L4
	cmp	r0, #1
	bne	.L3
	ldr	r3, .L6
.L2:
.LVL3:
	.loc 2 899 123 is_stmt 1 view .LVU17
	.loc 2 902 15 view .LVU18
	.loc 2 902 16 view .LVU19
	.loc 2 904 5 view .LVU20
	.loc 2 904 5 is_stmt 0 view .LVU21
.LBE30:
.LBE29:
	.loc 2 937 5 is_stmt 1 view .LVU22
	add	r3, r3, r2, lsl #2
.LVL4:
	.loc 2 951 9 is_stmt 0 view .LVU23
	ldr	r2, .L6+4
.LVL5:
	.loc 2 937 14 view .LVU24
	ldr	r0, [r3, #1792]
.LVL6:
	.loc 2 939 5 is_stmt 1 view .LVU25
	.loc 2 951 5 view .LVU26
	.loc 2 951 9 is_stmt 0 view .LVU27
	ands	r2, r2, r0
.LVL7:
	.loc 2 952 5 is_stmt 1 view .LVU28
	.loc 2 952 9 is_stmt 0 view .LVU29
	orr	r2, r2, r1, lsl #2
.LVL8:
	.loc 2 962 5 is_stmt 1 view .LVU30
	.loc 2 962 30 is_stmt 0 view .LVU31
	str	r2, [r3, #1792]
.LVL9:
	.loc 2 962 30 view .LVU32
.LBE28:
.LBE27:
	.loc 2 1033 1 view .LVU33
	bx	lr
.LVL10:
.L4:
.LBB36:
.LBB35:
.LBB34:
.LBB33:
	.loc 2 899 24 view .LVU34
	mov	r3, #1342177280
	b	.L2
.L3:
	.loc 2 899 123 is_stmt 1 view .LVU35
	.loc 2 902 15 view .LVU36
	.loc 2 902 16 view .LVU37
	.loc 2 904 5 view .LVU38
.LVL11:
	.loc 2 904 5 is_stmt 0 view .LVU39
.LBE33:
.LBE34:
	.loc 2 937 5 is_stmt 1 view .LVU40
	.loc 2 937 14 is_stmt 0 view .LVU41
	add	r2, r2, #448
.LVL12:
	.loc 2 937 14 view .LVU42
	movs	r3, #0
	ldr	r3, [r3, r2, lsl #2]
	.inst	0xdeff
.L7:
	.align	2
.L6:
	.word	1342178048
	.word	-198416
.LBE35:
.LBE36:
	.cfi_endproc
.LFE502:
	.size	nrf_gpio_cfg_input, .-nrf_gpio_cfg_input
	.section	.text.spi_nrfx_wake_init,"ax",%progbits
	.align	1
	.global	spi_nrfx_wake_init
	.syntax unified
	.thumb
	.thumb_func
	.type	spi_nrfx_wake_init, %function
spi_nrfx_wake_init:
.LVL13:
.LFB578:
	.loc 1 12 1 is_stmt 1 view -0
	.cfi_startproc
	@ args = 0, pretend = 0, frame = 16
	@ frame_needed = 0, uses_anonymous_args = 0
	.loc 1 13 2 view .LVU44
	.loc 1 12 1 is_stmt 0 view .LVU45
	push	{r4, r5, lr}
	.cfi_def_cfa_offset 12
	.cfi_offset 4, -12
	.cfi_offset 5, -8
	.cfi_offset 14, -4
	sub	sp, sp, #20
	.cfi_def_cfa_offset 32
	.loc 1 13 29 view .LVU46
	movs	r3, #1
	strb	r3, [sp, #4]
	.loc 1 16 2 is_stmt 1 view .LVU47
	.loc 1 17 2 view .LVU48
	.loc 1 12 1 is_stmt 0 view .LVU49
	mov	r5, r0
	.loc 1 17 31 view .LVU50
	movs	r3, #2
	add	r0, sp, #7
.LVL14:
	.loc 1 17 31 view .LVU51
	strb	r3, [sp, #8]
	str	r0, [sp, #12]
	.loc 1 21 2 is_stmt 1 view .LVU52
	.loc 1 23 2 view .LVU53
	.loc 1 23 8 is_stmt 0 view .LVU54
	bl	nrfx_gpiote_channel_alloc
.LVL15:
	.loc 1 24 5 view .LVU55
	ldr	r3, .L12
	cmp	r0, r3
	.loc 1 23 8 view .LVU56
	mov	r4, r0
.LVL16:
	.loc 1 24 2 is_stmt 1 view .LVU57
	.loc 1 24 5 is_stmt 0 view .LVU58
	bne	.L10
	.loc 1 28 2 is_stmt 1 view .LVU59
	.loc 1 28 8 is_stmt 0 view .LVU60
	movs	r3, #0
	add	r2, sp, #8
	add	r1, sp, #4
	mov	r0, r5
.LVL17:
	.loc 1 28 8 view .LVU61
	bl	nrfx_gpiote_input_configure
.LVL18:
	.loc 1 32 2 is_stmt 1 view .LVU62
	.loc 1 32 5 is_stmt 0 view .LVU63
	cmp	r0, r4
	beq	.L11
	.loc 1 33 3 is_stmt 1 view .LVU64
	ldrb	r0, [sp, #7]	@ zero_extendqisi2
.LVL19:
	.loc 1 33 3 is_stmt 0 view .LVU65
	bl	nrfx_gpiote_channel_free
.LVL20:
	.loc 1 34 3 is_stmt 1 view .LVU66
	.loc 1 34 10 is_stmt 0 view .LVU67
	mvn	r0, #4
.LVL21:
.L8:
	.loc 1 38 1 view .LVU68
	add	sp, sp, #20
	.cfi_remember_state
	.cfi_def_cfa_offset 12
	@ sp needed
	pop	{r4, r5, pc}
.LVL22:
.L10:
	.cfi_restore_state
	.loc 1 25 10 view .LVU69
	mvn	r0, #18
.LVL23:
	.loc 1 25 10 view .LVU70
	b	.L8
.LVL24:
.L11:
	.loc 1 37 9 view .LVU71
	movs	r0, #0
.LVL25:
	.loc 1 37 9 view .LVU72
	b	.L8
.L13:
	.align	2
.L12:
	.word	195887104
	.cfi_endproc
.LFE578:
	.size	spi_nrfx_wake_init, .-spi_nrfx_wake_init
	.section	.text.spi_nrfx_wake_request,"ax",%progbits
	.align	1
	.global	spi_nrfx_wake_request
	.syntax unified
	.thumb
	.thumb_func
	.type	spi_nrfx_wake_request, %function
spi_nrfx_wake_request:
.LVL26:
.LFB579:
	.loc 1 41 1 is_stmt 1 view -0
	.cfi_startproc
	@ args = 0, pretend = 0, frame = 0
	@ frame_needed = 0, uses_anonymous_args = 0
	.loc 1 42 2 view .LVU74
	.loc 1 41 1 is_stmt 0 view .LVU75
	push	{r4, r5, r6, lr}
	.cfi_def_cfa_offset 16
	.cfi_offset 4, -16
	.cfi_offset 5, -12
	.cfi_offset 6, -8
	.cfi_offset 14, -4
	.loc 1 41 1 view .LVU76
	mov	r5, r0
	.loc 1 42 37 view .LVU77
	bl	nrfx_gpiote_in_event_get
.LVL27:
	.loc 1 54 2 view .LVU78
	movs	r1, #0
	.loc 1 42 37 view .LVU79
	mov	r4, r0
.LVL28:
	.loc 1 43 2 is_stmt 1 view .LVU80
	.loc 1 44 2 view .LVU81
	.loc 1 48 2 view .LVU82
	.loc 1 54 2 view .LVU83
	mov	r0, r5
	bl	nrfx_gpiote_trigger_enable
.LVL29:
	.loc 1 59 2 view .LVU84
	movs	r1, #3
	mov	r0, r5
	bl	nrf_gpio_cfg_input
.LVL30:
	.loc 1 61 2 view .LVU85
.LBB37:
.LBI37:
	.file 3 "/home/g/mise-work/zmk-firmware/zmk/zephyr/include/zephyr/kernel.h"
	.loc 3 1816 24 view .LVU86
	.loc 3 1818 2 view .LVU87
.LBB38:
.LBI38:
	.file 4 "/home/g/mise-work/zmk-firmware/zmk/zephyr/include/zephyr/arch/arm/misc.h"
	.loc 4 24 24 view .LVU88
.LBB39:
	.loc 4 26 2 view .LVU89
	.loc 4 26 9 is_stmt 0 view .LVU90
	bl	sys_clock_cycle_get_32
.LVL31:
.LBE39:
.LBE38:
.LBE37:
.LBB42:
.LBB43:
.LBB44:
.LBB45:
	.file 5 "/home/g/mise-work/zmk-firmware/zmk/modules/hal/nordic/nrfx/hal/nrf_common.h"
	.loc 5 283 18 view .LVU91
	add	r4, r4, #1073741824
.LVL32:
	.loc 5 283 18 view .LVU92
.LBE45:
.LBE44:
.LBE43:
.LBE42:
.LBB52:
.LBB41:
.LBB40:
	.loc 4 26 9 view .LVU93
	mov	r6, r0
.LVL33:
	.loc 4 26 9 view .LVU94
.LBE40:
.LBE41:
.LBE52:
	.loc 1 62 2 is_stmt 1 view .LVU95
.LBB53:
.LBB50:
.LBB48:
.LBB46:
	.loc 5 283 18 is_stmt 0 view .LVU96
	add	r4, r4, #24576
.LVL34:
.L15:
	.loc 5 283 18 view .LVU97
.LBE46:
.LBE48:
.LBE50:
.LBE53:
	.loc 1 62 9 is_stmt 1 view .LVU98
.LBB54:
.LBI42:
	.file 6 "/home/g/mise-work/zmk-firmware/zmk/modules/hal/nordic/nrfx/hal/nrf_gpiote.h"
	.loc 6 638 23 view .LVU99
.LBB51:
	.loc 6 641 5 view .LVU100
.LBB49:
.LBI44:
	.loc 5 281 23 view .LVU101
.LBB47:
	.loc 5 283 5 view .LVU102
	.loc 5 283 17 is_stmt 0 view .LVU103
	ldr	r3, [r4]
.LVL35:
	.loc 5 283 17 view .LVU104
.LBE47:
.LBE49:
.LBE51:
.LBE54:
	.loc 1 62 9 view .LVU105
	cbz	r3, .L17
	.loc 1 48 6 view .LVU106
	movs	r4, #0
.L16:
.LVL36:
	.loc 1 71 2 is_stmt 1 view .LVU107
	mov	r0, r5
	bl	nrfx_gpiote_trigger_disable
.LVL37:
	.loc 1 72 2 view .LVU108
	mov	r0, r5
	movs	r1, #1
	bl	nrf_gpio_cfg_input
.LVL38:
	.loc 1 74 2 view .LVU109
	.loc 1 75 1 is_stmt 0 view .LVU110
	mov	r0, r4
	pop	{r4, r5, r6, pc}
.LVL39:
.L17:
.LBB55:
	.loc 1 63 3 is_stmt 1 view .LVU111
.LBB56:
.LBI56:
	.loc 3 1816 24 view .LVU112
	.loc 3 1818 2 view .LVU113
.LBB57:
.LBI57:
	.loc 4 24 24 view .LVU114
.LBB58:
	.loc 4 26 2 view .LVU115
	.loc 4 26 9 is_stmt 0 view .LVU116
	bl	sys_clock_cycle_get_32
.LVL40:
	.loc 4 26 9 view .LVU117
.LBE58:
.LBE57:
.LBE56:
	.loc 1 65 3 is_stmt 1 view .LVU118
	.loc 1 63 12 is_stmt 0 view .LVU119
	subs	r0, r0, r6
.LVL41:
	.loc 1 65 6 view .LVU120
	cmp	r0, #6
	bls	.L15
	.loc 1 66 8 view .LVU121
	mvn	r4, #115
	b	.L16
.LBE55:
	.cfi_endproc
.LFE579:
	.size	spi_nrfx_wake_request, .-spi_nrfx_wake_request
	.text
.Letext0:
	.file 7 "/home/g/zephyr-sdk-0.16.3/arm-zephyr-eabi/picolibc/include/machine/_default_types.h"
	.file 8 "/home/g/zephyr-sdk-0.16.3/arm-zephyr-eabi/picolibc/include/sys/_stdint.h"
	.file 9 "/home/g/mise-work/zmk-firmware/zmk/modules/hal/nordic/nrfx/mdk/nrf52840.h"
	.file 10 "/home/g/mise-work/zmk-firmware/zmk/modules/hal/nordic/nrfx/drivers/nrfx_errors.h"
	.file 11 "/home/g/mise-work/zmk-firmware/zmk/modules/hal/nordic/nrfx/drivers/include/nrfx_gpiote.h"