	.cpu cortex-m4
	.arch armv7e-m
	.fpu fpv4-sp-d16
	.eabi_attribute 27, 1
	.eabi_attribute 28, 1
	.eabi_attribute 20, 1
	.eabi_attribute 21, 1
	.eabi_attribute 23, 3
	.eabi_attribute 24, 1
	.eabi_attribute 25, 1
	.eabi_attribute 26, 1
	.eabi_attribute 30, 4
	.eabi_attribute 34, 1
	.eabi_attribute 38, 1
	.eabi_attribute 18, 4
	.file	"nrfx_flag32_allocator.c"
	.text
.Ltext0:
	.cfi_sections	.debug_frame
	.file 1 "/home/g/mise-work/zmk-firmware/zmk/modules/hal/nordic/nrfx/helpers/nrfx_flag32_allocator.c"
	.section	.text.nrfx_flag32_is_allocated,"ax",%progbits
	.align	1
	.global	nrfx_flag32_is_allocated
	.syntax unified
	.thumb
	.thumb_func
	.type	nrfx_flag32_is_allocated, %function
nrfx_flag32_is_allocated:
.LVL0:
.LFB267:
	.loc 1 54 1 view -0
	.cfi_startproc
	@ args = 0, pretend = 0, frame = 0
	@ frame_needed = 0, uses_anonymous_args = 0
	@ link register save eliminated.
	.loc 1 55 5 view .LVU1
	.loc 1 55 39 is_stmt 0 view .LVU2
	lsrs	r0, r0, r1
.LVL1:
	.loc 1 55 45 view .LVU3
	mvns	r0, r0
	.loc 1 56 1 view .LVU4
	and	r0, r0, #1
	bx	lr
	.cfi_endproc
.LFE267:
	.size	nrfx_flag32_is_allocated, .-nrfx_flag32_is_allocated
	.section	.text.nrfx_flag32_alloc,"ax",%progbits
	.align	1
	.global	nrfx_flag32_alloc
	.syntax unified
	.thumb
	.thumb_func
	.type	nrfx_flag32_alloc, %function
nrfx_flag32_alloc:
.LFB268:
	.loc 1 59 1 is_stmt 1 view -0
	.cfi_startproc
	@ args = 0, pretend = 0, frame = 0
	@ frame_needed = 0, uses_anonymous_args = 0
.LVL2:
	.loc 1 59 1 is_stmt 0 view .LVU6
	push	{r4, r5, lr}
	.cfi_def_cfa_offset 12
	.cfi_offset 4, -12
	.cfi_offset 5, -8
	.cfi_offset 14, -4
.L4:
	.loc 1 60 5 is_stmt 1 view .LVU7
	.loc 1 61 5 view .LVU8
	.loc 1 63 5 view .LVU9
	.loc 1 64 9 view .LVU10
	.loc 1 64 19 is_stmt 0 view .LVU11
	ldr	r4, [r0]
.LVL3:
	.loc 1 65 9 is_stmt 1 view .LVU12
	.loc 1 65 12 is_stmt 0 view .LVU13
	cbz	r4, .L5
	.loc 1 71 13 is_stmt 1 view .LVU14
.LBB6:
.LBB7:
	.file 2 "/home/g/mise-work/zmk-firmware/zmk/zephyr/include/zephyr/sys/atomic_builtin.h"
	.loc 2 43 9 is_stmt 0 view .LVU15
	dmb	ish
.LBE7:
.LBE6:
	.loc 1 71 36 view .LVU16
	clz	r3, r4
	.loc 1 71 17 view .LVU17
	rsb	r3, r3, #31
	uxtb	r3, r3
.LVL4:
	.loc 1 74 9 is_stmt 1 view .LVU18
	.loc 1 75 14 view .LVU19
.LBB10:
.LBI6:
	.loc 2 40 19 view .LVU20
.LBB8:
	.loc 2 43 2 view .LVU21
.LBE8:
.LBE10:
	.loc 1 74 38 is_stmt 0 view .LVU22
	movs	r2, #1
	lsls	r2, r2, r3
	.loc 1 74 18 view .LVU23
	bic	r2, r4, r2
.L8:
.LBB11:
.LBB9:
	.loc 2 43 9 view .LVU24
	ldrex	r5, [r0]
	cmp	r5, r4
	bne	.L9
	strex	ip, r2, [r0]
	cmp	ip, #0
	bne	.L8
.L9:
.LVL5:
	.loc 2 43 9 view .LVU25
	dmb	ish
.LBE9:
.LBE11:
	.loc 1 75 14 view .LVU26
	bne	.L4
	.loc 1 77 5 is_stmt 1 view .LVU27
	.loc 1 79 12 is_stmt 0 view .LVU28
	ldr	r0, .L10
.LVL6:
	.loc 1 77 13 view .LVU29
	strb	r3, [r1]
	.loc 1 79 5 is_stmt 1 view .LVU30
.LVL7:
.L2:
	.loc 1 80 1 is_stmt 0 view .LVU31
	pop	{r4, r5, pc}
.LVL8:
.L5:
	.loc 1 67 20 view .LVU32
	ldr	r0, .L10+4
.LVL9:
	.loc 1 67 20 view .LVU33
	b	.L2
.L11:
	.align	2
.L10:
	.word	195887104
	.word	195887106
	.cfi_endproc
.LFE268:
	.size	nrfx_flag32_alloc, .-nrfx_flag32_alloc
	.section	.text.nrfx_flag32_free,"ax",%progbits
	.align	1
	.global	nrfx_flag32_free
	.syntax unified
	.thumb
	.thumb_func
	.type	nrfx_flag32_free, %function
nrfx_flag32_free:
.LVL10:
.LFB269:
	.loc 1 83 1 is_stmt 1 view -0
	.cfi_startproc
	@ args = 0, pretend = 0, frame = 0
	@ frame_needed = 0, uses_anonymous_args = 0
	.loc 1 84 5 view .LVU35
	.loc 1 86 5 view .LVU36
	.loc 1 83 1 is_stmt 0 view .LVU37
	push	{r4, lr}
	.cfi_def_cfa_offset 8
	.cfi_offset 4, -8
	.cfi_offset 14, -4
	.loc 1 86 9 view .LVU38
	ldr	r3, [r0]
	lsrs	r3, r3, r1
	.loc 1 86 8 view .LVU39
	lsls	r3, r3, #31
	bmi	.L15
	.loc 1 93 37 view .LVU40
	movs	r3, #1
	lsls	r3, r3, r1
.LVL11:
.L14:
	.loc 1 91 5 is_stmt 1 discriminator 1 view .LVU41
	.loc 1 92 9 discriminator 1 view .LVU42
	.loc 1 92 19 is_stmt 0 discriminator 1 view .LVU43
	ldr	r2, [r0]
.LVL12:
	.loc 1 93 9 is_stmt 1 discriminator 1 view .LVU44
	.loc 1 94 14 discriminator 1 view .LVU45
.LBB12:
.LBI12:
	.loc 2 40 19 discriminator 1 view .LVU46
.LBB13:
	.loc 2 43 2 discriminator 1 view .LVU47
	.loc 2 43 9 is_stmt 0 discriminator 1 view .LVU48
	dmb	ish
.LBE13:
.LBE12:
	.loc 1 93 18 discriminator 1 view .LVU49
	orr	r1, r3, r2
.LVL13:
.L18:
.LBB15:
.LBB14:
	.loc 2 43 9 discriminator 1 view .LVU50
	ldrex	r4, [r0]
	cmp	r4, r2
	bne	.L19
	strex	ip, r1, [r0]
	cmp	ip, #0
	bne	.L18
.L19:
.LVL14:
	.loc 2 43 9 discriminator 1 view .LVU51
	dmb	ish
.LBE14:
.LBE15:
	.loc 1 94 14 discriminator 1 view .LVU52
	bne	.L14
	.loc 1 96 12 view .LVU53
	ldr	r0, .L20
.LVL15:
.L12:
	.loc 1 97 1 view .LVU54
	pop	{r4, pc}
.LVL16:
.L15:
	.loc 1 88 16 view .LVU55
	ldr	r0, .L20+4
.LVL17:
	.loc 1 88 16 view .LVU56
	b	.L12
.L21:
	.align	2
.L20:
	.word	195887104
	.word	195887108
	.cfi_endproc
.LFE269:
	.size	nrfx_flag32_free, .-nrfx_flag32_free
	.text
.Letext0:
	.file 3 "/home/g/zephyr-sdk-0.16.3/arm-zephyr-eabi/picolibc/include/machine/_default_types.h"
	.file 4 "/home/g/zephyr-sdk-0.16.3/arm-zephyr-eabi/picolibc/include/sys/_stdint.h"
	.file 5 "/home/g/mise-work/zmk-firmware/zmk/zephyr/include/zephyr/sys/atomic.h"
	.file 6 "/home/g/mise-work/zmk-firmware/zmk/modules/hal/nordic/nrfx/drivers/nrfx_errors.h"