	.cpu cortex-m4
	.arch armv7e-m
	.fpu fpv4-sp-d16
	.eabi_attribute 27, 1
	.eabi_attribute 28, 1
	.eabi_attribute 20, 1
	.eabi_attribute 21, 1
	.eabi_attribute 23, 3
	.eabi_attribute 24, 1
	.eabi_attribute 25, 1
	.eabi_attribute 26, 1
	.eabi_attribute 30, 4
	.eabi_attribute 34, 1
	.eabi_attribute 38, 1
	.eabi_attribute 18, 4
	.file	"dis.c"
	.text
.Ltext0:
	.cfi_sections	.debug_frame
	.file 1 "/home/g/mise-work/zmk-firmware/zmk/zephyr/subsys/bluetooth/services/dis.c"
	.section	.text.read_pnp_id,"ax",%progbits
	.align	1
	.syntax unified
	.thumb
	.thumb_func
	.type	read_pnp_id, %function
read_pnp_id:
.LVL0:
.LFB553:
	.loc 1 98 1 view -0
	.cfi_startproc
	@ args = 4, pretend = 0, frame = 0
	@ frame_needed = 0, uses_anonymous_args = 0
	.loc 1 99 2 view .LVU1
	.loc 1 98 1 is_stmt 0 view .LVU2
	push	{r0, r1, r2, r3, r4, lr}
	.cfi_def_cfa_offset 24
	.cfi_offset 4, -8
	.cfi_offset 14, -4
	.loc 1 99 9 view .LVU3
	movs	r4, #7
	str	r4, [sp, #8]
	ldr	r4, .L2
	str	r4, [sp, #4]
	ldrh	r4, [sp, #24]
	str	r4, [sp]
	bl	bt_gatt_attr_read
.LVL1:
	.loc 1 101 1 view .LVU4
	add	sp, sp, #16
	.cfi_def_cfa_offset 8
	@ sp needed
	pop	{r4, pc}
.LVL2:
.L3:
	.loc 1 101 1 view .LVU5
	.align	2
.L2:
	.word	dis_pnp_id
	.cfi_endproc
.LFE553:
	.size	read_pnp_id, .-read_pnp_id
	.section	.text.read_str,"ax",%progbits
	.align	1
	.syntax unified
	.thumb
	.thumb_func
	.type	read_str, %function
read_str:
.LVL3:
.LFB552:
	.loc 1 89 1 is_stmt 1 view -0
	.cfi_startproc
	@ args = 4, pretend = 0, frame = 0
	@ frame_needed = 0, uses_anonymous_args = 0
	.loc 1 90 2 view .LVU7
	.loc 1 89 1 is_stmt 0 view .LVU8
	push	{r0, r1, r2, r3, r4, r5, r6, r7, r8, lr}
	.cfi_def_cfa_offset 40
	.cfi_offset 4, -24
	.cfi_offset 5, -20
	.cfi_offset 6, -16
	.cfi_offset 7, -12
	.cfi_offset 8, -8
	.cfi_offset 14, -4
	.loc 1 90 61 view .LVU9
	ldr	r8, [r1, #12]
	.loc 1 89 1 view .LVU10
	mov	r5, r0
	.loc 1 91 6 view .LVU11
	mov	r0, r8
.LVL4:
	.loc 1 89 1 view .LVU12
	mov	r7, r3
	mov	r4, r1
	mov	r6, r2
	.loc 1 91 6 view .LVU13
	bl	strlen
.LVL5:
	.loc 1 90 9 view .LVU14
	ldrh	r3, [sp, #40]
	str	r3, [sp]
	uxth	r0, r0
	strd	r8, r0, [sp, #4]
	mov	r3, r7
	mov	r2, r6
	mov	r1, r4
	mov	r0, r5
	bl	bt_gatt_attr_read
.LVL6:
	.loc 1 92 1 view .LVU15
	add	sp, sp, #16
	.cfi_def_cfa_offset 24
	@ sp needed
	pop	{r4, r5, r6, r7, r8, pc}
	.loc 1 92 1 view .LVU16
	.cfi_endproc
.LFE552:
	.size	read_str, .-read_str
	.global	dis_svc
	.section	._bt_gatt_service_static.static.dis_svc_,"a"
	.align	2
	.type	dis_svc, %object
	.size	dis_svc, 8
dis_svc:
	.word	attr_dis_svc
	.word	7
	.global	attr_dis_svc
	.section	.rodata.str1.1,"aMS",%progbits,1
.LC0:
	.ascii	"DYNAMIC_PINCTLS\000"
.LC1:
	.ascii	"ZMK Project\000"
	.section	.rodata.attr_dis_svc,"a"
	.align	2
	.type	attr_dis_svc, %object
	.size	attr_dis_svc, 140
attr_dis_svc:
	.word	__compound_literal.0
	.word	bt_gatt_attr_read_service
	.word	0
	.word	__compound_literal.1
	.short	0
	.short	1
	.word	__compound_literal.2
	.word	bt_gatt_attr_read_chrc
	.word	0
	.word	__compound_literal.4
	.short	0
	.short	1
	.word	__compound_literal.5
	.word	read_str
	.word	0
	.word	.LC0
	.short	0
	.short	1
	.word	__compound_literal.6
	.word	bt_gatt_attr_read_chrc
	.word	0
	.word	__compound_literal.8
	.short	0
	.short	1
	.word	__compound_literal.9
	.word	read_str
	.word	0
	.word	.LC1
	.short	0
	.short	1
	.word	__compound_literal.10
	.word	bt_gatt_attr_read_chrc
	.word	0
	.word	__compound_literal.12
	.short	0
	.short	1
	.word	__compound_literal.13
	.word	read_pnp_id
	.word	0
	.word	dis_pnp_id
	.short	0
	.short	1
	.section	.data.__compound_literal.13,"aw"
	.align	1
	.type	__compound_literal.13, %object
	.size	__compound_literal.13, 4
__compound_literal.13:
	.byte	0
	.space	1
	.short	10832
	.section	.data.__compound_literal.12,"aw"
	.align	2
	.type	__compound_literal.12, %object
	.size	__compound_literal.12, 8
__compound_literal.12:
	.word	__compound_literal.11
	.short	0
	.byte	2
	.space	1
	.section	.data.__compound_literal.11,"aw"
	.align	1
	.type	__compound_literal.11, %object
	.size	__compound_literal.11, 4
__compound_literal.11:
	.byte	0
	.space	1
	.short	10832
	.section	.data.__compound_literal.10,"aw"
	.align	1
	.type	__compound_literal.10, %object
	.size	__compound_literal.10, 4
__compound_literal.10:
	.byte	0
	.space	1
	.short	10243
	.section	.data.__compound_literal.9,"aw"
	.align	1
	.type	__compound_literal.9, %object
	.size	__compound_literal.9, 4
__compound_literal.9:
	.byte	0
	.space	1
	.short	10793
	.section	.data.__compound_literal.8,"aw"
	.align	2
	.type	__compound_literal.8, %object
	.size	__compound_literal.8, 8
__compound_literal.8:
	.word	__compound_literal.7
	.short	0
	.byte	2
	.space	1
	.section	.data.__compound_literal.7,"aw"
	.align	1
	.type	__compound_literal.7, %object
	.size	__compound_literal.7, 4
__compound_literal.7:
	.byte	0
	.space	1
	.short	10793
	.section	.data.__compound_literal.6,"aw"
	.align	1
	.type	__compound_literal.6, %object
	.size	__compound_literal.6, 4
__compound_literal.6:
	.byte	0
	.space	1
	.short	10243
	.section	.data.__compound_literal.5,"aw"
	.align	1
	.type	__compound_literal.5, %object
	.size	__compound_literal.5, 4
__compound_literal.5:
	.byte	0
	.space	1
	.short	10788
	.section	.data.__compound_literal.4,"aw"
	.align	2
	.type	__compound_literal.4, %object
	.size	__compound_literal.4, 8
__compound_literal.4:
	.word	__compound_literal.3
	.short	0
	.byte	2
	.space	1
	.section	.data.__compound_literal.3,"aw"
	.align	1
	.type	__compound_literal.3, %object
	.size	__compound_literal.3, 4
__compound_literal.3:
	.byte	0
	.space	1
	.short	10788
	.section	.data.__compound_literal.2,"aw"
	.align	1
	.type	__compound_literal.2, %object
	.size	__compound_literal.2, 4
__compound_literal.2:
	.byte	0
	.space	1
	.short	10243
	.section	.data.__compound_literal.1,"aw"
	.align	1
	.type	__compound_literal.1, %object
	.size	__compound_literal.1, 4
__compound_literal.1:
	.byte	0
	.space	1
	.short	6154
	.section	.data.__compound_literal.0,"aw"
	.align	1
	.type	__compound_literal.0, %object
	.size	__compound_literal.0, 4
__compound_literal.0:
	.byte	0
	.space	1
	.short	10240
	.section	.data.dis_pnp_id,"aw"
	.type	dis_pnp_id, %object
	.size	dis_pnp_id, 7
dis_pnp_id:
	.byte	1
	.2byte	7504
	.2byte	24926
	.2byte	1
	.global	log_const_bt_dis
	.section	.rodata.str1.1
.LC2:
	.ascii	"bt_dis\000"
	.section	._log_const.static.log_const_bt_dis_,"a"
	.align	2
	.type	log_const_bt_dis, %object
	.size	log_const_bt_dis, 8
log_const_bt_dis:
	.word	.LC2
	.byte	3
	.space	3
	.text
.Letext0:
	.file 2 "/home/g/zephyr-sdk-0.16.3/arm-zephyr-eabi/lib/gcc/arm-zephyr-eabi/12.2.0/include/stddef.h"
	.file 3 "/home/g/zephyr-sdk-0.16.3/arm-zephyr-eabi/picolibc/include/machine/_default_types.h"
	.file 4 "/home/g/zephyr-sdk-0.16.3/arm-zephyr-eabi/picolibc/include/sys/_stdint.h"
	.file 5 "/home/g/zephyr-sdk-0.16.3/arm-zephyr-eabi/picolibc/include/sys/_types.h"
	.file 6 "/home/g/zephyr-sdk-0.16.3/arm-zephyr-eabi/picolibc/include/sys/types.h"
	.file 7 "/home/g/mise-work/zmk-firmware/zmk/zephyr/include/zephyr/fatal_types.h"
	.file 8 "/home/g/mise-work/zmk-firmware/zmk/zephyr/include/zephyr/kernel.h"
	.file 9 "/home/g/mise-work/zmk-firmware/zmk/zephyr/include/zephyr/bluetooth/uuid.h"
	.file 10 "/home/g/mise-work/zmk-firmware/zmk/zephyr/include/zephyr/bluetooth/gatt.h"
	.file 11 "/home/g/mise-work/zmk-firmware/zmk/zephyr/include/zephyr/logging/log_instance.h"
	.file 12 "/home/g/zephyr-sdk-0.16.3/arm-zephyr-eabi/picolibc/include/string.h"