	.cpu cortex-m4
	.arch armv7e-m
	.fpu fpv4-sp-d16
	.eabi_attribute 27, 1
	.eabi_attribute 28, 1
	.eabi_attribute 20, 1
	.eabi_attribute 21, 1
	.eabi_attribute 23, 3
	.eabi_attribute 24, 1
	.eabi_attribute 25, 1
	.eabi_attribute 26, 1
	.eabi_attribute 30, 4
	.eabi_attribute 34, 1
	.eabi_attribute 38, 1
	.eabi_attribute 18, 4
	.file	"fatal.c"
	.text
.Ltext0:
	.cfi_sections	.debug_frame
	.file 1 "/home/g/mise-work/zmk-firmware/zmk/zephyr/arch/arm/core/fatal.c"
	.section	.rodata.z_arm_fatal_error.str1.1,"aMS",%progbits,1
.LC0:
	.ascii	"r0/a1:  0x%08x  r1/a2:  0x%08x  r2/a3:  0x%08x\000"
.LC1:
	.ascii	"r3/a4:  0x%08x r12/ip:  0x%08x r14/lr:  0x%08x\000"
.LC2:
	.ascii	" xpsr:  0x%08x\000"
.LC3:
	.ascii	"s[%2d]:  0x%08x  s[%2d]:  0x%08x  s[%2d]:  0x%08x  "
	.ascii	"s[%2d]:  0x%08x\000"
.LC4:
	.ascii	"fpscr:  0x%08x\000"
.LC5:
	.ascii	"Faulting instruction address (r15/pc): 0x%08x\000"
	.section	.text.z_arm_fatal_error,"ax",%progbits
	.align	1
	.global	z_arm_fatal_error
	.syntax unified
	.thumb
	.thumb_func
	.type	z_arm_fatal_error, %function
z_arm_fatal_error:
.LVL0:
.LFB475:
	.loc 1 68 1 view -0
	.cfi_startproc
	@ args = 0, pretend = 0, frame = 0
	@ frame_needed = 1, uses_anonymous_args = 0
	.loc 1 70 2 view .LVU1
	.loc 1 68 1 is_stmt 0 view .LVU2
	push	{r3, r4, r5, r6, r7, r8, r9, r10, fp, lr}
	.cfi_def_cfa_offset 40
	.cfi_offset 3, -40
	.cfi_offset 4, -36
	.cfi_offset 5, -32
	.cfi_offset 6, -28
	.cfi_offset 7, -24
	.cfi_offset 8, -20
	.cfi_offset 9, -16
	.cfi_offset 10, -12
	.cfi_offset 11, -8
	.cfi_offset 14, -4
	mov	r8, r0
	add	r7, sp, #0
	.cfi_def_cfa_register 7
	.loc 1 70 5 view .LVU3
	mov	r4, r1
	cmp	r1, #0
	beq	.L2
	.loc 1 71 3 is_stmt 1 view .LVU4
.LVL1:
.LBB502:
.LBI502:
	.loc 1 20 13 view .LVU5
.LBB503:
	.loc 1 22 2 view .LVU6
.LBB504:
	.loc 1 22 7 view .LVU7
	.loc 1 22 56 view .LVU8
	.loc 1 22 13 view .LVU9
	.loc 1 22 1 view .LVU10
	.loc 1 22 40 view .LVU11
	.loc 1 22 175 view .LVU12
	.loc 1 22 186 view .LVU13
	.loc 1 22 274 view .LVU14
.LBB505:
	.loc 1 22 2 view .LVU15
	.loc 1 22 4 view .LVU16
.LBB506:
.LBB507:
	.loc 1 22 106 is_stmt 0 view .LVU17
	mov	r9, sp
	.loc 1 22 81 view .LVU18
	sub	sp, sp, #40
.LBE507:
.LBE506:
	.loc 1 22 56 view .LVU19
	ldrd	r1, r2, [r1]
.LVL2:
	.loc 1 22 84 is_stmt 1 view .LVU20
	.loc 1 22 96 is_stmt 0 view .LVU21
	ldr	r3, [r4, #8]
.LVL3:
	.loc 1 22 2 is_stmt 1 view .LVU22
.LBB518:
	.loc 1 22 7 view .LVU23
	.loc 1 22 1 view .LVU24
	.loc 1 22 11 view .LVU25
	.loc 1 22 101 view .LVU26
	.loc 1 22 103 view .LVU27
.LBB517:
	.loc 1 22 108 view .LVU28
	.loc 1 22 119 view .LVU29
	.loc 1 22 208 view .LVU30
	.loc 1 22 25 view .LVU31
	.loc 1 22 28 view .LVU32
	.loc 1 22 2 view .LVU33
	.loc 1 22 2 view .LVU34
	.loc 1 22 69 view .LVU35
	.loc 1 22 81 is_stmt 0 view .LVU36
	mov	r5, sp
.LVL4:
	.loc 1 22 73 is_stmt 1 view .LVU37
	.loc 1 22 483 view .LVU38
	.loc 1 22 4 view .LVU39
	.loc 1 22 6 view .LVU40
	.loc 1 22 11 view .LVU41
	.loc 1 22 9 view .LVU42
	.loc 1 22 4 view .LVU43
	.loc 1 22 22 view .LVU44
.LBB508:
	.loc 1 22 2 view .LVU45
	.loc 1 22 367 view .LVU46
	.loc 1 22 74 view .LVU47
.LVL5:
	.loc 1 22 1 view .LVU48
	.loc 1 22 1 view .LVU49
	.loc 1 22 1 view .LVU50
	.loc 1 22 37 view .LVU51
	.loc 1 22 66 view .LVU52
	.loc 1 22 92 view .LVU53
	.loc 1 22 118 view .LVU54
	.loc 1 22 1477 view .LVU55
	.loc 1 22 1539 view .LVU56
	.loc 1 22 2992 view .LVU57
	.loc 1 22 3057 view .LVU58
	.loc 1 22 3082 view .LVU59
	.loc 1 22 3083 view .LVU60
	.loc 1 22 3085 view .LVU61
	.loc 1 22 3115 view .LVU62
	.loc 1 22 3145 view .LVU63
	.loc 1 22 3177 view .LVU64
	.loc 1 22 3209 view .LVU65
	.loc 1 22 3241 view .LVU66
	.loc 1 22 3438 view .LVU67
	.loc 1 22 3462 view .LVU68
	.loc 1 22 3463 view .LVU69
	.loc 1 22 3465 view .LVU70
	.loc 1 22 3494 view .LVU71
	.loc 1 22 3523 view .LVU72
	.loc 1 22 3554 view .LVU73
	.loc 1 22 3585 view .LVU74
	.loc 1 22 3616 view .LVU75
	.loc 1 22 3823 view .LVU76
.LBB509:
	.loc 1 22 3287 view .LVU77
	.loc 1 22 3292 view .LVU78
	.loc 1 22 4006 view .LVU79
	.loc 1 22 0 is_stmt 0 view .LVU80
	ldr	r0, .L8
.LVL6:
	.loc 1 22 0 view .LVU81
.LBE509:
.LBB510:
	.loc 1 22 175 view .LVU82
	mov	r6, r5
	mov	r10, #5
.LBE510:
.LBB511:
	.loc 1 22 3810 view .LVU83
	strd	r0, r1, [r5, #20]
	.loc 1 22 2765 is_stmt 1 view .LVU84
	.loc 1 22 6 view .LVU85
.LVL7:
	.loc 1 22 29 view .LVU86
	.loc 1 22 29 is_stmt 0 view .LVU87
.LBE511:
	.loc 1 22 8 is_stmt 1 view .LVU88
	.loc 1 22 5 view .LVU89
.LBB512:
	.loc 1 22 10 view .LVU90
	.loc 1 22 235 view .LVU91
	.loc 1 22 1188 view .LVU92
	.loc 1 22 1253 view .LVU93
	.loc 1 22 1420 view .LVU94
	.loc 1 22 1460 view .LVU95
	.loc 1 22 2724 view .LVU96
	.loc 1 22 2762 view .LVU97
	.loc 1 22 2767 view .LVU98
	.loc 1 22 3211 view .LVU99
.LBE512:
.LBB513:
	.loc 1 22 3810 is_stmt 0 view .LVU100
	strd	r2, r3, [r5, #28]
	.loc 1 22 2765 is_stmt 1 view .LVU101
	.loc 1 22 6 view .LVU102
.LVL8:
	.loc 1 22 29 view .LVU103
	.loc 1 22 29 is_stmt 0 view .LVU104
.LBE513:
	.loc 1 22 8 is_stmt 1 view .LVU105
	.loc 1 22 4 view .LVU106
	.loc 1 22 27 view .LVU107
	.loc 1 22 51 view .LVU108
	.loc 1 22 79 view .LVU109
	.loc 1 22 255 view .LVU110
	.loc 1 22 15 view .LVU111
.LBB514:
	.loc 1 22 5 view .LVU112
	.loc 1 22 163 view .LVU113
	.loc 1 22 165 view .LVU114
	.loc 1 22 175 is_stmt 0 view .LVU115
	str	r10, [r6, #16]!
.LVL9:
	.loc 1 22 175 view .LVU116
.LBE514:
.LBE508:
	.loc 1 22 25 is_stmt 1 view .LVU117
	.loc 1 22 6 view .LVU118
	.loc 1 22 146 view .LVU119
	.loc 1 22 148 view .LVU120
.LBB515:
.LBI515:
	.file 2 "/home/g/mise-work/zmk-firmware/zmk/app/build/zephyr/include/generated/syscalls/log_msg.h"
	.loc 2 26 20 view .LVU121
.LBB516:
	.loc 2 38 2 view .LVU122
	.loc 2 38 7 view .LVU123
	.loc 2 38 5 view .LVU124
	.loc 2 39 2 view .LVU125
	ldr	r0, .L8+4
	mov	r2, r6
.LVL10:
	.loc 2 39 2 is_stmt 0 view .LVU126
	movs	r3, #0
.LVL11:
	.loc 2 39 2 view .LVU127
	mov	r1, #10304
.LVL12:
	.loc 2 39 2 view .LVU128
	bl	z_impl_z_log_msg_static_create
.LVL13:
	.loc 2 39 2 view .LVU129
.LBE516:
.LBE515:
	mov	sp, r9
.LBE517:
	.loc 1 22 106 is_stmt 1 view .LVU130
	.loc 1 22 4 view .LVU131
.LVL14:
	.loc 1 22 41 view .LVU132
.LBE518:
	.loc 1 22 5 view .LVU133
.LBE505:
	.loc 1 22 277 view .LVU134
	.loc 1 22 4 view .LVU135
	.loc 1 22 17 view .LVU136
.LBE504:
	.loc 1 22 5 view .LVU137
	.loc 1 24 2 view .LVU138
.LBB519:
	.loc 1 24 7 view .LVU139
	.loc 1 24 56 view .LVU140
	.loc 1 24 13 view .LVU141
	.loc 1 24 1 view .LVU142
	.loc 1 24 40 view .LVU143
	.loc 1 24 175 view .LVU144
	.loc 1 24 186 view .LVU145
	.loc 1 24 274 view .LVU146
.LBB520:
	.loc 1 24 2 view .LVU147
	.loc 1 24 4 view .LVU148
	.loc 1 24 56 is_stmt 0 view .LVU149
	ldrd	r1, r2, [r4, #12]
.LVL15:
	.loc 1 24 84 is_stmt 1 view .LVU150
	.loc 1 24 96 is_stmt 0 view .LVU151
	ldr	r3, [r4, #20]
.LVL16:
	.loc 1 24 2 is_stmt 1 view .LVU152
.LBB521:
	.loc 1 24 7 view .LVU153
	.loc 1 24 1 view .LVU154
	.loc 1 24 11 view .LVU155
	.loc 1 24 101 view .LVU156
	.loc 1 24 103 view .LVU157
.LBB522:
	.loc 1 24 108 view .LVU158
	.loc 1 24 119 view .LVU159
	.loc 1 24 208 view .LVU160
	.loc 1 24 25 view .LVU161
	.loc 1 24 28 view .LVU162
	.loc 1 24 2 view .LVU163
	.loc 1 24 2 view .LVU164
	.loc 1 24 69 view .LVU165
	.loc 1 24 81 is_stmt 0 view .LVU166
	mov	sp, r5
.LVL17:
	.loc 1 24 73 is_stmt 1 view .LVU167
	.loc 1 24 483 view .LVU168
	.loc 1 24 4 view .LVU169
	.loc 1 24 6 view .LVU170
	.loc 1 24 11 view .LVU171
	.loc 1 24 9 view .LVU172
	.loc 1 24 4 view .LVU173
	.loc 1 24 22 view .LVU174
.LBB523:
	.loc 1 24 2 view .LVU175
	.loc 1 24 367 view .LVU176
	.loc 1 24 74 view .LVU177
.LVL18:
	.loc 1 24 1 view .LVU178
	.loc 1 24 1 view .LVU179
	.loc 1 24 1 view .LVU180
	.loc 1 24 37 view .LVU181
	.loc 1 24 66 view .LVU182
	.loc 1 24 92 view .LVU183
	.loc 1 24 118 view .LVU184
	.loc 1 24 1477 view .LVU185
	.loc 1 24 1539 view .LVU186
	.loc 1 24 2992 view .LVU187
	.loc 1 24 3057 view .LVU188
	.loc 1 24 3082 view .LVU189
	.loc 1 24 3083 view .LVU190
	.loc 1 24 3085 view .LVU191
	.loc 1 24 3115 view .LVU192
	.loc 1 24 3145 view .LVU193
	.loc 1 24 3177 view .LVU194
	.loc 1 24 3209 view .LVU195
	.loc 1 24 3241 view .LVU196
	.loc 1 24 3438 view .LVU197
	.loc 1 24 3462 view .LVU198
	.loc 1 24 3463 view .LVU199
	.loc 1 24 3465 view .LVU200
	.loc 1 24 3494 view .LVU201
	.loc 1 24 3523 view .LVU202
	.loc 1 24 3554 view .LVU203
	.loc 1 24 3585 view .LVU204
	.loc 1 24 3616 view .LVU205
	.loc 1 24 3823 view .LVU206
.LBB524:
	.loc 1 24 3287 view .LVU207
	.loc 1 24 3292 view .LVU208
	.loc 1 24 4006 view .LVU209
	.loc 1 24 0 is_stmt 0 view .LVU210
	ldr	r0, .L8+8
.LBE524:
.LBB525:
	.loc 1 24 175 view .LVU211
	str	r10, [r5, #16]
.LBE525:
.LBB526:
	.loc 1 24 3810 view .LVU212
	strd	r0, r1, [r5, #20]
	.loc 1 24 2765 is_stmt 1 view .LVU213
	.loc 1 24 6 view .LVU214
.LVL19:
	.loc 1 24 29 view .LVU215
	.loc 1 24 29 is_stmt 0 view .LVU216
.LBE526:
	.loc 1 24 8 is_stmt 1 view .LVU217
	.loc 1 24 5 view .LVU218
.LBB527:
	.loc 1 24 10 view .LVU219
	.loc 1 24 235 view .LVU220
	.loc 1 24 1188 view .LVU221
	.loc 1 24 1253 view .LVU222
	.loc 1 24 1420 view .LVU223
	.loc 1 24 1460 view .LVU224
	.loc 1 24 2724 view .LVU225
	.loc 1 24 2762 view .LVU226
	.loc 1 24 2767 view .LVU227
	.loc 1 24 3211 view .LVU228
.LBE527:
.LBB528:
	.loc 1 24 3810 is_stmt 0 view .LVU229
	strd	r2, r3, [r5, #28]
	.loc 1 24 2765 is_stmt 1 view .LVU230
	.loc 1 24 6 view .LVU231
.LVL20:
	.loc 1 24 29 view .LVU232
	.loc 1 24 29 is_stmt 0 view .LVU233
.LBE528:
	.loc 1 24 8 is_stmt 1 view .LVU234
	.loc 1 24 4 view .LVU235
	.loc 1 24 27 view .LVU236
	.loc 1 24 51 view .LVU237
	.loc 1 24 79 view .LVU238
	.loc 1 24 255 view .LVU239
	.loc 1 24 15 view .LVU240
.LBB529:
	.loc 1 24 5 view .LVU241
	.loc 1 24 163 view .LVU242
	.loc 1 24 165 view .LVU243
	.loc 1 24 165 is_stmt 0 view .LVU244
.LBE529:
.LBE523:
	.loc 1 24 25 is_stmt 1 view .LVU245
	.loc 1 24 6 view .LVU246
	.loc 1 24 146 view .LVU247
	.loc 1 24 148 view .LVU248
.LBB530:
.LBI530:
	.loc 2 26 20 view .LVU249
.LBB531:
	.loc 2 38 2 view .LVU250
	.loc 2 38 7 view .LVU251
	.loc 2 38 5 view .LVU252
	.loc 2 39 2 view .LVU253
	ldr	r0, .L8+4
	mov	r2, r6
.LVL21:
	.loc 2 39 2 is_stmt 0 view .LVU254
	movs	r3, #0
.LVL22:
	.loc 2 39 2 view .LVU255
	mov	r1, #10304
.LVL23:
	.loc 2 39 2 view .LVU256
	bl	z_impl_z_log_msg_static_create
.LVL24:
	.loc 2 39 2 view .LVU257
.LBE531:
.LBE530:
	mov	sp, r9
.LBE522:
	.loc 1 24 106 is_stmt 1 view .LVU258
	.loc 1 24 4 view .LVU259
.LVL25:
	.loc 1 24 41 view .LVU260
.LBE521:
	.loc 1 24 5 view .LVU261
.LBE520:
	.loc 1 24 277 view .LVU262
	.loc 1 24 4 view .LVU263
	.loc 1 24 17 view .LVU264
.LBE519:
	.loc 1 24 5 view .LVU265
	.loc 1 26 2 view .LVU266
.LBB532:
	.loc 1 26 7 view .LVU267
	.loc 1 26 56 view .LVU268
	.loc 1 26 13 view .LVU269
	.loc 1 26 1 view .LVU270
	.loc 1 26 40 view .LVU271
	.loc 1 26 175 view .LVU272
	.loc 1 26 186 view .LVU273
	.loc 1 26 274 view .LVU274
.LBB533:
	.loc 1 26 2 view .LVU275
	.loc 1 26 4 view .LVU276
.LBB534:
.LBB535:
	.loc 1 26 81 is_stmt 0 view .LVU277
	sub	sp, sp, #32
.LBE535:
.LBE534:
	.loc 1 26 16 view .LVU278
	ldr	r3, [r4, #28]
.LVL26:
	.loc 1 26 2 is_stmt 1 view .LVU279
.LBB546:
	.loc 1 26 7 view .LVU280
	.loc 1 26 1 view .LVU281
	.loc 1 26 11 view .LVU282
	.loc 1 26 101 view .LVU283
	.loc 1 26 103 view .LVU284
.LBB544:
	.loc 1 26 108 view .LVU285
	.loc 1 26 119 view .LVU286
	.loc 1 26 208 view .LVU287
	.loc 1 26 25 view .LVU288
	.loc 1 26 28 view .LVU289
	.loc 1 26 2 view .LVU290
	.loc 1 26 2 view .LVU291
	.loc 1 26 69 view .LVU292
	.loc 1 26 81 is_stmt 0 view .LVU293
	mov	r2, sp
.LVL27:
	.loc 1 26 73 is_stmt 1 view .LVU294
	.loc 1 26 483 view .LVU295
	.loc 1 26 4 view .LVU296
	.loc 1 26 6 view .LVU297
	.loc 1 26 11 view .LVU298
	.loc 1 26 9 view .LVU299
	.loc 1 26 4 view .LVU300
	.loc 1 26 22 view .LVU301
.LBB536:
	.loc 1 26 2 view .LVU302
	.loc 1 26 367 view .LVU303
	.loc 1 26 74 view .LVU304
.LVL28:
	.loc 1 26 1 view .LVU305
	.loc 1 26 1 view .LVU306
	.loc 1 26 1 view .LVU307
	.loc 1 26 37 view .LVU308
	.loc 1 26 66 view .LVU309
	.loc 1 26 92 view .LVU310
	.loc 1 26 118 view .LVU311
	.loc 1 26 585 view .LVU312
	.loc 1 26 647 view .LVU313
	.loc 1 26 1168 view .LVU314
	.loc 1 26 1233 view .LVU315
	.loc 1 26 1258 view .LVU316
	.loc 1 26 1259 view .LVU317
	.loc 1 26 1261 view .LVU318
	.loc 1 26 1291 view .LVU319
	.loc 1 26 1321 view .LVU320
	.loc 1 26 1353 view .LVU321
	.loc 1 26 1385 view .LVU322
	.loc 1 26 1417 view .LVU323
	.loc 1 26 1614 view .LVU324
	.loc 1 26 1638 view .LVU325
	.loc 1 26 1639 view .LVU326
	.loc 1 26 1641 view .LVU327
	.loc 1 26 1670 view .LVU328
	.loc 1 26 1699 view .LVU329
	.loc 1 26 1730 view .LVU330
	.loc 1 26 1761 view .LVU331
	.loc 1 26 1792 view .LVU332
	.loc 1 26 1999 view .LVU333
.LBB537:
	.loc 1 26 2999 view .LVU334
	.loc 1 26 3004 view .LVU335
	.loc 1 26 3526 view .LVU336
	.loc 1 26 0 is_stmt 0 view .LVU337
	ldr	r1, .L8+12
.LBE537:
.LBB538:
	.loc 1 26 3810 view .LVU338
	strd	r1, r3, [r2, #20]
	.loc 1 26 2765 is_stmt 1 view .LVU339
	.loc 1 26 6 view .LVU340
.LVL29:
	.loc 1 26 29 view .LVU341
	.loc 1 26 29 is_stmt 0 view .LVU342
.LBE538:
	.loc 1 26 8 is_stmt 1 view .LVU343
	.loc 1 26 4 view .LVU344
	.loc 1 26 27 view .LVU345
	.loc 1 26 51 view .LVU346
	.loc 1 26 79 view .LVU347
	.loc 1 26 255 view .LVU348
	.loc 1 26 15 view .LVU349
.LBB539:
	.loc 1 26 5 view .LVU350
	.loc 1 26 163 view .LVU351
	.loc 1 26 165 view .LVU352
	.loc 1 26 175 is_stmt 0 view .LVU353
	movs	r3, #3
.LVL30:
	.loc 1 26 175 view .LVU354
	str	r3, [r2, #16]!
.LVL31:
	.loc 1 26 175 view .LVU355
.LBE539:
.LBE536:
	.loc 1 26 25 is_stmt 1 view .LVU356
	.loc 1 26 6 view .LVU357
	.loc 1 26 146 view .LVU358
	.loc 1 26 148 view .LVU359
.LBB540:
.LBI540:
	.loc 2 26 20 view .LVU360
.LBB541:
	.loc 2 38 2 view .LVU361
	.loc 2 38 7 view .LVU362
	.loc 2 38 5 view .LVU363
	.loc 2 39 2 view .LVU364
	ldr	r0, .L8+4
.LBE541:
.LBE540:
.LBE544:
.LBE546:
.LBE533:
.LBE532:
.LBB549:
.LBB550:
.LBB551:
.LBB552:
.LBB553:
.LBB554:
.LBB555:
	.loc 1 29 0 is_stmt 0 view .LVU365
	ldr	fp, .L8+24
.LBE555:
.LBE554:
.LBE553:
.LBE552:
.LBE551:
.LBE550:
.LBE549:
.LBB603:
.LBB548:
.LBB547:
.LBB545:
.LBB543:
.LBB542:
	.loc 2 39 2 view .LVU366
	movs	r3, #0
	mov	r1, #6208
	bl	z_impl_z_log_msg_static_create
.LVL32:
	.loc 2 39 2 view .LVU367
	mov	r6, r4
.LVL33:
	.loc 2 39 2 view .LVU368
.LBE542:
.LBE543:
	mov	sp, r9
.LVL34:
	.loc 2 39 2 view .LVU369
.LBE545:
	.loc 1 26 106 is_stmt 1 view .LVU370
	.loc 1 26 4 view .LVU371
	.loc 1 26 41 view .LVU372
.LBE547:
	.loc 1 26 5 view .LVU373
.LBE548:
	.loc 1 26 277 view .LVU374
	.loc 1 26 4 view .LVU375
	.loc 1 26 17 view .LVU376
.LBE603:
	.loc 1 26 5 view .LVU377
	.loc 1 28 2 view .LVU378
.LBB604:
	.loc 1 28 7 view .LVU379
	.loc 1 28 20 view .LVU380
	.loc 1 28 11 is_stmt 0 view .LVU381
	movs	r5, #0
.LVL35:
.LBB599:
.LBB595:
.LBB587:
.LBB579:
.LBB570:
.LBB556:
	.loc 1 29 176 view .LVU382
	mov	r10, #10
.LVL36:
.L3:
	.loc 1 29 176 view .LVU383
.LBE556:
.LBE570:
.LBE579:
.LBE587:
.LBE595:
.LBE599:
	.loc 1 29 3 is_stmt 1 view .LVU384
.LBB600:
	.loc 1 29 8 view .LVU385
	.loc 1 29 57 view .LVU386
	.loc 1 29 14 view .LVU387
	.loc 1 29 2 view .LVU388
	.loc 1 29 41 view .LVU389
	.loc 1 29 176 view .LVU390
	.loc 1 29 187 view .LVU391
	.loc 1 29 275 view .LVU392
.LBB596:
	.loc 1 29 3 view .LVU393
	.loc 1 29 5 view .LVU394
	.loc 1 29 33 view .LVU395
.LBB588:
.LBB580:
	.loc 1 29 107 is_stmt 0 view .LVU396
	mov	r9, sp
.LVL37:
	.loc 1 29 82 view .LVU397
	sub	sp, sp, #56
.LVL38:
	.loc 1 29 82 view .LVU398
.LBE580:
.LBE588:
	.loc 1 29 127 view .LVU399
	ldrd	lr, r0, [r6, #32]
.LVL39:
	.loc 1 29 169 is_stmt 1 view .LVU400
	.loc 1 29 201 view .LVU401
	.loc 1 29 299 is_stmt 0 view .LVU402
	ldrd	r1, r3, [r6, #40]
.LVL40:
	.loc 1 29 3 is_stmt 1 view .LVU403
.LBB589:
	.loc 1 29 8 view .LVU404
	.loc 1 29 2 view .LVU405
	.loc 1 29 12 view .LVU406
	.loc 1 29 102 view .LVU407
	.loc 1 29 104 view .LVU408
.LBB581:
	.loc 1 29 109 view .LVU409
	.loc 1 29 120 view .LVU410
	.loc 1 29 209 view .LVU411
	.loc 1 29 26 view .LVU412
	.loc 1 29 29 view .LVU413
	.loc 1 29 3 view .LVU414
	.loc 1 29 3 view .LVU415
	.loc 1 29 70 view .LVU416
	.loc 1 29 82 is_stmt 0 view .LVU417
	mov	r2, sp
.LVL41:
	.loc 1 29 74 is_stmt 1 view .LVU418
	.loc 1 29 484 view .LVU419
	.loc 1 29 5 view .LVU420
	.loc 1 29 7 view .LVU421
	.loc 1 29 12 view .LVU422
	.loc 1 29 10 view .LVU423
	.loc 1 29 5 view .LVU424
	.loc 1 29 23 view .LVU425
.LBB571:
	.loc 1 29 3 view .LVU426
	.loc 1 29 368 view .LVU427
	.loc 1 29 75 view .LVU428
.LVL42:
	.loc 1 29 2 view .LVU429
	.loc 1 29 2 view .LVU430
	.loc 1 29 2 view .LVU431
	.loc 1 29 38 view .LVU432
	.loc 1 29 67 view .LVU433
	.loc 1 29 93 view .LVU434
	.loc 1 29 119 view .LVU435
	.loc 1 29 3708 view .LVU436
	.loc 1 29 3770 view .LVU437
	.loc 1 29 0 view .LVU438
	.loc 1 29 0 view .LVU439
	.loc 1 29 0 view .LVU440
	.loc 1 29 0 view .LVU441
	.loc 1 29 0 view .LVU442
	.loc 1 29 0 view .LVU443
	.loc 1 29 0 view .LVU444
	.loc 1 29 0 view .LVU445
	.loc 1 29 0 view .LVU446
	.loc 1 29 0 view .LVU447
	.loc 1 29 0 view .LVU448
	.loc 1 29 0 view .LVU449
	.loc 1 29 0 view .LVU450
	.loc 1 29 0 view .LVU451
	.loc 1 29 0 view .LVU452
	.loc 1 29 0 view .LVU453
	.loc 1 29 0 view .LVU454
	.loc 1 29 0 view .LVU455
	.loc 1 29 0 view .LVU456
	.loc 1 29 0 view .LVU457
.LBB557:
	.loc 1 29 3495 view .LVU458
	.loc 1 29 3500 view .LVU459
	.loc 1 29 0 view .LVU460
.LBE557:
.LBB558:
	.loc 1 29 3811 is_stmt 0 view .LVU461
	str	lr, [r2, #28]
.LBE558:
.LBE571:
.LBE581:
.LBE589:
	.loc 1 29 95 view .LVU462
	add	lr, r5, #1
.LVL43:
.LBB590:
.LBB582:
.LBB572:
.LBB559:
	.loc 1 29 3811 view .LVU463
	strd	lr, r0, [r2, #32]
.LBE559:
.LBE572:
.LBE582:
.LBE590:
	.loc 1 29 181 view .LVU464
	adds	r0, r5, #2
.LVL44:
.LBB591:
.LBB583:
.LBB573:
.LBB560:
	.loc 1 29 3811 view .LVU465
	strd	r0, r1, [r2, #40]
.LBE560:
.LBE573:
.LBE583:
.LBE591:
	.loc 1 29 267 view .LVU466
	adds	r1, r5, #3
.LVL45:
.LBB592:
.LBB584:
.LBB574:
.LBB561:
	.loc 1 29 3811 view .LVU467
	strd	fp, r5, [r2, #20]
	.loc 1 29 2766 is_stmt 1 view .LVU468
	.loc 1 29 7 view .LVU469
.LVL46:
	.loc 1 29 30 view .LVU470
	.loc 1 29 30 is_stmt 0 view .LVU471
.LBE561:
	.loc 1 29 9 is_stmt 1 view .LVU472
	.loc 1 29 6 view .LVU473
.LBB562:
	.loc 1 29 11 view .LVU474
	.loc 1 29 236 view .LVU475
	.loc 1 29 1189 view .LVU476
	.loc 1 29 1254 view .LVU477
	.loc 1 29 1421 view .LVU478
	.loc 1 29 1461 view .LVU479
	.loc 1 29 2725 view .LVU480
	.loc 1 29 2763 view .LVU481
	.loc 1 29 2768 view .LVU482
	.loc 1 29 3212 view .LVU483
	.loc 1 29 2766 view .LVU484
	.loc 1 29 7 view .LVU485
	.loc 1 29 30 view .LVU486
	.loc 1 29 30 is_stmt 0 view .LVU487
.LBE562:
	.loc 1 29 9 is_stmt 1 view .LVU488
	.loc 1 29 6 view .LVU489
.LBB563:
	.loc 1 29 11 view .LVU490
	.loc 1 29 236 view .LVU491
	.loc 1 29 1189 view .LVU492
	.loc 1 29 1254 view .LVU493
	.loc 1 29 1421 view .LVU494
	.loc 1 29 1461 view .LVU495
	.loc 1 29 2725 view .LVU496
	.loc 1 29 2763 view .LVU497
	.loc 1 29 2768 view .LVU498
	.loc 1 29 3212 view .LVU499
.LBE563:
.LBB564:
	.loc 1 29 2766 view .LVU500
	.loc 1 29 7 view .LVU501
	.loc 1 29 30 view .LVU502
	.loc 1 29 30 is_stmt 0 view .LVU503
.LBE564:
	.loc 1 29 9 is_stmt 1 view .LVU504
	.loc 1 29 6 view .LVU505
.LBB565:
	.loc 1 29 11 view .LVU506
	.loc 1 29 236 view .LVU507
	.loc 1 29 1189 view .LVU508
	.loc 1 29 1254 view .LVU509
	.loc 1 29 1421 view .LVU510
	.loc 1 29 1461 view .LVU511
	.loc 1 29 2725 view .LVU512
	.loc 1 29 2763 view .LVU513
	.loc 1 29 2768 view .LVU514
	.loc 1 29 3212 view .LVU515
.LBE565:
.LBB566:
	.loc 1 29 2766 view .LVU516
	.loc 1 29 7 view .LVU517
	.loc 1 29 30 view .LVU518
	.loc 1 29 30 is_stmt 0 view .LVU519
.LBE566:
	.loc 1 29 9 is_stmt 1 view .LVU520
	.loc 1 29 6 view .LVU521
.LBB567:
	.loc 1 29 11 view .LVU522
	.loc 1 29 236 view .LVU523
	.loc 1 29 1189 view .LVU524
	.loc 1 29 1254 view .LVU525
	.loc 1 29 1421 view .LVU526
	.loc 1 29 1461 view .LVU527
	.loc 1 29 2725 view .LVU528
	.loc 1 29 2763 view .LVU529
	.loc 1 29 2768 view .LVU530
	.loc 1 29 3212 view .LVU531
.LBE567:
.LBB568:
	.loc 1 29 3811 is_stmt 0 view .LVU532
	strd	r1, r3, [r2, #48]
	.loc 1 29 2766 is_stmt 1 view .LVU533
	.loc 1 29 7 view .LVU534
.LVL47:
	.loc 1 29 30 view .LVU535
	.loc 1 29 30 is_stmt 0 view .LVU536
.LBE568:
	.loc 1 29 9 is_stmt 1 view .LVU537
	.loc 1 29 5 view .LVU538
	.loc 1 29 28 view .LVU539
	.loc 1 29 52 view .LVU540
	.loc 1 29 80 view .LVU541
	.loc 1 29 256 view .LVU542
	.loc 1 29 16 view .LVU543
.LBB569:
	.loc 1 29 6 view .LVU544
	.loc 1 29 164 view .LVU545
	.loc 1 29 166 view .LVU546
	.loc 1 29 176 is_stmt 0 view .LVU547
	str	r10, [r2, #16]!
.LVL48:
	.loc 1 29 176 view .LVU548
.LBE569:
.LBE574:
	.loc 1 29 26 is_stmt 1 view .LVU549
	.loc 1 29 7 view .LVU550
	.loc 1 29 147 view .LVU551
	.loc 1 29 149 view .LVU552
.LBB575:
.LBI575:
	.loc 2 26 20 view .LVU553
.LBB576:
	.loc 2 38 2 view .LVU554
	.loc 2 38 7 view .LVU555
	.loc 2 38 5 view .LVU556
	.loc 2 39 2 view .LVU557
	ldr	r0, .L8+4
.LVL49:
	.loc 2 39 2 is_stmt 0 view .LVU558
	movs	r3, #0
.LVL50:
	.loc 2 39 2 view .LVU559
	movw	r1, #20544
.LVL51:
	.loc 2 39 2 view .LVU560
.LBE576:
.LBE575:
.LBE584:
.LBE592:
.LBE596:
.LBE600:
	.loc 1 28 208 view .LVU561
	adds	r5, r5, #4
.LVL52:
.LBB601:
.LBB597:
.LBB593:
.LBB585:
.LBB578:
.LBB577:
	.loc 2 39 2 view .LVU562
	bl	z_impl_z_log_msg_static_create
.LVL53:
	.loc 2 39 2 view .LVU563
.LBE577:
.LBE578:
.LBE585:
.LBE593:
.LBE597:
.LBE601:
	.loc 1 28 20 view .LVU564
	cmp	r5, #16
.LBB602:
.LBB598:
.LBB594:
.LBB586:
	mov	sp, r9
.LVL54:
	.loc 1 28 20 view .LVU565
.LBE586:
	.loc 1 29 107 is_stmt 1 view .LVU566
	.loc 1 29 5 view .LVU567
	.loc 1 29 42 view .LVU568
.LBE594:
	.loc 1 29 6 view .LVU569
.LBE598:
	.loc 1 29 278 view .LVU570
	.loc 1 29 5 view .LVU571
	.loc 1 29 18 view .LVU572
.LBE602:
	.loc 1 29 6 view .LVU573
	.loc 1 28 208 view .LVU574
	.loc 1 28 20 view .LVU575
	add	r6, r6, #16
	bne	.L3
	.loc 1 28 20 is_stmt 0 view .LVU576
.LBE604:
	.loc 1 46 2 is_stmt 1 view .LVU577
.LBB605:
	.loc 1 46 7 view .LVU578
	.loc 1 46 56 view .LVU579
	.loc 1 46 13 view .LVU580
	.loc 1 46 1 view .LVU581
.LVL55:
	.loc 1 46 40 view .LVU582
	.loc 1 46 175 view .LVU583
	.loc 1 46 186 view .LVU584
	.loc 1 46 274 view .LVU585
.LBB606:
	.loc 1 46 2 view .LVU586
	.loc 1 46 4 view .LVU587
.LBB607:
.LBB608:
	.loc 1 46 81 is_stmt 0 view .LVU588
	sub	sp, sp, #32
.LBE608:
.LBE607:
	.loc 1 46 16 view .LVU589
	ldr	r3, [r4, #96]
.LVL56:
	.loc 1 46 2 is_stmt 1 view .LVU590
.LBB617:
	.loc 1 46 7 view .LVU591
	.loc 1 46 1 view .LVU592
	.loc 1 46 11 view .LVU593
	.loc 1 46 101 view .LVU594
	.loc 1 46 103 view .LVU595
.LBB616:
	.loc 1 46 108 view .LVU596
	.loc 1 46 119 view .LVU597
	.loc 1 46 208 view .LVU598
	.loc 1 46 25 view .LVU599
	.loc 1 46 28 view .LVU600
	.loc 1 46 2 view .LVU601
	.loc 1 46 2 view .LVU602
	.loc 1 46 69 view .LVU603
	.loc 1 46 81 is_stmt 0 view .LVU604
	mov	r2, sp
.LVL57:
	.loc 1 46 73 is_stmt 1 view .LVU605
	.loc 1 46 483 view .LVU606
	.loc 1 46 4 view .LVU607
	.loc 1 46 6 view .LVU608
	.loc 1 46 11 view .LVU609
	.loc 1 46 9 view .LVU610
	.loc 1 46 4 view .LVU611
	.loc 1 46 22 view .LVU612
.LBB609:
	.loc 1 46 2 view .LVU613
	.loc 1 46 367 view .LVU614
	.loc 1 46 74 view .LVU615
.LVL58:
	.loc 1 46 1 view .LVU616
	.loc 1 46 1 view .LVU617
	.loc 1 46 1 view .LVU618
	.loc 1 46 37 view .LVU619
	.loc 1 46 66 view .LVU620
	.loc 1 46 92 view .LVU621
	.loc 1 46 118 view .LVU622
	.loc 1 46 585 view .LVU623
	.loc 1 46 647 view .LVU624
	.loc 1 46 1168 view .LVU625
	.loc 1 46 1233 view .LVU626
	.loc 1 46 1258 view .LVU627
	.loc 1 46 1259 view .LVU628
	.loc 1 46 1261 view .LVU629
	.loc 1 46 1291 view .LVU630
	.loc 1 46 1321 view .LVU631
	.loc 1 46 1353 view .LVU632
	.loc 1 46 1385 view .LVU633
	.loc 1 46 1417 view .LVU634
	.loc 1 46 1614 view .LVU635
	.loc 1 46 1638 view .LVU636
	.loc 1 46 1639 view .LVU637
	.loc 1 46 1641 view .LVU638
	.loc 1 46 1670 view .LVU639
	.loc 1 46 1699 view .LVU640
	.loc 1 46 1730 view .LVU641
	.loc 1 46 1761 view .LVU642
	.loc 1 46 1792 view .LVU643
	.loc 1 46 1999 view .LVU644
.LBB610:
	.loc 1 46 2999 view .LVU645
	.loc 1 46 3004 view .LVU646
	.loc 1 46 3526 view .LVU647
	.loc 1 46 0 is_stmt 0 view .LVU648
	ldr	r1, .L8+16
.LBE610:
.LBB611:
	.loc 1 46 175 view .LVU649
	movs	r5, #3
.LVL59:
	.loc 1 46 175 view .LVU650
.LBE611:
.LBB612:
	.loc 1 46 3810 view .LVU651
	strd	r1, r3, [r2, #20]
	.loc 1 46 2765 is_stmt 1 view .LVU652
	.loc 1 46 6 view .LVU653
.LVL60:
	.loc 1 46 29 view .LVU654
	.loc 1 46 29 is_stmt 0 view .LVU655
.LBE612:
	.loc 1 46 8 is_stmt 1 view .LVU656
	.loc 1 46 4 view .LVU657
	.loc 1 46 27 view .LVU658
	.loc 1 46 51 view .LVU659
	.loc 1 46 79 view .LVU660
	.loc 1 46 255 view .LVU661
	.loc 1 46 15 view .LVU662
.LBB613:
	.loc 1 46 5 view .LVU663
	.loc 1 46 163 view .LVU664
	.loc 1 46 165 view .LVU665
	.loc 1 46 175 is_stmt 0 view .LVU666
	str	r5, [r2, #16]!
.LVL61:
	.loc 1 46 175 view .LVU667
.LBE613:
.LBE609:
	.loc 1 46 25 is_stmt 1 view .LVU668
	.loc 1 46 6 view .LVU669
	.loc 1 46 146 view .LVU670
	.loc 1 46 148 view .LVU671
.LBB614:
.LBI614:
	.loc 2 26 20 view .LVU672
.LBB615:
	.loc 2 38 2 view .LVU673
	.loc 2 38 7 view .LVU674
	.loc 2 38 5 view .LVU675
	.loc 2 39 2 view .LVU676
	ldr	r0, .L8+4
	movs	r3, #0
.LVL62:
	.loc 2 39 2 is_stmt 0 view .LVU677
	mov	r1, #6208
	bl	z_impl_z_log_msg_static_create
.LVL63:
	.loc 2 39 2 view .LVU678
.LBE615:
.LBE614:
	mov	sp, r9
.LVL64:
	.loc 2 39 2 view .LVU679
.LBE616:
	.loc 1 46 106 is_stmt 1 view .LVU680
	.loc 1 46 4 view .LVU681
	.loc 1 46 41 view .LVU682
.LBE617:
	.loc 1 46 5 view .LVU683
.LBE606:
	.loc 1 46 277 view .LVU684
	.loc 1 46 4 view .LVU685
	.loc 1 46 17 view .LVU686
.LBE605:
	.loc 1 46 5 view .LVU687
	.loc 1 63 2 view .LVU688
.LBB618:
	.loc 1 63 7 view .LVU689
	.loc 1 63 56 view .LVU690
	.loc 1 63 13 view .LVU691
	.loc 1 63 1 view .LVU692
	.loc 1 63 40 view .LVU693
	.loc 1 63 175 view .LVU694
	.loc 1 63 186 view .LVU695
	.loc 1 63 274 view .LVU696
.LBB619:
	.loc 1 63 2 view .LVU697
	.loc 1 63 4 view .LVU698
.LBB620:
.LBB621:
	.loc 1 63 81 is_stmt 0 view .LVU699
	sub	sp, sp, #32
.LVL65:
	.loc 1 63 81 view .LVU700
.LBE621:
.LBE620:
	.loc 1 63 16 view .LVU701
	ldr	r3, [r4, #24]
.LVL66:
	.loc 1 63 2 is_stmt 1 view .LVU702
.LBB629:
	.loc 1 63 7 view .LVU703
	.loc 1 63 1 view .LVU704
	.loc 1 63 11 view .LVU705
	.loc 1 63 101 view .LVU706
	.loc 1 63 103 view .LVU707
.LBB628:
	.loc 1 63 108 view .LVU708
	.loc 1 63 119 view .LVU709
	.loc 1 63 208 view .LVU710
	.loc 1 63 25 view .LVU711
	.loc 1 63 28 view .LVU712
	.loc 1 63 2 view .LVU713
	.loc 1 63 2 view .LVU714
	.loc 1 63 69 view .LVU715
	.loc 1 63 81 is_stmt 0 view .LVU716
	mov	r2, sp
.LVL67:
	.loc 1 63 73 is_stmt 1 view .LVU717
	.loc 1 63 483 view .LVU718
	.loc 1 63 4 view .LVU719
	.loc 1 63 6 view .LVU720
	.loc 1 63 11 view .LVU721
	.loc 1 63 9 view .LVU722
	.loc 1 63 4 view .LVU723
	.loc 1 63 22 view .LVU724
.LBB622:
	.loc 1 63 2 view .LVU725
	.loc 1 63 367 view .LVU726
	.loc 1 63 74 view .LVU727
.LVL68:
	.loc 1 63 1 view .LVU728
	.loc 1 63 1 view .LVU729
	.loc 1 63 1 view .LVU730
	.loc 1 63 37 view .LVU731
	.loc 1 63 66 view .LVU732
	.loc 1 63 92 view .LVU733
	.loc 1 63 118 view .LVU734
	.loc 1 63 585 view .LVU735
	.loc 1 63 647 view .LVU736
	.loc 1 63 1168 view .LVU737
	.loc 1 63 1233 view .LVU738
	.loc 1 63 1258 view .LVU739
	.loc 1 63 1259 view .LVU740
	.loc 1 63 1261 view .LVU741
	.loc 1 63 1291 view .LVU742
	.loc 1 63 1321 view .LVU743
	.loc 1 63 1353 view .LVU744
	.loc 1 63 1385 view .LVU745
	.loc 1 63 1417 view .LVU746
	.loc 1 63 1614 view .LVU747
	.loc 1 63 1638 view .LVU748
	.loc 1 63 1639 view .LVU749
	.loc 1 63 1641 view .LVU750
	.loc 1 63 1670 view .LVU751
	.loc 1 63 1699 view .LVU752
	.loc 1 63 1730 view .LVU753
	.loc 1 63 1761 view .LVU754
	.loc 1 63 1792 view .LVU755
	.loc 1 63 1999 view .LVU756
.LBB623:
	.loc 1 63 3278 view .LVU757
	.loc 1 63 3283 view .LVU758
	.loc 1 63 3991 view .LVU759
	.loc 1 63 0 is_stmt 0 view .LVU760
	ldr	r1, .L8+20
.LBE623:
.LBB624:
	.loc 1 63 3810 view .LVU761
	strd	r1, r3, [r2, #20]
	.loc 1 63 2765 is_stmt 1 view .LVU762
	.loc 1 63 6 view .LVU763
.LVL69:
	.loc 1 63 29 view .LVU764
	.loc 1 63 29 is_stmt 0 view .LVU765
.LBE624:
	.loc 1 63 8 is_stmt 1 view .LVU766
	.loc 1 63 4 view .LVU767
	.loc 1 63 27 view .LVU768
	.loc 1 63 51 view .LVU769
	.loc 1 63 79 view .LVU770
	.loc 1 63 255 view .LVU771
	.loc 1 63 15 view .LVU772
.LBB625:
	.loc 1 63 5 view .LVU773
	.loc 1 63 163 view .LVU774
	.loc 1 63 165 view .LVU775
	.loc 1 63 175 is_stmt 0 view .LVU776
	str	r5, [r2, #16]!
.LVL70:
	.loc 1 63 175 view .LVU777
.LBE625:
.LBE622:
	.loc 1 63 25 is_stmt 1 view .LVU778
	.loc 1 63 6 view .LVU779
	.loc 1 63 146 view .LVU780
	.loc 1 63 148 view .LVU781
.LBB626:
.LBI626:
	.loc 2 26 20 view .LVU782
.LBB627:
	.loc 2 38 2 view .LVU783
	.loc 2 38 7 view .LVU784
	.loc 2 38 5 view .LVU785
	.loc 2 39 2 view .LVU786
	ldr	r0, .L8+4
	movs	r3, #0
.LVL71:
	.loc 2 39 2 is_stmt 0 view .LVU787
	mov	r1, #6208
	bl	z_impl_z_log_msg_static_create
.LVL72:
	.loc 2 39 2 view .LVU788
.LBE627:
.LBE626:
	mov	sp, r9
.LVL73:
	.loc 2 39 2 view .LVU789
.LBE628:
	.loc 1 63 106 is_stmt 1 view .LVU790
	.loc 1 63 4 view .LVU791
	.loc 1 63 41 view .LVU792
.LBE629:
	.loc 1 63 5 view .LVU793
.LBE619:
	.loc 1 63 277 view .LVU794
	.loc 1 63 4 view .LVU795
	.loc 1 63 17 view .LVU796
.LBE618:
	.loc 1 63 5 view .LVU797
.L2:
	.loc 1 63 5 is_stmt 0 view .LVU798
.LBE503:
.LBE502:
	.loc 1 73 2 is_stmt 1 view .LVU799
	mov	r1, r4
	mov	r0, r8
	bl	z_fatal_error
.LVL74:
	.loc 1 74 1 is_stmt 0 view .LVU800
	mov	sp, r7
	.cfi_def_cfa_register 13
	@ sp needed
	pop	{r3, r4, r5, r6, r7, r8, r9, r10, fp, pc}
.LVL75:
.L9:
	.loc 1 74 1 view .LVU801
	.align	2
.L8:
	.word	.LC0
	.word	log_const_os
	.word	.LC1
	.word	.LC2
	.word	.LC4
	.word	.LC5
	.word	.LC3
	.cfi_endproc
.LFE475:
	.size	z_arm_fatal_error, .-z_arm_fatal_error
	.section	.text.z_do_kernel_oops,"ax",%progbits
	.align	1
	.global	z_do_kernel_oops
	.syntax unified
	.thumb
	.thumb_func
	.type	z_do_kernel_oops, %function
z_do_kernel_oops:
.LVL76:
.LFB476:
	.loc 1 93 1 is_stmt 1 view -0
	.cfi_startproc
	@ args = 0, pretend = 0, frame = 0
	@ frame_needed = 0, uses_anonymous_args = 0
	@ link register save eliminated.
	.loc 1 95 2 view .LVU803
	.loc 1 98 2 view .LVU804
	.loc 1 118 2 view .LVU805
	.loc 1 93 1 is_stmt 0 view .LVU806
	mov	r1, r0
.LVL77:
	.loc 1 118 2 view .LVU807
	ldr	r0, [r0]
.LVL78:
	.loc 1 118 2 view .LVU808
	b	z_arm_fatal_error
.LVL79:
	.loc 1 118 2 view .LVU809
	.cfi_endproc
.LFE476:
	.size	z_do_kernel_oops, .-z_do_kernel_oops
	.section	.text.arch_syscall_oops,"ax",%progbits
	.align	1
	.global	arch_syscall_oops
	.syntax unified
	.thumb
	.thumb_func
	.type	arch_syscall_oops, %function
arch_syscall_oops:
.LVL80:
.LFB477:
	.loc 1 144 1 is_stmt 1 view -0
	.cfi_startproc
	@ Volatile: function does not return.
	@ args = 0, pretend = 0, frame = 104
	@ frame_needed = 0, uses_anonymous_args = 0
	.loc 1 145 2 view .LVU811
	.loc 1 144 1 is_stmt 0 view .LVU812
	push	{lr}
	.cfi_def_cfa_offset 4
	.cfi_offset 14, -4
	mov	r4, r0
.LVL81:
	.loc 1 146 2 is_stmt 1 view .LVU813
	.loc 1 144 1 is_stmt 0 view .LVU814
	sub	sp, sp, #108
	.cfi_def_cfa_offset 112
	.loc 1 146 15 view .LVU815
	movs	r1, #0
	movs	r2, #104
	mov	r0, sp
.LVL82:
	.loc 1 146 15 view .LVU816
	bl	memset
.LVL83:
	.loc 1 149 2 is_stmt 1 view .LVU817
	.loc 1 149 20 is_stmt 0 view .LVU818
	ldr	r3, [r4, #12]
	str	r3, [sp, #24]
	.loc 1 151 2 is_stmt 1 view .LVU819
	mov	r1, sp
	movs	r0, #3
	bl	z_arm_fatal_error
.LVL84:
	.loc 1 152 2 view .LVU820
	.cfi_endproc
.LFE477:
	.size	arch_syscall_oops, .-arch_syscall_oops
	.text
.Letext0:
	.file 3 "/home/g/zephyr-sdk-0.16.3/arm-zephyr-eabi/lib/gcc/arm-zephyr-eabi/12.2.0/include/stddef.h"
	.file 4 "/home/g/zephyr-sdk-0.16.3/arm-zephyr-eabi/picolibc/include/machine/_default_types.h"
	.file 5 "/home/g/zephyr-sdk-0.16.3/arm-zephyr-eabi/picolibc/include/sys/_stdint.h"
	.file 6 "/home/g/mise-work/zmk-firmware/zmk/zephyr/include/zephyr/arch/arm/thread.h"
	.file 7 "/home/g/mise-work/zmk-firmware/zmk/zephyr/include/zephyr/arch/arm/cortex_m/exc.h"
	.file 8 "/home/g/mise-work/zmk-firmware/zmk/zephyr/include/zephyr/fatal_types.h"
	.file 9 "/home/g/mise-work/zmk-firmware/zmk/zephyr/include/zephyr/kernel.h"
	.file 10 "/home/g/mise-work/zmk-firmware/zmk/zephyr/include/zephyr/logging/log_instance.h"
	.file 11 "/home/g/mise-work/zmk-firmware/zmk/zephyr/include/zephyr/sys/cbprintf.h"
	.file 12 "/home/g/mise-work/zmk-firmware/zmk/zephyr/include/zephyr/logging/log_msg.h"
	.file 13 "/home/g/mise-work/zmk-firmware/zmk/zephyr/include/zephyr/fatal.h"
	.file 14 "/home/g/mise-work/zmk-firmware/zmk/zephyr/include/zephyr/sys/cbprintf_internal.h"
	.file 15 "/home/g/mise-work/zmk-firmware/zmk/zephyr/include/zephyr/syscall.h"
	.file 16 "<built-in>"