	.cpu cortex-m4
	.arch armv7e-m
	.fpu fpv4-sp-d16
	.eabi_attribute 27, 1
	.eabi_attribute 28, 1
	.eabi_attribute 20, 1
	.eabi_attribute 21, 1
	.eabi_attribute 23, 3
	.eabi_attribute 24, 1
	.eabi_attribute 25, 1
	.eabi_attribute 26, 1
	.eabi_attribute 30, 4
	.eabi_attribute 34, 1
	.eabi_attribute 38, 1
	.eabi_attribute 18, 4
	.file	"tls.c"
	.text
.Ltext0:
	.cfi_sections	.debug_frame
	.file 1 "/home/g/mise-work/zmk-firmware/zmk/zephyr/arch/arm/core/tls.c"
	.section	.text.arch_tls_stack_setup,"ax",%progbits
	.align	1
	.global	arch_tls_stack_setup
	.syntax unified
	.thumb
	.thumb_func
	.type	arch_tls_stack_setup, %function
arch_tls_stack_setup:
.LVL0:
.LFB457:
	.loc 1 25 1 view -0
	.cfi_startproc
	@ args = 0, pretend = 0, frame = 0
	@ frame_needed = 0, uses_anonymous_args = 0
	.loc 1 40 2 view .LVU1
.LBB18:
.LBI18:
	.file 2 "/home/g/mise-work/zmk-firmware/zmk/zephyr/kernel/include/kernel_tls.h"
	.loc 2 29 22 view .LVU2
.LBB19:
	.loc 2 31 2 view .LVU3
	.loc 2 31 58 is_stmt 0 view .LVU4
	ldr	r3, .L2
	.loc 2 31 55 view .LVU5
	ldr	r2, .L2+4
.LBE19:
.LBE18:
	.loc 1 25 1 view .LVU6
	push	{r4, r5, r6, r7, r8, lr}
	.cfi_def_cfa_offset 24
	.cfi_offset 4, -24
	.cfi_offset 5, -20
	.cfi_offset 6, -16
	.cfi_offset 7, -12
	.cfi_offset 8, -8
	.cfi_offset 14, -4
.LBB21:
.LBB20:
	.loc 2 31 55 view .LVU7
	adds	r5, r2, r3
	.loc 2 32 53 view .LVU8
	ldr	r8, .L2+16
	.loc 2 31 55 view .LVU9
	subs	r5, r5, #1
	.loc 2 31 9 view .LVU10
	udiv	r5, r5, r3
	muls	r5, r3, r5
.LVL1:
	.loc 2 32 2 is_stmt 1 view .LVU11
	.loc 2 32 56 is_stmt 0 view .LVU12
	ldr	r3, .L2+8
.LVL2:
	.loc 2 34 2 is_stmt 1 view .LVU13
	.loc 2 32 53 is_stmt 0 view .LVU14
	add	r4, r8, r3
	subs	r4, r4, #1
	.loc 2 32 9 view .LVU15
	udiv	r4, r4, r3
	.loc 2 34 20 view .LVU16
	mla	r4, r3, r4, r5
.LVL3:
	.loc 2 34 20 view .LVU17
.LBE20:
.LBE21:
	.loc 1 40 12 view .LVU18
	subs	r6, r1, r4
.LVL4:
	.loc 1 41 2 is_stmt 1 view .LVU19
.LBB22:
.LBI22:
	.loc 2 45 20 view .LVU20
.LBB23:
	.loc 2 47 2 view .LVU21
	.loc 2 48 2 view .LVU22
	.loc 2 51 1 view .LVU23
.LBB24:
.LBI24:
	.file 3 "/home/g/zephyr-sdk-0.16.3/arm-zephyr-eabi/picolibc/include/ssp/string.h"
	.loc 3 83 216 view .LVU24
.LBB25:
	.loc 3 83 292 view .LVU25
.LBE25:
.LBE24:
.LBE23:
.LBE22:
	.loc 1 25 1 is_stmt 0 view .LVU26
	mov	r7, r0
.LBB34:
.LBB32:
.LBB27:
.LBB26:
	.loc 3 83 299 view .LVU27
	ldr	r1, .L2+12
	mov	r0, r6
.LVL5:
	.loc 3 83 299 view .LVU28
	bl	memcpy
.LVL6:
	.loc 3 83 299 view .LVU29
.LBE26:
.LBE27:
	.loc 2 54 2 is_stmt 1 view .LVU30
	.loc 2 55 1 view .LVU31
.LBB28:
.LBI28:
	.loc 3 86 189 view .LVU32
.LBB29:
	.loc 3 86 238 view .LVU33
	.loc 3 86 245 is_stmt 0 view .LVU34
	adds	r0, r6, r5
.LVL7:
	.loc 3 86 245 view .LVU35
	mov	r2, r8
	movs	r1, #0
.LBE29:
.LBE28:
.LBE32:
.LBE34:
	.loc 1 44 12 view .LVU36
	subs	r6, r6, #8
.LVL8:
.LBB35:
.LBB33:
.LBB31:
.LBB30:
	.loc 3 86 245 view .LVU37
	bl	memset
.LVL9:
	.loc 3 86 245 view .LVU38
.LBE30:
.LBE31:
.LBE33:
.LBE35:
	.loc 1 44 2 is_stmt 1 view .LVU39
	.loc 1 50 2 view .LVU40
	.loc 1 50 18 is_stmt 0 view .LVU41
	str	r6, [r7, #116]
	.loc 1 52 2 is_stmt 1 view .LVU42
	.loc 1 53 1 is_stmt 0 view .LVU43
	add	r0, r4, #8
	pop	{r4, r5, r6, r7, r8, pc}
.LVL10:
.L3:
	.loc 1 53 1 view .LVU44
	.align	2
.L2:
	.word	__tdata_align
	.word	__tdata_size
	.word	__tbss_align
	.word	__tdata_start
	.word	__tbss_size
	.cfi_endproc
.LFE457:
	.size	arch_tls_stack_setup, .-arch_tls_stack_setup
	.global	z_arm_tls_ptr
	.section	.bss.z_arm_tls_ptr,"aw",%nobits
	.align	2
	.type	z_arm_tls_ptr, %object
	.size	z_arm_tls_ptr, 4
z_arm_tls_ptr:
	.space	4
	.text
.Letext0:
	.file 4 "/home/g/zephyr-sdk-0.16.3/arm-zephyr-eabi/lib/gcc/arm-zephyr-eabi/12.2.0/include/stddef.h"
	.file 5 "/home/g/zephyr-sdk-0.16.3/arm-zephyr-eabi/picolibc/include/machine/_default_types.h"
	.file 6 "/home/g/zephyr-sdk-0.16.3/arm-zephyr-eabi/picolibc/include/sys/_stdint.h"
	.file 7 "/home/g/mise-work/zmk-firmware/zmk/zephyr/include/zephyr/sys/dlist.h"
	.file 8 "/home/g/mise-work/zmk-firmware/zmk/zephyr/include/zephyr/sys/rb.h"
	.file 9 "/home/g/mise-work/zmk-firmware/zmk/zephyr/include/zephyr/sys/sys_heap.h"
	.file 10 "/home/g/mise-work/zmk-firmware/zmk/zephyr/include/zephyr/kernel/thread.h"
	.file 11 "/home/g/mise-work/zmk-firmware/zmk/zephyr/include/zephyr/kernel_structs.h"
	.file 12 "/home/g/mise-work/zmk-firmware/zmk/zephyr/include/zephyr/arch/arm/thread.h"
	.file 13 "/home/g/mise-work/zmk-firmware/zmk/zephyr/include/zephyr/kernel.h"
	.file 14 "/home/g/mise-work/zmk-firmware/zmk/zephyr/include/zephyr/fatal_types.h"
	.file 15 "/home/g/mise-work/zmk-firmware/zmk/zephyr/include/zephyr/linker/linker-defs.h"
	.file 16 "<built-in>"
	.file 17 "/home/g/mise-work/zmk-firmware/zmk/zephyr/include/zephyr/spinlock.h"