	.cpu cortex-m4
	.arch armv7e-m
	.fpu fpv4-sp-d16
	.eabi_attribute 27, 1
	.eabi_attribute 28, 1
	.eabi_attribute 20, 1
	.eabi_attribute 21, 1
	.eabi_attribute 23, 3
	.eabi_attribute 24, 1
	.eabi_attribute 25, 1
	.eabi_attribute 26, 1
	.eabi_attribute 30, 4
	.eabi_attribute 34, 1
	.eabi_attribute 38, 1
	.eabi_attribute 18, 4
	.file	"crc16_sw.c"
	.text
.Ltext0:
	.cfi_sections	.debug_frame
	.file 1 "/home/g/mise-work/zmk-firmware/zmk/zephyr/lib/crc/crc16_sw.c"
	.section	.text.crc16,"ax",%progbits
	.align	1
	.global	crc16
	.syntax unified
	.thumb
	.thumb_func
	.type	crc16, %function
crc16:
.LVL0:
.LFB2:
	.loc 1 10 1 view -0
	.cfi_startproc
	@ args = 0, pretend = 0, frame = 0
	@ frame_needed = 0, uses_anonymous_args = 0
	.loc 1 11 2 view .LVU1
	.loc 1 12 2 view .LVU2
	.loc 1 14 2 view .LVU3
	.loc 1 10 1 is_stmt 0 view .LVU4
	push	{r4, r5, lr}
	.cfi_def_cfa_offset 12
	.cfi_offset 4, -12
	.cfi_offset 5, -8
	.cfi_offset 14, -4
	add	r3, r3, r2
.LVL1:
	.loc 1 10 1 view .LVU5
	mov	r4, r0
	.loc 1 11 11 view .LVU6
	mov	r0, r1
.LVL2:
.L2:
	.loc 1 14 16 is_stmt 1 discriminator 1 view .LVU7
	cmp	r2, r3
	bne	.L6
	.loc 1 27 2 view .LVU8
	.loc 1 28 1 is_stmt 0 view .LVU9
	pop	{r4, r5, pc}
.L6:
	.loc 1 15 3 is_stmt 1 view .LVU10
	.loc 1 15 24 is_stmt 0 view .LVU11
	ldrb	r1, [r2], #1	@ zero_extendqisi2
.LVL3:
	.loc 1 15 7 view .LVU12
	movs	r5, #8
	eor	r0, r0, r1, lsl #8
.LVL4:
	.loc 1 17 3 is_stmt 1 view .LVU13
	.loc 1 17 17 view .LVU14
.L5:
	.loc 1 18 4 view .LVU15
	.loc 1 18 7 is_stmt 0 view .LVU16
	tst	r0, #32768
	lsl	r1, r0, #1
	.loc 1 19 5 is_stmt 1 view .LVU17
	itte	ne
	uxthne	r1, r1
	.loc 1 19 9 is_stmt 0 view .LVU18
	eorne	r0, r1, r4
.LVL5:
	.loc 1 21 5 is_stmt 1 view .LVU19
	.loc 1 21 9 is_stmt 0 view .LVU20
	uxtheq	r0, r1
.LVL6:
	.loc 1 17 23 is_stmt 1 view .LVU21
	.loc 1 17 17 view .LVU22
	subs	r5, r5, #1
.LVL7:
	.loc 1 17 17 is_stmt 0 view .LVU23
	bne	.L5
	b	.L2
	.cfi_endproc
.LFE2:
	.size	crc16, .-crc16
	.section	.text.crc16_reflect,"ax",%progbits
	.align	1
	.global	crc16_reflect
	.syntax unified
	.thumb
	.thumb_func
	.type	crc16_reflect, %function
crc16_reflect:
.LVL8:
.LFB3:
	.loc 1 31 1 is_stmt 1 view -0
	.cfi_startproc
	@ args = 0, pretend = 0, frame = 0
	@ frame_needed = 0, uses_anonymous_args = 0
	.loc 1 32 2 view .LVU25
	.loc 1 33 2 view .LVU26
	.loc 1 35 2 view .LVU27
	.loc 1 31 1 is_stmt 0 view .LVU28
	push	{r4, r5, lr}
	.cfi_def_cfa_offset 12
	.cfi_offset 4, -12
	.cfi_offset 5, -8
	.cfi_offset 14, -4
	add	r3, r3, r2
.LVL9:
	.loc 1 31 1 view .LVU29
	mov	r4, r0
	.loc 1 32 11 view .LVU30
	mov	r0, r1
.LVL10:
.L9:
	.loc 1 35 16 is_stmt 1 discriminator 1 view .LVU31
	cmp	r2, r3
	bne	.L12
	.loc 1 48 2 view .LVU32
	.loc 1 49 1 is_stmt 0 view .LVU33
	pop	{r4, r5, pc}
.L12:
	.loc 1 36 3 is_stmt 1 view .LVU34
	.loc 1 36 23 is_stmt 0 view .LVU35
	ldrb	r1, [r2], #1	@ zero_extendqisi2
.LVL11:
	.loc 1 36 7 view .LVU36
	movs	r5, #8
	eors	r0, r0, r1
.LVL12:
	.loc 1 38 3 is_stmt 1 view .LVU37
	.loc 1 38 17 view .LVU38
.L11:
	.loc 1 39 4 view .LVU39
	and	r1, r0, #1
	.loc 1 40 9 is_stmt 0 view .LVU40
	lsrs	r0, r0, #1
.LVL13:
	.loc 1 39 7 view .LVU41
	cbz	r1, .L10
	.loc 1 40 5 is_stmt 1 view .LVU42
	.loc 1 40 9 is_stmt 0 view .LVU43
	eor	r1, r4, r0
	uxth	r0, r1
.LVL14:
.L10:
	.loc 1 38 23 is_stmt 1 discriminator 2 view .LVU44
	.loc 1 38 17 discriminator 2 view .LVU45
	subs	r5, r5, #1
.LVL15:
	.loc 1 38 17 is_stmt 0 discriminator 2 view .LVU46
	bne	.L11
	b	.L9
	.cfi_endproc
.LFE3:
	.size	crc16_reflect, .-crc16_reflect
	.section	.text.crc16_ccitt,"ax",%progbits
	.align	1
	.global	crc16_ccitt
	.syntax unified
	.thumb
	.thumb_func
	.type	crc16_ccitt, %function
crc16_ccitt:
.LVL16:
.LFB4:
	.loc 1 53 1 is_stmt 1 view -0
	.cfi_startproc
	@ args = 0, pretend = 0, frame = 0
	@ frame_needed = 0, uses_anonymous_args = 0
	.loc 1 54 2 view .LVU48
	.loc 1 53 1 is_stmt 0 view .LVU49
	push	{r4, lr}
	.cfi_def_cfa_offset 8
	.cfi_offset 4, -8
	.cfi_offset 14, -4
	add	r2, r2, r1
.LVL17:
.L18:
	.loc 1 54 13 is_stmt 1 discriminator 1 view .LVU50
	cmp	r2, r1
	bne	.L19
	.loc 1 62 2 view .LVU51
	.loc 1 63 1 is_stmt 0 view .LVU52
	pop	{r4, pc}
.L19:
.LBB2:
	.loc 1 55 3 is_stmt 1 discriminator 2 view .LVU53
	.loc 1 57 3 discriminator 2 view .LVU54
.LVL18:
	.loc 1 57 5 is_stmt 0 discriminator 2 view .LVU55
	ldrb	r3, [r1], #1	@ zero_extendqisi2
.LVL19:
	.loc 1 57 5 discriminator 2 view .LVU56
	eors	r3, r3, r0
.LVL20:
	.loc 1 58 3 is_stmt 1 discriminator 2 view .LVU57
	.loc 1 58 5 is_stmt 0 discriminator 2 view .LVU58
	eor	r3, r3, r3, lsl #4
.LVL21:
	.loc 1 58 5 discriminator 2 view .LVU59
	uxtb	r3, r3
.LVL22:
	.loc 1 59 3 is_stmt 1 discriminator 2 view .LVU60
	.loc 1 59 64 is_stmt 0 discriminator 2 view .LVU61
	lsrs	r4, r3, #4
	eor	r4, r4, r0, lsr #8
	orr	r4, r4, r3, lsl #8
	.loc 1 59 8 discriminator 2 view .LVU62
	eor	r0, r4, r3, lsl #3
.LVL23:
	.loc 1 59 8 discriminator 2 view .LVU63
.LBE2:
	.loc 1 54 21 is_stmt 1 discriminator 2 view .LVU64
	.loc 1 54 21 is_stmt 0 discriminator 2 view .LVU65
	b	.L18
	.cfi_endproc
.LFE4:
	.size	crc16_ccitt, .-crc16_ccitt
	.section	.text.crc16_itu_t,"ax",%progbits
	.align	1
	.global	crc16_itu_t
	.syntax unified
	.thumb
	.thumb_func
	.type	crc16_itu_t, %function
crc16_itu_t:
.LVL24:
.LFB5:
	.loc 1 66 1 is_stmt 1 view -0
	.cfi_startproc
	@ args = 0, pretend = 0, frame = 0
	@ frame_needed = 0, uses_anonymous_args = 0
	@ link register save eliminated.
	.loc 1 67 2 view .LVU67
	add	r2, r2, r1
.LVL25:
.L21:
	.loc 1 67 13 discriminator 1 view .LVU68
	cmp	r2, r1
	bne	.L22
	.loc 1 75 2 view .LVU69
	.loc 1 76 1 is_stmt 0 view .LVU70
	bx	lr
.L22:
	.loc 1 68 3 is_stmt 1 discriminator 2 view .LVU71
	.loc 1 69 11 is_stmt 0 discriminator 2 view .LVU72
	ldrb	r3, [r1], #1	@ zero_extendqisi2
.LVL26:
	.loc 1 69 11 discriminator 2 view .LVU73
	rev16	r0, r0
.LVL27:
	.loc 1 69 11 discriminator 2 view .LVU74
	uxth	r0, r0
	.loc 1 69 3 is_stmt 1 discriminator 2 view .LVU75
.LVL28:
	.loc 1 69 8 is_stmt 0 discriminator 2 view .LVU76
	eors	r0, r0, r3
.LVL29:
	.loc 1 70 3 is_stmt 1 discriminator 2 view .LVU77
	.loc 1 70 26 is_stmt 0 discriminator 2 view .LVU78
	ubfx	r3, r0, #4, #4
	.loc 1 70 8 discriminator 2 view .LVU79
	eors	r3, r3, r0
.LVL30:
	.loc 1 71 3 is_stmt 1 discriminator 2 view .LVU80
	.loc 1 71 16 is_stmt 0 discriminator 2 view .LVU81
	lsls	r0, r3, #12
	uxth	r0, r0
	.loc 1 71 8 discriminator 2 view .LVU82
	eors	r3, r3, r0
.LVL31:
	.loc 1 72 3 is_stmt 1 discriminator 2 view .LVU83
	.loc 1 72 26 is_stmt 0 discriminator 2 view .LVU84
	lsls	r0, r3, #5
	and	r0, r0, #8160
	.loc 1 72 8 discriminator 2 view .LVU85
	eors	r0, r0, r3
.LVL32:
	.loc 1 67 21 is_stmt 1 discriminator 2 view .LVU86
	.loc 1 67 21 is_stmt 0 discriminator 2 view .LVU87
	b	.L21
	.cfi_endproc
.LFE5:
	.size	crc16_itu_t, .-crc16_itu_t
	.text
.Letext0:
	.file 2 "/home/g/zephyr-sdk-0.16.3/arm-zephyr-eabi/lib/gcc/arm-zephyr-eabi/12.2.0/include/stddef.h"
	.file 3 "/home/g/zephyr-sdk-0.16.3/arm-zephyr-eabi/picolibc/include/machine/_default_types.h"
	.file 4 "/home/g/zephyr-sdk-0.16.3/arm-zephyr-eabi/picolibc/include/sys/_stdint.h"