	.cpu cortex-m4
	.arch armv7e-m
	.fpu fpv4-sp-d16
	.eabi_attribute 27, 1
	.eabi_attribute 28, 1
	.eabi_attribute 20, 1
	.eabi_attribute 21, 1
	.eabi_attribute 23, 3
	.eabi_attribute 24, 1
	.eabi_attribute 25, 1
	.eabi_attribute 26, 1
	.eabi_attribute 30, 4
	.eabi_attribute 34, 1
	.eabi_attribute 38, 1
	.eabi_attribute 18, 4
	.file	"activity.c"
	.text
.Ltext0:
	.cfi_sections	.debug_frame
	.file 1 "/home/g/mise-work/zmk-firmware/zmk/app/src/activity.c"
	.section	.text.activity_expiry_function,"ax",%progbits
	.align	1
	.global	activity_expiry_function
	.syntax unified
	.thumb
	.thumb_func
	.type	activity_expiry_function, %function
activity_expiry_function:
.LVL0:
.LFB576:
	.loc 1 98 55 view -0
	.cfi_startproc
	@ args = 0, pretend = 0, frame = 0
	@ frame_needed = 0, uses_anonymous_args = 0
	@ link register save eliminated.
	.loc 1 98 57 view .LVU1
	ldr	r0, .L2
.LVL1:
	.loc 1 98 57 is_stmt 0 view .LVU2
	b	k_work_submit
.LVL2:
.L3:
	.align	2
.L2:
	.word	activity_work
	.cfi_endproc
.LFE576:
	.size	activity_expiry_function, .-activity_expiry_function
	.section	.text.activity_input_listener,"ax",%progbits
	.align	1
	.syntax unified
	.thumb
	.thumb_func
	.type	activity_input_listener, %function
activity_input_listener:
.LVL3:
.LFB579:
	.loc 1 119 61 is_stmt 1 view -0
	.cfi_startproc
	@ args = 0, pretend = 0, frame = 0
	@ frame_needed = 0, uses_anonymous_args = 0
	@ link register save eliminated.
	.loc 1 119 63 view .LVU4
	ldr	r0, .L5
.LVL4:
	.loc 1 119 63 is_stmt 0 view .LVU5
	b	k_work_submit
.LVL5:
.L6:
	.align	2
.L5:
	.word	note_activity_work
	.cfi_endproc
.LFE579:
	.size	activity_input_listener, .-activity_input_listener
	.section	.text.activity_init,"ax",%progbits
	.align	1
	.syntax unified
	.thumb
	.thumb_func
	.type	activity_init, %function
activity_init:
.LFB577:
	.loc 1 102 32 is_stmt 1 view -0
	.cfi_startproc
	@ args = 0, pretend = 0, frame = 0
	@ frame_needed = 0, uses_anonymous_args = 0
	.loc 1 103 5 view .LVU7
.LBB8:
.LBI8:
	.file 2 "/home/g/mise-work/zmk-firmware/zmk/zephyr/include/zephyr/kernel.h"
	.loc 2 1757 23 view .LVU8
.LBB9:
	.loc 2 1759 2 view .LVU9
.LBB10:
.LBI10:
	.file 3 "/home/g/mise-work/zmk-firmware/zmk/app/build/zephyr/include/generated/syscalls/kernel.h"
	.loc 3 599 23 view .LVU10
.LBB11:
	.loc 3 608 2 view .LVU11
	.loc 3 608 7 view .LVU12
.LBE11:
.LBE10:
.LBE9:
.LBE8:
	.loc 1 102 32 is_stmt 0 view .LVU13
	push	{r0, r1, r2, lr}
	.cfi_def_cfa_offset 16
	.cfi_offset 14, -4
.LBB16:
.LBB14:
.LBB13:
.LBB12:
	.loc 3 608 7 view .LVU14
	.loc 3 608 5 is_stmt 1 view .LVU15
	.loc 3 609 2 view .LVU16
	.loc 3 609 9 is_stmt 0 view .LVU17
	bl	z_impl_k_uptime_ticks
.LVL6:
.LBE12:
.LBE13:
	.loc 2 1759 51 view .LVU18
	mov	r2, #1000
	umull	r0, r3, r0, r2
	mla	r1, r2, r1, r3
	.loc 2 1759 44 view .LVU19
	lsrs	r0, r0, #15
.LBE14:
.LBE16:
	.loc 1 103 26 view .LVU20
	ldr	r2, .L8
.LBB17:
.LBB15:
	.loc 2 1759 44 view .LVU21
	orr	r0, r0, r1, lsl #17
.LBE15:
.LBE17:
	.loc 1 103 26 view .LVU22
	str	r0, [r2]
	.loc 1 105 5 is_stmt 1 view .LVU23
	movs	r3, #0
.LVL7:
.LBB18:
.LBI18:
	.loc 3 461 20 view .LVU24
.LBB19:
	.loc 3 472 2 view .LVU25
	.loc 3 472 7 view .LVU26
	mov	r2, #32768
	.loc 3 472 7 is_stmt 0 view .LVU27
	.loc 3 472 5 is_stmt 1 view .LVU28
	.loc 3 473 2 view .LVU29
	ldr	r0, .L8+4
.LVL8:
	.loc 3 473 2 is_stmt 0 view .LVU30
	strd	r2, [sp]
	bl	z_impl_k_timer_start
.LVL9:
	.loc 3 473 2 view .LVU31
.LBE19:
.LBE18:
	.loc 1 106 5 is_stmt 1 view .LVU32
	.loc 1 107 1 is_stmt 0 view .LVU33
	movs	r0, #0
	add	sp, sp, #12
	.cfi_def_cfa_offset 4
	@ sp needed
	ldr	pc, [sp], #4
.L9:
	.align	2
.L8:
	.word	activity_last_uptime
	.word	activity_timer
	.cfi_endproc
.LFE577:
	.size	activity_init, .-activity_init
	.section	.text.is_usb_power_present,"ax",%progbits
	.align	1
	.global	is_usb_power_present
	.syntax unified
	.thumb
	.thumb_func
	.type	is_usb_power_present, %function
is_usb_power_present:
.LFB569:
	.loc 1 33 32 is_stmt 1 view -0
	.cfi_startproc
	@ args = 0, pretend = 0, frame = 0
	@ frame_needed = 0, uses_anonymous_args = 0
	.loc 1 35 5 view .LVU35
.LBB22:
.LBI22:
	.file 4 "/home/g/mise-work/zmk-firmware/zmk/app/include/zmk/usb.h"
	.loc 4 24 19 view .LVU36
.LBB23:
	.loc 4 25 5 view .LVU37
.LBE23:
.LBE22:
	.loc 1 33 32 is_stmt 0 view .LVU38
	push	{r3, lr}
	.cfi_def_cfa_offset 8
	.cfi_offset 3, -8
	.cfi_offset 14, -4
.LBB25:
.LBB24:
	.loc 4 25 12 view .LVU39
	bl	zmk_usb_get_conn_state
.LVL10:
.LBE24:
.LBE25:
	.loc 1 39 1 view .LVU40
	subs	r0, r0, #0
	it	ne
	movne	r0, #1
	pop	{r3, pc}
	.cfi_endproc
.LFE569:
	.size	is_usb_power_present, .-is_usb_power_present
	.section	.text.raise_event,"ax",%progbits
	.align	1
	.global	raise_event
	.syntax unified
	.thumb
	.thumb_func
	.type	raise_event, %function
raise_event:
.LFB570:
	.loc 1 51 23 is_stmt 1 view -0
	.cfi_startproc
	@ args = 0, pretend = 0, frame = 0
	@ frame_needed = 0, uses_anonymous_args = 0
	@ link register save eliminated.
	.loc 1 52 5 view .LVU42
	.loc 1 52 12 is_stmt 0 view .LVU43
	ldr	r3, .L12
	ldrb	r0, [r3]	@ zero_extendqisi2
	b	raise_zmk_activity_state_changed
.LVL11:
.L13:
	.align	2
.L12:
	.word	activity_state
	.cfi_endproc
.LFE570:
	.size	raise_event, .-raise_event
	.section	.text.set_state,"ax",%progbits
	.align	1
	.global	set_state
	.syntax unified
	.thumb
	.thumb_func
	.type	set_state, %function
set_state:
.LVL12:
.LFB571:
	.loc 1 56 46 is_stmt 1 view -0
	.cfi_startproc
	@ args = 0, pretend = 0, frame = 0
	@ frame_needed = 0, uses_anonymous_args = 0
	@ link register save eliminated.
	.loc 1 57 5 view .LVU45
	.loc 1 57 24 is_stmt 0 view .LVU46
	ldr	r3, .L16
	.loc 1 57 8 view .LVU47
	ldrb	r2, [r3]	@ zero_extendqisi2
	cmp	r2, r0
	beq	.L15
	.loc 1 60 5 is_stmt 1 view .LVU48
	.loc 1 60 20 is_stmt 0 view .LVU49
	strb	r0, [r3]
	.loc 1 61 5 is_stmt 1 view .LVU50
	.loc 1 61 12 is_stmt 0 view .LVU51
	b	raise_event
.LVL13:
.L15:
	.loc 1 62 1 view .LVU52
	movs	r0, #0
.LVL14:
	.loc 1 62 1 view .LVU53
	bx	lr
.L17:
	.align	2
.L16:
	.word	activity_state
	.cfi_endproc
.LFE571:
	.size	set_state, .-set_state
	.section	.text.activity_work_handler,"ax",%progbits
	.align	1
	.global	activity_work_handler
	.syntax unified
	.thumb
	.thumb_func
	.type	activity_work_handler, %function
activity_work_handler:
.LVL15:
.LFB575:
	.loc 1 74 49 is_stmt 1 view -0
	.cfi_startproc
	@ args = 0, pretend = 0, frame = 0
	@ frame_needed = 0, uses_anonymous_args = 0
	.loc 1 75 5 view .LVU55
.LBB32:
.LBI32:
	.loc 2 1757 23 view .LVU56
.LBB33:
	.loc 2 1759 2 view .LVU57
.LBB34:
.LBI34:
	.loc 3 599 23 view .LVU58
.LBB35:
	.loc 3 608 2 view .LVU59
	.loc 3 608 7 view .LVU60
.LBE35:
.LBE34:
.LBE33:
.LBE32:
	.loc 1 74 49 is_stmt 0 view .LVU61
	push	{r3, lr}
	.cfi_def_cfa_offset 8
	.cfi_offset 3, -8
	.cfi_offset 14, -4
.LBB42:
.LBB38:
.LBB37:
.LBB36:
	.loc 3 608 7 view .LVU62
	.loc 3 608 5 is_stmt 1 view .LVU63
	.loc 3 609 2 view .LVU64
	.loc 3 609 9 is_stmt 0 view .LVU65
	bl	z_impl_k_uptime_ticks
.LVL16:
	.loc 3 609 9 view .LVU66
.LBE36:
.LBE37:
.LBE38:
.LBE42:
	.loc 1 76 5 is_stmt 1 view .LVU67
	.loc 1 91 9 view .LVU68
.LBB43:
.LBB39:
	.loc 2 1759 51 is_stmt 0 view .LVU69
	mov	r2, #1000
	umull	r0, r3, r0, r2
.LVL17:
	.loc 2 1759 51 view .LVU70
	mla	r1, r2, r1, r3
.LBE39:
.LBE43:
	.loc 1 76 37 view .LVU71
	ldr	r2, .L20
.LBB44:
.LBB40:
	.loc 2 1759 44 view .LVU72
	lsrs	r3, r0, #15
.LBE40:
.LBE44:
	.loc 1 76 37 view .LVU73
	ldr	r2, [r2]
.LBB45:
.LBB41:
	.loc 2 1759 44 view .LVU74
	orr	r3, r3, r1, lsl #17
.LBE41:
.LBE45:
	.loc 1 76 37 view .LVU75
	subs	r3, r3, r2
	.loc 1 91 12 view .LVU76
	movw	r2, #30000
	cmp	r3, r2
	ble	.L18
.LBB46:
.LBI46:
	.loc 1 74 6 is_stmt 1 view .LVU77
.LVL18:
.LBB47:
	.loc 1 92 13 view .LVU78
.LBE47:
.LBE46:
	.loc 1 94 1 is_stmt 0 view .LVU79
	pop	{r3, lr}
	.cfi_remember_state
	.cfi_restore 14
	.cfi_restore 3
	.cfi_def_cfa_offset 0
.LBB49:
.LBB48:
	.loc 1 92 13 view .LVU80
	movs	r0, #1
	b	set_state
.LVL19:
.L18:
	.cfi_restore_state
	.loc 1 92 13 view .LVU81
.LBE48:
.LBE49:
	.loc 1 94 1 view .LVU82
	pop	{r3, pc}
.L21:
	.align	2
.L20:
	.word	activity_last_uptime
	.cfi_endproc
.LFE575:
	.size	activity_work_handler, .-activity_work_handler
	.section	.text.note_activity,"ax",%progbits
	.align	1
	.syntax unified
	.thumb
	.thumb_func
	.type	note_activity, %function
note_activity:
.LFB573:
	.loc 1 66 32 is_stmt 1 view -0
	.cfi_startproc
	@ args = 0, pretend = 0, frame = 0
	@ frame_needed = 0, uses_anonymous_args = 0
	.loc 1 67 5 view .LVU84
.LBB54:
.LBI54:
	.loc 2 1757 23 view .LVU85
.LBB55:
	.loc 2 1759 2 view .LVU86
.LBB56:
.LBI56:
	.loc 3 599 23 view .LVU87
.LBB57:
	.loc 3 608 2 view .LVU88
	.loc 3 608 7 view .LVU89
.LBE57:
.LBE56:
.LBE55:
.LBE54:
	.loc 1 66 32 is_stmt 0 view .LVU90
	push	{r3, lr}
	.cfi_def_cfa_offset 8
	.cfi_offset 3, -8
	.cfi_offset 14, -4
.LBB62:
.LBB60:
.LBB59:
.LBB58:
	.loc 3 608 7 view .LVU91
	.loc 3 608 5 is_stmt 1 view .LVU92
	.loc 3 609 2 view .LVU93
	.loc 3 609 9 is_stmt 0 view .LVU94
	bl	z_impl_k_uptime_ticks
.LVL20:
.LBE58:
.LBE59:
	.loc 2 1759 51 view .LVU95
	mov	r2, #1000
	umull	r0, r3, r0, r2
	mla	r1, r2, r1, r3
	.loc 2 1759 44 view .LVU96
	lsrs	r0, r0, #15
.LBE60:
.LBE62:
	.loc 1 67 26 view .LVU97
	ldr	r2, .L23
.LBB63:
.LBB61:
	.loc 2 1759 44 view .LVU98
	orr	r0, r0, r1, lsl #17
.LBE61:
.LBE63:
	.loc 1 67 26 view .LVU99
	str	r0, [r2]
	.loc 1 69 5 is_stmt 1 view .LVU100
	.loc 1 70 1 is_stmt 0 view .LVU101
	pop	{r3, lr}
	.cfi_restore 14
	.cfi_restore 3
	.cfi_def_cfa_offset 0
	.loc 1 69 12 view .LVU102
	movs	r0, #0
	b	set_state
.LVL21:
.L24:
	.align	2
.L23:
	.word	activity_last_uptime
	.cfi_endproc
.LFE573:
	.size	note_activity, .-note_activity
	.section	.text.activity_event_listener,"ax",%progbits
	.align	1
	.syntax unified
	.thumb
	.thumb_func
	.type	activity_event_listener, %function
activity_event_listener:
.LVL22:
.LFB574:
	.loc 1 72 59 is_stmt 1 view -0
	.cfi_startproc
	@ args = 0, pretend = 0, frame = 0
	@ frame_needed = 0, uses_anonymous_args = 0
	@ link register save eliminated.
	.loc 1 72 61 view .LVU104
	.loc 1 72 68 is_stmt 0 view .LVU105
	b	note_activity
.LVL23:
	.loc 1 72 68 view .LVU106
	.cfi_endproc
.LFE574:
	.size	activity_event_listener, .-activity_event_listener
	.section	.text.note_activity_work_cb,"ax",%progbits
	.align	1
	.syntax unified
	.thumb
	.thumb_func
	.type	note_activity_work_cb, %function
note_activity_work_cb:
.LVL24:
.LFB578:
	.loc 1 115 57 is_stmt 1 view -0
	.cfi_startproc
	@ args = 0, pretend = 0, frame = 0
	@ frame_needed = 0, uses_anonymous_args = 0
	@ link register save eliminated.
	.loc 1 115 59 view .LVU108
	b	note_activity
.LVL25:
	.loc 1 115 59 is_stmt 0 view .LVU109
	.cfi_endproc
.LFE578:
	.size	note_activity_work_cb, .-note_activity_work_cb
	.section	.text.zmk_activity_get_state,"ax",%progbits
	.align	1
	.global	zmk_activity_get_state
	.syntax unified
	.thumb
	.thumb_func
	.type	zmk_activity_get_state, %function
zmk_activity_get_state:
.LFB572:
	.loc 1 64 54 is_stmt 1 view -0
	.cfi_startproc
	@ args = 0, pretend = 0, frame = 0
	@ frame_needed = 0, uses_anonymous_args = 0
	@ link register save eliminated.
	.loc 1 64 56 view .LVU111
	.loc 1 64 79 is_stmt 0 view .LVU112
	ldr	r3, .L28
	ldrb	r0, [r3]	@ zero_extendqisi2
	bx	lr
.L29:
	.align	2
.L28:
	.word	activity_state
	.cfi_endproc
.LFE572:
	.size	zmk_activity_get_state, .-zmk_activity_get_state
	.section	.z_init_APPLICATION90_0_,"a"
	.align	2
	.type	__init_activity_init, %object
	.size	__init_activity_init, 8
__init_activity_init:
	.word	activity_init
	.word	0
	.section	._input_listener.static._input_listener__activity_input_listener_,"a"
	.align	2
	.type	_input_listener__activity_input_listener, %object
	.size	_input_listener__activity_input_listener, 8
_input_listener__activity_input_listener:
	.word	0
	.word	activity_input_listener
	.global	note_activity_work
	.section	.data.note_activity_work,"aw"
	.align	2
	.type	note_activity_work, %object
	.size	note_activity_work, 16
note_activity_work:
	.space	4
	.word	note_activity_work_cb
	.space	8
	.global	zmk_event_sub_activityzmk_sensor_event
	.section	.event_subscription,"a"
	.align	2
	.type	zmk_event_sub_activityzmk_sensor_event, %object
	.size	zmk_event_sub_activityzmk_sensor_event, 8
zmk_event_sub_activityzmk_sensor_event:
	.word	zmk_event_zmk_sensor_event
	.word	zmk_listener_activity
	.global	zmk_event_sub_activityzmk_position_state_changed
	.align	2
	.type	zmk_event_sub_activityzmk_position_state_changed, %object
	.size	zmk_event_sub_activityzmk_position_state_changed, 8
zmk_event_sub_activityzmk_position_state_changed:
	.word	zmk_event_zmk_position_state_changed
	.word	zmk_listener_activity
	.global	zmk_listener_activity
	.section	.rodata.zmk_listener_activity,"a"
	.align	2
	.type	zmk_listener_activity, %object
	.size	zmk_listener_activity, 4
zmk_listener_activity:
	.word	activity_event_listener
	.global	activity_timer
	.section	._k_timer.static.activity_timer_,"aw"
	.align	3
	.type	activity_timer, %object
	.size	activity_timer, 56
activity_timer:
	.space	8
	.word	z_timer_expiration_handler
	.space	4
	.word	0
	.word	0
	.word	activity_timer+24
	.word	activity_timer+24
	.word	activity_expiry_function
	.word	0
	.space	8
	.word	0
	.word	0
	.global	activity_work
	.section	.data.activity_work,"aw"
	.align	2
	.type	activity_work, %object
	.size	activity_work, 16
activity_work:
	.space	4
	.word	activity_work_handler
	.space	8
	.section	.bss.activity_last_uptime,"aw",%nobits
	.align	2
	.type	activity_last_uptime, %object
	.size	activity_last_uptime, 4
activity_last_uptime:
	.space	4
	.section	.bss.activity_state,"aw",%nobits
	.type	activity_state, %object
	.size	activity_state, 1
activity_state:
	.space	1
	.text
.Letext0:
	.file 5 "/home/g/zephyr-sdk-0.16.3/arm-zephyr-eabi/picolibc/include/machine/_default_types.h"
	.file 6 "/home/g/zephyr-sdk-0.16.3/arm-zephyr-eabi/picolibc/include/sys/_stdint.h"
	.file 7 "/home/g/zephyr-sdk-0.16.3/arm-zephyr-eabi/lib/gcc/arm-zephyr-eabi/12.2.0/include/stddef.h"
	.file 8 "/home/g/mise-work/zmk-firmware/zmk/zephyr/include/zephyr/init.h"
	.file 9 "/home/g/mise-work/zmk-firmware/zmk/zephyr/include/zephyr/device.h"
	.file 10 "/home/g/mise-work/zmk-firmware/zmk/zephyr/include/zephyr/sys/dlist.h"
	.file 11 "/home/g/mise-work/zmk-firmware/zmk/zephyr/include/zephyr/sys/rb.h"
	.file 12 "/home/g/mise-work/zmk-firmware/zmk/zephyr/include/zephyr/sys/slist.h"
	.file 13 "/home/g/mise-work/zmk-firmware/zmk/zephyr/include/zephyr/sys/sys_heap.h"
	.file 14 "/home/g/mise-work/zmk-firmware/zmk/zephyr/include/zephyr/kernel/thread.h"
	.file 15 "/home/g/mise-work/zmk-firmware/zmk/zephyr/include/zephyr/kernel_structs.h"
	.file 16 "/home/g/mise-work/zmk-firmware/zmk/zephyr/include/zephyr/arch/arm/thread.h"
	.file 17 "/home/g/mise-work/zmk-firmware/zmk/zephyr/include/zephyr/sys_clock.h"
	.file 18 "/home/g/mise-work/zmk-firmware/zmk/zephyr/include/zephyr/logging/log_instance.h"
	.file 19 "/home/g/mise-work/zmk-firmware/zmk/app/include/zmk/event_manager.h"
	.file 20 "/home/g/mise-work/zmk-firmware/zmk/app/include/zmk/events/activity_state_changed.h"
	.file 21 "/home/g/mise-work/zmk-firmware/zmk/app/include/zmk/events/position_state_changed.h"
	.file 22 "/home/g/mise-work/zmk-firmware/zmk/app/include/zmk/events/sensor_event.h"
	.file 23 "/home/g/mise-work/zmk-firmware/zmk/app/include/zmk/hid.h"
	.file 24 "/home/g/mise-work/zmk-firmware/zmk/app/include/zmk/activity.h"
	.file 25 "/home/g/mise-work/zmk-firmware/zmk/zephyr/include/zephyr/input/input.h"
	.file 26 "/home/g/mise-work/zmk-firmware/zmk/zephyr/include/zephyr/spinlock.h"