	.cpu cortex-m4
	.arch armv7e-m
	.fpu fpv4-sp-d16
	.eabi_attribute 27, 1
	.eabi_attribute 28, 1
	.eabi_attribute 20, 1
	.eabi_attribute 21, 1
	.eabi_attribute 23, 3
	.eabi_attribute 24, 1
	.eabi_attribute 25, 1
	.eabi_attribute 26, 1
	.eabi_attribute 30, 4
	.eabi_attribute 34, 1
	.eabi_attribute 38, 1
	.eabi_attribute 18, 4
	.file	"battery.c"
	.text
.Ltext0:
	.cfi_sections	.debug_frame
	.file 1 "/home/g/mise-work/zmk-firmware/zmk/app/src/battery.c"
	.section	.text.zmk_battery_timer,"ax",%progbits
	.align	1
	.syntax unified
	.thumb
	.thumb_func
	.type	zmk_battery_timer, %function
zmk_battery_timer:
.LVL0:
.LFB565:
	.loc 1 132 54 view -0
	.cfi_startproc
	@ args = 0, pretend = 0, frame = 0
	@ frame_needed = 0, uses_anonymous_args = 0
	.loc 1 133 5 view .LVU1
	.loc 1 132 54 is_stmt 0 view .LVU2
	push	{r3, lr}
	.cfi_def_cfa_offset 8
	.cfi_offset 3, -8
	.cfi_offset 14, -4
	.loc 1 133 5 view .LVU3
	bl	zmk_workqueue_lowprio_work_q
.LVL1:
	.loc 1 134 1 view .LVU4
	pop	{r3, lr}
	.cfi_restore 14
	.cfi_restore 3
	.cfi_def_cfa_offset 0
	.loc 1 133 5 view .LVU5
	ldr	r1, .L2
	b	k_work_submit_to_queue
.LVL2:
.L3:
	.align	2
.L2:
	.word	battery_work
	.cfi_endproc
.LFE565:
	.size	zmk_battery_timer, .-zmk_battery_timer
	.section	.text.zmk_battery_start_reporting,"ax",%progbits
	.align	1
	.syntax unified
	.thumb
	.thumb_func
	.type	zmk_battery_start_reporting, %function
zmk_battery_start_reporting:
.LFB566:
	.loc 1 138 43 is_stmt 1 view -0
	.cfi_startproc
	@ args = 0, pretend = 0, frame = 0
	@ frame_needed = 0, uses_anonymous_args = 0
	.loc 1 139 5 view .LVU7
.LBB469:
.LBI469:
	.file 2 "/home/g/mise-work/zmk-firmware/zmk/app/build/zephyr/include/generated/syscalls/device.h"
	.loc 2 49 19 view .LVU8
.LVL3:
.LBB470:
	.loc 2 57 2 view .LVU9
	.loc 2 57 7 view .LVU10
.LBE470:
.LBE469:
	.loc 1 138 43 is_stmt 0 view .LVU11
	push	{r0, r1, r2, lr}
	.cfi_def_cfa_offset 16
	.cfi_offset 14, -4
.LBB474:
.LBB473:
	.loc 2 57 7 view .LVU12
	.loc 2 57 5 is_stmt 1 view .LVU13
	.loc 2 58 2 view .LVU14
.LVL4:
.LBB471:
.LBI471:
	.file 3 "/home/g/mise-work/zmk-firmware/zmk/zephyr/include/zephyr/device.h"
	.loc 3 744 19 view .LVU15
.LBB472:
	.loc 3 746 2 view .LVU16
	.loc 3 746 9 is_stmt 0 view .LVU17
	ldr	r0, .L9
	bl	z_device_is_ready
.LVL5:
	.loc 3 746 9 view .LVU18
.LBE472:
.LBE471:
.LBE473:
.LBE474:
	.loc 1 139 8 view .LVU19
	cbz	r0, .L4
.LBB475:
.LBI475:
	.loc 1 138 13 is_stmt 1 view .LVU20
.LBB476:
	.loc 1 140 9 view .LVU21
.LBB477:
.LBI477:
	.file 4 "/home/g/mise-work/zmk-firmware/zmk/app/build/zephyr/include/generated/syscalls/kernel.h"
	.loc 4 461 20 view .LVU22
.LVL6:
.LBB478:
	.loc 4 472 2 view .LVU23
	.loc 4 472 7 view .LVU24
	.loc 4 472 5 view .LVU25
	.loc 4 473 2 view .LVU26
	mov	r2, #1966080
.LVL7:
	.loc 4 473 2 is_stmt 0 view .LVU27
	movs	r3, #0
.LVL8:
	.loc 4 473 2 view .LVU28
	strd	r2, [sp]
	ldr	r0, .L9+4
	movs	r2, #0
.LVL9:
	.loc 4 473 2 view .LVU29
	movs	r3, #0
	bl	z_impl_k_timer_start
.LVL10:
.L4:
	.loc 4 473 2 view .LVU30
.LBE478:
.LBE477:
.LBE476:
.LBE475:
	.loc 1 142 1 view .LVU31
	add	sp, sp, #12
	.cfi_def_cfa_offset 4
	@ sp needed
	ldr	pc, [sp], #4
.L10:
	.align	2
.L9:
	.word	__device_dts_ord_30
	.word	battery_timer
	.cfi_endproc
.LFE566:
	.size	zmk_battery_start_reporting, .-zmk_battery_start_reporting
	.section	.text.battery_event_listener,"ax",%progbits
	.align	1
	.syntax unified
	.thumb
	.thumb_func
	.type	battery_event_listener, %function
battery_event_listener:
.LVL11:
.LFB568:
	.loc 1 164 58 is_stmt 1 view -0
	.cfi_startproc
	@ args = 0, pretend = 0, frame = 0
	@ frame_needed = 0, uses_anonymous_args = 0
	.loc 1 166 5 view .LVU33
	.loc 1 164 58 is_stmt 0 view .LVU34
	push	{r3, lr}
	.cfi_def_cfa_offset 8
	.cfi_offset 3, -8
	.cfi_offset 14, -4
	.loc 1 166 9 view .LVU35
	bl	as_zmk_activity_state_changed
.LVL12:
	.loc 1 166 8 view .LVU36
	cbnz	r0, .L12
.L15:
	.loc 1 179 12 view .LVU37
	mvn	r0, #133
.L11:
	.loc 1 180 1 view .LVU38
	pop	{r3, pc}
.L12:
	.loc 1 167 9 is_stmt 1 view .LVU39
	.loc 1 167 17 is_stmt 0 view .LVU40
	bl	zmk_activity_get_state
.LVL13:
	.loc 1 167 9 view .LVU41
	cbz	r0, .L14
	subs	r0, r0, #1
	uxtb	r0, r0
	cmp	r0, #1
	bhi	.L15
	.loc 1 173 13 is_stmt 1 view .LVU42
.LBB481:
.LBI481:
	.loc 4 480 20 view .LVU43
.LVL14:
.LBB482:
	.loc 4 489 2 view .LVU44
	.loc 4 489 7 view .LVU45
	.loc 4 489 5 view .LVU46
	.loc 4 490 2 view .LVU47
	ldr	r0, .L19
	bl	z_impl_k_timer_stop
.LVL15:
	.loc 4 491 1 is_stmt 0 view .LVU48
	b	.L17
.LVL16:
.L14:
	.loc 4 491 1 view .LVU49
.LBE482:
.LBE481:
	.loc 1 169 13 is_stmt 1 view .LVU50
	bl	zmk_battery_start_reporting
.LVL17:
	.loc 1 170 13 view .LVU51
.L17:
	.loc 1 170 20 is_stmt 0 view .LVU52
	movs	r0, #0
	b	.L11
.L20:
	.align	2
.L19:
	.word	battery_timer
	.cfi_endproc
.LFE568:
	.size	battery_event_listener, .-battery_event_listener
	.section	.rodata.zmk_battery_init.part.0.str1.1,"aMS",%progbits,1
.LC0:
	.ascii	"Battery device \"%s\" is not ready\000"
	.section	.text.zmk_battery_init.part.0,"ax",%progbits
	.align	1
	.syntax unified
	.thumb
	.thumb_func
	.type	zmk_battery_init.part.0, %function
zmk_battery_init.part.0:
.LFB570:
	.loc 1 144 12 is_stmt 1 view -0
	.cfi_startproc
	@ args = 0, pretend = 0, frame = 0
	@ frame_needed = 1, uses_anonymous_args = 0
	.loc 1 156 9 view .LVU54
.LBB512:
	.loc 1 156 14 view .LVU55
	.loc 1 156 63 view .LVU56
	.loc 1 156 20 view .LVU57
	.loc 1 156 8 view .LVU58
.LVL18:
	.loc 1 156 47 view .LVU59
	.loc 1 156 182 view .LVU60
	.loc 1 156 193 view .LVU61
	.loc 1 156 281 view .LVU62
.LBB513:
	.loc 1 156 9 view .LVU63
	.loc 1 156 11 view .LVU64
.LBE513:
.LBE512:
	.loc 1 144 12 is_stmt 0 view .LVU65
	push	{r7, lr}
	.cfi_def_cfa_offset 8
	.cfi_offset 7, -8
	.cfi_offset 14, -4
.LBB538:
.LBB533:
	.loc 1 156 23 view .LVU66
	ldr	r3, .L22
.LBE533:
.LBE538:
	.loc 1 144 12 view .LVU67
	add	r7, sp, #0
	.cfi_def_cfa_register 7
.LBB539:
.LBB534:
.LBB514:
.LBB515:
	.loc 1 156 88 view .LVU68
	sub	sp, sp, #32
.LBE515:
.LBE514:
	.loc 1 156 23 view .LVU69
	ldr	r3, [r3]
.LVL19:
	.loc 1 156 9 is_stmt 1 view .LVU70
.LBB529:
	.loc 1 156 14 view .LVU71
	.loc 1 156 8 view .LVU72
.LBE529:
.LBE534:
.LBE539:
	.loc 1 156 9 view .LVU73
	.loc 1 156 18 view .LVU74
	.loc 1 156 113 view .LVU75
	.loc 1 156 9 view .LVU76
.LBB540:
.LBB535:
.LBB530:
	.loc 1 156 18 view .LVU77
	.loc 1 156 108 view .LVU78
	.loc 1 156 110 view .LVU79
.LBB526:
	.loc 1 156 115 view .LVU80
	.loc 1 156 126 view .LVU81
	.loc 1 156 215 view .LVU82
	.loc 1 156 32 view .LVU83
.LBE526:
.LBE530:
.LBE535:
.LBE540:
	.loc 1 156 9 view .LVU84
	.loc 1 156 374 view .LVU85
	.loc 1 156 81 view .LVU86
	.loc 1 156 8 view .LVU87
	.loc 1 156 8 view .LVU88
	.loc 1 156 8 view .LVU89
	.loc 1 156 44 view .LVU90
	.loc 1 156 10 view .LVU91
	.loc 1 156 36 view .LVU92
	.loc 1 156 62 view .LVU93
	.loc 1 156 529 view .LVU94
	.loc 1 156 591 view .LVU95
	.loc 1 156 1112 view .LVU96
	.loc 1 156 1177 view .LVU97
	.loc 1 156 1202 view .LVU98
	.loc 1 156 1203 view .LVU99
	.loc 1 156 1205 view .LVU100
	.loc 1 156 1235 view .LVU101
	.loc 1 156 1265 view .LVU102
	.loc 1 156 1297 view .LVU103
	.loc 1 156 1329 view .LVU104
	.loc 1 156 1361 view .LVU105
	.loc 1 156 1558 view .LVU106
	.loc 1 156 1582 view .LVU107
	.loc 1 156 1583 view .LVU108
	.loc 1 156 1585 view .LVU109
	.loc 1 156 1614 view .LVU110
	.loc 1 156 1643 view .LVU111
	.loc 1 156 1674 view .LVU112
	.loc 1 156 1705 view .LVU113
	.loc 1 156 1736 view .LVU114
	.loc 1 156 1943 view .LVU115
	.loc 1 156 10 view .LVU116
	.loc 1 156 28 view .LVU117
	.loc 1 156 48 view .LVU118
	.loc 1 156 10 view .LVU119
	.loc 1 156 48 view .LVU120
	.loc 1 156 19 view .LVU121
	.loc 1 156 19 view .LVU122
	.loc 1 156 67 view .LVU123
	.loc 1 156 98 view .LVU124
	.loc 1 156 132 view .LVU125
	.loc 1 156 137 view .LVU126
	.loc 1 156 395 view .LVU127
	.loc 1 156 1480 view .LVU128
	.loc 1 156 1545 view .LVU129
	.loc 1 156 1569 view .LVU130
	.loc 1 156 1631 view .LVU131
	.loc 1 156 1642 view .LVU132
	.loc 1 156 1762 view .LVU133
	.loc 1 156 1778 view .LVU134
	.loc 1 156 1818 view .LVU135
	.loc 1 156 1843 view .LVU136
	.loc 1 156 3148 view .LVU137
	.loc 1 156 3189 view .LVU138
	.loc 1 156 13 view .LVU139
	.loc 1 156 36 view .LVU140
	.loc 1 156 135 view .LVU141
	.loc 1 156 12 view .LVU142
	.loc 1 156 17 view .LVU143
	.loc 1 156 242 view .LVU144
	.loc 1 156 1195 view .LVU145
	.loc 1 156 1260 view .LVU146
	.loc 1 156 1284 view .LVU147
	.loc 1 156 1313 view .LVU148
	.loc 1 156 1324 view .LVU149
	.loc 1 156 1411 view .LVU150
	.loc 1 156 1427 view .LVU151
	.loc 1 156 1467 view .LVU152
	.loc 1 156 1557 view .LVU153
	.loc 1 156 1960 view .LVU154
	.loc 1 156 2617 view .LVU155
	.loc 1 156 2636 view .LVU156
	.loc 1 156 2673 view .LVU157
	.loc 1 156 2731 view .LVU158
	.loc 1 156 2772 view .LVU159
	.loc 1 156 13 view .LVU160
	.loc 1 156 36 view .LVU161
	.loc 1 156 15 view .LVU162
	.loc 1 156 11 view .LVU163
	.loc 1 156 34 view .LVU164
	.loc 1 156 58 view .LVU165
	.loc 1 156 86 view .LVU166
	.loc 1 156 262 view .LVU167
	.loc 1 156 22 view .LVU168
.LBB541:
.LBB536:
.LBB531:
.LBB527:
	.loc 1 156 35 view .LVU169
	.loc 1 156 9 view .LVU170
	.loc 1 156 9 view .LVU171
	.loc 1 156 76 view .LVU172
	.loc 1 156 88 is_stmt 0 view .LVU173
	mov	r2, sp
.LVL20:
	.loc 1 156 80 is_stmt 1 view .LVU174
	.loc 1 156 490 view .LVU175
	.loc 1 156 11 view .LVU176
	.loc 1 156 13 view .LVU177
	.loc 1 156 18 view .LVU178
	.loc 1 156 16 view .LVU179
	.loc 1 156 11 view .LVU180
	.loc 1 156 29 view .LVU181
.LBB516:
	.loc 1 156 9 view .LVU182
	.loc 1 156 374 view .LVU183
	.loc 1 156 81 view .LVU184
.LVL21:
	.loc 1 156 8 view .LVU185
	.loc 1 156 8 view .LVU186
	.loc 1 156 8 view .LVU187
	.loc 1 156 44 view .LVU188
	.loc 1 156 73 view .LVU189
	.loc 1 156 99 view .LVU190
	.loc 1 156 125 view .LVU191
	.loc 1 156 592 view .LVU192
	.loc 1 156 654 view .LVU193
	.loc 1 156 1175 view .LVU194
	.loc 1 156 1240 view .LVU195
	.loc 1 156 1265 view .LVU196
	.loc 1 156 1266 view .LVU197
	.loc 1 156 1268 view .LVU198
	.loc 1 156 1298 view .LVU199
	.loc 1 156 1328 view .LVU200
	.loc 1 156 1360 view .LVU201
	.loc 1 156 1392 view .LVU202
	.loc 1 156 1424 view .LVU203
	.loc 1 156 1621 view .LVU204
	.loc 1 156 1645 view .LVU205
	.loc 1 156 1646 view .LVU206
	.loc 1 156 1648 view .LVU207
	.loc 1 156 1677 view .LVU208
	.loc 1 156 1706 view .LVU209
	.loc 1 156 1737 view .LVU210
	.loc 1 156 1768 view .LVU211
	.loc 1 156 1799 view .LVU212
	.loc 1 156 2006 view .LVU213
.LBB517:
	.loc 1 156 3186 view .LVU214
	.loc 1 156 3191 view .LVU215
	.loc 1 156 3833 view .LVU216
	.loc 1 156 0 is_stmt 0 view .LVU217
	ldr	r1, .L22+4
.LBE517:
.LBB518:
	.loc 1 156 3817 view .LVU218
	strd	r1, r3, [r2, #20]
	.loc 1 156 2772 is_stmt 1 view .LVU219
	.loc 1 156 13 view .LVU220
.LVL22:
	.loc 1 156 36 view .LVU221
	.loc 1 156 36 is_stmt 0 view .LVU222
.LBE518:
	.loc 1 156 15 is_stmt 1 view .LVU223
	.loc 1 156 11 view .LVU224
	.loc 1 156 34 view .LVU225
	.loc 1 156 58 view .LVU226
	.loc 1 156 86 view .LVU227
.LBB519:
	.loc 1 156 12 view .LVU228
	.loc 1 156 51 view .LVU229
.LBE519:
.LBE516:
.LBE527:
.LBE531:
.LBE536:
.LBE541:
	.loc 1 156 56 view .LVU230
	.loc 1 156 86 view .LVU231
.LBB542:
.LBB537:
.LBB532:
.LBB528:
.LBB523:
.LBB521:
.LBB520:
	.loc 1 156 188 view .LVU232
	.loc 1 156 220 view .LVU233
	.loc 1 156 214 view .LVU234
	.loc 1 156 188 view .LVU235
	.loc 1 156 220 view .LVU236
	.loc 1 156 233 is_stmt 0 view .LVU237
	mov	r3, #512
.LVL23:
	.loc 1 156 233 view .LVU238
	strh	r3, [r2, #28]	@ movhi
	.loc 1 156 214 is_stmt 1 view .LVU239
.LVL24:
	.loc 1 156 188 view .LVU240
.LBE520:
.LBE521:
	.loc 1 156 262 view .LVU241
	.loc 1 156 22 view .LVU242
.LBB522:
	.loc 1 156 12 view .LVU243
	.loc 1 156 170 view .LVU244
	.loc 1 156 172 view .LVU245
	.loc 1 156 182 is_stmt 0 view .LVU246
	ldr	r3, .L22+8
	str	r3, [r2, #16]!
.LVL25:
	.loc 1 156 182 view .LVU247
.LBE522:
.LBE523:
	.loc 1 156 32 is_stmt 1 view .LVU248
	.loc 1 156 13 view .LVU249
	.loc 1 156 153 view .LVU250
	.loc 1 156 155 view .LVU251
.LBB524:
.LBI524:
	.file 5 "/home/g/mise-work/zmk-firmware/zmk/app/build/zephyr/include/generated/syscalls/log_msg.h"
	.loc 5 26 20 view .LVU252
.LBB525:
	.loc 5 38 2 view .LVU253
	.loc 5 38 7 view .LVU254
	.loc 5 38 5 view .LVU255
	.loc 5 39 2 view .LVU256
	ldr	r0, .L22+12
	movs	r3, #0
	mov	r1, #7232
	bl	z_impl_z_log_msg_static_create
.LVL26:
	.loc 5 39 2 is_stmt 0 view .LVU257
.LBE525:
.LBE524:
.LBE528:
	.loc 1 156 113 is_stmt 1 view .LVU258
	.loc 1 156 11 view .LVU259
	.loc 1 156 48 view .LVU260
.LBE532:
	.loc 1 156 12 view .LVU261
.LBE537:
	.loc 1 156 284 view .LVU262
	.loc 1 156 11 view .LVU263
	.loc 1 156 24 view .LVU264
.LBE542:
	.loc 1 156 12 view .LVU265
	.loc 1 157 9 view .LVU266
	.loc 1 162 1 is_stmt 0 view .LVU267
	mvn	r0, #18
	mov	sp, r7
	.cfi_def_cfa_register 13
.LVL27:
	.loc 1 162 1 view .LVU268
	@ sp needed
	pop	{r7, pc}
.L23:
	.align	2
.L22:
	.word	__device_dts_ord_30
	.word	.LC0
	.word	16777219
	.word	log_const_zmk
	.cfi_endproc
.LFE570:
	.size	zmk_battery_init.part.0, .-zmk_battery_init.part.0
	.section	.text.zmk_battery_init,"ax",%progbits
	.align	1
	.syntax unified
	.thumb
	.thumb_func
	.type	zmk_battery_init, %function
zmk_battery_init:
.LFB567:
	.loc 1 144 35 is_stmt 1 view -0
	.cfi_startproc
	@ args = 0, pretend = 0, frame = 0
	@ frame_needed = 0, uses_anonymous_args = 0
	.loc 1 155 5 view .LVU270
.LBB551:
.LBI551:
	.loc 2 49 19 view .LVU271
.LVL28:
.LBB552:
	.loc 2 57 2 view .LVU272
	.loc 2 57 7 view .LVU273
.LBE552:
.LBE551:
	.loc 1 144 35 is_stmt 0 view .LVU274
	push	{r3, lr}
	.cfi_def_cfa_offset 8
	.cfi_offset 3, -8
	.cfi_offset 14, -4
.LBB556:
.LBB555:
	.loc 2 57 7 view .LVU275
	.loc 2 57 5 is_stmt 1 view .LVU276
	.loc 2 58 2 view .LVU277
.LVL29:
.LBB553:
.LBI553:
	.loc 3 744 19 view .LVU278
.LBB554:
	.loc 3 746 2 view .LVU279
	.loc 3 746 9 is_stmt 0 view .LVU280
	ldr	r0, .L26
	bl	z_device_is_ready
.LVL30:
	.loc 3 746 9 view .LVU281
.LBE554:
.LBE553:
.LBE555:
.LBE556:
	.loc 1 155 8 view .LVU282
	cbnz	r0, .L25
	.loc 1 162 1 view .LVU283
	pop	{r3, lr}
	.cfi_remember_state
	.cfi_restore 14
	.cfi_restore 3
	.cfi_def_cfa_offset 0
	b	zmk_battery_init.part.0
.LVL31:
.L25:
	.cfi_restore_state
	.loc 1 160 5 is_stmt 1 view .LVU284
	bl	zmk_battery_start_reporting
.LVL32:
	.loc 1 161 5 view .LVU285
	.loc 1 162 1 is_stmt 0 view .LVU286
	movs	r0, #0
	pop	{r3, pc}
.L27:
	.align	2
.L26:
	.word	__device_dts_ord_30
	.cfi_endproc
.LFE567:
	.size	zmk_battery_init, .-zmk_battery_init
	.section	.rodata.zmk_battery_work.str1.1,"aMS",%progbits,1
.LC1:
	.ascii	"%s: Failed to fetch battery values: %d\000"
.LC2:
	.ascii	"%s: Failed to get battery state of charge: %d\000"
.LC3:
	.ascii	"Failed to raise battery state changed event: %d\000"
.LC4:
	.ascii	"%s: Setting BAS GATT battery level to %d.\000"
.LC5:
	.ascii	"Failed to set BAS GATT battery level (err %d)\000"
.LC6:
	.ascii	"%s: Failed to update battery value: %d.\000"
	.section	.text.zmk_battery_work,"ax",%progbits
	.align	1
	.syntax unified
	.thumb
	.thumb_func
	.type	zmk_battery_work, %function
zmk_battery_work:
.LVL33:
.LFB564:
	.loc 1 122 51 is_stmt 1 view -0
	.cfi_startproc
	@ args = 0, pretend = 0, frame = 8
	@ frame_needed = 1, uses_anonymous_args = 0
	.loc 1 123 5 view .LVU288
.LBB676:
.LBI676:
	.loc 1 53 12 view .LVU289
.LBB677:
	.loc 1 54 5 view .LVU290
	.loc 1 55 5 view .LVU291
	.loc 1 59 5 view .LVU292
.LBB678:
.LBI678:
	.file 6 "/home/g/mise-work/zmk-firmware/zmk/app/build/zephyr/include/generated/syscalls/sensor.h"
	.loc 6 101 19 view .LVU293
.LBB679:
	.loc 6 110 2 view .LVU294
	.loc 6 110 7 view .LVU295
.LBE679:
.LBE678:
.LBE677:
.LBE676:
	.loc 1 122 51 is_stmt 0 view .LVU296
	push	{r4, r5, r6, r7, lr}
	.cfi_def_cfa_offset 20
	.cfi_offset 4, -20
	.cfi_offset 5, -16
	.cfi_offset 6, -12
	.cfi_offset 7, -8
	.cfi_offset 14, -4
	sub	sp, sp, #12
	.cfi_def_cfa_offset 32
	add	r7, sp, #0
	.cfi_def_cfa_register 7
.LBB748:
.LBB746:
.LBB683:
.LBB682:
	.loc 6 110 7 view .LVU297
	.loc 6 110 5 is_stmt 1 view .LVU298
	.loc 6 111 2 view .LVU299
.LBB680:
.LBI680:
	.file 7 "/home/g/mise-work/zmk-firmware/zmk/zephyr/include/zephyr/drivers/sensor.h"
	.loc 7 747 19 view .LVU300
.LVL34:
.LBB681:
	.loc 7 750 2 view .LVU301
	.loc 7 753 2 view .LVU302
	.loc 7 753 9 is_stmt 0 view .LVU303
	ldr	r5, .L45
	.loc 7 753 12 view .LVU304
	ldr	r6, [r5, #8]
	.loc 7 753 9 view .LVU305
	movs	r1, #45
	ldr	r3, [r6, #12]
	mov	r0, r5
.LVL35:
	.loc 7 753 9 view .LVU306
	blx	r3
.LVL36:
	.loc 7 753 9 view .LVU307
.LBE681:
.LBE680:
.LBE682:
.LBE683:
	.loc 1 60 5 is_stmt 1 view .LVU308
	.loc 1 60 8 is_stmt 0 view .LVU309
	mov	r4, r0
	cbz	r0, .L29
	.loc 1 61 9 is_stmt 1 view .LVU310
.LBB684:
	.loc 1 61 14 view .LVU311
	.loc 1 61 63 view .LVU312
	.loc 1 61 20 view .LVU313
	.loc 1 61 8 view .LVU314
.LVL37:
	.loc 1 61 47 view .LVU315
	.loc 1 61 182 view .LVU316
	.loc 1 61 193 view .LVU317
	.loc 1 61 281 view .LVU318
.LBB685:
	.loc 1 61 9 view .LVU319
	.loc 1 61 11 view .LVU320
	.loc 1 61 60 view .LVU321
	.loc 1 61 9 view .LVU322
.LBB686:
	.loc 1 61 14 view .LVU323
	.loc 1 61 8 view .LVU324
	.loc 1 61 18 view .LVU325
	.loc 1 61 108 view .LVU326
	.loc 1 61 110 view .LVU327
.LBB687:
	.loc 1 61 113 is_stmt 0 view .LVU328
	mov	r5, sp
	.loc 1 61 115 is_stmt 1 view .LVU329
	.loc 1 61 126 view .LVU330
.LVL38:
	.loc 1 61 215 view .LVU331
	.loc 1 61 32 view .LVU332
	.loc 1 61 35 view .LVU333
	.loc 1 61 9 view .LVU334
	.loc 1 61 9 view .LVU335
	.loc 1 61 76 view .LVU336
	.loc 1 61 88 is_stmt 0 view .LVU337
	sub	sp, sp, #32
	mov	r2, sp
.LVL39:
	.loc 1 61 80 is_stmt 1 view .LVU338
	.loc 1 61 490 view .LVU339
	.loc 1 61 11 view .LVU340
	.loc 1 61 13 view .LVU341
	.loc 1 61 18 view .LVU342
	.loc 1 61 16 view .LVU343
	.loc 1 61 11 view .LVU344
	.loc 1 61 29 view .LVU345
.LBB688:
	.loc 1 61 9 view .LVU346
	.loc 1 61 374 view .LVU347
	.loc 1 61 81 view .LVU348
.LVL40:
	.loc 1 61 8 view .LVU349
	.loc 1 61 8 view .LVU350
	.loc 1 61 8 view .LVU351
	.loc 1 61 44 view .LVU352
	.loc 1 61 73 view .LVU353
	.loc 1 61 99 view .LVU354
	.loc 1 61 125 view .LVU355
	.loc 1 61 1038 view .LVU356
	.loc 1 61 1100 view .LVU357
	.loc 1 61 2087 view .LVU358
	.loc 1 61 2152 view .LVU359
	.loc 1 61 2177 view .LVU360
	.loc 1 61 2178 view .LVU361
	.loc 1 61 2180 view .LVU362
	.loc 1 61 2210 view .LVU363
	.loc 1 61 2240 view .LVU364
	.loc 1 61 2272 view .LVU365
	.loc 1 61 2304 view .LVU366
	.loc 1 61 2336 view .LVU367
	.loc 1 61 2533 view .LVU368
	.loc 1 61 2557 view .LVU369
	.loc 1 61 2558 view .LVU370
	.loc 1 61 2560 view .LVU371
	.loc 1 61 2589 view .LVU372
	.loc 1 61 2618 view .LVU373
	.loc 1 61 2649 view .LVU374
	.loc 1 61 2680 view .LVU375
	.loc 1 61 2711 view .LVU376
	.loc 1 61 2918 view .LVU377
.LBB689:
	.loc 1 61 3249 view .LVU378
	.loc 1 61 3254 view .LVU379
	.loc 1 61 3938 view .LVU380
	.loc 1 61 0 is_stmt 0 view .LVU381
	ldr	r3, .L45+4
.LVL41:
.L43:
	.loc 1 61 0 view .LVU382
.LBE689:
.LBE688:
.LBE687:
.LBE686:
.LBE685:
.LBE684:
.LBB690:
.LBB691:
.LBB692:
.LBB693:
.LBB694:
.LBB695:
	.loc 1 68 0 view .LVU383
	str	r3, [r2, #20]
	.loc 1 68 3315 is_stmt 1 view .LVU384
	.loc 1 68 13 view .LVU385
.LVL42:
	.loc 1 68 36 view .LVU386
	.loc 1 68 36 is_stmt 0 view .LVU387
.LBE695:
	.loc 1 68 135 is_stmt 1 view .LVU388
	.loc 1 68 12 view .LVU389
.LBB696:
	.loc 1 68 17 view .LVU390
	.loc 1 68 242 view .LVU391
	.loc 1 68 1195 view .LVU392
	.loc 1 68 1260 view .LVU393
	.loc 1 68 1427 view .LVU394
	.loc 1 68 1467 view .LVU395
	.loc 1 68 1492 view .LVU396
	.loc 1 68 2731 view .LVU397
	.loc 1 68 2769 view .LVU398
	.loc 1 68 2774 view .LVU399
	.loc 1 68 3218 view .LVU400
	.loc 1 68 3817 is_stmt 0 view .LVU401
	ldr	r3, .L45+8
.LBE696:
.LBB697:
	.loc 1 68 3817 view .LVU402
	strd	r3, r4, [r2, #24]
	.loc 1 68 2772 is_stmt 1 view .LVU403
	.loc 1 68 13 view .LVU404
.LVL43:
	.loc 1 68 36 view .LVU405
	.loc 1 68 36 is_stmt 0 view .LVU406
.LBE697:
	.loc 1 68 15 is_stmt 1 view .LVU407
	.loc 1 68 11 view .LVU408
	.loc 1 68 34 view .LVU409
	.loc 1 68 58 view .LVU410
	.loc 1 68 86 view .LVU411
	.loc 1 68 262 view .LVU412
	.loc 1 68 22 view .LVU413
.LBB698:
	.loc 1 68 12 view .LVU414
	.loc 1 68 170 view .LVU415
	.loc 1 68 172 view .LVU416
	.loc 1 68 182 is_stmt 0 view .LVU417
	movs	r3, #4
	str	r3, [r2, #16]!
.LVL44:
	.loc 1 68 182 view .LVU418
.LBE698:
.LBE694:
	.loc 1 68 32 is_stmt 1 view .LVU419
	.loc 1 68 13 view .LVU420
	.loc 1 68 153 view .LVU421
	.loc 1 68 155 view .LVU422
.LBB700:
.LBI700:
	.loc 5 26 20 view .LVU423
.LBB701:
	.loc 5 38 2 view .LVU424
	.loc 5 38 7 view .LVU425
	.loc 5 38 5 view .LVU426
	.loc 5 39 2 view .LVU427
	movs	r3, #0
	mov	r1, #8448
.LVL45:
.L44:
	.loc 5 39 2 is_stmt 0 view .LVU428
	ldr	r0, .L45+12
.LVL46:
	.loc 5 39 2 view .LVU429
	bl	z_impl_z_log_msg_static_create
.LVL47:
.LBE701:
.LBE700:
	mov	sp, r5
.LBE693:
	.loc 1 68 113 is_stmt 1 view .LVU430
	.loc 1 68 11 view .LVU431
.LVL48:
	.loc 1 68 48 view .LVU432
.LBE692:
	.loc 1 68 12 view .LVU433
.LBE691:
	.loc 1 68 284 view .LVU434
	.loc 1 68 11 view .LVU435
	.loc 1 68 24 view .LVU436
.LBE690:
	.loc 1 68 12 view .LVU437
	.loc 1 69 9 view .LVU438
	.loc 1 69 9 is_stmt 0 view .LVU439
.LBE746:
.LBE748:
	.loc 1 125 5 is_stmt 1 view .LVU440
.L30:
	.loc 1 126 9 view .LVU441
.LBB749:
	.loc 1 126 14 view .LVU442
	.loc 1 126 63 view .LVU443
	.loc 1 126 20 view .LVU444
	.loc 1 126 8 view .LVU445
	.loc 1 126 47 view .LVU446
	.loc 1 126 182 view .LVU447
	.loc 1 126 193 view .LVU448
	.loc 1 126 281 view .LVU449
.LBB750:
	.loc 1 126 9 view .LVU450
	.loc 1 126 11 view .LVU451
	.loc 1 126 60 view .LVU452
	.loc 1 126 9 view .LVU453
.LBB751:
	.loc 1 126 14 view .LVU454
	.loc 1 126 8 view .LVU455
.LBE751:
.LBE750:
.LBE749:
	.loc 1 126 9 view .LVU456
	.loc 1 126 18 view .LVU457
	.loc 1 126 113 view .LVU458
	.loc 1 126 9 view .LVU459
.LBB774:
.LBB770:
.LBB766:
	.loc 1 126 18 view .LVU460
	.loc 1 126 108 view .LVU461
	.loc 1 126 110 view .LVU462
.LBB752:
	.loc 1 126 113 is_stmt 0 view .LVU463
	mov	r5, sp
	.loc 1 126 115 is_stmt 1 view .LVU464
	.loc 1 126 126 view .LVU465
.LVL49:
	.loc 1 126 215 view .LVU466
	.loc 1 126 32 view .LVU467
.LBE752:
.LBE766:
.LBE770:
.LBE774:
	.loc 1 126 9 view .LVU468
	.loc 1 126 374 view .LVU469
	.loc 1 126 81 view .LVU470
	.loc 1 126 8 view .LVU471
	.loc 1 126 8 view .LVU472
	.loc 1 126 8 view .LVU473
	.loc 1 126 44 view .LVU474
	.loc 1 126 10 view .LVU475
	.loc 1 126 36 view .LVU476
	.loc 1 126 62 view .LVU477
	.loc 1 126 975 view .LVU478
	.loc 1 126 1037 view .LVU479
	.loc 1 126 2024 view .LVU480
	.loc 1 126 2089 view .LVU481
	.loc 1 126 2114 view .LVU482
	.loc 1 126 2115 view .LVU483
	.loc 1 126 2117 view .LVU484
	.loc 1 126 2147 view .LVU485
	.loc 1 126 2177 view .LVU486
	.loc 1 126 2209 view .LVU487
	.loc 1 126 2241 view .LVU488
	.loc 1 126 2273 view .LVU489
	.loc 1 126 2470 view .LVU490
	.loc 1 126 2494 view .LVU491
	.loc 1 126 2495 view .LVU492
	.loc 1 126 2497 view .LVU493
	.loc 1 126 2526 view .LVU494
	.loc 1 126 2555 view .LVU495
	.loc 1 126 2586 view .LVU496
	.loc 1 126 2617 view .LVU497
	.loc 1 126 2648 view .LVU498
	.loc 1 126 2855 view .LVU499
	.loc 1 126 10 view .LVU500
	.loc 1 126 28 view .LVU501
	.loc 1 126 48 view .LVU502
	.loc 1 126 10 view .LVU503
	.loc 1 126 48 view .LVU504
	.loc 1 126 19 view .LVU505
	.loc 1 126 19 view .LVU506
	.loc 1 126 67 view .LVU507
	.loc 1 126 98 view .LVU508
	.loc 1 126 132 view .LVU509
	.loc 1 126 137 view .LVU510
	.loc 1 126 403 view .LVU511
	.loc 1 126 1520 view .LVU512
	.loc 1 126 1585 view .LVU513
	.loc 1 126 1609 view .LVU514
	.loc 1 126 1679 view .LVU515
	.loc 1 126 1690 view .LVU516
	.loc 1 126 1818 view .LVU517
	.loc 1 126 1834 view .LVU518
	.loc 1 126 1874 view .LVU519
	.loc 1 126 1899 view .LVU520
	.loc 1 126 3220 view .LVU521
	.loc 1 126 3261 view .LVU522
	.loc 1 126 13 view .LVU523
	.loc 1 126 36 view .LVU524
	.loc 1 126 135 view .LVU525
	.loc 1 126 12 view .LVU526
	.loc 1 126 17 view .LVU527
	.loc 1 126 242 view .LVU528
	.loc 1 126 1195 view .LVU529
	.loc 1 126 1260 view .LVU530
	.loc 1 126 1284 view .LVU531
	.loc 1 126 1313 view .LVU532
	.loc 1 126 1324 view .LVU533
	.loc 1 126 1411 view .LVU534
	.loc 1 126 1427 view .LVU535
	.loc 1 126 1467 view .LVU536
	.loc 1 126 1492 view .LVU537
	.loc 1 126 2731 view .LVU538
	.loc 1 126 2772 view .LVU539
	.loc 1 126 13 view .LVU540
	.loc 1 126 36 view .LVU541
	.loc 1 126 15 view .LVU542
	.loc 1 126 12 view .LVU543
	.loc 1 126 17 view .LVU544
	.loc 1 126 242 view .LVU545
	.loc 1 126 1195 view .LVU546
	.loc 1 126 1260 view .LVU547
	.loc 1 126 1284 view .LVU548
	.loc 1 126 1313 view .LVU549
	.loc 1 126 1324 view .LVU550
	.loc 1 126 1411 view .LVU551
	.loc 1 126 1427 view .LVU552
	.loc 1 126 1467 view .LVU553
	.loc 1 126 2731 view .LVU554
	.loc 1 126 2772 view .LVU555
	.loc 1 126 13 view .LVU556
	.loc 1 126 36 view .LVU557
	.loc 1 126 15 view .LVU558
	.loc 1 126 11 view .LVU559
	.loc 1 126 34 view .LVU560
	.loc 1 126 58 view .LVU561
	.loc 1 126 86 view .LVU562
	.loc 1 126 262 view .LVU563
	.loc 1 126 22 view .LVU564
.LBB775:
.LBB771:
.LBB767:
.LBB763:
	.loc 1 126 35 view .LVU565
	.loc 1 126 9 view .LVU566
	.loc 1 126 9 view .LVU567
	.loc 1 126 76 view .LVU568
	.loc 1 126 88 is_stmt 0 view .LVU569
	sub	sp, sp, #32
	mov	r2, sp
.LVL50:
	.loc 1 126 80 is_stmt 1 view .LVU570
	.loc 1 126 490 view .LVU571
	.loc 1 126 11 view .LVU572
	.loc 1 126 13 view .LVU573
	.loc 1 126 18 view .LVU574
	.loc 1 126 16 view .LVU575
	.loc 1 126 11 view .LVU576
	.loc 1 126 29 view .LVU577
.LBB753:
	.loc 1 126 9 view .LVU578
	.loc 1 126 374 view .LVU579
	.loc 1 126 81 view .LVU580
.LVL51:
	.loc 1 126 8 view .LVU581
	.loc 1 126 8 view .LVU582
	.loc 1 126 8 view .LVU583
	.loc 1 126 44 view .LVU584
	.loc 1 126 73 view .LVU585
	.loc 1 126 99 view .LVU586
	.loc 1 126 125 view .LVU587
	.loc 1 126 1038 view .LVU588
	.loc 1 126 1100 view .LVU589
	.loc 1 126 2087 view .LVU590
	.loc 1 126 2152 view .LVU591
	.loc 1 126 2177 view .LVU592
	.loc 1 126 2178 view .LVU593
	.loc 1 126 2180 view .LVU594
	.loc 1 126 2210 view .LVU595
	.loc 1 126 2240 view .LVU596
	.loc 1 126 2272 view .LVU597
	.loc 1 126 2304 view .LVU598
	.loc 1 126 2336 view .LVU599
	.loc 1 126 2533 view .LVU600
	.loc 1 126 2557 view .LVU601
	.loc 1 126 2558 view .LVU602
	.loc 1 126 2560 view .LVU603
	.loc 1 126 2589 view .LVU604
	.loc 1 126 2618 view .LVU605
	.loc 1 126 2649 view .LVU606
	.loc 1 126 2680 view .LVU607
	.loc 1 126 2711 view .LVU608
	.loc 1 126 2918 view .LVU609
.LBB754:
	.loc 1 126 3258 view .LVU610
	.loc 1 126 3263 view .LVU611
	.loc 1 126 3953 view .LVU612
	.loc 1 126 0 is_stmt 0 view .LVU613
	ldr	r3, .L45+16
	str	r3, [r2, #20]
	.loc 1 126 3261 is_stmt 1 view .LVU614
	.loc 1 126 13 view .LVU615
.LVL52:
	.loc 1 126 36 view .LVU616
	.loc 1 126 36 is_stmt 0 view .LVU617
.LBE754:
	.loc 1 126 135 is_stmt 1 view .LVU618
	.loc 1 126 12 view .LVU619
.LBB755:
	.loc 1 126 17 view .LVU620
	.loc 1 126 242 view .LVU621
	.loc 1 126 1195 view .LVU622
	.loc 1 126 1260 view .LVU623
.LBE755:
.LBE753:
.LBE763:
.LBE767:
.LBE771:
.LBE775:
	.loc 1 126 1284 view .LVU624
	.loc 1 126 1313 view .LVU625
	.loc 1 126 1324 view .LVU626
	.loc 1 126 1411 view .LVU627
.LBB776:
.LBB772:
.LBB768:
.LBB764:
.LBB759:
.LBB756:
	.loc 1 126 1427 view .LVU628
	.loc 1 126 1467 view .LVU629
	.loc 1 126 1492 view .LVU630
	.loc 1 126 2731 view .LVU631
	.loc 1 126 2769 view .LVU632
	.loc 1 126 2774 view .LVU633
	.loc 1 126 3218 view .LVU634
	.loc 1 126 3817 is_stmt 0 view .LVU635
	ldr	r3, .L45+20
.LBE756:
.LBB757:
	.loc 1 126 3817 view .LVU636
	strd	r3, r4, [r2, #24]
	.loc 1 126 2772 is_stmt 1 view .LVU637
	.loc 1 126 13 view .LVU638
.LVL53:
	.loc 1 126 36 view .LVU639
	.loc 1 126 36 is_stmt 0 view .LVU640
.LBE757:
	.loc 1 126 15 is_stmt 1 view .LVU641
	.loc 1 126 11 view .LVU642
	.loc 1 126 34 view .LVU643
	.loc 1 126 58 view .LVU644
	.loc 1 126 86 view .LVU645
.LBE759:
.LBE764:
.LBE768:
.LBE772:
.LBE776:
	.loc 1 126 12 view .LVU646
	.loc 1 126 51 view .LVU647
	.loc 1 126 56 view .LVU648
	.loc 1 126 86 view .LVU649
	.loc 1 126 153 view .LVU650
	.loc 1 126 158 view .LVU651
	.loc 1 126 188 view .LVU652
.LBB777:
.LBB773:
.LBB769:
.LBB765:
.LBB760:
	.loc 1 126 262 view .LVU653
	.loc 1 126 22 view .LVU654
.LBB758:
	.loc 1 126 12 view .LVU655
	.loc 1 126 170 view .LVU656
	.loc 1 126 172 view .LVU657
	.loc 1 126 182 is_stmt 0 view .LVU658
	movs	r3, #4
	str	r3, [r2, #16]!
.LVL54:
	.loc 1 126 182 view .LVU659
.LBE758:
.LBE760:
	.loc 1 126 32 is_stmt 1 view .LVU660
	.loc 1 126 13 view .LVU661
	.loc 1 126 153 view .LVU662
	.loc 1 126 155 view .LVU663
.LBB761:
.LBI761:
	.loc 5 26 20 view .LVU664
.LBB762:
	.loc 5 38 2 view .LVU665
	.loc 5 38 7 view .LVU666
	.loc 5 38 5 view .LVU667
	.loc 5 39 2 view .LVU668
	ldr	r0, .L45+12
	movs	r3, #0
	mov	r1, #8448
	bl	z_impl_z_log_msg_static_create
.LVL55:
	.loc 5 39 2 is_stmt 0 view .LVU669
.LBE762:
.LBE761:
	mov	sp, r5
.LVL56:
	.loc 5 39 2 view .LVU670
.LBE765:
	.loc 1 126 113 is_stmt 1 view .LVU671
	.loc 1 126 11 view .LVU672
	.loc 1 126 48 view .LVU673
.LBE769:
	.loc 1 126 12 view .LVU674
.LBE773:
	.loc 1 126 284 view .LVU675
	.loc 1 126 11 view .LVU676
	.loc 1 126 24 view .LVU677
.LBE777:
	.loc 1 126 12 view .LVU678
.L28:
	.loc 1 128 1 is_stmt 0 view .LVU679
	adds	r7, r7, #12
	.cfi_remember_state
	.cfi_def_cfa_offset 20
	mov	sp, r7
	.cfi_def_cfa_register 13
	@ sp needed
	pop	{r4, r5, r6, r7, pc}
.LVL57:
.L29:
	.cfi_restore_state
.LBB778:
.LBB747:
	.loc 1 65 5 is_stmt 1 view .LVU680
.LBB706:
.LBI706:
	.loc 6 125 19 view .LVU681
.LBB707:
	.loc 6 135 2 view .LVU682
	.loc 6 135 7 view .LVU683
	.loc 6 135 5 view .LVU684
	.loc 6 136 2 view .LVU685
.LVL58:
.LBB708:
.LBI708:
	.loc 7 781 19 view .LVU686
.LBB709:
	.loc 7 785 2 view .LVU687
	.loc 7 788 2 view .LVU688
	.loc 7 788 9 is_stmt 0 view .LVU689
	movs	r1, #45
	ldr	r3, [r6, #16]
	mov	r2, r7
.LVL59:
	.loc 7 788 9 view .LVU690
	mov	r0, r5
.LVL60:
	.loc 7 788 9 view .LVU691
	blx	r3
.LVL61:
	.loc 7 788 9 view .LVU692
.LBE709:
.LBE708:
.LBE707:
.LBE706:
	.loc 1 67 5 is_stmt 1 view .LVU693
	.loc 1 67 8 is_stmt 0 view .LVU694
	mov	r4, r0
	cbz	r0, .L31
	.loc 1 68 9 is_stmt 1 view .LVU695
.LBB710:
	.loc 1 68 14 view .LVU696
	.loc 1 68 63 view .LVU697
	.loc 1 68 20 view .LVU698
	.loc 1 68 8 view .LVU699
.LVL62:
	.loc 1 68 47 view .LVU700
	.loc 1 68 182 view .LVU701
	.loc 1 68 193 view .LVU702
	.loc 1 68 281 view .LVU703
.LBB705:
	.loc 1 68 9 view .LVU704
	.loc 1 68 11 view .LVU705
	.loc 1 68 60 view .LVU706
	.loc 1 68 9 view .LVU707
.LBB704:
	.loc 1 68 14 view .LVU708
	.loc 1 68 8 view .LVU709
	.loc 1 68 18 view .LVU710
	.loc 1 68 108 view .LVU711
	.loc 1 68 110 view .LVU712
.LBB703:
	.loc 1 68 113 is_stmt 0 view .LVU713
	mov	r5, sp
	.loc 1 68 115 is_stmt 1 view .LVU714
	.loc 1 68 126 view .LVU715
.LVL63:
	.loc 1 68 215 view .LVU716
	.loc 1 68 32 view .LVU717
	.loc 1 68 35 view .LVU718
	.loc 1 68 9 view .LVU719
	.loc 1 68 9 view .LVU720
	.loc 1 68 76 view .LVU721
	.loc 1 68 88 is_stmt 0 view .LVU722
	sub	sp, sp, #32
	mov	r2, sp
.LVL64:
	.loc 1 68 80 is_stmt 1 view .LVU723
	.loc 1 68 490 view .LVU724
	.loc 1 68 11 view .LVU725
	.loc 1 68 13 view .LVU726
	.loc 1 68 18 view .LVU727
	.loc 1 68 16 view .LVU728
	.loc 1 68 11 view .LVU729
	.loc 1 68 29 view .LVU730
.LBB702:
	.loc 1 68 9 view .LVU731
	.loc 1 68 374 view .LVU732
	.loc 1 68 81 view .LVU733
.LVL65:
	.loc 1 68 8 view .LVU734
	.loc 1 68 8 view .LVU735
	.loc 1 68 8 view .LVU736
	.loc 1 68 44 view .LVU737
	.loc 1 68 73 view .LVU738
	.loc 1 68 99 view .LVU739
	.loc 1 68 125 view .LVU740
	.loc 1 68 1038 view .LVU741
	.loc 1 68 1100 view .LVU742
	.loc 1 68 2087 view .LVU743
	.loc 1 68 2152 view .LVU744
	.loc 1 68 2177 view .LVU745
	.loc 1 68 2178 view .LVU746
	.loc 1 68 2180 view .LVU747
	.loc 1 68 2210 view .LVU748
	.loc 1 68 2240 view .LVU749
	.loc 1 68 2272 view .LVU750
	.loc 1 68 2304 view .LVU751
	.loc 1 68 2336 view .LVU752
	.loc 1 68 2533 view .LVU753
	.loc 1 68 2557 view .LVU754
	.loc 1 68 2558 view .LVU755
	.loc 1 68 2560 view .LVU756
	.loc 1 68 2589 view .LVU757
	.loc 1 68 2618 view .LVU758
	.loc 1 68 2649 view .LVU759
	.loc 1 68 2680 view .LVU760
	.loc 1 68 2711 view .LVU761
	.loc 1 68 2918 view .LVU762
.LBB699:
	.loc 1 68 3312 view .LVU763
	.loc 1 68 3317 view .LVU764
	.loc 1 68 4043 view .LVU765
	.loc 1 68 0 is_stmt 0 view .LVU766
	ldr	r3, .L45+24
	b	.L43
.LVL66:
.L31:
	.loc 1 68 0 view .LVU767
.LBE699:
.LBE702:
.LBE703:
.LBE704:
.LBE705:
.LBE710:
	.loc 1 94 5 is_stmt 1 view .LVU768
	.loc 1 94 30 is_stmt 0 view .LVU769
	ldr	r5, .L45+28
	.loc 1 94 48 view .LVU770
	ldr	r0, [r7]
.LVL67:
	.loc 1 94 30 view .LVU771
	ldrb	r3, [r5]	@ zero_extendqisi2
	.loc 1 94 8 view .LVU772
	cmp	r3, r0
	beq	.L32
.LBB711:
	.loc 1 95 9 is_stmt 1 view .LVU773
	.loc 1 95 30 is_stmt 0 view .LVU774
	uxtb	r0, r0
	strb	r0, [r5]
	.loc 1 97 9 is_stmt 1 view .LVU775
	.loc 1 97 14 is_stmt 0 view .LVU776
	bl	raise_zmk_battery_state_changed
.LVL68:
	.loc 1 100 9 is_stmt 1 view .LVU777
	.loc 1 100 12 is_stmt 0 view .LVU778
	mov	r4, r0
	cbz	r0, .L32
	.loc 1 101 13 is_stmt 1 view .LVU779
.LBB712:
	.loc 1 101 18 view .LVU780
	.loc 1 101 67 view .LVU781
	.loc 1 101 24 view .LVU782
	.loc 1 101 12 view .LVU783
.LVL69:
	.loc 1 101 51 view .LVU784
	.loc 1 101 186 view .LVU785
	.loc 1 101 197 view .LVU786
	.loc 1 101 285 view .LVU787
.LBB713:
	.loc 1 101 13 view .LVU788
	.loc 1 101 15 view .LVU789
	.loc 1 101 13 view .LVU790
.LBB714:
	.loc 1 101 18 view .LVU791
	.loc 1 101 12 view .LVU792
	.loc 1 101 22 view .LVU793
	.loc 1 101 112 view .LVU794
	.loc 1 101 114 view .LVU795
.LBB715:
	.loc 1 101 117 is_stmt 0 view .LVU796
	mov	r5, sp
	.loc 1 101 119 is_stmt 1 view .LVU797
	.loc 1 101 130 view .LVU798
.LVL70:
	.loc 1 101 219 view .LVU799
	.loc 1 101 36 view .LVU800
	.loc 1 101 39 view .LVU801
	.loc 1 101 13 view .LVU802
	.loc 1 101 13 view .LVU803
	.loc 1 101 80 view .LVU804
	.loc 1 101 92 is_stmt 0 view .LVU805
	sub	sp, sp, #32
	mov	r2, sp
.LVL71:
	.loc 1 101 84 is_stmt 1 view .LVU806
	.loc 1 101 494 view .LVU807
	.loc 1 101 15 view .LVU808
	.loc 1 101 17 view .LVU809
	.loc 1 101 22 view .LVU810
	.loc 1 101 20 view .LVU811
	.loc 1 101 15 view .LVU812
	.loc 1 101 33 view .LVU813
.LBB716:
	.loc 1 101 13 view .LVU814
	.loc 1 101 378 view .LVU815
	.loc 1 101 85 view .LVU816
.LVL72:
	.loc 1 101 12 view .LVU817
	.loc 1 101 12 view .LVU818
	.loc 1 101 12 view .LVU819
	.loc 1 101 48 view .LVU820
	.loc 1 101 77 view .LVU821
	.loc 1 101 103 view .LVU822
	.loc 1 101 129 view .LVU823
	.loc 1 101 596 view .LVU824
	.loc 1 101 658 view .LVU825
	.loc 1 101 1179 view .LVU826
	.loc 1 101 1244 view .LVU827
	.loc 1 101 1269 view .LVU828
	.loc 1 101 1270 view .LVU829
	.loc 1 101 1272 view .LVU830
	.loc 1 101 1302 view .LVU831
	.loc 1 101 1332 view .LVU832
	.loc 1 101 1364 view .LVU833
	.loc 1 101 1396 view .LVU834
	.loc 1 101 1428 view .LVU835
	.loc 1 101 1625 view .LVU836
	.loc 1 101 1649 view .LVU837
	.loc 1 101 1650 view .LVU838
	.loc 1 101 1652 view .LVU839
	.loc 1 101 1681 view .LVU840
	.loc 1 101 1710 view .LVU841
	.loc 1 101 1741 view .LVU842
	.loc 1 101 1772 view .LVU843
	.loc 1 101 1803 view .LVU844
	.loc 1 101 2010 view .LVU845
.LBB717:
	.loc 1 101 3307 view .LVU846
	.loc 1 101 3312 view .LVU847
	.loc 1 101 4032 view .LVU848
	.loc 1 101 0 is_stmt 0 view .LVU849
	ldr	r3, .L45+32
.LBE717:
.LBB718:
	.loc 1 101 3821 view .LVU850
	strd	r3, r0, [r2, #20]
	.loc 1 101 2776 is_stmt 1 view .LVU851
	.loc 1 101 17 view .LVU852
.LVL73:
	.loc 1 101 40 view .LVU853
	.loc 1 101 40 is_stmt 0 view .LVU854
.LBE718:
	.loc 1 101 19 is_stmt 1 view .LVU855
	.loc 1 101 15 view .LVU856
	.loc 1 101 38 view .LVU857
	.loc 1 101 62 view .LVU858
	.loc 1 101 90 view .LVU859
	.loc 1 101 266 view .LVU860
	.loc 1 101 26 view .LVU861
.LBB719:
	.loc 1 101 16 view .LVU862
	.loc 1 101 174 view .LVU863
	.loc 1 101 176 view .LVU864
	.loc 1 101 186 is_stmt 0 view .LVU865
	movs	r3, #3
	str	r3, [r2, #16]!
.LVL74:
	.loc 1 101 186 view .LVU866
.LBE719:
.LBE716:
	.loc 1 101 36 is_stmt 1 view .LVU867
	.loc 1 101 17 view .LVU868
	.loc 1 101 157 view .LVU869
	.loc 1 101 159 view .LVU870
.LBB720:
.LBI720:
	.loc 5 26 20 view .LVU871
.LBB721:
	.loc 5 38 2 view .LVU872
	.loc 5 38 7 view .LVU873
	.loc 5 38 5 view .LVU874
	.loc 5 39 2 view .LVU875
	movs	r3, #0
	mov	r1, #6208
	b	.L44
.LVL75:
.L32:
	.loc 5 39 2 is_stmt 0 view .LVU876
.LBE721:
.LBE720:
.LBE715:
.LBE714:
.LBE713:
.LBE712:
.LBE711:
	.loc 1 107 5 is_stmt 1 view .LVU877
	.loc 1 107 9 is_stmt 0 view .LVU878
	bl	bt_bas_get_battery_level
.LVL76:
	.loc 1 107 36 view .LVU879
	ldrb	r3, [r5]	@ zero_extendqisi2
	.loc 1 107 8 view .LVU880
	cmp	r0, r3
	beq	.L28
	.loc 1 108 9 is_stmt 1 view .LVU881
.LBB722:
	.loc 1 108 14 view .LVU882
	.loc 1 108 63 view .LVU883
	.loc 1 108 20 view .LVU884
	.loc 1 108 8 view .LVU885
.LVL77:
	.loc 1 108 47 view .LVU886
	.loc 1 108 182 view .LVU887
	.loc 1 108 193 view .LVU888
	.loc 1 108 281 view .LVU889
.LBB723:
	.loc 1 108 9 view .LVU890
	.loc 1 108 11 view .LVU891
	.loc 1 108 60 view .LVU892
	.loc 1 108 9 view .LVU893
.LBB724:
	.loc 1 108 14 view .LVU894
	.loc 1 108 8 view .LVU895
	.loc 1 108 18 view .LVU896
	.loc 1 108 108 view .LVU897
	.loc 1 108 110 view .LVU898
.LBB725:
	.loc 1 108 113 is_stmt 0 view .LVU899
	mov	r6, sp
	.loc 1 108 115 is_stmt 1 view .LVU900
	.loc 1 108 126 view .LVU901
.LVL78:
	.loc 1 108 215 view .LVU902
	.loc 1 108 32 view .LVU903
	.loc 1 108 35 view .LVU904
	.loc 1 108 9 view .LVU905
	.loc 1 108 9 view .LVU906
	.loc 1 108 76 view .LVU907
	.loc 1 108 88 is_stmt 0 view .LVU908
	sub	sp, sp, #32
	mov	r2, sp
.LVL79:
	.loc 1 108 80 is_stmt 1 view .LVU909
	.loc 1 108 490 view .LVU910
	.loc 1 108 11 view .LVU911
	.loc 1 108 13 view .LVU912
	.loc 1 108 18 view .LVU913
	.loc 1 108 16 view .LVU914
	.loc 1 108 11 view .LVU915
	.loc 1 108 29 view .LVU916
.LBB726:
	.loc 1 108 9 view .LVU917
	.loc 1 108 374 view .LVU918
	.loc 1 108 81 view .LVU919
.LVL80:
	.loc 1 108 8 view .LVU920
	.loc 1 108 8 view .LVU921
	.loc 1 108 8 view .LVU922
	.loc 1 108 44 view .LVU923
	.loc 1 108 73 view .LVU924
	.loc 1 108 99 view .LVU925
	.loc 1 108 125 view .LVU926
	.loc 1 108 1038 view .LVU927
	.loc 1 108 1100 view .LVU928
	.loc 1 108 2087 view .LVU929
	.loc 1 108 2152 view .LVU930
	.loc 1 108 2177 view .LVU931
	.loc 1 108 2178 view .LVU932
	.loc 1 108 2180 view .LVU933
	.loc 1 108 2210 view .LVU934
	.loc 1 108 2240 view .LVU935
	.loc 1 108 2272 view .LVU936
	.loc 1 108 2304 view .LVU937
	.loc 1 108 2336 view .LVU938
	.loc 1 108 2533 view .LVU939
	.loc 1 108 2557 view .LVU940
	.loc 1 108 2558 view .LVU941
	.loc 1 108 2560 view .LVU942
	.loc 1 108 2589 view .LVU943
	.loc 1 108 2618 view .LVU944
	.loc 1 108 2649 view .LVU945
	.loc 1 108 2680 view .LVU946
	.loc 1 108 2711 view .LVU947
	.loc 1 108 2918 view .LVU948
.LBB727:
	.loc 1 108 3276 view .LVU949
	.loc 1 108 3281 view .LVU950
	.loc 1 108 3983 view .LVU951
	.loc 1 108 0 is_stmt 0 view .LVU952
	ldr	r1, .L45+36
	str	r1, [r2, #20]
	.loc 1 108 3279 is_stmt 1 view .LVU953
	.loc 1 108 13 view .LVU954
.LVL81:
	.loc 1 108 36 view .LVU955
	.loc 1 108 36 is_stmt 0 view .LVU956
.LBE727:
	.loc 1 108 135 is_stmt 1 view .LVU957
	.loc 1 108 12 view .LVU958
.LBB728:
	.loc 1 108 17 view .LVU959
	.loc 1 108 242 view .LVU960
	.loc 1 108 1195 view .LVU961
	.loc 1 108 1260 view .LVU962
	.loc 1 108 1427 view .LVU963
	.loc 1 108 1467 view .LVU964
	.loc 1 108 1492 view .LVU965
	.loc 1 108 2731 view .LVU966
	.loc 1 108 2769 view .LVU967
	.loc 1 108 2774 view .LVU968
	.loc 1 108 3218 view .LVU969
	.loc 1 108 3817 is_stmt 0 view .LVU970
	ldr	r1, .L45+8
.LBE728:
.LBE726:
.LBE725:
.LBE724:
	.loc 1 108 72 view .LVU971
	strd	r1, r3, [r2, #24]
.LBB735:
.LBB734:
.LBB731:
.LBB729:
	.loc 1 108 2772 is_stmt 1 view .LVU972
	.loc 1 108 13 view .LVU973
.LVL82:
	.loc 1 108 36 view .LVU974
	.loc 1 108 36 is_stmt 0 view .LVU975
.LBE729:
	.loc 1 108 15 is_stmt 1 view .LVU976
	.loc 1 108 11 view .LVU977
	.loc 1 108 34 view .LVU978
	.loc 1 108 58 view .LVU979
	.loc 1 108 86 view .LVU980
	.loc 1 108 262 view .LVU981
	.loc 1 108 22 view .LVU982
.LBB730:
	.loc 1 108 12 view .LVU983
	.loc 1 108 170 view .LVU984
	.loc 1 108 172 view .LVU985
	.loc 1 108 182 is_stmt 0 view .LVU986
	movs	r3, #4
.LVL83:
	.loc 1 108 182 view .LVU987
	str	r3, [r2, #16]!
.LVL84:
	.loc 1 108 182 view .LVU988
.LBE730:
.LBE731:
	.loc 1 108 32 is_stmt 1 view .LVU989
	.loc 1 108 13 view .LVU990
	.loc 1 108 153 view .LVU991
	.loc 1 108 155 view .LVU992
.LBB732:
.LBI732:
	.loc 5 26 20 view .LVU993
.LBB733:
	.loc 5 38 2 view .LVU994
	.loc 5 38 7 view .LVU995
	.loc 5 38 5 view .LVU996
	.loc 5 39 2 view .LVU997
	ldr	r0, .L45+12
	movs	r3, #0
	mov	r1, #8448
	bl	z_impl_z_log_msg_static_create
.LVL85:
	.loc 5 39 2 is_stmt 0 view .LVU998
.LBE733:
.LBE732:
	mov	sp, r6
.LVL86:
	.loc 5 39 2 view .LVU999
.LBE734:
	.loc 1 108 113 is_stmt 1 view .LVU1000
	.loc 1 108 11 view .LVU1001
	.loc 1 108 48 view .LVU1002
.LBE735:
	.loc 1 108 12 view .LVU1003
.LBE723:
	.loc 1 108 284 view .LVU1004
	.loc 1 108 11 view .LVU1005
	.loc 1 108 24 view .LVU1006
.LBE722:
	.loc 1 108 12 view .LVU1007
	.loc 1 110 9 view .LVU1008
	.loc 1 110 14 is_stmt 0 view .LVU1009
	ldrb	r0, [r5]	@ zero_extendqisi2
	bl	bt_bas_set_battery_level
.LVL87:
	.loc 1 112 9 is_stmt 1 view .LVU1010
	.loc 1 112 12 is_stmt 0 view .LVU1011
	mov	r4, r0
	cmp	r0, #0
	beq	.L28
	.loc 1 113 13 is_stmt 1 view .LVU1012
.LBB736:
	.loc 1 113 18 view .LVU1013
	.loc 1 113 67 view .LVU1014
	.loc 1 113 24 view .LVU1015
	.loc 1 113 12 view .LVU1016
.LVL88:
	.loc 1 113 51 view .LVU1017
	.loc 1 113 186 view .LVU1018
	.loc 1 113 197 view .LVU1019
	.loc 1 113 285 view .LVU1020
.LBB737:
	.loc 1 113 13 view .LVU1021
	.loc 1 113 15 view .LVU1022
	.loc 1 113 13 view .LVU1023
.LBB738:
	.loc 1 113 18 view .LVU1024
	.loc 1 113 12 view .LVU1025
	.loc 1 113 22 view .LVU1026
	.loc 1 113 112 view .LVU1027
	.loc 1 113 114 view .LVU1028
.LBB739:
	.loc 1 113 119 view .LVU1029
	.loc 1 113 130 view .LVU1030
	.loc 1 113 219 view .LVU1031
	.loc 1 113 36 view .LVU1032
	.loc 1 113 39 view .LVU1033
	.loc 1 113 13 view .LVU1034
	.loc 1 113 13 view .LVU1035
	.loc 1 113 80 view .LVU1036
	.loc 1 113 92 is_stmt 0 view .LVU1037
	sub	sp, sp, #32
.LVL89:
	.loc 1 113 92 view .LVU1038
	mov	r2, sp
.LVL90:
	.loc 1 113 84 is_stmt 1 view .LVU1039
	.loc 1 113 494 view .LVU1040
	.loc 1 113 15 view .LVU1041
	.loc 1 113 17 view .LVU1042
	.loc 1 113 22 view .LVU1043
	.loc 1 113 20 view .LVU1044
	.loc 1 113 15 view .LVU1045
	.loc 1 113 33 view .LVU1046
.LBB740:
	.loc 1 113 13 view .LVU1047
	.loc 1 113 378 view .LVU1048
	.loc 1 113 85 view .LVU1049
.LVL91:
	.loc 1 113 12 view .LVU1050
	.loc 1 113 12 view .LVU1051
	.loc 1 113 12 view .LVU1052
	.loc 1 113 48 view .LVU1053
	.loc 1 113 77 view .LVU1054
	.loc 1 113 103 view .LVU1055
	.loc 1 113 129 view .LVU1056
	.loc 1 113 596 view .LVU1057
	.loc 1 113 658 view .LVU1058
	.loc 1 113 1179 view .LVU1059
	.loc 1 113 1244 view .LVU1060
	.loc 1 113 1269 view .LVU1061
	.loc 1 113 1270 view .LVU1062
	.loc 1 113 1272 view .LVU1063
	.loc 1 113 1302 view .LVU1064
	.loc 1 113 1332 view .LVU1065
	.loc 1 113 1364 view .LVU1066
	.loc 1 113 1396 view .LVU1067
	.loc 1 113 1428 view .LVU1068
	.loc 1 113 1625 view .LVU1069
	.loc 1 113 1649 view .LVU1070
	.loc 1 113 1650 view .LVU1071
	.loc 1 113 1652 view .LVU1072
	.loc 1 113 1681 view .LVU1073
	.loc 1 113 1710 view .LVU1074
	.loc 1 113 1741 view .LVU1075
	.loc 1 113 1772 view .LVU1076
	.loc 1 113 1803 view .LVU1077
	.loc 1 113 2010 view .LVU1078
.LBB741:
	.loc 1 113 3289 view .LVU1079
	.loc 1 113 3294 view .LVU1080
	.loc 1 113 4002 view .LVU1081
	.loc 1 113 0 is_stmt 0 view .LVU1082
	ldr	r3, .L45+40
.LBE741:
.LBB742:
	.loc 1 113 3821 view .LVU1083
	strd	r3, r0, [r2, #20]
	.loc 1 113 2776 is_stmt 1 view .LVU1084
	.loc 1 113 17 view .LVU1085
.LVL92:
	.loc 1 113 40 view .LVU1086
	.loc 1 113 40 is_stmt 0 view .LVU1087
.LBE742:
	.loc 1 113 19 is_stmt 1 view .LVU1088
	.loc 1 113 15 view .LVU1089
	.loc 1 113 38 view .LVU1090
	.loc 1 113 62 view .LVU1091
	.loc 1 113 90 view .LVU1092
	.loc 1 113 266 view .LVU1093
	.loc 1 113 26 view .LVU1094
.LBB743:
	.loc 1 113 16 view .LVU1095
	.loc 1 113 174 view .LVU1096
	.loc 1 113 176 view .LVU1097
	.loc 1 113 186 is_stmt 0 view .LVU1098
	movs	r3, #3
	str	r3, [r2, #16]!
.LVL93:
	.loc 1 113 186 view .LVU1099
.LBE743:
.LBE740:
	.loc 1 113 36 is_stmt 1 view .LVU1100
	.loc 1 113 17 view .LVU1101
	.loc 1 113 157 view .LVU1102
	.loc 1 113 159 view .LVU1103
.LBB744:
.LBI744:
	.loc 5 26 20 view .LVU1104
.LBB745:
	.loc 5 38 2 view .LVU1105
	.loc 5 38 7 view .LVU1106
	.loc 5 38 5 view .LVU1107
	.loc 5 39 2 view .LVU1108
	ldr	r0, .L45+12
.LVL94:
	.loc 5 39 2 is_stmt 0 view .LVU1109
	movs	r3, #0
	mov	r1, #6272
	bl	z_impl_z_log_msg_static_create
.LVL95:
	.loc 5 39 2 view .LVU1110
.LBE745:
.LBE744:
	mov	sp, r6
.LVL96:
	.loc 5 39 2 view .LVU1111
.LBE739:
	.loc 1 113 117 is_stmt 1 view .LVU1112
	.loc 1 113 15 view .LVU1113
	.loc 1 113 52 view .LVU1114
.LBE738:
	.loc 1 113 16 view .LVU1115
.LBE737:
	.loc 1 113 288 view .LVU1116
	.loc 1 113 15 view .LVU1117
	.loc 1 113 28 view .LVU1118
.LBE736:
	.loc 1 113 16 view .LVU1119
	.loc 1 114 13 view .LVU1120
	.loc 1 114 13 is_stmt 0 view .LVU1121
.LBE747:
.LBE778:
	.loc 1 125 5 is_stmt 1 view .LVU1122
	b	.L30
.L46:
	.align	2
.L45:
	.word	__device_dts_ord_30
	.word	.LC1
	.word	__func__.0
	.word	log_const_zmk
	.word	.LC6
	.word	__func__.1
	.word	.LC2
	.word	last_state_of_charge
	.word	.LC3
	.word	.LC4
	.word	.LC5
	.cfi_endproc
.LFE564:
	.size	zmk_battery_work, .-zmk_battery_work
	.section	.text.zmk_battery_state_of_charge,"ax",%progbits
	.align	1
	.global	zmk_battery_state_of_charge
	.syntax unified
	.thumb
	.thumb_func
	.type	zmk_battery_state_of_charge, %function
zmk_battery_state_of_charge:
.LFB562:
	.loc 1 27 43 view -0
	.cfi_startproc
	@ args = 0, pretend = 0, frame = 0
	@ frame_needed = 0, uses_anonymous_args = 0
	@ link register save eliminated.
	.loc 1 27 45 view .LVU1124
	.loc 1 27 74 is_stmt 0 view .LVU1125
	ldr	r3, .L48
	ldrb	r0, [r3]	@ zero_extendqisi2
	bx	lr
.L49:
	.align	2
.L48:
	.word	last_state_of_charge
	.cfi_endproc
.LFE562:
	.size	zmk_battery_state_of_charge, .-zmk_battery_state_of_charge
	.section	.rodata.__func__.0,"a"
	.type	__func__.0, %object
	.size	__func__.0, 19
__func__.0:
	.ascii	"zmk_battery_update\000"
	.section	.rodata.__func__.1,"a"
	.type	__func__.1, %object
	.size	__func__.1, 17
__func__.1:
	.ascii	"zmk_battery_work\000"
	.section	.z_init_APPLICATION90_0_,"a"
	.align	2
	.type	__init_zmk_battery_init, %object
	.size	__init_zmk_battery_init, 8
__init_zmk_battery_init:
	.word	zmk_battery_init
	.word	0
	.global	zmk_event_sub_batteryzmk_activity_state_changed
	.section	.event_subscription,"a"
	.align	2
	.type	zmk_event_sub_batteryzmk_activity_state_changed, %object
	.size	zmk_event_sub_batteryzmk_activity_state_changed, 8
zmk_event_sub_batteryzmk_activity_state_changed:
	.word	zmk_event_zmk_activity_state_changed
	.word	zmk_listener_battery
	.global	zmk_listener_battery
	.section	.rodata.zmk_listener_battery,"a"
	.align	2
	.type	zmk_listener_battery, %object
	.size	zmk_listener_battery, 4
zmk_listener_battery:
	.word	battery_event_listener
	.global	battery_timer
	.section	._k_timer.static.battery_timer_,"aw"
	.align	3
	.type	battery_timer, %object
	.size	battery_timer, 56
battery_timer:
	.space	8
	.word	z_timer_expiration_handler
	.space	4
	.word	0
	.word	0
	.word	battery_timer+24
	.word	battery_timer+24
	.word	zmk_battery_timer
	.word	0
	.space	8
	.word	0
	.word	0
	.global	battery_work
	.section	.data.battery_work,"aw"
	.align	2
	.type	battery_work, %object
	.size	battery_work, 16
battery_work:
	.space	4
	.word	zmk_battery_work
	.space	8
	.section	.bss.last_state_of_charge,"aw",%nobits
	.type	last_state_of_charge, %object
	.size	last_state_of_charge, 1
last_state_of_charge:
	.space	1
	.text
.Letext0:
	.file 8 "/home/g/zephyr-sdk-0.16.3/arm-zephyr-eabi/picolibc/include/machine/_default_types.h"
	.file 9 "/home/g/zephyr-sdk-0.16.3/arm-zephyr-eabi/picolibc/include/sys/_stdint.h"
	.file 10 "/home/g/zephyr-sdk-0.16.3/arm-zephyr-eabi/lib/gcc/arm-zephyr-eabi/12.2.0/include/stddef.h"
	.file 11 "/home/g/mise-work/zmk-firmware/zmk/zephyr/include/zephyr/init.h"
	.file 12 "/home/g/mise-work/zmk-firmware/zmk/zephyr/include/zephyr/sys/atomic.h"
	.file 13 "/home/g/mise-work/zmk-firmware/zmk/zephyr/include/zephyr/sys/dlist.h"
	.file 14 "/home/g/mise-work/zmk-firmware/zmk/zephyr/include/zephyr/sys/rb.h"
	.file 15 "/home/g/mise-work/zmk-firmware/zmk/zephyr/include/zephyr/sys/slist.h"
	.file 16 "/home/g/mise-work/zmk-firmware/zmk/zephyr/include/zephyr/sys/sys_heap.h"
	.file 17 "/home/g/mise-work/zmk-firmware/zmk/zephyr/include/zephyr/kernel/thread.h"
	.file 18 "/home/g/mise-work/zmk-firmware/zmk/zephyr/include/zephyr/kernel_structs.h"
	.file 19 "/home/g/mise-work/zmk-firmware/zmk/zephyr/include/zephyr/arch/arm/thread.h"
	.file 20 "/home/g/mise-work/zmk-firmware/zmk/zephyr/include/zephyr/sys_clock.h"
	.file 21 "/home/g/mise-work/zmk-firmware/zmk/zephyr/include/zephyr/kernel.h"
	.file 22 "/home/g/mise-work/zmk-firmware/zmk/zephyr/include/zephyr/fatal_types.h"
	.file 23 "/home/g/mise-work/zmk-firmware/zmk/zephyr/include/zephyr/rtio/rtio_mpsc.h"
	.file 24 "/home/g/mise-work/zmk-firmware/zmk/zephyr/include/zephyr/rtio/rtio.h"
	.file 25 "/home/g/mise-work/zmk-firmware/zmk/zephyr/include/zephyr/logging/log_instance.h"
	.file 26 "/home/g/mise-work/zmk-firmware/zmk/zephyr/include/zephyr/sys/cbprintf.h"
	.file 27 "/home/g/mise-work/zmk-firmware/zmk/zephyr/include/zephyr/logging/log_msg.h"
	.file 28 "/home/g/mise-work/zmk-firmware/zmk/app/include/zmk/event_manager.h"
	.file 29 "/home/g/mise-work/zmk-firmware/zmk/app/include/zmk/events/battery_state_changed.h"
	.file 30 "/home/g/mise-work/zmk-firmware/zmk/app/include/zmk/activity.h"
	.file 31 "/home/g/mise-work/zmk-firmware/zmk/app/include/zmk/events/activity_state_changed.h"
	.file 32 "/home/g/mise-work/zmk-firmware/zmk/app/include/zmk/workqueue.h"
	.file 33 "/home/g/mise-work/zmk-firmware/zmk/zephyr/include/zephyr/bluetooth/services/bas.h"
	.file 34 "/home/g/mise-work/zmk-firmware/zmk/zephyr/include/zephyr/sys/cbprintf_internal.h"
	.file 35 "/home/g/mise-work/zmk-firmware/zmk/zephyr/include/zephyr/spinlock.h"
	.file 36 "/home/g/mise-work/zmk-firmware/zmk/zephyr/include/zephyr/syscall.h"