	.cpu cortex-m4
	.arch armv7e-m
	.fpu fpv4-sp-d16
	.eabi_attribute 27, 1
	.eabi_attribute 28, 1
	.eabi_attribute 20, 1
	.eabi_attribute 21, 1
	.eabi_attribute 23, 3
	.eabi_attribute 24, 1
	.eabi_attribute 25, 1
	.eabi_attribute 26, 1
	.eabi_attribute 30, 4
	.eabi_attribute 34, 1
	.eabi_attribute 38, 1
	.eabi_attribute 18, 4
	.file	"behavior_queue.c"
	.text
.Ltext0:
	.cfi_sections	.debug_frame
	.file 1 "/home/g/mise-work/zmk-firmware/zmk/app/src/behavior_queue.c"
	.section	.rodata.behavior_queue_process_next.str1.1,"aMS",%progbits,1
.LC0:
	.ascii	"%s: Invoking %s: 0x%02x 0x%02x\000"
.LC1:
	.ascii	"%s: Processing next queued behavior in %dms\000"
	.global	__aeabi_uldivmod
	.global	__aeabi_ldivmod
	.section	.text.behavior_queue_process_next,"ax",%progbits
	.align	1
	.syntax unified
	.thumb
	.thumb_func
	.type	behavior_queue_process_next, %function
behavior_queue_process_next:
.LVL0:
.LFB577:
	.loc 1 31 62 view -0
	.cfi_startproc
	@ args = 0, pretend = 0, frame = 40
	@ frame_needed = 1, uses_anonymous_args = 0
	.loc 1 32 5 view .LVU1
	.loc 1 31 62 is_stmt 0 view .LVU2
	push	{r4, r5, r6, r7, r8, lr}
	.cfi_def_cfa_offset 24
	.cfi_offset 4, -24
	.cfi_offset 5, -20
	.cfi_offset 6, -16
	.cfi_offset 7, -12
	.cfi_offset 8, -8
	.cfi_offset 14, -4
	sub	sp, sp, #56
	.cfi_def_cfa_offset 80
	.loc 1 32 19 view .LVU3
	movs	r2, #20
	.loc 1 31 62 view .LVU4
	add	r7, sp, #16
	.cfi_def_cfa 7, 64
	.loc 1 32 19 view .LVU5
	movs	r1, #0
	adds	r0, r7, r2
.LVL1:
	.loc 1 32 19 view .LVU6
	bl	memset
.LVL2:
	.loc 1 34 5 is_stmt 1 view .LVU7
.LBB188:
.LBB189:
.LBB190:
	.file 2 "/home/g/mise-work/zmk-firmware/zmk/app/build/zephyr/include/generated/syscalls/kernel.h"
	.loc 2 1207 9 is_stmt 0 view .LVU8
	ldr	r5, .L8
.LBE190:
.LBE189:
.LBB192:
.LBB193:
.LBB194:
.LBB195:
.LBB196:
.LBB197:
.LBB198:
	.loc 1 35 3817 view .LVU9
	ldr	r4, .L8+4
.L2:
.LBE198:
.LBE197:
.LBE196:
.LBE195:
.LBE194:
.LBE193:
.LBE192:
	.loc 1 34 77 is_stmt 1 view .LVU10
.LVL3:
.LBB293:
.LBI189:
	.loc 2 1196 19 view .LVU11
.LBB191:
	.loc 2 1206 2 view .LVU12
	.loc 2 1206 7 view .LVU13
	.loc 2 1206 5 view .LVU14
	.loc 2 1207 2 view .LVU15
	.loc 2 1207 9 is_stmt 0 view .LVU16
	movs	r2, #0
	movs	r3, #0
	add	r1, r7, #20
.LVL4:
	.loc 2 1207 9 view .LVU17
	mov	r0, r5
	bl	z_impl_k_msgq_get
.LVL5:
	.loc 2 1207 9 view .LVU18
.LBE191:
.LBE293:
	.loc 1 34 77 view .LVU19
	mov	r6, r0
	cmp	r0, #0
	bne	.L1
.LBB294:
	.loc 1 35 9 is_stmt 1 view .LVU20
.LBB242:
	.loc 1 35 14 view .LVU21
	.loc 1 35 63 view .LVU22
	.loc 1 35 20 view .LVU23
	.loc 1 35 8 view .LVU24
.LVL6:
	.loc 1 35 47 view .LVU25
	.loc 1 35 182 view .LVU26
	.loc 1 35 193 view .LVU27
	.loc 1 35 281 view .LVU28
.LBB235:
	.loc 1 35 9 view .LVU29
	.loc 1 35 11 view .LVU30
	.loc 1 35 60 view .LVU31
.LBB227:
.LBB220:
	.loc 1 35 113 is_stmt 0 view .LVU32
	mov	r8, sp
	.loc 1 35 88 view .LVU33
	sub	sp, sp, #48
.LBE220:
.LBE227:
	.loc 1 35 124 view .LVU34
	ldrd	r0, r1, [r7, #24]
.LVL7:
	.loc 1 35 158 is_stmt 1 view .LVU35
	.loc 1 35 170 is_stmt 0 view .LVU36
	ldr	r3, [r7, #32]
.LVL8:
	.loc 1 35 9 is_stmt 1 view .LVU37
.LBB228:
	.loc 1 35 14 view .LVU38
	.loc 1 35 8 view .LVU39
.LBE228:
.LBE235:
.LBE242:
.LBE294:
.LBE188:
	.loc 1 35 9 view .LVU40
	.loc 1 35 18 view .LVU41
	.loc 1 35 113 view .LVU42
	.loc 1 35 9 view .LVU43
.LBB304:
.LBB295:
.LBB243:
.LBB236:
.LBB229:
	.loc 1 35 18 view .LVU44
	.loc 1 35 108 view .LVU45
	.loc 1 35 110 view .LVU46
.LBB221:
	.loc 1 35 115 view .LVU47
	.loc 1 35 126 view .LVU48
	.loc 1 35 215 view .LVU49
	.loc 1 35 32 view .LVU50
.LBE221:
.LBE229:
.LBE236:
.LBE243:
.LBE295:
.LBE304:
	.loc 1 35 9 view .LVU51
	.loc 1 35 374 view .LVU52
	.loc 1 35 81 view .LVU53
	.loc 1 35 8 view .LVU54
	.loc 1 35 8 view .LVU55
	.loc 1 35 8 view .LVU56
	.loc 1 35 44 view .LVU57
	.loc 1 35 10 view .LVU58
	.loc 1 35 36 view .LVU59
	.loc 1 35 62 view .LVU60
	.loc 1 35 1867 view .LVU61
	.loc 1 35 1929 view .LVU62
	.loc 1 35 3848 view .LVU63
	.loc 1 35 3913 view .LVU64
	.loc 1 35 3938 view .LVU65
	.loc 1 35 3939 view .LVU66
	.loc 1 35 3941 view .LVU67
	.loc 1 35 3971 view .LVU68
	.loc 1 35 4001 view .LVU69
	.loc 1 35 4033 view .LVU70
	.loc 1 35 4065 view .LVU71
	.loc 1 35 0 view .LVU72
	.loc 1 35 0 view .LVU73
	.loc 1 35 0 view .LVU74
	.loc 1 35 0 view .LVU75
	.loc 1 35 0 view .LVU76
	.loc 1 35 0 view .LVU77
	.loc 1 35 0 view .LVU78
	.loc 1 35 0 view .LVU79
	.loc 1 35 0 view .LVU80
	.loc 1 35 0 view .LVU81
	.loc 1 35 0 view .LVU82
	.loc 1 35 10 view .LVU83
	.loc 1 35 28 view .LVU84
	.loc 1 35 48 view .LVU85
	.loc 1 35 10 view .LVU86
	.loc 1 35 48 view .LVU87
	.loc 1 35 19 view .LVU88
	.loc 1 35 19 view .LVU89
	.loc 1 35 67 view .LVU90
	.loc 1 35 98 view .LVU91
	.loc 1 35 132 view .LVU92
	.loc 1 35 137 view .LVU93
	.loc 1 35 394 view .LVU94
	.loc 1 35 1475 view .LVU95
	.loc 1 35 1540 view .LVU96
	.loc 1 35 1564 view .LVU97
	.loc 1 35 1625 view .LVU98
	.loc 1 35 1636 view .LVU99
	.loc 1 35 1755 view .LVU100
	.loc 1 35 1771 view .LVU101
	.loc 1 35 1811 view .LVU102
	.loc 1 35 1836 view .LVU103
	.loc 1 35 3139 view .LVU104
	.loc 1 35 3180 view .LVU105
	.loc 1 35 13 view .LVU106
	.loc 1 35 36 view .LVU107
	.loc 1 35 135 view .LVU108
	.loc 1 35 12 view .LVU109
	.loc 1 35 17 view .LVU110
	.loc 1 35 242 view .LVU111
	.loc 1 35 1195 view .LVU112
	.loc 1 35 1260 view .LVU113
	.loc 1 35 1284 view .LVU114
	.loc 1 35 1313 view .LVU115
	.loc 1 35 1324 view .LVU116
	.loc 1 35 1411 view .LVU117
	.loc 1 35 1427 view .LVU118
	.loc 1 35 1467 view .LVU119
	.loc 1 35 1492 view .LVU120
	.loc 1 35 2731 view .LVU121
	.loc 1 35 2772 view .LVU122
	.loc 1 35 13 view .LVU123
	.loc 1 35 36 view .LVU124
	.loc 1 35 15 view .LVU125
	.loc 1 35 12 view .LVU126
	.loc 1 35 17 view .LVU127
	.loc 1 35 242 view .LVU128
	.loc 1 35 1195 view .LVU129
	.loc 1 35 1260 view .LVU130
	.loc 1 35 1284 view .LVU131
	.loc 1 35 1313 view .LVU132
	.loc 1 35 1324 view .LVU133
	.loc 1 35 1411 view .LVU134
	.loc 1 35 1427 view .LVU135
	.loc 1 35 1467 view .LVU136
	.loc 1 35 1557 view .LVU137
	.loc 1 35 1960 view .LVU138
	.loc 1 35 2617 view .LVU139
	.loc 1 35 2636 view .LVU140
	.loc 1 35 2673 view .LVU141
	.loc 1 35 2731 view .LVU142
	.loc 1 35 2772 view .LVU143
	.loc 1 35 13 view .LVU144
	.loc 1 35 36 view .LVU145
	.loc 1 35 15 view .LVU146
	.loc 1 35 12 view .LVU147
	.loc 1 35 17 view .LVU148
	.loc 1 35 242 view .LVU149
	.loc 1 35 1195 view .LVU150
	.loc 1 35 1260 view .LVU151
	.loc 1 35 1284 view .LVU152
	.loc 1 35 1313 view .LVU153
	.loc 1 35 1324 view .LVU154
	.loc 1 35 1411 view .LVU155
	.loc 1 35 1427 view .LVU156
	.loc 1 35 1467 view .LVU157
	.loc 1 35 2731 view .LVU158
	.loc 1 35 2772 view .LVU159
	.loc 1 35 13 view .LVU160
	.loc 1 35 36 view .LVU161
	.loc 1 35 15 view .LVU162
	.loc 1 35 12 view .LVU163
	.loc 1 35 17 view .LVU164
	.loc 1 35 242 view .LVU165
	.loc 1 35 1195 view .LVU166
	.loc 1 35 1260 view .LVU167
	.loc 1 35 1284 view .LVU168
	.loc 1 35 1313 view .LVU169
	.loc 1 35 1324 view .LVU170
	.loc 1 35 1411 view .LVU171
	.loc 1 35 1427 view .LVU172
	.loc 1 35 1467 view .LVU173
	.loc 1 35 2731 view .LVU174
	.loc 1 35 2772 view .LVU175
	.loc 1 35 13 view .LVU176
	.loc 1 35 36 view .LVU177
	.loc 1 35 15 view .LVU178
	.loc 1 35 11 view .LVU179
	.loc 1 35 34 view .LVU180
	.loc 1 35 58 view .LVU181
	.loc 1 35 86 view .LVU182
	.loc 1 35 262 view .LVU183
	.loc 1 35 22 view .LVU184
.LBB305:
.LBB296:
.LBB244:
.LBB237:
.LBB230:
.LBB222:
	.loc 1 35 35 view .LVU185
	.loc 1 35 9 view .LVU186
	.loc 1 35 9 view .LVU187
	.loc 1 35 76 view .LVU188
	.loc 1 35 88 is_stmt 0 view .LVU189
	add	r2, sp, #16
.LVL9:
	.loc 1 35 80 is_stmt 1 view .LVU190
	.loc 1 35 490 view .LVU191
	.loc 1 35 11 view .LVU192
	.loc 1 35 13 view .LVU193
	.loc 1 35 18 view .LVU194
	.loc 1 35 16 view .LVU195
	.loc 1 35 11 view .LVU196
	.loc 1 35 29 view .LVU197
.LBB214:
	.loc 1 35 9 view .LVU198
	.loc 1 35 374 view .LVU199
	.loc 1 35 81 view .LVU200
.LVL10:
	.loc 1 35 8 view .LVU201
	.loc 1 35 8 view .LVU202
	.loc 1 35 8 view .LVU203
	.loc 1 35 44 view .LVU204
	.loc 1 35 73 view .LVU205
	.loc 1 35 99 view .LVU206
	.loc 1 35 125 view .LVU207
	.loc 1 35 1930 view .LVU208
	.loc 1 35 1992 view .LVU209
	.loc 1 35 3911 view .LVU210
	.loc 1 35 3976 view .LVU211
	.loc 1 35 4001 view .LVU212
	.loc 1 35 4002 view .LVU213
	.loc 1 35 4004 view .LVU214
	.loc 1 35 4034 view .LVU215
	.loc 1 35 4064 view .LVU216
	.loc 1 35 0 view .LVU217
	.loc 1 35 0 view .LVU218
	.loc 1 35 0 view .LVU219
	.loc 1 35 0 view .LVU220
	.loc 1 35 0 view .LVU221
	.loc 1 35 0 view .LVU222
	.loc 1 35 0 view .LVU223
	.loc 1 35 0 view .LVU224
	.loc 1 35 0 view .LVU225
	.loc 1 35 0 view .LVU226
	.loc 1 35 0 view .LVU227
	.loc 1 35 0 view .LVU228
	.loc 1 35 0 view .LVU229
.LBB199:
	.loc 1 35 3177 view .LVU230
	.loc 1 35 3182 view .LVU231
	.loc 1 35 3818 view .LVU232
	.loc 1 35 0 is_stmt 0 view .LVU233
	ldr	ip, .L8+24
.LBE199:
.LBB200:
	.loc 1 35 3817 view .LVU234
	str	r3, [r2, #36]
.LBE200:
.LBB201:
.LBB202:
	.loc 1 35 233 view .LVU235
	movw	r3, #769
.LVL11:
	.loc 1 35 233 view .LVU236
	strh	r3, [r2, #40]	@ movhi
.LBE202:
.LBE201:
.LBB204:
	.loc 1 35 182 view .LVU237
	ldr	r3, .L8+8
.LBE204:
.LBB205:
	.loc 1 35 3817 view .LVU238
	strd	ip, r4, [r2, #20]
	.loc 1 35 2772 is_stmt 1 view .LVU239
	.loc 1 35 13 view .LVU240
.LVL12:
	.loc 1 35 36 view .LVU241
	.loc 1 35 36 is_stmt 0 view .LVU242
.LBE205:
	.loc 1 35 15 is_stmt 1 view .LVU243
	.loc 1 35 12 view .LVU244
.LBB206:
	.loc 1 35 17 view .LVU245
	.loc 1 35 242 view .LVU246
	.loc 1 35 1195 view .LVU247
	.loc 1 35 1260 view .LVU248
.LBE206:
.LBE214:
.LBE222:
.LBE230:
.LBE237:
.LBE244:
.LBE296:
.LBE305:
	.loc 1 35 1284 view .LVU249
	.loc 1 35 1313 view .LVU250
	.loc 1 35 1324 view .LVU251
	.loc 1 35 1411 view .LVU252
.LBB306:
.LBB297:
.LBB245:
.LBB238:
.LBB231:
.LBB223:
.LBB215:
.LBB207:
	.loc 1 35 1427 view .LVU253
	.loc 1 35 1467 view .LVU254
	.loc 1 35 1557 view .LVU255
	.loc 1 35 1960 view .LVU256
	.loc 1 35 2617 view .LVU257
	.loc 1 35 2636 view .LVU258
	.loc 1 35 2673 view .LVU259
	.loc 1 35 2731 view .LVU260
	.loc 1 35 2769 view .LVU261
	.loc 1 35 2774 view .LVU262
	.loc 1 35 3218 view .LVU263
.LBE207:
.LBB208:
	.loc 1 35 3817 is_stmt 0 view .LVU264
	strd	r0, r1, [r2, #28]
	.loc 1 35 2772 is_stmt 1 view .LVU265
	.loc 1 35 13 view .LVU266
.LVL13:
	.loc 1 35 36 view .LVU267
	.loc 1 35 36 is_stmt 0 view .LVU268
.LBE208:
	.loc 1 35 15 is_stmt 1 view .LVU269
	.loc 1 35 12 view .LVU270
.LBB209:
	.loc 1 35 17 view .LVU271
	.loc 1 35 242 view .LVU272
	.loc 1 35 1195 view .LVU273
	.loc 1 35 1260 view .LVU274
.LBE209:
.LBE215:
.LBE223:
.LBE231:
.LBE238:
.LBE245:
.LBE297:
.LBE306:
	.loc 1 35 1284 view .LVU275
	.loc 1 35 1313 view .LVU276
	.loc 1 35 1324 view .LVU277
	.loc 1 35 1411 view .LVU278
.LBB307:
.LBB298:
.LBB246:
.LBB239:
.LBB232:
.LBB224:
.LBB216:
.LBB210:
	.loc 1 35 1427 view .LVU279
	.loc 1 35 1467 view .LVU280
	.loc 1 35 2731 view .LVU281
	.loc 1 35 2769 view .LVU282
	.loc 1 35 2774 view .LVU283
	.loc 1 35 3218 view .LVU284
	.loc 1 35 2772 view .LVU285
	.loc 1 35 13 view .LVU286
	.loc 1 35 36 view .LVU287
	.loc 1 35 36 is_stmt 0 view .LVU288
.LBE210:
	.loc 1 35 15 is_stmt 1 view .LVU289
	.loc 1 35 11 view .LVU290
	.loc 1 35 34 view .LVU291
	.loc 1 35 58 view .LVU292
	.loc 1 35 86 view .LVU293
.LBB211:
	.loc 1 35 12 view .LVU294
	.loc 1 35 51 view .LVU295
.LBE211:
.LBE216:
.LBE224:
.LBE232:
.LBE239:
.LBE246:
.LBE298:
.LBE307:
	.loc 1 35 56 view .LVU296
	.loc 1 35 86 view .LVU297
.LBB308:
.LBB299:
.LBB247:
.LBB240:
.LBB233:
.LBB225:
.LBB217:
.LBB212:
.LBB203:
	.loc 1 35 188 view .LVU298
	.loc 1 35 220 view .LVU299
	.loc 1 35 214 view .LVU300
	.loc 1 35 188 view .LVU301
	.loc 1 35 220 view .LVU302
	.loc 1 35 214 view .LVU303
	.loc 1 35 188 view .LVU304
.LBE203:
.LBE212:
	.loc 1 35 262 view .LVU305
	.loc 1 35 22 view .LVU306
.LBB213:
	.loc 1 35 12 view .LVU307
	.loc 1 35 170 view .LVU308
	.loc 1 35 172 view .LVU309
	.loc 1 35 182 is_stmt 0 view .LVU310
	str	r3, [r2, #16]!
.LVL14:
	.loc 1 35 182 view .LVU311
.LBE213:
.LBE217:
	.loc 1 35 32 is_stmt 1 view .LVU312
	.loc 1 35 13 view .LVU313
	.loc 1 35 153 view .LVU314
	.loc 1 35 155 view .LVU315
.LBB218:
.LBI218:
	.file 3 "/home/g/mise-work/zmk-firmware/zmk/app/build/zephyr/include/generated/syscalls/log_msg.h"
	.loc 3 26 20 view .LVU316
.LBB219:
	.loc 3 38 2 view .LVU317
	.loc 3 38 7 view .LVU318
	.loc 3 38 5 view .LVU319
	.loc 3 39 2 view .LVU320
	ldr	r0, .L8+12
.LVL15:
	.loc 3 39 2 is_stmt 0 view .LVU321
	mov	r3, r6
	mov	r1, #13568
.LVL16:
	.loc 3 39 2 view .LVU322
	bl	z_impl_z_log_msg_static_create
.LVL17:
	.loc 3 39 2 view .LVU323
.LBE219:
.LBE218:
.LBE225:
.LBE233:
.LBE240:
.LBE247:
	.loc 1 38 43 view .LVU324
	ldr	r3, [r7, #20]
	str	r6, [r7]
.LBB248:
.LBB241:
.LBB234:
.LBB226:
	mov	sp, r8
.LBE226:
	.loc 1 35 113 is_stmt 1 view .LVU325
	.loc 1 35 11 view .LVU326
.LVL18:
	.loc 1 35 48 view .LVU327
.LBE234:
	.loc 1 35 12 view .LVU328
.LBE241:
	.loc 1 35 284 view .LVU329
	.loc 1 35 11 view .LVU330
	.loc 1 35 24 view .LVU331
.LBE248:
	.loc 1 35 12 view .LVU332
	.loc 1 38 9 view .LVU333
	.loc 1 38 43 is_stmt 0 view .LVU334
	str	r3, [r7, #4]
.LBB249:
.LBI249:
	.file 4 "/home/g/mise-work/zmk-firmware/zmk/zephyr/include/zephyr/kernel.h"
	.loc 4 1757 23 is_stmt 1 view .LVU335
.LBB250:
	.loc 4 1759 2 view .LVU336
.LBB251:
.LBI251:
	.loc 2 599 23 view .LVU337
.LBB252:
	.loc 2 608 2 view .LVU338
	.loc 2 608 7 view .LVU339
	.loc 2 608 5 view .LVU340
	.loc 2 609 2 view .LVU341
	.loc 2 609 9 is_stmt 0 view .LVU342
	bl	z_impl_k_uptime_ticks
.LVL19:
.LBE252:
.LBE251:
	.loc 4 1759 51 view .LVU343
	mov	r2, #1000
	umull	r0, r3, r0, r2
	mla	r1, r2, r1, r3
	.loc 4 1759 44 view .LVU344
	lsrs	r0, r0, #15
.LBE250:
.LBE249:
	.loc 1 45 13 view .LVU345
	ldrb	r3, [r7, #36]	@ zero_extendqisi2
.LBB254:
.LBB253:
	.loc 4 1759 44 view .LVU346
	orr	r0, r0, r1, lsl #17
	lsrs	r1, r1, #15
.LBE253:
.LBE254:
	.loc 1 38 43 view .LVU347
	strd	r0, r1, [r7, #8]
	.loc 1 45 9 is_stmt 1 view .LVU348
	.loc 1 45 12 is_stmt 0 view .LVU349
	ands	r1, r3, #1
	.loc 1 46 13 view .LVU350
	it	ne
	movne	r1, #1
	.loc 1 48 13 view .LVU351
	str	r1, [sp, #8]
	add	r2, r7, #8
	.loc 1 46 13 is_stmt 1 view .LVU352
	.loc 1 48 13 view .LVU353
	ldm	r2, {r0, r1}
	stm	sp, {r0, r1}
	add	r0, r7, #24
	ldrd	r2, r3, [r7]
	bl	zmk_behavior_invoke_binding
.LVL20:
	.loc 1 51 9 view .LVU354
.LBB255:
	.loc 1 51 14 view .LVU355
	.loc 1 51 63 view .LVU356
	.loc 1 51 20 view .LVU357
	.loc 1 51 8 view .LVU358
	.loc 1 51 47 view .LVU359
	.loc 1 51 182 view .LVU360
	.loc 1 51 193 view .LVU361
	.loc 1 51 281 view .LVU362
.LBB256:
	.loc 1 51 9 view .LVU363
	.loc 1 51 11 view .LVU364
	.loc 1 51 60 view .LVU365
	.loc 1 51 83 is_stmt 0 view .LVU366
	ldr	r3, [r7, #36]
.LBB257:
.LBB258:
	.loc 1 51 113 view .LVU367
	mov	r6, sp
	.loc 1 51 88 view .LVU368
	sub	sp, sp, #32
.LVL21:
	.loc 1 51 88 view .LVU369
.LBE258:
.LBE257:
	.loc 1 51 83 view .LVU370
	ubfx	r3, r3, #1, #31
.LVL22:
	.loc 1 51 9 is_stmt 1 view .LVU371
.LBB276:
	.loc 1 51 14 view .LVU372
	.loc 1 51 8 view .LVU373
.LBE276:
.LBE256:
.LBE255:
.LBE299:
.LBE308:
	.loc 1 51 9 view .LVU374
	.loc 1 51 18 view .LVU375
	.loc 1 51 113 view .LVU376
	.loc 1 51 9 view .LVU377
.LBB309:
.LBB300:
.LBB287:
.LBB282:
.LBB277:
	.loc 1 51 18 view .LVU378
	.loc 1 51 108 view .LVU379
	.loc 1 51 110 view .LVU380
.LBB271:
	.loc 1 51 115 view .LVU381
	.loc 1 51 126 view .LVU382
	.loc 1 51 215 view .LVU383
	.loc 1 51 32 view .LVU384
.LBE271:
.LBE277:
.LBE282:
.LBE287:
.LBE300:
.LBE309:
	.loc 1 51 9 view .LVU385
	.loc 1 51 374 view .LVU386
	.loc 1 51 81 view .LVU387
	.loc 1 51 8 view .LVU388
	.loc 1 51 8 view .LVU389
	.loc 1 51 8 view .LVU390
	.loc 1 51 44 view .LVU391
	.loc 1 51 10 view .LVU392
	.loc 1 51 36 view .LVU393
	.loc 1 51 62 view .LVU394
	.loc 1 51 975 view .LVU395
	.loc 1 51 1037 view .LVU396
	.loc 1 51 2024 view .LVU397
	.loc 1 51 2089 view .LVU398
	.loc 1 51 2114 view .LVU399
	.loc 1 51 2115 view .LVU400
	.loc 1 51 2117 view .LVU401
	.loc 1 51 2147 view .LVU402
	.loc 1 51 2177 view .LVU403
	.loc 1 51 2209 view .LVU404
	.loc 1 51 2241 view .LVU405
	.loc 1 51 2273 view .LVU406
	.loc 1 51 2470 view .LVU407
	.loc 1 51 2494 view .LVU408
	.loc 1 51 2495 view .LVU409
	.loc 1 51 2497 view .LVU410
	.loc 1 51 2526 view .LVU411
	.loc 1 51 2555 view .LVU412
	.loc 1 51 2586 view .LVU413
	.loc 1 51 2617 view .LVU414
	.loc 1 51 2648 view .LVU415
	.loc 1 51 2855 view .LVU416
	.loc 1 51 10 view .LVU417
	.loc 1 51 28 view .LVU418
	.loc 1 51 48 view .LVU419
	.loc 1 51 10 view .LVU420
	.loc 1 51 48 view .LVU421
	.loc 1 51 19 view .LVU422
	.loc 1 51 19 view .LVU423
	.loc 1 51 67 view .LVU424
	.loc 1 51 98 view .LVU425
	.loc 1 51 132 view .LVU426
	.loc 1 51 137 view .LVU427
	.loc 1 51 407 view .LVU428
	.loc 1 51 1540 view .LVU429
	.loc 1 51 1605 view .LVU430
	.loc 1 51 1629 view .LVU431
	.loc 1 51 1703 view .LVU432
	.loc 1 51 1714 view .LVU433
	.loc 1 51 1846 view .LVU434
	.loc 1 51 1862 view .LVU435
	.loc 1 51 1902 view .LVU436
	.loc 1 51 1927 view .LVU437
	.loc 1 51 3256 view .LVU438
	.loc 1 51 3297 view .LVU439
	.loc 1 51 13 view .LVU440
	.loc 1 51 36 view .LVU441
	.loc 1 51 135 view .LVU442
	.loc 1 51 12 view .LVU443
	.loc 1 51 17 view .LVU444
	.loc 1 51 242 view .LVU445
	.loc 1 51 1195 view .LVU446
	.loc 1 51 1260 view .LVU447
	.loc 1 51 1284 view .LVU448
	.loc 1 51 1313 view .LVU449
	.loc 1 51 1324 view .LVU450
	.loc 1 51 1411 view .LVU451
	.loc 1 51 1427 view .LVU452
	.loc 1 51 1467 view .LVU453
	.loc 1 51 1492 view .LVU454
	.loc 1 51 2731 view .LVU455
	.loc 1 51 2772 view .LVU456
	.loc 1 51 13 view .LVU457
	.loc 1 51 36 view .LVU458
	.loc 1 51 15 view .LVU459
	.loc 1 51 12 view .LVU460
	.loc 1 51 17 view .LVU461
	.loc 1 51 242 view .LVU462
	.loc 1 51 1195 view .LVU463
	.loc 1 51 1260 view .LVU464
	.loc 1 51 1284 view .LVU465
	.loc 1 51 1313 view .LVU466
	.loc 1 51 1324 view .LVU467
	.loc 1 51 1411 view .LVU468
	.loc 1 51 1427 view .LVU469
	.loc 1 51 1467 view .LVU470
	.loc 1 51 2731 view .LVU471
	.loc 1 51 2772 view .LVU472
	.loc 1 51 13 view .LVU473
	.loc 1 51 36 view .LVU474
	.loc 1 51 15 view .LVU475
	.loc 1 51 11 view .LVU476
	.loc 1 51 34 view .LVU477
	.loc 1 51 58 view .LVU478
	.loc 1 51 86 view .LVU479
	.loc 1 51 262 view .LVU480
	.loc 1 51 22 view .LVU481
.LBB310:
.LBB301:
.LBB288:
.LBB283:
.LBB278:
.LBB272:
	.loc 1 51 35 view .LVU482
	.loc 1 51 9 view .LVU483
	.loc 1 51 9 view .LVU484
	.loc 1 51 76 view .LVU485
	.loc 1 51 88 is_stmt 0 view .LVU486
	add	r2, sp, #16
.LVL23:
	.loc 1 51 80 is_stmt 1 view .LVU487
	.loc 1 51 490 view .LVU488
	.loc 1 51 11 view .LVU489
	.loc 1 51 13 view .LVU490
	.loc 1 51 18 view .LVU491
	.loc 1 51 16 view .LVU492
	.loc 1 51 11 view .LVU493
	.loc 1 51 29 view .LVU494
.LBB259:
	.loc 1 51 9 view .LVU495
	.loc 1 51 374 view .LVU496
	.loc 1 51 81 view .LVU497
.LVL24:
	.loc 1 51 8 view .LVU498
	.loc 1 51 8 view .LVU499
	.loc 1 51 8 view .LVU500
	.loc 1 51 44 view .LVU501
	.loc 1 51 73 view .LVU502
	.loc 1 51 99 view .LVU503
	.loc 1 51 125 view .LVU504
	.loc 1 51 1038 view .LVU505
	.loc 1 51 1100 view .LVU506
	.loc 1 51 2087 view .LVU507
	.loc 1 51 2152 view .LVU508
	.loc 1 51 2177 view .LVU509
	.loc 1 51 2178 view .LVU510
	.loc 1 51 2180 view .LVU511
	.loc 1 51 2210 view .LVU512
	.loc 1 51 2240 view .LVU513
	.loc 1 51 2272 view .LVU514
	.loc 1 51 2304 view .LVU515
	.loc 1 51 2336 view .LVU516
	.loc 1 51 2533 view .LVU517
	.loc 1 51 2557 view .LVU518
	.loc 1 51 2558 view .LVU519
	.loc 1 51 2560 view .LVU520
	.loc 1 51 2589 view .LVU521
	.loc 1 51 2618 view .LVU522
	.loc 1 51 2649 view .LVU523
	.loc 1 51 2680 view .LVU524
	.loc 1 51 2711 view .LVU525
	.loc 1 51 2918 view .LVU526
.LBB260:
	.loc 1 51 3294 view .LVU527
	.loc 1 51 3299 view .LVU528
	.loc 1 51 4013 view .LVU529
	.loc 1 51 0 is_stmt 0 view .LVU530
	ldr	r1, .L8+16
.LBE260:
.LBB261:
	.loc 1 51 3817 view .LVU531
	str	r3, [r2, #28]
.LBE261:
.LBB262:
	.loc 1 51 182 view .LVU532
	movs	r3, #4
.LVL25:
	.loc 1 51 182 view .LVU533
.LBE262:
.LBB263:
	.loc 1 51 3817 view .LVU534
	strd	r1, r4, [r2, #20]
	.loc 1 51 2772 is_stmt 1 view .LVU535
	.loc 1 51 13 view .LVU536
.LVL26:
	.loc 1 51 36 view .LVU537
	.loc 1 51 36 is_stmt 0 view .LVU538
.LBE263:
	.loc 1 51 15 is_stmt 1 view .LVU539
	.loc 1 51 12 view .LVU540
.LBB264:
	.loc 1 51 17 view .LVU541
	.loc 1 51 242 view .LVU542
	.loc 1 51 1195 view .LVU543
	.loc 1 51 1260 view .LVU544
.LBE264:
.LBE259:
.LBE272:
.LBE278:
.LBE283:
.LBE288:
.LBE301:
.LBE310:
	.loc 1 51 1284 view .LVU545
	.loc 1 51 1313 view .LVU546
	.loc 1 51 1324 view .LVU547
	.loc 1 51 1411 view .LVU548
.LBB311:
.LBB302:
.LBB289:
.LBB284:
.LBB279:
.LBB273:
.LBB267:
.LBB265:
	.loc 1 51 1427 view .LVU549
	.loc 1 51 1467 view .LVU550
	.loc 1 51 2731 view .LVU551
	.loc 1 51 2769 view .LVU552
	.loc 1 51 2774 view .LVU553
	.loc 1 51 3218 view .LVU554
	.loc 1 51 2772 view .LVU555
	.loc 1 51 13 view .LVU556
	.loc 1 51 36 view .LVU557
	.loc 1 51 36 is_stmt 0 view .LVU558
.LBE265:
	.loc 1 51 15 is_stmt 1 view .LVU559
	.loc 1 51 11 view .LVU560
	.loc 1 51 34 view .LVU561
	.loc 1 51 58 view .LVU562
	.loc 1 51 86 view .LVU563
.LBE267:
.LBE273:
.LBE279:
.LBE284:
.LBE289:
.LBE302:
.LBE311:
	.loc 1 51 12 view .LVU564
	.loc 1 51 51 view .LVU565
	.loc 1 51 56 view .LVU566
	.loc 1 51 86 view .LVU567
	.loc 1 51 153 view .LVU568
	.loc 1 51 158 view .LVU569
	.loc 1 51 188 view .LVU570
.LBB312:
.LBB303:
.LBB290:
.LBB285:
.LBB280:
.LBB274:
.LBB268:
	.loc 1 51 262 view .LVU571
	.loc 1 51 22 view .LVU572
.LBB266:
	.loc 1 51 12 view .LVU573
	.loc 1 51 170 view .LVU574
	.loc 1 51 172 view .LVU575
	.loc 1 51 182 is_stmt 0 view .LVU576
	str	r3, [r2, #16]!
.LVL27:
	.loc 1 51 182 view .LVU577
.LBE266:
.LBE268:
	.loc 1 51 32 is_stmt 1 view .LVU578
	.loc 1 51 13 view .LVU579
	.loc 1 51 153 view .LVU580
	.loc 1 51 155 view .LVU581
.LBB269:
.LBI269:
	.loc 3 26 20 view .LVU582
.LBB270:
	.loc 3 38 2 view .LVU583
	.loc 3 38 7 view .LVU584
	.loc 3 38 5 view .LVU585
	.loc 3 39 2 view .LVU586
	movs	r3, #0
	ldr	r0, .L8+12
	mov	r1, #8448
	bl	z_impl_z_log_msg_static_create
.LVL28:
	.loc 3 39 2 is_stmt 0 view .LVU587
.LBE270:
.LBE269:
.LBE274:
.LBE280:
.LBE285:
.LBE290:
	.loc 1 53 12 view .LVU588
	ldr	r3, [r7, #36]
	cmp	r3, #1
.LBB291:
.LBB286:
.LBB281:
.LBB275:
	mov	sp, r6
.LVL29:
	.loc 1 53 12 view .LVU589
.LBE275:
	.loc 1 51 113 is_stmt 1 view .LVU590
	.loc 1 51 11 view .LVU591
	.loc 1 51 48 view .LVU592
.LBE281:
	.loc 1 51 12 view .LVU593
.LBE286:
	.loc 1 51 284 view .LVU594
	.loc 1 51 11 view .LVU595
	.loc 1 51 24 view .LVU596
.LBE291:
	.loc 1 51 12 view .LVU597
	.loc 1 53 9 view .LVU598
	.loc 1 53 12 is_stmt 0 view .LVU599
	bls	.L2
.LVL30:
.LBB292:
	.loc 1 54 13 is_stmt 1 discriminator 1 view .LVU600
	.loc 1 54 87 is_stmt 0 discriminator 1 view .LVU601
	ubfx	r4, r3, #1, #31
	.loc 1 54 110 discriminator 1 view .LVU602
	mov	r5, #32768
	movw	r0, #999
	.loc 1 54 62 discriminator 1 view .LVU603
	movs	r1, #0
	mov	r2, #1000
	movs	r3, #0
	umlal	r0, r1, r5, r4
	bl	__aeabi_uldivmod
.LVL31:
	mov	r2, r0
	mov	r3, r1
	.loc 1 54 13 discriminator 1 view .LVU604
	ldr	r0, .L8+20
	bl	k_work_schedule
.LVL32:
	.loc 1 55 13 is_stmt 1 discriminator 1 view .LVU605
.L1:
	.loc 1 55 13 is_stmt 0 discriminator 1 view .LVU606
.LBE292:
.LBE303:
.LBE312:
	.loc 1 58 1 view .LVU607
	adds	r7, r7, #40
	.cfi_def_cfa_offset 24
	mov	sp, r7
	.cfi_def_cfa_register 13
	@ sp needed
	pop	{r4, r5, r6, r7, r8, pc}
.L9:
	.align	2
.L8:
	.word	zmk_behavior_queue_msgq
	.word	__func__.0
	.word	16777222
	.word	log_const_zmk
	.word	.LC1
	.word	queue_work
	.word	.LC0
	.cfi_endproc
.LFE577:
	.size	behavior_queue_process_next, .-behavior_queue_process_next
	.section	.text.zmk_behavior_queue_add,"ax",%progbits
	.align	1
	.global	zmk_behavior_queue_add
	.syntax unified
	.thumb
	.thumb_func
	.type	zmk_behavior_queue_add, %function
zmk_behavior_queue_add:
.LVL33:
.LFB578:
	.loc 1 61 97 is_stmt 1 view -0
	.cfi_startproc
	@ args = 8, pretend = 0, frame = 40
	@ frame_needed = 0, uses_anonymous_args = 0
	.loc 1 62 5 view .LVU609
	.loc 1 61 97 is_stmt 0 view .LVU610
	push	{r4, r5, lr}
	.cfi_def_cfa_offset 12
	.cfi_offset 4, -12
	.cfi_offset 5, -8
	.cfi_offset 14, -4
	sub	sp, sp, #44
	.cfi_def_cfa_offset 56
	.loc 1 61 97 view .LVU611
	add	r4, sp, #4
	stm	r4, {r1, r2, r3}
	.loc 1 62 19 view .LVU612
	ldr	r2, [r0, #4]
	str	r2, [sp, #20]
	ldm	r4, {r0, r1, r2}
.LVL34:
	.loc 1 62 19 view .LVU613
	add	r5, sp, #24
	stm	r5, {r0, r1, r3}
	ldr	r2, [sp, #60]
	ldrb	r3, [sp, #56]	@ zero_extendqisi2
	orr	r3, r3, r2, lsl #1
	str	r3, [sp, #36]
	.loc 1 72 5 is_stmt 1 view .LVU614
.LVL35:
.LBB317:
.LBI317:
	.loc 2 1178 19 view .LVU615
.LBB318:
	.loc 2 1188 2 view .LVU616
	.loc 2 1188 7 view .LVU617
	.loc 2 1188 5 view .LVU618
	.loc 2 1189 2 view .LVU619
	.loc 2 1189 9 is_stmt 0 view .LVU620
	ldr	r0, .L14
	movs	r2, #0
	movs	r3, #0
	add	r1, sp, #20
.LVL36:
	.loc 2 1189 9 view .LVU621
	bl	z_impl_k_msgq_put
.LVL37:
	.loc 2 1189 9 view .LVU622
.LBE318:
.LBE317:
	.loc 1 73 5 is_stmt 1 view .LVU623
	.loc 1 73 8 is_stmt 0 view .LVU624
	cmp	r0, #0
	.loc 1 73 8 view .LVU625
	blt	.L10
	.loc 1 77 5 is_stmt 1 view .LVU626
.LBB319:
.LBI319:
	.loc 4 4046 19 view .LVU627
.LVL38:
.LBB320:
	.loc 4 4049 2 view .LVU628
	.loc 4 4049 9 is_stmt 0 view .LVU629
	ldr	r0, .L14+4
.LVL39:
	.loc 4 4049 9 view .LVU630
	bl	k_work_delayable_busy_get
.LVL40:
	.loc 4 4049 9 view .LVU631
.LBE320:
.LBE319:
	.loc 1 77 8 view .LVU632
	cbz	r0, .L12
.L13:
	.loc 1 81 12 view .LVU633
	movs	r0, #0
.L10:
	.loc 1 82 1 view .LVU634
	add	sp, sp, #44
	.cfi_remember_state
	.cfi_def_cfa_offset 12
	@ sp needed
	pop	{r4, r5, pc}
.LVL41:
.L12:
	.cfi_restore_state
	.loc 1 78 9 is_stmt 1 view .LVU635
	ldr	r0, .L14+4
	bl	behavior_queue_process_next
.LVL42:
	b	.L13
.L15:
	.align	2
.L14:
	.word	zmk_behavior_queue_msgq
	.word	queue_work
	.cfi_endproc
.LFE578:
	.size	zmk_behavior_queue_add, .-zmk_behavior_queue_add
	.section	.rodata.__func__.0,"a"
	.type	__func__.0, %object
	.size	__func__.0, 28
__func__.0:
	.ascii	"behavior_queue_process_next\000"
	.section	.data.queue_work,"aw"
	.align	3
	.type	queue_work, %object
	.size	queue_work, 48
queue_work:
	.space	4
	.word	behavior_queue_process_next
	.space	4
	.word	256
	.space	32
	.global	zmk_behavior_queue_msgq
	.section	._k_msgq.static.zmk_behavior_queue_msgq_,"aw"
	.align	2
	.type	zmk_behavior_queue_msgq, %object
	.size	zmk_behavior_queue_msgq, 48
zmk_behavior_queue_msgq:
	.word	zmk_behavior_queue_msgq
	.word	zmk_behavior_queue_msgq
	.word	20
	.word	64
	.word	_k_fifo_buf_zmk_behavior_queue_msgq
	.word	_k_fifo_buf_zmk_behavior_queue_msgq+1280
	.word	_k_fifo_buf_zmk_behavior_queue_msgq
	.word	_k_fifo_buf_zmk_behavior_queue_msgq
	.word	0
	.word	zmk_behavior_queue_msgq+36
	.word	zmk_behavior_queue_msgq+36
	.space	4
	.section	.noinit."WEST_TOPDIR/app/src/behavior_queue.c".0,"aw"
	.align	2
	.type	_k_fifo_buf_zmk_behavior_queue_msgq, %object
	.size	_k_fifo_buf_zmk_behavior_queue_msgq, 1280
_k_fifo_buf_zmk_behavior_queue_msgq:
	.space	1280
	.text
.Letext0:
	.file 5 "/home/g/zephyr-sdk-0.16.3/arm-zephyr-eabi/lib/gcc/arm-zephyr-eabi/12.2.0/include/stddef.h"
	.file 6 "/home/g/zephyr-sdk-0.16.3/arm-zephyr-eabi/picolibc/include/machine/_default_types.h"
	.file 7 "/home/g/zephyr-sdk-0.16.3/arm-zephyr-eabi/picolibc/include/sys/_stdint.h"
	.file 8 "/home/g/mise-work/zmk-firmware/zmk/zephyr/include/zephyr/sys/dlist.h"
	.file 9 "/home/g/mise-work/zmk-firmware/zmk/zephyr/include/zephyr/sys/rb.h"
	.file 10 "/home/g/mise-work/zmk-firmware/zmk/zephyr/include/zephyr/sys/slist.h"
	.file 11 "/home/g/mise-work/zmk-firmware/zmk/zephyr/include/zephyr/sys/sys_heap.h"
	.file 12 "/home/g/mise-work/zmk-firmware/zmk/zephyr/include/zephyr/kernel/thread.h"
	.file 13 "/home/g/mise-work/zmk-firmware/zmk/zephyr/include/zephyr/kernel_structs.h"
	.file 14 "/home/g/mise-work/zmk-firmware/zmk/zephyr/include/zephyr/arch/arm/thread.h"
	.file 15 "/home/g/mise-work/zmk-firmware/zmk/zephyr/include/zephyr/sys_clock.h"
	.file 16 "/home/g/mise-work/zmk-firmware/zmk/zephyr/include/zephyr/fatal_types.h"
	.file 17 "/home/g/mise-work/zmk-firmware/zmk/app/include/zmk/behavior.h"
	.file 18 "/home/g/mise-work/zmk-firmware/zmk/zephyr/include/zephyr/logging/log_instance.h"
	.file 19 "/home/g/mise-work/zmk-firmware/zmk/zephyr/include/zephyr/sys/cbprintf.h"
	.file 20 "/home/g/mise-work/zmk-firmware/zmk/zephyr/include/zephyr/logging/log_msg.h"
	.file 21 "/home/g/mise-work/zmk-firmware/zmk/zephyr/include/zephyr/sys/cbprintf_internal.h"
	.file 22 "/home/g/mise-work/zmk-firmware/zmk/zephyr/include/zephyr/syscall.h"
	.file 23 "/home/g/mise-work/zmk-firmware/zmk/zephyr/include/zephyr/spinlock.h"
	.file 24 "<built-in>"