	.cpu cortex-m4
	.arch armv7e-m
	.fpu fpv4-sp-d16
	.eabi_attribute 27, 1
	.eabi_attribute 28, 1
	.eabi_attribute 20, 1
	.eabi_attribute 21, 1
	.eabi_attribute 23, 3
	.eabi_attribute 24, 1
	.eabi_attribute 25, 1
	.eabi_attribute 26, 1
	.eabi_attribute 30, 4
	.eabi_attribute 34, 1
	.eabi_attribute 38, 1
	.eabi_attribute 18, 4
	.file	"endpoints.c"
	.text
.Ltext0:
	.cfi_sections	.debug_frame
	.file 1 "/home/g/mise-work/zmk-firmware/zmk/app/src/endpoints.c"
	.section	.rodata.endpoints_save_preferred_work.str1.1,"aMS",%progbits,1
.LC0:
	.ascii	"endpoints/preferred\000"
	.section	.text.endpoints_save_preferred_work,"ax",%progbits
	.align	1
	.syntax unified
	.thumb
	.thumb_func
	.type	endpoints_save_preferred_work, %function
endpoints_save_preferred_work:
.LVL0:
.LFB495:
	.loc 1 36 64 view -0
	.cfi_startproc
	@ args = 0, pretend = 0, frame = 0
	@ frame_needed = 0, uses_anonymous_args = 0
	@ link register save eliminated.
	.loc 1 37 5 view .LVU1
	ldr	r1, .L2
	ldr	r0, .L2+4
.LVL1:
	.loc 1 37 5 is_stmt 0 view .LVU2
	movs	r2, #1
	b	settings_save_one
.LVL2:
.L3:
	.align	2
.L2:
	.word	preferred_transport
	.word	.LC0
	.cfi_endproc
.LFE495:
	.size	endpoints_save_preferred_work, .-endpoints_save_preferred_work
	.section	.text.z_log_msg_static_create.constprop.0,"ax",%progbits
	.align	1
	.syntax unified
	.thumb
	.thumb_func
	.type	z_log_msg_static_create.constprop.0, %function
z_log_msg_static_create.constprop.0:
.LVL3:
.LFB517:
	.file 2 "/home/g/mise-work/zmk-firmware/zmk/app/build/zephyr/include/generated/syscalls/log_msg.h"
	.loc 2 26 20 is_stmt 1 view -0
	.cfi_startproc
	@ args = 0, pretend = 0, frame = 0
	@ frame_needed = 0, uses_anonymous_args = 0
	@ link register save eliminated.
	.loc 2 38 2 view .LVU4
	.loc 2 38 7 view .LVU5
	.loc 2 38 5 view .LVU6
	.loc 2 39 2 view .LVU7
	movs	r3, #0
	b	z_impl_z_log_msg_static_create
.LVL4:
	.loc 2 39 2 is_stmt 0 view .LVU8
	.cfi_endproc
.LFE517:
	.size	z_log_msg_static_create.constprop.0, .-z_log_msg_static_create.constprop.0
	.section	.rodata.get_selected_instance.str1.1,"aMS",%progbits,1
.LC1:
	.ascii	"%s: Both endpoint transports are ready. Using %d\000"
.LC2:
	.ascii	"%s: Only BLE is ready.\000"
.LC3:
	.ascii	"%s: Only USB is ready.\000"
.LC4:
	.ascii	"%s: No endpoint transports are ready.\000"
	.section	.text.get_selected_instance,"ax",%progbits
	.align	1
	.syntax unified
	.thumb
	.thumb_func
	.type	get_selected_instance, %function
get_selected_instance:
.LVL5:
.LFB511:
	.loc 1 304 65 is_stmt 1 view -0
	.cfi_startproc
	@ args = 0, pretend = 0, frame = 0
	@ frame_needed = 1, uses_anonymous_args = 0
	.loc 1 305 5 view .LVU10
	.loc 1 304 65 is_stmt 0 view .LVU11
	push	{r3, r4, r5, r6, r7, r8, r9, lr}
	.cfi_def_cfa_offset 32
	.cfi_offset 3, -32
	.cfi_offset 4, -28
	.cfi_offset 5, -24
	.cfi_offset 6, -20
	.cfi_offset 7, -16
	.cfi_offset 8, -12
	.cfi_offset 9, -8
	.cfi_offset 14, -4
	.loc 1 305 34 view .LVU12
	movs	r5, #0
	.loc 1 304 65 view .LVU13
	add	r7, sp, #0
	.cfi_def_cfa_register 7
	.loc 1 304 65 view .LVU14
	mov	r6, r0
	.loc 1 305 34 view .LVU15
	str	r5, [r0]
.LVL6:
.LBB1337:
.LBI1337:
	.loc 1 284 27 is_stmt 1 view .LVU16
.LBB1338:
	.loc 1 285 5 view .LVU17
.LBB1339:
.LBI1339:
	.loc 1 276 12 view .LVU18
.LBB1340:
	.loc 1 278 5 view .LVU19
	.loc 1 278 12 is_stmt 0 view .LVU20
	bl	zmk_ble_active_profile_is_connected
.LVL7:
	.loc 1 278 12 view .LVU21
	ldr	r8, .L15+24
.LBE1340:
.LBE1339:
	.loc 1 285 8 view .LVU22
	mov	r4, r0
	cbz	r0, .L6
	.loc 1 286 9 is_stmt 1 view .LVU23
.LBB1341:
.LBI1341:
	.loc 1 268 12 view .LVU24
.LBB1342:
	.loc 1 270 5 view .LVU25
	.loc 1 270 12 is_stmt 0 view .LVU26
	bl	zmk_usb_is_hid_ready
.LVL8:
.LBE1342:
.LBE1341:
	.loc 1 286 12 view .LVU27
	cbz	r0, .L7
	.loc 1 287 13 is_stmt 1 view .LVU28
.LBB1343:
	.loc 1 287 18 view .LVU29
	.loc 1 287 67 view .LVU30
	.loc 1 287 24 view .LVU31
	.loc 1 287 12 view .LVU32
.LVL9:
	.loc 1 287 51 view .LVU33
	.loc 1 287 186 view .LVU34
	.loc 1 287 197 view .LVU35
	.loc 1 287 285 view .LVU36
.LBB1344:
	.loc 1 287 13 view .LVU37
	.loc 1 287 15 view .LVU38
	.loc 1 287 64 view .LVU39
	.loc 1 287 104 is_stmt 0 view .LVU40
	ldr	r4, .L15
.LBB1345:
.LBB1346:
	.loc 1 287 117 view .LVU41
	mov	r9, sp
	.loc 1 287 92 view .LVU42
	sub	sp, sp, #32
.LBE1346:
.LBE1345:
	.loc 1 287 76 view .LVU43
	ldrb	r3, [r4]	@ zero_extendqisi2
.LVL10:
	.loc 1 287 13 is_stmt 1 view .LVU44
.LBB1358:
	.loc 1 287 18 view .LVU45
	.loc 1 287 12 view .LVU46
	.loc 1 287 22 view .LVU47
	.loc 1 287 112 view .LVU48
	.loc 1 287 114 view .LVU49
.LBB1356:
	.loc 1 287 119 view .LVU50
	.loc 1 287 130 view .LVU51
	.loc 1 287 219 view .LVU52
	.loc 1 287 36 view .LVU53
	.loc 1 287 39 view .LVU54
	.loc 1 287 13 view .LVU55
	.loc 1 287 13 view .LVU56
	.loc 1 287 80 view .LVU57
	.loc 1 287 92 is_stmt 0 view .LVU58
	mov	r2, sp
.LVL11:
	.loc 1 287 84 is_stmt 1 view .LVU59
	.loc 1 287 494 view .LVU60
	.loc 1 287 15 view .LVU61
	.loc 1 287 17 view .LVU62
	.loc 1 287 22 view .LVU63
	.loc 1 287 20 view .LVU64
	.loc 1 287 15 view .LVU65
	.loc 1 287 33 view .LVU66
.LBB1347:
	.loc 1 287 13 view .LVU67
	.loc 1 287 378 view .LVU68
	.loc 1 287 85 view .LVU69
.LVL12:
	.loc 1 287 12 view .LVU70
	.loc 1 287 12 view .LVU71
	.loc 1 287 12 view .LVU72
	.loc 1 287 48 view .LVU73
	.loc 1 287 77 view .LVU74
	.loc 1 287 103 view .LVU75
	.loc 1 287 129 view .LVU76
	.loc 1 287 1042 view .LVU77
	.loc 1 287 1104 view .LVU78
	.loc 1 287 2091 view .LVU79
	.loc 1 287 2156 view .LVU80
	.loc 1 287 2181 view .LVU81
	.loc 1 287 2182 view .LVU82
	.loc 1 287 2184 view .LVU83
	.loc 1 287 2214 view .LVU84
	.loc 1 287 2244 view .LVU85
	.loc 1 287 2276 view .LVU86
	.loc 1 287 2308 view .LVU87
	.loc 1 287 2340 view .LVU88
	.loc 1 287 2537 view .LVU89
	.loc 1 287 2561 view .LVU90
	.loc 1 287 2562 view .LVU91
	.loc 1 287 2564 view .LVU92
	.loc 1 287 2593 view .LVU93
	.loc 1 287 2622 view .LVU94
	.loc 1 287 2653 view .LVU95
	.loc 1 287 2684 view .LVU96
	.loc 1 287 2715 view .LVU97
	.loc 1 287 2922 view .LVU98
.LBB1348:
	.loc 1 287 3343 view .LVU99
	.loc 1 287 3348 view .LVU100
	.loc 1 287 4092 view .LVU101
	.loc 1 287 0 is_stmt 0 view .LVU102
	ldr	r1, .L15+4
.LBE1348:
.LBB1349:
	.loc 1 287 3821 view .LVU103
	str	r3, [r2, #28]
.LBE1349:
.LBB1350:
	.loc 1 287 186 view .LVU104
	movs	r3, #4
.LVL13:
	.loc 1 287 186 view .LVU105
.LBE1350:
.LBB1351:
	.loc 1 287 3821 view .LVU106
	strd	r1, r8, [r2, #20]
	.loc 1 287 2776 is_stmt 1 view .LVU107
	.loc 1 287 17 view .LVU108
.LVL14:
	.loc 1 287 40 view .LVU109
	.loc 1 287 40 is_stmt 0 view .LVU110
.LBE1351:
	.loc 1 287 19 is_stmt 1 view .LVU111
	.loc 1 287 16 view .LVU112
.LBB1352:
	.loc 1 287 21 view .LVU113
	.loc 1 287 246 view .LVU114
	.loc 1 287 1199 view .LVU115
	.loc 1 287 1264 view .LVU116
	.loc 1 287 1431 view .LVU117
	.loc 1 287 1471 view .LVU118
	.loc 1 287 2735 view .LVU119
	.loc 1 287 2773 view .LVU120
	.loc 1 287 2778 view .LVU121
	.loc 1 287 3222 view .LVU122
	.loc 1 287 2776 view .LVU123
	.loc 1 287 17 view .LVU124
	.loc 1 287 40 view .LVU125
	.loc 1 287 40 is_stmt 0 view .LVU126
.LBE1352:
	.loc 1 287 19 is_stmt 1 view .LVU127
	.loc 1 287 15 view .LVU128
	.loc 1 287 38 view .LVU129
	.loc 1 287 62 view .LVU130
	.loc 1 287 90 view .LVU131
	.loc 1 287 266 view .LVU132
	.loc 1 287 26 view .LVU133
.LBB1353:
	.loc 1 287 16 view .LVU134
	.loc 1 287 174 view .LVU135
	.loc 1 287 176 view .LVU136
.LBE1353:
.LBE1347:
	.loc 1 287 159 is_stmt 0 view .LVU137
	ldr	r0, .L15+8
.LBB1355:
.LBB1354:
	.loc 1 287 186 view .LVU138
	str	r3, [r2, #16]!
.LVL15:
	.loc 1 287 186 view .LVU139
.LBE1354:
.LBE1355:
	.loc 1 287 36 is_stmt 1 view .LVU140
	.loc 1 287 17 view .LVU141
	.loc 1 287 157 view .LVU142
	.loc 1 287 159 view .LVU143
	mov	r1, #8448
	bl	z_log_msg_static_create.constprop.0
.LVL16:
	.loc 1 287 159 is_stmt 0 view .LVU144
.LBE1356:
.LBE1358:
.LBE1344:
.LBE1343:
	.loc 1 288 20 view .LVU145
	ldrb	r3, [r4]	@ zero_extendqisi2
.LBE1338:
.LBE1337:
	.loc 1 307 5 view .LVU146
	cmp	r3, #1
.LBB1400:
.LBB1396:
.LBB1361:
.LBB1360:
.LBB1359:
.LBB1357:
	mov	sp, r9
.LVL17:
	.loc 1 307 5 view .LVU147
.LBE1357:
	.loc 1 287 117 is_stmt 1 view .LVU148
	.loc 1 287 15 view .LVU149
	.loc 1 287 52 view .LVU150
.LBE1359:
	.loc 1 287 16 view .LVU151
.LBE1360:
	.loc 1 287 288 view .LVU152
	.loc 1 287 15 view .LVU153
	.loc 1 287 28 view .LVU154
.LBE1361:
	.loc 1 287 16 view .LVU155
	.loc 1 288 13 view .LVU156
	.loc 1 288 13 is_stmt 0 view .LVU157
.LBE1396:
.LBE1400:
	.loc 1 307 5 is_stmt 1 view .LVU158
	beq	.L8
	.loc 1 305 34 is_stmt 0 view .LVU159
	mov	r0, r5
.LVL18:
.L9:
	.loc 1 319 5 is_stmt 1 view .LVU160
	.loc 1 319 12 is_stmt 0 view .LVU161
	str	r0, [r6, #4]
.LVL19:
	.loc 1 320 1 view .LVU162
	mov	r0, r6
	.loc 1 319 12 view .LVU163
	strb	r3, [r6]
	.loc 1 320 1 view .LVU164
	mov	sp, r7
	.cfi_remember_state
	.cfi_def_cfa_register 13
	@ sp needed
	pop	{r3, r4, r5, r6, r7, r8, r9, pc}
.LVL20:
.L7:
	.cfi_restore_state
.LBB1401:
.LBB1397:
	.loc 1 291 9 is_stmt 1 view .LVU165
.LBB1362:
	.loc 1 291 14 view .LVU166
	.loc 1 291 63 view .LVU167
	.loc 1 291 20 view .LVU168
	.loc 1 291 8 view .LVU169
	.loc 1 291 47 view .LVU170
	.loc 1 291 182 view .LVU171
	.loc 1 291 193 view .LVU172
	.loc 1 291 281 view .LVU173
.LBB1363:
	.loc 1 291 9 view .LVU174
	.loc 1 291 11 view .LVU175
	.loc 1 291 9 view .LVU176
.LBB1364:
	.loc 1 291 14 view .LVU177
	.loc 1 291 8 view .LVU178
	.loc 1 291 18 view .LVU179
	.loc 1 291 108 view .LVU180
	.loc 1 291 110 view .LVU181
.LBB1365:
	.loc 1 291 113 is_stmt 0 view .LVU182
	mov	r4, sp
	.loc 1 291 115 is_stmt 1 view .LVU183
	.loc 1 291 126 view .LVU184
.LVL21:
	.loc 1 291 215 view .LVU185
	.loc 1 291 32 view .LVU186
	.loc 1 291 35 view .LVU187
	.loc 1 291 9 view .LVU188
	.loc 1 291 9 view .LVU189
	.loc 1 291 76 view .LVU190
	.loc 1 291 88 is_stmt 0 view .LVU191
	sub	sp, sp, #32
	mov	r2, sp
.LVL22:
	.loc 1 291 80 is_stmt 1 view .LVU192
	.loc 1 291 490 view .LVU193
	.loc 1 291 11 view .LVU194
	.loc 1 291 13 view .LVU195
	.loc 1 291 18 view .LVU196
	.loc 1 291 16 view .LVU197
	.loc 1 291 11 view .LVU198
	.loc 1 291 29 view .LVU199
.LBB1366:
	.loc 1 291 9 view .LVU200
	.loc 1 291 374 view .LVU201
	.loc 1 291 81 view .LVU202
.LVL23:
	.loc 1 291 8 view .LVU203
	.loc 1 291 8 view .LVU204
	.loc 1 291 8 view .LVU205
	.loc 1 291 44 view .LVU206
	.loc 1 291 73 view .LVU207
	.loc 1 291 99 view .LVU208
	.loc 1 291 125 view .LVU209
	.loc 1 291 592 view .LVU210
	.loc 1 291 654 view .LVU211
	.loc 1 291 1175 view .LVU212
	.loc 1 291 1240 view .LVU213
	.loc 1 291 1265 view .LVU214
	.loc 1 291 1266 view .LVU215
	.loc 1 291 1268 view .LVU216
	.loc 1 291 1298 view .LVU217
	.loc 1 291 1328 view .LVU218
	.loc 1 291 1360 view .LVU219
	.loc 1 291 1392 view .LVU220
	.loc 1 291 1424 view .LVU221
	.loc 1 291 1621 view .LVU222
	.loc 1 291 1645 view .LVU223
	.loc 1 291 1646 view .LVU224
	.loc 1 291 1648 view .LVU225
	.loc 1 291 1677 view .LVU226
	.loc 1 291 1706 view .LVU227
	.loc 1 291 1737 view .LVU228
	.loc 1 291 1768 view .LVU229
	.loc 1 291 1799 view .LVU230
	.loc 1 291 2006 view .LVU231
.LBB1367:
	.loc 1 291 3105 view .LVU232
	.loc 1 291 3110 view .LVU233
	.loc 1 291 3698 view .LVU234
	.loc 1 291 0 is_stmt 0 view .LVU235
	ldr	r3, .L15+12
.LVL24:
.L14:
	.loc 1 291 0 view .LVU236
.LBE1367:
.LBE1366:
.LBE1365:
.LBE1364:
.LBE1363:
.LBE1362:
.LBB1368:
.LBB1369:
.LBB1370:
.LBB1371:
	.loc 1 300 151 view .LVU237
	ldr	r0, .L15+8
.LBB1372:
.LBB1373:
	.loc 1 300 3813 view .LVU238
	strd	r3, r8, [r2, #20]
	.loc 1 300 2768 is_stmt 1 view .LVU239
	.loc 1 300 9 view .LVU240
.LVL25:
	.loc 1 300 32 view .LVU241
	.loc 1 300 32 is_stmt 0 view .LVU242
.LBE1373:
	.loc 1 300 11 is_stmt 1 view .LVU243
	.loc 1 300 7 view .LVU244
	.loc 1 300 30 view .LVU245
	.loc 1 300 54 view .LVU246
	.loc 1 300 82 view .LVU247
	.loc 1 300 258 view .LVU248
	.loc 1 300 18 view .LVU249
.LBB1374:
	.loc 1 300 8 view .LVU250
	.loc 1 300 166 view .LVU251
	.loc 1 300 168 view .LVU252
	.loc 1 300 178 is_stmt 0 view .LVU253
	movs	r3, #3
	str	r3, [r2, #16]!
.LVL26:
	.loc 1 300 178 view .LVU254
.LBE1374:
.LBE1372:
	.loc 1 300 28 is_stmt 1 view .LVU255
	.loc 1 300 9 view .LVU256
	.loc 1 300 149 view .LVU257
	.loc 1 300 151 view .LVU258
	mov	r1, #6400
	bl	z_log_msg_static_create.constprop.0
.LVL27:
	.loc 1 300 151 is_stmt 0 view .LVU259
	mov	sp, r4
.LBE1371:
	.loc 1 300 109 is_stmt 1 view .LVU260
	.loc 1 300 7 view .LVU261
.LVL28:
	.loc 1 300 44 view .LVU262
.LBE1370:
	.loc 1 300 8 view .LVU263
.LBE1369:
	.loc 1 300 280 view .LVU264
	.loc 1 300 7 view .LVU265
	.loc 1 300 20 view .LVU266
.LBE1368:
	.loc 1 300 8 view .LVU267
	.loc 1 301 5 view .LVU268
	.loc 1 301 5 is_stmt 0 view .LVU269
.LBE1397:
.LBE1401:
	.loc 1 307 5 is_stmt 1 view .LVU270
.L8:
	.loc 1 310 9 view .LVU271
	.loc 1 310 38 is_stmt 0 view .LVU272
	bl	zmk_ble_active_profile_index
.LVL29:
	.loc 1 311 9 is_stmt 1 view .LVU273
	movs	r3, #1
	b	.L9
.LVL30:
.L6:
.LBB1402:
.LBB1398:
	.loc 1 295 5 view .LVU274
.LBB1380:
.LBI1380:
	.loc 1 268 12 view .LVU275
.LBB1381:
	.loc 1 270 5 view .LVU276
	.loc 1 270 12 is_stmt 0 view .LVU277
	bl	zmk_usb_is_hid_ready
.LVL31:
.LBE1381:
.LBE1380:
	.loc 1 295 8 view .LVU278
	cbz	r0, .L10
	.loc 1 296 9 is_stmt 1 view .LVU279
.LBB1382:
	.loc 1 296 14 view .LVU280
	.loc 1 296 63 view .LVU281
	.loc 1 296 20 view .LVU282
	.loc 1 296 8 view .LVU283
.LVL32:
	.loc 1 296 47 view .LVU284
	.loc 1 296 182 view .LVU285
	.loc 1 296 193 view .LVU286
	.loc 1 296 281 view .LVU287
.LBB1383:
	.loc 1 296 9 view .LVU288
	.loc 1 296 11 view .LVU289
	.loc 1 296 9 view .LVU290
.LBB1384:
	.loc 1 296 14 view .LVU291
	.loc 1 296 8 view .LVU292
	.loc 1 296 18 view .LVU293
	.loc 1 296 108 view .LVU294
	.loc 1 296 110 view .LVU295
.LBB1385:
	.loc 1 296 113 is_stmt 0 view .LVU296
	mov	r5, sp
	.loc 1 296 115 is_stmt 1 view .LVU297
	.loc 1 296 126 view .LVU298
.LVL33:
	.loc 1 296 215 view .LVU299
	.loc 1 296 32 view .LVU300
	.loc 1 296 35 view .LVU301
	.loc 1 296 9 view .LVU302
	.loc 1 296 9 view .LVU303
	.loc 1 296 76 view .LVU304
	.loc 1 296 88 is_stmt 0 view .LVU305
	sub	sp, sp, #32
	mov	r2, sp
.LVL34:
	.loc 1 296 80 is_stmt 1 view .LVU306
	.loc 1 296 490 view .LVU307
	.loc 1 296 11 view .LVU308
	.loc 1 296 13 view .LVU309
	.loc 1 296 18 view .LVU310
	.loc 1 296 16 view .LVU311
	.loc 1 296 11 view .LVU312
	.loc 1 296 29 view .LVU313
.LBB1386:
	.loc 1 296 9 view .LVU314
	.loc 1 296 374 view .LVU315
	.loc 1 296 81 view .LVU316
.LVL35:
	.loc 1 296 8 view .LVU317
	.loc 1 296 8 view .LVU318
	.loc 1 296 8 view .LVU319
	.loc 1 296 44 view .LVU320
	.loc 1 296 73 view .LVU321
	.loc 1 296 99 view .LVU322
	.loc 1 296 125 view .LVU323
	.loc 1 296 592 view .LVU324
	.loc 1 296 654 view .LVU325
	.loc 1 296 1175 view .LVU326
	.loc 1 296 1240 view .LVU327
	.loc 1 296 1265 view .LVU328
	.loc 1 296 1266 view .LVU329
	.loc 1 296 1268 view .LVU330
	.loc 1 296 1298 view .LVU331
	.loc 1 296 1328 view .LVU332
	.loc 1 296 1360 view .LVU333
	.loc 1 296 1392 view .LVU334
	.loc 1 296 1424 view .LVU335
	.loc 1 296 1621 view .LVU336
	.loc 1 296 1645 view .LVU337
	.loc 1 296 1646 view .LVU338
	.loc 1 296 1648 view .LVU339
	.loc 1 296 1677 view .LVU340
	.loc 1 296 1706 view .LVU341
	.loc 1 296 1737 view .LVU342
	.loc 1 296 1768 view .LVU343
	.loc 1 296 1799 view .LVU344
	.loc 1 296 2006 view .LVU345
.LBB1387:
	.loc 1 296 3105 view .LVU346
	.loc 1 296 3110 view .LVU347
	.loc 1 296 3698 view .LVU348
	.loc 1 296 0 is_stmt 0 view .LVU349
	ldr	r3, .L15+16
.LBE1387:
.LBE1386:
	.loc 1 296 155 view .LVU350
	ldr	r0, .L15+8
.LBB1390:
.LBB1388:
	.loc 1 296 3817 view .LVU351
	strd	r3, r8, [r2, #20]
	.loc 1 296 2772 is_stmt 1 view .LVU352
	.loc 1 296 13 view .LVU353
.LVL36:
	.loc 1 296 36 view .LVU354
	.loc 1 296 36 is_stmt 0 view .LVU355
.LBE1388:
	.loc 1 296 15 is_stmt 1 view .LVU356
	.loc 1 296 11 view .LVU357
	.loc 1 296 34 view .LVU358
	.loc 1 296 58 view .LVU359
	.loc 1 296 86 view .LVU360
	.loc 1 296 262 view .LVU361
	.loc 1 296 22 view .LVU362
.LBB1389:
	.loc 1 296 12 view .LVU363
	.loc 1 296 170 view .LVU364
	.loc 1 296 172 view .LVU365
	.loc 1 296 182 is_stmt 0 view .LVU366
	movs	r3, #3
	str	r3, [r2, #16]!
.LVL37:
	.loc 1 296 182 view .LVU367
.LBE1389:
.LBE1390:
	.loc 1 296 32 is_stmt 1 view .LVU368
	.loc 1 296 13 view .LVU369
	.loc 1 296 153 view .LVU370
	.loc 1 296 155 view .LVU371
	mov	r1, #6400
	bl	z_log_msg_static_create.constprop.0
.LVL38:
	.loc 1 296 155 is_stmt 0 view .LVU372
.LBE1385:
.LBE1384:
.LBE1383:
.LBE1382:
	.loc 1 297 16 view .LVU373
	mov	r3, r4
.LBB1394:
.LBB1393:
.LBB1392:
.LBB1391:
	mov	sp, r5
.LVL39:
	.loc 1 297 16 view .LVU374
.LBE1391:
	.loc 1 296 113 is_stmt 1 view .LVU375
	.loc 1 296 11 view .LVU376
	.loc 1 296 48 view .LVU377
.LBE1392:
	.loc 1 296 12 view .LVU378
.LBE1393:
	.loc 1 296 284 view .LVU379
	.loc 1 296 11 view .LVU380
	.loc 1 296 24 view .LVU381
.LBE1394:
	.loc 1 296 12 view .LVU382
	.loc 1 297 9 view .LVU383
	.loc 1 297 9 is_stmt 0 view .LVU384
.LBE1398:
.LBE1402:
	.loc 1 307 5 is_stmt 1 view .LVU385
	.loc 1 305 34 is_stmt 0 view .LVU386
	mov	r0, r4
	b	.L9
.LVL40:
.L10:
.LBB1403:
.LBB1399:
	.loc 1 300 5 is_stmt 1 view .LVU387
.LBB1395:
	.loc 1 300 10 view .LVU388
	.loc 1 300 59 view .LVU389
	.loc 1 300 16 view .LVU390
	.loc 1 300 4 view .LVU391
	.loc 1 300 43 view .LVU392
	.loc 1 300 178 view .LVU393
	.loc 1 300 189 view .LVU394
	.loc 1 300 277 view .LVU395
.LBB1379:
	.loc 1 300 5 view .LVU396
	.loc 1 300 7 view .LVU397
	.loc 1 300 5 view .LVU398
.LBB1378:
	.loc 1 300 10 view .LVU399
	.loc 1 300 4 view .LVU400
	.loc 1 300 14 view .LVU401
	.loc 1 300 104 view .LVU402
	.loc 1 300 106 view .LVU403
.LBB1377:
	.loc 1 300 109 is_stmt 0 view .LVU404
	mov	r4, sp
	.loc 1 300 111 is_stmt 1 view .LVU405
	.loc 1 300 122 view .LVU406
.LVL41:
	.loc 1 300 211 view .LVU407
	.loc 1 300 28 view .LVU408
	.loc 1 300 31 view .LVU409
	.loc 1 300 5 view .LVU410
	.loc 1 300 5 view .LVU411
	.loc 1 300 72 view .LVU412
	.loc 1 300 84 is_stmt 0 view .LVU413
	sub	sp, sp, #32
	mov	r2, sp
.LVL42:
	.loc 1 300 76 is_stmt 1 view .LVU414
	.loc 1 300 486 view .LVU415
	.loc 1 300 7 view .LVU416
	.loc 1 300 9 view .LVU417
	.loc 1 300 14 view .LVU418
	.loc 1 300 12 view .LVU419
	.loc 1 300 7 view .LVU420
	.loc 1 300 25 view .LVU421
.LBB1376:
	.loc 1 300 5 view .LVU422
	.loc 1 300 370 view .LVU423
	.loc 1 300 77 view .LVU424
.LVL43:
	.loc 1 300 4 view .LVU425
	.loc 1 300 4 view .LVU426
	.loc 1 300 4 view .LVU427
	.loc 1 300 40 view .LVU428
	.loc 1 300 69 view .LVU429
	.loc 1 300 95 view .LVU430
	.loc 1 300 121 view .LVU431
	.loc 1 300 588 view .LVU432
	.loc 1 300 650 view .LVU433
	.loc 1 300 1171 view .LVU434
	.loc 1 300 1236 view .LVU435
	.loc 1 300 1261 view .LVU436
	.loc 1 300 1262 view .LVU437
	.loc 1 300 1264 view .LVU438
	.loc 1 300 1294 view .LVU439
	.loc 1 300 1324 view .LVU440
	.loc 1 300 1356 view .LVU441
	.loc 1 300 1388 view .LVU442
	.loc 1 300 1420 view .LVU443
	.loc 1 300 1617 view .LVU444
	.loc 1 300 1641 view .LVU445
	.loc 1 300 1642 view .LVU446
	.loc 1 300 1644 view .LVU447
	.loc 1 300 1673 view .LVU448
	.loc 1 300 1702 view .LVU449
	.loc 1 300 1733 view .LVU450
	.loc 1 300 1764 view .LVU451
	.loc 1 300 1795 view .LVU452
	.loc 1 300 2002 view .LVU453
.LBB1375:
	.loc 1 300 3236 view .LVU454
	.loc 1 300 3241 view .LVU455
	.loc 1 300 3919 view .LVU456
	.loc 1 300 0 is_stmt 0 view .LVU457
	ldr	r3, .L15+20
	b	.L14
.L16:
	.align	2
.L15:
	.word	preferred_transport
	.word	.LC1
	.word	log_const_zmk
	.word	.LC2
	.word	.LC3
	.word	.LC4
	.word	__func__.2
.LBE1375:
.LBE1376:
.LBE1377:
.LBE1378:
.LBE1379:
.LBE1395:
.LBE1399:
.LBE1403:
	.cfi_endproc
.LFE511:
	.size	get_selected_instance, .-get_selected_instance
	.section	.text.zmk_endpoints_init,"ax",%progbits
	.align	1
	.syntax unified
	.thumb
	.thumb_func
	.type	zmk_endpoints_init, %function
zmk_endpoints_init:
.LFB512:
	.loc 1 322 37 is_stmt 1 view -0
	.cfi_startproc
	@ args = 0, pretend = 0, frame = 8
	@ frame_needed = 0, uses_anonymous_args = 0
	.loc 1 324 5 view .LVU459
	.loc 1 322 37 is_stmt 0 view .LVU460
	push	{r0, r1, r2, r4, r5, lr}
	.cfi_def_cfa_offset 24
	.cfi_offset 4, -12
	.cfi_offset 5, -8
	.cfi_offset 14, -4
	.loc 1 324 5 view .LVU461
	ldr	r1, .L18
	ldr	r0, .L18+4
	.loc 1 327 24 view .LVU462
	ldr	r5, .L18+8
	mov	r4, sp
	.loc 1 324 5 view .LVU463
	bl	k_work_init_delayable
.LVL44:
	.loc 1 327 5 is_stmt 1 view .LVU464
	.loc 1 327 24 is_stmt 0 view .LVU465
	mov	r0, r4
	bl	get_selected_instance
.LVL45:
	ldm	r4, {r0, r1}
	stm	r5, {r0, r1}
	.loc 1 329 5 is_stmt 1 view .LVU466
	.loc 1 330 1 is_stmt 0 view .LVU467
	movs	r0, #0
	add	sp, sp, #12
	.cfi_def_cfa_offset 12
	@ sp needed
	pop	{r4, r5, pc}
.L19:
	.align	2
.L18:
	.word	endpoints_save_preferred_work
	.word	endpoints_save_work
	.word	current_instance
	.cfi_endproc
.LFE512:
	.size	zmk_endpoints_init, .-zmk_endpoints_init
	.section	.rodata.zmk_endpoint_instance_eq.str1.1,"aMS",%progbits,1
.LC5:
	.ascii	"Invalid transport %d\000"
	.section	.text.zmk_endpoint_instance_eq,"ax",%progbits
	.align	1
	.global	zmk_endpoint_instance_eq
	.syntax unified
	.thumb
	.thumb_func
	.type	zmk_endpoint_instance_eq, %function
zmk_endpoint_instance_eq:
.LFB497:
	.loc 1 51 94 is_stmt 1 view -0
	.cfi_startproc
	@ args = 0, pretend = 0, frame = 16
	@ frame_needed = 1, uses_anonymous_args = 0
	push	{r4, r7, lr}
	.cfi_def_cfa_offset 12
	.cfi_offset 4, -12
	.cfi_offset 7, -8
	.cfi_offset 14, -4
	sub	sp, sp, #20
	.cfi_def_cfa_offset 32
	add	r7, sp, #0
	.cfi_def_cfa_register 7
	.loc 1 51 94 is_stmt 0 view .LVU469
	add	r4, r7, #16
	strd	r2, r3, [r7]
	stmdb	r4, {r0, r1}
	.loc 1 52 8 view .LVU470
	ldrb	r3, [r7]	@ zero_extendqisi2
	ldrb	r2, [r7, #8]	@ zero_extendqisi2
.LVL46:
	.loc 1 52 5 is_stmt 1 view .LVU471
	.loc 1 52 8 is_stmt 0 view .LVU472
	cmp	r3, r2
	bne	.L21
	.loc 1 56 5 is_stmt 1 view .LVU473
	cbz	r3, .L24
	cmp	r3, #1
	bne	.L23
	.loc 1 61 9 view .LVU474
	.loc 1 61 36 is_stmt 0 view .LVU475
	ldr	r0, [r7, #12]
	ldr	r3, [r7, #4]
	subs	r3, r0, r3
	rsbs	r0, r3, #0
	adcs	r0, r0, r3
.L22:
	.loc 1 66 1 view .LVU476
	adds	r7, r7, #20
	.cfi_remember_state
	.cfi_def_cfa_offset 12
	mov	sp, r7
	.cfi_def_cfa_register 13
	@ sp needed
	pop	{r4, r7, pc}
.L23:
	.cfi_restore_state
	.loc 1 64 5 is_stmt 1 view .LVU477
.LBB1404:
	.loc 1 64 10 view .LVU478
	.loc 1 64 59 view .LVU479
	.loc 1 64 16 view .LVU480
	.loc 1 64 4 view .LVU481
.LVL47:
	.loc 1 64 43 view .LVU482
	.loc 1 64 178 view .LVU483
	.loc 1 64 189 view .LVU484
	.loc 1 64 277 view .LVU485
.LBB1405:
	.loc 1 64 5 view .LVU486
	.loc 1 64 7 view .LVU487
	.loc 1 64 5 view .LVU488
.LBB1406:
	.loc 1 64 10 view .LVU489
	.loc 1 64 4 view .LVU490
.LBE1406:
.LBE1405:
.LBE1404:
	.loc 1 64 5 view .LVU491
	.loc 1 64 14 view .LVU492
	.loc 1 64 109 view .LVU493
	.loc 1 64 5 view .LVU494
.LBB1425:
.LBB1421:
.LBB1417:
	.loc 1 64 14 view .LVU495
	.loc 1 64 104 view .LVU496
	.loc 1 64 106 view .LVU497
.LBB1407:
	.loc 1 64 109 is_stmt 0 view .LVU498
	mov	r4, sp
	.loc 1 64 111 is_stmt 1 view .LVU499
	.loc 1 64 122 view .LVU500
.LVL48:
	.loc 1 64 211 view .LVU501
	.loc 1 64 28 view .LVU502
.LBE1407:
.LBE1417:
.LBE1421:
.LBE1425:
	.loc 1 64 5 view .LVU503
	.loc 1 64 370 view .LVU504
	.loc 1 64 77 view .LVU505
	.loc 1 64 4 view .LVU506
	.loc 1 64 4 view .LVU507
	.loc 1 64 4 view .LVU508
	.loc 1 64 40 view .LVU509
	.loc 1 64 6 view .LVU510
	.loc 1 64 32 view .LVU511
	.loc 1 64 58 view .LVU512
	.loc 1 64 525 view .LVU513
	.loc 1 64 587 view .LVU514
	.loc 1 64 1108 view .LVU515
	.loc 1 64 1173 view .LVU516
	.loc 1 64 1198 view .LVU517
	.loc 1 64 1199 view .LVU518
	.loc 1 64 1201 view .LVU519
	.loc 1 64 1231 view .LVU520
	.loc 1 64 1261 view .LVU521
	.loc 1 64 1293 view .LVU522
	.loc 1 64 1325 view .LVU523
	.loc 1 64 1357 view .LVU524
	.loc 1 64 1554 view .LVU525
	.loc 1 64 1578 view .LVU526
	.loc 1 64 1579 view .LVU527
	.loc 1 64 1581 view .LVU528
	.loc 1 64 1610 view .LVU529
	.loc 1 64 1639 view .LVU530
	.loc 1 64 1670 view .LVU531
	.loc 1 64 1701 view .LVU532
	.loc 1 64 1732 view .LVU533
	.loc 1 64 1939 view .LVU534
	.loc 1 64 6 view .LVU535
	.loc 1 64 24 view .LVU536
	.loc 1 64 44 view .LVU537
	.loc 1 64 6 view .LVU538
	.loc 1 64 44 view .LVU539
	.loc 1 64 15 view .LVU540
	.loc 1 64 15 view .LVU541
	.loc 1 64 63 view .LVU542
	.loc 1 64 94 view .LVU543
	.loc 1 64 128 view .LVU544
	.loc 1 64 133 view .LVU545
	.loc 1 64 377 view .LVU546
	.loc 1 64 1406 view .LVU547
	.loc 1 64 1471 view .LVU548
	.loc 1 64 1495 view .LVU549
	.loc 1 64 1543 view .LVU550
	.loc 1 64 1554 view .LVU551
	.loc 1 64 1660 view .LVU552
	.loc 1 64 1676 view .LVU553
	.loc 1 64 1716 view .LVU554
	.loc 1 64 1741 view .LVU555
	.loc 1 64 3018 view .LVU556
	.loc 1 64 3059 view .LVU557
	.loc 1 64 9 view .LVU558
	.loc 1 64 32 view .LVU559
	.loc 1 64 131 view .LVU560
	.loc 1 64 8 view .LVU561
	.loc 1 64 13 view .LVU562
	.loc 1 64 238 view .LVU563
	.loc 1 64 1191 view .LVU564
	.loc 1 64 1256 view .LVU565
	.loc 1 64 1280 view .LVU566
	.loc 1 64 1309 view .LVU567
	.loc 1 64 1320 view .LVU568
	.loc 1 64 1407 view .LVU569
	.loc 1 64 1423 view .LVU570
	.loc 1 64 1463 view .LVU571
	.loc 1 64 2727 view .LVU572
	.loc 1 64 2768 view .LVU573
	.loc 1 64 9 view .LVU574
	.loc 1 64 32 view .LVU575
	.loc 1 64 11 view .LVU576
	.loc 1 64 7 view .LVU577
	.loc 1 64 30 view .LVU578
	.loc 1 64 54 view .LVU579
	.loc 1 64 82 view .LVU580
	.loc 1 64 258 view .LVU581
	.loc 1 64 18 view .LVU582
.LBB1426:
.LBB1422:
.LBB1418:
.LBB1414:
	.loc 1 64 31 view .LVU583
	.loc 1 64 5 view .LVU584
	.loc 1 64 5 view .LVU585
	.loc 1 64 72 view .LVU586
	.loc 1 64 84 is_stmt 0 view .LVU587
	sub	sp, sp, #32
	mov	r2, sp
.LVL49:
	.loc 1 64 76 is_stmt 1 view .LVU588
	.loc 1 64 486 view .LVU589
	.loc 1 64 7 view .LVU590
	.loc 1 64 9 view .LVU591
	.loc 1 64 14 view .LVU592
	.loc 1 64 12 view .LVU593
	.loc 1 64 7 view .LVU594
	.loc 1 64 25 view .LVU595
.LBB1408:
	.loc 1 64 5 view .LVU596
	.loc 1 64 370 view .LVU597
	.loc 1 64 77 view .LVU598
.LVL50:
	.loc 1 64 4 view .LVU599
	.loc 1 64 4 view .LVU600
	.loc 1 64 4 view .LVU601
	.loc 1 64 40 view .LVU602
	.loc 1 64 69 view .LVU603
	.loc 1 64 95 view .LVU604
	.loc 1 64 121 view .LVU605
	.loc 1 64 588 view .LVU606
	.loc 1 64 650 view .LVU607
	.loc 1 64 1171 view .LVU608
	.loc 1 64 1236 view .LVU609
	.loc 1 64 1261 view .LVU610
	.loc 1 64 1262 view .LVU611
	.loc 1 64 1264 view .LVU612
	.loc 1 64 1294 view .LVU613
	.loc 1 64 1324 view .LVU614
	.loc 1 64 1356 view .LVU615
	.loc 1 64 1388 view .LVU616
	.loc 1 64 1420 view .LVU617
	.loc 1 64 1617 view .LVU618
	.loc 1 64 1641 view .LVU619
	.loc 1 64 1642 view .LVU620
	.loc 1 64 1644 view .LVU621
	.loc 1 64 1673 view .LVU622
	.loc 1 64 1702 view .LVU623
	.loc 1 64 1733 view .LVU624
	.loc 1 64 1764 view .LVU625
	.loc 1 64 1795 view .LVU626
	.loc 1 64 2002 view .LVU627
.LBB1409:
	.loc 1 64 3056 view .LVU628
	.loc 1 64 3061 view .LVU629
	.loc 1 64 3619 view .LVU630
	.loc 1 64 0 is_stmt 0 view .LVU631
	ldr	r1, .L25
.LBE1409:
.LBE1408:
	.loc 1 64 151 view .LVU632
	ldr	r0, .L25+4
.LBE1414:
.LBE1418:
.LBE1422:
.LBE1426:
	.loc 1 56 14 view .LVU633
	strd	r1, r3, [r2, #20]
.LBB1427:
.LBB1423:
.LBB1419:
.LBB1415:
.LBB1412:
.LBB1410:
	.loc 1 64 2768 is_stmt 1 view .LVU634
	.loc 1 64 9 view .LVU635
.LVL51:
	.loc 1 64 32 view .LVU636
	.loc 1 64 32 is_stmt 0 view .LVU637
.LBE1410:
	.loc 1 64 11 is_stmt 1 view .LVU638
	.loc 1 64 7 view .LVU639
	.loc 1 64 30 view .LVU640
	.loc 1 64 54 view .LVU641
	.loc 1 64 82 view .LVU642
.LBE1412:
.LBE1415:
.LBE1419:
.LBE1423:
.LBE1427:
	.loc 1 64 8 view .LVU643
	.loc 1 64 47 view .LVU644
	.loc 1 64 52 view .LVU645
	.loc 1 64 82 view .LVU646
	.loc 1 64 149 view .LVU647
	.loc 1 64 154 view .LVU648
	.loc 1 64 184 view .LVU649
.LBB1428:
.LBB1424:
.LBB1420:
.LBB1416:
.LBB1413:
	.loc 1 64 258 view .LVU650
	.loc 1 64 18 view .LVU651
.LBB1411:
	.loc 1 64 8 view .LVU652
	.loc 1 64 166 view .LVU653
	.loc 1 64 168 view .LVU654
	.loc 1 64 178 is_stmt 0 view .LVU655
	movs	r3, #3
.LVL52:
	.loc 1 64 178 view .LVU656
	str	r3, [r2, #16]!
.LVL53:
	.loc 1 64 178 view .LVU657
.LBE1411:
.LBE1413:
	.loc 1 64 28 is_stmt 1 view .LVU658
	.loc 1 64 9 view .LVU659
	.loc 1 64 149 view .LVU660
	.loc 1 64 151 view .LVU661
	mov	r1, #6208
	bl	z_log_msg_static_create.constprop.0
.LVL54:
	.loc 1 64 151 is_stmt 0 view .LVU662
	mov	sp, r4
.LVL55:
	.loc 1 64 151 view .LVU663
.LBE1416:
	.loc 1 64 109 is_stmt 1 view .LVU664
	.loc 1 64 7 view .LVU665
	.loc 1 64 44 view .LVU666
.LBE1420:
	.loc 1 64 8 view .LVU667
.LBE1424:
	.loc 1 64 280 view .LVU668
	.loc 1 64 7 view .LVU669
	.loc 1 64 20 view .LVU670
.LBE1428:
	.loc 1 64 8 view .LVU671
	.loc 1 65 5 view .LVU672
.L21:
	.loc 1 53 15 is_stmt 0 view .LVU673
	movs	r0, #0
	b	.L22
.L24:
	.loc 1 56 5 view .LVU674
	movs	r0, #1
	b	.L22
.L26:
	.align	2
.L25:
	.word	.LC5
	.word	log_const_zmk
	.cfi_endproc
.LFE497:
	.size	zmk_endpoint_instance_eq, .-zmk_endpoint_instance_eq
	.section	.rodata.zmk_endpoint_instance_to_str.str1.1,"aMS",%progbits,1
.LC6:
	.ascii	"USB\000"
.LC7:
	.ascii	"BLE:%d\000"
.LC8:
	.ascii	"Invalid\000"
	.section	.text.zmk_endpoint_instance_to_str,"ax",%progbits
	.align	1
	.global	zmk_endpoint_instance_to_str
	.syntax unified
	.thumb
	.thumb_func
	.type	zmk_endpoint_instance_to_str, %function
zmk_endpoint_instance_to_str:
.LVL56:
.LFB498:
	.loc 1 68 96 is_stmt 1 view -0
	.cfi_startproc
	@ args = 0, pretend = 0, frame = 8
	@ frame_needed = 0, uses_anonymous_args = 0
	@ link register save eliminated.
	.loc 1 69 5 view .LVU676
	.loc 1 68 96 is_stmt 0 view .LVU677
	sub	sp, sp, #8
	.cfi_def_cfa_offset 8
	.loc 1 68 96 view .LVU678
	add	ip, sp, #8
	stmdb	ip, {r0, r1}
	mov	r1, r3
	.loc 1 69 21 view .LVU679
	ldrb	r3, [sp]	@ zero_extendqisi2
.LVL57:
	.loc 1 68 96 view .LVU680
	mov	r0, r2
	.loc 1 69 5 view .LVU681
	cbz	r3, .L28
	cmp	r3, #1
	beq	.L29
.LVL58:
.LBB1431:
.LBI1431:
	.loc 1 68 5 is_stmt 1 view .LVU682
.LBB1432:
	.loc 1 77 9 view .LVU683
	.loc 1 77 16 is_stmt 0 view .LVU684
	ldr	r2, .L33
.LVL59:
	.loc 1 77 16 view .LVU685
	b	.L32
.LVL60:
.L28:
	.loc 1 77 16 view .LVU686
.LBE1432:
.LBE1431:
	.loc 1 71 9 is_stmt 1 view .LVU687
	.loc 1 71 16 is_stmt 0 view .LVU688
	ldr	r2, .L33+4
.L32:
	.loc 1 79 1 view .LVU689
	add	sp, sp, #8
	.cfi_remember_state
	.cfi_def_cfa_offset 0
	@ sp needed
.LBB1434:
.LBB1433:
	.loc 1 77 16 view .LVU690
	b	snprintf
.LVL61:
.L29:
	.cfi_restore_state
	.loc 1 77 16 view .LVU691
.LBE1433:
.LBE1434:
	.loc 1 74 9 is_stmt 1 view .LVU692
	.loc 1 74 16 is_stmt 0 view .LVU693
	ldr	r3, [sp, #4]
	ldr	r2, .L33+8
	.loc 1 79 1 view .LVU694
	add	sp, sp, #8
	.cfi_def_cfa_offset 0
	@ sp needed
	.loc 1 74 16 view .LVU695
	b	snprintf
.LVL62:
.L34:
	.loc 1 74 16 view .LVU696
	.align	2
.L33:
	.word	.LC8
	.word	.LC6
	.word	.LC7
	.cfi_endproc
.LFE498:
	.size	zmk_endpoint_instance_to_str, .-zmk_endpoint_instance_to_str
	.section	.text.zmk_endpoint_instance_to_index,"ax",%progbits
	.align	1
	.global	zmk_endpoint_instance_to_index
	.syntax unified
	.thumb
	.thumb_func
	.type	zmk_endpoint_instance_to_index, %function
zmk_endpoint_instance_to_index:
.LFB499:
	.loc 1 84 75 is_stmt 1 view -0
	.cfi_startproc
	@ args = 0, pretend = 0, frame = 8
	@ frame_needed = 1, uses_anonymous_args = 0
	push	{r4, r7, lr}
	.cfi_def_cfa_offset 12
	.cfi_offset 4, -12
	.cfi_offset 7, -8
	.cfi_offset 14, -4
	sub	sp, sp, #12
	.cfi_def_cfa_offset 24
	add	r7, sp, #0
	.cfi_def_cfa_register 7
	.loc 1 84 75 is_stmt 0 view .LVU698
	add	r3, r7, #8
	stmdb	r3, {r0, r1}
	ldrb	r3, [r7]	@ zero_extendqisi2
.LVL63:
	.loc 1 85 5 is_stmt 1 view .LVU699
	cbz	r3, .L36
	cmp	r3, #1
	bne	.L37
	.loc 1 90 9 view .LVU700
	.loc 1 90 18 is_stmt 0 view .LVU701
	ldr	r0, [r7, #4]
	adds	r0, r0, #1
.LVL64:
.L35:
	.loc 1 95 1 view .LVU702
	adds	r7, r7, #12
	.cfi_remember_state
	.cfi_def_cfa_offset 12
	mov	sp, r7
	.cfi_def_cfa_register 13
.LVL65:
	.loc 1 95 1 view .LVU703
	@ sp needed
	pop	{r4, r7, pc}
.LVL66:
.L37:
	.cfi_restore_state
	.loc 1 93 5 is_stmt 1 view .LVU704
.LBB1435:
	.loc 1 93 10 view .LVU705
	.loc 1 93 59 view .LVU706
	.loc 1 93 16 view .LVU707
	.loc 1 93 4 view .LVU708
	.loc 1 93 43 view .LVU709
	.loc 1 93 178 view .LVU710
	.loc 1 93 189 view .LVU711
	.loc 1 93 277 view .LVU712
.LBB1436:
	.loc 1 93 5 view .LVU713
	.loc 1 93 7 view .LVU714
	.loc 1 93 5 view .LVU715
.LBB1437:
	.loc 1 93 10 view .LVU716
	.loc 1 93 4 view .LVU717
.LBE1437:
.LBE1436:
.LBE1435:
	.loc 1 93 5 view .LVU718
	.loc 1 93 14 view .LVU719
	.loc 1 93 109 view .LVU720
	.loc 1 93 5 view .LVU721
.LBB1456:
.LBB1452:
.LBB1448:
	.loc 1 93 14 view .LVU722
	.loc 1 93 104 view .LVU723
	.loc 1 93 106 view .LVU724
.LBB1438:
	.loc 1 93 109 is_stmt 0 view .LVU725
	mov	r4, sp
	.loc 1 93 111 is_stmt 1 view .LVU726
	.loc 1 93 122 view .LVU727
.LVL67:
	.loc 1 93 211 view .LVU728
	.loc 1 93 28 view .LVU729
.LBE1438:
.LBE1448:
.LBE1452:
.LBE1456:
	.loc 1 93 5 view .LVU730
	.loc 1 93 370 view .LVU731
	.loc 1 93 77 view .LVU732
	.loc 1 93 4 view .LVU733
	.loc 1 93 4 view .LVU734
	.loc 1 93 4 view .LVU735
	.loc 1 93 40 view .LVU736
	.loc 1 93 6 view .LVU737
	.loc 1 93 32 view .LVU738
	.loc 1 93 58 view .LVU739
	.loc 1 93 525 view .LVU740
	.loc 1 93 587 view .LVU741
	.loc 1 93 1108 view .LVU742
	.loc 1 93 1173 view .LVU743
	.loc 1 93 1198 view .LVU744
	.loc 1 93 1199 view .LVU745
	.loc 1 93 1201 view .LVU746
	.loc 1 93 1231 view .LVU747
	.loc 1 93 1261 view .LVU748
	.loc 1 93 1293 view .LVU749
	.loc 1 93 1325 view .LVU750
	.loc 1 93 1357 view .LVU751
	.loc 1 93 1554 view .LVU752
	.loc 1 93 1578 view .LVU753
	.loc 1 93 1579 view .LVU754
	.loc 1 93 1581 view .LVU755
	.loc 1 93 1610 view .LVU756
	.loc 1 93 1639 view .LVU757
	.loc 1 93 1670 view .LVU758
	.loc 1 93 1701 view .LVU759
	.loc 1 93 1732 view .LVU760
	.loc 1 93 1939 view .LVU761
	.loc 1 93 6 view .LVU762
	.loc 1 93 24 view .LVU763
	.loc 1 93 44 view .LVU764
	.loc 1 93 6 view .LVU765
	.loc 1 93 44 view .LVU766
	.loc 1 93 15 view .LVU767
	.loc 1 93 15 view .LVU768
	.loc 1 93 63 view .LVU769
	.loc 1 93 94 view .LVU770
	.loc 1 93 128 view .LVU771
	.loc 1 93 133 view .LVU772
	.loc 1 93 377 view .LVU773
	.loc 1 93 1406 view .LVU774
	.loc 1 93 1471 view .LVU775
	.loc 1 93 1495 view .LVU776
	.loc 1 93 1543 view .LVU777
	.loc 1 93 1554 view .LVU778
	.loc 1 93 1660 view .LVU779
	.loc 1 93 1676 view .LVU780
	.loc 1 93 1716 view .LVU781
	.loc 1 93 1741 view .LVU782
	.loc 1 93 3018 view .LVU783
	.loc 1 93 3059 view .LVU784
	.loc 1 93 9 view .LVU785
	.loc 1 93 32 view .LVU786
	.loc 1 93 131 view .LVU787
	.loc 1 93 8 view .LVU788
	.loc 1 93 13 view .LVU789
	.loc 1 93 238 view .LVU790
	.loc 1 93 1191 view .LVU791
	.loc 1 93 1256 view .LVU792
	.loc 1 93 1280 view .LVU793
	.loc 1 93 1309 view .LVU794
	.loc 1 93 1320 view .LVU795
	.loc 1 93 1407 view .LVU796
	.loc 1 93 1423 view .LVU797
	.loc 1 93 1463 view .LVU798
	.loc 1 93 2727 view .LVU799
	.loc 1 93 2768 view .LVU800
	.loc 1 93 9 view .LVU801
	.loc 1 93 32 view .LVU802
	.loc 1 93 11 view .LVU803
	.loc 1 93 7 view .LVU804
	.loc 1 93 30 view .LVU805
	.loc 1 93 54 view .LVU806
	.loc 1 93 82 view .LVU807
	.loc 1 93 258 view .LVU808
	.loc 1 93 18 view .LVU809
.LBB1457:
.LBB1453:
.LBB1449:
.LBB1445:
	.loc 1 93 31 view .LVU810
	.loc 1 93 5 view .LVU811
	.loc 1 93 5 view .LVU812
	.loc 1 93 72 view .LVU813
	.loc 1 93 84 is_stmt 0 view .LVU814
	sub	sp, sp, #32
	mov	r2, sp
.LVL68:
	.loc 1 93 76 is_stmt 1 view .LVU815
	.loc 1 93 486 view .LVU816
	.loc 1 93 7 view .LVU817
	.loc 1 93 9 view .LVU818
	.loc 1 93 14 view .LVU819
	.loc 1 93 12 view .LVU820
	.loc 1 93 7 view .LVU821
	.loc 1 93 25 view .LVU822
.LBB1439:
	.loc 1 93 5 view .LVU823
	.loc 1 93 370 view .LVU824
	.loc 1 93 77 view .LVU825
.LVL69:
	.loc 1 93 4 view .LVU826
	.loc 1 93 4 view .LVU827
	.loc 1 93 4 view .LVU828
	.loc 1 93 40 view .LVU829
	.loc 1 93 69 view .LVU830
	.loc 1 93 95 view .LVU831
	.loc 1 93 121 view .LVU832
	.loc 1 93 588 view .LVU833
	.loc 1 93 650 view .LVU834
	.loc 1 93 1171 view .LVU835
	.loc 1 93 1236 view .LVU836
	.loc 1 93 1261 view .LVU837
	.loc 1 93 1262 view .LVU838
	.loc 1 93 1264 view .LVU839
	.loc 1 93 1294 view .LVU840
	.loc 1 93 1324 view .LVU841
	.loc 1 93 1356 view .LVU842
	.loc 1 93 1388 view .LVU843
	.loc 1 93 1420 view .LVU844
	.loc 1 93 1617 view .LVU845
	.loc 1 93 1641 view .LVU846
	.loc 1 93 1642 view .LVU847
	.loc 1 93 1644 view .LVU848
	.loc 1 93 1673 view .LVU849
	.loc 1 93 1702 view .LVU850
	.loc 1 93 1733 view .LVU851
	.loc 1 93 1764 view .LVU852
	.loc 1 93 1795 view .LVU853
	.loc 1 93 2002 view .LVU854
.LBB1440:
	.loc 1 93 3056 view .LVU855
	.loc 1 93 3061 view .LVU856
	.loc 1 93 3619 view .LVU857
	.loc 1 93 0 is_stmt 0 view .LVU858
	ldr	r1, .L42
.LBE1440:
.LBE1439:
	.loc 1 93 151 view .LVU859
	ldr	r0, .L42+4
.LBE1445:
.LBE1449:
.LBE1453:
.LBE1457:
	.loc 1 85 21 view .LVU860
	strd	r1, r3, [r2, #20]
.LBB1458:
.LBB1454:
.LBB1450:
.LBB1446:
.LBB1443:
.LBB1441:
	.loc 1 93 2768 is_stmt 1 view .LVU861
	.loc 1 93 9 view .LVU862
.LVL70:
	.loc 1 93 32 view .LVU863
	.loc 1 93 32 is_stmt 0 view .LVU864
.LBE1441:
	.loc 1 93 11 is_stmt 1 view .LVU865
	.loc 1 93 7 view .LVU866
	.loc 1 93 30 view .LVU867
	.loc 1 93 54 view .LVU868
	.loc 1 93 82 view .LVU869
.LBE1443:
.LBE1446:
.LBE1450:
.LBE1454:
.LBE1458:
	.loc 1 93 8 view .LVU870
	.loc 1 93 47 view .LVU871
	.loc 1 93 52 view .LVU872
	.loc 1 93 82 view .LVU873
	.loc 1 93 149 view .LVU874
	.loc 1 93 154 view .LVU875
	.loc 1 93 184 view .LVU876
.LBB1459:
.LBB1455:
.LBB1451:
.LBB1447:
.LBB1444:
	.loc 1 93 258 view .LVU877
	.loc 1 93 18 view .LVU878
.LBB1442:
	.loc 1 93 8 view .LVU879
	.loc 1 93 166 view .LVU880
	.loc 1 93 168 view .LVU881
	.loc 1 93 178 is_stmt 0 view .LVU882
	movs	r3, #3
.LVL71:
	.loc 1 93 178 view .LVU883
	str	r3, [r2, #16]!
.LVL72:
	.loc 1 93 178 view .LVU884
.LBE1442:
.LBE1444:
	.loc 1 93 28 is_stmt 1 view .LVU885
	.loc 1 93 9 view .LVU886
	.loc 1 93 149 view .LVU887
	.loc 1 93 151 view .LVU888
	mov	r1, #6208
	bl	z_log_msg_static_create.constprop.0
.LVL73:
	.loc 1 93 151 is_stmt 0 view .LVU889
	mov	sp, r4
.LVL74:
	.loc 1 93 151 view .LVU890
.LBE1447:
	.loc 1 93 109 is_stmt 1 view .LVU891
	.loc 1 93 7 view .LVU892
	.loc 1 93 44 view .LVU893
.LBE1451:
	.loc 1 93 8 view .LVU894
.LBE1455:
	.loc 1 93 280 view .LVU895
	.loc 1 93 7 view .LVU896
	.loc 1 93 20 view .LVU897
.LBE1459:
	.loc 1 93 8 view .LVU898
	.loc 1 94 5 view .LVU899
.L36:
	.loc 1 87 16 is_stmt 0 view .LVU900
	movs	r0, #0
	b	.L35
.L43:
	.align	2
.L42:
	.word	.LC5
	.word	log_const_zmk
	.cfi_endproc
.LFE499:
	.size	zmk_endpoint_instance_to_index, .-zmk_endpoint_instance_to_index
	.section	.text.zmk_endpoints_selected,"ax",%progbits
	.align	1
	.global	zmk_endpoints_selected
	.syntax unified
	.thumb
	.thumb_func
	.type	zmk_endpoints_selected, %function
zmk_endpoints_selected:
.LVL75:
.LFB502:
	.loc 1 119 59 is_stmt 1 view -0
	.cfi_startproc
	@ args = 0, pretend = 0, frame = 0
	@ frame_needed = 0, uses_anonymous_args = 0
	@ link register save eliminated.
	.loc 1 119 61 view .LVU902
	.loc 1 119 68 is_stmt 0 view .LVU903
	ldr	r2, .L45
	.loc 1 119 59 view .LVU904
	mov	r3, r0
	.loc 1 119 68 view .LVU905
	ldm	r2, {r0, r1}
.LVL76:
	.loc 1 119 68 view .LVU906
	stm	r3, {r0, r1}
	.loc 1 119 86 view .LVU907
	mov	r0, r3
	bx	lr
.L46:
	.align	2
.L45:
	.word	current_instance
	.cfi_endproc
.LFE502:
	.size	zmk_endpoints_selected, .-zmk_endpoints_selected
	.section	.rodata.zmk_endpoints_send_report.str1.1,"aMS",%progbits,1
.LC9:
	.ascii	"%s: usage page 0x%02X\000"
.LC10:
	.ascii	"FAILED TO SEND OVER USB: %d\000"
.LC11:
	.ascii	"FAILED TO SEND OVER HOG: %d\000"
.LC12:
	.ascii	"Unhandled endpoint transport %d\000"
.LC13:
	.ascii	"Unsupported usage page %d\000"
	.section	.text.zmk_endpoints_send_report,"ax",%progbits
	.align	1
	.global	zmk_endpoints_send_report
	.syntax unified
	.thumb
	.thumb_func
	.type	zmk_endpoints_send_report, %function
zmk_endpoints_send_report:
.LVL77:
.LFB505:
	.loc 1 189 52 is_stmt 1 view -0
	.cfi_startproc
	@ args = 0, pretend = 0, frame = 0
	@ frame_needed = 1, uses_anonymous_args = 0
	.loc 1 191 5 view .LVU909
.LBB1533:
	.loc 1 191 10 view .LVU910
	.loc 1 191 59 view .LVU911
	.loc 1 191 16 view .LVU912
	.loc 1 191 4 view .LVU913
	.loc 1 191 43 view .LVU914
	.loc 1 191 178 view .LVU915
	.loc 1 191 189 view .LVU916
	.loc 1 191 277 view .LVU917
.LBB1534:
	.loc 1 191 5 view .LVU918
	.loc 1 191 7 view .LVU919
	.loc 1 191 56 view .LVU920
	.loc 1 191 5 view .LVU921
.LBB1535:
	.loc 1 191 10 view .LVU922
	.loc 1 191 4 view .LVU923
.LBE1535:
.LBE1534:
.LBE1533:
	.loc 1 191 5 view .LVU924
	.loc 1 191 14 view .LVU925
	.loc 1 191 109 view .LVU926
	.loc 1 191 5 view .LVU927
.LBB1564:
.LBB1557:
.LBB1550:
	.loc 1 191 14 view .LVU928
	.loc 1 191 104 view .LVU929
	.loc 1 191 106 view .LVU930
.LBE1550:
.LBE1557:
.LBE1564:
	.loc 1 189 52 is_stmt 0 view .LVU931
	push	{r4, r5, r7, lr}
	.cfi_def_cfa_offset 16
	.cfi_offset 4, -16
	.cfi_offset 5, -12
	.cfi_offset 7, -8
	.cfi_offset 14, -4
	add	r7, sp, #0
	.cfi_def_cfa_register 7
.LBB1565:
.LBB1558:
.LBB1551:
.LBB1536:
	.loc 1 191 109 view .LVU932
	mov	r5, sp
	.loc 1 191 111 is_stmt 1 view .LVU933
	.loc 1 191 122 view .LVU934
.LVL78:
	.loc 1 191 211 view .LVU935
	.loc 1 191 28 view .LVU936
.LBE1536:
.LBE1551:
.LBE1558:
.LBE1565:
	.loc 1 191 5 view .LVU937
	.loc 1 191 370 view .LVU938
	.loc 1 191 77 view .LVU939
	.loc 1 191 4 view .LVU940
	.loc 1 191 4 view .LVU941
	.loc 1 191 4 view .LVU942
	.loc 1 191 40 view .LVU943
	.loc 1 191 6 view .LVU944
	.loc 1 191 32 view .LVU945
	.loc 1 191 58 view .LVU946
	.loc 1 191 971 view .LVU947
	.loc 1 191 1033 view .LVU948
	.loc 1 191 2020 view .LVU949
	.loc 1 191 2085 view .LVU950
	.loc 1 191 2110 view .LVU951
	.loc 1 191 2111 view .LVU952
	.loc 1 191 2113 view .LVU953
	.loc 1 191 2143 view .LVU954
	.loc 1 191 2173 view .LVU955
	.loc 1 191 2205 view .LVU956
	.loc 1 191 2237 view .LVU957
	.loc 1 191 2269 view .LVU958
	.loc 1 191 2466 view .LVU959
	.loc 1 191 2490 view .LVU960
	.loc 1 191 2491 view .LVU961
	.loc 1 191 2493 view .LVU962
	.loc 1 191 2522 view .LVU963
	.loc 1 191 2551 view .LVU964
	.loc 1 191 2582 view .LVU965
	.loc 1 191 2613 view .LVU966
	.loc 1 191 2644 view .LVU967
	.loc 1 191 2851 view .LVU968
	.loc 1 191 6 view .LVU969
	.loc 1 191 24 view .LVU970
	.loc 1 191 44 view .LVU971
	.loc 1 191 6 view .LVU972
	.loc 1 191 44 view .LVU973
	.loc 1 191 15 view .LVU974
	.loc 1 191 15 view .LVU975
	.loc 1 191 63 view .LVU976
	.loc 1 191 94 view .LVU977
	.loc 1 191 128 view .LVU978
	.loc 1 191 133 view .LVU979
	.loc 1 191 381 view .LVU980
	.loc 1 191 1426 view .LVU981
	.loc 1 191 1491 view .LVU982
	.loc 1 191 1515 view .LVU983
	.loc 1 191 1567 view .LVU984
	.loc 1 191 1578 view .LVU985
	.loc 1 191 1688 view .LVU986
	.loc 1 191 1704 view .LVU987
	.loc 1 191 1744 view .LVU988
	.loc 1 191 1769 view .LVU989
	.loc 1 191 3054 view .LVU990
	.loc 1 191 3095 view .LVU991
	.loc 1 191 9 view .LVU992
	.loc 1 191 32 view .LVU993
	.loc 1 191 131 view .LVU994
	.loc 1 191 8 view .LVU995
	.loc 1 191 13 view .LVU996
	.loc 1 191 238 view .LVU997
	.loc 1 191 1191 view .LVU998
	.loc 1 191 1256 view .LVU999
	.loc 1 191 1280 view .LVU1000
	.loc 1 191 1309 view .LVU1001
	.loc 1 191 1320 view .LVU1002
	.loc 1 191 1407 view .LVU1003
	.loc 1 191 1423 view .LVU1004
	.loc 1 191 1463 view .LVU1005
	.loc 1 191 1488 view .LVU1006
	.loc 1 191 2727 view .LVU1007
	.loc 1 191 2768 view .LVU1008
	.loc 1 191 9 view .LVU1009
	.loc 1 191 32 view .LVU1010
	.loc 1 191 11 view .LVU1011
	.loc 1 191 8 view .LVU1012
	.loc 1 191 13 view .LVU1013
	.loc 1 191 238 view .LVU1014
	.loc 1 191 1191 view .LVU1015
	.loc 1 191 1256 view .LVU1016
	.loc 1 191 1280 view .LVU1017
	.loc 1 191 1309 view .LVU1018
	.loc 1 191 1320 view .LVU1019
	.loc 1 191 1407 view .LVU1020
	.loc 1 191 1423 view .LVU1021
	.loc 1 191 1463 view .LVU1022
	.loc 1 191 2727 view .LVU1023
	.loc 1 191 2768 view .LVU1024
	.loc 1 191 9 view .LVU1025
	.loc 1 191 32 view .LVU1026
	.loc 1 191 11 view .LVU1027
	.loc 1 191 7 view .LVU1028
	.loc 1 191 30 view .LVU1029
	.loc 1 191 54 view .LVU1030
	.loc 1 191 82 view .LVU1031
	.loc 1 191 258 view .LVU1032
	.loc 1 191 18 view .LVU1033
.LBB1566:
.LBB1559:
.LBB1552:
.LBB1545:
	.loc 1 191 31 view .LVU1034
	.loc 1 191 5 view .LVU1035
	.loc 1 191 5 view .LVU1036
	.loc 1 191 72 view .LVU1037
	.loc 1 191 84 is_stmt 0 view .LVU1038
	sub	sp, sp, #32
.LBE1545:
.LBE1552:
.LBE1559:
.LBE1566:
	.loc 1 189 52 view .LVU1039
	mov	r4, r0
.LBB1567:
.LBB1560:
.LBB1553:
.LBB1546:
	.loc 1 191 84 view .LVU1040
	mov	r2, sp
.LVL79:
	.loc 1 191 76 is_stmt 1 view .LVU1041
	.loc 1 191 486 view .LVU1042
	.loc 1 191 7 view .LVU1043
	.loc 1 191 9 view .LVU1044
	.loc 1 191 14 view .LVU1045
	.loc 1 191 12 view .LVU1046
	.loc 1 191 7 view .LVU1047
	.loc 1 191 25 view .LVU1048
.LBB1537:
	.loc 1 191 5 view .LVU1049
	.loc 1 191 370 view .LVU1050
	.loc 1 191 77 view .LVU1051
.LVL80:
	.loc 1 191 4 view .LVU1052
	.loc 1 191 4 view .LVU1053
	.loc 1 191 4 view .LVU1054
	.loc 1 191 40 view .LVU1055
	.loc 1 191 69 view .LVU1056
	.loc 1 191 95 view .LVU1057
	.loc 1 191 121 view .LVU1058
	.loc 1 191 1034 view .LVU1059
	.loc 1 191 1096 view .LVU1060
	.loc 1 191 2083 view .LVU1061
	.loc 1 191 2148 view .LVU1062
	.loc 1 191 2173 view .LVU1063
	.loc 1 191 2174 view .LVU1064
	.loc 1 191 2176 view .LVU1065
	.loc 1 191 2206 view .LVU1066
	.loc 1 191 2236 view .LVU1067
	.loc 1 191 2268 view .LVU1068
	.loc 1 191 2300 view .LVU1069
	.loc 1 191 2332 view .LVU1070
	.loc 1 191 2529 view .LVU1071
	.loc 1 191 2553 view .LVU1072
	.loc 1 191 2554 view .LVU1073
	.loc 1 191 2556 view .LVU1074
	.loc 1 191 2585 view .LVU1075
	.loc 1 191 2614 view .LVU1076
	.loc 1 191 2645 view .LVU1077
	.loc 1 191 2676 view .LVU1078
	.loc 1 191 2707 view .LVU1079
	.loc 1 191 2914 view .LVU1080
.LBB1538:
	.loc 1 191 3092 view .LVU1081
	.loc 1 191 3097 view .LVU1082
	.loc 1 191 3679 view .LVU1083
	.loc 1 191 0 is_stmt 0 view .LVU1084
	ldr	r3, .L86
	str	r3, [r2, #20]
	.loc 1 191 3095 is_stmt 1 view .LVU1085
	.loc 1 191 9 view .LVU1086
.LVL81:
	.loc 1 191 32 view .LVU1087
	.loc 1 191 32 is_stmt 0 view .LVU1088
.LBE1538:
	.loc 1 191 131 is_stmt 1 view .LVU1089
	.loc 1 191 8 view .LVU1090
.LBB1539:
	.loc 1 191 13 view .LVU1091
	.loc 1 191 238 view .LVU1092
	.loc 1 191 1191 view .LVU1093
	.loc 1 191 1256 view .LVU1094
.LBE1539:
.LBE1537:
.LBE1546:
.LBE1553:
.LBE1560:
.LBE1567:
	.loc 1 191 1280 view .LVU1095
	.loc 1 191 1309 view .LVU1096
	.loc 1 191 1320 view .LVU1097
	.loc 1 191 1407 view .LVU1098
.LBB1568:
.LBB1561:
.LBB1554:
.LBB1547:
.LBB1543:
.LBB1540:
	.loc 1 191 1423 view .LVU1099
	.loc 1 191 1463 view .LVU1100
	.loc 1 191 1488 view .LVU1101
	.loc 1 191 2727 view .LVU1102
	.loc 1 191 2765 view .LVU1103
	.loc 1 191 2770 view .LVU1104
	.loc 1 191 3214 view .LVU1105
	.loc 1 191 3813 is_stmt 0 view .LVU1106
	ldr	r3, .L86+4
.LBE1540:
.LBB1541:
	.loc 1 191 3813 view .LVU1107
	strd	r3, r0, [r2, #24]
	.loc 1 191 2768 is_stmt 1 view .LVU1108
	.loc 1 191 9 view .LVU1109
.LVL82:
	.loc 1 191 32 view .LVU1110
	.loc 1 191 32 is_stmt 0 view .LVU1111
.LBE1541:
	.loc 1 191 11 is_stmt 1 view .LVU1112
	.loc 1 191 7 view .LVU1113
	.loc 1 191 30 view .LVU1114
	.loc 1 191 54 view .LVU1115
	.loc 1 191 82 view .LVU1116
.LBE1543:
.LBE1547:
.LBE1554:
.LBE1561:
.LBE1568:
	.loc 1 191 8 view .LVU1117
	.loc 1 191 47 view .LVU1118
	.loc 1 191 52 view .LVU1119
	.loc 1 191 82 view .LVU1120
	.loc 1 191 149 view .LVU1121
	.loc 1 191 154 view .LVU1122
	.loc 1 191 184 view .LVU1123
.LBB1569:
.LBB1562:
.LBB1555:
.LBB1548:
.LBB1544:
	.loc 1 191 258 view .LVU1124
	.loc 1 191 18 view .LVU1125
.LBB1542:
	.loc 1 191 8 view .LVU1126
	.loc 1 191 166 view .LVU1127
	.loc 1 191 168 view .LVU1128
	.loc 1 191 178 is_stmt 0 view .LVU1129
	movs	r3, #4
	str	r3, [r2, #16]!
.LVL83:
	.loc 1 191 178 view .LVU1130
.LBE1542:
.LBE1544:
	.loc 1 191 28 is_stmt 1 view .LVU1131
	.loc 1 191 9 view .LVU1132
	.loc 1 191 149 view .LVU1133
	.loc 1 191 151 view .LVU1134
	ldr	r0, .L86+8
.LVL84:
	.loc 1 191 151 is_stmt 0 view .LVU1135
	mov	r1, #8448
	bl	z_log_msg_static_create.constprop.0
.LVL85:
	.loc 1 191 151 view .LVU1136
.LBE1548:
.LBE1555:
.LBE1562:
.LBE1569:
	.loc 1 192 5 view .LVU1137
	cmp	r4, #7
.LBB1570:
.LBB1563:
.LBB1556:
.LBB1549:
	mov	sp, r5
.LVL86:
	.loc 1 192 5 view .LVU1138
.LBE1549:
	.loc 1 191 109 is_stmt 1 view .LVU1139
	.loc 1 191 7 view .LVU1140
	.loc 1 191 44 view .LVU1141
.LBE1556:
	.loc 1 191 8 view .LVU1142
.LBE1563:
	.loc 1 191 280 view .LVU1143
	.loc 1 191 7 view .LVU1144
	.loc 1 191 20 view .LVU1145
.LBE1570:
	.loc 1 191 8 view .LVU1146
	.loc 1 192 5 view .LVU1147
	beq	.L48
	cmp	r4, #12
	beq	.L49
	.loc 1 200 5 view .LVU1148
.LBB1571:
	.loc 1 200 10 view .LVU1149
	.loc 1 200 59 view .LVU1150
	.loc 1 200 16 view .LVU1151
	.loc 1 200 4 view .LVU1152
.LVL87:
	.loc 1 200 43 view .LVU1153
	.loc 1 200 178 view .LVU1154
	.loc 1 200 189 view .LVU1155
	.loc 1 200 277 view .LVU1156
.LBB1572:
	.loc 1 200 5 view .LVU1157
	.loc 1 200 7 view .LVU1158
	.loc 1 200 5 view .LVU1159
.LBB1573:
	.loc 1 200 10 view .LVU1160
	.loc 1 200 4 view .LVU1161
.LBE1573:
.LBE1572:
.LBE1571:
	.loc 1 200 5 view .LVU1162
	.loc 1 200 14 view .LVU1163
	.loc 1 200 109 view .LVU1164
	.loc 1 200 5 view .LVU1165
.LBB1596:
.LBB1591:
.LBB1586:
	.loc 1 200 14 view .LVU1166
	.loc 1 200 104 view .LVU1167
	.loc 1 200 106 view .LVU1168
.LBB1574:
	.loc 1 200 111 view .LVU1169
	.loc 1 200 122 view .LVU1170
	.loc 1 200 211 view .LVU1171
	.loc 1 200 28 view .LVU1172
.LBE1574:
.LBE1586:
.LBE1591:
.LBE1596:
	.loc 1 200 5 view .LVU1173
	.loc 1 200 370 view .LVU1174
	.loc 1 200 77 view .LVU1175
	.loc 1 200 4 view .LVU1176
	.loc 1 200 4 view .LVU1177
	.loc 1 200 4 view .LVU1178
	.loc 1 200 40 view .LVU1179
	.loc 1 200 6 view .LVU1180
	.loc 1 200 32 view .LVU1181
	.loc 1 200 58 view .LVU1182
	.loc 1 200 525 view .LVU1183
	.loc 1 200 587 view .LVU1184
	.loc 1 200 1108 view .LVU1185
	.loc 1 200 1173 view .LVU1186
	.loc 1 200 1198 view .LVU1187
	.loc 1 200 1199 view .LVU1188
	.loc 1 200 1201 view .LVU1189
	.loc 1 200 1231 view .LVU1190
	.loc 1 200 1261 view .LVU1191
	.loc 1 200 1293 view .LVU1192
	.loc 1 200 1325 view .LVU1193
	.loc 1 200 1357 view .LVU1194
	.loc 1 200 1554 view .LVU1195
	.loc 1 200 1578 view .LVU1196
	.loc 1 200 1579 view .LVU1197
	.loc 1 200 1581 view .LVU1198
	.loc 1 200 1610 view .LVU1199
	.loc 1 200 1639 view .LVU1200
	.loc 1 200 1670 view .LVU1201
	.loc 1 200 1701 view .LVU1202
	.loc 1 200 1732 view .LVU1203
	.loc 1 200 1939 view .LVU1204
	.loc 1 200 6 view .LVU1205
	.loc 1 200 24 view .LVU1206
	.loc 1 200 44 view .LVU1207
	.loc 1 200 6 view .LVU1208
	.loc 1 200 44 view .LVU1209
	.loc 1 200 15 view .LVU1210
	.loc 1 200 15 view .LVU1211
	.loc 1 200 63 view .LVU1212
	.loc 1 200 94 view .LVU1213
	.loc 1 200 128 view .LVU1214
	.loc 1 200 133 view .LVU1215
	.loc 1 200 382 view .LVU1216
	.loc 1 200 1431 view .LVU1217
	.loc 1 200 1496 view .LVU1218
	.loc 1 200 1520 view .LVU1219
	.loc 1 200 1573 view .LVU1220
	.loc 1 200 1584 view .LVU1221
	.loc 1 200 1695 view .LVU1222
	.loc 1 200 1711 view .LVU1223
	.loc 1 200 1751 view .LVU1224
	.loc 1 200 1776 view .LVU1225
	.loc 1 200 3063 view .LVU1226
	.loc 1 200 3104 view .LVU1227
	.loc 1 200 9 view .LVU1228
	.loc 1 200 32 view .LVU1229
	.loc 1 200 131 view .LVU1230
	.loc 1 200 8 view .LVU1231
	.loc 1 200 13 view .LVU1232
	.loc 1 200 238 view .LVU1233
	.loc 1 200 1191 view .LVU1234
	.loc 1 200 1256 view .LVU1235
	.loc 1 200 1280 view .LVU1236
	.loc 1 200 1309 view .LVU1237
	.loc 1 200 1320 view .LVU1238
	.loc 1 200 1407 view .LVU1239
	.loc 1 200 1423 view .LVU1240
	.loc 1 200 1463 view .LVU1241
	.loc 1 200 2727 view .LVU1242
	.loc 1 200 2768 view .LVU1243
	.loc 1 200 9 view .LVU1244
	.loc 1 200 32 view .LVU1245
	.loc 1 200 11 view .LVU1246
	.loc 1 200 7 view .LVU1247
	.loc 1 200 30 view .LVU1248
	.loc 1 200 54 view .LVU1249
	.loc 1 200 82 view .LVU1250
	.loc 1 200 258 view .LVU1251
	.loc 1 200 18 view .LVU1252
.LBB1597:
.LBB1592:
.LBB1587:
.LBB1582:
	.loc 1 200 31 view .LVU1253
	.loc 1 200 5 view .LVU1254
	.loc 1 200 5 view .LVU1255
	.loc 1 200 72 view .LVU1256
	.loc 1 200 84 is_stmt 0 view .LVU1257
	sub	sp, sp, #32
.LVL88:
	.loc 1 200 84 view .LVU1258
	mov	r2, sp
.LVL89:
	.loc 1 200 76 is_stmt 1 view .LVU1259
	.loc 1 200 486 view .LVU1260
	.loc 1 200 7 view .LVU1261
	.loc 1 200 9 view .LVU1262
	.loc 1 200 14 view .LVU1263
	.loc 1 200 12 view .LVU1264
	.loc 1 200 7 view .LVU1265
	.loc 1 200 25 view .LVU1266
.LBB1575:
	.loc 1 200 5 view .LVU1267
	.loc 1 200 370 view .LVU1268
	.loc 1 200 77 view .LVU1269
.LVL90:
	.loc 1 200 4 view .LVU1270
	.loc 1 200 4 view .LVU1271
	.loc 1 200 4 view .LVU1272
	.loc 1 200 40 view .LVU1273
	.loc 1 200 69 view .LVU1274
	.loc 1 200 95 view .LVU1275
	.loc 1 200 121 view .LVU1276
	.loc 1 200 588 view .LVU1277
	.loc 1 200 650 view .LVU1278
	.loc 1 200 1171 view .LVU1279
	.loc 1 200 1236 view .LVU1280
	.loc 1 200 1261 view .LVU1281
	.loc 1 200 1262 view .LVU1282
	.loc 1 200 1264 view .LVU1283
	.loc 1 200 1294 view .LVU1284
	.loc 1 200 1324 view .LVU1285
	.loc 1 200 1356 view .LVU1286
	.loc 1 200 1388 view .LVU1287
	.loc 1 200 1420 view .LVU1288
	.loc 1 200 1617 view .LVU1289
	.loc 1 200 1641 view .LVU1290
	.loc 1 200 1642 view .LVU1291
	.loc 1 200 1644 view .LVU1292
	.loc 1 200 1673 view .LVU1293
	.loc 1 200 1702 view .LVU1294
	.loc 1 200 1733 view .LVU1295
	.loc 1 200 1764 view .LVU1296
	.loc 1 200 1795 view .LVU1297
	.loc 1 200 2002 view .LVU1298
.LBB1576:
	.loc 1 200 3101 view .LVU1299
	.loc 1 200 3106 view .LVU1300
	.loc 1 200 3694 view .LVU1301
	.loc 1 200 0 is_stmt 0 view .LVU1302
	ldr	r3, .L86+12
.LBE1576:
.LBB1577:
	.loc 1 200 3813 view .LVU1303
	strd	r3, r4, [r2, #20]
	b	.L78
.LVL91:
.L48:
	.loc 1 200 3813 view .LVU1304
.LBE1577:
.LBE1575:
.LBE1582:
.LBE1587:
.LBE1592:
.LBE1597:
	.loc 1 194 9 is_stmt 1 view .LVU1305
.LBB1598:
.LBI1598:
	.loc 1 121 12 view .LVU1306
.LBB1599:
	.loc 1 122 5 view .LVU1307
	.loc 1 122 29 is_stmt 0 view .LVU1308
	ldr	r3, .L86+16
	ldrb	r3, [r3]	@ zero_extendqisi2
	.loc 1 122 5 view .LVU1309
	cbz	r3, .L51
	cmp	r3, #1
	beq	.L52
.L77:
.LBE1599:
.LBE1598:
.LBB1604:
.LBB1605:
	.loc 1 185 5 is_stmt 1 view .LVU1310
.LBB1606:
	.loc 1 185 10 view .LVU1311
	.loc 1 185 59 view .LVU1312
	.loc 1 185 16 view .LVU1313
	.loc 1 185 4 view .LVU1314
.LVL92:
	.loc 1 185 43 view .LVU1315
	.loc 1 185 178 view .LVU1316
	.loc 1 185 189 view .LVU1317
	.loc 1 185 277 view .LVU1318
.LBB1607:
	.loc 1 185 5 view .LVU1319
	.loc 1 185 7 view .LVU1320
	.loc 1 185 5 view .LVU1321
.LBB1608:
	.loc 1 185 10 view .LVU1322
	.loc 1 185 4 view .LVU1323
	.loc 1 185 14 view .LVU1324
	.loc 1 185 104 view .LVU1325
	.loc 1 185 106 view .LVU1326
.LBB1609:
	.loc 1 185 111 view .LVU1327
	.loc 1 185 122 view .LVU1328
	.loc 1 185 211 view .LVU1329
	.loc 1 185 28 view .LVU1330
	.loc 1 185 31 view .LVU1331
	.loc 1 185 5 view .LVU1332
	.loc 1 185 5 view .LVU1333
	.loc 1 185 72 view .LVU1334
	.loc 1 185 84 is_stmt 0 view .LVU1335
	sub	sp, sp, #32
	mov	r2, sp
.LVL93:
	.loc 1 185 76 is_stmt 1 view .LVU1336
	.loc 1 185 486 view .LVU1337
	.loc 1 185 7 view .LVU1338
	.loc 1 185 9 view .LVU1339
	.loc 1 185 14 view .LVU1340
	.loc 1 185 12 view .LVU1341
	.loc 1 185 7 view .LVU1342
	.loc 1 185 25 view .LVU1343
.LBB1610:
	.loc 1 185 5 view .LVU1344
	.loc 1 185 370 view .LVU1345
	.loc 1 185 77 view .LVU1346
.LVL94:
	.loc 1 185 4 view .LVU1347
	.loc 1 185 4 view .LVU1348
	.loc 1 185 4 view .LVU1349
	.loc 1 185 40 view .LVU1350
	.loc 1 185 69 view .LVU1351
	.loc 1 185 95 view .LVU1352
	.loc 1 185 121 view .LVU1353
	.loc 1 185 588 view .LVU1354
	.loc 1 185 650 view .LVU1355
	.loc 1 185 1171 view .LVU1356
	.loc 1 185 1236 view .LVU1357
	.loc 1 185 1261 view .LVU1358
	.loc 1 185 1262 view .LVU1359
	.loc 1 185 1264 view .LVU1360
	.loc 1 185 1294 view .LVU1361
	.loc 1 185 1324 view .LVU1362
	.loc 1 185 1356 view .LVU1363
	.loc 1 185 1388 view .LVU1364
	.loc 1 185 1420 view .LVU1365
	.loc 1 185 1617 view .LVU1366
	.loc 1 185 1641 view .LVU1367
	.loc 1 185 1642 view .LVU1368
	.loc 1 185 1644 view .LVU1369
	.loc 1 185 1673 view .LVU1370
	.loc 1 185 1702 view .LVU1371
	.loc 1 185 1733 view .LVU1372
	.loc 1 185 1764 view .LVU1373
	.loc 1 185 1795 view .LVU1374
	.loc 1 185 2002 view .LVU1375
.LBB1611:
	.loc 1 185 3155 view .LVU1376
	.loc 1 185 3160 view .LVU1377
	.loc 1 185 3784 view .LVU1378
	.loc 1 185 0 is_stmt 0 view .LVU1379
	ldr	r1, .L86+20
.LBE1611:
.LBE1610:
.LBE1609:
.LBE1608:
.LBE1607:
.LBE1606:
	.loc 1 156 29 view .LVU1380
	strd	r1, r3, [r2, #20]
.LBB1618:
.LBB1617:
.LBB1616:
.LBB1615:
.LBB1614:
.LBB1612:
	.loc 1 185 2768 is_stmt 1 view .LVU1381
	.loc 1 185 9 view .LVU1382
.LVL95:
	.loc 1 185 32 view .LVU1383
	.loc 1 185 32 is_stmt 0 view .LVU1384
.LBE1612:
	.loc 1 185 11 is_stmt 1 view .LVU1385
	.loc 1 185 7 view .LVU1386
	.loc 1 185 30 view .LVU1387
	.loc 1 185 54 view .LVU1388
	.loc 1 185 82 view .LVU1389
	.loc 1 185 258 view .LVU1390
	.loc 1 185 18 view .LVU1391
.LBB1613:
	.loc 1 185 8 view .LVU1392
	.loc 1 185 166 view .LVU1393
	.loc 1 185 168 view .LVU1394
.L78:
	.loc 1 185 168 is_stmt 0 view .LVU1395
.LBE1613:
.LBE1614:
.LBE1615:
.LBE1616:
.LBE1617:
.LBE1618:
.LBE1605:
.LBE1604:
.LBB1646:
.LBB1593:
.LBB1588:
.LBB1583:
.LBB1580:
.LBB1578:
	.loc 1 200 2768 is_stmt 1 view .LVU1396
	.loc 1 200 9 view .LVU1397
	.loc 1 200 32 view .LVU1398
	.loc 1 200 32 is_stmt 0 view .LVU1399
.LBE1578:
	.loc 1 200 11 is_stmt 1 view .LVU1400
	.loc 1 200 7 view .LVU1401
	.loc 1 200 30 view .LVU1402
	.loc 1 200 54 view .LVU1403
	.loc 1 200 82 view .LVU1404
.LBE1580:
.LBE1583:
.LBE1588:
.LBE1593:
.LBE1646:
	.loc 1 200 8 view .LVU1405
	.loc 1 200 47 view .LVU1406
	.loc 1 200 52 view .LVU1407
	.loc 1 200 82 view .LVU1408
	.loc 1 200 149 view .LVU1409
	.loc 1 200 154 view .LVU1410
	.loc 1 200 184 view .LVU1411
.LBB1647:
.LBB1594:
.LBB1589:
.LBB1584:
.LBB1581:
	.loc 1 200 258 view .LVU1412
	.loc 1 200 18 view .LVU1413
.LBB1579:
	.loc 1 200 8 view .LVU1414
	.loc 1 200 166 view .LVU1415
	.loc 1 200 168 view .LVU1416
	.loc 1 200 178 is_stmt 0 view .LVU1417
	movs	r3, #3
	str	r3, [r2, #16]!
.LVL96:
	.loc 1 200 178 view .LVU1418
.LBE1579:
.LBE1581:
	.loc 1 200 28 is_stmt 1 view .LVU1419
	.loc 1 200 9 view .LVU1420
	.loc 1 200 149 view .LVU1421
	.loc 1 200 151 view .LVU1422
	ldr	r0, .L86+8
	mov	r1, #6208
	bl	z_log_msg_static_create.constprop.0
.LVL97:
	.loc 1 200 151 is_stmt 0 view .LVU1423
.LBE1584:
.LBE1589:
.LBE1594:
.LBE1647:
	.loc 1 201 12 view .LVU1424
	mvn	r4, #133
.LVL98:
.LBB1648:
.LBB1595:
.LBB1590:
.LBB1585:
	.loc 1 201 12 view .LVU1425
	mov	sp, r5
.LBE1585:
	.loc 1 200 109 is_stmt 1 view .LVU1426
	.loc 1 200 7 view .LVU1427
.LVL99:
	.loc 1 200 44 view .LVU1428
.LBE1590:
	.loc 1 200 8 view .LVU1429
.LBE1595:
	.loc 1 200 280 view .LVU1430
	.loc 1 200 7 view .LVU1431
	.loc 1 200 20 view .LVU1432
.LBE1648:
	.loc 1 200 8 view .LVU1433
	.loc 1 201 5 view .LVU1434
	b	.L47
.LVL100:
.L51:
.LBB1649:
.LBB1602:
.LBB1600:
	.loc 1 125 9 view .LVU1435
	.loc 1 125 19 is_stmt 0 view .LVU1436
	bl	zmk_usb_hid_send_keyboard_report
.LVL101:
.L85:
	.loc 1 125 19 view .LVU1437
.LBE1600:
.LBE1602:
.LBE1649:
.LBB1650:
.LBB1643:
.LBB1619:
	.loc 1 160 9 is_stmt 1 view .LVU1438
	.loc 1 160 12 is_stmt 0 view .LVU1439
	mov	r4, r0
.LVL102:
	.loc 1 160 12 view .LVU1440
	cbz	r0, .L47
	.loc 1 161 13 is_stmt 1 view .LVU1441
.LBB1620:
	.loc 1 161 18 view .LVU1442
	.loc 1 161 67 view .LVU1443
	.loc 1 161 24 view .LVU1444
	.loc 1 161 12 view .LVU1445
.LVL103:
	.loc 1 161 51 view .LVU1446
	.loc 1 161 186 view .LVU1447
	.loc 1 161 197 view .LVU1448
	.loc 1 161 285 view .LVU1449
.LBB1621:
	.loc 1 161 13 view .LVU1450
	.loc 1 161 15 view .LVU1451
	.loc 1 161 13 view .LVU1452
.LBB1622:
	.loc 1 161 18 view .LVU1453
	.loc 1 161 12 view .LVU1454
	.loc 1 161 22 view .LVU1455
	.loc 1 161 112 view .LVU1456
	.loc 1 161 114 view .LVU1457
.LBB1623:
	.loc 1 161 119 view .LVU1458
	.loc 1 161 130 view .LVU1459
	.loc 1 161 219 view .LVU1460
	.loc 1 161 36 view .LVU1461
	.loc 1 161 39 view .LVU1462
	.loc 1 161 13 view .LVU1463
	.loc 1 161 13 view .LVU1464
	.loc 1 161 80 view .LVU1465
	.loc 1 161 92 is_stmt 0 view .LVU1466
	sub	sp, sp, #32
	mov	r2, sp
.LVL104:
	.loc 1 161 84 is_stmt 1 view .LVU1467
	.loc 1 161 494 view .LVU1468
	.loc 1 161 15 view .LVU1469
	.loc 1 161 17 view .LVU1470
	.loc 1 161 22 view .LVU1471
	.loc 1 161 20 view .LVU1472
	.loc 1 161 15 view .LVU1473
	.loc 1 161 33 view .LVU1474
.LBB1624:
	.loc 1 161 13 view .LVU1475
	.loc 1 161 378 view .LVU1476
	.loc 1 161 85 view .LVU1477
.LVL105:
	.loc 1 161 12 view .LVU1478
	.loc 1 161 12 view .LVU1479
	.loc 1 161 12 view .LVU1480
	.loc 1 161 48 view .LVU1481
	.loc 1 161 77 view .LVU1482
	.loc 1 161 103 view .LVU1483
	.loc 1 161 129 view .LVU1484
	.loc 1 161 596 view .LVU1485
	.loc 1 161 658 view .LVU1486
	.loc 1 161 1179 view .LVU1487
	.loc 1 161 1244 view .LVU1488
	.loc 1 161 1269 view .LVU1489
	.loc 1 161 1270 view .LVU1490
	.loc 1 161 1272 view .LVU1491
	.loc 1 161 1302 view .LVU1492
	.loc 1 161 1332 view .LVU1493
	.loc 1 161 1364 view .LVU1494
	.loc 1 161 1396 view .LVU1495
	.loc 1 161 1428 view .LVU1496
	.loc 1 161 1625 view .LVU1497
	.loc 1 161 1649 view .LVU1498
	.loc 1 161 1650 view .LVU1499
	.loc 1 161 1652 view .LVU1500
	.loc 1 161 1681 view .LVU1501
	.loc 1 161 1710 view .LVU1502
	.loc 1 161 1741 view .LVU1503
	.loc 1 161 1772 view .LVU1504
	.loc 1 161 1803 view .LVU1505
	.loc 1 161 2010 view .LVU1506
.LBB1625:
	.loc 1 161 3127 view .LVU1507
	.loc 1 161 3132 view .LVU1508
	.loc 1 161 3732 view .LVU1509
	.loc 1 161 0 is_stmt 0 view .LVU1510
	ldr	r3, .L86+24
.LVL106:
.L79:
	.loc 1 161 0 view .LVU1511
.LBE1625:
.LBE1624:
.LBE1623:
.LBE1622:
.LBE1621:
.LBE1620:
.LBE1619:
.LBB1626:
.LBB1627:
.LBB1628:
.LBB1629:
.LBB1630:
	.loc 1 175 159 view .LVU1512
	ldr	r0, .L86+8
.LBB1631:
.LBB1632:
	.loc 1 175 3821 view .LVU1513
	strd	r3, r4, [r2, #20]
	.loc 1 175 2776 is_stmt 1 view .LVU1514
	.loc 1 175 17 view .LVU1515
.LVL107:
	.loc 1 175 40 view .LVU1516
	.loc 1 175 40 is_stmt 0 view .LVU1517
.LBE1632:
	.loc 1 175 19 is_stmt 1 view .LVU1518
	.loc 1 175 15 view .LVU1519
	.loc 1 175 38 view .LVU1520
	.loc 1 175 62 view .LVU1521
	.loc 1 175 90 view .LVU1522
	.loc 1 175 266 view .LVU1523
	.loc 1 175 26 view .LVU1524
.LBB1633:
	.loc 1 175 16 view .LVU1525
	.loc 1 175 174 view .LVU1526
	.loc 1 175 176 view .LVU1527
	.loc 1 175 186 is_stmt 0 view .LVU1528
	movs	r3, #3
	str	r3, [r2, #16]!
.LVL108:
	.loc 1 175 186 view .LVU1529
.LBE1633:
.LBE1631:
	.loc 1 175 36 is_stmt 1 view .LVU1530
	.loc 1 175 17 view .LVU1531
	.loc 1 175 157 view .LVU1532
	.loc 1 175 159 view .LVU1533
	mov	r1, #6208
	bl	z_log_msg_static_create.constprop.0
.LVL109:
	.loc 1 175 159 is_stmt 0 view .LVU1534
	mov	sp, r5
.LBE1630:
	.loc 1 175 117 is_stmt 1 view .LVU1535
	.loc 1 175 15 view .LVU1536
.LVL110:
	.loc 1 175 52 view .LVU1537
.LBE1629:
	.loc 1 175 16 view .LVU1538
.LBE1628:
	.loc 1 175 288 view .LVU1539
	.loc 1 175 15 view .LVU1540
	.loc 1 175 28 view .LVU1541
.L47:
	.loc 1 175 28 is_stmt 0 view .LVU1542
.LBE1627:
.LBE1626:
.LBE1643:
.LBE1650:
	.loc 1 202 1 view .LVU1543
	mov	r0, r4
	mov	sp, r7
	.cfi_remember_state
	.cfi_def_cfa_register 13
	@ sp needed
	pop	{r4, r5, r7, pc}
.LVL111:
.L52:
	.cfi_restore_state
.LBB1651:
.LBB1603:
.LBB1601:
	.loc 1 138 9 is_stmt 1 view .LVU1544
	.loc 1 138 59 is_stmt 0 view .LVU1545
	bl	zmk_hid_get_keyboard_report
.LVL112:
	.loc 1 139 9 is_stmt 1 view .LVU1546
	.loc 1 139 19 is_stmt 0 view .LVU1547
	adds	r0, r0, #1
.LVL113:
	.loc 1 139 19 view .LVU1548
	bl	zmk_hog_send_keyboard_report
.LVL114:
.L82:
	.loc 1 139 19 view .LVU1549
.LBE1601:
.LBE1603:
.LBE1651:
.LBB1652:
.LBB1644:
.LBB1640:
	.loc 1 174 9 is_stmt 1 view .LVU1550
	.loc 1 174 12 is_stmt 0 view .LVU1551
	mov	r4, r0
.LVL115:
	.loc 1 174 12 view .LVU1552
	cmp	r0, #0
	beq	.L47
	.loc 1 175 13 is_stmt 1 view .LVU1553
.LBB1639:
	.loc 1 175 18 view .LVU1554
	.loc 1 175 67 view .LVU1555
	.loc 1 175 24 view .LVU1556
	.loc 1 175 12 view .LVU1557
.LVL116:
	.loc 1 175 51 view .LVU1558
	.loc 1 175 186 view .LVU1559
	.loc 1 175 197 view .LVU1560
	.loc 1 175 285 view .LVU1561
.LBB1638:
	.loc 1 175 13 view .LVU1562
	.loc 1 175 15 view .LVU1563
	.loc 1 175 13 view .LVU1564
.LBB1637:
	.loc 1 175 18 view .LVU1565
	.loc 1 175 12 view .LVU1566
	.loc 1 175 22 view .LVU1567
	.loc 1 175 112 view .LVU1568
	.loc 1 175 114 view .LVU1569
.LBB1636:
	.loc 1 175 119 view .LVU1570
	.loc 1 175 130 view .LVU1571
	.loc 1 175 219 view .LVU1572
	.loc 1 175 36 view .LVU1573
	.loc 1 175 39 view .LVU1574
	.loc 1 175 13 view .LVU1575
	.loc 1 175 13 view .LVU1576
	.loc 1 175 80 view .LVU1577
	.loc 1 175 92 is_stmt 0 view .LVU1578
	sub	sp, sp, #32
	mov	r2, sp
.LVL117:
	.loc 1 175 84 is_stmt 1 view .LVU1579
	.loc 1 175 494 view .LVU1580
	.loc 1 175 15 view .LVU1581
	.loc 1 175 17 view .LVU1582
	.loc 1 175 22 view .LVU1583
	.loc 1 175 20 view .LVU1584
	.loc 1 175 15 view .LVU1585
	.loc 1 175 33 view .LVU1586
.LBB1635:
	.loc 1 175 13 view .LVU1587
	.loc 1 175 378 view .LVU1588
	.loc 1 175 85 view .LVU1589
.LVL118:
	.loc 1 175 12 view .LVU1590
	.loc 1 175 12 view .LVU1591
	.loc 1 175 12 view .LVU1592
	.loc 1 175 48 view .LVU1593
	.loc 1 175 77 view .LVU1594
	.loc 1 175 103 view .LVU1595
	.loc 1 175 129 view .LVU1596
	.loc 1 175 596 view .LVU1597
	.loc 1 175 658 view .LVU1598
	.loc 1 175 1179 view .LVU1599
	.loc 1 175 1244 view .LVU1600
	.loc 1 175 1269 view .LVU1601
	.loc 1 175 1270 view .LVU1602
	.loc 1 175 1272 view .LVU1603
	.loc 1 175 1302 view .LVU1604
	.loc 1 175 1332 view .LVU1605
	.loc 1 175 1364 view .LVU1606
	.loc 1 175 1396 view .LVU1607
	.loc 1 175 1428 view .LVU1608
	.loc 1 175 1625 view .LVU1609
	.loc 1 175 1649 view .LVU1610
	.loc 1 175 1650 view .LVU1611
	.loc 1 175 1652 view .LVU1612
	.loc 1 175 1681 view .LVU1613
	.loc 1 175 1710 view .LVU1614
	.loc 1 175 1741 view .LVU1615
	.loc 1 175 1772 view .LVU1616
	.loc 1 175 1803 view .LVU1617
	.loc 1 175 2010 view .LVU1618
.LBB1634:
	.loc 1 175 3127 view .LVU1619
	.loc 1 175 3132 view .LVU1620
	.loc 1 175 3732 view .LVU1621
	.loc 1 175 0 is_stmt 0 view .LVU1622
	ldr	r3, .L86+28
	b	.L79
.LVL119:
.L49:
	.loc 1 175 0 view .LVU1623
.LBE1634:
.LBE1635:
.LBE1636:
.LBE1637:
.LBE1638:
.LBE1639:
.LBE1640:
.LBE1644:
.LBE1652:
	.loc 1 197 9 is_stmt 1 view .LVU1624
.LBB1653:
.LBI1604:
	.loc 1 155 12 view .LVU1625
.LBB1645:
	.loc 1 156 5 view .LVU1626
	.loc 1 156 29 is_stmt 0 view .LVU1627
	ldr	r3, .L86+16
	ldrb	r3, [r3]	@ zero_extendqisi2
	.loc 1 156 5 view .LVU1628
	cbz	r3, .L58
	cmp	r3, #1
	bne	.L77
.LBB1641:
	.loc 1 172 9 is_stmt 1 view .LVU1629
	.loc 1 172 59 is_stmt 0 view .LVU1630
	bl	zmk_hid_get_consumer_report
.LVL120:
	.loc 1 173 9 is_stmt 1 view .LVU1631
	.loc 1 173 19 is_stmt 0 view .LVU1632
	adds	r0, r0, #1
.LVL121:
	.loc 1 173 19 view .LVU1633
	bl	zmk_hog_send_consumer_report
.LVL122:
	.loc 1 173 19 view .LVU1634
	b	.L82
.LVL123:
.L58:
	.loc 1 173 19 view .LVU1635
.LBE1641:
.LBB1642:
	.loc 1 159 9 is_stmt 1 view .LVU1636
	.loc 1 159 19 is_stmt 0 view .LVU1637
	bl	zmk_usb_hid_send_consumer_report
.LVL124:
	b	.L85
.L87:
	.align	2
.L86:
	.word	.LC9
	.word	__func__.1
	.word	log_const_zmk
	.word	.LC13
	.word	current_instance
	.word	.LC12
	.word	.LC10
	.word	.LC11
.LBE1642:
.LBE1645:
.LBE1653:
	.cfi_endproc
.LFE505:
	.size	zmk_endpoints_send_report, .-zmk_endpoints_send_report
	.section	.text.zmk_endpoints_send_mouse_report,"ax",%progbits
	.align	1
	.global	zmk_endpoints_send_mouse_report
	.syntax unified
	.thumb
	.thumb_func
	.type	zmk_endpoints_send_mouse_report, %function
zmk_endpoints_send_mouse_report:
.LFB506:
	.loc 1 205 39 is_stmt 1 view -0
	.cfi_startproc
	@ args = 0, pretend = 0, frame = 0
	@ frame_needed = 1, uses_anonymous_args = 0
	.loc 1 206 5 view .LVU1639
	.loc 1 205 39 is_stmt 0 view .LVU1640
	push	{r4, r5, r7, lr}
	.cfi_def_cfa_offset 16
	.cfi_offset 4, -16
	.cfi_offset 5, -12
	.cfi_offset 7, -8
	.cfi_offset 14, -4
	.loc 1 206 29 view .LVU1641
	ldr	r3, .L99
	ldrb	r3, [r3]	@ zero_extendqisi2
	.loc 1 205 39 view .LVU1642
	add	r7, sp, #0
	.cfi_def_cfa_register 7
	.loc 1 206 5 view .LVU1643
	cbz	r3, .L89
	cmp	r3, #1
	beq	.L90
	.loc 1 235 5 is_stmt 1 view .LVU1644
.LBB1654:
	.loc 1 235 10 view .LVU1645
	.loc 1 235 59 view .LVU1646
	.loc 1 235 16 view .LVU1647
	.loc 1 235 4 view .LVU1648
.LVL125:
	.loc 1 235 43 view .LVU1649
	.loc 1 235 178 view .LVU1650
	.loc 1 235 189 view .LVU1651
	.loc 1 235 277 view .LVU1652
.LBB1655:
	.loc 1 235 5 view .LVU1653
	.loc 1 235 7 view .LVU1654
	.loc 1 235 5 view .LVU1655
.LBB1656:
	.loc 1 235 10 view .LVU1656
	.loc 1 235 4 view .LVU1657
.LBE1656:
.LBE1655:
.LBE1654:
	.loc 1 235 5 view .LVU1658
	.loc 1 235 14 view .LVU1659
	.loc 1 235 109 view .LVU1660
	.loc 1 235 5 view .LVU1661
.LBB1675:
.LBB1671:
.LBB1667:
	.loc 1 235 14 view .LVU1662
	.loc 1 235 104 view .LVU1663
	.loc 1 235 106 view .LVU1664
.LBB1657:
	.loc 1 235 109 is_stmt 0 view .LVU1665
	mov	r4, sp
	.loc 1 235 111 is_stmt 1 view .LVU1666
	.loc 1 235 122 view .LVU1667
.LVL126:
	.loc 1 235 211 view .LVU1668
	.loc 1 235 28 view .LVU1669
.LBE1657:
.LBE1667:
.LBE1671:
.LBE1675:
	.loc 1 235 5 view .LVU1670
	.loc 1 235 370 view .LVU1671
	.loc 1 235 77 view .LVU1672
	.loc 1 235 4 view .LVU1673
	.loc 1 235 4 view .LVU1674
	.loc 1 235 4 view .LVU1675
	.loc 1 235 40 view .LVU1676
	.loc 1 235 6 view .LVU1677
	.loc 1 235 32 view .LVU1678
	.loc 1 235 58 view .LVU1679
	.loc 1 235 525 view .LVU1680
	.loc 1 235 587 view .LVU1681
	.loc 1 235 1108 view .LVU1682
	.loc 1 235 1173 view .LVU1683
	.loc 1 235 1198 view .LVU1684
	.loc 1 235 1199 view .LVU1685
	.loc 1 235 1201 view .LVU1686
	.loc 1 235 1231 view .LVU1687
	.loc 1 235 1261 view .LVU1688
	.loc 1 235 1293 view .LVU1689
	.loc 1 235 1325 view .LVU1690
	.loc 1 235 1357 view .LVU1691
	.loc 1 235 1554 view .LVU1692
	.loc 1 235 1578 view .LVU1693
	.loc 1 235 1579 view .LVU1694
	.loc 1 235 1581 view .LVU1695
	.loc 1 235 1610 view .LVU1696
	.loc 1 235 1639 view .LVU1697
	.loc 1 235 1670 view .LVU1698
	.loc 1 235 1701 view .LVU1699
	.loc 1 235 1732 view .LVU1700
	.loc 1 235 1939 view .LVU1701
	.loc 1 235 6 view .LVU1702
	.loc 1 235 24 view .LVU1703
	.loc 1 235 44 view .LVU1704
	.loc 1 235 6 view .LVU1705
	.loc 1 235 44 view .LVU1706
	.loc 1 235 15 view .LVU1707
	.loc 1 235 15 view .LVU1708
	.loc 1 235 63 view .LVU1709
	.loc 1 235 94 view .LVU1710
	.loc 1 235 128 view .LVU1711
	.loc 1 235 133 view .LVU1712
	.loc 1 235 388 view .LVU1713
	.loc 1 235 1461 view .LVU1714
	.loc 1 235 1526 view .LVU1715
	.loc 1 235 1550 view .LVU1716
	.loc 1 235 1609 view .LVU1717
	.loc 1 235 1620 view .LVU1718
	.loc 1 235 1737 view .LVU1719
	.loc 1 235 1753 view .LVU1720
	.loc 1 235 1793 view .LVU1721
	.loc 1 235 1818 view .LVU1722
	.loc 1 235 3117 view .LVU1723
	.loc 1 235 3158 view .LVU1724
	.loc 1 235 9 view .LVU1725
	.loc 1 235 32 view .LVU1726
	.loc 1 235 131 view .LVU1727
	.loc 1 235 8 view .LVU1728
	.loc 1 235 13 view .LVU1729
	.loc 1 235 238 view .LVU1730
	.loc 1 235 1191 view .LVU1731
	.loc 1 235 1256 view .LVU1732
	.loc 1 235 1280 view .LVU1733
	.loc 1 235 1309 view .LVU1734
	.loc 1 235 1320 view .LVU1735
	.loc 1 235 1407 view .LVU1736
	.loc 1 235 1423 view .LVU1737
	.loc 1 235 1463 view .LVU1738
	.loc 1 235 2727 view .LVU1739
	.loc 1 235 2768 view .LVU1740
	.loc 1 235 9 view .LVU1741
	.loc 1 235 32 view .LVU1742
	.loc 1 235 11 view .LVU1743
	.loc 1 235 7 view .LVU1744
	.loc 1 235 30 view .LVU1745
	.loc 1 235 54 view .LVU1746
	.loc 1 235 82 view .LVU1747
	.loc 1 235 258 view .LVU1748
	.loc 1 235 18 view .LVU1749
.LBB1676:
.LBB1672:
.LBB1668:
.LBB1664:
	.loc 1 235 31 view .LVU1750
	.loc 1 235 5 view .LVU1751
	.loc 1 235 5 view .LVU1752
	.loc 1 235 72 view .LVU1753
	.loc 1 235 84 is_stmt 0 view .LVU1754
	sub	sp, sp, #32
	mov	r2, sp
.LVL127:
	.loc 1 235 76 is_stmt 1 view .LVU1755
	.loc 1 235 486 view .LVU1756
	.loc 1 235 7 view .LVU1757
	.loc 1 235 9 view .LVU1758
	.loc 1 235 14 view .LVU1759
	.loc 1 235 12 view .LVU1760
	.loc 1 235 7 view .LVU1761
	.loc 1 235 25 view .LVU1762
.LBB1658:
	.loc 1 235 5 view .LVU1763
	.loc 1 235 370 view .LVU1764
	.loc 1 235 77 view .LVU1765
.LVL128:
	.loc 1 235 4 view .LVU1766
	.loc 1 235 4 view .LVU1767
	.loc 1 235 4 view .LVU1768
	.loc 1 235 40 view .LVU1769
	.loc 1 235 69 view .LVU1770
	.loc 1 235 95 view .LVU1771
	.loc 1 235 121 view .LVU1772
	.loc 1 235 588 view .LVU1773
	.loc 1 235 650 view .LVU1774
	.loc 1 235 1171 view .LVU1775
	.loc 1 235 1236 view .LVU1776
	.loc 1 235 1261 view .LVU1777
	.loc 1 235 1262 view .LVU1778
	.loc 1 235 1264 view .LVU1779
	.loc 1 235 1294 view .LVU1780
	.loc 1 235 1324 view .LVU1781
	.loc 1 235 1356 view .LVU1782
	.loc 1 235 1388 view .LVU1783
	.loc 1 235 1420 view .LVU1784
	.loc 1 235 1617 view .LVU1785
	.loc 1 235 1641 view .LVU1786
	.loc 1 235 1642 view .LVU1787
	.loc 1 235 1644 view .LVU1788
	.loc 1 235 1673 view .LVU1789
	.loc 1 235 1702 view .LVU1790
	.loc 1 235 1733 view .LVU1791
	.loc 1 235 1764 view .LVU1792
	.loc 1 235 1795 view .LVU1793
	.loc 1 235 2002 view .LVU1794
.LBB1659:
	.loc 1 235 3155 view .LVU1795
	.loc 1 235 3160 view .LVU1796
	.loc 1 235 3784 view .LVU1797
	.loc 1 235 0 is_stmt 0 view .LVU1798
	ldr	r1, .L99+4
.LBE1659:
.LBE1658:
	.loc 1 235 151 view .LVU1799
	ldr	r0, .L99+8
.LBE1664:
.LBE1668:
.LBE1672:
.LBE1676:
	.loc 1 206 29 view .LVU1800
	strd	r1, r3, [r2, #20]
.LBB1677:
.LBB1673:
.LBB1669:
.LBB1665:
.LBB1662:
.LBB1660:
	.loc 1 235 2768 is_stmt 1 view .LVU1801
	.loc 1 235 9 view .LVU1802
.LVL129:
	.loc 1 235 32 view .LVU1803
	.loc 1 235 32 is_stmt 0 view .LVU1804
.LBE1660:
	.loc 1 235 11 is_stmt 1 view .LVU1805
	.loc 1 235 7 view .LVU1806
	.loc 1 235 30 view .LVU1807
	.loc 1 235 54 view .LVU1808
	.loc 1 235 82 view .LVU1809
.LBE1662:
.LBE1665:
.LBE1669:
.LBE1673:
.LBE1677:
	.loc 1 235 8 view .LVU1810
	.loc 1 235 47 view .LVU1811
	.loc 1 235 52 view .LVU1812
	.loc 1 235 82 view .LVU1813
	.loc 1 235 149 view .LVU1814
	.loc 1 235 154 view .LVU1815
	.loc 1 235 184 view .LVU1816
.LBB1678:
.LBB1674:
.LBB1670:
.LBB1666:
.LBB1663:
	.loc 1 235 258 view .LVU1817
	.loc 1 235 18 view .LVU1818
.LBB1661:
	.loc 1 235 8 view .LVU1819
	.loc 1 235 166 view .LVU1820
	.loc 1 235 168 view .LVU1821
	.loc 1 235 178 is_stmt 0 view .LVU1822
	movs	r3, #3
.LVL130:
	.loc 1 235 178 view .LVU1823
	str	r3, [r2, #16]!
.LVL131:
	.loc 1 235 178 view .LVU1824
.LBE1661:
.LBE1663:
	.loc 1 235 28 is_stmt 1 view .LVU1825
	.loc 1 235 9 view .LVU1826
	.loc 1 235 149 view .LVU1827
	.loc 1 235 151 view .LVU1828
	mov	r1, #6208
	bl	z_log_msg_static_create.constprop.0
.LVL132:
	.loc 1 235 151 is_stmt 0 view .LVU1829
	mov	sp, r4
.LVL133:
	.loc 1 235 151 view .LVU1830
.LBE1666:
	.loc 1 235 109 is_stmt 1 view .LVU1831
	.loc 1 235 7 view .LVU1832
	.loc 1 235 44 view .LVU1833
.LBE1670:
	.loc 1 235 8 view .LVU1834
.LBE1674:
	.loc 1 235 280 view .LVU1835
	.loc 1 235 7 view .LVU1836
	.loc 1 235 20 view .LVU1837
.LBE1678:
	.loc 1 235 8 view .LVU1838
	.loc 1 236 5 view .LVU1839
	.loc 1 236 12 is_stmt 0 view .LVU1840
	mvn	r4, #133
.LVL134:
	.loc 1 236 12 view .LVU1841
	b	.L88
.LVL135:
.L89:
.LBB1679:
	.loc 1 209 9 is_stmt 1 view .LVU1842
	.loc 1 209 19 is_stmt 0 view .LVU1843
	bl	zmk_usb_hid_send_mouse_report
.LVL136:
	.loc 1 210 9 is_stmt 1 view .LVU1844
	.loc 1 210 12 is_stmt 0 view .LVU1845
	mov	r4, r0
	cbz	r0, .L88
	.loc 1 211 13 is_stmt 1 view .LVU1846
.LBB1680:
	.loc 1 211 18 view .LVU1847
	.loc 1 211 67 view .LVU1848
	.loc 1 211 24 view .LVU1849
	.loc 1 211 12 view .LVU1850
.LVL137:
	.loc 1 211 51 view .LVU1851
	.loc 1 211 186 view .LVU1852
	.loc 1 211 197 view .LVU1853
	.loc 1 211 285 view .LVU1854
.LBB1681:
	.loc 1 211 13 view .LVU1855
	.loc 1 211 15 view .LVU1856
	.loc 1 211 13 view .LVU1857
.LBB1682:
	.loc 1 211 18 view .LVU1858
	.loc 1 211 12 view .LVU1859
.LBE1682:
.LBE1681:
.LBE1680:
.LBE1679:
	.loc 1 211 13 view .LVU1860
	.loc 1 211 22 view .LVU1861
	.loc 1 211 117 view .LVU1862
	.loc 1 211 13 view .LVU1863
.LBB1693:
.LBB1691:
.LBB1689:
.LBB1687:
	.loc 1 211 22 view .LVU1864
	.loc 1 211 112 view .LVU1865
	.loc 1 211 114 view .LVU1866
.LBB1683:
	.loc 1 211 117 is_stmt 0 view .LVU1867
	mov	r5, sp
	.loc 1 211 119 is_stmt 1 view .LVU1868
	.loc 1 211 130 view .LVU1869
.LVL138:
	.loc 1 211 219 view .LVU1870
	.loc 1 211 36 view .LVU1871
.LBE1683:
.LBE1687:
.LBE1689:
.LBE1691:
.LBE1693:
	.loc 1 211 13 view .LVU1872
	.loc 1 211 378 view .LVU1873
	.loc 1 211 85 view .LVU1874
	.loc 1 211 12 view .LVU1875
	.loc 1 211 12 view .LVU1876
	.loc 1 211 12 view .LVU1877
	.loc 1 211 48 view .LVU1878
	.loc 1 211 14 view .LVU1879
	.loc 1 211 40 view .LVU1880
	.loc 1 211 66 view .LVU1881
	.loc 1 211 533 view .LVU1882
	.loc 1 211 595 view .LVU1883
	.loc 1 211 1116 view .LVU1884
	.loc 1 211 1181 view .LVU1885
	.loc 1 211 1206 view .LVU1886
	.loc 1 211 1207 view .LVU1887
	.loc 1 211 1209 view .LVU1888
	.loc 1 211 1239 view .LVU1889
	.loc 1 211 1269 view .LVU1890
	.loc 1 211 1301 view .LVU1891
	.loc 1 211 1333 view .LVU1892
	.loc 1 211 1365 view .LVU1893
	.loc 1 211 1562 view .LVU1894
	.loc 1 211 1586 view .LVU1895
	.loc 1 211 1587 view .LVU1896
	.loc 1 211 1589 view .LVU1897
	.loc 1 211 1618 view .LVU1898
	.loc 1 211 1647 view .LVU1899
	.loc 1 211 1678 view .LVU1900
	.loc 1 211 1709 view .LVU1901
	.loc 1 211 1740 view .LVU1902
	.loc 1 211 1947 view .LVU1903
	.loc 1 211 14 view .LVU1904
	.loc 1 211 32 view .LVU1905
	.loc 1 211 52 view .LVU1906
	.loc 1 211 14 view .LVU1907
	.loc 1 211 52 view .LVU1908
	.loc 1 211 23 view .LVU1909
	.loc 1 211 23 view .LVU1910
	.loc 1 211 71 view .LVU1911
	.loc 1 211 102 view .LVU1912
	.loc 1 211 136 view .LVU1913
	.loc 1 211 141 view .LVU1914
	.loc 1 211 392 view .LVU1915
	.loc 1 211 1449 view .LVU1916
	.loc 1 211 1514 view .LVU1917
	.loc 1 211 1538 view .LVU1918
	.loc 1 211 1593 view .LVU1919
	.loc 1 211 1604 view .LVU1920
	.loc 1 211 1717 view .LVU1921
	.loc 1 211 1733 view .LVU1922
	.loc 1 211 1773 view .LVU1923
	.loc 1 211 1798 view .LVU1924
	.loc 1 211 3089 view .LVU1925
	.loc 1 211 3130 view .LVU1926
	.loc 1 211 17 view .LVU1927
	.loc 1 211 40 view .LVU1928
	.loc 1 211 139 view .LVU1929
	.loc 1 211 16 view .LVU1930
	.loc 1 211 21 view .LVU1931
	.loc 1 211 246 view .LVU1932
	.loc 1 211 1199 view .LVU1933
	.loc 1 211 1264 view .LVU1934
	.loc 1 211 1288 view .LVU1935
	.loc 1 211 1317 view .LVU1936
	.loc 1 211 1328 view .LVU1937
	.loc 1 211 1415 view .LVU1938
	.loc 1 211 1431 view .LVU1939
	.loc 1 211 1471 view .LVU1940
	.loc 1 211 2735 view .LVU1941
	.loc 1 211 2776 view .LVU1942
	.loc 1 211 17 view .LVU1943
	.loc 1 211 40 view .LVU1944
	.loc 1 211 19 view .LVU1945
	.loc 1 211 15 view .LVU1946
	.loc 1 211 38 view .LVU1947
	.loc 1 211 62 view .LVU1948
	.loc 1 211 90 view .LVU1949
	.loc 1 211 266 view .LVU1950
	.loc 1 211 26 view .LVU1951
.LBB1694:
.LBB1692:
.LBB1690:
.LBB1688:
.LBB1686:
	.loc 1 211 39 view .LVU1952
	.loc 1 211 13 view .LVU1953
	.loc 1 211 13 view .LVU1954
	.loc 1 211 80 view .LVU1955
	.loc 1 211 92 is_stmt 0 view .LVU1956
	sub	sp, sp, #32
	mov	r2, sp
.LVL139:
	.loc 1 211 84 is_stmt 1 view .LVU1957
	.loc 1 211 494 view .LVU1958
	.loc 1 211 15 view .LVU1959
	.loc 1 211 17 view .LVU1960
	.loc 1 211 22 view .LVU1961
	.loc 1 211 20 view .LVU1962
	.loc 1 211 15 view .LVU1963
	.loc 1 211 33 view .LVU1964
.LBB1684:
	.loc 1 211 13 view .LVU1965
	.loc 1 211 378 view .LVU1966
	.loc 1 211 85 view .LVU1967
.LVL140:
	.loc 1 211 12 view .LVU1968
	.loc 1 211 12 view .LVU1969
	.loc 1 211 12 view .LVU1970
	.loc 1 211 48 view .LVU1971
	.loc 1 211 77 view .LVU1972
	.loc 1 211 103 view .LVU1973
	.loc 1 211 129 view .LVU1974
	.loc 1 211 596 view .LVU1975
	.loc 1 211 658 view .LVU1976
	.loc 1 211 1179 view .LVU1977
	.loc 1 211 1244 view .LVU1978
	.loc 1 211 1269 view .LVU1979
	.loc 1 211 1270 view .LVU1980
	.loc 1 211 1272 view .LVU1981
	.loc 1 211 1302 view .LVU1982
	.loc 1 211 1332 view .LVU1983
	.loc 1 211 1364 view .LVU1984
	.loc 1 211 1396 view .LVU1985
	.loc 1 211 1428 view .LVU1986
	.loc 1 211 1625 view .LVU1987
	.loc 1 211 1649 view .LVU1988
	.loc 1 211 1650 view .LVU1989
	.loc 1 211 1652 view .LVU1990
	.loc 1 211 1681 view .LVU1991
	.loc 1 211 1710 view .LVU1992
	.loc 1 211 1741 view .LVU1993
	.loc 1 211 1772 view .LVU1994
	.loc 1 211 1803 view .LVU1995
	.loc 1 211 2010 view .LVU1996
.LBB1685:
	.loc 1 211 3127 view .LVU1997
	.loc 1 211 3132 view .LVU1998
	.loc 1 211 3732 view .LVU1999
	.loc 1 211 0 is_stmt 0 view .LVU2000
	ldr	r3, .L99+12
.LVL141:
.L98:
	.loc 1 211 0 view .LVU2001
.LBE1685:
.LBE1684:
.LBE1686:
.LBE1688:
.LBE1690:
.LBE1692:
.LBE1694:
.LBB1695:
.LBB1696:
.LBB1697:
.LBB1698:
.LBB1699:
	.loc 1 225 159 view .LVU2002
	ldr	r0, .L99+8
.LBB1700:
.LBB1701:
	.loc 1 225 3821 view .LVU2003
	strd	r3, r4, [r2, #20]
	.loc 1 225 2776 is_stmt 1 view .LVU2004
	.loc 1 225 17 view .LVU2005
.LVL142:
	.loc 1 225 40 view .LVU2006
	.loc 1 225 40 is_stmt 0 view .LVU2007
.LBE1701:
	.loc 1 225 19 is_stmt 1 view .LVU2008
	.loc 1 225 15 view .LVU2009
	.loc 1 225 38 view .LVU2010
	.loc 1 225 62 view .LVU2011
	.loc 1 225 90 view .LVU2012
.LBE1700:
.LBE1699:
.LBE1698:
.LBE1697:
.LBE1696:
.LBE1695:
	.loc 1 225 16 view .LVU2013
	.loc 1 225 55 view .LVU2014
	.loc 1 225 60 view .LVU2015
	.loc 1 225 90 view .LVU2016
	.loc 1 225 157 view .LVU2017
	.loc 1 225 162 view .LVU2018
	.loc 1 225 192 view .LVU2019
.LBB1721:
.LBB1717:
.LBB1713:
.LBB1709:
.LBB1706:
.LBB1704:
	.loc 1 225 266 view .LVU2020
	.loc 1 225 26 view .LVU2021
.LBB1702:
	.loc 1 225 16 view .LVU2022
	.loc 1 225 174 view .LVU2023
	.loc 1 225 176 view .LVU2024
	.loc 1 225 186 is_stmt 0 view .LVU2025
	movs	r3, #3
	str	r3, [r2, #16]!
.LVL143:
	.loc 1 225 186 view .LVU2026
.LBE1702:
.LBE1704:
	.loc 1 225 36 is_stmt 1 view .LVU2027
	.loc 1 225 17 view .LVU2028
	.loc 1 225 157 view .LVU2029
	.loc 1 225 159 view .LVU2030
	mov	r1, #6208
	bl	z_log_msg_static_create.constprop.0
.LVL144:
	.loc 1 225 159 is_stmt 0 view .LVU2031
	mov	sp, r5
.LBE1706:
	.loc 1 225 117 is_stmt 1 view .LVU2032
	.loc 1 225 15 view .LVU2033
.LVL145:
	.loc 1 225 52 view .LVU2034
.LBE1709:
	.loc 1 225 16 view .LVU2035
.LBE1713:
	.loc 1 225 288 view .LVU2036
	.loc 1 225 15 view .LVU2037
	.loc 1 225 28 view .LVU2038
.L88:
	.loc 1 225 28 is_stmt 0 view .LVU2039
.LBE1717:
.LBE1721:
	.loc 1 237 1 view .LVU2040
	mov	r0, r4
	mov	sp, r7
	.cfi_remember_state
	.cfi_def_cfa_register 13
	@ sp needed
	pop	{r4, r5, r7, pc}
.L90:
	.cfi_restore_state
.LBB1722:
	.loc 1 222 9 is_stmt 1 view .LVU2041
	.loc 1 222 53 is_stmt 0 view .LVU2042
	bl	zmk_hid_get_mouse_report
.LVL146:
	.loc 1 223 9 is_stmt 1 view .LVU2043
	.loc 1 223 19 is_stmt 0 view .LVU2044
	adds	r0, r0, #1
.LVL147:
	.loc 1 223 19 view .LVU2045
	bl	zmk_hog_send_mouse_report
.LVL148:
	.loc 1 224 9 is_stmt 1 view .LVU2046
	.loc 1 224 12 is_stmt 0 view .LVU2047
	mov	r4, r0
	cmp	r0, #0
	beq	.L88
	.loc 1 225 13 is_stmt 1 view .LVU2048
.LBB1718:
	.loc 1 225 18 view .LVU2049
	.loc 1 225 67 view .LVU2050
	.loc 1 225 24 view .LVU2051
	.loc 1 225 12 view .LVU2052
.LVL149:
	.loc 1 225 51 view .LVU2053
	.loc 1 225 186 view .LVU2054
	.loc 1 225 197 view .LVU2055
	.loc 1 225 285 view .LVU2056
.LBB1714:
	.loc 1 225 13 view .LVU2057
	.loc 1 225 15 view .LVU2058
	.loc 1 225 13 view .LVU2059
.LBB1710:
	.loc 1 225 18 view .LVU2060
	.loc 1 225 12 view .LVU2061
.LBE1710:
.LBE1714:
.LBE1718:
.LBE1722:
	.loc 1 225 13 view .LVU2062
	.loc 1 225 22 view .LVU2063
	.loc 1 225 117 view .LVU2064
	.loc 1 225 13 view .LVU2065
.LBB1723:
.LBB1719:
.LBB1715:
.LBB1711:
	.loc 1 225 22 view .LVU2066
	.loc 1 225 112 view .LVU2067
	.loc 1 225 114 view .LVU2068
.LBB1707:
	.loc 1 225 117 is_stmt 0 view .LVU2069
	mov	r5, sp
	.loc 1 225 119 is_stmt 1 view .LVU2070
	.loc 1 225 130 view .LVU2071
.LVL150:
	.loc 1 225 219 view .LVU2072
	.loc 1 225 36 view .LVU2073
.LBE1707:
.LBE1711:
.LBE1715:
.LBE1719:
.LBE1723:
	.loc 1 225 13 view .LVU2074
	.loc 1 225 378 view .LVU2075
	.loc 1 225 85 view .LVU2076
	.loc 1 225 12 view .LVU2077
	.loc 1 225 12 view .LVU2078
	.loc 1 225 12 view .LVU2079
	.loc 1 225 48 view .LVU2080
	.loc 1 225 14 view .LVU2081
	.loc 1 225 40 view .LVU2082
	.loc 1 225 66 view .LVU2083
	.loc 1 225 533 view .LVU2084
	.loc 1 225 595 view .LVU2085
	.loc 1 225 1116 view .LVU2086
	.loc 1 225 1181 view .LVU2087
	.loc 1 225 1206 view .LVU2088
	.loc 1 225 1207 view .LVU2089
	.loc 1 225 1209 view .LVU2090
	.loc 1 225 1239 view .LVU2091
	.loc 1 225 1269 view .LVU2092
	.loc 1 225 1301 view .LVU2093
	.loc 1 225 1333 view .LVU2094
	.loc 1 225 1365 view .LVU2095
	.loc 1 225 1562 view .LVU2096
	.loc 1 225 1586 view .LVU2097
	.loc 1 225 1587 view .LVU2098
	.loc 1 225 1589 view .LVU2099
	.loc 1 225 1618 view .LVU2100
	.loc 1 225 1647 view .LVU2101
	.loc 1 225 1678 view .LVU2102
	.loc 1 225 1709 view .LVU2103
	.loc 1 225 1740 view .LVU2104
	.loc 1 225 1947 view .LVU2105
	.loc 1 225 14 view .LVU2106
	.loc 1 225 32 view .LVU2107
	.loc 1 225 52 view .LVU2108
	.loc 1 225 14 view .LVU2109
	.loc 1 225 52 view .LVU2110
	.loc 1 225 23 view .LVU2111
	.loc 1 225 23 view .LVU2112
	.loc 1 225 71 view .LVU2113
	.loc 1 225 102 view .LVU2114
	.loc 1 225 136 view .LVU2115
	.loc 1 225 141 view .LVU2116
	.loc 1 225 392 view .LVU2117
	.loc 1 225 1449 view .LVU2118
	.loc 1 225 1514 view .LVU2119
	.loc 1 225 1538 view .LVU2120
	.loc 1 225 1593 view .LVU2121
	.loc 1 225 1604 view .LVU2122
	.loc 1 225 1717 view .LVU2123
	.loc 1 225 1733 view .LVU2124
	.loc 1 225 1773 view .LVU2125
	.loc 1 225 1798 view .LVU2126
	.loc 1 225 3089 view .LVU2127
	.loc 1 225 3130 view .LVU2128
	.loc 1 225 17 view .LVU2129
	.loc 1 225 40 view .LVU2130
	.loc 1 225 139 view .LVU2131
	.loc 1 225 16 view .LVU2132
	.loc 1 225 21 view .LVU2133
	.loc 1 225 246 view .LVU2134
	.loc 1 225 1199 view .LVU2135
	.loc 1 225 1264 view .LVU2136
	.loc 1 225 1288 view .LVU2137
	.loc 1 225 1317 view .LVU2138
	.loc 1 225 1328 view .LVU2139
	.loc 1 225 1415 view .LVU2140
	.loc 1 225 1431 view .LVU2141
	.loc 1 225 1471 view .LVU2142
	.loc 1 225 2735 view .LVU2143
	.loc 1 225 2776 view .LVU2144
	.loc 1 225 17 view .LVU2145
	.loc 1 225 40 view .LVU2146
	.loc 1 225 19 view .LVU2147
	.loc 1 225 15 view .LVU2148
	.loc 1 225 38 view .LVU2149
	.loc 1 225 62 view .LVU2150
	.loc 1 225 90 view .LVU2151
	.loc 1 225 266 view .LVU2152
	.loc 1 225 26 view .LVU2153
.LBB1724:
.LBB1720:
.LBB1716:
.LBB1712:
.LBB1708:
	.loc 1 225 39 view .LVU2154
	.loc 1 225 13 view .LVU2155
	.loc 1 225 13 view .LVU2156
	.loc 1 225 80 view .LVU2157
	.loc 1 225 92 is_stmt 0 view .LVU2158
	sub	sp, sp, #32
	mov	r2, sp
.LVL151:
	.loc 1 225 84 is_stmt 1 view .LVU2159
	.loc 1 225 494 view .LVU2160
	.loc 1 225 15 view .LVU2161
	.loc 1 225 17 view .LVU2162
	.loc 1 225 22 view .LVU2163
	.loc 1 225 20 view .LVU2164
	.loc 1 225 15 view .LVU2165
	.loc 1 225 33 view .LVU2166
.LBB1705:
	.loc 1 225 13 view .LVU2167
	.loc 1 225 378 view .LVU2168
	.loc 1 225 85 view .LVU2169
.LVL152:
	.loc 1 225 12 view .LVU2170
	.loc 1 225 12 view .LVU2171
	.loc 1 225 12 view .LVU2172
	.loc 1 225 48 view .LVU2173
	.loc 1 225 77 view .LVU2174
	.loc 1 225 103 view .LVU2175
	.loc 1 225 129 view .LVU2176
	.loc 1 225 596 view .LVU2177
	.loc 1 225 658 view .LVU2178
	.loc 1 225 1179 view .LVU2179
	.loc 1 225 1244 view .LVU2180
	.loc 1 225 1269 view .LVU2181
	.loc 1 225 1270 view .LVU2182
	.loc 1 225 1272 view .LVU2183
	.loc 1 225 1302 view .LVU2184
	.loc 1 225 1332 view .LVU2185
	.loc 1 225 1364 view .LVU2186
	.loc 1 225 1396 view .LVU2187
	.loc 1 225 1428 view .LVU2188
	.loc 1 225 1625 view .LVU2189
	.loc 1 225 1649 view .LVU2190
	.loc 1 225 1650 view .LVU2191
	.loc 1 225 1652 view .LVU2192
	.loc 1 225 1681 view .LVU2193
	.loc 1 225 1710 view .LVU2194
	.loc 1 225 1741 view .LVU2195
	.loc 1 225 1772 view .LVU2196
	.loc 1 225 1803 view .LVU2197
	.loc 1 225 2010 view .LVU2198
.LBB1703:
	.loc 1 225 3127 view .LVU2199
	.loc 1 225 3132 view .LVU2200
	.loc 1 225 3732 view .LVU2201
	.loc 1 225 0 is_stmt 0 view .LVU2202
	ldr	r3, .L99+16
	b	.L98
.L100:
	.align	2
.L99:
	.word	current_instance
	.word	.LC12
	.word	log_const_zmk
	.word	.LC10
	.word	.LC11
.LBE1703:
.LBE1705:
.LBE1708:
.LBE1712:
.LBE1716:
.LBE1720:
.LBE1724:
	.cfi_endproc
.LFE506:
	.size	zmk_endpoints_send_mouse_report, .-zmk_endpoints_send_mouse_report
	.section	.text.zmk_endpoints_clear_current,"ax",%progbits
	.align	1
	.global	zmk_endpoints_clear_current
	.syntax unified
	.thumb
	.thumb_func
	.type	zmk_endpoints_clear_current, %function
zmk_endpoints_clear_current:
.LFB513:
	.loc 1 332 40 is_stmt 1 view -0
	.cfi_startproc
	@ args = 0, pretend = 0, frame = 0
	@ frame_needed = 0, uses_anonymous_args = 0
	.loc 1 333 5 view .LVU2204
	.loc 1 332 40 is_stmt 0 view .LVU2205
	push	{r3, lr}
	.cfi_def_cfa_offset 8
	.cfi_offset 3, -8
	.cfi_offset 14, -4
	.loc 1 333 5 view .LVU2206
	bl	zmk_hid_keyboard_clear
.LVL153:
	.loc 1 334 5 is_stmt 1 view .LVU2207
	bl	zmk_hid_consumer_clear
.LVL154:
	.loc 1 336 5 view .LVU2208
	bl	zmk_hid_mouse_clear
.LVL155:
	.loc 1 339 5 view .LVU2209
	movs	r0, #7
	bl	zmk_endpoints_send_report
.LVL156:
	.loc 1 340 5 view .LVU2210
	.loc 1 341 1 is_stmt 0 view .LVU2211
	pop	{r3, lr}
	.cfi_restore 14
	.cfi_restore 3
	.cfi_def_cfa_offset 0
	.loc 1 340 5 view .LVU2212
	movs	r0, #12
	b	zmk_endpoints_send_report
.LVL157:
	.cfi_endproc
.LFE513:
	.size	zmk_endpoints_clear_current, .-zmk_endpoints_clear_current
	.section	.rodata.update_current_endpoint.str1.1,"aMS",%progbits,1
.LC14:
	.ascii	"Endpoint changed: %s\000"
	.section	.text.update_current_endpoint,"ax",%progbits
	.align	1
	.syntax unified
	.thumb
	.thumb_func
	.type	update_current_endpoint, %function
update_current_endpoint:
.LFB514:
	.loc 1 343 43 is_stmt 1 view -0
	.cfi_startproc
	@ args = 0, pretend = 0, frame = 32
	@ frame_needed = 1, uses_anonymous_args = 0
	.loc 1 344 5 view .LVU2214
	.loc 1 343 43 is_stmt 0 view .LVU2215
	push	{r4, r5, r6, r7, lr}
	.cfi_def_cfa_offset 20
	.cfi_offset 4, -20
	.cfi_offset 5, -16
	.cfi_offset 6, -12
	.cfi_offset 7, -8
	.cfi_offset 14, -4
	sub	sp, sp, #36
	.cfi_def_cfa_offset 56
	add	r7, sp, #0
	.cfi_def_cfa_register 7
	.loc 1 344 49 view .LVU2216
	adds	r5, r7, #4
	.loc 1 346 10 view .LVU2217
	ldr	r4, .L104
	.loc 1 344 49 view .LVU2218
	mov	r0, r5
	bl	get_selected_instance
.LVL158:
	.loc 1 346 5 is_stmt 1 view .LVU2219
	.loc 1 346 10 is_stmt 0 view .LVU2220
	ldm	r4, {r2, r3}
	ldm	r5, {r0, r1}
	bl	zmk_endpoint_instance_eq
.LVL159:
	.loc 1 346 8 view .LVU2221
	cbnz	r0, .L102
.LBB1725:
	.loc 1 348 9 is_stmt 1 view .LVU2222
	bl	zmk_endpoints_clear_current
.LVL160:
	.loc 1 350 9 view .LVU2223
	.loc 1 350 26 is_stmt 0 view .LVU2224
	ldm	r5, {r0, r1}
	.loc 1 353 9 view .LVU2225
	add	r5, r7, #20
	movs	r3, #10
	mov	r2, r5
	.loc 1 350 26 view .LVU2226
	stm	r4, {r0, r1}
	.loc 1 352 9 is_stmt 1 view .LVU2227
	.loc 1 353 9 view .LVU2228
.LBB1726:
.LBB1727:
.LBB1728:
.LBB1729:
	.loc 1 354 113 is_stmt 0 view .LVU2229
	mov	r6, sp
.LBE1729:
.LBE1728:
.LBE1727:
.LBE1726:
	.loc 1 353 9 view .LVU2230
	bl	zmk_endpoint_instance_to_str
.LVL161:
	.loc 1 354 9 is_stmt 1 view .LVU2231
.LBB1753:
	.loc 1 354 14 view .LVU2232
	.loc 1 354 63 view .LVU2233
	.loc 1 354 20 view .LVU2234
	.loc 1 354 8 view .LVU2235
	.loc 1 354 47 view .LVU2236
	.loc 1 354 182 view .LVU2237
	.loc 1 354 193 view .LVU2238
	.loc 1 354 281 view .LVU2239
.LBB1748:
	.loc 1 354 9 view .LVU2240
	.loc 1 354 11 view .LVU2241
	.loc 1 354 9 view .LVU2242
.LBB1743:
	.loc 1 354 14 view .LVU2243
	.loc 1 354 8 view .LVU2244
.LBE1743:
.LBE1748:
.LBE1753:
.LBE1725:
	.loc 1 354 9 view .LVU2245
	.loc 1 354 18 view .LVU2246
	.loc 1 354 113 view .LVU2247
	.loc 1 354 9 view .LVU2248
.LBB1758:
.LBB1754:
.LBB1749:
.LBB1744:
	.loc 1 354 18 view .LVU2249
	.loc 1 354 108 view .LVU2250
	.loc 1 354 110 view .LVU2251
.LBB1739:
	.loc 1 354 115 view .LVU2252
	.loc 1 354 126 view .LVU2253
	.loc 1 354 215 view .LVU2254
	.loc 1 354 32 view .LVU2255
.LBE1739:
.LBE1744:
.LBE1749:
.LBE1754:
.LBE1758:
	.loc 1 354 9 view .LVU2256
	.loc 1 354 374 view .LVU2257
	.loc 1 354 81 view .LVU2258
	.loc 1 354 8 view .LVU2259
	.loc 1 354 8 view .LVU2260
	.loc 1 354 8 view .LVU2261
	.loc 1 354 44 view .LVU2262
	.loc 1 354 10 view .LVU2263
	.loc 1 354 36 view .LVU2264
	.loc 1 354 62 view .LVU2265
	.loc 1 354 529 view .LVU2266
	.loc 1 354 591 view .LVU2267
	.loc 1 354 1112 view .LVU2268
	.loc 1 354 1177 view .LVU2269
	.loc 1 354 1202 view .LVU2270
	.loc 1 354 1203 view .LVU2271
	.loc 1 354 1205 view .LVU2272
	.loc 1 354 1235 view .LVU2273
	.loc 1 354 1265 view .LVU2274
	.loc 1 354 1297 view .LVU2275
	.loc 1 354 1329 view .LVU2276
	.loc 1 354 1361 view .LVU2277
	.loc 1 354 1558 view .LVU2278
	.loc 1 354 1582 view .LVU2279
	.loc 1 354 1583 view .LVU2280
	.loc 1 354 1585 view .LVU2281
	.loc 1 354 1614 view .LVU2282
	.loc 1 354 1643 view .LVU2283
	.loc 1 354 1674 view .LVU2284
	.loc 1 354 1705 view .LVU2285
	.loc 1 354 1736 view .LVU2286
	.loc 1 354 1943 view .LVU2287
	.loc 1 354 10 view .LVU2288
	.loc 1 354 28 view .LVU2289
	.loc 1 354 48 view .LVU2290
	.loc 1 354 10 view .LVU2291
	.loc 1 354 48 view .LVU2292
	.loc 1 354 19 view .LVU2293
	.loc 1 354 19 view .LVU2294
	.loc 1 354 67 view .LVU2295
	.loc 1 354 98 view .LVU2296
	.loc 1 354 132 view .LVU2297
	.loc 1 354 137 view .LVU2298
	.loc 1 354 381 view .LVU2299
	.loc 1 354 1410 view .LVU2300
	.loc 1 354 1475 view .LVU2301
	.loc 1 354 1499 view .LVU2302
	.loc 1 354 1547 view .LVU2303
	.loc 1 354 1558 view .LVU2304
	.loc 1 354 1664 view .LVU2305
	.loc 1 354 1680 view .LVU2306
	.loc 1 354 1720 view .LVU2307
	.loc 1 354 1745 view .LVU2308
	.loc 1 354 3022 view .LVU2309
	.loc 1 354 3063 view .LVU2310
	.loc 1 354 13 view .LVU2311
	.loc 1 354 36 view .LVU2312
	.loc 1 354 135 view .LVU2313
	.loc 1 354 12 view .LVU2314
	.loc 1 354 17 view .LVU2315
	.loc 1 354 242 view .LVU2316
	.loc 1 354 1195 view .LVU2317
	.loc 1 354 1260 view .LVU2318
	.loc 1 354 1284 view .LVU2319
	.loc 1 354 1313 view .LVU2320
	.loc 1 354 1324 view .LVU2321
	.loc 1 354 1411 view .LVU2322
	.loc 1 354 1427 view .LVU2323
	.loc 1 354 1467 view .LVU2324
	.loc 1 354 1557 view .LVU2325
	.loc 1 354 1960 view .LVU2326
	.loc 1 354 2617 view .LVU2327
	.loc 1 354 2636 view .LVU2328
	.loc 1 354 2673 view .LVU2329
	.loc 1 354 2731 view .LVU2330
	.loc 1 354 2772 view .LVU2331
	.loc 1 354 13 view .LVU2332
	.loc 1 354 36 view .LVU2333
	.loc 1 354 15 view .LVU2334
	.loc 1 354 11 view .LVU2335
	.loc 1 354 34 view .LVU2336
	.loc 1 354 58 view .LVU2337
	.loc 1 354 86 view .LVU2338
	.loc 1 354 262 view .LVU2339
	.loc 1 354 22 view .LVU2340
.LBB1759:
.LBB1755:
.LBB1750:
.LBB1745:
.LBB1740:
	.loc 1 354 35 view .LVU2341
	.loc 1 354 9 view .LVU2342
	.loc 1 354 9 view .LVU2343
	.loc 1 354 76 view .LVU2344
	.loc 1 354 88 is_stmt 0 view .LVU2345
	sub	sp, sp, #32
	mov	r3, sp
.LVL162:
	.loc 1 354 80 is_stmt 1 view .LVU2346
	.loc 1 354 490 view .LVU2347
	.loc 1 354 11 view .LVU2348
	.loc 1 354 13 view .LVU2349
	.loc 1 354 18 view .LVU2350
	.loc 1 354 16 view .LVU2351
	.loc 1 354 11 view .LVU2352
	.loc 1 354 29 view .LVU2353
.LBB1730:
	.loc 1 354 9 view .LVU2354
	.loc 1 354 374 view .LVU2355
	.loc 1 354 81 view .LVU2356
.LVL163:
	.loc 1 354 8 view .LVU2357
	.loc 1 354 8 view .LVU2358
	.loc 1 354 8 view .LVU2359
	.loc 1 354 44 view .LVU2360
	.loc 1 354 73 view .LVU2361
	.loc 1 354 99 view .LVU2362
	.loc 1 354 125 view .LVU2363
	.loc 1 354 592 view .LVU2364
	.loc 1 354 654 view .LVU2365
	.loc 1 354 1175 view .LVU2366
	.loc 1 354 1240 view .LVU2367
	.loc 1 354 1265 view .LVU2368
	.loc 1 354 1266 view .LVU2369
	.loc 1 354 1268 view .LVU2370
	.loc 1 354 1298 view .LVU2371
	.loc 1 354 1328 view .LVU2372
	.loc 1 354 1360 view .LVU2373
	.loc 1 354 1392 view .LVU2374
	.loc 1 354 1424 view .LVU2375
	.loc 1 354 1621 view .LVU2376
	.loc 1 354 1645 view .LVU2377
	.loc 1 354 1646 view .LVU2378
	.loc 1 354 1648 view .LVU2379
	.loc 1 354 1677 view .LVU2380
	.loc 1 354 1706 view .LVU2381
	.loc 1 354 1737 view .LVU2382
	.loc 1 354 1768 view .LVU2383
	.loc 1 354 1799 view .LVU2384
	.loc 1 354 2006 view .LVU2385
.LBB1731:
	.loc 1 354 3060 view .LVU2386
	.loc 1 354 3065 view .LVU2387
	.loc 1 354 3623 view .LVU2388
	.loc 1 354 0 is_stmt 0 view .LVU2389
	ldr	r2, .L104+4
.LBE1731:
.LBE1730:
	.loc 1 354 155 view .LVU2390
	ldr	r0, .L104+8
.LBB1737:
.LBB1732:
	.loc 1 354 3817 view .LVU2391
	strd	r2, r5, [r3, #20]
	.loc 1 354 2772 is_stmt 1 view .LVU2392
	.loc 1 354 13 view .LVU2393
.LVL164:
	.loc 1 354 36 view .LVU2394
	.loc 1 354 36 is_stmt 0 view .LVU2395
.LBE1732:
	.loc 1 354 15 is_stmt 1 view .LVU2396
	.loc 1 354 11 view .LVU2397
	.loc 1 354 34 view .LVU2398
	.loc 1 354 58 view .LVU2399
	.loc 1 354 86 view .LVU2400
.LBB1733:
	.loc 1 354 12 view .LVU2401
	.loc 1 354 51 view .LVU2402
.LBE1733:
.LBE1737:
.LBE1740:
.LBE1745:
.LBE1750:
.LBE1755:
.LBE1759:
	.loc 1 354 56 view .LVU2403
	.loc 1 354 86 view .LVU2404
.LBB1760:
.LBB1756:
.LBB1751:
.LBB1746:
.LBB1741:
.LBB1738:
.LBB1735:
.LBB1734:
	.loc 1 354 188 view .LVU2405
	.loc 1 354 220 view .LVU2406
	.loc 1 354 214 view .LVU2407
	.loc 1 354 188 view .LVU2408
	.loc 1 354 220 view .LVU2409
	.loc 1 354 233 is_stmt 0 view .LVU2410
	mov	r2, #512
	strh	r2, [r3, #28]	@ movhi
	.loc 1 354 214 is_stmt 1 view .LVU2411
.LVL165:
	.loc 1 354 188 view .LVU2412
.LBE1734:
.LBE1735:
	.loc 1 354 262 view .LVU2413
	.loc 1 354 22 view .LVU2414
.LBB1736:
	.loc 1 354 12 view .LVU2415
	.loc 1 354 170 view .LVU2416
	.loc 1 354 172 view .LVU2417
	.loc 1 354 182 is_stmt 0 view .LVU2418
	mov	r2, r3
	ldr	r3, .L104+12
.LVL166:
	.loc 1 354 182 view .LVU2419
	str	r3, [r2, #16]!
.LVL167:
	.loc 1 354 182 view .LVU2420
.LBE1736:
.LBE1738:
	.loc 1 354 32 is_stmt 1 view .LVU2421
	.loc 1 354 13 view .LVU2422
	.loc 1 354 153 view .LVU2423
	.loc 1 354 155 view .LVU2424
	mov	r1, #7360
	bl	z_log_msg_static_create.constprop.0
.LVL168:
	.loc 1 354 155 is_stmt 0 view .LVU2425
.LBE1741:
.LBE1746:
.LBE1751:
.LBE1756:
	.loc 1 356 65 view .LVU2426
	ldm	r4, {r0, r1}
	add	r3, r7, #12
.LBB1757:
.LBB1752:
.LBB1747:
.LBB1742:
	mov	sp, r6
.LVL169:
	.loc 1 356 65 view .LVU2427
.LBE1742:
	.loc 1 354 113 is_stmt 1 view .LVU2428
	.loc 1 354 11 view .LVU2429
	.loc 1 354 48 view .LVU2430
.LBE1747:
	.loc 1 354 12 view .LVU2431
.LBE1752:
	.loc 1 354 284 view .LVU2432
	.loc 1 354 11 view .LVU2433
	.loc 1 354 24 view .LVU2434
.LBE1757:
	.loc 1 354 12 view .LVU2435
	.loc 1 356 9 view .LVU2436
	.loc 1 356 65 is_stmt 0 view .LVU2437
	stm	r3, {r0, r1}
	.loc 1 356 9 view .LVU2438
	bl	raise_zmk_endpoint_changed
.LVL170:
.L102:
	.loc 1 356 9 view .LVU2439
.LBE1760:
	.loc 1 358 1 view .LVU2440
	adds	r7, r7, #36
	.cfi_def_cfa_offset 20
	mov	sp, r7
	.cfi_def_cfa_register 13
	@ sp needed
	pop	{r4, r5, r6, r7, pc}
.L105:
	.align	2
.L104:
	.word	current_instance
	.word	.LC14
	.word	log_const_zmk
	.word	16777219
	.cfi_endproc
.LFE514:
	.size	update_current_endpoint, .-update_current_endpoint
	.section	.rodata.zmk_endpoints_select_transport.str1.1,"aMS",%progbits,1
.LC15:
	.ascii	"%s: Selected endpoint transport %d\000"
	.section	.text.zmk_endpoints_select_transport,"ax",%progbits
	.align	1
	.global	zmk_endpoints_select_transport
	.syntax unified
	.thumb
	.thumb_func
	.type	zmk_endpoints_select_transport, %function
zmk_endpoints_select_transport:
.LVL171:
.LFB500:
	.loc 1 97 66 is_stmt 1 view -0
	.cfi_startproc
	@ args = 0, pretend = 0, frame = 0
	@ frame_needed = 1, uses_anonymous_args = 0
	.loc 1 98 5 view .LVU2442
.LBB1772:
	.loc 1 98 10 view .LVU2443
	.loc 1 98 59 view .LVU2444
	.loc 1 98 16 view .LVU2445
	.loc 1 98 4 view .LVU2446
	.loc 1 98 43 view .LVU2447
	.loc 1 98 178 view .LVU2448
	.loc 1 98 189 view .LVU2449
	.loc 1 98 277 view .LVU2450
.LBB1773:
	.loc 1 98 5 view .LVU2451
	.loc 1 98 7 view .LVU2452
	.loc 1 98 56 view .LVU2453
	.loc 1 98 5 view .LVU2454
.LBB1774:
	.loc 1 98 10 view .LVU2455
	.loc 1 98 4 view .LVU2456
.LBE1774:
.LBE1773:
.LBE1772:
	.loc 1 98 5 view .LVU2457
	.loc 1 98 14 view .LVU2458
	.loc 1 98 109 view .LVU2459
	.loc 1 98 5 view .LVU2460
.LBB1806:
.LBB1799:
.LBB1791:
	.loc 1 98 14 view .LVU2461
	.loc 1 98 104 view .LVU2462
	.loc 1 98 106 view .LVU2463
.LBE1791:
.LBE1799:
.LBE1806:
	.loc 1 97 66 is_stmt 0 view .LVU2464
	push	{r4, r5, r7, lr}
	.cfi_def_cfa_offset 16
	.cfi_offset 4, -16
	.cfi_offset 5, -12
	.cfi_offset 7, -8
	.cfi_offset 14, -4
	add	r7, sp, #0
	.cfi_def_cfa_register 7
.LBB1807:
.LBB1800:
.LBB1792:
.LBB1775:
	.loc 1 98 109 view .LVU2465
	mov	r5, sp
	.loc 1 98 111 is_stmt 1 view .LVU2466
	.loc 1 98 122 view .LVU2467
.LVL172:
	.loc 1 98 211 view .LVU2468
	.loc 1 98 28 view .LVU2469
.LBE1775:
.LBE1792:
.LBE1800:
.LBE1807:
	.loc 1 98 5 view .LVU2470
	.loc 1 98 370 view .LVU2471
	.loc 1 98 77 view .LVU2472
	.loc 1 98 4 view .LVU2473
	.loc 1 98 4 view .LVU2474
	.loc 1 98 4 view .LVU2475
	.loc 1 98 40 view .LVU2476
	.loc 1 98 6 view .LVU2477
	.loc 1 98 32 view .LVU2478
	.loc 1 98 58 view .LVU2479
	.loc 1 98 971 view .LVU2480
	.loc 1 98 1033 view .LVU2481
	.loc 1 98 2020 view .LVU2482
	.loc 1 98 2085 view .LVU2483
	.loc 1 98 2110 view .LVU2484
	.loc 1 98 2111 view .LVU2485
	.loc 1 98 2113 view .LVU2486
	.loc 1 98 2143 view .LVU2487
	.loc 1 98 2173 view .LVU2488
	.loc 1 98 2205 view .LVU2489
	.loc 1 98 2237 view .LVU2490
	.loc 1 98 2269 view .LVU2491
	.loc 1 98 2466 view .LVU2492
	.loc 1 98 2490 view .LVU2493
	.loc 1 98 2491 view .LVU2494
	.loc 1 98 2493 view .LVU2495
	.loc 1 98 2522 view .LVU2496
	.loc 1 98 2551 view .LVU2497
	.loc 1 98 2582 view .LVU2498
	.loc 1 98 2613 view .LVU2499
	.loc 1 98 2644 view .LVU2500
	.loc 1 98 2851 view .LVU2501
	.loc 1 98 6 view .LVU2502
	.loc 1 98 24 view .LVU2503
	.loc 1 98 44 view .LVU2504
	.loc 1 98 6 view .LVU2505
	.loc 1 98 44 view .LVU2506
	.loc 1 98 15 view .LVU2507
	.loc 1 98 15 view .LVU2508
	.loc 1 98 63 view .LVU2509
	.loc 1 98 94 view .LVU2510
	.loc 1 98 128 view .LVU2511
	.loc 1 98 133 view .LVU2512
	.loc 1 98 394 view .LVU2513
	.loc 1 98 1491 view .LVU2514
	.loc 1 98 1556 view .LVU2515
	.loc 1 98 1580 view .LVU2516
	.loc 1 98 1645 view .LVU2517
	.loc 1 98 1656 view .LVU2518
	.loc 1 98 1779 view .LVU2519
	.loc 1 98 1795 view .LVU2520
	.loc 1 98 1835 view .LVU2521
	.loc 1 98 1860 view .LVU2522
	.loc 1 98 3171 view .LVU2523
	.loc 1 98 3212 view .LVU2524
	.loc 1 98 9 view .LVU2525
	.loc 1 98 32 view .LVU2526
	.loc 1 98 131 view .LVU2527
	.loc 1 98 8 view .LVU2528
	.loc 1 98 13 view .LVU2529
	.loc 1 98 238 view .LVU2530
	.loc 1 98 1191 view .LVU2531
	.loc 1 98 1256 view .LVU2532
	.loc 1 98 1280 view .LVU2533
	.loc 1 98 1309 view .LVU2534
	.loc 1 98 1320 view .LVU2535
	.loc 1 98 1407 view .LVU2536
	.loc 1 98 1423 view .LVU2537
	.loc 1 98 1463 view .LVU2538
	.loc 1 98 1488 view .LVU2539
	.loc 1 98 2727 view .LVU2540
	.loc 1 98 2768 view .LVU2541
	.loc 1 98 9 view .LVU2542
	.loc 1 98 32 view .LVU2543
	.loc 1 98 11 view .LVU2544
	.loc 1 98 8 view .LVU2545
	.loc 1 98 13 view .LVU2546
	.loc 1 98 238 view .LVU2547
	.loc 1 98 1191 view .LVU2548
	.loc 1 98 1256 view .LVU2549
	.loc 1 98 1280 view .LVU2550
	.loc 1 98 1309 view .LVU2551
	.loc 1 98 1320 view .LVU2552
	.loc 1 98 1407 view .LVU2553
	.loc 1 98 1423 view .LVU2554
	.loc 1 98 1463 view .LVU2555
	.loc 1 98 2727 view .LVU2556
	.loc 1 98 2768 view .LVU2557
	.loc 1 98 9 view .LVU2558
	.loc 1 98 32 view .LVU2559
	.loc 1 98 11 view .LVU2560
	.loc 1 98 7 view .LVU2561
	.loc 1 98 30 view .LVU2562
	.loc 1 98 54 view .LVU2563
	.loc 1 98 82 view .LVU2564
	.loc 1 98 258 view .LVU2565
	.loc 1 98 18 view .LVU2566
.LBB1808:
.LBB1801:
.LBB1793:
.LBB1785:
	.loc 1 98 31 view .LVU2567
	.loc 1 98 5 view .LVU2568
	.loc 1 98 5 view .LVU2569
	.loc 1 98 72 view .LVU2570
	.loc 1 98 84 is_stmt 0 view .LVU2571
	sub	sp, sp, #32
.LBE1785:
.LBE1793:
.LBE1801:
.LBE1808:
	.loc 1 97 66 view .LVU2572
	mov	r4, r0
.LBB1809:
.LBB1802:
.LBB1794:
.LBB1786:
	.loc 1 98 84 view .LVU2573
	mov	r2, sp
.LVL173:
	.loc 1 98 76 is_stmt 1 view .LVU2574
	.loc 1 98 486 view .LVU2575
	.loc 1 98 7 view .LVU2576
	.loc 1 98 9 view .LVU2577
	.loc 1 98 14 view .LVU2578
	.loc 1 98 12 view .LVU2579
	.loc 1 98 7 view .LVU2580
	.loc 1 98 25 view .LVU2581
.LBB1776:
	.loc 1 98 5 view .LVU2582
	.loc 1 98 370 view .LVU2583
	.loc 1 98 77 view .LVU2584
.LVL174:
	.loc 1 98 4 view .LVU2585
	.loc 1 98 4 view .LVU2586
	.loc 1 98 4 view .LVU2587
	.loc 1 98 40 view .LVU2588
	.loc 1 98 69 view .LVU2589
	.loc 1 98 95 view .LVU2590
	.loc 1 98 121 view .LVU2591
	.loc 1 98 1034 view .LVU2592
	.loc 1 98 1096 view .LVU2593
	.loc 1 98 2083 view .LVU2594
	.loc 1 98 2148 view .LVU2595
	.loc 1 98 2173 view .LVU2596
	.loc 1 98 2174 view .LVU2597
	.loc 1 98 2176 view .LVU2598
	.loc 1 98 2206 view .LVU2599
	.loc 1 98 2236 view .LVU2600
	.loc 1 98 2268 view .LVU2601
	.loc 1 98 2300 view .LVU2602
	.loc 1 98 2332 view .LVU2603
	.loc 1 98 2529 view .LVU2604
	.loc 1 98 2553 view .LVU2605
	.loc 1 98 2554 view .LVU2606
	.loc 1 98 2556 view .LVU2607
	.loc 1 98 2585 view .LVU2608
	.loc 1 98 2614 view .LVU2609
	.loc 1 98 2645 view .LVU2610
	.loc 1 98 2676 view .LVU2611
	.loc 1 98 2707 view .LVU2612
	.loc 1 98 2914 view .LVU2613
.LBB1777:
	.loc 1 98 3209 view .LVU2614
	.loc 1 98 3214 view .LVU2615
	.loc 1 98 3874 view .LVU2616
	.loc 1 98 0 is_stmt 0 view .LVU2617
	ldr	r3, .L108
	str	r3, [r2, #20]
	.loc 1 98 3212 is_stmt 1 view .LVU2618
	.loc 1 98 9 view .LVU2619
.LVL175:
	.loc 1 98 32 view .LVU2620
	.loc 1 98 32 is_stmt 0 view .LVU2621
.LBE1777:
	.loc 1 98 131 is_stmt 1 view .LVU2622
	.loc 1 98 8 view .LVU2623
.LBB1778:
	.loc 1 98 13 view .LVU2624
	.loc 1 98 238 view .LVU2625
	.loc 1 98 1191 view .LVU2626
	.loc 1 98 1256 view .LVU2627
.LBE1778:
.LBE1776:
.LBE1786:
.LBE1794:
.LBE1802:
.LBE1809:
	.loc 1 98 1280 view .LVU2628
	.loc 1 98 1309 view .LVU2629
	.loc 1 98 1320 view .LVU2630
	.loc 1 98 1407 view .LVU2631
.LBB1810:
.LBB1803:
.LBB1795:
.LBB1787:
.LBB1782:
.LBB1779:
	.loc 1 98 1423 view .LVU2632
	.loc 1 98 1463 view .LVU2633
	.loc 1 98 1488 view .LVU2634
	.loc 1 98 2727 view .LVU2635
	.loc 1 98 2765 view .LVU2636
	.loc 1 98 2770 view .LVU2637
	.loc 1 98 3214 view .LVU2638
	.loc 1 98 3813 is_stmt 0 view .LVU2639
	ldr	r3, .L108+4
.LBE1779:
.LBE1782:
.LBE1787:
.LBE1795:
	.loc 1 98 68 view .LVU2640
	strd	r3, r0, [r2, #24]
.LBB1796:
.LBB1788:
.LBB1783:
.LBB1780:
	.loc 1 98 2768 is_stmt 1 view .LVU2641
	.loc 1 98 9 view .LVU2642
.LVL176:
	.loc 1 98 32 view .LVU2643
	.loc 1 98 32 is_stmt 0 view .LVU2644
.LBE1780:
	.loc 1 98 11 is_stmt 1 view .LVU2645
	.loc 1 98 7 view .LVU2646
	.loc 1 98 30 view .LVU2647
	.loc 1 98 54 view .LVU2648
	.loc 1 98 82 view .LVU2649
.LBE1783:
.LBE1788:
.LBE1796:
.LBE1803:
.LBE1810:
	.loc 1 98 8 view .LVU2650
	.loc 1 98 47 view .LVU2651
	.loc 1 98 52 view .LVU2652
	.loc 1 98 82 view .LVU2653
	.loc 1 98 149 view .LVU2654
	.loc 1 98 154 view .LVU2655
	.loc 1 98 184 view .LVU2656
.LBB1811:
.LBB1804:
.LBB1797:
.LBB1789:
.LBB1784:
	.loc 1 98 258 view .LVU2657
	.loc 1 98 18 view .LVU2658
.LBB1781:
	.loc 1 98 8 view .LVU2659
	.loc 1 98 166 view .LVU2660
	.loc 1 98 168 view .LVU2661
	.loc 1 98 178 is_stmt 0 view .LVU2662
	movs	r3, #4
	str	r3, [r2, #16]!
.LVL177:
	.loc 1 98 178 view .LVU2663
.LBE1781:
.LBE1784:
	.loc 1 98 28 is_stmt 1 view .LVU2664
	.loc 1 98 9 view .LVU2665
	.loc 1 98 149 view .LVU2666
	.loc 1 98 151 view .LVU2667
	ldr	r0, .L108+8
.LVL178:
	.loc 1 98 151 is_stmt 0 view .LVU2668
	mov	r1, #8448
	bl	z_log_msg_static_create.constprop.0
.LVL179:
	.loc 1 98 151 view .LVU2669
.LBE1789:
.LBE1797:
.LBE1804:
.LBE1811:
	.loc 1 100 29 view .LVU2670
	ldr	r3, .L108+12
	.loc 1 100 8 view .LVU2671
	ldrb	r2, [r3]	@ zero_extendqisi2
	cmp	r2, r4
.LBB1812:
.LBB1805:
.LBB1798:
.LBB1790:
	mov	sp, r5
.LVL180:
	.loc 1 100 8 view .LVU2672
.LBE1790:
	.loc 1 98 109 is_stmt 1 view .LVU2673
	.loc 1 98 7 view .LVU2674
	.loc 1 98 44 view .LVU2675
.LBE1798:
	.loc 1 98 8 view .LVU2676
.LBE1805:
	.loc 1 98 280 view .LVU2677
	.loc 1 98 7 view .LVU2678
	.loc 1 98 20 view .LVU2679
.LBE1812:
	.loc 1 98 8 view .LVU2680
	.loc 1 100 5 view .LVU2681
	.loc 1 100 8 is_stmt 0 view .LVU2682
	beq	.L107
	.loc 1 104 5 is_stmt 1 view .LVU2683
	.loc 1 104 25 is_stmt 0 view .LVU2684
	strb	r4, [r3]
	.loc 1 106 5 is_stmt 1 view .LVU2685
.LBB1813:
.LBI1813:
	.loc 1 43 12 view .LVU2686
.LBB1814:
	.loc 1 45 5 view .LVU2687
	.loc 1 45 12 is_stmt 0 view .LVU2688
	mov	r2, #1966080
	movs	r3, #0
	ldr	r0, .L108+16
	bl	k_work_reschedule
.LVL181:
.LBE1814:
.LBE1813:
	.loc 1 108 5 is_stmt 1 view .LVU2689
	bl	update_current_endpoint
.LVL182:
	.loc 1 110 5 view .LVU2690
.L107:
	.loc 1 111 1 is_stmt 0 view .LVU2691
	movs	r0, #0
	mov	sp, r7
	.cfi_def_cfa_register 13
	@ sp needed
	pop	{r4, r5, r7, pc}
.LVL183:
.L109:
	.loc 1 111 1 view .LVU2692
	.align	2
.L108:
	.word	.LC15
	.word	__func__.3
	.word	log_const_zmk
	.word	preferred_transport
	.word	endpoints_save_work
	.cfi_endproc
.LFE500:
	.size	zmk_endpoints_select_transport, .-zmk_endpoints_select_transport
	.section	.text.zmk_endpoints_toggle_transport,"ax",%progbits
	.align	1
	.global	zmk_endpoints_toggle_transport
	.syntax unified
	.thumb
	.thumb_func
	.type	zmk_endpoints_toggle_transport, %function
zmk_endpoints_toggle_transport:
.LFB501:
	.loc 1 113 42 is_stmt 1 view -0
	.cfi_startproc
	@ args = 0, pretend = 0, frame = 0
	@ frame_needed = 0, uses_anonymous_args = 0
	@ link register save eliminated.
	.loc 1 114 5 view .LVU2694
.LVL184:
	.loc 1 116 5 view .LVU2695
	.loc 1 115 72 is_stmt 0 view .LVU2696
	ldr	r3, .L111
.LVL185:
	.loc 1 115 72 view .LVU2697
	ldrb	r0, [r3]	@ zero_extendqisi2
	.loc 1 116 12 view .LVU2698
	clz	r0, r0
	lsrs	r0, r0, #5
	b	zmk_endpoints_select_transport
.LVL186:
.L112:
	.loc 1 116 12 view .LVU2699
	.align	2
.L111:
	.word	preferred_transport
	.cfi_endproc
.LFE501:
	.size	zmk_endpoints_toggle_transport, .-zmk_endpoints_toggle_transport
	.section	.rodata.endpoints_handle_set.str1.1,"aMS",%progbits,1
.LC16:
	.ascii	"%s: Setting endpoint value %s\000"
.LC17:
	.ascii	"preferred\000"
.LC18:
	.ascii	"Invalid endpoint size (got %d expected %d)\000"
.LC19:
	.ascii	"Failed to read preferred endpoint from settings (er"
	.ascii	"r %d)\000"
	.section	.text.endpoints_handle_set,"ax",%progbits
	.align	1
	.syntax unified
	.thumb
	.thumb_func
	.type	endpoints_handle_set, %function
endpoints_handle_set:
.LVL187:
.LFB507:
	.loc 1 243 47 is_stmt 1 view -0
	.cfi_startproc
	@ args = 0, pretend = 0, frame = 0
	@ frame_needed = 1, uses_anonymous_args = 0
	.loc 1 244 5 view .LVU2701
.LBB1815:
	.loc 1 244 10 view .LVU2702
	.loc 1 244 59 view .LVU2703
	.loc 1 244 16 view .LVU2704
	.loc 1 244 4 view .LVU2705
	.loc 1 244 43 view .LVU2706
	.loc 1 244 178 view .LVU2707
	.loc 1 244 189 view .LVU2708
	.loc 1 244 277 view .LVU2709
.LBB1816:
	.loc 1 244 5 view .LVU2710
	.loc 1 244 7 view .LVU2711
	.loc 1 244 56 view .LVU2712
	.loc 1 244 5 view .LVU2713
.LBB1817:
	.loc 1 244 10 view .LVU2714
	.loc 1 244 4 view .LVU2715
.LBE1817:
.LBE1816:
.LBE1815:
	.loc 1 244 5 view .LVU2716
	.loc 1 244 14 view .LVU2717
	.loc 1 244 109 view .LVU2718
	.loc 1 244 5 view .LVU2719
.LBB1849:
.LBB1842:
.LBB1835:
	.loc 1 244 14 view .LVU2720
	.loc 1 244 104 view .LVU2721
	.loc 1 244 106 view .LVU2722
.LBE1835:
.LBE1842:
.LBE1849:
	.loc 1 243 47 is_stmt 0 view .LVU2723
	push	{r3, r4, r5, r6, r7, r8, r9, lr}
	.cfi_def_cfa_offset 32
	.cfi_offset 3, -32
	.cfi_offset 4, -28
	.cfi_offset 5, -24
	.cfi_offset 6, -20
	.cfi_offset 7, -16
	.cfi_offset 8, -12
	.cfi_offset 9, -8
	.cfi_offset 14, -4
	add	r7, sp, #0
	.cfi_def_cfa_register 7
.LBB1850:
.LBB1843:
.LBB1836:
.LBB1818:
	.loc 1 244 109 view .LVU2724
	mov	r5, sp
	.loc 1 244 111 is_stmt 1 view .LVU2725
	.loc 1 244 122 view .LVU2726
.LVL188:
	.loc 1 244 211 view .LVU2727
	.loc 1 244 28 view .LVU2728
.LBE1818:
.LBE1836:
.LBE1843:
.LBE1850:
	.loc 1 244 5 view .LVU2729
	.loc 1 244 370 view .LVU2730
	.loc 1 244 77 view .LVU2731
	.loc 1 244 4 view .LVU2732
	.loc 1 244 4 view .LVU2733
	.loc 1 244 4 view .LVU2734
	.loc 1 244 40 view .LVU2735
	.loc 1 244 6 view .LVU2736
	.loc 1 244 32 view .LVU2737
	.loc 1 244 58 view .LVU2738
	.loc 1 244 971 view .LVU2739
	.loc 1 244 1033 view .LVU2740
	.loc 1 244 2020 view .LVU2741
	.loc 1 244 2085 view .LVU2742
	.loc 1 244 2110 view .LVU2743
	.loc 1 244 2111 view .LVU2744
	.loc 1 244 2113 view .LVU2745
	.loc 1 244 2143 view .LVU2746
	.loc 1 244 2173 view .LVU2747
	.loc 1 244 2205 view .LVU2748
	.loc 1 244 2237 view .LVU2749
	.loc 1 244 2269 view .LVU2750
	.loc 1 244 2466 view .LVU2751
	.loc 1 244 2490 view .LVU2752
	.loc 1 244 2491 view .LVU2753
	.loc 1 244 2493 view .LVU2754
	.loc 1 244 2522 view .LVU2755
	.loc 1 244 2551 view .LVU2756
	.loc 1 244 2582 view .LVU2757
	.loc 1 244 2613 view .LVU2758
	.loc 1 244 2644 view .LVU2759
	.loc 1 244 2851 view .LVU2760
	.loc 1 244 6 view .LVU2761
	.loc 1 244 24 view .LVU2762
	.loc 1 244 44 view .LVU2763
	.loc 1 244 6 view .LVU2764
	.loc 1 244 44 view .LVU2765
	.loc 1 244 15 view .LVU2766
	.loc 1 244 15 view .LVU2767
	.loc 1 244 63 view .LVU2768
	.loc 1 244 94 view .LVU2769
	.loc 1 244 128 view .LVU2770
	.loc 1 244 133 view .LVU2771
	.loc 1 244 389 view .LVU2772
	.loc 1 244 1466 view .LVU2773
	.loc 1 244 1531 view .LVU2774
	.loc 1 244 1555 view .LVU2775
	.loc 1 244 1615 view .LVU2776
	.loc 1 244 1626 view .LVU2777
	.loc 1 244 1744 view .LVU2778
	.loc 1 244 1760 view .LVU2779
	.loc 1 244 1800 view .LVU2780
	.loc 1 244 1825 view .LVU2781
	.loc 1 244 3126 view .LVU2782
	.loc 1 244 3167 view .LVU2783
	.loc 1 244 9 view .LVU2784
	.loc 1 244 32 view .LVU2785
	.loc 1 244 131 view .LVU2786
	.loc 1 244 8 view .LVU2787
	.loc 1 244 13 view .LVU2788
	.loc 1 244 238 view .LVU2789
	.loc 1 244 1191 view .LVU2790
	.loc 1 244 1256 view .LVU2791
	.loc 1 244 1280 view .LVU2792
	.loc 1 244 1309 view .LVU2793
	.loc 1 244 1320 view .LVU2794
	.loc 1 244 1407 view .LVU2795
	.loc 1 244 1423 view .LVU2796
	.loc 1 244 1463 view .LVU2797
	.loc 1 244 1488 view .LVU2798
	.loc 1 244 2727 view .LVU2799
	.loc 1 244 2768 view .LVU2800
	.loc 1 244 9 view .LVU2801
	.loc 1 244 32 view .LVU2802
	.loc 1 244 11 view .LVU2803
	.loc 1 244 8 view .LVU2804
	.loc 1 244 13 view .LVU2805
	.loc 1 244 238 view .LVU2806
	.loc 1 244 1191 view .LVU2807
	.loc 1 244 1256 view .LVU2808
	.loc 1 244 1280 view .LVU2809
	.loc 1 244 1309 view .LVU2810
	.loc 1 244 1320 view .LVU2811
	.loc 1 244 1407 view .LVU2812
	.loc 1 244 1423 view .LVU2813
	.loc 1 244 1463 view .LVU2814
	.loc 1 244 1553 view .LVU2815
	.loc 1 244 1956 view .LVU2816
	.loc 1 244 2613 view .LVU2817
	.loc 1 244 2632 view .LVU2818
	.loc 1 244 2669 view .LVU2819
	.loc 1 244 2727 view .LVU2820
	.loc 1 244 2768 view .LVU2821
	.loc 1 244 9 view .LVU2822
	.loc 1 244 32 view .LVU2823
	.loc 1 244 11 view .LVU2824
	.loc 1 244 7 view .LVU2825
	.loc 1 244 30 view .LVU2826
	.loc 1 244 54 view .LVU2827
	.loc 1 244 82 view .LVU2828
	.loc 1 244 258 view .LVU2829
	.loc 1 244 18 view .LVU2830
.LBB1851:
.LBB1844:
.LBB1837:
.LBB1830:
	.loc 1 244 31 view .LVU2831
	.loc 1 244 5 view .LVU2832
	.loc 1 244 5 view .LVU2833
	.loc 1 244 72 view .LVU2834
	.loc 1 244 84 is_stmt 0 view .LVU2835
	sub	sp, sp, #40
.LBE1830:
.LBE1837:
.LBE1844:
.LBE1851:
	.loc 1 243 47 view .LVU2836
	mov	r8, r2
	mov	r6, r0
	mov	r4, r1
	mov	r9, r3
.LBB1852:
.LBB1845:
.LBB1838:
.LBB1831:
	.loc 1 244 84 view .LVU2837
	mov	r2, sp
.LVL189:
	.loc 1 244 76 is_stmt 1 view .LVU2838
	.loc 1 244 486 view .LVU2839
	.loc 1 244 7 view .LVU2840
	.loc 1 244 9 view .LVU2841
	.loc 1 244 14 view .LVU2842
	.loc 1 244 12 view .LVU2843
	.loc 1 244 7 view .LVU2844
	.loc 1 244 25 view .LVU2845
.LBB1819:
	.loc 1 244 5 view .LVU2846
	.loc 1 244 370 view .LVU2847
	.loc 1 244 77 view .LVU2848
.LVL190:
	.loc 1 244 4 view .LVU2849
	.loc 1 244 4 view .LVU2850
	.loc 1 244 4 view .LVU2851
	.loc 1 244 40 view .LVU2852
	.loc 1 244 69 view .LVU2853
	.loc 1 244 95 view .LVU2854
	.loc 1 244 121 view .LVU2855
	.loc 1 244 1034 view .LVU2856
	.loc 1 244 1096 view .LVU2857
	.loc 1 244 2083 view .LVU2858
	.loc 1 244 2148 view .LVU2859
	.loc 1 244 2173 view .LVU2860
	.loc 1 244 2174 view .LVU2861
	.loc 1 244 2176 view .LVU2862
	.loc 1 244 2206 view .LVU2863
	.loc 1 244 2236 view .LVU2864
	.loc 1 244 2268 view .LVU2865
	.loc 1 244 2300 view .LVU2866
	.loc 1 244 2332 view .LVU2867
	.loc 1 244 2529 view .LVU2868
	.loc 1 244 2553 view .LVU2869
	.loc 1 244 2554 view .LVU2870
	.loc 1 244 2556 view .LVU2871
	.loc 1 244 2585 view .LVU2872
	.loc 1 244 2614 view .LVU2873
	.loc 1 244 2645 view .LVU2874
	.loc 1 244 2676 view .LVU2875
	.loc 1 244 2707 view .LVU2876
	.loc 1 244 2914 view .LVU2877
.LBB1820:
	.loc 1 244 3164 view .LVU2878
	.loc 1 244 3169 view .LVU2879
	.loc 1 244 3799 view .LVU2880
	.loc 1 244 0 is_stmt 0 view .LVU2881
	ldr	r3, .L119
.LVL191:
	.loc 1 244 0 view .LVU2882
	str	r3, [r2, #20]
	.loc 1 244 3167 is_stmt 1 view .LVU2883
	.loc 1 244 9 view .LVU2884
.LVL192:
	.loc 1 244 32 view .LVU2885
	.loc 1 244 32 is_stmt 0 view .LVU2886
.LBE1820:
	.loc 1 244 131 is_stmt 1 view .LVU2887
	.loc 1 244 8 view .LVU2888
.LBB1821:
	.loc 1 244 13 view .LVU2889
	.loc 1 244 238 view .LVU2890
	.loc 1 244 1191 view .LVU2891
	.loc 1 244 1256 view .LVU2892
.LBE1821:
.LBE1819:
.LBE1831:
.LBE1838:
.LBE1845:
.LBE1852:
	.loc 1 244 1280 view .LVU2893
	.loc 1 244 1309 view .LVU2894
	.loc 1 244 1320 view .LVU2895
	.loc 1 244 1407 view .LVU2896
.LBB1853:
.LBB1846:
.LBB1839:
.LBB1832:
.LBB1828:
.LBB1822:
	.loc 1 244 1423 view .LVU2897
	.loc 1 244 1463 view .LVU2898
	.loc 1 244 1488 view .LVU2899
	.loc 1 244 2727 view .LVU2900
	.loc 1 244 2765 view .LVU2901
	.loc 1 244 2770 view .LVU2902
	.loc 1 244 3214 view .LVU2903
	.loc 1 244 3813 is_stmt 0 view .LVU2904
	ldr	r3, .L119+4
.LBE1822:
.LBB1823:
	.loc 1 244 3813 view .LVU2905
	strd	r3, r0, [r2, #24]
	.loc 1 244 2768 is_stmt 1 view .LVU2906
	.loc 1 244 9 view .LVU2907
.LVL193:
	.loc 1 244 32 view .LVU2908
	.loc 1 244 32 is_stmt 0 view .LVU2909
.LBE1823:
	.loc 1 244 11 is_stmt 1 view .LVU2910
	.loc 1 244 7 view .LVU2911
	.loc 1 244 30 view .LVU2912
	.loc 1 244 54 view .LVU2913
	.loc 1 244 82 view .LVU2914
.LBB1824:
	.loc 1 244 8 view .LVU2915
	.loc 1 244 47 view .LVU2916
.LBE1824:
.LBE1828:
.LBE1832:
.LBE1839:
.LBE1846:
.LBE1853:
	.loc 1 244 52 view .LVU2917
	.loc 1 244 82 view .LVU2918
.LBB1854:
.LBB1847:
.LBB1840:
.LBB1833:
.LBB1829:
.LBB1826:
.LBB1825:
	.loc 1 244 184 view .LVU2919
	.loc 1 244 216 view .LVU2920
	.loc 1 244 210 view .LVU2921
	.loc 1 244 184 view .LVU2922
	.loc 1 244 216 view .LVU2923
	.loc 1 244 229 is_stmt 0 view .LVU2924
	movw	r3, #769
	strh	r3, [r2, #32]	@ movhi
	.loc 1 244 210 is_stmt 1 view .LVU2925
.LVL194:
	.loc 1 244 184 view .LVU2926
.LBE1825:
.LBE1826:
	.loc 1 244 258 view .LVU2927
	.loc 1 244 18 view .LVU2928
.LBB1827:
	.loc 1 244 8 view .LVU2929
	.loc 1 244 166 view .LVU2930
	.loc 1 244 168 view .LVU2931
	.loc 1 244 178 is_stmt 0 view .LVU2932
	ldr	r3, .L119+8
	str	r3, [r2, #16]!
.LVL195:
	.loc 1 244 178 view .LVU2933
.LBE1827:
.LBE1829:
	.loc 1 244 28 is_stmt 1 view .LVU2934
	.loc 1 244 9 view .LVU2935
	.loc 1 244 149 view .LVU2936
	.loc 1 244 151 view .LVU2937
	ldr	r0, .L119+12
.LVL196:
	.loc 1 244 151 is_stmt 0 view .LVU2938
	mov	r1, #9472
.LVL197:
	.loc 1 244 151 view .LVU2939
	bl	z_log_msg_static_create.constprop.0
.LVL198:
	.loc 1 244 151 view .LVU2940
.LBE1833:
.LBE1840:
.LBE1847:
.LBE1854:
	.loc 1 246 9 view .LVU2941
	ldr	r1, .L119+16
.LBB1855:
.LBB1848:
.LBB1841:
.LBB1834:
	mov	sp, r5
.LVL199:
	.loc 1 246 9 view .LVU2942
.LBE1834:
	.loc 1 244 109 is_stmt 1 view .LVU2943
	.loc 1 244 7 view .LVU2944
	.loc 1 244 44 view .LVU2945
.LBE1841:
	.loc 1 244 8 view .LVU2946
.LBE1848:
	.loc 1 244 280 view .LVU2947
	.loc 1 244 7 view .LVU2948
	.loc 1 244 20 view .LVU2949
.LBE1855:
	.loc 1 244 8 view .LVU2950
	.loc 1 246 5 view .LVU2951
	.loc 1 246 9 is_stmt 0 view .LVU2952
	movs	r2, #0
	mov	r0, r6
	bl	settings_name_steq
.LVL200:
	.loc 1 246 8 view .LVU2953
	cbnz	r0, .L114
.LVL201:
.L118:
	.loc 1 261 12 view .LVU2954
	movs	r4, #0
.L113:
	.loc 1 262 1 view .LVU2955
	mov	r0, r4
	mov	sp, r7
	.cfi_remember_state
	.cfi_def_cfa_register 13
	@ sp needed
	pop	{r3, r4, r5, r6, r7, r8, r9, pc}
.LVL202:
.L114:
	.cfi_restore_state
.LBB1856:
	.loc 1 247 9 is_stmt 1 view .LVU2956
	.loc 1 247 12 is_stmt 0 view .LVU2957
	cmp	r4, #1
	beq	.L116
	.loc 1 248 13 is_stmt 1 view .LVU2958
.LBB1857:
	.loc 1 248 18 view .LVU2959
	.loc 1 248 67 view .LVU2960
	.loc 1 248 24 view .LVU2961
	.loc 1 248 12 view .LVU2962
.LVL203:
	.loc 1 248 51 view .LVU2963
	.loc 1 248 186 view .LVU2964
	.loc 1 248 197 view .LVU2965
	.loc 1 248 285 view .LVU2966
.LBB1858:
	.loc 1 248 13 view .LVU2967
	.loc 1 248 15 view .LVU2968
	.loc 1 248 45 view .LVU2969
	.loc 1 248 13 view .LVU2970
.LBB1859:
	.loc 1 248 18 view .LVU2971
	.loc 1 248 12 view .LVU2972
.LBE1859:
.LBE1858:
.LBE1857:
.LBE1856:
	.loc 1 248 13 view .LVU2973
	.loc 1 248 22 view .LVU2974
	.loc 1 248 117 view .LVU2975
	.loc 1 248 13 view .LVU2976
.LBB1910:
.LBB1884:
.LBB1879:
.LBB1874:
	.loc 1 248 22 view .LVU2977
	.loc 1 248 112 view .LVU2978
	.loc 1 248 114 view .LVU2979
.LBB1860:
	.loc 1 248 119 view .LVU2980
	.loc 1 248 130 view .LVU2981
	.loc 1 248 219 view .LVU2982
	.loc 1 248 36 view .LVU2983
.LBE1860:
.LBE1874:
.LBE1879:
.LBE1884:
.LBE1910:
	.loc 1 248 13 view .LVU2984
	.loc 1 248 378 view .LVU2985
	.loc 1 248 85 view .LVU2986
	.loc 1 248 12 view .LVU2987
	.loc 1 248 12 view .LVU2988
	.loc 1 248 12 view .LVU2989
	.loc 1 248 48 view .LVU2990
	.loc 1 248 14 view .LVU2991
	.loc 1 248 40 view .LVU2992
	.loc 1 248 66 view .LVU2993
	.loc 1 248 979 view .LVU2994
	.loc 1 248 1041 view .LVU2995
	.loc 1 248 2028 view .LVU2996
	.loc 1 248 2093 view .LVU2997
	.loc 1 248 2118 view .LVU2998
	.loc 1 248 2119 view .LVU2999
	.loc 1 248 2121 view .LVU3000
	.loc 1 248 2151 view .LVU3001
	.loc 1 248 2181 view .LVU3002
	.loc 1 248 2213 view .LVU3003
	.loc 1 248 2245 view .LVU3004
	.loc 1 248 2277 view .LVU3005
	.loc 1 248 2474 view .LVU3006
	.loc 1 248 2498 view .LVU3007
	.loc 1 248 2499 view .LVU3008
	.loc 1 248 2501 view .LVU3009
	.loc 1 248 2530 view .LVU3010
	.loc 1 248 2559 view .LVU3011
	.loc 1 248 2590 view .LVU3012
	.loc 1 248 2621 view .LVU3013
	.loc 1 248 2652 view .LVU3014
	.loc 1 248 2859 view .LVU3015
	.loc 1 248 14 view .LVU3016
	.loc 1 248 32 view .LVU3017
	.loc 1 248 52 view .LVU3018
	.loc 1 248 14 view .LVU3019
	.loc 1 248 52 view .LVU3020
	.loc 1 248 23 view .LVU3021
	.loc 1 248 23 view .LVU3022
	.loc 1 248 71 view .LVU3023
	.loc 1 248 102 view .LVU3024
	.loc 1 248 136 view .LVU3025
	.loc 1 248 141 view .LVU3026
	.loc 1 248 407 view .LVU3027
	.loc 1 248 1524 view .LVU3028
	.loc 1 248 1589 view .LVU3029
	.loc 1 248 1613 view .LVU3030
	.loc 1 248 1683 view .LVU3031
	.loc 1 248 1694 view .LVU3032
	.loc 1 248 1822 view .LVU3033
	.loc 1 248 1838 view .LVU3034
	.loc 1 248 1878 view .LVU3035
	.loc 1 248 1903 view .LVU3036
	.loc 1 248 3224 view .LVU3037
	.loc 1 248 3265 view .LVU3038
	.loc 1 248 17 view .LVU3039
	.loc 1 248 40 view .LVU3040
	.loc 1 248 139 view .LVU3041
	.loc 1 248 16 view .LVU3042
	.loc 1 248 21 view .LVU3043
	.loc 1 248 246 view .LVU3044
	.loc 1 248 1199 view .LVU3045
	.loc 1 248 1264 view .LVU3046
	.loc 1 248 1288 view .LVU3047
	.loc 1 248 1317 view .LVU3048
	.loc 1 248 1328 view .LVU3049
	.loc 1 248 1415 view .LVU3050
	.loc 1 248 1431 view .LVU3051
	.loc 1 248 1471 view .LVU3052
	.loc 1 248 2735 view .LVU3053
	.loc 1 248 2776 view .LVU3054
	.loc 1 248 17 view .LVU3055
	.loc 1 248 40 view .LVU3056
	.loc 1 248 19 view .LVU3057
	.loc 1 248 16 view .LVU3058
	.loc 1 248 21 view .LVU3059
	.loc 1 248 246 view .LVU3060
	.loc 1 248 1199 view .LVU3061
	.loc 1 248 1264 view .LVU3062
	.loc 1 248 1288 view .LVU3063
	.loc 1 248 1317 view .LVU3064
	.loc 1 248 1328 view .LVU3065
	.loc 1 248 1415 view .LVU3066
	.loc 1 248 1431 view .LVU3067
	.loc 1 248 1471 view .LVU3068
	.loc 1 248 2735 view .LVU3069
	.loc 1 248 2776 view .LVU3070
	.loc 1 248 17 view .LVU3071
	.loc 1 248 40 view .LVU3072
	.loc 1 248 19 view .LVU3073
	.loc 1 248 15 view .LVU3074
	.loc 1 248 38 view .LVU3075
	.loc 1 248 62 view .LVU3076
	.loc 1 248 90 view .LVU3077
	.loc 1 248 266 view .LVU3078
	.loc 1 248 26 view .LVU3079
.LBB1911:
.LBB1885:
.LBB1880:
.LBB1875:
.LBB1870:
	.loc 1 248 39 view .LVU3080
	.loc 1 248 13 view .LVU3081
	.loc 1 248 13 view .LVU3082
	.loc 1 248 80 view .LVU3083
	.loc 1 248 92 is_stmt 0 view .LVU3084
	sub	sp, sp, #32
	mov	r2, sp
.LVL204:
	.loc 1 248 84 is_stmt 1 view .LVU3085
	.loc 1 248 494 view .LVU3086
	.loc 1 248 15 view .LVU3087
	.loc 1 248 17 view .LVU3088
	.loc 1 248 22 view .LVU3089
	.loc 1 248 20 view .LVU3090
	.loc 1 248 15 view .LVU3091
	.loc 1 248 33 view .LVU3092
.LBB1861:
	.loc 1 248 13 view .LVU3093
	.loc 1 248 378 view .LVU3094
	.loc 1 248 85 view .LVU3095
.LVL205:
	.loc 1 248 12 view .LVU3096
	.loc 1 248 12 view .LVU3097
	.loc 1 248 12 view .LVU3098
	.loc 1 248 48 view .LVU3099
	.loc 1 248 77 view .LVU3100
	.loc 1 248 103 view .LVU3101
	.loc 1 248 129 view .LVU3102
	.loc 1 248 1042 view .LVU3103
	.loc 1 248 1104 view .LVU3104
	.loc 1 248 2091 view .LVU3105
	.loc 1 248 2156 view .LVU3106
	.loc 1 248 2181 view .LVU3107
	.loc 1 248 2182 view .LVU3108
	.loc 1 248 2184 view .LVU3109
	.loc 1 248 2214 view .LVU3110
	.loc 1 248 2244 view .LVU3111
	.loc 1 248 2276 view .LVU3112
	.loc 1 248 2308 view .LVU3113
	.loc 1 248 2340 view .LVU3114
	.loc 1 248 2537 view .LVU3115
	.loc 1 248 2561 view .LVU3116
	.loc 1 248 2562 view .LVU3117
	.loc 1 248 2564 view .LVU3118
	.loc 1 248 2593 view .LVU3119
	.loc 1 248 2622 view .LVU3120
	.loc 1 248 2653 view .LVU3121
	.loc 1 248 2684 view .LVU3122
	.loc 1 248 2715 view .LVU3123
	.loc 1 248 2922 view .LVU3124
.LBB1862:
	.loc 1 248 3262 view .LVU3125
	.loc 1 248 3267 view .LVU3126
	.loc 1 248 3957 view .LVU3127
	.loc 1 248 0 is_stmt 0 view .LVU3128
	ldr	r3, .L119+20
.LBE1862:
.LBE1861:
	.loc 1 248 159 view .LVU3129
	ldr	r0, .L119+12
.LBB1867:
.LBB1863:
	.loc 1 248 3821 view .LVU3130
	strd	r3, r4, [r2, #20]
	.loc 1 248 2776 is_stmt 1 view .LVU3131
	.loc 1 248 17 view .LVU3132
.LVL206:
	.loc 1 248 40 view .LVU3133
	.loc 1 248 40 is_stmt 0 view .LVU3134
.LBE1863:
	.loc 1 248 19 is_stmt 1 view .LVU3135
	.loc 1 248 16 view .LVU3136
.LBB1864:
	.loc 1 248 21 view .LVU3137
	.loc 1 248 246 view .LVU3138
	.loc 1 248 1199 view .LVU3139
	.loc 1 248 1264 view .LVU3140
.LBE1864:
.LBE1867:
.LBE1870:
.LBE1875:
.LBE1880:
.LBE1885:
.LBE1911:
	.loc 1 248 1288 view .LVU3141
	.loc 1 248 1317 view .LVU3142
	.loc 1 248 1328 view .LVU3143
	.loc 1 248 1415 view .LVU3144
.LBB1912:
.LBB1886:
.LBB1881:
.LBB1876:
.LBB1871:
.LBB1868:
.LBB1865:
	.loc 1 248 1431 view .LVU3145
	.loc 1 248 1471 view .LVU3146
	.loc 1 248 2735 view .LVU3147
	.loc 1 248 2773 view .LVU3148
	.loc 1 248 2778 view .LVU3149
	.loc 1 248 3222 view .LVU3150
	.loc 1 248 3821 is_stmt 0 view .LVU3151
	movs	r3, #1
	str	r3, [r2, #28]
	.loc 1 248 2776 is_stmt 1 view .LVU3152
	.loc 1 248 17 view .LVU3153
.LVL207:
	.loc 1 248 40 view .LVU3154
	.loc 1 248 40 is_stmt 0 view .LVU3155
.LBE1865:
	.loc 1 248 19 is_stmt 1 view .LVU3156
	.loc 1 248 15 view .LVU3157
	.loc 1 248 38 view .LVU3158
	.loc 1 248 62 view .LVU3159
	.loc 1 248 90 view .LVU3160
.LBE1868:
.LBE1871:
.LBE1876:
.LBE1881:
.LBE1886:
.LBE1912:
	.loc 1 248 16 view .LVU3161
	.loc 1 248 55 view .LVU3162
	.loc 1 248 60 view .LVU3163
	.loc 1 248 90 view .LVU3164
	.loc 1 248 157 view .LVU3165
	.loc 1 248 162 view .LVU3166
	.loc 1 248 192 view .LVU3167
.LBB1913:
.LBB1887:
.LBB1882:
.LBB1877:
.LBB1872:
.LBB1869:
	.loc 1 248 266 view .LVU3168
	.loc 1 248 26 view .LVU3169
.LBB1866:
	.loc 1 248 16 view .LVU3170
	.loc 1 248 174 view .LVU3171
	.loc 1 248 176 view .LVU3172
	.loc 1 248 186 is_stmt 0 view .LVU3173
	movs	r3, #4
	str	r3, [r2, #16]!
.LVL208:
	.loc 1 248 186 view .LVU3174
.LBE1866:
.LBE1869:
	.loc 1 248 36 is_stmt 1 view .LVU3175
	.loc 1 248 17 view .LVU3176
	.loc 1 248 157 view .LVU3177
	.loc 1 248 159 view .LVU3178
	mov	r1, #8256
	bl	z_log_msg_static_create.constprop.0
.LVL209:
	.loc 1 248 159 is_stmt 0 view .LVU3179
.LBE1872:
.LBE1877:
.LBE1882:
.LBE1887:
	.loc 1 249 20 view .LVU3180
	mvn	r4, #21
.LVL210:
.LBB1888:
.LBB1883:
.LBB1878:
.LBB1873:
	.loc 1 249 20 view .LVU3181
	mov	sp, r5
.LVL211:
	.loc 1 249 20 view .LVU3182
.LBE1873:
	.loc 1 248 117 is_stmt 1 view .LVU3183
	.loc 1 248 15 view .LVU3184
	.loc 1 248 52 view .LVU3185
.LBE1878:
	.loc 1 248 16 view .LVU3186
.LBE1883:
	.loc 1 248 288 view .LVU3187
	.loc 1 248 15 view .LVU3188
	.loc 1 248 28 view .LVU3189
.LBE1888:
	.loc 1 248 16 view .LVU3190
	.loc 1 249 13 view .LVU3191
	.loc 1 249 20 is_stmt 0 view .LVU3192
	b	.L113
.LVL212:
.L116:
	.loc 1 252 9 is_stmt 1 view .LVU3193
	.loc 1 252 19 is_stmt 0 view .LVU3194
	mov	r2, r4
	ldr	r1, .L119+24
	mov	r0, r9
	blx	r8
.LVL213:
	.loc 1 253 9 is_stmt 1 view .LVU3195
	.loc 1 253 12 is_stmt 0 view .LVU3196
	subs	r4, r0, #0
.LVL214:
	.loc 1 253 12 view .LVU3197
	bgt	.L117
	.loc 1 254 13 is_stmt 1 view .LVU3198
.LBB1889:
	.loc 1 254 18 view .LVU3199
	.loc 1 254 67 view .LVU3200
	.loc 1 254 24 view .LVU3201
	.loc 1 254 12 view .LVU3202
.LVL215:
	.loc 1 254 51 view .LVU3203
	.loc 1 254 186 view .LVU3204
	.loc 1 254 197 view .LVU3205
	.loc 1 254 285 view .LVU3206
.LBB1890:
	.loc 1 254 13 view .LVU3207
	.loc 1 254 15 view .LVU3208
	.loc 1 254 13 view .LVU3209
.LBB1891:
	.loc 1 254 18 view .LVU3210
	.loc 1 254 12 view .LVU3211
.LBE1891:
.LBE1890:
.LBE1889:
.LBE1913:
	.loc 1 254 13 view .LVU3212
	.loc 1 254 22 view .LVU3213
	.loc 1 254 117 view .LVU3214
	.loc 1 254 13 view .LVU3215
.LBB1914:
.LBB1907:
.LBB1904:
.LBB1901:
	.loc 1 254 22 view .LVU3216
	.loc 1 254 112 view .LVU3217
	.loc 1 254 114 view .LVU3218
.LBB1892:
	.loc 1 254 119 view .LVU3219
	.loc 1 254 130 view .LVU3220
	.loc 1 254 219 view .LVU3221
	.loc 1 254 36 view .LVU3222
.LBE1892:
.LBE1901:
.LBE1904:
.LBE1907:
.LBE1914:
	.loc 1 254 13 view .LVU3223
	.loc 1 254 378 view .LVU3224
	.loc 1 254 85 view .LVU3225
	.loc 1 254 12 view .LVU3226
	.loc 1 254 12 view .LVU3227
	.loc 1 254 12 view .LVU3228
	.loc 1 254 48 view .LVU3229
	.loc 1 254 14 view .LVU3230
	.loc 1 254 40 view .LVU3231
	.loc 1 254 66 view .LVU3232
	.loc 1 254 533 view .LVU3233
	.loc 1 254 595 view .LVU3234
	.loc 1 254 1116 view .LVU3235
	.loc 1 254 1181 view .LVU3236
	.loc 1 254 1206 view .LVU3237
	.loc 1 254 1207 view .LVU3238
	.loc 1 254 1209 view .LVU3239
	.loc 1 254 1239 view .LVU3240
	.loc 1 254 1269 view .LVU3241
	.loc 1 254 1301 view .LVU3242
	.loc 1 254 1333 view .LVU3243
	.loc 1 254 1365 view .LVU3244
	.loc 1 254 1562 view .LVU3245
	.loc 1 254 1586 view .LVU3246
	.loc 1 254 1587 view .LVU3247
	.loc 1 254 1589 view .LVU3248
	.loc 1 254 1618 view .LVU3249
	.loc 1 254 1647 view .LVU3250
	.loc 1 254 1678 view .LVU3251
	.loc 1 254 1709 view .LVU3252
	.loc 1 254 1740 view .LVU3253
	.loc 1 254 1947 view .LVU3254
	.loc 1 254 14 view .LVU3255
	.loc 1 254 32 view .LVU3256
	.loc 1 254 52 view .LVU3257
	.loc 1 254 14 view .LVU3258
	.loc 1 254 52 view .LVU3259
	.loc 1 254 23 view .LVU3260
	.loc 1 254 23 view .LVU3261
	.loc 1 254 71 view .LVU3262
	.loc 1 254 102 view .LVU3263
	.loc 1 254 136 view .LVU3264
	.loc 1 254 141 view .LVU3265
	.loc 1 254 421 view .LVU3266
	.loc 1 254 1594 view .LVU3267
	.loc 1 254 1659 view .LVU3268
	.loc 1 254 1683 view .LVU3269
	.loc 1 254 1767 view .LVU3270
	.loc 1 254 1778 view .LVU3271
	.loc 1 254 1920 view .LVU3272
	.loc 1 254 1936 view .LVU3273
	.loc 1 254 1976 view .LVU3274
	.loc 1 254 2001 view .LVU3275
	.loc 1 254 3350 view .LVU3276
	.loc 1 254 3391 view .LVU3277
	.loc 1 254 17 view .LVU3278
	.loc 1 254 40 view .LVU3279
	.loc 1 254 139 view .LVU3280
	.loc 1 254 16 view .LVU3281
	.loc 1 254 21 view .LVU3282
	.loc 1 254 246 view .LVU3283
	.loc 1 254 1199 view .LVU3284
	.loc 1 254 1264 view .LVU3285
	.loc 1 254 1288 view .LVU3286
	.loc 1 254 1317 view .LVU3287
	.loc 1 254 1328 view .LVU3288
	.loc 1 254 1415 view .LVU3289
	.loc 1 254 1431 view .LVU3290
	.loc 1 254 1471 view .LVU3291
	.loc 1 254 2735 view .LVU3292
	.loc 1 254 2776 view .LVU3293
	.loc 1 254 17 view .LVU3294
	.loc 1 254 40 view .LVU3295
	.loc 1 254 19 view .LVU3296
	.loc 1 254 15 view .LVU3297
	.loc 1 254 38 view .LVU3298
	.loc 1 254 62 view .LVU3299
	.loc 1 254 90 view .LVU3300
	.loc 1 254 266 view .LVU3301
	.loc 1 254 26 view .LVU3302
.LBB1915:
.LBB1908:
.LBB1905:
.LBB1902:
.LBB1899:
	.loc 1 254 39 view .LVU3303
	.loc 1 254 13 view .LVU3304
	.loc 1 254 13 view .LVU3305
	.loc 1 254 80 view .LVU3306
	.loc 1 254 92 is_stmt 0 view .LVU3307
	sub	sp, sp, #32
	mov	r2, sp
.LVL216:
	.loc 1 254 84 is_stmt 1 view .LVU3308
	.loc 1 254 494 view .LVU3309
	.loc 1 254 15 view .LVU3310
	.loc 1 254 17 view .LVU3311
	.loc 1 254 22 view .LVU3312
	.loc 1 254 20 view .LVU3313
	.loc 1 254 15 view .LVU3314
	.loc 1 254 33 view .LVU3315
.LBB1893:
	.loc 1 254 13 view .LVU3316
	.loc 1 254 378 view .LVU3317
	.loc 1 254 85 view .LVU3318
.LVL217:
	.loc 1 254 12 view .LVU3319
	.loc 1 254 12 view .LVU3320
	.loc 1 254 12 view .LVU3321
	.loc 1 254 48 view .LVU3322
	.loc 1 254 77 view .LVU3323
	.loc 1 254 103 view .LVU3324
	.loc 1 254 129 view .LVU3325
	.loc 1 254 596 view .LVU3326
	.loc 1 254 658 view .LVU3327
	.loc 1 254 1179 view .LVU3328
	.loc 1 254 1244 view .LVU3329
	.loc 1 254 1269 view .LVU3330
	.loc 1 254 1270 view .LVU3331
	.loc 1 254 1272 view .LVU3332
	.loc 1 254 1302 view .LVU3333
	.loc 1 254 1332 view .LVU3334
	.loc 1 254 1364 view .LVU3335
	.loc 1 254 1396 view .LVU3336
	.loc 1 254 1428 view .LVU3337
	.loc 1 254 1625 view .LVU3338
	.loc 1 254 1649 view .LVU3339
	.loc 1 254 1650 view .LVU3340
	.loc 1 254 1652 view .LVU3341
	.loc 1 254 1681 view .LVU3342
	.loc 1 254 1710 view .LVU3343
	.loc 1 254 1741 view .LVU3344
	.loc 1 254 1772 view .LVU3345
	.loc 1 254 1803 view .LVU3346
	.loc 1 254 2010 view .LVU3347
.LBB1894:
	.loc 1 254 3388 view .LVU3348
	.loc 1 254 3393 view .LVU3349
	.loc 1 254 0 view .LVU3350
	ldr	r3, .L119+28
.LBE1894:
.LBE1893:
	.loc 1 254 159 is_stmt 0 view .LVU3351
	ldr	r0, .L119+12
.LVL218:
.LBB1897:
.LBB1895:
	.loc 1 254 3821 view .LVU3352
	strd	r3, r4, [r2, #20]
	.loc 1 254 2776 is_stmt 1 view .LVU3353
	.loc 1 254 17 view .LVU3354
.LVL219:
	.loc 1 254 40 view .LVU3355
	.loc 1 254 40 is_stmt 0 view .LVU3356
.LBE1895:
	.loc 1 254 19 is_stmt 1 view .LVU3357
	.loc 1 254 15 view .LVU3358
	.loc 1 254 38 view .LVU3359
	.loc 1 254 62 view .LVU3360
	.loc 1 254 90 view .LVU3361
.LBE1897:
.LBE1899:
.LBE1902:
.LBE1905:
.LBE1908:
.LBE1915:
	.loc 1 254 16 view .LVU3362
	.loc 1 254 55 view .LVU3363
	.loc 1 254 60 view .LVU3364
	.loc 1 254 90 view .LVU3365
	.loc 1 254 157 view .LVU3366
	.loc 1 254 162 view .LVU3367
	.loc 1 254 192 view .LVU3368
.LBB1916:
.LBB1909:
.LBB1906:
.LBB1903:
.LBB1900:
.LBB1898:
	.loc 1 254 266 view .LVU3369
	.loc 1 254 26 view .LVU3370
.LBB1896:
	.loc 1 254 16 view .LVU3371
	.loc 1 254 174 view .LVU3372
	.loc 1 254 176 view .LVU3373
	.loc 1 254 186 is_stmt 0 view .LVU3374
	movs	r3, #3
	str	r3, [r2, #16]!
.LVL220:
	.loc 1 254 186 view .LVU3375
.LBE1896:
.LBE1898:
	.loc 1 254 36 is_stmt 1 view .LVU3376
	.loc 1 254 17 view .LVU3377
	.loc 1 254 157 view .LVU3378
	.loc 1 254 159 view .LVU3379
	mov	r1, #6208
	bl	z_log_msg_static_create.constprop.0
.LVL221:
	.loc 1 254 159 is_stmt 0 view .LVU3380
	mov	sp, r5
.LVL222:
	.loc 1 254 159 view .LVU3381
.LBE1900:
	.loc 1 254 117 is_stmt 1 view .LVU3382
	.loc 1 254 15 view .LVU3383
	.loc 1 254 52 view .LVU3384
.LBE1903:
	.loc 1 254 16 view .LVU3385
.LBE1906:
	.loc 1 254 288 view .LVU3386
	.loc 1 254 15 view .LVU3387
	.loc 1 254 28 view .LVU3388
.LBE1909:
	.loc 1 254 16 view .LVU3389
	.loc 1 255 13 view .LVU3390
	.loc 1 255 20 is_stmt 0 view .LVU3391
	b	.L113
.LVL223:
.L117:
	.loc 1 258 9 is_stmt 1 view .LVU3392
	bl	update_current_endpoint
.LVL224:
	.loc 1 258 9 is_stmt 0 view .LVU3393
	b	.L118
.L120:
	.align	2
.L119:
	.word	.LC16
	.word	__func__.0
	.word	16777220
	.word	log_const_zmk
	.word	.LC17
	.word	.LC18
	.word	preferred_transport
	.word	.LC19
.LBE1916:
	.cfi_endproc
.LFE507:
	.size	endpoints_handle_set, .-endpoints_handle_set
	.section	.text.endpoint_listener,"ax",%progbits
	.align	1
	.syntax unified
	.thumb
	.thumb_func
	.type	endpoint_listener, %function
endpoint_listener:
.LVL225:
.LFB515:
	.loc 1 360 53 is_stmt 1 view -0
	.cfi_startproc
	@ args = 0, pretend = 0, frame = 0
	@ frame_needed = 0, uses_anonymous_args = 0
	.loc 1 361 5 view .LVU3395
	.loc 1 360 53 is_stmt 0 view .LVU3396
	push	{r3, lr}
	.cfi_def_cfa_offset 8
	.cfi_offset 3, -8
	.cfi_offset 14, -4
	.loc 1 361 5 view .LVU3397
	bl	update_current_endpoint
.LVL226:
	.loc 1 362 5 is_stmt 1 view .LVU3398
	.loc 1 363 1 is_stmt 0 view .LVU3399
	movs	r0, #0
	pop	{r3, pc}
	.cfi_endproc
.LFE515:
	.size	endpoint_listener, .-endpoint_listener
	.section	.rodata.__func__.0,"a"
	.type	__func__.0, %object
	.size	__func__.0, 21
__func__.0:
	.ascii	"endpoints_handle_set\000"
	.section	.rodata.__func__.1,"a"
	.type	__func__.1, %object
	.size	__func__.1, 26
__func__.1:
	.ascii	"zmk_endpoints_send_report\000"
	.section	.rodata.__func__.2,"a"
	.type	__func__.2, %object
	.size	__func__.2, 23
__func__.2:
	.ascii	"get_selected_transport\000"
	.section	.rodata.__func__.3,"a"
	.type	__func__.3, %object
	.size	__func__.3, 31
__func__.3:
	.ascii	"zmk_endpoints_select_transport\000"
	.section	.z_init_APPLICATION90_0_,"a"
	.align	2
	.type	__init_zmk_endpoints_init, %object
	.size	__init_zmk_endpoints_init, 8
__init_zmk_endpoints_init:
	.word	zmk_endpoints_init
	.word	0
	.global	zmk_event_sub_endpoint_listenerzmk_ble_active_profile_changed
	.section	.event_subscription,"a"
	.align	2
	.type	zmk_event_sub_endpoint_listenerzmk_ble_active_profile_changed, %object
	.size	zmk_event_sub_endpoint_listenerzmk_ble_active_profile_changed, 8
zmk_event_sub_endpoint_listenerzmk_ble_active_profile_changed:
	.word	zmk_event_zmk_ble_active_profile_changed
	.word	zmk_listener_endpoint_listener
	.global	zmk_event_sub_endpoint_listenerzmk_usb_conn_state_changed
	.align	2
	.type	zmk_event_sub_endpoint_listenerzmk_usb_conn_state_changed, %object
	.size	zmk_event_sub_endpoint_listenerzmk_usb_conn_state_changed, 8
zmk_event_sub_endpoint_listenerzmk_usb_conn_state_changed:
	.word	zmk_event_zmk_usb_conn_state_changed
	.word	zmk_listener_endpoint_listener
	.global	zmk_listener_endpoint_listener
	.section	.rodata.zmk_listener_endpoint_listener,"a"
	.align	2
	.type	zmk_listener_endpoint_listener, %object
	.size	zmk_listener_endpoint_listener, 4
zmk_listener_endpoint_listener:
	.word	endpoint_listener
	.global	settings_handler_endpoints
	.section	.rodata.str1.1,"aMS",%progbits,1
.LC20:
	.ascii	"endpoints\000"
	.section	._settings_handler_static.static.settings_handler_endpoints_,"a"
	.align	2
	.type	settings_handler_endpoints, %object
	.size	settings_handler_endpoints, 20
settings_handler_endpoints:
	.word	.LC20
	.word	0
	.word	endpoints_handle_set
	.word	0
	.word	0
	.section	.bss.endpoints_save_work,"aw",%nobits
	.align	3
	.type	endpoints_save_work, %object
	.size	endpoints_save_work, 48
endpoints_save_work:
	.space	48
	.section	.bss.preferred_transport,"aw",%nobits
	.type	preferred_transport, %object
	.size	preferred_transport, 1
preferred_transport:
	.space	1
	.section	.bss.current_instance,"aw",%nobits
	.align	2
	.type	current_instance, %object
	.size	current_instance, 8
current_instance:
	.space	8
	.text
.Letext0:
	.file 3 "/home/g/zephyr-sdk-0.16.3/arm-zephyr-eabi/picolibc/include/machine/_default_types.h"
	.file 4 "/home/g/zephyr-sdk-0.16.3/arm-zephyr-eabi/picolibc/include/sys/_stdint.h"
	.file 5 "/home/g/zephyr-sdk-0.16.3/arm-zephyr-eabi/lib/gcc/arm-zephyr-eabi/12.2.0/include/stddef.h"
	.file 6 "/home/g/mise-work/zmk-firmware/zmk/zephyr/include/zephyr/init.h"
	.file 7 "/home/g/mise-work/zmk-firmware/zmk/zephyr/include/zephyr/device.h"
	.file 8 "/home/g/zephyr-sdk-0.16.3/arm-zephyr-eabi/picolibc/include/sys/_types.h"
	.file 9 "/home/g/zephyr-sdk-0.16.3/arm-zephyr-eabi/picolibc/include/sys/types.h"
	.file 10 "/home/g/mise-work/zmk-firmware/zmk/zephyr/include/zephyr/sys/slist.h"
	.file 11 "/home/g/mise-work/zmk-firmware/zmk/zephyr/include/zephyr/settings/settings.h"
	.file 12 "/home/g/mise-work/zmk-firmware/zmk/zephyr/include/zephyr/sys/dlist.h"
	.file 13 "/home/g/mise-work/zmk-firmware/zmk/zephyr/include/zephyr/sys/rb.h"
	.file 14 "/home/g/mise-work/zmk-firmware/zmk/zephyr/include/zephyr/sys/sys_heap.h"
	.file 15 "/home/g/mise-work/zmk-firmware/zmk/zephyr/include/zephyr/kernel/thread.h"
	.file 16 "/home/g/mise-work/zmk-firmware/zmk/zephyr/include/zephyr/kernel_structs.h"
	.file 17 "/home/g/mise-work/zmk-firmware/zmk/zephyr/include/zephyr/arch/arm/thread.h"
	.file 18 "/home/g/mise-work/zmk-firmware/zmk/zephyr/include/zephyr/sys_clock.h"
	.file 19 "/home/g/mise-work/zmk-firmware/zmk/zephyr/include/zephyr/kernel.h"
	.file 20 "/home/g/mise-work/zmk-firmware/zmk/app/include/zmk/keys.h"
	.file 21 "/home/g/mise-work/zmk-firmware/zmk/zephyr/include/zephyr/spinlock.h"
	.file 22 "/home/g/mise-work/zmk-firmware/zmk/app/include/zmk/endpoints_types.h"
	.file 23 "/home/g/mise-work/zmk-firmware/zmk/zephyr/include/zephyr/logging/log_instance.h"
	.file 24 "/home/g/mise-work/zmk-firmware/zmk/zephyr/include/zephyr/sys/cbprintf.h"
	.file 25 "/home/g/mise-work/zmk-firmware/zmk/zephyr/include/zephyr/logging/log_msg.h"
	.file 26 "/home/g/mise-work/zmk-firmware/zmk/app/include/zmk/pointing.h"
	.file 27 "/home/g/mise-work/zmk-firmware/zmk/app/include/zmk/hid.h"
	.file 28 "/home/g/mise-work/zmk-firmware/zmk/app/include/zmk/event_manager.h"
	.file 29 "/home/g/mise-work/zmk-firmware/zmk/app/include/zmk/events/ble_active_profile_changed.h"
	.file 30 "/home/g/mise-work/zmk-firmware/zmk/app/include/zmk/events/usb_conn_state_changed.h"
	.file 31 "/home/g/mise-work/zmk-firmware/zmk/app/include/zmk/events/endpoint_changed.h"
	.file 32 "/home/g/mise-work/zmk-firmware/zmk/app/include/zmk/hog.h"
	.file 33 "/home/g/mise-work/zmk-firmware/zmk/app/include/zmk/usb_hid.h"
	.file 34 "/home/g/mise-work/zmk-firmware/zmk/app/include/zmk/usb.h"
	.file 35 "/home/g/mise-work/zmk-firmware/zmk/app/include/zmk/ble.h"
	.file 36 "/home/g/zephyr-sdk-0.16.3/arm-zephyr-eabi/picolibc/include/stdio.h"
	.file 37 "/home/g/mise-work/zmk-firmware/zmk/zephyr/include/zephyr/sys/cbprintf_internal.h"
	.file 38 "/home/g/mise-work/zmk-firmware/zmk/zephyr/include/zephyr/syscall.h"