	.cpu cortex-m4
	.arch armv7e-m
	.fpu fpv4-sp-d16
	.eabi_attribute 27, 1
	.eabi_attribute 28, 1
	.eabi_attribute 20, 1
	.eabi_attribute 21, 1
	.eabi_attribute 23, 3
	.eabi_attribute 24, 1
	.eabi_attribute 25, 1
	.eabi_attribute 26, 1
	.eabi_attribute 30, 4
	.eabi_attribute 34, 1
	.eabi_attribute 38, 1
	.eabi_attribute 18, 4
	.file	"event_manager.c"
	.text
.Ltext0:
	.cfi_sections	.debug_frame
	.file 1 "/home/g/mise-work/zmk-firmware/zmk/app/src/event_manager.c"
	.section	.rodata.zmk_event_manager_handle_from.str1.1,"aMS",%progbits,1
.LC0:
	.ascii	"%s: Listener handled the event\000"
.LC1:
	.ascii	"%s: Listener captured the event\000"
.LC2:
	.ascii	"%s: Listener returned an error: %d\000"
	.section	.text.zmk_event_manager_handle_from,"ax",%progbits
	.align	1
	.global	zmk_event_manager_handle_from
	.syntax unified
	.thumb
	.thumb_func
	.type	zmk_event_manager_handle_from, %function
zmk_event_manager_handle_from:
.LVL0:
.LFB469:
	.loc 1 20 76 view -0
	.cfi_startproc
	@ args = 0, pretend = 0, frame = 0
	@ frame_needed = 1, uses_anonymous_args = 0
	.loc 1 21 5 view .LVU1
	.loc 1 22 5 view .LVU2
	.loc 1 20 76 is_stmt 0 view .LVU3
	push	{r3, r4, r5, r6, r7, r8, r9, lr}
	.cfi_def_cfa_offset 32
	.cfi_offset 3, -32
	.cfi_offset 4, -28
	.cfi_offset 5, -24
	.cfi_offset 6, -20
	.cfi_offset 7, -16
	.cfi_offset 8, -12
	.cfi_offset 9, -8
	.cfi_offset 14, -4
	.loc 1 22 45 view .LVU4
	ldr	r6, .L15
	ldr	r3, .L15+4
	sub	r8, r3, r6
.LVL1:
	.loc 1 23 5 is_stmt 1 view .LVU5
.LBB315:
	.loc 1 23 10 view .LVU6
.LBE315:
	.loc 1 20 76 is_stmt 0 view .LVU7
	add	r7, sp, #0
	.cfi_def_cfa_register 7
	.loc 1 20 76 view .LVU8
	mov	r9, r0
.LBB405:
	.loc 1 23 14 view .LVU9
	mov	r5, r1
.LVL2:
	.loc 1 23 14 view .LVU10
	add	r6, r6, r1, lsl #3
	.loc 1 23 33 view .LVU11
	ubfx	r8, r8, #3, #8
.LVL3:
.L2:
	.loc 1 23 33 is_stmt 1 discriminator 1 view .LVU12
	cmp	r8, r5
	ble	.L7
.LBB316:
	.loc 1 24 9 view .LVU13
.LVL4:
	.loc 1 25 9 view .LVU14
	.loc 1 25 12 is_stmt 0 view .LVU15
	ldr	r2, [r6]
	ldr	r3, [r9]
	cmp	r2, r3
	bne	.L3
	.loc 1 28 9 is_stmt 1 view .LVU16
	.loc 1 28 36 is_stmt 0 view .LVU17
	strb	r5, [r9, #4]
	.loc 1 29 9 is_stmt 1 view .LVU18
	.loc 1 29 31 is_stmt 0 view .LVU19
	ldr	r3, [r6, #4]
	.loc 1 29 15 view .LVU20
	mov	r0, r9
	ldr	r3, [r3]
	blx	r3
.LVL5:
	.loc 1 30 9 view .LVU21
	cmp	r0, #1
	.loc 1 29 15 view .LVU22
	mov	r4, r0
.LVL6:
	.loc 1 30 9 is_stmt 1 view .LVU23
	beq	.L4
	cmp	r0, #2
	beq	.L5
	cbnz	r0, .L13
.LVL7:
.L3:
	.loc 1 30 9 is_stmt 0 view .LVU24
.LBE316:
	.loc 1 23 41 is_stmt 1 discriminator 2 view .LVU25
	adds	r5, r5, #1
.LVL8:
	.loc 1 23 41 is_stmt 0 discriminator 2 view .LVU26
	adds	r6, r6, #8
.LVL9:
	.loc 1 23 41 discriminator 2 view .LVU27
	b	.L2
.LVL10:
.L4:
.LBB393:
	.loc 1 34 13 is_stmt 1 view .LVU28
.LBB317:
	.loc 1 34 18 view .LVU29
	.loc 1 34 67 view .LVU30
	.loc 1 34 24 view .LVU31
	.loc 1 34 12 view .LVU32
	.loc 1 34 51 view .LVU33
	.loc 1 34 186 view .LVU34
	.loc 1 34 197 view .LVU35
	.loc 1 34 285 view .LVU36
.LBB318:
	.loc 1 34 13 view .LVU37
	.loc 1 34 15 view .LVU38
	.loc 1 34 13 view .LVU39
.LBB319:
	.loc 1 34 18 view .LVU40
	.loc 1 34 12 view .LVU41
.LBE319:
.LBE318:
.LBE317:
.LBE393:
.LBE405:
	.loc 1 34 13 view .LVU42
	.loc 1 34 22 view .LVU43
	.loc 1 34 117 view .LVU44
	.loc 1 34 13 view .LVU45
.LBB406:
.LBB394:
.LBB328:
.LBB326:
.LBB324:
	.loc 1 34 22 view .LVU46
	.loc 1 34 112 view .LVU47
	.loc 1 34 114 view .LVU48
.LBB320:
	.loc 1 34 117 is_stmt 0 view .LVU49
	mov	r4, sp
	.loc 1 34 119 is_stmt 1 view .LVU50
	.loc 1 34 130 view .LVU51
.LVL11:
	.loc 1 34 219 view .LVU52
	.loc 1 34 36 view .LVU53
.LBE320:
.LBE324:
.LBE326:
.LBE328:
.LBE394:
.LBE406:
	.loc 1 34 13 view .LVU54
	.loc 1 34 378 view .LVU55
	.loc 1 34 85 view .LVU56
	.loc 1 34 12 view .LVU57
	.loc 1 34 12 view .LVU58
	.loc 1 34 12 view .LVU59
	.loc 1 34 48 view .LVU60
	.loc 1 34 14 view .LVU61
	.loc 1 34 40 view .LVU62
	.loc 1 34 66 view .LVU63
	.loc 1 34 533 view .LVU64
	.loc 1 34 595 view .LVU65
	.loc 1 34 1116 view .LVU66
	.loc 1 34 1181 view .LVU67
	.loc 1 34 1206 view .LVU68
	.loc 1 34 1207 view .LVU69
	.loc 1 34 1209 view .LVU70
	.loc 1 34 1239 view .LVU71
	.loc 1 34 1269 view .LVU72
	.loc 1 34 1301 view .LVU73
	.loc 1 34 1333 view .LVU74
	.loc 1 34 1365 view .LVU75
	.loc 1 34 1562 view .LVU76
	.loc 1 34 1586 view .LVU77
	.loc 1 34 1587 view .LVU78
	.loc 1 34 1589 view .LVU79
	.loc 1 34 1618 view .LVU80
	.loc 1 34 1647 view .LVU81
	.loc 1 34 1678 view .LVU82
	.loc 1 34 1709 view .LVU83
	.loc 1 34 1740 view .LVU84
	.loc 1 34 1947 view .LVU85
	.loc 1 34 14 view .LVU86
	.loc 1 34 32 view .LVU87
	.loc 1 34 52 view .LVU88
	.loc 1 34 14 view .LVU89
	.loc 1 34 52 view .LVU90
	.loc 1 34 23 view .LVU91
	.loc 1 34 23 view .LVU92
	.loc 1 34 71 view .LVU93
	.loc 1 34 102 view .LVU94
	.loc 1 34 136 view .LVU95
	.loc 1 34 141 view .LVU96
	.loc 1 34 398 view .LVU97
	.loc 1 34 1479 view .LVU98
	.loc 1 34 1544 view .LVU99
	.loc 1 34 1568 view .LVU100
	.loc 1 34 1629 view .LVU101
	.loc 1 34 1640 view .LVU102
	.loc 1 34 1759 view .LVU103
	.loc 1 34 1775 view .LVU104
	.loc 1 34 1815 view .LVU105
	.loc 1 34 1840 view .LVU106
	.loc 1 34 3143 view .LVU107
	.loc 1 34 3184 view .LVU108
	.loc 1 34 17 view .LVU109
	.loc 1 34 40 view .LVU110
	.loc 1 34 139 view .LVU111
	.loc 1 34 16 view .LVU112
	.loc 1 34 21 view .LVU113
	.loc 1 34 246 view .LVU114
	.loc 1 34 1199 view .LVU115
	.loc 1 34 1264 view .LVU116
	.loc 1 34 1288 view .LVU117
	.loc 1 34 1317 view .LVU118
	.loc 1 34 1328 view .LVU119
	.loc 1 34 1415 view .LVU120
	.loc 1 34 1431 view .LVU121
	.loc 1 34 1471 view .LVU122
	.loc 1 34 1496 view .LVU123
	.loc 1 34 2735 view .LVU124
	.loc 1 34 2776 view .LVU125
	.loc 1 34 17 view .LVU126
	.loc 1 34 40 view .LVU127
	.loc 1 34 19 view .LVU128
	.loc 1 34 15 view .LVU129
	.loc 1 34 38 view .LVU130
	.loc 1 34 62 view .LVU131
	.loc 1 34 90 view .LVU132
	.loc 1 34 266 view .LVU133
	.loc 1 34 26 view .LVU134
.LBB407:
.LBB395:
.LBB329:
.LBB327:
.LBB325:
.LBB323:
	.loc 1 34 39 view .LVU135
	.loc 1 34 13 view .LVU136
	.loc 1 34 13 view .LVU137
	.loc 1 34 80 view .LVU138
	.loc 1 34 92 is_stmt 0 view .LVU139
	sub	sp, sp, #32
	mov	r2, sp
.LVL12:
	.loc 1 34 84 is_stmt 1 view .LVU140
	.loc 1 34 494 view .LVU141
	.loc 1 34 15 view .LVU142
	.loc 1 34 17 view .LVU143
	.loc 1 34 22 view .LVU144
	.loc 1 34 20 view .LVU145
	.loc 1 34 15 view .LVU146
	.loc 1 34 33 view .LVU147
.LBB321:
	.loc 1 34 13 view .LVU148
	.loc 1 34 378 view .LVU149
	.loc 1 34 85 view .LVU150
.LVL13:
	.loc 1 34 12 view .LVU151
	.loc 1 34 12 view .LVU152
	.loc 1 34 12 view .LVU153
	.loc 1 34 48 view .LVU154
	.loc 1 34 77 view .LVU155
	.loc 1 34 103 view .LVU156
	.loc 1 34 129 view .LVU157
	.loc 1 34 596 view .LVU158
	.loc 1 34 658 view .LVU159
	.loc 1 34 1179 view .LVU160
	.loc 1 34 1244 view .LVU161
	.loc 1 34 1269 view .LVU162
	.loc 1 34 1270 view .LVU163
	.loc 1 34 1272 view .LVU164
	.loc 1 34 1302 view .LVU165
	.loc 1 34 1332 view .LVU166
	.loc 1 34 1364 view .LVU167
	.loc 1 34 1396 view .LVU168
	.loc 1 34 1428 view .LVU169
	.loc 1 34 1625 view .LVU170
	.loc 1 34 1649 view .LVU171
	.loc 1 34 1650 view .LVU172
	.loc 1 34 1652 view .LVU173
	.loc 1 34 1681 view .LVU174
	.loc 1 34 1710 view .LVU175
	.loc 1 34 1741 view .LVU176
	.loc 1 34 1772 view .LVU177
	.loc 1 34 1803 view .LVU178
	.loc 1 34 2010 view .LVU179
.LBB322:
	.loc 1 34 3181 view .LVU180
	.loc 1 34 3186 view .LVU181
	.loc 1 34 3822 view .LVU182
	.loc 1 34 0 is_stmt 0 view .LVU183
	ldr	r3, .L15+8
.LVL14:
.L14:
	.loc 1 34 0 view .LVU184
.LBE322:
.LBE321:
.LBE323:
.LBE325:
.LBE327:
.LBE329:
.LBB330:
.LBB331:
.LBB332:
.LBB333:
.LBB334:
.LBB335:
	.loc 1 37 0 view .LVU185
	str	r3, [r2, #20]
	.loc 1 37 3193 is_stmt 1 view .LVU186
	.loc 1 37 17 view .LVU187
.LVL15:
	.loc 1 37 40 view .LVU188
	.loc 1 37 40 is_stmt 0 view .LVU189
.LBE335:
	.loc 1 37 139 is_stmt 1 view .LVU190
	.loc 1 37 16 view .LVU191
.LBB336:
	.loc 1 37 21 view .LVU192
	.loc 1 37 246 view .LVU193
	.loc 1 37 1199 view .LVU194
	.loc 1 37 1264 view .LVU195
.LBE336:
.LBE334:
.LBE333:
.LBE332:
.LBE331:
.LBE330:
.LBE395:
.LBE407:
	.loc 1 37 1288 view .LVU196
	.loc 1 37 1317 view .LVU197
	.loc 1 37 1328 view .LVU198
	.loc 1 37 1415 view .LVU199
.LBB408:
.LBB396:
.LBB359:
.LBB354:
.LBB349:
.LBB345:
.LBB340:
.LBB337:
	.loc 1 37 1431 view .LVU200
	.loc 1 37 1471 view .LVU201
	.loc 1 37 1496 view .LVU202
	.loc 1 37 2735 view .LVU203
	.loc 1 37 2773 view .LVU204
	.loc 1 37 2778 view .LVU205
	.loc 1 37 3222 view .LVU206
	.loc 1 37 3821 is_stmt 0 view .LVU207
	ldr	r3, .L15+12
	str	r3, [r2, #24]
	.loc 1 37 2776 is_stmt 1 view .LVU208
	.loc 1 37 17 view .LVU209
.LVL16:
	.loc 1 37 40 view .LVU210
	.loc 1 37 40 is_stmt 0 view .LVU211
.LBE337:
	.loc 1 37 19 is_stmt 1 view .LVU212
	.loc 1 37 15 view .LVU213
	.loc 1 37 38 view .LVU214
	.loc 1 37 62 view .LVU215
	.loc 1 37 90 view .LVU216
.LBE340:
.LBE345:
.LBE349:
.LBE354:
.LBE359:
.LBE396:
.LBE408:
	.loc 1 37 16 view .LVU217
	.loc 1 37 55 view .LVU218
	.loc 1 37 60 view .LVU219
	.loc 1 37 90 view .LVU220
	.loc 1 37 157 view .LVU221
	.loc 1 37 162 view .LVU222
	.loc 1 37 192 view .LVU223
.LBB409:
.LBB397:
.LBB360:
.LBB355:
.LBB350:
.LBB346:
.LBB341:
	.loc 1 37 266 view .LVU224
	.loc 1 37 26 view .LVU225
.LBB338:
	.loc 1 37 16 view .LVU226
	.loc 1 37 174 view .LVU227
	.loc 1 37 176 view .LVU228
	.loc 1 37 186 is_stmt 0 view .LVU229
	movs	r3, #3
	str	r3, [r2, #16]!
.LVL17:
	.loc 1 37 186 view .LVU230
.LBE338:
.LBE341:
	.loc 1 37 36 is_stmt 1 view .LVU231
	.loc 1 37 17 view .LVU232
	.loc 1 37 157 view .LVU233
	.loc 1 37 159 view .LVU234
.LBB342:
.LBI342:
	.file 2 "/home/g/mise-work/zmk-firmware/zmk/app/build/zephyr/include/generated/syscalls/log_msg.h"
	.loc 2 26 20 view .LVU235
.LBB343:
	.loc 2 38 2 view .LVU236
	.loc 2 38 7 view .LVU237
	.loc 2 38 5 view .LVU238
	.loc 2 39 2 view .LVU239
	ldr	r0, .L15+16
.LVL18:
	.loc 2 39 2 is_stmt 0 view .LVU240
	movs	r3, #0
	mov	r1, #6400
	bl	z_impl_z_log_msg_static_create
.LVL19:
	.loc 2 39 2 view .LVU241
.LBE343:
.LBE342:
	mov	sp, r4
.LBE346:
	.loc 1 37 117 is_stmt 1 view .LVU242
	.loc 1 37 15 view .LVU243
.LVL20:
	.loc 1 37 52 view .LVU244
.LBE350:
	.loc 1 37 16 view .LVU245
.LBE355:
	.loc 1 37 288 view .LVU246
	.loc 1 37 15 view .LVU247
	.loc 1 37 28 view .LVU248
.LBE360:
	.loc 1 37 16 view .LVU249
	.loc 1 38 13 view .LVU250
.L7:
	.loc 1 35 20 is_stmt 0 view .LVU251
	movs	r4, #0
.LVL21:
.L1:
	.loc 1 35 20 view .LVU252
.LBE397:
.LBE409:
	.loc 1 46 1 view .LVU253
	mov	r0, r4
	mov	sp, r7
	.cfi_remember_state
	.cfi_def_cfa_register 13
	@ sp needed
	pop	{r3, r4, r5, r6, r7, r8, r9, pc}
.LVL22:
.L5:
	.cfi_restore_state
.LBB410:
.LBB398:
	.loc 1 37 13 is_stmt 1 view .LVU254
.LBB361:
	.loc 1 37 18 view .LVU255
	.loc 1 37 67 view .LVU256
	.loc 1 37 24 view .LVU257
	.loc 1 37 12 view .LVU258
	.loc 1 37 51 view .LVU259
	.loc 1 37 186 view .LVU260
	.loc 1 37 197 view .LVU261
	.loc 1 37 285 view .LVU262
.LBB356:
	.loc 1 37 13 view .LVU263
	.loc 1 37 15 view .LVU264
	.loc 1 37 13 view .LVU265
.LBB351:
	.loc 1 37 18 view .LVU266
	.loc 1 37 12 view .LVU267
.LBE351:
.LBE356:
.LBE361:
.LBE398:
.LBE410:
	.loc 1 37 13 view .LVU268
	.loc 1 37 22 view .LVU269
	.loc 1 37 117 view .LVU270
	.loc 1 37 13 view .LVU271
.LBB411:
.LBB399:
.LBB362:
.LBB357:
.LBB352:
	.loc 1 37 22 view .LVU272
	.loc 1 37 112 view .LVU273
	.loc 1 37 114 view .LVU274
.LBB347:
	.loc 1 37 117 is_stmt 0 view .LVU275
	mov	r4, sp
	.loc 1 37 119 is_stmt 1 view .LVU276
	.loc 1 37 130 view .LVU277
.LVL23:
	.loc 1 37 219 view .LVU278
	.loc 1 37 36 view .LVU279
.LBE347:
.LBE352:
.LBE357:
.LBE362:
.LBE399:
.LBE411:
	.loc 1 37 13 view .LVU280
	.loc 1 37 378 view .LVU281
	.loc 1 37 85 view .LVU282
	.loc 1 37 12 view .LVU283
	.loc 1 37 12 view .LVU284
	.loc 1 37 12 view .LVU285
	.loc 1 37 48 view .LVU286
	.loc 1 37 14 view .LVU287
	.loc 1 37 40 view .LVU288
	.loc 1 37 66 view .LVU289
	.loc 1 37 533 view .LVU290
	.loc 1 37 595 view .LVU291
	.loc 1 37 1116 view .LVU292
	.loc 1 37 1181 view .LVU293
	.loc 1 37 1206 view .LVU294
	.loc 1 37 1207 view .LVU295
	.loc 1 37 1209 view .LVU296
	.loc 1 37 1239 view .LVU297
	.loc 1 37 1269 view .LVU298
	.loc 1 37 1301 view .LVU299
	.loc 1 37 1333 view .LVU300
	.loc 1 37 1365 view .LVU301
	.loc 1 37 1562 view .LVU302
	.loc 1 37 1586 view .LVU303
	.loc 1 37 1587 view .LVU304
	.loc 1 37 1589 view .LVU305
	.loc 1 37 1618 view .LVU306
	.loc 1 37 1647 view .LVU307
	.loc 1 37 1678 view .LVU308
	.loc 1 37 1709 view .LVU309
	.loc 1 37 1740 view .LVU310
	.loc 1 37 1947 view .LVU311
	.loc 1 37 14 view .LVU312
	.loc 1 37 32 view .LVU313
	.loc 1 37 52 view .LVU314
	.loc 1 37 14 view .LVU315
	.loc 1 37 52 view .LVU316
	.loc 1 37 23 view .LVU317
	.loc 1 37 23 view .LVU318
	.loc 1 37 71 view .LVU319
	.loc 1 37 102 view .LVU320
	.loc 1 37 136 view .LVU321
	.loc 1 37 141 view .LVU322
	.loc 1 37 399 view .LVU323
	.loc 1 37 1484 view .LVU324
	.loc 1 37 1549 view .LVU325
	.loc 1 37 1573 view .LVU326
	.loc 1 37 1635 view .LVU327
	.loc 1 37 1646 view .LVU328
	.loc 1 37 1766 view .LVU329
	.loc 1 37 1782 view .LVU330
	.loc 1 37 1822 view .LVU331
	.loc 1 37 1847 view .LVU332
	.loc 1 37 3152 view .LVU333
	.loc 1 37 3193 view .LVU334
	.loc 1 37 17 view .LVU335
	.loc 1 37 40 view .LVU336
	.loc 1 37 139 view .LVU337
	.loc 1 37 16 view .LVU338
	.loc 1 37 21 view .LVU339
	.loc 1 37 246 view .LVU340
	.loc 1 37 1199 view .LVU341
	.loc 1 37 1264 view .LVU342
	.loc 1 37 1288 view .LVU343
	.loc 1 37 1317 view .LVU344
	.loc 1 37 1328 view .LVU345
	.loc 1 37 1415 view .LVU346
	.loc 1 37 1431 view .LVU347
	.loc 1 37 1471 view .LVU348
	.loc 1 37 1496 view .LVU349
	.loc 1 37 2735 view .LVU350
	.loc 1 37 2776 view .LVU351
	.loc 1 37 17 view .LVU352
	.loc 1 37 40 view .LVU353
	.loc 1 37 19 view .LVU354
	.loc 1 37 15 view .LVU355
	.loc 1 37 38 view .LVU356
	.loc 1 37 62 view .LVU357
	.loc 1 37 90 view .LVU358
	.loc 1 37 266 view .LVU359
	.loc 1 37 26 view .LVU360
.LBB412:
.LBB400:
.LBB363:
.LBB358:
.LBB353:
.LBB348:
	.loc 1 37 39 view .LVU361
	.loc 1 37 13 view .LVU362
	.loc 1 37 13 view .LVU363
	.loc 1 37 80 view .LVU364
	.loc 1 37 92 is_stmt 0 view .LVU365
	sub	sp, sp, #32
	mov	r2, sp
.LVL24:
	.loc 1 37 84 is_stmt 1 view .LVU366
	.loc 1 37 494 view .LVU367
	.loc 1 37 15 view .LVU368
	.loc 1 37 17 view .LVU369
	.loc 1 37 22 view .LVU370
	.loc 1 37 20 view .LVU371
	.loc 1 37 15 view .LVU372
	.loc 1 37 33 view .LVU373
.LBB344:
	.loc 1 37 13 view .LVU374
	.loc 1 37 378 view .LVU375
	.loc 1 37 85 view .LVU376
.LVL25:
	.loc 1 37 12 view .LVU377
	.loc 1 37 12 view .LVU378
	.loc 1 37 12 view .LVU379
	.loc 1 37 48 view .LVU380
	.loc 1 37 77 view .LVU381
	.loc 1 37 103 view .LVU382
	.loc 1 37 129 view .LVU383
	.loc 1 37 596 view .LVU384
	.loc 1 37 658 view .LVU385
	.loc 1 37 1179 view .LVU386
	.loc 1 37 1244 view .LVU387
	.loc 1 37 1269 view .LVU388
	.loc 1 37 1270 view .LVU389
	.loc 1 37 1272 view .LVU390
	.loc 1 37 1302 view .LVU391
	.loc 1 37 1332 view .LVU392
	.loc 1 37 1364 view .LVU393
	.loc 1 37 1396 view .LVU394
	.loc 1 37 1428 view .LVU395
	.loc 1 37 1625 view .LVU396
	.loc 1 37 1649 view .LVU397
	.loc 1 37 1650 view .LVU398
	.loc 1 37 1652 view .LVU399
	.loc 1 37 1681 view .LVU400
	.loc 1 37 1710 view .LVU401
	.loc 1 37 1741 view .LVU402
	.loc 1 37 1772 view .LVU403
	.loc 1 37 1803 view .LVU404
	.loc 1 37 2010 view .LVU405
.LBB339:
	.loc 1 37 3190 view .LVU406
	.loc 1 37 3195 view .LVU407
	.loc 1 37 3837 view .LVU408
	.loc 1 37 0 is_stmt 0 view .LVU409
	ldr	r3, .L15+20
	b	.L14
.LVL26:
.L13:
	.loc 1 37 0 view .LVU410
.LBE339:
.LBE344:
.LBE348:
.LBE353:
.LBE358:
.LBE363:
	.loc 1 40 13 is_stmt 1 view .LVU411
.LBB364:
	.loc 1 40 18 view .LVU412
	.loc 1 40 67 view .LVU413
	.loc 1 40 24 view .LVU414
	.loc 1 40 12 view .LVU415
	.loc 1 40 51 view .LVU416
	.loc 1 40 186 view .LVU417
	.loc 1 40 197 view .LVU418
	.loc 1 40 285 view .LVU419
.LBB365:
	.loc 1 40 13 view .LVU420
	.loc 1 40 15 view .LVU421
	.loc 1 40 64 view .LVU422
	.loc 1 40 13 view .LVU423
.LBB366:
	.loc 1 40 18 view .LVU424
	.loc 1 40 12 view .LVU425
.LBE366:
.LBE365:
.LBE364:
.LBE400:
.LBE412:
	.loc 1 40 13 view .LVU426
	.loc 1 40 22 view .LVU427
	.loc 1 40 117 view .LVU428
	.loc 1 40 13 view .LVU429
.LBB413:
.LBB401:
.LBB389:
.LBB385:
.LBB381:
	.loc 1 40 22 view .LVU430
	.loc 1 40 112 view .LVU431
	.loc 1 40 114 view .LVU432
.LBB367:
	.loc 1 40 117 is_stmt 0 view .LVU433
	mov	r5, sp
.LVL27:
	.loc 1 40 119 is_stmt 1 view .LVU434
	.loc 1 40 130 view .LVU435
	.loc 1 40 219 view .LVU436
	.loc 1 40 36 view .LVU437
.LBE367:
.LBE381:
.LBE385:
.LBE389:
.LBE401:
.LBE413:
	.loc 1 40 13 view .LVU438
	.loc 1 40 378 view .LVU439
	.loc 1 40 85 view .LVU440
	.loc 1 40 12 view .LVU441
	.loc 1 40 12 view .LVU442
	.loc 1 40 12 view .LVU443
	.loc 1 40 48 view .LVU444
	.loc 1 40 14 view .LVU445
	.loc 1 40 40 view .LVU446
	.loc 1 40 66 view .LVU447
	.loc 1 40 979 view .LVU448
	.loc 1 40 1041 view .LVU449
	.loc 1 40 2028 view .LVU450
	.loc 1 40 2093 view .LVU451
	.loc 1 40 2118 view .LVU452
	.loc 1 40 2119 view .LVU453
	.loc 1 40 2121 view .LVU454
	.loc 1 40 2151 view .LVU455
	.loc 1 40 2181 view .LVU456
	.loc 1 40 2213 view .LVU457
	.loc 1 40 2245 view .LVU458
	.loc 1 40 2277 view .LVU459
	.loc 1 40 2474 view .LVU460
	.loc 1 40 2498 view .LVU461
	.loc 1 40 2499 view .LVU462
	.loc 1 40 2501 view .LVU463
	.loc 1 40 2530 view .LVU464
	.loc 1 40 2559 view .LVU465
	.loc 1 40 2590 view .LVU466
	.loc 1 40 2621 view .LVU467
	.loc 1 40 2652 view .LVU468
	.loc 1 40 2859 view .LVU469
	.loc 1 40 14 view .LVU470
	.loc 1 40 32 view .LVU471
	.loc 1 40 52 view .LVU472
	.loc 1 40 14 view .LVU473
	.loc 1 40 52 view .LVU474
	.loc 1 40 23 view .LVU475
	.loc 1 40 23 view .LVU476
	.loc 1 40 71 view .LVU477
	.loc 1 40 102 view .LVU478
	.loc 1 40 136 view .LVU479
	.loc 1 40 141 view .LVU480
	.loc 1 40 402 view .LVU481
	.loc 1 40 1499 view .LVU482
	.loc 1 40 1564 view .LVU483
	.loc 1 40 1588 view .LVU484
	.loc 1 40 1653 view .LVU485
	.loc 1 40 1664 view .LVU486
	.loc 1 40 1787 view .LVU487
	.loc 1 40 1803 view .LVU488
	.loc 1 40 1843 view .LVU489
	.loc 1 40 1868 view .LVU490
	.loc 1 40 3179 view .LVU491
	.loc 1 40 3220 view .LVU492
	.loc 1 40 17 view .LVU493
	.loc 1 40 40 view .LVU494
	.loc 1 40 139 view .LVU495
	.loc 1 40 16 view .LVU496
	.loc 1 40 21 view .LVU497
	.loc 1 40 246 view .LVU498
	.loc 1 40 1199 view .LVU499
	.loc 1 40 1264 view .LVU500
	.loc 1 40 1288 view .LVU501
	.loc 1 40 1317 view .LVU502
	.loc 1 40 1328 view .LVU503
	.loc 1 40 1415 view .LVU504
	.loc 1 40 1431 view .LVU505
	.loc 1 40 1471 view .LVU506
	.loc 1 40 1496 view .LVU507
	.loc 1 40 2735 view .LVU508
	.loc 1 40 2776 view .LVU509
	.loc 1 40 17 view .LVU510
	.loc 1 40 40 view .LVU511
	.loc 1 40 19 view .LVU512
	.loc 1 40 16 view .LVU513
	.loc 1 40 21 view .LVU514
	.loc 1 40 246 view .LVU515
	.loc 1 40 1199 view .LVU516
	.loc 1 40 1264 view .LVU517
	.loc 1 40 1288 view .LVU518
	.loc 1 40 1317 view .LVU519
	.loc 1 40 1328 view .LVU520
	.loc 1 40 1415 view .LVU521
	.loc 1 40 1431 view .LVU522
	.loc 1 40 1471 view .LVU523
	.loc 1 40 2735 view .LVU524
	.loc 1 40 2776 view .LVU525
	.loc 1 40 17 view .LVU526
	.loc 1 40 40 view .LVU527
	.loc 1 40 19 view .LVU528
	.loc 1 40 15 view .LVU529
	.loc 1 40 38 view .LVU530
	.loc 1 40 62 view .LVU531
	.loc 1 40 90 view .LVU532
	.loc 1 40 266 view .LVU533
	.loc 1 40 26 view .LVU534
.LBB414:
.LBB402:
.LBB390:
.LBB386:
.LBB382:
.LBB378:
	.loc 1 40 39 view .LVU535
	.loc 1 40 13 view .LVU536
	.loc 1 40 13 view .LVU537
	.loc 1 40 80 view .LVU538
	.loc 1 40 92 is_stmt 0 view .LVU539
	sub	sp, sp, #32
	mov	r2, sp
.LVL28:
	.loc 1 40 84 is_stmt 1 view .LVU540
	.loc 1 40 494 view .LVU541
	.loc 1 40 15 view .LVU542
	.loc 1 40 17 view .LVU543
	.loc 1 40 22 view .LVU544
	.loc 1 40 20 view .LVU545
	.loc 1 40 15 view .LVU546
	.loc 1 40 33 view .LVU547
.LBB368:
	.loc 1 40 13 view .LVU548
	.loc 1 40 378 view .LVU549
	.loc 1 40 85 view .LVU550
.LVL29:
	.loc 1 40 12 view .LVU551
	.loc 1 40 12 view .LVU552
	.loc 1 40 12 view .LVU553
	.loc 1 40 48 view .LVU554
	.loc 1 40 77 view .LVU555
	.loc 1 40 103 view .LVU556
	.loc 1 40 129 view .LVU557
	.loc 1 40 1042 view .LVU558
	.loc 1 40 1104 view .LVU559
	.loc 1 40 2091 view .LVU560
	.loc 1 40 2156 view .LVU561
	.loc 1 40 2181 view .LVU562
	.loc 1 40 2182 view .LVU563
	.loc 1 40 2184 view .LVU564
	.loc 1 40 2214 view .LVU565
	.loc 1 40 2244 view .LVU566
	.loc 1 40 2276 view .LVU567
	.loc 1 40 2308 view .LVU568
	.loc 1 40 2340 view .LVU569
	.loc 1 40 2537 view .LVU570
	.loc 1 40 2561 view .LVU571
	.loc 1 40 2562 view .LVU572
	.loc 1 40 2564 view .LVU573
	.loc 1 40 2593 view .LVU574
	.loc 1 40 2622 view .LVU575
	.loc 1 40 2653 view .LVU576
	.loc 1 40 2684 view .LVU577
	.loc 1 40 2715 view .LVU578
	.loc 1 40 2922 view .LVU579
.LBB369:
	.loc 1 40 3217 view .LVU580
	.loc 1 40 3222 view .LVU581
	.loc 1 40 3882 view .LVU582
	.loc 1 40 0 is_stmt 0 view .LVU583
	ldr	r3, .L15+24
	str	r3, [r2, #20]
	.loc 1 40 3220 is_stmt 1 view .LVU584
	.loc 1 40 17 view .LVU585
.LVL30:
	.loc 1 40 40 view .LVU586
	.loc 1 40 40 is_stmt 0 view .LVU587
.LBE369:
	.loc 1 40 139 is_stmt 1 view .LVU588
	.loc 1 40 16 view .LVU589
.LBB370:
	.loc 1 40 21 view .LVU590
	.loc 1 40 246 view .LVU591
	.loc 1 40 1199 view .LVU592
	.loc 1 40 1264 view .LVU593
.LBE370:
.LBE368:
.LBE378:
.LBE382:
.LBE386:
.LBE390:
.LBE402:
.LBE414:
	.loc 1 40 1288 view .LVU594
	.loc 1 40 1317 view .LVU595
	.loc 1 40 1328 view .LVU596
	.loc 1 40 1415 view .LVU597
.LBB415:
.LBB403:
.LBB391:
.LBB387:
.LBB383:
.LBB379:
.LBB374:
.LBB371:
	.loc 1 40 1431 view .LVU598
	.loc 1 40 1471 view .LVU599
	.loc 1 40 1496 view .LVU600
	.loc 1 40 2735 view .LVU601
	.loc 1 40 2773 view .LVU602
	.loc 1 40 2778 view .LVU603
	.loc 1 40 3222 view .LVU604
	.loc 1 40 3821 is_stmt 0 view .LVU605
	ldr	r3, .L15+12
.LBE371:
.LBB372:
	.loc 1 40 3821 view .LVU606
	strd	r3, r0, [r2, #24]
	.loc 1 40 2776 is_stmt 1 view .LVU607
	.loc 1 40 17 view .LVU608
.LVL31:
	.loc 1 40 40 view .LVU609
	.loc 1 40 40 is_stmt 0 view .LVU610
.LBE372:
	.loc 1 40 19 is_stmt 1 view .LVU611
	.loc 1 40 15 view .LVU612
	.loc 1 40 38 view .LVU613
	.loc 1 40 62 view .LVU614
	.loc 1 40 90 view .LVU615
.LBE374:
.LBE379:
.LBE383:
.LBE387:
.LBE391:
.LBE403:
.LBE415:
	.loc 1 40 16 view .LVU616
	.loc 1 40 55 view .LVU617
	.loc 1 40 60 view .LVU618
	.loc 1 40 90 view .LVU619
	.loc 1 40 157 view .LVU620
	.loc 1 40 162 view .LVU621
	.loc 1 40 192 view .LVU622
.LBB416:
.LBB404:
.LBB392:
.LBB388:
.LBB384:
.LBB380:
.LBB375:
	.loc 1 40 266 view .LVU623
	.loc 1 40 26 view .LVU624
.LBB373:
	.loc 1 40 16 view .LVU625
	.loc 1 40 174 view .LVU626
	.loc 1 40 176 view .LVU627
	.loc 1 40 186 is_stmt 0 view .LVU628
	movs	r3, #4
	str	r3, [r2, #16]!
.LVL32:
	.loc 1 40 186 view .LVU629
.LBE373:
.LBE375:
	.loc 1 40 36 is_stmt 1 view .LVU630
	.loc 1 40 17 view .LVU631
	.loc 1 40 157 view .LVU632
	.loc 1 40 159 view .LVU633
.LBB376:
.LBI376:
	.loc 2 26 20 view .LVU634
.LBB377:
	.loc 2 38 2 view .LVU635
	.loc 2 38 7 view .LVU636
	.loc 2 38 5 view .LVU637
	.loc 2 39 2 view .LVU638
	ldr	r0, .L15+16
.LVL33:
	.loc 2 39 2 is_stmt 0 view .LVU639
	movs	r3, #0
	mov	r1, #8448
	bl	z_impl_z_log_msg_static_create
.LVL34:
	.loc 2 39 2 view .LVU640
.LBE377:
.LBE376:
	mov	sp, r5
.LVL35:
	.loc 2 39 2 view .LVU641
.LBE380:
	.loc 1 40 117 is_stmt 1 view .LVU642
	.loc 1 40 15 view .LVU643
	.loc 1 40 52 view .LVU644
.LBE384:
	.loc 1 40 16 view .LVU645
.LBE388:
	.loc 1 40 288 view .LVU646
	.loc 1 40 15 view .LVU647
	.loc 1 40 28 view .LVU648
.LBE392:
	.loc 1 40 16 view .LVU649
	.loc 1 41 13 view .LVU650
	.loc 1 41 20 is_stmt 0 view .LVU651
	b	.L1
.L16:
	.align	2
.L15:
	.word	__event_subscriptions_start
	.word	__event_subscriptions_end
	.word	.LC0
	.word	__func__.0
	.word	log_const_zmk
	.word	.LC1
	.word	.LC2
.LBE404:
.LBE416:
	.cfi_endproc
.LFE469:
	.size	zmk_event_manager_handle_from, .-zmk_event_manager_handle_from
	.section	.text.zmk_event_manager_raise,"ax",%progbits
	.align	1
	.global	zmk_event_manager_raise
	.syntax unified
	.thumb
	.thumb_func
	.type	zmk_event_manager_raise, %function
zmk_event_manager_raise:
.LVL36:
.LFB470:
	.loc 1 48 49 is_stmt 1 view -0
	.cfi_startproc
	@ args = 0, pretend = 0, frame = 0
	@ frame_needed = 0, uses_anonymous_args = 0
	@ link register save eliminated.
	.loc 1 48 51 view .LVU653
	.loc 1 48 58 is_stmt 0 view .LVU654
	movs	r1, #0
	b	zmk_event_manager_handle_from
.LVL37:
	.loc 1 48 58 view .LVU655
	.cfi_endproc
.LFE470:
	.size	zmk_event_manager_raise, .-zmk_event_manager_raise
	.section	.rodata.zmk_event_manager_raise_after.str1.1,"aMS",%progbits,1
.LC3:
	.ascii	"Unable to find where to raise this after event\000"
	.section	.text.zmk_event_manager_raise_after,"ax",%progbits
	.align	1
	.global	zmk_event_manager_raise_after
	.syntax unified
	.thumb
	.thumb_func
	.type	zmk_event_manager_raise_after, %function
zmk_event_manager_raise_after:
.LVL38:
.LFB471:
	.loc 1 50 92 is_stmt 1 view -0
	.cfi_startproc
	@ args = 0, pretend = 0, frame = 24
	@ frame_needed = 0, uses_anonymous_args = 0
	.loc 1 51 5 view .LVU657
	.loc 1 50 92 is_stmt 0 view .LVU658
	push	{r4, r5, r6, lr}
	.cfi_def_cfa_offset 16
	.cfi_offset 4, -16
	.cfi_offset 5, -12
	.cfi_offset 6, -8
	.cfi_offset 14, -4
	.loc 1 51 45 view .LVU659
	ldr	r3, .L22
	ldr	r4, .L22+4
	subs	r4, r4, r3
.LVL39:
	.loc 1 52 5 is_stmt 1 view .LVU660
.LBB427:
	.loc 1 52 10 view .LVU661
	.loc 1 52 10 is_stmt 0 view .LVU662
.LBE427:
	.loc 1 50 92 view .LVU663
	sub	sp, sp, #24
	.cfi_def_cfa_offset 40
.LBB430:
	.loc 1 52 14 view .LVU664
	movs	r2, #0
	.loc 1 52 23 view .LVU665
	ubfx	r4, r4, #3, #8
.LVL40:
.L19:
	.loc 1 52 23 is_stmt 1 discriminator 1 view .LVU666
	cmp	r4, r2
	bgt	.L21
.LBE430:
	.loc 1 60 5 view .LVU667
.LBB431:
	.loc 1 60 10 view .LVU668
	.loc 1 60 59 view .LVU669
	.loc 1 60 16 view .LVU670
	.loc 1 60 4 view .LVU671
.LVL41:
	.loc 1 60 43 view .LVU672
	.loc 1 60 178 view .LVU673
	.loc 1 60 189 view .LVU674
	.loc 1 60 277 view .LVU675
	.loc 1 60 5 view .LVU676
	.loc 1 60 5 view .LVU677
.LBB432:
	.loc 1 60 10 view .LVU678
	.loc 1 60 4 view .LVU679
.LBE432:
.LBE431:
	.loc 1 60 5 view .LVU680
	.loc 1 60 14 view .LVU681
	.loc 1 60 109 view .LVU682
	.loc 1 60 5 view .LVU683
.LBB449:
.LBB445:
	.loc 1 60 14 view .LVU684
	.loc 1 60 104 view .LVU685
	.loc 1 60 106 view .LVU686
.LBB433:
	.loc 1 60 111 view .LVU687
	.loc 1 60 122 view .LVU688
	.loc 1 60 211 view .LVU689
	.loc 1 60 28 view .LVU690
.LBE433:
.LBE445:
.LBE449:
	.loc 1 60 5 view .LVU691
	.loc 1 60 370 view .LVU692
	.loc 1 60 77 view .LVU693
	.loc 1 60 4 view .LVU694
	.loc 1 60 4 view .LVU695
	.loc 1 60 4 view .LVU696
	.loc 1 60 40 view .LVU697
	.loc 1 60 6 view .LVU698
	.loc 1 60 32 view .LVU699
	.loc 1 60 58 view .LVU700
	.loc 1 60 81 view .LVU701
	.loc 1 60 143 view .LVU702
	.loc 1 60 200 view .LVU703
	.loc 1 60 265 view .LVU704
	.loc 1 60 290 view .LVU705
	.loc 1 60 291 view .LVU706
	.loc 1 60 293 view .LVU707
	.loc 1 60 323 view .LVU708
	.loc 1 60 353 view .LVU709
	.loc 1 60 385 view .LVU710
	.loc 1 60 417 view .LVU711
	.loc 1 60 449 view .LVU712
	.loc 1 60 646 view .LVU713
	.loc 1 60 670 view .LVU714
	.loc 1 60 671 view .LVU715
	.loc 1 60 673 view .LVU716
	.loc 1 60 702 view .LVU717
	.loc 1 60 731 view .LVU718
	.loc 1 60 762 view .LVU719
	.loc 1 60 793 view .LVU720
	.loc 1 60 824 view .LVU721
	.loc 1 60 1031 view .LVU722
	.loc 1 60 6 view .LVU723
	.loc 1 60 24 view .LVU724
	.loc 1 60 44 view .LVU725
	.loc 1 60 6 view .LVU726
	.loc 1 60 44 view .LVU727
	.loc 1 60 15 view .LVU728
	.loc 1 60 15 view .LVU729
	.loc 1 60 63 view .LVU730
	.loc 1 60 94 view .LVU731
	.loc 1 60 128 view .LVU732
	.loc 1 60 133 view .LVU733
	.loc 1 60 403 view .LVU734
	.loc 1 60 1536 view .LVU735
	.loc 1 60 1601 view .LVU736
	.loc 1 60 1625 view .LVU737
	.loc 1 60 1699 view .LVU738
	.loc 1 60 1710 view .LVU739
	.loc 1 60 1842 view .LVU740
	.loc 1 60 1858 view .LVU741
	.loc 1 60 1898 view .LVU742
	.loc 1 60 1923 view .LVU743
	.loc 1 60 3252 view .LVU744
	.loc 1 60 3293 view .LVU745
	.loc 1 60 9 view .LVU746
	.loc 1 60 32 view .LVU747
	.loc 1 60 131 view .LVU748
	.loc 1 60 7 view .LVU749
	.loc 1 60 30 view .LVU750
	.loc 1 60 54 view .LVU751
	.loc 1 60 82 view .LVU752
	.loc 1 60 258 view .LVU753
	.loc 1 60 18 view .LVU754
.LBB450:
.LBB446:
.LBB442:
	.loc 1 60 31 view .LVU755
	.loc 1 60 5 view .LVU756
	.loc 1 60 5 view .LVU757
	.loc 1 60 72 view .LVU758
	.loc 1 60 76 view .LVU759
	.loc 1 60 486 view .LVU760
	.loc 1 60 7 view .LVU761
	.loc 1 60 9 view .LVU762
	.loc 1 60 14 view .LVU763
	.loc 1 60 12 view .LVU764
	.loc 1 60 7 view .LVU765
	.loc 1 60 25 view .LVU766
.LBB434:
	.loc 1 60 5 view .LVU767
	.loc 1 60 370 view .LVU768
	.loc 1 60 77 view .LVU769
.LVL42:
	.loc 1 60 4 view .LVU770
	.loc 1 60 4 view .LVU771
	.loc 1 60 4 view .LVU772
	.loc 1 60 40 view .LVU773
	.loc 1 60 69 view .LVU774
	.loc 1 60 95 view .LVU775
	.loc 1 60 121 view .LVU776
	.loc 1 60 144 view .LVU777
	.loc 1 60 206 view .LVU778
	.loc 1 60 263 view .LVU779
	.loc 1 60 328 view .LVU780
	.loc 1 60 353 view .LVU781
	.loc 1 60 354 view .LVU782
	.loc 1 60 356 view .LVU783
	.loc 1 60 386 view .LVU784
	.loc 1 60 416 view .LVU785
	.loc 1 60 448 view .LVU786
	.loc 1 60 480 view .LVU787
	.loc 1 60 512 view .LVU788
	.loc 1 60 709 view .LVU789
	.loc 1 60 733 view .LVU790
	.loc 1 60 734 view .LVU791
	.loc 1 60 736 view .LVU792
	.loc 1 60 765 view .LVU793
	.loc 1 60 794 view .LVU794
	.loc 1 60 825 view .LVU795
	.loc 1 60 856 view .LVU796
	.loc 1 60 887 view .LVU797
	.loc 1 60 1094 view .LVU798
	.loc 1 60 6 view .LVU799
	.loc 1 60 24 view .LVU800
	.loc 1 60 44 view .LVU801
	.loc 1 60 6 view .LVU802
	.loc 1 60 44 view .LVU803
	.loc 1 60 15 view .LVU804
	.loc 1 60 15 view .LVU805
	.loc 1 60 63 view .LVU806
	.loc 1 60 94 view .LVU807
	.loc 1 60 128 view .LVU808
.LBB435:
	.loc 1 60 133 view .LVU809
	.loc 1 60 403 view .LVU810
	.loc 1 60 1536 view .LVU811
	.loc 1 60 1601 view .LVU812
.LBE435:
.LBE434:
.LBE442:
.LBE446:
.LBE450:
	.loc 1 60 1625 view .LVU813
	.loc 1 60 1699 view .LVU814
	.loc 1 60 1710 view .LVU815
	.loc 1 60 1842 view .LVU816
.LBB451:
.LBB447:
.LBB443:
.LBB438:
.LBB436:
	.loc 1 60 1858 view .LVU817
	.loc 1 60 1898 view .LVU818
	.loc 1 60 1923 view .LVU819
	.loc 1 60 3252 view .LVU820
	.loc 1 60 3290 view .LVU821
	.loc 1 60 3295 view .LVU822
	.loc 1 60 4009 view .LVU823
	.loc 1 60 0 is_stmt 0 view .LVU824
	ldr	r3, .L22+8
	str	r3, [sp, #20]
	.loc 1 60 3293 is_stmt 1 view .LVU825
	.loc 1 60 9 view .LVU826
.LVL43:
	.loc 1 60 32 view .LVU827
	.loc 1 60 32 is_stmt 0 view .LVU828
.LBE436:
	.loc 1 60 131 is_stmt 1 view .LVU829
	.loc 1 60 7 view .LVU830
	.loc 1 60 30 view .LVU831
	.loc 1 60 54 view .LVU832
	.loc 1 60 82 view .LVU833
.LBE438:
.LBE443:
.LBE447:
.LBE451:
	.loc 1 60 8 view .LVU834
	.loc 1 60 47 view .LVU835
	.loc 1 60 52 view .LVU836
	.loc 1 60 82 view .LVU837
	.loc 1 60 149 view .LVU838
	.loc 1 60 154 view .LVU839
	.loc 1 60 184 view .LVU840
.LBB452:
.LBB448:
.LBB444:
.LBB439:
	.loc 1 60 258 view .LVU841
	.loc 1 60 18 view .LVU842
.LBB437:
	.loc 1 60 8 view .LVU843
	.loc 1 60 166 view .LVU844
	.loc 1 60 168 view .LVU845
	.loc 1 60 178 is_stmt 0 view .LVU846
	movs	r3, #2
	str	r3, [sp, #16]
.LVL44:
	.loc 1 60 178 view .LVU847
.LBE437:
.LBE439:
	.loc 1 60 28 is_stmt 1 view .LVU848
	.loc 1 60 9 view .LVU849
	.loc 1 60 149 view .LVU850
	.loc 1 60 151 view .LVU851
.LBB440:
.LBI440:
	.loc 2 26 20 view .LVU852
.LBB441:
	.loc 2 38 2 view .LVU853
	.loc 2 38 7 view .LVU854
	.loc 2 38 5 view .LVU855
	.loc 2 39 2 view .LVU856
	ldr	r0, .L22+12
.LVL45:
	.loc 2 39 2 is_stmt 0 view .LVU857
	movs	r3, #0
	add	r2, sp, #16
.LVL46:
	.loc 2 39 2 view .LVU858
	mov	r1, #4224
.LVL47:
	.loc 2 39 2 view .LVU859
	bl	z_impl_z_log_msg_static_create
.LVL48:
	.loc 2 39 2 view .LVU860
.LBE441:
.LBE440:
.LBE444:
	.loc 1 60 109 is_stmt 1 view .LVU861
	.loc 1 60 7 view .LVU862
.LVL49:
	.loc 1 60 44 view .LVU863
.LBE448:
	.loc 1 60 8 view .LVU864
	.loc 1 60 280 view .LVU865
	.loc 1 60 7 view .LVU866
	.loc 1 60 20 view .LVU867
.LBE452:
	.loc 1 60 8 view .LVU868
	.loc 1 62 5 view .LVU869
	.loc 1 63 1 is_stmt 0 view .LVU870
	mvn	r0, #21
	add	sp, sp, #24
	.cfi_remember_state
	.cfi_def_cfa_offset 16
.LVL50:
	.loc 1 63 1 view .LVU871
	@ sp needed
	pop	{r4, r5, r6, pc}
.LVL51:
.L21:
	.cfi_restore_state
.LBB453:
.LBB428:
	.loc 1 53 9 is_stmt 1 view .LVU872
	.loc 1 55 9 view .LVU873
	.loc 1 55 12 is_stmt 0 view .LVU874
	ldr	r6, [r3]
	ldr	r5, [r0]
	cmp	r6, r5
	add	r2, r2, #1
.LVL52:
	.loc 1 55 12 view .LVU875
	bne	.L20
	.loc 1 55 48 discriminator 1 view .LVU876
	ldr	r5, [r3, #4]
	cmp	r5, r1
	bne	.L20
	.loc 1 56 13 is_stmt 1 view .LVU877
	.loc 1 56 20 is_stmt 0 view .LVU878
	uxtb	r1, r2
.LVL53:
	.loc 1 56 20 view .LVU879
.LBE428:
.LBE453:
	.loc 1 63 1 view .LVU880
	add	sp, sp, #24
	.cfi_remember_state
	.cfi_def_cfa_offset 16
	@ sp needed
	pop	{r4, r5, r6, lr}
	.cfi_restore 14
	.cfi_restore 6
	.cfi_restore 5
	.cfi_restore 4
	.cfi_def_cfa_offset 0
.LBB454:
.LBB429:
	.loc 1 56 20 view .LVU881
	b	zmk_event_manager_handle_from
.LVL54:
.L20:
	.cfi_restore_state
	.loc 1 56 20 view .LVU882
.LBE429:
	.loc 1 52 31 is_stmt 1 discriminator 2 view .LVU883
	.loc 1 52 31 is_stmt 0 discriminator 2 view .LVU884
	adds	r3, r3, #8
.LVL55:
	.loc 1 52 31 discriminator 2 view .LVU885
	b	.L19
.L23:
	.align	2
.L22:
	.word	__event_subscriptions_start
	.word	__event_subscriptions_end
	.word	.LC3
	.word	log_const_zmk
.LBE454:
	.cfi_endproc
.LFE471:
	.size	zmk_event_manager_raise_after, .-zmk_event_manager_raise_after
	.section	.rodata.zmk_event_manager_raise_at.str1.1,"aMS",%progbits,1
.LC4:
	.ascii	"Unable to find where to raise this event\000"
	.section	.text.zmk_event_manager_raise_at,"ax",%progbits
	.align	1
	.global	zmk_event_manager_raise_at
	.syntax unified
	.thumb
	.thumb_func
	.type	zmk_event_manager_raise_at, %function
zmk_event_manager_raise_at:
.LVL56:
.LFB472:
	.loc 1 65 89 is_stmt 1 view -0
	.cfi_startproc
	@ args = 0, pretend = 0, frame = 24
	@ frame_needed = 0, uses_anonymous_args = 0
	.loc 1 66 5 view .LVU887
	.loc 1 65 89 is_stmt 0 view .LVU888
	push	{r4, r5, r6, lr}
	.cfi_def_cfa_offset 16
	.cfi_offset 4, -16
	.cfi_offset 5, -12
	.cfi_offset 6, -8
	.cfi_offset 14, -4
	.loc 1 66 45 view .LVU889
	ldr	r3, .L28
	ldr	r2, .L28+4
	subs	r2, r2, r3
.LVL57:
	.loc 1 67 5 is_stmt 1 view .LVU890
.LBB465:
	.loc 1 67 10 view .LVU891
	.loc 1 67 10 is_stmt 0 view .LVU892
.LBE465:
	.loc 1 65 89 view .LVU893
	sub	sp, sp, #24
	.cfi_def_cfa_offset 40
.LBB468:
	.loc 1 67 14 view .LVU894
	movs	r4, #0
	.loc 1 67 23 view .LVU895
	ubfx	r2, r2, #3, #8
.LVL58:
.L25:
	.loc 1 67 23 is_stmt 1 discriminator 1 view .LVU896
	cmp	r2, r4
	bgt	.L27
.LBE468:
	.loc 1 75 5 view .LVU897
.LBB469:
	.loc 1 75 10 view .LVU898
	.loc 1 75 59 view .LVU899
	.loc 1 75 16 view .LVU900
	.loc 1 75 4 view .LVU901
.LVL59:
	.loc 1 75 43 view .LVU902
	.loc 1 75 178 view .LVU903
	.loc 1 75 189 view .LVU904
	.loc 1 75 277 view .LVU905
	.loc 1 75 5 view .LVU906
	.loc 1 75 5 view .LVU907
.LBB470:
	.loc 1 75 10 view .LVU908
	.loc 1 75 4 view .LVU909
.LBE470:
.LBE469:
	.loc 1 75 5 view .LVU910
	.loc 1 75 14 view .LVU911
	.loc 1 75 109 view .LVU912
	.loc 1 75 5 view .LVU913
.LBB487:
.LBB483:
	.loc 1 75 14 view .LVU914
	.loc 1 75 104 view .LVU915
	.loc 1 75 106 view .LVU916
.LBB471:
	.loc 1 75 111 view .LVU917
	.loc 1 75 122 view .LVU918
	.loc 1 75 211 view .LVU919
	.loc 1 75 28 view .LVU920
.LBE471:
.LBE483:
.LBE487:
	.loc 1 75 5 view .LVU921
	.loc 1 75 370 view .LVU922
	.loc 1 75 77 view .LVU923
	.loc 1 75 4 view .LVU924
	.loc 1 75 4 view .LVU925
	.loc 1 75 4 view .LVU926
	.loc 1 75 40 view .LVU927
	.loc 1 75 6 view .LVU928
	.loc 1 75 32 view .LVU929
	.loc 1 75 58 view .LVU930
	.loc 1 75 81 view .LVU931
	.loc 1 75 143 view .LVU932
	.loc 1 75 200 view .LVU933
	.loc 1 75 265 view .LVU934
	.loc 1 75 290 view .LVU935
	.loc 1 75 291 view .LVU936
	.loc 1 75 293 view .LVU937
	.loc 1 75 323 view .LVU938
	.loc 1 75 353 view .LVU939
	.loc 1 75 385 view .LVU940
	.loc 1 75 417 view .LVU941
	.loc 1 75 449 view .LVU942
	.loc 1 75 646 view .LVU943
	.loc 1 75 670 view .LVU944
	.loc 1 75 671 view .LVU945
	.loc 1 75 673 view .LVU946
	.loc 1 75 702 view .LVU947
	.loc 1 75 731 view .LVU948
	.loc 1 75 762 view .LVU949
	.loc 1 75 793 view .LVU950
	.loc 1 75 824 view .LVU951
	.loc 1 75 1031 view .LVU952
	.loc 1 75 6 view .LVU953
	.loc 1 75 24 view .LVU954
	.loc 1 75 44 view .LVU955
	.loc 1 75 6 view .LVU956
	.loc 1 75 44 view .LVU957
	.loc 1 75 15 view .LVU958
	.loc 1 75 15 view .LVU959
	.loc 1 75 63 view .LVU960
	.loc 1 75 94 view .LVU961
	.loc 1 75 128 view .LVU962
	.loc 1 75 133 view .LVU963
	.loc 1 75 397 view .LVU964
	.loc 1 75 1506 view .LVU965
	.loc 1 75 1571 view .LVU966
	.loc 1 75 1595 view .LVU967
	.loc 1 75 1663 view .LVU968
	.loc 1 75 1674 view .LVU969
	.loc 1 75 1800 view .LVU970
	.loc 1 75 1816 view .LVU971
	.loc 1 75 1856 view .LVU972
	.loc 1 75 1881 view .LVU973
	.loc 1 75 3198 view .LVU974
	.loc 1 75 3239 view .LVU975
	.loc 1 75 9 view .LVU976
	.loc 1 75 32 view .LVU977
	.loc 1 75 131 view .LVU978
	.loc 1 75 7 view .LVU979
	.loc 1 75 30 view .LVU980
	.loc 1 75 54 view .LVU981
	.loc 1 75 82 view .LVU982
	.loc 1 75 258 view .LVU983
	.loc 1 75 18 view .LVU984
.LBB488:
.LBB484:
.LBB480:
	.loc 1 75 31 view .LVU985
	.loc 1 75 5 view .LVU986
	.loc 1 75 5 view .LVU987
	.loc 1 75 72 view .LVU988
	.loc 1 75 76 view .LVU989
	.loc 1 75 486 view .LVU990
	.loc 1 75 7 view .LVU991
	.loc 1 75 9 view .LVU992
	.loc 1 75 14 view .LVU993
	.loc 1 75 12 view .LVU994
	.loc 1 75 7 view .LVU995
	.loc 1 75 25 view .LVU996
.LBB472:
	.loc 1 75 5 view .LVU997
	.loc 1 75 370 view .LVU998
	.loc 1 75 77 view .LVU999
.LVL60:
	.loc 1 75 4 view .LVU1000
	.loc 1 75 4 view .LVU1001
	.loc 1 75 4 view .LVU1002
	.loc 1 75 40 view .LVU1003
	.loc 1 75 69 view .LVU1004
	.loc 1 75 95 view .LVU1005
	.loc 1 75 121 view .LVU1006
	.loc 1 75 144 view .LVU1007
	.loc 1 75 206 view .LVU1008
	.loc 1 75 263 view .LVU1009
	.loc 1 75 328 view .LVU1010
	.loc 1 75 353 view .LVU1011
	.loc 1 75 354 view .LVU1012
	.loc 1 75 356 view .LVU1013
	.loc 1 75 386 view .LVU1014
	.loc 1 75 416 view .LVU1015
	.loc 1 75 448 view .LVU1016
	.loc 1 75 480 view .LVU1017
	.loc 1 75 512 view .LVU1018
	.loc 1 75 709 view .LVU1019
	.loc 1 75 733 view .LVU1020
	.loc 1 75 734 view .LVU1021
	.loc 1 75 736 view .LVU1022
	.loc 1 75 765 view .LVU1023
	.loc 1 75 794 view .LVU1024
	.loc 1 75 825 view .LVU1025
	.loc 1 75 856 view .LVU1026
	.loc 1 75 887 view .LVU1027
	.loc 1 75 1094 view .LVU1028
	.loc 1 75 6 view .LVU1029
	.loc 1 75 24 view .LVU1030
	.loc 1 75 44 view .LVU1031
	.loc 1 75 6 view .LVU1032
	.loc 1 75 44 view .LVU1033
	.loc 1 75 15 view .LVU1034
	.loc 1 75 15 view .LVU1035
	.loc 1 75 63 view .LVU1036
	.loc 1 75 94 view .LVU1037
	.loc 1 75 128 view .LVU1038
.LBB473:
	.loc 1 75 133 view .LVU1039
	.loc 1 75 397 view .LVU1040
	.loc 1 75 1506 view .LVU1041
	.loc 1 75 1571 view .LVU1042
.LBE473:
.LBE472:
.LBE480:
.LBE484:
.LBE488:
	.loc 1 75 1595 view .LVU1043
	.loc 1 75 1663 view .LVU1044
	.loc 1 75 1674 view .LVU1045
	.loc 1 75 1800 view .LVU1046
.LBB489:
.LBB485:
.LBB481:
.LBB476:
.LBB474:
	.loc 1 75 1816 view .LVU1047
	.loc 1 75 1856 view .LVU1048
	.loc 1 75 1881 view .LVU1049
	.loc 1 75 3198 view .LVU1050
	.loc 1 75 3236 view .LVU1051
	.loc 1 75 3241 view .LVU1052
	.loc 1 75 3919 view .LVU1053
	.loc 1 75 0 is_stmt 0 view .LVU1054
	ldr	r3, .L28+8
	str	r3, [sp, #20]
	.loc 1 75 3239 is_stmt 1 view .LVU1055
	.loc 1 75 9 view .LVU1056
.LVL61:
	.loc 1 75 32 view .LVU1057
	.loc 1 75 32 is_stmt 0 view .LVU1058
.LBE474:
	.loc 1 75 131 is_stmt 1 view .LVU1059
	.loc 1 75 7 view .LVU1060
	.loc 1 75 30 view .LVU1061
	.loc 1 75 54 view .LVU1062
	.loc 1 75 82 view .LVU1063
.LBE476:
.LBE481:
.LBE485:
.LBE489:
	.loc 1 75 8 view .LVU1064
	.loc 1 75 47 view .LVU1065
	.loc 1 75 52 view .LVU1066
	.loc 1 75 82 view .LVU1067
	.loc 1 75 149 view .LVU1068
	.loc 1 75 154 view .LVU1069
	.loc 1 75 184 view .LVU1070
.LBB490:
.LBB486:
.LBB482:
.LBB477:
	.loc 1 75 258 view .LVU1071
	.loc 1 75 18 view .LVU1072
.LBB475:
	.loc 1 75 8 view .LVU1073
	.loc 1 75 166 view .LVU1074
	.loc 1 75 168 view .LVU1075
	.loc 1 75 178 is_stmt 0 view .LVU1076
	movs	r3, #2
	str	r3, [sp, #16]
.LVL62:
	.loc 1 75 178 view .LVU1077
.LBE475:
.LBE477:
	.loc 1 75 28 is_stmt 1 view .LVU1078
	.loc 1 75 9 view .LVU1079
	.loc 1 75 149 view .LVU1080
	.loc 1 75 151 view .LVU1081
.LBB478:
.LBI478:
	.loc 2 26 20 view .LVU1082
.LBB479:
	.loc 2 38 2 view .LVU1083
	.loc 2 38 7 view .LVU1084
	.loc 2 38 5 view .LVU1085
	.loc 2 39 2 view .LVU1086
	ldr	r0, .L28+12
.LVL63:
	.loc 2 39 2 is_stmt 0 view .LVU1087
	movs	r3, #0
	add	r2, sp, #16
.LVL64:
	.loc 2 39 2 view .LVU1088
	mov	r1, #4224
.LVL65:
	.loc 2 39 2 view .LVU1089
	bl	z_impl_z_log_msg_static_create
.LVL66:
	.loc 2 39 2 view .LVU1090
.LBE479:
.LBE478:
.LBE482:
	.loc 1 75 109 is_stmt 1 view .LVU1091
	.loc 1 75 7 view .LVU1092
.LVL67:
	.loc 1 75 44 view .LVU1093
.LBE486:
	.loc 1 75 8 view .LVU1094
	.loc 1 75 280 view .LVU1095
	.loc 1 75 7 view .LVU1096
	.loc 1 75 20 view .LVU1097
.LBE490:
	.loc 1 75 8 view .LVU1098
	.loc 1 77 5 view .LVU1099
	.loc 1 78 1 is_stmt 0 view .LVU1100
	mvn	r0, #21
	add	sp, sp, #24
	.cfi_remember_state
	.cfi_def_cfa_offset 16
.LVL68:
	.loc 1 78 1 view .LVU1101
	@ sp needed
	pop	{r4, r5, r6, pc}
.LVL69:
.L27:
	.cfi_restore_state
.LBB491:
.LBB466:
	.loc 1 68 9 is_stmt 1 view .LVU1102
	.loc 1 70 9 view .LVU1103
	.loc 1 70 12 is_stmt 0 view .LVU1104
	ldr	r6, [r3]
	ldr	r5, [r0]
	cmp	r6, r5
	bne	.L26
	.loc 1 70 48 discriminator 1 view .LVU1105
	ldr	r5, [r3, #4]
	cmp	r5, r1
	bne	.L26
	.loc 1 71 13 is_stmt 1 view .LVU1106
	.loc 1 71 20 is_stmt 0 view .LVU1107
	uxtb	r1, r4
.LVL70:
	.loc 1 71 20 view .LVU1108
.LBE466:
.LBE491:
	.loc 1 78 1 view .LVU1109
	add	sp, sp, #24
	.cfi_remember_state
	.cfi_def_cfa_offset 16
	@ sp needed
	pop	{r4, r5, r6, lr}
	.cfi_restore 14
	.cfi_restore 6
	.cfi_restore 5
	.cfi_restore 4
	.cfi_def_cfa_offset 0
.LVL71:
.LBB492:
.LBB467:
	.loc 1 71 20 view .LVU1110
	b	zmk_event_manager_handle_from
.LVL72:
.L26:
	.cfi_restore_state
	.loc 1 71 20 view .LVU1111
.LBE467:
	.loc 1 67 31 is_stmt 1 discriminator 2 view .LVU1112
	adds	r4, r4, #1
.LVL73:
	.loc 1 67 31 is_stmt 0 discriminator 2 view .LVU1113
	adds	r3, r3, #8
.LVL74:
	.loc 1 67 31 discriminator 2 view .LVU1114
	b	.L25
.L29:
	.align	2
.L28:
	.word	__event_subscriptions_start
	.word	__event_subscriptions_end
	.word	.LC4
	.word	log_const_zmk
.LBE492:
	.cfi_endproc
.LFE472:
	.size	zmk_event_manager_raise_at, .-zmk_event_manager_raise_at
	.section	.text.zmk_event_manager_release,"ax",%progbits
	.align	1
	.global	zmk_event_manager_release
	.syntax unified
	.thumb
	.thumb_func
	.type	zmk_event_manager_release, %function
zmk_event_manager_release:
.LVL75:
.LFB473:
	.loc 1 80 51 is_stmt 1 view -0
	.cfi_startproc
	@ args = 0, pretend = 0, frame = 0
	@ frame_needed = 0, uses_anonymous_args = 0
	@ link register save eliminated.
	.loc 1 81 5 view .LVU1116
	.loc 1 81 12 is_stmt 0 view .LVU1117
	ldrb	r1, [r0, #4]	@ zero_extendqisi2
	adds	r1, r1, #1
	uxtb	r1, r1
	b	zmk_event_manager_handle_from
.LVL76:
	.loc 1 81 12 view .LVU1118
	.cfi_endproc
.LFE473:
	.size	zmk_event_manager_release, .-zmk_event_manager_release
	.section	.rodata.__func__.0,"a"
	.type	__func__.0, %object
	.size	__func__.0, 30
__func__.0:
	.ascii	"zmk_event_manager_handle_from\000"
	.text
.Letext0:
	.file 3 "/home/g/zephyr-sdk-0.16.3/arm-zephyr-eabi/lib/gcc/arm-zephyr-eabi/12.2.0/include/stddef.h"
	.file 4 "/home/g/zephyr-sdk-0.16.3/arm-zephyr-eabi/picolibc/include/machine/_default_types.h"
	.file 5 "/home/g/zephyr-sdk-0.16.3/arm-zephyr-eabi/picolibc/include/sys/_stdint.h"
	.file 6 "/home/g/mise-work/zmk-firmware/zmk/zephyr/include/zephyr/fatal_types.h"
	.file 7 "/home/g/mise-work/zmk-firmware/zmk/zephyr/include/zephyr/kernel.h"
	.file 8 "/home/g/mise-work/zmk-firmware/zmk/zephyr/include/zephyr/logging/log_instance.h"
	.file 9 "/home/g/mise-work/zmk-firmware/zmk/zephyr/include/zephyr/sys/cbprintf.h"
	.file 10 "/home/g/mise-work/zmk-firmware/zmk/zephyr/include/zephyr/logging/log_msg.h"
	.file 11 "/home/g/mise-work/zmk-firmware/zmk/app/include/zmk/event_manager.h"
	.file 12 "/home/g/mise-work/zmk-firmware/zmk/zephyr/include/zephyr/sys/cbprintf_internal.h"
	.file 13 "/home/g/mise-work/zmk-firmware/zmk/zephyr/include/zephyr/syscall.h"