	.cpu cortex-m4
	.arch armv7e-m
	.fpu fpv4-sp-d16
	.eabi_attribute 27, 1
	.eabi_attribute 28, 1
	.eabi_attribute 20, 1
	.eabi_attribute 21, 1
	.eabi_attribute 23, 3
	.eabi_attribute 24, 1
	.eabi_attribute 25, 1
	.eabi_attribute 26, 1
	.eabi_attribute 30, 4
	.eabi_attribute 34, 1
	.eabi_attribute 38, 1
	.eabi_attribute 18, 4
	.file	"hid_listener.c"
	.text
.Ltext0:
	.cfi_sections	.debug_frame
	.file 1 "/home/g/mise-work/zmk-firmware/zmk/app/src/hid_listener.c"
	.section	.rodata.hid_listener.str1.1,"aMS",%progbits,1
.LC0:
	.ascii	"%s: unregistering usage_page 0x%02X keycode 0x%02X "
	.ascii	"since it was already pressed\000"
.LC1:
	.ascii	"%s: Unable to pre-release keycode (%d)\000"
.LC2:
	.ascii	"Failed to send key report for pre-releasing keycode"
	.ascii	" (%d)\000"
.LC3:
	.ascii	"%s: usage_page 0x%02X keycode 0x%02X implicit_mods "
	.ascii	"0x%02X explicit_mods 0x%02X\000"
.LC4:
	.ascii	"%s: Unable to press keycode\000"
.LC5:
	.ascii	"Failed to send key report for changed mofifiers for"
	.ascii	" consumer page event (%d)\000"
.LC6:
	.ascii	"%s: Unable to release keycode\000"
	.section	.text.hid_listener,"ax",%progbits
	.align	1
	.global	hid_listener
	.syntax unified
	.thumb
	.thumb_func
	.type	hid_listener, %function
hid_listener:
.LVL0:
.LFB593:
	.loc 1 99 41 view -0
	.cfi_startproc
	@ args = 0, pretend = 0, frame = 0
	@ frame_needed = 1, uses_anonymous_args = 0
	.loc 1 100 5 view .LVU1
	.loc 1 99 41 is_stmt 0 view .LVU2
	push	{r4, r5, r6, r7, r8, lr}
	.cfi_def_cfa_offset 24
	.cfi_offset 4, -24
	.cfi_offset 5, -20
	.cfi_offset 6, -16
	.cfi_offset 7, -12
	.cfi_offset 8, -8
	.cfi_offset 14, -4
	add	r7, sp, #0
	.cfi_def_cfa_register 7
	.loc 1 100 50 view .LVU3
	bl	as_zmk_keycode_state_changed
.LVL1:
	.loc 1 101 5 is_stmt 1 view .LVU4
	.loc 1 101 8 is_stmt 0 view .LVU5
	mov	r4, r0
	cmp	r0, #0
	beq	.L2
	.loc 1 102 9 is_stmt 1 view .LVU6
	.loc 1 102 12 is_stmt 0 view .LVU7
	ldrb	r5, [r4, #10]	@ zero_extendqisi2
.LBB784:
.LBB785:
	.loc 1 22 19 view .LVU8
	ldrh	r0, [r0]
.LVL2:
	.loc 1 22 35 view .LVU9
	ldr	r3, [r4, #4]
.LBE785:
.LBE784:
	.loc 1 102 12 view .LVU10
	cmp	r5, #0
	beq	.L3
	.loc 1 103 13 is_stmt 1 view .LVU11
.LVL3:
.LBB870:
.LBI784:
	.loc 1 19 12 view .LVU12
.LBB868:
	.loc 1 20 5 view .LVU13
	.loc 1 22 5 view .LVU14
.LBB786:
.LBI786:
	.file 2 "/home/g/mise-work/zmk-firmware/zmk/app/include/zmk/keys.h"
	.loc 2 23 19 view .LVU15
.LBB787:
	.loc 2 24 5 view .LVU16
	.loc 2 24 31 is_stmt 0 view .LVU17
	sub	r2, r3, #224
	.loc 2 25 31 view .LVU18
	cmp	r2, #7
	ldr	r5, .L33
	bhi	.L4
	uxtb	r2, r0
	cmp	r2, #7
	beq	.L5
.L4:
.LVL4:
	.loc 2 25 31 view .LVU19
.LBE787:
.LBE786:
	.loc 1 23 9 view .LVU20
	orr	r0, r3, r0, lsl #16
	bl	zmk_hid_is_pressed
.LVL5:
	.loc 1 22 46 view .LVU21
	cmp	r0, #0
	beq	.L5
	.loc 1 24 9 is_stmt 1 view .LVU22
.LBB788:
	.loc 1 24 14 view .LVU23
	.loc 1 24 63 view .LVU24
	.loc 1 24 20 view .LVU25
	.loc 1 24 8 view .LVU26
.LVL6:
	.loc 1 24 47 view .LVU27
	.loc 1 24 182 view .LVU28
	.loc 1 24 193 view .LVU29
	.loc 1 24 281 view .LVU30
.LBB789:
	.loc 1 24 9 view .LVU31
	.loc 1 24 11 view .LVU32
	.loc 1 24 60 view .LVU33
.LBB790:
.LBB791:
	.loc 1 24 113 is_stmt 0 view .LVU34
	mov	r6, sp
	.loc 1 24 88 view .LVU35
	sub	sp, sp, #40
.LBE791:
.LBE790:
	.loc 1 24 72 view .LVU36
	ldrh	r1, [r4]
.LVL7:
	.loc 1 24 101 is_stmt 1 view .LVU37
	.loc 1 24 113 is_stmt 0 view .LVU38
	ldr	r3, [r4, #4]
.LVL8:
	.loc 1 24 9 is_stmt 1 view .LVU39
.LBB804:
	.loc 1 24 14 view .LVU40
	.loc 1 24 8 view .LVU41
	.loc 1 24 18 view .LVU42
	.loc 1 24 108 view .LVU43
	.loc 1 24 110 view .LVU44
.LBB802:
	.loc 1 24 115 view .LVU45
	.loc 1 24 126 view .LVU46
	.loc 1 24 215 view .LVU47
	.loc 1 24 32 view .LVU48
	.loc 1 24 35 view .LVU49
	.loc 1 24 9 view .LVU50
	.loc 1 24 9 view .LVU51
	.loc 1 24 76 view .LVU52
	.loc 1 24 88 is_stmt 0 view .LVU53
	mov	r2, sp
.LVL9:
	.loc 1 24 80 is_stmt 1 view .LVU54
	.loc 1 24 490 view .LVU55
	.loc 1 24 11 view .LVU56
	.loc 1 24 13 view .LVU57
	.loc 1 24 18 view .LVU58
	.loc 1 24 16 view .LVU59
	.loc 1 24 11 view .LVU60
	.loc 1 24 29 view .LVU61
.LBB792:
	.loc 1 24 9 view .LVU62
	.loc 1 24 374 view .LVU63
	.loc 1 24 81 view .LVU64
.LVL10:
	.loc 1 24 8 view .LVU65
	.loc 1 24 8 view .LVU66
	.loc 1 24 8 view .LVU67
	.loc 1 24 44 view .LVU68
	.loc 1 24 73 view .LVU69
	.loc 1 24 99 view .LVU70
	.loc 1 24 125 view .LVU71
	.loc 1 24 1484 view .LVU72
	.loc 1 24 1546 view .LVU73
	.loc 1 24 2999 view .LVU74
	.loc 1 24 3064 view .LVU75
	.loc 1 24 3089 view .LVU76
	.loc 1 24 3090 view .LVU77
	.loc 1 24 3092 view .LVU78
	.loc 1 24 3122 view .LVU79
	.loc 1 24 3152 view .LVU80
	.loc 1 24 3184 view .LVU81
	.loc 1 24 3216 view .LVU82
	.loc 1 24 3248 view .LVU83
	.loc 1 24 3445 view .LVU84
	.loc 1 24 3469 view .LVU85
	.loc 1 24 3470 view .LVU86
	.loc 1 24 3472 view .LVU87
	.loc 1 24 3501 view .LVU88
	.loc 1 24 3530 view .LVU89
	.loc 1 24 3561 view .LVU90
	.loc 1 24 3592 view .LVU91
	.loc 1 24 3623 view .LVU92
	.loc 1 24 3830 view .LVU93
.LBB793:
	.loc 1 24 3618 view .LVU94
	.loc 1 24 3623 view .LVU95
	.loc 1 24 0 view .LVU96
	ldr	r0, .L33+4
.LBE793:
.LBB794:
	.loc 1 24 3817 is_stmt 0 view .LVU97
	strd	r1, r3, [r2, #28]
.LBE794:
.LBB795:
	.loc 1 24 182 view .LVU98
	movs	r3, #5
.LVL11:
	.loc 1 24 182 view .LVU99
.LBE795:
.LBB796:
	.loc 1 24 3817 view .LVU100
	strd	r0, r5, [r2, #20]
	.loc 1 24 2772 is_stmt 1 view .LVU101
	.loc 1 24 13 view .LVU102
.LVL12:
	.loc 1 24 36 view .LVU103
	.loc 1 24 36 is_stmt 0 view .LVU104
.LBE796:
	.loc 1 24 15 is_stmt 1 view .LVU105
	.loc 1 24 12 view .LVU106
.LBB797:
	.loc 1 24 17 view .LVU107
	.loc 1 24 242 view .LVU108
	.loc 1 24 1195 view .LVU109
	.loc 1 24 1260 view .LVU110
	.loc 1 24 1427 view .LVU111
	.loc 1 24 1467 view .LVU112
	.loc 1 24 2731 view .LVU113
	.loc 1 24 2769 view .LVU114
	.loc 1 24 2774 view .LVU115
	.loc 1 24 3218 view .LVU116
.LBE797:
.LBB798:
	.loc 1 24 2772 view .LVU117
	.loc 1 24 13 view .LVU118
	.loc 1 24 36 view .LVU119
	.loc 1 24 36 is_stmt 0 view .LVU120
.LBE798:
	.loc 1 24 15 is_stmt 1 view .LVU121
	.loc 1 24 11 view .LVU122
	.loc 1 24 34 view .LVU123
	.loc 1 24 58 view .LVU124
	.loc 1 24 86 view .LVU125
	.loc 1 24 262 view .LVU126
	.loc 1 24 22 view .LVU127
.LBB799:
	.loc 1 24 12 view .LVU128
	.loc 1 24 170 view .LVU129
	.loc 1 24 172 view .LVU130
	.loc 1 24 182 is_stmt 0 view .LVU131
	str	r3, [r2, #16]!
.LVL13:
	.loc 1 24 182 view .LVU132
.LBE799:
.LBE792:
	.loc 1 24 32 is_stmt 1 view .LVU133
	.loc 1 24 13 view .LVU134
	.loc 1 24 153 view .LVU135
	.loc 1 24 155 view .LVU136
.LBB800:
.LBI800:
	.file 3 "/home/g/mise-work/zmk-firmware/zmk/app/build/zephyr/include/generated/syscalls/log_msg.h"
	.loc 3 26 20 view .LVU137
.LBB801:
	.loc 3 38 2 view .LVU138
	.loc 3 38 7 view .LVU139
	.loc 3 38 5 view .LVU140
	.loc 3 39 2 view .LVU141
	ldr	r0, .L33+8
	movs	r3, #0
	mov	r1, #10496
.LVL14:
	.loc 3 39 2 is_stmt 0 view .LVU142
	bl	z_impl_z_log_msg_static_create
.LVL15:
	.loc 3 39 2 view .LVU143
.LBE801:
.LBE800:
.LBE802:
.LBE804:
.LBE789:
.LBE788:
	.loc 1 26 48 view .LVU144
	ldrh	r0, [r4]
	.loc 1 26 15 view .LVU145
	ldr	r3, [r4, #4]
.LBB807:
.LBB806:
.LBB805:
.LBB803:
	mov	sp, r6
.LVL16:
	.loc 1 26 15 view .LVU146
.LBE803:
	.loc 1 24 113 is_stmt 1 view .LVU147
	.loc 1 24 11 view .LVU148
	.loc 1 24 48 view .LVU149
.LBE805:
	.loc 1 24 12 view .LVU150
.LBE806:
	.loc 1 24 284 view .LVU151
	.loc 1 24 11 view .LVU152
	.loc 1 24 24 view .LVU153
.LBE807:
	.loc 1 24 12 view .LVU154
	.loc 1 26 9 view .LVU155
	.loc 1 26 15 is_stmt 0 view .LVU156
	orr	r0, r3, r0, lsl #16
	bl	zmk_hid_release
.LVL17:
	.loc 1 27 9 is_stmt 1 view .LVU157
	.loc 1 27 12 is_stmt 0 view .LVU158
	cmp	r0, #0
	.loc 1 27 12 view .LVU159
	bge	.L7
	.loc 1 28 13 is_stmt 1 view .LVU160
.LBB808:
	.loc 1 28 18 view .LVU161
	.loc 1 28 67 view .LVU162
	.loc 1 28 24 view .LVU163
	.loc 1 28 12 view .LVU164
.LVL18:
	.loc 1 28 51 view .LVU165
	.loc 1 28 186 view .LVU166
	.loc 1 28 197 view .LVU167
	.loc 1 28 285 view .LVU168
.LBB809:
	.loc 1 28 13 view .LVU169
	.loc 1 28 15 view .LVU170
	.loc 1 28 64 view .LVU171
	.loc 1 28 13 view .LVU172
.LBB810:
	.loc 1 28 18 view .LVU173
	.loc 1 28 12 view .LVU174
	.loc 1 28 22 view .LVU175
	.loc 1 28 112 view .LVU176
	.loc 1 28 114 view .LVU177
.LBB811:
	.loc 1 28 119 view .LVU178
	.loc 1 28 130 view .LVU179
	.loc 1 28 219 view .LVU180
	.loc 1 28 36 view .LVU181
	.loc 1 28 39 view .LVU182
	.loc 1 28 13 view .LVU183
	.loc 1 28 13 view .LVU184
	.loc 1 28 80 view .LVU185
	.loc 1 28 92 is_stmt 0 view .LVU186
	sub	sp, sp, #32
	mov	r2, sp
.LVL19:
	.loc 1 28 84 is_stmt 1 view .LVU187
	.loc 1 28 494 view .LVU188
	.loc 1 28 15 view .LVU189
	.loc 1 28 17 view .LVU190
	.loc 1 28 22 view .LVU191
	.loc 1 28 20 view .LVU192
	.loc 1 28 15 view .LVU193
	.loc 1 28 33 view .LVU194
.LBB812:
	.loc 1 28 13 view .LVU195
	.loc 1 28 378 view .LVU196
	.loc 1 28 85 view .LVU197
.LVL20:
	.loc 1 28 12 view .LVU198
	.loc 1 28 12 view .LVU199
	.loc 1 28 12 view .LVU200
	.loc 1 28 48 view .LVU201
	.loc 1 28 77 view .LVU202
	.loc 1 28 103 view .LVU203
	.loc 1 28 129 view .LVU204
	.loc 1 28 1042 view .LVU205
	.loc 1 28 1104 view .LVU206
	.loc 1 28 2091 view .LVU207
	.loc 1 28 2156 view .LVU208
	.loc 1 28 2181 view .LVU209
	.loc 1 28 2182 view .LVU210
	.loc 1 28 2184 view .LVU211
	.loc 1 28 2214 view .LVU212
	.loc 1 28 2244 view .LVU213
	.loc 1 28 2276 view .LVU214
	.loc 1 28 2308 view .LVU215
	.loc 1 28 2340 view .LVU216
	.loc 1 28 2537 view .LVU217
	.loc 1 28 2561 view .LVU218
	.loc 1 28 2562 view .LVU219
	.loc 1 28 2564 view .LVU220
	.loc 1 28 2593 view .LVU221
	.loc 1 28 2622 view .LVU222
	.loc 1 28 2653 view .LVU223
	.loc 1 28 2684 view .LVU224
	.loc 1 28 2715 view .LVU225
	.loc 1 28 2922 view .LVU226
.LBB813:
	.loc 1 28 3253 view .LVU227
	.loc 1 28 3258 view .LVU228
	.loc 1 28 3942 view .LVU229
	.loc 1 28 0 is_stmt 0 view .LVU230
	ldr	r3, .L33+12
.LBE813:
.LBB814:
	.loc 1 28 3821 view .LVU231
	str	r0, [r2, #28]
.LBE814:
.LBB815:
	.loc 1 28 3821 view .LVU232
	strd	r3, r5, [r2, #20]
	.loc 1 28 2776 is_stmt 1 view .LVU233
	.loc 1 28 17 view .LVU234
.LVL21:
	.loc 1 28 40 view .LVU235
	.loc 1 28 40 is_stmt 0 view .LVU236
.LBE815:
	.loc 1 28 19 is_stmt 1 view .LVU237
	.loc 1 28 16 view .LVU238
.LBB816:
	.loc 1 28 21 view .LVU239
	.loc 1 28 246 view .LVU240
	.loc 1 28 1199 view .LVU241
	.loc 1 28 1264 view .LVU242
	.loc 1 28 1431 view .LVU243
	.loc 1 28 1471 view .LVU244
	.loc 1 28 2735 view .LVU245
	.loc 1 28 2773 view .LVU246
	.loc 1 28 2778 view .LVU247
	.loc 1 28 3222 view .LVU248
	.loc 1 28 2776 view .LVU249
	.loc 1 28 17 view .LVU250
	.loc 1 28 40 view .LVU251
	.loc 1 28 40 is_stmt 0 view .LVU252
.LBE816:
	.loc 1 28 19 is_stmt 1 view .LVU253
	.loc 1 28 15 view .LVU254
	.loc 1 28 38 view .LVU255
	.loc 1 28 62 view .LVU256
	.loc 1 28 90 view .LVU257
	.loc 1 28 266 view .LVU258
	.loc 1 28 26 view .LVU259
.LBB817:
	.loc 1 28 16 view .LVU260
	.loc 1 28 174 view .LVU261
	.loc 1 28 176 view .LVU262
	.loc 1 28 186 is_stmt 0 view .LVU263
	movs	r3, #4
	str	r3, [r2, #16]!
.LVL22:
	.loc 1 28 186 view .LVU264
.LBE817:
.LBE812:
	.loc 1 28 36 is_stmt 1 view .LVU265
	.loc 1 28 17 view .LVU266
	.loc 1 28 157 view .LVU267
	.loc 1 28 159 view .LVU268
.LBB818:
.LBI818:
	.loc 3 26 20 view .LVU269
.LBB819:
	.loc 3 38 2 view .LVU270
	.loc 3 38 7 view .LVU271
	.loc 3 38 5 view .LVU272
	.loc 3 39 2 view .LVU273
	movs	r3, #0
	mov	r1, #8448
.LVL23:
.L24:
	.loc 3 39 2 is_stmt 0 view .LVU274
.LBE819:
.LBE818:
.LBE811:
.LBE810:
.LBE809:
.LBE808:
.LBB820:
.LBB821:
.LBB822:
.LBB823:
.LBB824:
.LBB825:
	ldr	r0, .L33+8
	bl	z_impl_z_log_msg_static_create
.LVL24:
.LBE825:
.LBE824:
	mov	sp, r6
.LBE823:
	.loc 1 41 113 is_stmt 1 view .LVU275
	.loc 1 41 11 view .LVU276
.LVL25:
	.loc 1 41 48 view .LVU277
.LBE822:
	.loc 1 41 12 view .LVU278
.LBE821:
	.loc 1 41 284 view .LVU279
	.loc 1 41 11 view .LVU280
	.loc 1 41 24 view .LVU281
.LBE820:
	.loc 1 41 12 view .LVU282
	.loc 1 42 9 view .LVU283
.L2:
	.loc 1 42 9 is_stmt 0 view .LVU284
.LBE868:
.LBE870:
	.loc 1 108 5 is_stmt 1 view .LVU285
	.loc 1 109 1 is_stmt 0 view .LVU286
	movs	r0, #0
	mov	sp, r7
	.cfi_remember_state
	.cfi_def_cfa_register 13
	@ sp needed
	pop	{r4, r5, r6, r7, r8, pc}
.LVL26:
.L7:
	.cfi_restore_state
.LBB871:
.LBB869:
	.loc 1 31 9 is_stmt 1 view .LVU287
	.loc 1 31 15 is_stmt 0 view .LVU288
	ldrh	r0, [r4]
.LVL27:
	.loc 1 31 15 view .LVU289
	bl	zmk_endpoints_send_report
.LVL28:
	.loc 1 32 9 is_stmt 1 view .LVU290
	.loc 1 32 12 is_stmt 0 view .LVU291
	cmp	r0, #0
	.loc 1 32 12 view .LVU292
	bge	.L5
	.loc 1 33 13 is_stmt 1 view .LVU293
.LBB835:
	.loc 1 33 18 view .LVU294
	.loc 1 33 67 view .LVU295
	.loc 1 33 24 view .LVU296
	.loc 1 33 12 view .LVU297
.LVL29:
	.loc 1 33 51 view .LVU298
	.loc 1 33 186 view .LVU299
	.loc 1 33 197 view .LVU300
	.loc 1 33 285 view .LVU301
.LBB836:
	.loc 1 33 13 view .LVU302
	.loc 1 33 15 view .LVU303
	.loc 1 33 13 view .LVU304
.LBB837:
	.loc 1 33 18 view .LVU305
	.loc 1 33 12 view .LVU306
	.loc 1 33 22 view .LVU307
	.loc 1 33 112 view .LVU308
	.loc 1 33 114 view .LVU309
.LBB838:
	.loc 1 33 119 view .LVU310
	.loc 1 33 130 view .LVU311
	.loc 1 33 219 view .LVU312
	.loc 1 33 36 view .LVU313
	.loc 1 33 39 view .LVU314
	.loc 1 33 13 view .LVU315
	.loc 1 33 13 view .LVU316
	.loc 1 33 80 view .LVU317
	.loc 1 33 92 is_stmt 0 view .LVU318
	sub	sp, sp, #32
	mov	r2, sp
.LVL30:
	.loc 1 33 84 is_stmt 1 view .LVU319
	.loc 1 33 494 view .LVU320
	.loc 1 33 15 view .LVU321
	.loc 1 33 17 view .LVU322
	.loc 1 33 22 view .LVU323
	.loc 1 33 20 view .LVU324
	.loc 1 33 15 view .LVU325
	.loc 1 33 33 view .LVU326
.LBB839:
	.loc 1 33 13 view .LVU327
	.loc 1 33 378 view .LVU328
	.loc 1 33 85 view .LVU329
.LVL31:
	.loc 1 33 12 view .LVU330
	.loc 1 33 12 view .LVU331
	.loc 1 33 12 view .LVU332
	.loc 1 33 48 view .LVU333
	.loc 1 33 77 view .LVU334
	.loc 1 33 103 view .LVU335
	.loc 1 33 129 view .LVU336
	.loc 1 33 596 view .LVU337
	.loc 1 33 658 view .LVU338
	.loc 1 33 1179 view .LVU339
	.loc 1 33 1244 view .LVU340
	.loc 1 33 1269 view .LVU341
	.loc 1 33 1270 view .LVU342
	.loc 1 33 1272 view .LVU343
	.loc 1 33 1302 view .LVU344
	.loc 1 33 1332 view .LVU345
	.loc 1 33 1364 view .LVU346
	.loc 1 33 1396 view .LVU347
	.loc 1 33 1428 view .LVU348
	.loc 1 33 1625 view .LVU349
	.loc 1 33 1649 view .LVU350
	.loc 1 33 1650 view .LVU351
	.loc 1 33 1652 view .LVU352
	.loc 1 33 1681 view .LVU353
	.loc 1 33 1710 view .LVU354
	.loc 1 33 1741 view .LVU355
	.loc 1 33 1772 view .LVU356
	.loc 1 33 1803 view .LVU357
	.loc 1 33 2010 view .LVU358
.LBB840:
	.loc 1 33 3388 view .LVU359
	.loc 1 33 3393 view .LVU360
	.loc 1 33 0 view .LVU361
	ldr	r3, .L33+16
.LBE840:
.LBB841:
	.loc 1 33 3821 is_stmt 0 view .LVU362
	strd	r3, r0, [r2, #20]
	.loc 1 33 2776 is_stmt 1 view .LVU363
	.loc 1 33 17 view .LVU364
.LVL32:
	.loc 1 33 40 view .LVU365
	.loc 1 33 40 is_stmt 0 view .LVU366
.LBE841:
	.loc 1 33 19 is_stmt 1 view .LVU367
	.loc 1 33 15 view .LVU368
	.loc 1 33 38 view .LVU369
	.loc 1 33 62 view .LVU370
	.loc 1 33 90 view .LVU371
	.loc 1 33 266 view .LVU372
	.loc 1 33 26 view .LVU373
.LBB842:
	.loc 1 33 16 view .LVU374
	.loc 1 33 174 view .LVU375
	.loc 1 33 176 view .LVU376
	.loc 1 33 186 is_stmt 0 view .LVU377
	movs	r3, #3
	str	r3, [r2, #16]!
.LVL33:
	.loc 1 33 186 view .LVU378
.LBE842:
.LBE839:
	.loc 1 33 36 is_stmt 1 view .LVU379
	.loc 1 33 17 view .LVU380
	.loc 1 33 157 view .LVU381
	.loc 1 33 159 view .LVU382
.LBB843:
.LBI843:
	.loc 3 26 20 view .LVU383
.LBB844:
	.loc 3 38 2 view .LVU384
	.loc 3 38 7 view .LVU385
	.loc 3 38 5 view .LVU386
	.loc 3 39 2 view .LVU387
	ldr	r0, .L33+8
.LVL34:
	.loc 3 39 2 is_stmt 0 view .LVU388
	movs	r3, #0
	mov	r1, #6208
	bl	z_impl_z_log_msg_static_create
.LVL35:
	.loc 3 39 2 view .LVU389
.LBE844:
.LBE843:
	mov	sp, r6
.LVL36:
	.loc 3 39 2 view .LVU390
.LBE838:
	.loc 1 33 117 is_stmt 1 view .LVU391
	.loc 1 33 15 view .LVU392
	.loc 1 33 52 view .LVU393
.LBE837:
	.loc 1 33 16 view .LVU394
.LBE836:
	.loc 1 33 288 view .LVU395
	.loc 1 33 15 view .LVU396
	.loc 1 33 28 view .LVU397
.L5:
	.loc 1 33 28 is_stmt 0 view .LVU398
.LBE835:
	.loc 1 33 16 is_stmt 1 view .LVU399
	.loc 1 37 5 view .LVU400
.LBB845:
	.loc 1 37 10 view .LVU401
	.loc 1 37 59 view .LVU402
	.loc 1 37 16 view .LVU403
	.loc 1 37 4 view .LVU404
	.loc 1 37 43 view .LVU405
	.loc 1 37 178 view .LVU406
	.loc 1 37 189 view .LVU407
	.loc 1 37 277 view .LVU408
.LBB846:
	.loc 1 37 5 view .LVU409
	.loc 1 37 7 view .LVU410
	.loc 1 37 56 view .LVU411
.LBB847:
.LBB848:
	.loc 1 37 109 is_stmt 0 view .LVU412
	mov	r6, sp
	.loc 1 37 84 view .LVU413
	sub	sp, sp, #48
.LBE848:
.LBE847:
	.loc 1 37 68 view .LVU414
	ldrh	ip, [r4]
.LVL37:
	.loc 1 37 97 is_stmt 1 view .LVU415
	.loc 1 37 109 is_stmt 0 view .LVU416
	ldr	r0, [r4, #4]
.LVL38:
	.loc 1 37 135 is_stmt 1 view .LVU417
	.loc 1 37 147 is_stmt 0 view .LVU418
	ldrb	r1, [r4, #8]	@ zero_extendqisi2
.LVL39:
	.loc 1 37 184 is_stmt 1 view .LVU419
	.loc 1 37 196 is_stmt 0 view .LVU420
	ldrb	r3, [r4, #9]	@ zero_extendqisi2
.LVL40:
	.loc 1 37 5 is_stmt 1 view .LVU421
.LBB863:
	.loc 1 37 10 view .LVU422
	.loc 1 37 4 view .LVU423
	.loc 1 37 14 view .LVU424
	.loc 1 37 104 view .LVU425
	.loc 1 37 106 view .LVU426
.LBB861:
	.loc 1 37 111 view .LVU427
	.loc 1 37 122 view .LVU428
	.loc 1 37 211 view .LVU429
	.loc 1 37 28 view .LVU430
	.loc 1 37 31 view .LVU431
	.loc 1 37 5 view .LVU432
	.loc 1 37 5 view .LVU433
	.loc 1 37 72 view .LVU434
	.loc 1 37 84 is_stmt 0 view .LVU435
	mov	r2, sp
.LVL41:
	.loc 1 37 76 is_stmt 1 view .LVU436
	.loc 1 37 486 view .LVU437
	.loc 1 37 7 view .LVU438
	.loc 1 37 9 view .LVU439
	.loc 1 37 14 view .LVU440
	.loc 1 37 12 view .LVU441
	.loc 1 37 7 view .LVU442
	.loc 1 37 25 view .LVU443
.LBB849:
	.loc 1 37 5 view .LVU444
	.loc 1 37 370 view .LVU445
	.loc 1 37 77 view .LVU446
.LVL42:
	.loc 1 37 4 view .LVU447
	.loc 1 37 4 view .LVU448
	.loc 1 37 4 view .LVU449
	.loc 1 37 40 view .LVU450
	.loc 1 37 69 view .LVU451
	.loc 1 37 95 view .LVU452
	.loc 1 37 121 view .LVU453
	.loc 1 37 2372 view .LVU454
	.loc 1 37 2434 view .LVU455
	.loc 1 37 0 view .LVU456
	.loc 1 37 0 view .LVU457
	.loc 1 37 0 view .LVU458
	.loc 1 37 0 view .LVU459
	.loc 1 37 0 view .LVU460
	.loc 1 37 0 view .LVU461
	.loc 1 37 0 view .LVU462
	.loc 1 37 0 view .LVU463
	.loc 1 37 0 view .LVU464
	.loc 1 37 0 view .LVU465
	.loc 1 37 0 view .LVU466
	.loc 1 37 0 view .LVU467
	.loc 1 37 0 view .LVU468
	.loc 1 37 0 view .LVU469
	.loc 1 37 0 view .LVU470
	.loc 1 37 0 view .LVU471
	.loc 1 37 0 view .LVU472
	.loc 1 37 0 view .LVU473
	.loc 1 37 0 view .LVU474
	.loc 1 37 0 view .LVU475
.LBB850:
	.loc 1 37 3605 view .LVU476
	.loc 1 37 3610 view .LVU477
	.loc 1 37 0 view .LVU478
	ldr	lr, .L33+32
.LBE850:
.LBB851:
	.loc 1 37 3813 is_stmt 0 view .LVU479
	strd	r1, r3, [r2, #36]
.LBE851:
.LBB852:
	.loc 1 37 178 view .LVU480
	movs	r3, #7
.LVL43:
	.loc 1 37 178 view .LVU481
.LBE852:
.LBB853:
	.loc 1 37 3813 view .LVU482
	strd	lr, r5, [r2, #20]
	.loc 1 37 2768 is_stmt 1 view .LVU483
	.loc 1 37 9 view .LVU484
.LVL44:
	.loc 1 37 32 view .LVU485
	.loc 1 37 32 is_stmt 0 view .LVU486
.LBE853:
	.loc 1 37 11 is_stmt 1 view .LVU487
	.loc 1 37 8 view .LVU488
.LBB854:
	.loc 1 37 13 view .LVU489
	.loc 1 37 238 view .LVU490
	.loc 1 37 1191 view .LVU491
	.loc 1 37 1256 view .LVU492
	.loc 1 37 1423 view .LVU493
	.loc 1 37 1463 view .LVU494
	.loc 1 37 2727 view .LVU495
	.loc 1 37 2765 view .LVU496
	.loc 1 37 2770 view .LVU497
	.loc 1 37 3214 view .LVU498
.LBE854:
.LBB855:
	.loc 1 37 3813 is_stmt 0 view .LVU499
	strd	ip, r0, [r2, #28]
	.loc 1 37 2768 is_stmt 1 view .LVU500
	.loc 1 37 9 view .LVU501
.LVL45:
	.loc 1 37 32 view .LVU502
	.loc 1 37 32 is_stmt 0 view .LVU503
.LBE855:
	.loc 1 37 11 is_stmt 1 view .LVU504
	.loc 1 37 8 view .LVU505
.LBB856:
	.loc 1 37 13 view .LVU506
	.loc 1 37 238 view .LVU507
	.loc 1 37 1191 view .LVU508
	.loc 1 37 1256 view .LVU509
	.loc 1 37 1423 view .LVU510
	.loc 1 37 1463 view .LVU511
	.loc 1 37 2727 view .LVU512
	.loc 1 37 2765 view .LVU513
	.loc 1 37 2770 view .LVU514
	.loc 1 37 3214 view .LVU515
.LBE856:
.LBB857:
	.loc 1 37 2768 view .LVU516
	.loc 1 37 9 view .LVU517
	.loc 1 37 32 view .LVU518
	.loc 1 37 32 is_stmt 0 view .LVU519
.LBE857:
	.loc 1 37 11 is_stmt 1 view .LVU520
	.loc 1 37 7 view .LVU521
	.loc 1 37 30 view .LVU522
	.loc 1 37 54 view .LVU523
	.loc 1 37 82 view .LVU524
	.loc 1 37 258 view .LVU525
	.loc 1 37 18 view .LVU526
.LBB858:
	.loc 1 37 8 view .LVU527
	.loc 1 37 166 view .LVU528
	.loc 1 37 168 view .LVU529
	.loc 1 37 178 is_stmt 0 view .LVU530
	str	r3, [r2, #16]!
.LVL46:
	.loc 1 37 178 view .LVU531
.LBE858:
.LBE849:
	.loc 1 37 28 is_stmt 1 view .LVU532
	.loc 1 37 9 view .LVU533
	.loc 1 37 149 view .LVU534
	.loc 1 37 151 view .LVU535
.LBB859:
.LBI859:
	.loc 3 26 20 view .LVU536
.LBB860:
	.loc 3 38 2 view .LVU537
	.loc 3 38 7 view .LVU538
	.loc 3 38 5 view .LVU539
	.loc 3 39 2 view .LVU540
	ldr	r0, .L33+8
.LVL47:
	.loc 3 39 2 is_stmt 0 view .LVU541
	movs	r3, #0
	mov	r1, #14592
.LVL48:
	.loc 3 39 2 view .LVU542
	bl	z_impl_z_log_msg_static_create
.LVL49:
	.loc 3 39 2 view .LVU543
.LBE860:
.LBE859:
.LBE861:
.LBE863:
.LBE846:
.LBE845:
	.loc 1 39 42 view .LVU544
	ldrh	r0, [r4]
	.loc 1 39 11 view .LVU545
	ldr	r3, [r4, #4]
.LBB866:
.LBB865:
.LBB864:
.LBB862:
	mov	sp, r6
.LVL50:
	.loc 1 39 11 view .LVU546
.LBE862:
	.loc 1 37 109 is_stmt 1 view .LVU547
	.loc 1 37 7 view .LVU548
	.loc 1 37 44 view .LVU549
.LBE864:
	.loc 1 37 8 view .LVU550
.LBE865:
	.loc 1 37 280 view .LVU551
	.loc 1 37 7 view .LVU552
	.loc 1 37 20 view .LVU553
.LBE866:
	.loc 1 37 8 view .LVU554
	.loc 1 39 5 view .LVU555
	.loc 1 39 11 is_stmt 0 view .LVU556
	orr	r0, r3, r0, lsl #16
	bl	zmk_hid_press
.LVL51:
	.loc 1 40 5 is_stmt 1 view .LVU557
	.loc 1 40 8 is_stmt 0 view .LVU558
	cmp	r0, #0
	bge	.L8
	.loc 1 41 9 is_stmt 1 view .LVU559
.LBB867:
	.loc 1 41 14 view .LVU560
	.loc 1 41 63 view .LVU561
	.loc 1 41 20 view .LVU562
	.loc 1 41 8 view .LVU563
.LVL52:
	.loc 1 41 47 view .LVU564
	.loc 1 41 182 view .LVU565
	.loc 1 41 193 view .LVU566
	.loc 1 41 281 view .LVU567
.LBB834:
	.loc 1 41 9 view .LVU568
	.loc 1 41 11 view .LVU569
	.loc 1 41 9 view .LVU570
.LBB833:
	.loc 1 41 14 view .LVU571
	.loc 1 41 8 view .LVU572
	.loc 1 41 18 view .LVU573
	.loc 1 41 108 view .LVU574
	.loc 1 41 110 view .LVU575
.LBB832:
	.loc 1 41 115 view .LVU576
	.loc 1 41 126 view .LVU577
	.loc 1 41 215 view .LVU578
	.loc 1 41 32 view .LVU579
	.loc 1 41 35 view .LVU580
	.loc 1 41 9 view .LVU581
	.loc 1 41 9 view .LVU582
	.loc 1 41 76 view .LVU583
	.loc 1 41 88 is_stmt 0 view .LVU584
	sub	sp, sp, #32
.LVL53:
	.loc 1 41 88 view .LVU585
	mov	r2, sp
.LVL54:
	.loc 1 41 80 is_stmt 1 view .LVU586
	.loc 1 41 490 view .LVU587
	.loc 1 41 11 view .LVU588
	.loc 1 41 13 view .LVU589
	.loc 1 41 18 view .LVU590
	.loc 1 41 16 view .LVU591
	.loc 1 41 11 view .LVU592
	.loc 1 41 29 view .LVU593
.LBB827:
	.loc 1 41 9 view .LVU594
	.loc 1 41 374 view .LVU595
	.loc 1 41 81 view .LVU596
.LVL55:
	.loc 1 41 8 view .LVU597
	.loc 1 41 8 view .LVU598
	.loc 1 41 8 view .LVU599
	.loc 1 41 44 view .LVU600
	.loc 1 41 73 view .LVU601
	.loc 1 41 99 view .LVU602
	.loc 1 41 125 view .LVU603
	.loc 1 41 592 view .LVU604
	.loc 1 41 654 view .LVU605
	.loc 1 41 1175 view .LVU606
	.loc 1 41 1240 view .LVU607
	.loc 1 41 1265 view .LVU608
	.loc 1 41 1266 view .LVU609
	.loc 1 41 1268 view .LVU610
	.loc 1 41 1298 view .LVU611
	.loc 1 41 1328 view .LVU612
	.loc 1 41 1360 view .LVU613
	.loc 1 41 1392 view .LVU614
	.loc 1 41 1424 view .LVU615
	.loc 1 41 1621 view .LVU616
	.loc 1 41 1645 view .LVU617
	.loc 1 41 1646 view .LVU618
	.loc 1 41 1648 view .LVU619
	.loc 1 41 1677 view .LVU620
	.loc 1 41 1706 view .LVU621
	.loc 1 41 1737 view .LVU622
	.loc 1 41 1768 view .LVU623
	.loc 1 41 1799 view .LVU624
	.loc 1 41 2006 view .LVU625
.LBB828:
	.loc 1 41 3150 view .LVU626
	.loc 1 41 3155 view .LVU627
	.loc 1 41 3773 view .LVU628
	.loc 1 41 0 is_stmt 0 view .LVU629
	ldr	r3, .L33+20
.LBE828:
.LBB829:
	.loc 1 41 3817 view .LVU630
	strd	r3, r5, [r2, #20]
.LVL56:
.L25:
	.loc 1 41 2772 is_stmt 1 view .LVU631
	.loc 1 41 13 view .LVU632
	.loc 1 41 36 view .LVU633
	.loc 1 41 36 is_stmt 0 view .LVU634
.LBE829:
	.loc 1 41 15 is_stmt 1 view .LVU635
	.loc 1 41 11 view .LVU636
	.loc 1 41 34 view .LVU637
	.loc 1 41 58 view .LVU638
	.loc 1 41 86 view .LVU639
	.loc 1 41 262 view .LVU640
	.loc 1 41 22 view .LVU641
.LBB830:
	.loc 1 41 12 view .LVU642
	.loc 1 41 170 view .LVU643
	.loc 1 41 172 view .LVU644
	.loc 1 41 182 is_stmt 0 view .LVU645
	movs	r3, #3
	str	r3, [r2, #16]!
.LVL57:
	.loc 1 41 182 view .LVU646
.LBE830:
.LBE827:
	.loc 1 41 32 is_stmt 1 view .LVU647
	.loc 1 41 13 view .LVU648
	.loc 1 41 153 view .LVU649
	.loc 1 41 155 view .LVU650
.LBB831:
.LBI824:
	.loc 3 26 20 view .LVU651
.LBB826:
	.loc 3 38 2 view .LVU652
	.loc 3 38 7 view .LVU653
	.loc 3 38 5 view .LVU654
	.loc 3 39 2 view .LVU655
	movs	r3, #0
	mov	r1, #6400
	b	.L24
.LVL58:
.L8:
	.loc 3 39 2 is_stmt 0 view .LVU656
.LBE826:
.LBE831:
.LBE832:
.LBE833:
.LBE834:
.LBE867:
	.loc 1 44 5 is_stmt 1 view .LVU657
	.loc 1 44 29 is_stmt 0 view .LVU658
	ldrb	r0, [r4, #9]	@ zero_extendqisi2
.LVL59:
	.loc 1 44 29 view .LVU659
	bl	zmk_hid_register_mods
.LVL60:
	mov	r5, r0
.LVL61:
	.loc 1 45 5 is_stmt 1 view .LVU660
	.loc 1 45 29 is_stmt 0 view .LVU661
	ldrb	r0, [r4, #8]	@ zero_extendqisi2
.LVL62:
	.loc 1 45 29 view .LVU662
	bl	zmk_hid_implicit_modifiers_press
.LVL63:
	.loc 1 46 5 is_stmt 1 view .LVU663
.L32:
	.loc 1 46 5 is_stmt 0 view .LVU664
.LBE869:
.LBE871:
.LBB872:
.LBB873:
	.loc 1 88 5 is_stmt 1 view .LVU665
	.loc 1 88 8 is_stmt 0 view .LVU666
	ldrh	r3, [r4]
	cmp	r3, #7
	beq	.L15
	.loc 1 88 34 view .LVU667
	cmp	r5, #0
	bgt	.L16
	.loc 1 89 36 view .LVU668
	cmp	r0, #0
	ble	.L15
.L16:
	.loc 1 90 9 is_stmt 1 view .LVU669
	.loc 1 90 15 is_stmt 0 view .LVU670
	movs	r0, #7
.LVL64:
	.loc 1 90 15 view .LVU671
	bl	zmk_endpoints_send_report
.LVL65:
	.loc 1 91 9 is_stmt 1 view .LVU672
	.loc 1 91 12 is_stmt 0 view .LVU673
	cmp	r0, #0
	.loc 1 91 12 view .LVU674
	bge	.L15
	.loc 1 92 13 is_stmt 1 view .LVU675
.LBB874:
	.loc 1 92 18 view .LVU676
	.loc 1 92 67 view .LVU677
	.loc 1 92 24 view .LVU678
	.loc 1 92 12 view .LVU679
.LVL66:
	.loc 1 92 51 view .LVU680
	.loc 1 92 186 view .LVU681
	.loc 1 92 197 view .LVU682
	.loc 1 92 285 view .LVU683
.LBB875:
	.loc 1 92 13 view .LVU684
	.loc 1 92 15 view .LVU685
	.loc 1 92 13 view .LVU686
.LBB876:
	.loc 1 92 18 view .LVU687
	.loc 1 92 12 view .LVU688
	.loc 1 92 22 view .LVU689
	.loc 1 92 112 view .LVU690
	.loc 1 92 114 view .LVU691
.LBB877:
	.loc 1 92 117 is_stmt 0 view .LVU692
	mov	r5, sp
	.loc 1 92 119 is_stmt 1 view .LVU693
	.loc 1 92 130 view .LVU694
.LVL67:
	.loc 1 92 219 view .LVU695
	.loc 1 92 36 view .LVU696
	.loc 1 92 39 view .LVU697
	.loc 1 92 13 view .LVU698
	.loc 1 92 13 view .LVU699
	.loc 1 92 80 view .LVU700
	.loc 1 92 92 is_stmt 0 view .LVU701
	sub	sp, sp, #32
	mov	r2, sp
.LVL68:
	.loc 1 92 84 is_stmt 1 view .LVU702
	.loc 1 92 494 view .LVU703
	.loc 1 92 15 view .LVU704
	.loc 1 92 17 view .LVU705
	.loc 1 92 22 view .LVU706
	.loc 1 92 20 view .LVU707
	.loc 1 92 15 view .LVU708
	.loc 1 92 33 view .LVU709
.LBB878:
	.loc 1 92 13 view .LVU710
	.loc 1 92 378 view .LVU711
	.loc 1 92 85 view .LVU712
.LVL69:
	.loc 1 92 12 view .LVU713
	.loc 1 92 12 view .LVU714
	.loc 1 92 12 view .LVU715
	.loc 1 92 48 view .LVU716
	.loc 1 92 77 view .LVU717
	.loc 1 92 103 view .LVU718
	.loc 1 92 129 view .LVU719
	.loc 1 92 596 view .LVU720
	.loc 1 92 658 view .LVU721
	.loc 1 92 1179 view .LVU722
	.loc 1 92 1244 view .LVU723
	.loc 1 92 1269 view .LVU724
	.loc 1 92 1270 view .LVU725
	.loc 1 92 1272 view .LVU726
	.loc 1 92 1302 view .LVU727
	.loc 1 92 1332 view .LVU728
	.loc 1 92 1364 view .LVU729
	.loc 1 92 1396 view .LVU730
	.loc 1 92 1428 view .LVU731
	.loc 1 92 1625 view .LVU732
	.loc 1 92 1649 view .LVU733
	.loc 1 92 1650 view .LVU734
	.loc 1 92 1652 view .LVU735
	.loc 1 92 1681 view .LVU736
	.loc 1 92 1710 view .LVU737
	.loc 1 92 1741 view .LVU738
	.loc 1 92 1772 view .LVU739
	.loc 1 92 1803 view .LVU740
	.loc 1 92 2010 view .LVU741
.LBB879:
	.loc 1 92 3568 view .LVU742
	.loc 1 92 3573 view .LVU743
	.loc 1 92 0 view .LVU744
	ldr	r3, .L33+24
.LBE879:
.LBB880:
	.loc 1 92 3821 is_stmt 0 view .LVU745
	strd	r3, r0, [r2, #20]
	.loc 1 92 2776 is_stmt 1 view .LVU746
	.loc 1 92 17 view .LVU747
.LVL70:
	.loc 1 92 40 view .LVU748
	.loc 1 92 40 is_stmt 0 view .LVU749
.LBE880:
	.loc 1 92 19 is_stmt 1 view .LVU750
	.loc 1 92 15 view .LVU751
	.loc 1 92 38 view .LVU752
	.loc 1 92 62 view .LVU753
	.loc 1 92 90 view .LVU754
	.loc 1 92 266 view .LVU755
	.loc 1 92 26 view .LVU756
.LBB881:
	.loc 1 92 16 view .LVU757
	.loc 1 92 174 view .LVU758
	.loc 1 92 176 view .LVU759
	.loc 1 92 186 is_stmt 0 view .LVU760
	movs	r3, #3
	str	r3, [r2, #16]!
.LVL71:
	.loc 1 92 186 view .LVU761
.LBE881:
.LBE878:
	.loc 1 92 36 is_stmt 1 view .LVU762
	.loc 1 92 17 view .LVU763
	.loc 1 92 157 view .LVU764
	.loc 1 92 159 view .LVU765
.LBB882:
.LBI882:
	.loc 3 26 20 view .LVU766
.LBB883:
	.loc 3 38 2 view .LVU767
	.loc 3 38 7 view .LVU768
	.loc 3 38 5 view .LVU769
	.loc 3 39 2 view .LVU770
	ldr	r0, .L33+8
.LVL72:
	.loc 3 39 2 is_stmt 0 view .LVU771
	movs	r3, #0
	mov	r1, #6208
	bl	z_impl_z_log_msg_static_create
.LVL73:
	.loc 3 39 2 view .LVU772
.LBE883:
.LBE882:
	mov	sp, r5
.LVL74:
	.loc 3 39 2 view .LVU773
.LBE877:
	.loc 1 92 117 is_stmt 1 view .LVU774
	.loc 1 92 15 view .LVU775
	.loc 1 92 52 view .LVU776
.LBE876:
	.loc 1 92 16 view .LVU777
.LBE875:
	.loc 1 92 288 view .LVU778
	.loc 1 92 15 view .LVU779
	.loc 1 92 28 view .LVU780
.L15:
	.loc 1 92 28 is_stmt 0 view .LVU781
.LBE874:
	.loc 1 92 16 is_stmt 1 view .LVU782
	.loc 1 96 5 view .LVU783
	.loc 1 96 12 is_stmt 0 view .LVU784
	ldrh	r0, [r4]
	bl	zmk_endpoints_send_report
.LVL75:
	b	.L2
.LVL76:
.L3:
	.loc 1 96 12 view .LVU785
.LBE873:
.LBE872:
	.loc 1 105 13 is_stmt 1 view .LVU786
.LBB920:
.LBI872:
	.loc 1 58 12 view .LVU787
.LBB919:
	.loc 1 59 5 view .LVU788
	.loc 1 61 5 view .LVU789
.LBB884:
	.loc 1 61 10 view .LVU790
	.loc 1 61 59 view .LVU791
	.loc 1 61 16 view .LVU792
	.loc 1 61 4 view .LVU793
	.loc 1 61 43 view .LVU794
	.loc 1 61 178 view .LVU795
	.loc 1 61 189 view .LVU796
	.loc 1 61 277 view .LVU797
.LBB885:
	.loc 1 61 5 view .LVU798
	.loc 1 61 7 view .LVU799
	.loc 1 61 56 view .LVU800
	.loc 1 61 97 view .LVU801
	.loc 1 61 135 view .LVU802
.LBB886:
.LBB887:
	.loc 1 61 109 is_stmt 0 view .LVU803
	mov	r6, sp
	.loc 1 61 84 view .LVU804
	sub	sp, sp, #48
.LBE887:
.LBE886:
	.loc 1 61 147 view .LVU805
	ldrb	ip, [r4, #8]	@ zero_extendqisi2
.LVL77:
	.loc 1 61 184 is_stmt 1 view .LVU806
	.loc 1 61 196 is_stmt 0 view .LVU807
	ldrb	r1, [r4, #9]	@ zero_extendqisi2
.LVL78:
	.loc 1 61 5 is_stmt 1 view .LVU808
.LBB906:
	.loc 1 61 10 view .LVU809
	.loc 1 61 4 view .LVU810
	.loc 1 61 14 view .LVU811
	.loc 1 61 104 view .LVU812
	.loc 1 61 106 view .LVU813
.LBB903:
	.loc 1 61 111 view .LVU814
	.loc 1 61 122 view .LVU815
	.loc 1 61 211 view .LVU816
	.loc 1 61 28 view .LVU817
	.loc 1 61 31 view .LVU818
	.loc 1 61 5 view .LVU819
	.loc 1 61 5 view .LVU820
	.loc 1 61 72 view .LVU821
	.loc 1 61 84 is_stmt 0 view .LVU822
	mov	r2, sp
.LVL79:
	.loc 1 61 76 is_stmt 1 view .LVU823
	.loc 1 61 486 view .LVU824
	.loc 1 61 7 view .LVU825
	.loc 1 61 9 view .LVU826
	.loc 1 61 14 view .LVU827
	.loc 1 61 12 view .LVU828
	.loc 1 61 7 view .LVU829
	.loc 1 61 25 view .LVU830
.LBB888:
	.loc 1 61 5 view .LVU831
	.loc 1 61 370 view .LVU832
	.loc 1 61 77 view .LVU833
.LVL80:
	.loc 1 61 4 view .LVU834
	.loc 1 61 4 view .LVU835
	.loc 1 61 4 view .LVU836
	.loc 1 61 40 view .LVU837
	.loc 1 61 69 view .LVU838
	.loc 1 61 95 view .LVU839
	.loc 1 61 121 view .LVU840
	.loc 1 61 2372 view .LVU841
	.loc 1 61 2434 view .LVU842
	.loc 1 61 0 view .LVU843
	.loc 1 61 0 view .LVU844
	.loc 1 61 0 view .LVU845
	.loc 1 61 0 view .LVU846
	.loc 1 61 0 view .LVU847
	.loc 1 61 0 view .LVU848
	.loc 1 61 0 view .LVU849
	.loc 1 61 0 view .LVU850
	.loc 1 61 0 view .LVU851
	.loc 1 61 0 view .LVU852
	.loc 1 61 0 view .LVU853
	.loc 1 61 0 view .LVU854
	.loc 1 61 0 view .LVU855
	.loc 1 61 0 view .LVU856
	.loc 1 61 0 view .LVU857
	.loc 1 61 0 view .LVU858
	.loc 1 61 0 view .LVU859
	.loc 1 61 0 view .LVU860
	.loc 1 61 0 view .LVU861
	.loc 1 61 0 view .LVU862
.LBB889:
	.loc 1 61 3605 view .LVU863
	.loc 1 61 3610 view .LVU864
	.loc 1 61 0 view .LVU865
.LBE889:
.LBB890:
	.loc 1 61 3813 is_stmt 0 view .LVU866
	ldr	r8, .L33+36
.LBE890:
.LBB891:
	.loc 1 61 0 view .LVU867
	ldr	lr, .L33+32
	str	lr, [r2, #20]
.LVL81:
	.loc 1 61 3608 is_stmt 1 view .LVU868
	.loc 1 61 9 view .LVU869
	.loc 1 61 32 view .LVU870
	.loc 1 61 32 is_stmt 0 view .LVU871
.LBE891:
	.loc 1 61 131 is_stmt 1 view .LVU872
	.loc 1 61 8 view .LVU873
.LBB892:
	.loc 1 61 13 view .LVU874
	.loc 1 61 238 view .LVU875
	.loc 1 61 1191 view .LVU876
	.loc 1 61 1256 view .LVU877
	.loc 1 61 1423 view .LVU878
	.loc 1 61 1463 view .LVU879
	.loc 1 61 1488 view .LVU880
	.loc 1 61 2727 view .LVU881
	.loc 1 61 2765 view .LVU882
	.loc 1 61 2770 view .LVU883
	.loc 1 61 3214 view .LVU884
.LBE892:
.LBB893:
	.loc 1 61 3813 is_stmt 0 view .LVU885
	strd	r3, ip, [r2, #32]
.LBE893:
.LBB894:
	.loc 1 61 178 view .LVU886
	movs	r3, #7
.LBE894:
.LBE888:
.LBE903:
.LBE906:
	.loc 1 61 68 view .LVU887
	strd	r8, r0, [r2, #24]
.LBB907:
.LBB904:
.LBB900:
.LBB895:
	.loc 1 61 2768 is_stmt 1 view .LVU888
	.loc 1 61 9 view .LVU889
.LVL82:
	.loc 1 61 32 view .LVU890
	.loc 1 61 32 is_stmt 0 view .LVU891
.LBE895:
	.loc 1 61 11 is_stmt 1 view .LVU892
	.loc 1 61 8 view .LVU893
.LBB896:
	.loc 1 61 13 view .LVU894
	.loc 1 61 238 view .LVU895
	.loc 1 61 1191 view .LVU896
	.loc 1 61 1256 view .LVU897
	.loc 1 61 1423 view .LVU898
	.loc 1 61 1463 view .LVU899
	.loc 1 61 2727 view .LVU900
	.loc 1 61 2765 view .LVU901
	.loc 1 61 2770 view .LVU902
	.loc 1 61 3214 view .LVU903
.LBE896:
.LBB897:
	.loc 1 61 2768 view .LVU904
	.loc 1 61 9 view .LVU905
	.loc 1 61 32 view .LVU906
	.loc 1 61 32 is_stmt 0 view .LVU907
.LBE897:
	.loc 1 61 11 is_stmt 1 view .LVU908
	.loc 1 61 8 view .LVU909
.LBB898:
	.loc 1 61 13 view .LVU910
	.loc 1 61 238 view .LVU911
	.loc 1 61 1191 view .LVU912
	.loc 1 61 1256 view .LVU913
	.loc 1 61 1423 view .LVU914
	.loc 1 61 1463 view .LVU915
	.loc 1 61 2727 view .LVU916
	.loc 1 61 2765 view .LVU917
	.loc 1 61 2770 view .LVU918
	.loc 1 61 3214 view .LVU919
	.loc 1 61 3813 is_stmt 0 view .LVU920
	str	r1, [r2, #40]
	.loc 1 61 2768 is_stmt 1 view .LVU921
	.loc 1 61 9 view .LVU922
.LVL83:
	.loc 1 61 32 view .LVU923
	.loc 1 61 32 is_stmt 0 view .LVU924
.LBE898:
	.loc 1 61 11 is_stmt 1 view .LVU925
	.loc 1 61 7 view .LVU926
	.loc 1 61 30 view .LVU927
	.loc 1 61 54 view .LVU928
	.loc 1 61 82 view .LVU929
	.loc 1 61 258 view .LVU930
	.loc 1 61 18 view .LVU931
.LBB899:
	.loc 1 61 8 view .LVU932
	.loc 1 61 166 view .LVU933
	.loc 1 61 168 view .LVU934
	.loc 1 61 178 is_stmt 0 view .LVU935
	str	r3, [r2, #16]!
.LVL84:
	.loc 1 61 178 view .LVU936
.LBE899:
.LBE900:
	.loc 1 61 28 is_stmt 1 view .LVU937
	.loc 1 61 9 view .LVU938
	.loc 1 61 149 view .LVU939
	.loc 1 61 151 view .LVU940
.LBB901:
.LBI901:
	.loc 3 26 20 view .LVU941
.LBB902:
	.loc 3 38 2 view .LVU942
	.loc 3 38 7 view .LVU943
	.loc 3 38 5 view .LVU944
	.loc 3 39 2 view .LVU945
	ldr	r0, .L33+8
.LVL85:
	.loc 3 39 2 is_stmt 0 view .LVU946
	mov	r3, r5
	mov	r1, #14592
.LVL86:
	.loc 3 39 2 view .LVU947
	bl	z_impl_z_log_msg_static_create
.LVL87:
	.loc 3 39 2 view .LVU948
.LBE902:
.LBE901:
.LBE904:
.LBE907:
.LBE885:
.LBE884:
	.loc 1 63 44 view .LVU949
	ldrh	r0, [r4]
	.loc 1 63 11 view .LVU950
	ldr	r3, [r4, #4]
.LBB910:
.LBB909:
.LBB908:
.LBB905:
	mov	sp, r6
.LVL88:
	.loc 1 63 11 view .LVU951
.LBE905:
	.loc 1 61 109 is_stmt 1 view .LVU952
	.loc 1 61 7 view .LVU953
	.loc 1 61 44 view .LVU954
.LBE908:
	.loc 1 61 8 view .LVU955
.LBE909:
	.loc 1 61 280 view .LVU956
	.loc 1 61 7 view .LVU957
	.loc 1 61 20 view .LVU958
.LBE910:
	.loc 1 61 8 view .LVU959
	.loc 1 63 5 view .LVU960
	.loc 1 63 11 is_stmt 0 view .LVU961
	orr	r0, r3, r0, lsl #16
	bl	zmk_hid_release
.LVL89:
	.loc 1 64 5 is_stmt 1 view .LVU962
	.loc 1 64 8 is_stmt 0 view .LVU963
	cmp	r0, #0
	bge	.L13
	.loc 1 65 9 is_stmt 1 view .LVU964
.LBB911:
	.loc 1 65 14 view .LVU965
	.loc 1 65 63 view .LVU966
	.loc 1 65 20 view .LVU967
	.loc 1 65 8 view .LVU968
.LVL90:
	.loc 1 65 47 view .LVU969
	.loc 1 65 182 view .LVU970
	.loc 1 65 193 view .LVU971
	.loc 1 65 281 view .LVU972
.LBB912:
	.loc 1 65 9 view .LVU973
	.loc 1 65 11 view .LVU974
	.loc 1 65 9 view .LVU975
.LBB913:
	.loc 1 65 14 view .LVU976
	.loc 1 65 8 view .LVU977
	.loc 1 65 18 view .LVU978
	.loc 1 65 108 view .LVU979
	.loc 1 65 110 view .LVU980
.LBB914:
	.loc 1 65 115 view .LVU981
	.loc 1 65 126 view .LVU982
	.loc 1 65 215 view .LVU983
	.loc 1 65 32 view .LVU984
	.loc 1 65 35 view .LVU985
	.loc 1 65 9 view .LVU986
	.loc 1 65 9 view .LVU987
	.loc 1 65 76 view .LVU988
	.loc 1 65 88 is_stmt 0 view .LVU989
	sub	sp, sp, #32
.LVL91:
	.loc 1 65 88 view .LVU990
	mov	r2, sp
.LVL92:
	.loc 1 65 80 is_stmt 1 view .LVU991
	.loc 1 65 490 view .LVU992
	.loc 1 65 11 view .LVU993
	.loc 1 65 13 view .LVU994
	.loc 1 65 18 view .LVU995
	.loc 1 65 16 view .LVU996
	.loc 1 65 11 view .LVU997
	.loc 1 65 29 view .LVU998
.LBB915:
	.loc 1 65 9 view .LVU999
	.loc 1 65 374 view .LVU1000
	.loc 1 65 81 view .LVU1001
.LVL93:
	.loc 1 65 8 view .LVU1002
	.loc 1 65 8 view .LVU1003
	.loc 1 65 8 view .LVU1004
	.loc 1 65 44 view .LVU1005
	.loc 1 65 73 view .LVU1006
	.loc 1 65 99 view .LVU1007
	.loc 1 65 125 view .LVU1008
	.loc 1 65 592 view .LVU1009
	.loc 1 65 654 view .LVU1010
	.loc 1 65 1175 view .LVU1011
	.loc 1 65 1240 view .LVU1012
	.loc 1 65 1265 view .LVU1013
	.loc 1 65 1266 view .LVU1014
	.loc 1 65 1268 view .LVU1015
	.loc 1 65 1298 view .LVU1016
	.loc 1 65 1328 view .LVU1017
	.loc 1 65 1360 view .LVU1018
	.loc 1 65 1392 view .LVU1019
	.loc 1 65 1424 view .LVU1020
	.loc 1 65 1621 view .LVU1021
	.loc 1 65 1645 view .LVU1022
	.loc 1 65 1646 view .LVU1023
	.loc 1 65 1648 view .LVU1024
	.loc 1 65 1677 view .LVU1025
	.loc 1 65 1706 view .LVU1026
	.loc 1 65 1737 view .LVU1027
	.loc 1 65 1768 view .LVU1028
	.loc 1 65 1799 view .LVU1029
	.loc 1 65 2006 view .LVU1030
.LBB916:
	.loc 1 65 3168 view .LVU1031
	.loc 1 65 3173 view .LVU1032
	.loc 1 65 3803 view .LVU1033
	.loc 1 65 0 is_stmt 0 view .LVU1034
	ldr	r3, .L33+28
.LBE916:
.LBB917:
	.loc 1 65 3817 view .LVU1035
	strd	r3, r8, [r2, #20]
	.loc 1 65 2772 is_stmt 1 view .LVU1036
	.loc 1 65 13 view .LVU1037
.LVL94:
	.loc 1 65 36 view .LVU1038
	.loc 1 65 36 is_stmt 0 view .LVU1039
.LBE917:
	.loc 1 65 15 is_stmt 1 view .LVU1040
	.loc 1 65 11 view .LVU1041
	.loc 1 65 34 view .LVU1042
	.loc 1 65 58 view .LVU1043
	.loc 1 65 86 view .LVU1044
	.loc 1 65 262 view .LVU1045
	.loc 1 65 22 view .LVU1046
.LBB918:
	.loc 1 65 12 view .LVU1047
	.loc 1 65 170 view .LVU1048
	.loc 1 65 172 view .LVU1049
	b	.L25
.LVL95:
.L13:
	.loc 1 65 172 is_stmt 0 view .LVU1050
.LBE918:
.LBE915:
.LBE914:
.LBE913:
.LBE912:
.LBE911:
	.loc 1 80 5 is_stmt 1 view .LVU1051
	.loc 1 80 29 is_stmt 0 view .LVU1052
	ldrb	r0, [r4, #9]	@ zero_extendqisi2
.LVL96:
	.loc 1 80 29 view .LVU1053
	bl	zmk_hid_unregister_mods
.LVL97:
	mov	r5, r0
.LVL98:
	.loc 1 86 5 is_stmt 1 view .LVU1054
	.loc 1 86 29 is_stmt 0 view .LVU1055
	bl	zmk_hid_implicit_modifiers_release
.LVL99:
	.loc 1 86 29 view .LVU1056
	b	.L32
.L34:
	.align	2
.L33:
	.word	__func__.1
	.word	.LC0
	.word	log_const_zmk
	.word	.LC1
	.word	.LC2
	.word	.LC4
	.word	.LC5
	.word	.LC6
	.word	.LC3
	.word	__func__.0
.LBE919:
.LBE920:
	.cfi_endproc
.LFE593:
	.size	hid_listener, .-hid_listener
	.section	.rodata.__func__.0,"a"
	.type	__func__.0, %object
	.size	__func__.0, 30
__func__.0:
	.ascii	"hid_listener_keycode_released\000"
	.section	.rodata.__func__.1,"a"
	.type	__func__.1, %object
	.size	__func__.1, 29
__func__.1:
	.ascii	"hid_listener_keycode_pressed\000"
	.global	zmk_event_sub_hid_listenerzmk_keycode_state_changed
	.section	.event_subscription,"a"
	.align	2
	.type	zmk_event_sub_hid_listenerzmk_keycode_state_changed, %object
	.size	zmk_event_sub_hid_listenerzmk_keycode_state_changed, 8
zmk_event_sub_hid_listenerzmk_keycode_state_changed:
	.word	zmk_event_zmk_keycode_state_changed
	.word	zmk_listener_hid_listener
	.global	zmk_listener_hid_listener
	.section	.rodata.zmk_listener_hid_listener,"a"
	.align	2
	.type	zmk_listener_hid_listener, %object
	.size	zmk_listener_hid_listener, 4
zmk_listener_hid_listener:
	.word	hid_listener
	.text
.Letext0:
	.file 4 "/home/g/zephyr-sdk-0.16.3/arm-zephyr-eabi/lib/gcc/arm-zephyr-eabi/12.2.0/include/stddef.h"
	.file 5 "/home/g/zephyr-sdk-0.16.3/arm-zephyr-eabi/picolibc/include/machine/_default_types.h"
	.file 6 "/home/g/zephyr-sdk-0.16.3/arm-zephyr-eabi/picolibc/include/sys/_stdint.h"
	.file 7 "/home/g/mise-work/zmk-firmware/zmk/zephyr/include/zephyr/fatal_types.h"
	.file 8 "/home/g/mise-work/zmk-firmware/zmk/zephyr/include/zephyr/kernel.h"
	.file 9 "/home/g/mise-work/zmk-firmware/zmk/zephyr/include/zephyr/logging/log_instance.h"
	.file 10 "/home/g/mise-work/zmk-firmware/zmk/zephyr/include/zephyr/sys/cbprintf.h"
	.file 11 "/home/g/mise-work/zmk-firmware/zmk/zephyr/include/zephyr/logging/log_msg.h"
	.file 12 "/home/g/mise-work/zmk-firmware/zmk/app/include/zmk/event_manager.h"
	.file 13 "/home/g/mise-work/zmk-firmware/zmk/app/include/zmk/events/keycode_state_changed.h"
	.file 14 "/home/g/mise-work/zmk-firmware/zmk/app/include/zmk/hid.h"
	.file 15 "/home/g/mise-work/zmk-firmware/zmk/app/include/zmk/endpoints.h"
	.file 16 "/home/g/mise-work/zmk-firmware/zmk/zephyr/include/zephyr/sys/cbprintf_internal.h"
	.file 17 "/home/g/mise-work/zmk-firmware/zmk/zephyr/include/zephyr/syscall.h"