	.cpu cortex-m4
	.arch armv7e-m
	.fpu fpv4-sp-d16
	.eabi_attribute 27, 1
	.eabi_attribute 28, 1
	.eabi_attribute 20, 1
	.eabi_attribute 21, 1
	.eabi_attribute 23, 3
	.eabi_attribute 24, 1
	.eabi_attribute 25, 1
	.eabi_attribute 26, 1
	.eabi_attribute 30, 4
	.eabi_attribute 34, 1
	.eabi_attribute 38, 1
	.eabi_attribute 18, 4
	.file	"keymap.c"
	.text
.Ltext0:
	.cfi_sections	.debug_frame
	.file 1 "/home/g/mise-work/zmk-firmware/zmk/app/src/keymap.c"
	.section	.text.keymap_init,"ax",%progbits
	.align	1
	.global	keymap_init
	.syntax unified
	.thumb
	.thumb_func
	.type	keymap_init, %function
keymap_init:
.LFB603:
	.loc 1 958 23 view -0
	.cfi_startproc
	@ args = 0, pretend = 0, frame = 0
	@ frame_needed = 0, uses_anonymous_args = 0
	@ link register save eliminated.
	.loc 1 966 5 view .LVU1
	.loc 1 967 1 is_stmt 0 view .LVU2
	movs	r0, #0
	bx	lr
	.cfi_endproc
.LFE603:
	.size	keymap_init, .-keymap_init
	.section	.rodata.set_layer_state.part.0.str1.1,"aMS",%progbits,1
.LC0:
	.ascii	"%s: layer_changed: layer %d state %d\000"
.LC1:
	.ascii	"Failed to raise layer state changed (%d)\000"
	.section	.text.set_layer_state.part.0,"ax",%progbits
	.align	1
	.syntax unified
	.thumb
	.thumb_func
	.type	set_layer_state.part.0, %function
set_layer_state.part.0:
.LVL0:
.LFB604:
	.loc 1 138 19 is_stmt 1 view -0
	.cfi_startproc
	@ args = 0, pretend = 0, frame = 16
	@ frame_needed = 1, uses_anonymous_args = 0
	.loc 1 153 9 view .LVU4
.LBB654:
	.loc 1 153 14 view .LVU5
	.loc 1 153 63 view .LVU6
	.loc 1 153 20 view .LVU7
	.loc 1 153 8 view .LVU8
	.loc 1 153 47 view .LVU9
	.loc 1 153 182 view .LVU10
	.loc 1 153 193 view .LVU11
	.loc 1 153 281 view .LVU12
.LBB655:
	.loc 1 153 9 view .LVU13
	.loc 1 153 11 view .LVU14
	.loc 1 153 60 view .LVU15
	.loc 1 153 95 view .LVU16
	.loc 1 153 9 view .LVU17
.LBB656:
	.loc 1 153 14 view .LVU18
	.loc 1 153 8 view .LVU19
.LBE656:
.LBE655:
.LBE654:
	.loc 1 153 9 view .LVU20
	.loc 1 153 18 view .LVU21
	.loc 1 153 113 view .LVU22
	.loc 1 153 9 view .LVU23
.LBB697:
.LBB689:
.LBB680:
	.loc 1 153 18 view .LVU24
	.loc 1 153 108 view .LVU25
	.loc 1 153 110 view .LVU26
.LBE680:
.LBE689:
.LBE697:
	.loc 1 138 19 is_stmt 0 view .LVU27
	push	{r4, r5, r6, r7, lr}
	.cfi_def_cfa_offset 20
	.cfi_offset 4, -20
	.cfi_offset 5, -16
	.cfi_offset 6, -12
	.cfi_offset 7, -8
	.cfi_offset 14, -4
	sub	sp, sp, #20
	.cfi_def_cfa_offset 40
.LBB698:
.LBB690:
.LBB681:
.LBB657:
	.loc 1 153 113 view .LVU28
	mov	r5, sp
	.loc 1 153 115 is_stmt 1 view .LVU29
	.loc 1 153 126 view .LVU30
.LVL1:
	.loc 1 153 215 view .LVU31
	.loc 1 153 32 view .LVU32
.LBE657:
.LBE681:
.LBE690:
.LBE698:
	.loc 1 153 9 view .LVU33
	.loc 1 153 374 view .LVU34
	.loc 1 153 81 view .LVU35
	.loc 1 153 8 view .LVU36
	.loc 1 153 8 view .LVU37
	.loc 1 153 8 view .LVU38
	.loc 1 153 44 view .LVU39
	.loc 1 153 10 view .LVU40
	.loc 1 153 36 view .LVU41
	.loc 1 153 62 view .LVU42
	.loc 1 153 1421 view .LVU43
	.loc 1 153 1483 view .LVU44
	.loc 1 153 2936 view .LVU45
	.loc 1 153 3001 view .LVU46
	.loc 1 153 3026 view .LVU47
	.loc 1 153 3027 view .LVU48
	.loc 1 153 3029 view .LVU49
	.loc 1 153 3059 view .LVU50
	.loc 1 153 3089 view .LVU51
	.loc 1 153 3121 view .LVU52
	.loc 1 153 3153 view .LVU53
	.loc 1 153 3185 view .LVU54
	.loc 1 153 3382 view .LVU55
	.loc 1 153 3406 view .LVU56
	.loc 1 153 3407 view .LVU57
	.loc 1 153 3409 view .LVU58
	.loc 1 153 3438 view .LVU59
	.loc 1 153 3467 view .LVU60
	.loc 1 153 3498 view .LVU61
	.loc 1 153 3529 view .LVU62
	.loc 1 153 3560 view .LVU63
	.loc 1 153 3767 view .LVU64
	.loc 1 153 10 view .LVU65
	.loc 1 153 28 view .LVU66
	.loc 1 153 48 view .LVU67
	.loc 1 153 10 view .LVU68
	.loc 1 153 48 view .LVU69
	.loc 1 153 19 view .LVU70
	.loc 1 153 19 view .LVU71
	.loc 1 153 67 view .LVU72
	.loc 1 153 98 view .LVU73
	.loc 1 153 132 view .LVU74
	.loc 1 153 137 view .LVU75
	.loc 1 153 400 view .LVU76
	.loc 1 153 1505 view .LVU77
	.loc 1 153 1570 view .LVU78
	.loc 1 153 1594 view .LVU79
	.loc 1 153 1661 view .LVU80
	.loc 1 153 1672 view .LVU81
	.loc 1 153 1797 view .LVU82
	.loc 1 153 1813 view .LVU83
	.loc 1 153 1853 view .LVU84
	.loc 1 153 1878 view .LVU85
	.loc 1 153 3193 view .LVU86
	.loc 1 153 3234 view .LVU87
	.loc 1 153 13 view .LVU88
	.loc 1 153 36 view .LVU89
	.loc 1 153 135 view .LVU90
	.loc 1 153 12 view .LVU91
	.loc 1 153 17 view .LVU92
	.loc 1 153 242 view .LVU93
	.loc 1 153 1195 view .LVU94
	.loc 1 153 1260 view .LVU95
	.loc 1 153 1284 view .LVU96
	.loc 1 153 1313 view .LVU97
	.loc 1 153 1324 view .LVU98
	.loc 1 153 1411 view .LVU99
	.loc 1 153 1427 view .LVU100
	.loc 1 153 1467 view .LVU101
	.loc 1 153 1492 view .LVU102
	.loc 1 153 2731 view .LVU103
	.loc 1 153 2772 view .LVU104
	.loc 1 153 13 view .LVU105
	.loc 1 153 36 view .LVU106
	.loc 1 153 15 view .LVU107
	.loc 1 153 12 view .LVU108
	.loc 1 153 17 view .LVU109
	.loc 1 153 242 view .LVU110
	.loc 1 153 1195 view .LVU111
	.loc 1 153 1260 view .LVU112
	.loc 1 153 1284 view .LVU113
	.loc 1 153 1313 view .LVU114
	.loc 1 153 1324 view .LVU115
	.loc 1 153 1411 view .LVU116
	.loc 1 153 1427 view .LVU117
	.loc 1 153 1467 view .LVU118
	.loc 1 153 2731 view .LVU119
	.loc 1 153 2772 view .LVU120
	.loc 1 153 13 view .LVU121
	.loc 1 153 36 view .LVU122
	.loc 1 153 15 view .LVU123
	.loc 1 153 12 view .LVU124
	.loc 1 153 17 view .LVU125
	.loc 1 153 242 view .LVU126
	.loc 1 153 1195 view .LVU127
	.loc 1 153 1260 view .LVU128
	.loc 1 153 1284 view .LVU129
	.loc 1 153 1313 view .LVU130
	.loc 1 153 1324 view .LVU131
	.loc 1 153 1411 view .LVU132
	.loc 1 153 1427 view .LVU133
	.loc 1 153 1467 view .LVU134
	.loc 1 153 2731 view .LVU135
	.loc 1 153 2772 view .LVU136
	.loc 1 153 13 view .LVU137
	.loc 1 153 36 view .LVU138
	.loc 1 153 15 view .LVU139
	.loc 1 153 11 view .LVU140
	.loc 1 153 34 view .LVU141
	.loc 1 153 58 view .LVU142
	.loc 1 153 86 view .LVU143
	.loc 1 153 262 view .LVU144
	.loc 1 153 22 view .LVU145
.LBB699:
.LBB691:
.LBB682:
.LBB673:
	.loc 1 153 35 view .LVU146
	.loc 1 153 9 view .LVU147
	.loc 1 153 9 view .LVU148
	.loc 1 153 76 view .LVU149
	.loc 1 153 76 is_stmt 0 view .LVU150
.LBE673:
.LBE682:
.LBE691:
.LBE699:
	.loc 1 138 19 view .LVU151
	add	r7, sp, #0
	.cfi_def_cfa_register 7
.LBB700:
.LBB692:
.LBB683:
.LBB674:
	.loc 1 153 88 view .LVU152
	sub	sp, sp, #40
.LBE674:
.LBE683:
.LBE692:
.LBE700:
	.loc 1 138 19 view .LVU153
	mov	r6, r0
.LBB701:
.LBB693:
.LBB684:
.LBB675:
	.loc 1 153 88 view .LVU154
	mov	r2, sp
.LVL2:
	.loc 1 153 80 is_stmt 1 view .LVU155
	.loc 1 153 490 view .LVU156
	.loc 1 153 11 view .LVU157
	.loc 1 153 13 view .LVU158
	.loc 1 153 18 view .LVU159
	.loc 1 153 16 view .LVU160
	.loc 1 153 11 view .LVU161
	.loc 1 153 29 view .LVU162
.LBB658:
	.loc 1 153 9 view .LVU163
	.loc 1 153 374 view .LVU164
	.loc 1 153 81 view .LVU165
.LVL3:
	.loc 1 153 8 view .LVU166
	.loc 1 153 8 view .LVU167
	.loc 1 153 8 view .LVU168
	.loc 1 153 44 view .LVU169
	.loc 1 153 73 view .LVU170
	.loc 1 153 99 view .LVU171
	.loc 1 153 125 view .LVU172
	.loc 1 153 1484 view .LVU173
	.loc 1 153 1546 view .LVU174
	.loc 1 153 2999 view .LVU175
	.loc 1 153 3064 view .LVU176
	.loc 1 153 3089 view .LVU177
	.loc 1 153 3090 view .LVU178
	.loc 1 153 3092 view .LVU179
	.loc 1 153 3122 view .LVU180
	.loc 1 153 3152 view .LVU181
	.loc 1 153 3184 view .LVU182
	.loc 1 153 3216 view .LVU183
	.loc 1 153 3248 view .LVU184
	.loc 1 153 3445 view .LVU185
	.loc 1 153 3469 view .LVU186
	.loc 1 153 3470 view .LVU187
	.loc 1 153 3472 view .LVU188
	.loc 1 153 3501 view .LVU189
	.loc 1 153 3530 view .LVU190
	.loc 1 153 3561 view .LVU191
	.loc 1 153 3592 view .LVU192
	.loc 1 153 3623 view .LVU193
	.loc 1 153 3830 view .LVU194
.LBB659:
	.loc 1 153 3231 view .LVU195
	.loc 1 153 3236 view .LVU196
	.loc 1 153 3908 view .LVU197
	.loc 1 153 0 is_stmt 0 view .LVU198
	ldr	r3, .L5
	str	r3, [r2, #20]
	.loc 1 153 3234 is_stmt 1 view .LVU199
	.loc 1 153 13 view .LVU200
.LVL4:
	.loc 1 153 36 view .LVU201
	.loc 1 153 36 is_stmt 0 view .LVU202
.LBE659:
	.loc 1 153 135 is_stmt 1 view .LVU203
	.loc 1 153 12 view .LVU204
.LBB660:
	.loc 1 153 17 view .LVU205
	.loc 1 153 242 view .LVU206
	.loc 1 153 1195 view .LVU207
	.loc 1 153 1260 view .LVU208
.LBE660:
.LBE658:
.LBE675:
.LBE684:
.LBE693:
.LBE701:
	.loc 1 153 1284 view .LVU209
	.loc 1 153 1313 view .LVU210
	.loc 1 153 1324 view .LVU211
	.loc 1 153 1411 view .LVU212
.LBB702:
.LBB694:
.LBB685:
.LBB676:
.LBB667:
.LBB661:
	.loc 1 153 1427 view .LVU213
	.loc 1 153 1467 view .LVU214
	.loc 1 153 1492 view .LVU215
	.loc 1 153 2731 view .LVU216
	.loc 1 153 2769 view .LVU217
	.loc 1 153 2774 view .LVU218
	.loc 1 153 3218 view .LVU219
	.loc 1 153 3817 is_stmt 0 view .LVU220
	ldr	r3, .L5+4
	str	r3, [r2, #24]
	.loc 1 153 2772 is_stmt 1 view .LVU221
	.loc 1 153 13 view .LVU222
.LVL5:
	.loc 1 153 36 view .LVU223
	.loc 1 153 36 is_stmt 0 view .LVU224
.LBE661:
	.loc 1 153 15 is_stmt 1 view .LVU225
	.loc 1 153 12 view .LVU226
.LBB662:
	.loc 1 153 17 view .LVU227
	.loc 1 153 242 view .LVU228
	.loc 1 153 1195 view .LVU229
	.loc 1 153 1260 view .LVU230
.LBE662:
.LBE667:
.LBE676:
.LBE685:
.LBE694:
.LBE702:
	.loc 1 153 1284 view .LVU231
	.loc 1 153 1313 view .LVU232
	.loc 1 153 1324 view .LVU233
	.loc 1 153 1411 view .LVU234
.LBB703:
.LBB695:
.LBB686:
.LBB677:
.LBB668:
.LBB663:
	.loc 1 153 1427 view .LVU235
	.loc 1 153 1467 view .LVU236
	.loc 1 153 2731 view .LVU237
	.loc 1 153 2769 view .LVU238
	.loc 1 153 2774 view .LVU239
	.loc 1 153 3218 view .LVU240
	.loc 1 153 3817 is_stmt 0 view .LVU241
	movs	r4, #0
.LBE663:
.LBB664:
	.loc 1 153 182 view .LVU242
	movs	r3, #5
.LBE664:
.LBE668:
.LBE677:
.LBE686:
	.loc 1 153 107 view .LVU243
	strd	r4, r0, [r2, #28]
.LBB687:
.LBB678:
.LBB669:
.LBB665:
	.loc 1 153 2772 is_stmt 1 view .LVU244
	.loc 1 153 13 view .LVU245
.LVL6:
	.loc 1 153 36 view .LVU246
	.loc 1 153 36 is_stmt 0 view .LVU247
.LBE665:
	.loc 1 153 15 is_stmt 1 view .LVU248
	.loc 1 153 11 view .LVU249
	.loc 1 153 34 view .LVU250
	.loc 1 153 58 view .LVU251
	.loc 1 153 86 view .LVU252
.LBE669:
.LBE678:
.LBE687:
.LBE695:
.LBE703:
	.loc 1 153 12 view .LVU253
	.loc 1 153 51 view .LVU254
	.loc 1 153 56 view .LVU255
	.loc 1 153 86 view .LVU256
	.loc 1 153 153 view .LVU257
	.loc 1 153 158 view .LVU258
	.loc 1 153 188 view .LVU259
.LBB704:
.LBB696:
.LBB688:
.LBB679:
.LBB670:
	.loc 1 153 262 view .LVU260
	.loc 1 153 22 view .LVU261
.LBB666:
	.loc 1 153 12 view .LVU262
	.loc 1 153 170 view .LVU263
	.loc 1 153 172 view .LVU264
	.loc 1 153 182 is_stmt 0 view .LVU265
	str	r3, [r2, #16]!
.LVL7:
	.loc 1 153 182 view .LVU266
.LBE666:
.LBE670:
	.loc 1 153 32 is_stmt 1 view .LVU267
	.loc 1 153 13 view .LVU268
	.loc 1 153 153 view .LVU269
	.loc 1 153 155 view .LVU270
.LBB671:
.LBI671:
	.file 2 "/home/g/mise-work/zmk-firmware/zmk/app/build/zephyr/include/generated/syscalls/log_msg.h"
	.loc 2 26 20 view .LVU271
.LBB672:
	.loc 2 38 2 view .LVU272
	.loc 2 38 7 view .LVU273
	.loc 2 38 5 view .LVU274
	.loc 2 39 2 view .LVU275
	ldr	r0, .L5+8
.LVL8:
	.loc 2 39 2 is_stmt 0 view .LVU276
	mov	r3, r4
	mov	r1, #10496
	bl	z_impl_z_log_msg_static_create
.LVL9:
	.loc 2 39 2 view .LVU277
.LBE672:
.LBE671:
	mov	sp, r5
.LVL10:
	.loc 2 39 2 view .LVU278
.LBE679:
	.loc 1 153 113 is_stmt 1 view .LVU279
	.loc 1 153 11 view .LVU280
	.loc 1 153 48 view .LVU281
.LBE688:
	.loc 1 153 12 view .LVU282
.LBE696:
	.loc 1 153 284 view .LVU283
	.loc 1 153 11 view .LVU284
	.loc 1 153 24 view .LVU285
.LBE704:
	.loc 1 153 12 view .LVU286
	.loc 1 154 9 view .LVU287
.LBB705:
.LBI705:
	.file 3 "/home/g/mise-work/zmk-firmware/zmk/app/include/zmk/events/layer_state_changed.h"
	.loc 3 20 19 view .LVU288
.LBB706:
	.loc 3 21 5 view .LVU289
	.loc 3 21 74 is_stmt 0 view .LVU290
	strb	r4, [r7]
	strb	r6, [r7, #1]
.LBB707:
.LBI707:
	.file 4 "/home/g/mise-work/zmk-firmware/zmk/zephyr/include/zephyr/kernel.h"
	.loc 4 1757 23 is_stmt 1 view .LVU291
.LBB708:
	.loc 4 1759 2 view .LVU292
.LBB709:
.LBI709:
	.file 5 "/home/g/mise-work/zmk-firmware/zmk/app/build/zephyr/include/generated/syscalls/kernel.h"
	.loc 5 599 23 view .LVU293
.LBB710:
	.loc 5 608 2 view .LVU294
	.loc 5 608 7 view .LVU295
	.loc 5 608 5 view .LVU296
	.loc 5 609 2 view .LVU297
	.loc 5 609 9 is_stmt 0 view .LVU298
	bl	z_impl_k_uptime_ticks
.LVL11:
.LBE710:
.LBE709:
	.loc 4 1759 51 view .LVU299
	mov	r2, #1000
	umull	r0, r3, r0, r2
	mla	r1, r2, r1, r3
	.loc 4 1759 44 view .LVU300
	lsrs	r0, r0, #15
	orr	r0, r0, r1, lsl #17
	lsrs	r1, r1, #15
.LBE708:
.LBE707:
	.loc 3 21 74 view .LVU301
	strd	r0, r1, [r7, #8]
	.loc 3 21 12 view .LVU302
	add	r3, r7, #16
	ldmdb	r3, {r0, r1, r2, r3}
	bl	raise_zmk_layer_state_changed
.LVL12:
	.loc 3 21 12 view .LVU303
.LBE706:
.LBE705:
	.loc 1 155 9 is_stmt 1 view .LVU304
	.loc 1 155 12 is_stmt 0 view .LVU305
	subs	r6, r0, #0
	bge	.L2
	.loc 1 156 13 is_stmt 1 view .LVU306
.LBB711:
	.loc 1 156 18 view .LVU307
	.loc 1 156 67 view .LVU308
	.loc 1 156 24 view .LVU309
	.loc 1 156 12 view .LVU310
.LVL13:
	.loc 1 156 51 view .LVU311
	.loc 1 156 186 view .LVU312
	.loc 1 156 197 view .LVU313
	.loc 1 156 285 view .LVU314
.LBB712:
	.loc 1 156 13 view .LVU315
	.loc 1 156 15 view .LVU316
	.loc 1 156 13 view .LVU317
.LBB713:
	.loc 1 156 18 view .LVU318
	.loc 1 156 12 view .LVU319
.LBE713:
.LBE712:
.LBE711:
	.loc 1 156 13 view .LVU320
	.loc 1 156 22 view .LVU321
	.loc 1 156 117 view .LVU322
	.loc 1 156 13 view .LVU323
.LBB730:
.LBB727:
.LBB724:
	.loc 1 156 22 view .LVU324
	.loc 1 156 112 view .LVU325
	.loc 1 156 114 view .LVU326
.LBB714:
	.loc 1 156 119 view .LVU327
	.loc 1 156 130 view .LVU328
	.loc 1 156 219 view .LVU329
	.loc 1 156 36 view .LVU330
.LBE714:
.LBE724:
.LBE727:
.LBE730:
	.loc 1 156 13 view .LVU331
	.loc 1 156 378 view .LVU332
	.loc 1 156 85 view .LVU333
	.loc 1 156 12 view .LVU334
	.loc 1 156 12 view .LVU335
	.loc 1 156 12 view .LVU336
	.loc 1 156 48 view .LVU337
	.loc 1 156 14 view .LVU338
	.loc 1 156 40 view .LVU339
	.loc 1 156 66 view .LVU340
	.loc 1 156 533 view .LVU341
	.loc 1 156 595 view .LVU342
	.loc 1 156 1116 view .LVU343
	.loc 1 156 1181 view .LVU344
	.loc 1 156 1206 view .LVU345
	.loc 1 156 1207 view .LVU346
	.loc 1 156 1209 view .LVU347
	.loc 1 156 1239 view .LVU348
	.loc 1 156 1269 view .LVU349
	.loc 1 156 1301 view .LVU350
	.loc 1 156 1333 view .LVU351
	.loc 1 156 1365 view .LVU352
	.loc 1 156 1562 view .LVU353
	.loc 1 156 1586 view .LVU354
	.loc 1 156 1587 view .LVU355
	.loc 1 156 1589 view .LVU356
	.loc 1 156 1618 view .LVU357
	.loc 1 156 1647 view .LVU358
	.loc 1 156 1678 view .LVU359
	.loc 1 156 1709 view .LVU360
	.loc 1 156 1740 view .LVU361
	.loc 1 156 1947 view .LVU362
	.loc 1 156 14 view .LVU363
	.loc 1 156 32 view .LVU364
	.loc 1 156 52 view .LVU365
	.loc 1 156 14 view .LVU366
	.loc 1 156 52 view .LVU367
	.loc 1 156 23 view .LVU368
	.loc 1 156 23 view .LVU369
	.loc 1 156 71 view .LVU370
	.loc 1 156 102 view .LVU371
	.loc 1 156 136 view .LVU372
	.loc 1 156 141 view .LVU373
	.loc 1 156 405 view .LVU374
	.loc 1 156 1514 view .LVU375
	.loc 1 156 1579 view .LVU376
	.loc 1 156 1603 view .LVU377
	.loc 1 156 1671 view .LVU378
	.loc 1 156 1682 view .LVU379
	.loc 1 156 1808 view .LVU380
	.loc 1 156 1824 view .LVU381
	.loc 1 156 1864 view .LVU382
	.loc 1 156 1889 view .LVU383
	.loc 1 156 3206 view .LVU384
	.loc 1 156 3247 view .LVU385
	.loc 1 156 17 view .LVU386
	.loc 1 156 40 view .LVU387
	.loc 1 156 139 view .LVU388
	.loc 1 156 16 view .LVU389
	.loc 1 156 21 view .LVU390
	.loc 1 156 246 view .LVU391
	.loc 1 156 1199 view .LVU392
	.loc 1 156 1264 view .LVU393
	.loc 1 156 1288 view .LVU394
	.loc 1 156 1317 view .LVU395
	.loc 1 156 1328 view .LVU396
	.loc 1 156 1415 view .LVU397
	.loc 1 156 1431 view .LVU398
	.loc 1 156 1471 view .LVU399
	.loc 1 156 2735 view .LVU400
	.loc 1 156 2776 view .LVU401
	.loc 1 156 17 view .LVU402
	.loc 1 156 40 view .LVU403
	.loc 1 156 19 view .LVU404
	.loc 1 156 15 view .LVU405
	.loc 1 156 38 view .LVU406
	.loc 1 156 62 view .LVU407
	.loc 1 156 90 view .LVU408
	.loc 1 156 266 view .LVU409
	.loc 1 156 26 view .LVU410
.LBB731:
.LBB728:
.LBB725:
.LBB722:
	.loc 1 156 39 view .LVU411
	.loc 1 156 13 view .LVU412
	.loc 1 156 13 view .LVU413
	.loc 1 156 80 view .LVU414
	.loc 1 156 92 is_stmt 0 view .LVU415
	sub	sp, sp, #32
	mov	r2, sp
.LVL14:
	.loc 1 156 84 is_stmt 1 view .LVU416
	.loc 1 156 494 view .LVU417
	.loc 1 156 15 view .LVU418
	.loc 1 156 17 view .LVU419
	.loc 1 156 22 view .LVU420
	.loc 1 156 20 view .LVU421
	.loc 1 156 15 view .LVU422
	.loc 1 156 33 view .LVU423
.LBB715:
	.loc 1 156 13 view .LVU424
	.loc 1 156 378 view .LVU425
	.loc 1 156 85 view .LVU426
.LVL15:
	.loc 1 156 12 view .LVU427
	.loc 1 156 12 view .LVU428
	.loc 1 156 12 view .LVU429
	.loc 1 156 48 view .LVU430
	.loc 1 156 77 view .LVU431
	.loc 1 156 103 view .LVU432
	.loc 1 156 129 view .LVU433
	.loc 1 156 596 view .LVU434
	.loc 1 156 658 view .LVU435
	.loc 1 156 1179 view .LVU436
	.loc 1 156 1244 view .LVU437
	.loc 1 156 1269 view .LVU438
	.loc 1 156 1270 view .LVU439
	.loc 1 156 1272 view .LVU440
	.loc 1 156 1302 view .LVU441
	.loc 1 156 1332 view .LVU442
	.loc 1 156 1364 view .LVU443
	.loc 1 156 1396 view .LVU444
	.loc 1 156 1428 view .LVU445
	.loc 1 156 1625 view .LVU446
	.loc 1 156 1649 view .LVU447
	.loc 1 156 1650 view .LVU448
	.loc 1 156 1652 view .LVU449
	.loc 1 156 1681 view .LVU450
	.loc 1 156 1710 view .LVU451
	.loc 1 156 1741 view .LVU452
	.loc 1 156 1772 view .LVU453
	.loc 1 156 1803 view .LVU454
	.loc 1 156 2010 view .LVU455
.LBB716:
	.loc 1 156 3244 view .LVU456
	.loc 1 156 3249 view .LVU457
	.loc 1 156 3927 view .LVU458
	.loc 1 156 0 is_stmt 0 view .LVU459
	ldr	r3, .L5+12
.LBE716:
.LBB717:
	.loc 1 156 3821 view .LVU460
	strd	r3, r6, [r2, #20]
	.loc 1 156 2776 is_stmt 1 view .LVU461
	.loc 1 156 17 view .LVU462
.LVL16:
	.loc 1 156 40 view .LVU463
	.loc 1 156 40 is_stmt 0 view .LVU464
.LBE717:
	.loc 1 156 19 is_stmt 1 view .LVU465
	.loc 1 156 15 view .LVU466
	.loc 1 156 38 view .LVU467
	.loc 1 156 62 view .LVU468
	.loc 1 156 90 view .LVU469
.LBE715:
.LBE722:
.LBE725:
.LBE728:
.LBE731:
	.loc 1 156 16 view .LVU470
	.loc 1 156 55 view .LVU471
	.loc 1 156 60 view .LVU472
	.loc 1 156 90 view .LVU473
	.loc 1 156 157 view .LVU474
	.loc 1 156 162 view .LVU475
	.loc 1 156 192 view .LVU476
.LBB732:
.LBB729:
.LBB726:
.LBB723:
.LBB719:
	.loc 1 156 266 view .LVU477
	.loc 1 156 26 view .LVU478
.LBB718:
	.loc 1 156 16 view .LVU479
	.loc 1 156 174 view .LVU480
	.loc 1 156 176 view .LVU481
	.loc 1 156 186 is_stmt 0 view .LVU482
	movs	r3, #3
	str	r3, [r2, #16]!
.LVL17:
	.loc 1 156 186 view .LVU483
.LBE718:
.LBE719:
	.loc 1 156 36 is_stmt 1 view .LVU484
	.loc 1 156 17 view .LVU485
	.loc 1 156 157 view .LVU486
	.loc 1 156 159 view .LVU487
.LBB720:
.LBI720:
	.loc 2 26 20 view .LVU488
.LBB721:
	.loc 2 38 2 view .LVU489
	.loc 2 38 7 view .LVU490
	.loc 2 38 5 view .LVU491
	.loc 2 39 2 view .LVU492
	ldr	r0, .L5+8
.LVL18:
	.loc 2 39 2 is_stmt 0 view .LVU493
	mov	r3, r4
	mov	r1, #6272
	bl	z_impl_z_log_msg_static_create
.LVL19:
	.loc 2 39 2 view .LVU494
.LBE721:
.LBE720:
	mov	sp, r5
.LVL20:
	.loc 2 39 2 view .LVU495
.LBE723:
	.loc 1 156 117 is_stmt 1 view .LVU496
	.loc 1 156 15 view .LVU497
	.loc 1 156 52 view .LVU498
.LBE726:
	.loc 1 156 16 view .LVU499
.LBE729:
	.loc 1 156 288 view .LVU500
	.loc 1 156 15 view .LVU501
	.loc 1 156 28 view .LVU502
.L2:
	.loc 1 156 28 is_stmt 0 view .LVU503
.LBE732:
	.loc 1 161 1 view .LVU504
	mov	r0, r6
	adds	r7, r7, #20
	.cfi_def_cfa_offset 20
	mov	sp, r7
	.cfi_def_cfa_register 13
	@ sp needed
	pop	{r4, r5, r6, r7, pc}
.LVL21:
.L6:
	.loc 1 161 1 view .LVU505
	.align	2
.L5:
	.word	.LC0
	.word	__func__.2
	.word	log_const_zmk
	.word	.LC1
	.cfi_endproc
.LFE604:
	.size	set_layer_state.part.0, .-set_layer_state.part.0
	.section	.text.zmk_keymap_layer_index_to_id,"ax",%progbits
	.align	1
	.global	zmk_keymap_layer_index_to_id
	.syntax unified
	.thumb
	.thumb_func
	.type	zmk_keymap_layer_index_to_id, %function
zmk_keymap_layer_index_to_id:
.LVL22:
.LFB579:
	.loc 1 163 90 is_stmt 1 view -0
	.cfi_startproc
	@ args = 0, pretend = 0, frame = 0
	@ frame_needed = 0, uses_anonymous_args = 0
	@ link register save eliminated.
	.loc 1 164 5 view .LVU507
	.loc 1 164 8 is_stmt 0 view .LVU508
	subs	r0, r0, #0
.LVL23:
	.loc 1 164 8 view .LVU509
	it	ne
	movne	r0, #1
	rsbs	r0, r0, #0
	.loc 1 167 1 view .LVU510
	uxtb	r0, r0
	bx	lr
	.cfi_endproc
.LFE579:
	.size	zmk_keymap_layer_index_to_id, .-zmk_keymap_layer_index_to_id
	.section	.text.zmk_keymap_layer_default,"ax",%progbits
	.align	1
	.global	zmk_keymap_layer_default
	.syntax unified
	.thumb
	.thumb_func
	.type	zmk_keymap_layer_default, %function
zmk_keymap_layer_default:
.LFB580:
	.loc 1 169 54 is_stmt 1 view -0
	.cfi_startproc
	@ args = 0, pretend = 0, frame = 0
	@ frame_needed = 0, uses_anonymous_args = 0
	@ link register save eliminated.
	.loc 1 169 56 view .LVU512
	.loc 1 169 90 is_stmt 0 view .LVU513
	movs	r0, #0
	bx	lr
	.cfi_endproc
.LFE580:
	.size	zmk_keymap_layer_default, .-zmk_keymap_layer_default
	.section	.text.zmk_keymap_layer_state,"ax",%progbits
	.align	1
	.global	zmk_keymap_layer_state
	.syntax unified
	.thumb
	.thumb_func
	.type	zmk_keymap_layer_state, %function
zmk_keymap_layer_state:
.LFB581:
	.loc 1 171 56 is_stmt 1 view -0
	.cfi_startproc
	@ args = 0, pretend = 0, frame = 0
	@ frame_needed = 0, uses_anonymous_args = 0
	@ link register save eliminated.
	.loc 1 171 58 view .LVU515
	.loc 1 171 90 is_stmt 0 view .LVU516
	ldr	r3, .L10
	ldr	r0, [r3]
	bx	lr
.L11:
	.align	2
.L10:
	.word	_zmk_keymap_layer_state
	.cfi_endproc
.LFE581:
	.size	zmk_keymap_layer_state, .-zmk_keymap_layer_state
	.section	.text.zmk_keymap_layer_active_with_state,"ax",%progbits
	.align	1
	.global	zmk_keymap_layer_active_with_state
	.syntax unified
	.thumb
	.thumb_func
	.type	zmk_keymap_layer_active_with_state, %function
zmk_keymap_layer_active_with_state:
.LVL24:
.LFB582:
	.loc 1 174 82 is_stmt 1 view -0
	.cfi_startproc
	@ args = 0, pretend = 0, frame = 0
	@ frame_needed = 0, uses_anonymous_args = 0
	@ link register save eliminated.
	.loc 1 177 5 view .LVU518
	.loc 1 174 82 is_stmt 0 view .LVU519
	mov	r3, r0
	.loc 1 177 35 view .LVU520
	movs	r0, #1
.LVL25:
	.loc 1 177 35 view .LVU521
	lsl	r2, r0, r3
	.loc 1 177 71 view .LVU522
	bics	r2, r2, r1
	itt	ne
	clzne	r0, r3
	lsrne	r0, r0, #5
	.loc 1 178 1 view .LVU523
	bx	lr
	.cfi_endproc
.LFE582:
	.size	zmk_keymap_layer_active_with_state, .-zmk_keymap_layer_active_with_state
	.section	.text.zmk_keymap_layer_active,"ax",%progbits
	.align	1
	.global	zmk_keymap_layer_active
	.syntax unified
	.thumb
	.thumb_func
	.type	zmk_keymap_layer_active, %function
zmk_keymap_layer_active:
.LVL26:
.LFB583:
	.loc 1 180 58 is_stmt 1 view -0
	.cfi_startproc
	@ args = 0, pretend = 0, frame = 0
	@ frame_needed = 0, uses_anonymous_args = 0
	@ link register save eliminated.
	.loc 1 181 5 view .LVU525
	.loc 1 181 12 is_stmt 0 view .LVU526
	ldr	r3, .L16
	ldr	r1, [r3]
	b	zmk_keymap_layer_active_with_state
.LVL27:
.L17:
	.loc 1 181 12 view .LVU527
	.align	2
.L16:
	.word	_zmk_keymap_layer_state
	.cfi_endproc
.LFE583:
	.size	zmk_keymap_layer_active, .-zmk_keymap_layer_active
	.section	.text.zmk_keymap_highest_layer_active,"ax",%progbits
	.align	1
	.global	zmk_keymap_highest_layer_active
	.syntax unified
	.thumb
	.thumb_func
	.type	zmk_keymap_highest_layer_active, %function
zmk_keymap_highest_layer_active:
.LFB584:
	.loc 1 184 64 is_stmt 1 view -0
	.cfi_startproc
	@ args = 0, pretend = 0, frame = 0
	@ frame_needed = 0, uses_anonymous_args = 0
	@ link register save eliminated.
	.loc 1 185 5 view .LVU529
	.loc 1 185 10 view .LVU530
.LVL28:
	.loc 1 186 20 view .LVU531
	.loc 1 187 9 view .LVU532
	.loc 1 189 9 view .LVU533
	.loc 1 192 9 view .LVU534
	.loc 1 198 1 is_stmt 0 view .LVU535
	movs	r0, #0
	bx	lr
	.cfi_endproc
.LFE584:
	.size	zmk_keymap_highest_layer_active, .-zmk_keymap_highest_layer_active
	.section	.text.zmk_keymap_layer_activate,"ax",%progbits
	.align	1
	.global	zmk_keymap_layer_activate
	.syntax unified
	.thumb
	.thumb_func
	.type	zmk_keymap_layer_activate, %function
zmk_keymap_layer_activate:
.LVL29:
.LFB585:
	.loc 1 200 60 is_stmt 1 view -0
	.cfi_startproc
	@ args = 0, pretend = 0, frame = 0
	@ frame_needed = 0, uses_anonymous_args = 0
	@ link register save eliminated.
	.loc 1 200 62 view .LVU537
.LBB743:
.LBI743:
	.loc 1 138 19 view .LVU538
.LBB744:
	.loc 1 139 5 view .LVU539
	.loc 1 140 5 view .LVU540
	.loc 1 140 8 is_stmt 0 view .LVU541
	cbnz	r0, .L21
	.loc 1 145 5 is_stmt 1 view .LVU542
	.loc 1 149 5 view .LVU543
	.loc 1 149 31 is_stmt 0 view .LVU544
	ldr	r1, .L23
	ldr	r2, [r1]
.LVL30:
	.loc 1 150 5 is_stmt 1 view .LVU545
	.loc 1 150 94 is_stmt 0 view .LVU546
	orr	r3, r2, #1
	.loc 1 152 8 view .LVU547
	cmp	r2, r3
	.loc 1 150 32 view .LVU548
	str	r3, [r1]
	.loc 1 152 5 is_stmt 1 view .LVU549
	.loc 1 152 8 is_stmt 0 view .LVU550
	beq	.L19
	movs	r0, #1
.LVL31:
	.loc 1 152 8 view .LVU551
	b	set_layer_state.part.0
.LVL32:
.L21:
	.loc 1 141 16 view .LVU552
	mvn	r0, #21
.LVL33:
.L19:
	.loc 1 141 16 view .LVU553
.LBE744:
.LBE743:
	.loc 1 200 98 view .LVU554
	bx	lr
.L24:
	.align	2
.L23:
	.word	_zmk_keymap_layer_state
	.cfi_endproc
.LFE585:
	.size	zmk_keymap_layer_activate, .-zmk_keymap_layer_activate
	.section	.text.zmk_keymap_layer_deactivate,"ax",%progbits
	.align	1
	.global	zmk_keymap_layer_deactivate
	.syntax unified
	.thumb
	.thumb_func
	.type	zmk_keymap_layer_deactivate, %function
zmk_keymap_layer_deactivate:
.LVL34:
.LFB586:
	.loc 1 202 62 is_stmt 1 view -0
	.cfi_startproc
	@ args = 0, pretend = 0, frame = 0
	@ frame_needed = 0, uses_anonymous_args = 0
	@ link register save eliminated.
	.loc 1 203 5 view .LVU556
.LBB755:
.LBI755:
	.loc 1 138 19 view .LVU557
.LBB756:
	.loc 1 139 5 view .LVU558
	.loc 1 140 5 view .LVU559
	.loc 1 141 16 is_stmt 0 view .LVU560
	cmp	r0, #0
.LBE756:
.LBE755:
	.loc 1 204 1 view .LVU561
	ite	ne
	mvnne	r0, #21
.LVL35:
	.loc 1 204 1 view .LVU562
	moveq	r0, #0
	bx	lr
	.cfi_endproc
.LFE586:
	.size	zmk_keymap_layer_deactivate, .-zmk_keymap_layer_deactivate
	.section	.text.zmk_keymap_layer_toggle,"ax",%progbits
	.align	1
	.global	zmk_keymap_layer_toggle
	.syntax unified
	.thumb
	.thumb_func
	.type	zmk_keymap_layer_toggle, %function
zmk_keymap_layer_toggle:
.LVL36:
.LFB587:
	.loc 1 206 58 is_stmt 1 view -0
	.cfi_startproc
	@ args = 0, pretend = 0, frame = 0
	@ frame_needed = 0, uses_anonymous_args = 0
	.loc 1 207 5 view .LVU564
	.loc 1 206 58 is_stmt 0 view .LVU565
	push	{r4, lr}
	.cfi_def_cfa_offset 8
	.cfi_offset 4, -8
	.cfi_offset 14, -4
	.loc 1 206 58 view .LVU566
	mov	r4, r0
	.loc 1 207 9 view .LVU567
	bl	zmk_keymap_layer_active
.LVL37:
	.loc 1 207 8 view .LVU568
	cbz	r0, .L29
	.loc 1 208 9 is_stmt 1 view .LVU569
	.loc 1 208 16 is_stmt 0 view .LVU570
	mov	r0, r4
	.loc 1 212 1 view .LVU571
	pop	{r4, lr}
	.cfi_remember_state
	.cfi_restore 14
	.cfi_restore 4
	.cfi_def_cfa_offset 0
	.loc 1 208 16 view .LVU572
	b	zmk_keymap_layer_deactivate
.LVL38:
.L29:
	.cfi_restore_state
	.loc 1 211 5 is_stmt 1 view .LVU573
	.loc 1 211 12 is_stmt 0 view .LVU574
	mov	r0, r4
	.loc 1 212 1 view .LVU575
	pop	{r4, lr}
	.cfi_restore 14
	.cfi_restore 4
	.cfi_def_cfa_offset 0
	.loc 1 211 12 view .LVU576
	b	zmk_keymap_layer_activate
.LVL39:
	.cfi_endproc
.LFE587:
	.size	zmk_keymap_layer_toggle, .-zmk_keymap_layer_toggle
	.section	.text.zmk_keymap_layer_to,"ax",%progbits
	.align	1
	.global	zmk_keymap_layer_to
	.syntax unified
	.thumb
	.thumb_func
	.type	zmk_keymap_layer_to, %function
zmk_keymap_layer_to:
.LVL40:
.LFB588:
	.loc 1 214 54 is_stmt 1 view -0
	.cfi_startproc
	@ args = 0, pretend = 0, frame = 0
	@ frame_needed = 0, uses_anonymous_args = 0
	.loc 1 215 5 view .LVU578
	.loc 1 215 10 view .LVU579
	.loc 1 215 33 view .LVU580
	.loc 1 216 9 view .LVU581
	.loc 1 215 40 view .LVU582
	.loc 1 215 33 view .LVU583
	.loc 1 219 5 view .LVU584
	.loc 1 214 54 is_stmt 0 view .LVU585
	push	{r3, lr}
	.cfi_def_cfa_offset 8
	.cfi_offset 3, -8
	.cfi_offset 14, -4
	.loc 1 219 5 view .LVU586
	bl	zmk_keymap_layer_activate
.LVL41:
	.loc 1 221 5 is_stmt 1 view .LVU587
	.loc 1 222 1 is_stmt 0 view .LVU588
	movs	r0, #0
	pop	{r3, pc}
	.cfi_endproc
.LFE588:
	.size	zmk_keymap_layer_to, .-zmk_keymap_layer_to
	.section	.rodata.zmk_keymap_layer_name.str1.1,"aMS",%progbits,1
.LC2:
	.ascii	"\000"
	.section	.text.zmk_keymap_layer_name,"ax",%progbits
	.align	1
	.global	zmk_keymap_layer_name
	.syntax unified
	.thumb
	.thumb_func
	.type	zmk_keymap_layer_name, %function
zmk_keymap_layer_name:
.LVL42:
.LFB589:
	.loc 1 224 67 is_stmt 1 view -0
	.cfi_startproc
	@ args = 0, pretend = 0, frame = 0
	@ frame_needed = 0, uses_anonymous_args = 0
	@ link register save eliminated.
	.loc 1 225 5 view .LVU590
	.loc 1 225 41 is_stmt 0 view .LVU591
	cmp	r0, #0
	.loc 1 228 1 view .LVU592
	ldr	r0, .L34
.LVL43:
	.loc 1 228 1 view .LVU593
	it	ne
	movne	r0, #0
	bx	lr
.L35:
	.align	2
.L34:
	.word	.LC2
	.cfi_endproc
.LFE589:
	.size	zmk_keymap_layer_name, .-zmk_keymap_layer_name
	.section	.rodata.zmk_keymap_get_layer_binding_at_idx.str1.1,"aMS",%progbits,1
.LC3:
	.ascii	"Failed to get the position map, can't find the righ"
	.ascii	"t binding to return (%d)\000"
.LC4:
	.ascii	"Can't return binding for unmapped binding index %d\000"
.LC5:
	.ascii	"Binding index %d mapped to an invalid key position "
	.ascii	"%d\000"
	.section	.text.zmk_keymap_get_layer_binding_at_idx,"ax",%progbits
	.align	1
	.global	zmk_keymap_get_layer_binding_at_idx
	.syntax unified
	.thumb
	.thumb_func
	.type	zmk_keymap_get_layer_binding_at_idx, %function
zmk_keymap_get_layer_binding_at_idx:
.LVL44:
.LFB590:
	.loc 1 231 90 is_stmt 1 view -0
	.cfi_startproc
	@ args = 0, pretend = 0, frame = 8
	@ frame_needed = 1, uses_anonymous_args = 0
	.loc 1 232 5 view .LVU595
	.loc 1 231 90 is_stmt 0 view .LVU596
	push	{r4, r5, r6, r7, lr}
	.cfi_def_cfa_offset 20
	.cfi_offset 4, -20
	.cfi_offset 5, -16
	.cfi_offset 6, -12
	.cfi_offset 7, -8
	.cfi_offset 14, -4
.LBB790:
	.loc 1 232 8 view .LVU597
	cmp	r1, #23
.LBE790:
	.loc 1 231 90 view .LVU598
	sub	sp, sp, #12
	.cfi_def_cfa_offset 32
	mov	r5, r0
	add	r7, sp, #0
	.cfi_def_cfa_register 7
	.loc 1 231 90 view .LVU599
	mov	r4, r1
.LBB791:
	.loc 1 232 8 view .LVU600
	bhi	.L37
.LBE791:
	.loc 1 236 5 is_stmt 1 view .LVU601
	.loc 1 236 8 is_stmt 0 view .LVU602
	cbnz	r0, .L37
	.loc 1 238 5 is_stmt 1 view .LVU603
	.loc 1 239 5 view .LVU604
	.loc 1 239 15 is_stmt 0 view .LVU605
	adds	r0, r7, #4
.LVL45:
	.loc 1 239 15 view .LVU606
	bl	zmk_physical_layouts_get_selected_to_stock_position_map
.LVL46:
	.loc 1 240 5 is_stmt 1 view .LVU607
	.loc 1 240 8 is_stmt 0 view .LVU608
	cmp	r0, #0
	.loc 1 240 8 view .LVU609
	bge	.L38
	.loc 1 241 9 is_stmt 1 view .LVU610
.LBB792:
	.loc 1 241 14 view .LVU611
	.loc 1 241 63 view .LVU612
	.loc 1 241 20 view .LVU613
	.loc 1 241 8 view .LVU614
.LVL47:
	.loc 1 241 47 view .LVU615
	.loc 1 241 182 view .LVU616
	.loc 1 241 193 view .LVU617
	.loc 1 241 281 view .LVU618
.LBB793:
	.loc 1 241 9 view .LVU619
	.loc 1 241 11 view .LVU620
	.loc 1 241 9 view .LVU621
.LBB794:
	.loc 1 241 14 view .LVU622
	.loc 1 241 8 view .LVU623
.LBE794:
.LBE793:
.LBE792:
	.loc 1 241 9 view .LVU624
	.loc 1 241 18 view .LVU625
	.loc 1 241 113 view .LVU626
	.loc 1 241 9 view .LVU627
.LBB811:
.LBB808:
.LBB805:
	.loc 1 241 18 view .LVU628
	.loc 1 241 108 view .LVU629
	.loc 1 241 110 view .LVU630
.LBB795:
	.loc 1 241 113 is_stmt 0 view .LVU631
	mov	r4, sp
	.loc 1 241 115 is_stmt 1 view .LVU632
	.loc 1 241 126 view .LVU633
.LVL48:
	.loc 1 241 215 view .LVU634
	.loc 1 241 32 view .LVU635
.LBE795:
.LBE805:
.LBE808:
.LBE811:
	.loc 1 241 9 view .LVU636
	.loc 1 241 374 view .LVU637
	.loc 1 241 81 view .LVU638
	.loc 1 241 8 view .LVU639
	.loc 1 241 8 view .LVU640
	.loc 1 241 8 view .LVU641
	.loc 1 241 44 view .LVU642
	.loc 1 241 10 view .LVU643
	.loc 1 241 36 view .LVU644
	.loc 1 241 62 view .LVU645
	.loc 1 241 529 view .LVU646
	.loc 1 241 591 view .LVU647
	.loc 1 241 1112 view .LVU648
	.loc 1 241 1177 view .LVU649
	.loc 1 241 1202 view .LVU650
	.loc 1 241 1203 view .LVU651
	.loc 1 241 1205 view .LVU652
	.loc 1 241 1235 view .LVU653
	.loc 1 241 1265 view .LVU654
	.loc 1 241 1297 view .LVU655
	.loc 1 241 1329 view .LVU656
	.loc 1 241 1361 view .LVU657
	.loc 1 241 1558 view .LVU658
	.loc 1 241 1582 view .LVU659
	.loc 1 241 1583 view .LVU660
	.loc 1 241 1585 view .LVU661
	.loc 1 241 1614 view .LVU662
	.loc 1 241 1643 view .LVU663
	.loc 1 241 1674 view .LVU664
	.loc 1 241 1705 view .LVU665
	.loc 1 241 1736 view .LVU666
	.loc 1 241 1943 view .LVU667
	.loc 1 241 10 view .LVU668
	.loc 1 241 28 view .LVU669
	.loc 1 241 48 view .LVU670
	.loc 1 241 10 view .LVU671
	.loc 1 241 48 view .LVU672
	.loc 1 241 19 view .LVU673
	.loc 1 241 19 view .LVU674
	.loc 1 241 67 view .LVU675
	.loc 1 241 98 view .LVU676
	.loc 1 241 132 view .LVU677
	.loc 1 241 137 view .LVU678
	.loc 1 241 436 view .LVU679
	.loc 1 241 1685 view .LVU680
	.loc 1 241 1750 view .LVU681
	.loc 1 241 1774 view .LVU682
	.loc 1 241 1877 view .LVU683
	.loc 1 241 1888 view .LVU684
	.loc 1 241 2049 view .LVU685
	.loc 1 241 2065 view .LVU686
	.loc 1 241 2105 view .LVU687
	.loc 1 241 2130 view .LVU688
	.loc 1 241 3517 view .LVU689
	.loc 1 241 3558 view .LVU690
	.loc 1 241 13 view .LVU691
	.loc 1 241 36 view .LVU692
	.loc 1 241 135 view .LVU693
	.loc 1 241 12 view .LVU694
	.loc 1 241 17 view .LVU695
	.loc 1 241 242 view .LVU696
	.loc 1 241 1195 view .LVU697
	.loc 1 241 1260 view .LVU698
	.loc 1 241 1284 view .LVU699
	.loc 1 241 1313 view .LVU700
	.loc 1 241 1324 view .LVU701
	.loc 1 241 1411 view .LVU702
	.loc 1 241 1427 view .LVU703
	.loc 1 241 1467 view .LVU704
	.loc 1 241 2731 view .LVU705
	.loc 1 241 2772 view .LVU706
	.loc 1 241 13 view .LVU707
	.loc 1 241 36 view .LVU708
	.loc 1 241 15 view .LVU709
	.loc 1 241 11 view .LVU710
	.loc 1 241 34 view .LVU711
	.loc 1 241 58 view .LVU712
	.loc 1 241 86 view .LVU713
	.loc 1 241 262 view .LVU714
	.loc 1 241 22 view .LVU715
.LBB812:
.LBB809:
.LBB806:
.LBB803:
	.loc 1 241 35 view .LVU716
	.loc 1 241 9 view .LVU717
	.loc 1 241 9 view .LVU718
	.loc 1 241 76 view .LVU719
	.loc 1 241 88 is_stmt 0 view .LVU720
	sub	sp, sp, #32
	mov	r2, sp
.LVL49:
	.loc 1 241 80 is_stmt 1 view .LVU721
	.loc 1 241 490 view .LVU722
	.loc 1 241 11 view .LVU723
	.loc 1 241 13 view .LVU724
	.loc 1 241 18 view .LVU725
	.loc 1 241 16 view .LVU726
	.loc 1 241 11 view .LVU727
	.loc 1 241 29 view .LVU728
.LBB796:
	.loc 1 241 9 view .LVU729
	.loc 1 241 374 view .LVU730
	.loc 1 241 81 view .LVU731
.LVL50:
	.loc 1 241 8 view .LVU732
	.loc 1 241 8 view .LVU733
	.loc 1 241 8 view .LVU734
	.loc 1 241 44 view .LVU735
	.loc 1 241 73 view .LVU736
	.loc 1 241 99 view .LVU737
	.loc 1 241 125 view .LVU738
	.loc 1 241 592 view .LVU739
	.loc 1 241 654 view .LVU740
	.loc 1 241 1175 view .LVU741
	.loc 1 241 1240 view .LVU742
	.loc 1 241 1265 view .LVU743
	.loc 1 241 1266 view .LVU744
	.loc 1 241 1268 view .LVU745
	.loc 1 241 1298 view .LVU746
	.loc 1 241 1328 view .LVU747
	.loc 1 241 1360 view .LVU748
	.loc 1 241 1392 view .LVU749
	.loc 1 241 1424 view .LVU750
	.loc 1 241 1621 view .LVU751
	.loc 1 241 1645 view .LVU752
	.loc 1 241 1646 view .LVU753
	.loc 1 241 1648 view .LVU754
	.loc 1 241 1677 view .LVU755
	.loc 1 241 1706 view .LVU756
	.loc 1 241 1737 view .LVU757
	.loc 1 241 1768 view .LVU758
	.loc 1 241 1799 view .LVU759
	.loc 1 241 2006 view .LVU760
.LBB797:
	.loc 1 241 3555 view .LVU761
	.loc 1 241 3560 view .LVU762
	.loc 1 241 0 view .LVU763
	ldr	r3, .L43
.LBE797:
.LBB798:
	.loc 1 241 3817 is_stmt 0 view .LVU764
	strd	r3, r0, [r2, #20]
	.loc 1 241 2772 is_stmt 1 view .LVU765
	.loc 1 241 13 view .LVU766
.LVL51:
	.loc 1 241 36 view .LVU767
	.loc 1 241 36 is_stmt 0 view .LVU768
.LBE798:
	.loc 1 241 15 is_stmt 1 view .LVU769
	.loc 1 241 11 view .LVU770
	.loc 1 241 34 view .LVU771
	.loc 1 241 58 view .LVU772
	.loc 1 241 86 view .LVU773
.LBE796:
.LBE803:
.LBE806:
.LBE809:
.LBE812:
	.loc 1 241 12 view .LVU774
	.loc 1 241 51 view .LVU775
	.loc 1 241 56 view .LVU776
	.loc 1 241 86 view .LVU777
	.loc 1 241 153 view .LVU778
	.loc 1 241 158 view .LVU779
	.loc 1 241 188 view .LVU780
.LBB813:
.LBB810:
.LBB807:
.LBB804:
.LBB800:
	.loc 1 241 262 view .LVU781
	.loc 1 241 22 view .LVU782
.LBB799:
	.loc 1 241 12 view .LVU783
	.loc 1 241 170 view .LVU784
	.loc 1 241 172 view .LVU785
	.loc 1 241 182 is_stmt 0 view .LVU786
	movs	r3, #3
	str	r3, [r2, #16]!
.LVL52:
	.loc 1 241 182 view .LVU787
.LBE799:
.LBE800:
	.loc 1 241 32 is_stmt 1 view .LVU788
	.loc 1 241 13 view .LVU789
	.loc 1 241 153 view .LVU790
	.loc 1 241 155 view .LVU791
.LBB801:
.LBI801:
	.loc 2 26 20 view .LVU792
.LBB802:
	.loc 2 38 2 view .LVU793
	.loc 2 38 7 view .LVU794
	.loc 2 38 5 view .LVU795
	.loc 2 39 2 view .LVU796
	ldr	r0, .L43+4
.LVL53:
	.loc 2 39 2 is_stmt 0 view .LVU797
	mov	r3, r5
	mov	r1, #6272
	bl	z_impl_z_log_msg_static_create
.LVL54:
	.loc 2 39 2 view .LVU798
.LBE802:
.LBE801:
	mov	sp, r4
.LVL55:
	.loc 2 39 2 view .LVU799
.LBE804:
	.loc 1 241 113 is_stmt 1 view .LVU800
	.loc 1 241 11 view .LVU801
	.loc 1 241 48 view .LVU802
.LBE807:
	.loc 1 241 12 view .LVU803
.LBE810:
	.loc 1 241 284 view .LVU804
	.loc 1 241 11 view .LVU805
	.loc 1 241 24 view .LVU806
.LBE813:
	.loc 1 241 12 view .LVU807
	.loc 1 242 9 view .LVU808
.L37:
.LBB814:
	.loc 1 233 15 is_stmt 0 view .LVU809
	movs	r0, #0
.L36:
.LBE814:
	.loc 1 258 1 view .LVU810
	adds	r7, r7, #12
	.cfi_remember_state
	.cfi_def_cfa_offset 20
	mov	sp, r7
	.cfi_def_cfa_register 13
	@ sp needed
	pop	{r4, r5, r6, r7, pc}
.LVL56:
.L38:
	.cfi_restore_state
	.loc 1 245 5 is_stmt 1 view .LVU811
	.loc 1 245 8 is_stmt 0 view .LVU812
	cmp	r4, r0
	blt	.L40
	.loc 1 246 9 is_stmt 1 view .LVU813
.LBB815:
	.loc 1 246 14 view .LVU814
	.loc 1 246 63 view .LVU815
	.loc 1 246 20 view .LVU816
	.loc 1 246 8 view .LVU817
.LVL57:
	.loc 1 246 47 view .LVU818
	.loc 1 246 182 view .LVU819
	.loc 1 246 193 view .LVU820
	.loc 1 246 281 view .LVU821
.LBB816:
	.loc 1 246 9 view .LVU822
	.loc 1 246 11 view .LVU823
	.loc 1 246 9 view .LVU824
.LBB817:
	.loc 1 246 14 view .LVU825
	.loc 1 246 8 view .LVU826
.LBE817:
.LBE816:
.LBE815:
	.loc 1 246 9 view .LVU827
	.loc 1 246 18 view .LVU828
	.loc 1 246 113 view .LVU829
	.loc 1 246 9 view .LVU830
.LBB834:
.LBB831:
.LBB828:
	.loc 1 246 18 view .LVU831
	.loc 1 246 108 view .LVU832
	.loc 1 246 110 view .LVU833
.LBB818:
	.loc 1 246 113 is_stmt 0 view .LVU834
	mov	r6, sp
	.loc 1 246 115 is_stmt 1 view .LVU835
	.loc 1 246 126 view .LVU836
.LVL58:
	.loc 1 246 215 view .LVU837
	.loc 1 246 32 view .LVU838
.LBE818:
.LBE828:
.LBE831:
.LBE834:
	.loc 1 246 9 view .LVU839
	.loc 1 246 374 view .LVU840
	.loc 1 246 81 view .LVU841
	.loc 1 246 8 view .LVU842
	.loc 1 246 8 view .LVU843
	.loc 1 246 8 view .LVU844
	.loc 1 246 44 view .LVU845
	.loc 1 246 10 view .LVU846
	.loc 1 246 36 view .LVU847
	.loc 1 246 62 view .LVU848
	.loc 1 246 529 view .LVU849
	.loc 1 246 591 view .LVU850
	.loc 1 246 1112 view .LVU851
	.loc 1 246 1177 view .LVU852
	.loc 1 246 1202 view .LVU853
	.loc 1 246 1203 view .LVU854
	.loc 1 246 1205 view .LVU855
	.loc 1 246 1235 view .LVU856
	.loc 1 246 1265 view .LVU857
	.loc 1 246 1297 view .LVU858
	.loc 1 246 1329 view .LVU859
	.loc 1 246 1361 view .LVU860
	.loc 1 246 1558 view .LVU861
	.loc 1 246 1582 view .LVU862
	.loc 1 246 1583 view .LVU863
	.loc 1 246 1585 view .LVU864
	.loc 1 246 1614 view .LVU865
	.loc 1 246 1643 view .LVU866
	.loc 1 246 1674 view .LVU867
	.loc 1 246 1705 view .LVU868
	.loc 1 246 1736 view .LVU869
	.loc 1 246 1943 view .LVU870
	.loc 1 246 10 view .LVU871
	.loc 1 246 28 view .LVU872
	.loc 1 246 48 view .LVU873
	.loc 1 246 10 view .LVU874
	.loc 1 246 48 view .LVU875
	.loc 1 246 19 view .LVU876
	.loc 1 246 19 view .LVU877
	.loc 1 246 67 view .LVU878
	.loc 1 246 98 view .LVU879
	.loc 1 246 132 view .LVU880
	.loc 1 246 137 view .LVU881
	.loc 1 246 411 view .LVU882
	.loc 1 246 1560 view .LVU883
	.loc 1 246 1625 view .LVU884
	.loc 1 246 1649 view .LVU885
	.loc 1 246 1727 view .LVU886
	.loc 1 246 1738 view .LVU887
	.loc 1 246 1874 view .LVU888
	.loc 1 246 1890 view .LVU889
	.loc 1 246 1930 view .LVU890
	.loc 1 246 1955 view .LVU891
	.loc 1 246 3292 view .LVU892
	.loc 1 246 3333 view .LVU893
	.loc 1 246 13 view .LVU894
	.loc 1 246 36 view .LVU895
	.loc 1 246 135 view .LVU896
	.loc 1 246 12 view .LVU897
	.loc 1 246 17 view .LVU898
	.loc 1 246 242 view .LVU899
	.loc 1 246 1195 view .LVU900
	.loc 1 246 1260 view .LVU901
	.loc 1 246 1284 view .LVU902
	.loc 1 246 1313 view .LVU903
	.loc 1 246 1324 view .LVU904
	.loc 1 246 1411 view .LVU905
	.loc 1 246 1427 view .LVU906
	.loc 1 246 1467 view .LVU907
	.loc 1 246 2731 view .LVU908
	.loc 1 246 2772 view .LVU909
	.loc 1 246 13 view .LVU910
	.loc 1 246 36 view .LVU911
	.loc 1 246 15 view .LVU912
	.loc 1 246 11 view .LVU913
	.loc 1 246 34 view .LVU914
	.loc 1 246 58 view .LVU915
	.loc 1 246 86 view .LVU916
	.loc 1 246 262 view .LVU917
	.loc 1 246 22 view .LVU918
.LBB835:
.LBB832:
.LBB829:
.LBB826:
	.loc 1 246 35 view .LVU919
	.loc 1 246 9 view .LVU920
	.loc 1 246 9 view .LVU921
	.loc 1 246 76 view .LVU922
	.loc 1 246 88 is_stmt 0 view .LVU923
	sub	sp, sp, #32
	mov	r2, sp
.LVL59:
	.loc 1 246 80 is_stmt 1 view .LVU924
	.loc 1 246 490 view .LVU925
	.loc 1 246 11 view .LVU926
	.loc 1 246 13 view .LVU927
	.loc 1 246 18 view .LVU928
	.loc 1 246 16 view .LVU929
	.loc 1 246 11 view .LVU930
	.loc 1 246 29 view .LVU931
.LBB819:
	.loc 1 246 9 view .LVU932
	.loc 1 246 374 view .LVU933
	.loc 1 246 81 view .LVU934
.LVL60:
	.loc 1 246 8 view .LVU935
	.loc 1 246 8 view .LVU936
	.loc 1 246 8 view .LVU937
	.loc 1 246 44 view .LVU938
	.loc 1 246 73 view .LVU939
	.loc 1 246 99 view .LVU940
	.loc 1 246 125 view .LVU941
	.loc 1 246 592 view .LVU942
	.loc 1 246 654 view .LVU943
	.loc 1 246 1175 view .LVU944
	.loc 1 246 1240 view .LVU945
	.loc 1 246 1265 view .LVU946
	.loc 1 246 1266 view .LVU947
	.loc 1 246 1268 view .LVU948
	.loc 1 246 1298 view .LVU949
	.loc 1 246 1328 view .LVU950
	.loc 1 246 1360 view .LVU951
	.loc 1 246 1392 view .LVU952
	.loc 1 246 1424 view .LVU953
	.loc 1 246 1621 view .LVU954
	.loc 1 246 1645 view .LVU955
	.loc 1 246 1646 view .LVU956
	.loc 1 246 1648 view .LVU957
	.loc 1 246 1677 view .LVU958
	.loc 1 246 1706 view .LVU959
	.loc 1 246 1737 view .LVU960
	.loc 1 246 1768 view .LVU961
	.loc 1 246 1799 view .LVU962
	.loc 1 246 2006 view .LVU963
.LBB820:
	.loc 1 246 3330 view .LVU964
	.loc 1 246 3335 view .LVU965
	.loc 1 246 4073 view .LVU966
	.loc 1 246 0 is_stmt 0 view .LVU967
	ldr	r3, .L43+8
.LBE820:
.LBB821:
	.loc 1 246 3817 view .LVU968
	strd	r3, r4, [r2, #20]
	.loc 1 246 2772 is_stmt 1 view .LVU969
	.loc 1 246 13 view .LVU970
.LVL61:
	.loc 1 246 36 view .LVU971
	.loc 1 246 36 is_stmt 0 view .LVU972
.LBE821:
	.loc 1 246 15 is_stmt 1 view .LVU973
	.loc 1 246 11 view .LVU974
	.loc 1 246 34 view .LVU975
	.loc 1 246 58 view .LVU976
	.loc 1 246 86 view .LVU977
.LBE819:
.LBE826:
.LBE829:
.LBE832:
.LBE835:
	.loc 1 246 12 view .LVU978
	.loc 1 246 51 view .LVU979
	.loc 1 246 56 view .LVU980
	.loc 1 246 86 view .LVU981
	.loc 1 246 153 view .LVU982
	.loc 1 246 158 view .LVU983
	.loc 1 246 188 view .LVU984
.LBB836:
.LBB833:
.LBB830:
.LBB827:
.LBB823:
	.loc 1 246 262 view .LVU985
	.loc 1 246 22 view .LVU986
.LBB822:
	.loc 1 246 12 view .LVU987
	.loc 1 246 170 view .LVU988
	.loc 1 246 172 view .LVU989
	.loc 1 246 182 is_stmt 0 view .LVU990
	movs	r3, #3
	str	r3, [r2, #16]!
.LVL62:
	.loc 1 246 182 view .LVU991
.LBE822:
.LBE823:
	.loc 1 246 32 is_stmt 1 view .LVU992
	.loc 1 246 13 view .LVU993
	.loc 1 246 153 view .LVU994
	.loc 1 246 155 view .LVU995
.LBB824:
.LBI824:
	.loc 2 26 20 view .LVU996
.LBB825:
	.loc 2 38 2 view .LVU997
	.loc 2 38 7 view .LVU998
	.loc 2 38 5 view .LVU999
	.loc 2 39 2 view .LVU1000
	mov	r1, #6272
	mov	r3, r5
.LVL63:
.L42:
	.loc 2 39 2 is_stmt 0 view .LVU1001
.LBE825:
.LBE824:
.LBE827:
.LBE830:
.LBE833:
.LBE836:
.LBB837:
.LBB838:
.LBB839:
.LBB840:
.LBB841:
.LBB842:
.LBB843:
	ldr	r0, .L43+4
.LVL64:
	.loc 2 39 2 view .LVU1002
	bl	z_impl_z_log_msg_static_create
.LVL65:
.LBE843:
.LBE842:
	mov	sp, r6
.LBE841:
	.loc 1 253 113 is_stmt 1 view .LVU1003
	.loc 1 253 11 view .LVU1004
.LVL66:
	.loc 1 253 48 view .LVU1005
.LBE840:
	.loc 1 253 12 view .LVU1006
.LBE839:
	.loc 1 253 284 view .LVU1007
	.loc 1 253 11 view .LVU1008
	.loc 1 253 24 view .LVU1009
.LBE838:
	.loc 1 253 12 view .LVU1010
	.loc 1 254 9 view .LVU1011
	.loc 1 254 15 is_stmt 0 view .LVU1012
	b	.L37
.LVL67:
.L40:
	.loc 1 254 15 view .LVU1013
.LBE837:
	.loc 1 250 5 is_stmt 1 view .LVU1014
	.loc 1 250 14 is_stmt 0 view .LVU1015
	ldr	r3, [r7, #4]
	ldr	r3, [r3, r4, lsl #2]
.LVL68:
	.loc 1 252 5 is_stmt 1 view .LVU1016
.LBB875:
	.loc 1 252 8 is_stmt 0 view .LVU1017
	cmp	r3, #23
	bls	.L41
	.loc 1 253 9 is_stmt 1 view .LVU1018
.LBB870:
	.loc 1 253 14 view .LVU1019
	.loc 1 253 63 view .LVU1020
	.loc 1 253 20 view .LVU1021
	.loc 1 253 8 view .LVU1022
.LVL69:
	.loc 1 253 47 view .LVU1023
	.loc 1 253 182 view .LVU1024
	.loc 1 253 193 view .LVU1025
	.loc 1 253 281 view .LVU1026
.LBB865:
	.loc 1 253 9 view .LVU1027
	.loc 1 253 11 view .LVU1028
	.loc 1 253 49 view .LVU1029
	.loc 1 253 9 view .LVU1030
.LBB860:
	.loc 1 253 14 view .LVU1031
	.loc 1 253 8 view .LVU1032
.LBE860:
.LBE865:
.LBE870:
.LBE875:
	.loc 1 253 9 view .LVU1033
	.loc 1 253 18 view .LVU1034
	.loc 1 253 113 view .LVU1035
	.loc 1 253 9 view .LVU1036
.LBB876:
.LBB871:
.LBB866:
.LBB861:
	.loc 1 253 18 view .LVU1037
	.loc 1 253 108 view .LVU1038
	.loc 1 253 110 view .LVU1039
.LBB856:
	.loc 1 253 113 is_stmt 0 view .LVU1040
	mov	r6, sp
	.loc 1 253 115 is_stmt 1 view .LVU1041
	.loc 1 253 126 view .LVU1042
.LVL70:
	.loc 1 253 215 view .LVU1043
	.loc 1 253 32 view .LVU1044
.LBE856:
.LBE861:
.LBE866:
.LBE871:
.LBE876:
	.loc 1 253 9 view .LVU1045
	.loc 1 253 374 view .LVU1046
	.loc 1 253 81 view .LVU1047
	.loc 1 253 8 view .LVU1048
	.loc 1 253 8 view .LVU1049
	.loc 1 253 8 view .LVU1050
	.loc 1 253 44 view .LVU1051
	.loc 1 253 10 view .LVU1052
	.loc 1 253 36 view .LVU1053
	.loc 1 253 62 view .LVU1054
	.loc 1 253 975 view .LVU1055
	.loc 1 253 1037 view .LVU1056
	.loc 1 253 2024 view .LVU1057
	.loc 1 253 2089 view .LVU1058
	.loc 1 253 2114 view .LVU1059
	.loc 1 253 2115 view .LVU1060
	.loc 1 253 2117 view .LVU1061
	.loc 1 253 2147 view .LVU1062
	.loc 1 253 2177 view .LVU1063
	.loc 1 253 2209 view .LVU1064
	.loc 1 253 2241 view .LVU1065
	.loc 1 253 2273 view .LVU1066
	.loc 1 253 2470 view .LVU1067
	.loc 1 253 2494 view .LVU1068
	.loc 1 253 2495 view .LVU1069
	.loc 1 253 2497 view .LVU1070
	.loc 1 253 2526 view .LVU1071
	.loc 1 253 2555 view .LVU1072
	.loc 1 253 2586 view .LVU1073
	.loc 1 253 2617 view .LVU1074
	.loc 1 253 2648 view .LVU1075
	.loc 1 253 2855 view .LVU1076
	.loc 1 253 10 view .LVU1077
	.loc 1 253 28 view .LVU1078
	.loc 1 253 48 view .LVU1079
	.loc 1 253 10 view .LVU1080
	.loc 1 253 48 view .LVU1081
	.loc 1 253 19 view .LVU1082
	.loc 1 253 19 view .LVU1083
	.loc 1 253 67 view .LVU1084
	.loc 1 253 98 view .LVU1085
	.loc 1 253 132 view .LVU1086
	.loc 1 253 137 view .LVU1087
	.loc 1 253 414 view .LVU1088
	.loc 1 253 1575 view .LVU1089
	.loc 1 253 1640 view .LVU1090
	.loc 1 253 1664 view .LVU1091
	.loc 1 253 1745 view .LVU1092
	.loc 1 253 1756 view .LVU1093
	.loc 1 253 1895 view .LVU1094
	.loc 1 253 1911 view .LVU1095
	.loc 1 253 1951 view .LVU1096
	.loc 1 253 1976 view .LVU1097
	.loc 1 253 3319 view .LVU1098
	.loc 1 253 3360 view .LVU1099
	.loc 1 253 13 view .LVU1100
	.loc 1 253 36 view .LVU1101
	.loc 1 253 135 view .LVU1102
	.loc 1 253 12 view .LVU1103
	.loc 1 253 17 view .LVU1104
	.loc 1 253 242 view .LVU1105
	.loc 1 253 1195 view .LVU1106
	.loc 1 253 1260 view .LVU1107
	.loc 1 253 1284 view .LVU1108
	.loc 1 253 1313 view .LVU1109
	.loc 1 253 1324 view .LVU1110
	.loc 1 253 1411 view .LVU1111
	.loc 1 253 1427 view .LVU1112
	.loc 1 253 1467 view .LVU1113
	.loc 1 253 2731 view .LVU1114
	.loc 1 253 2772 view .LVU1115
	.loc 1 253 13 view .LVU1116
	.loc 1 253 36 view .LVU1117
	.loc 1 253 15 view .LVU1118
	.loc 1 253 12 view .LVU1119
	.loc 1 253 17 view .LVU1120
	.loc 1 253 242 view .LVU1121
	.loc 1 253 1195 view .LVU1122
	.loc 1 253 1260 view .LVU1123
	.loc 1 253 1284 view .LVU1124
	.loc 1 253 1313 view .LVU1125
	.loc 1 253 1324 view .LVU1126
	.loc 1 253 1411 view .LVU1127
	.loc 1 253 1427 view .LVU1128
	.loc 1 253 1467 view .LVU1129
	.loc 1 253 2731 view .LVU1130
	.loc 1 253 2772 view .LVU1131
	.loc 1 253 13 view .LVU1132
	.loc 1 253 36 view .LVU1133
	.loc 1 253 15 view .LVU1134
	.loc 1 253 11 view .LVU1135
	.loc 1 253 34 view .LVU1136
	.loc 1 253 58 view .LVU1137
	.loc 1 253 86 view .LVU1138
	.loc 1 253 262 view .LVU1139
	.loc 1 253 22 view .LVU1140
.LBB877:
.LBB872:
.LBB867:
.LBB862:
.LBB857:
	.loc 1 253 35 view .LVU1141
	.loc 1 253 9 view .LVU1142
	.loc 1 253 9 view .LVU1143
	.loc 1 253 76 view .LVU1144
	.loc 1 253 88 is_stmt 0 view .LVU1145
	sub	sp, sp, #32
	mov	r2, sp
.LVL71:
	.loc 1 253 80 is_stmt 1 view .LVU1146
	.loc 1 253 490 view .LVU1147
	.loc 1 253 11 view .LVU1148
	.loc 1 253 13 view .LVU1149
	.loc 1 253 18 view .LVU1150
	.loc 1 253 16 view .LVU1151
	.loc 1 253 11 view .LVU1152
	.loc 1 253 29 view .LVU1153
.LBB845:
	.loc 1 253 9 view .LVU1154
	.loc 1 253 374 view .LVU1155
	.loc 1 253 81 view .LVU1156
.LVL72:
	.loc 1 253 8 view .LVU1157
	.loc 1 253 8 view .LVU1158
	.loc 1 253 8 view .LVU1159
	.loc 1 253 44 view .LVU1160
	.loc 1 253 73 view .LVU1161
	.loc 1 253 99 view .LVU1162
	.loc 1 253 125 view .LVU1163
	.loc 1 253 1038 view .LVU1164
	.loc 1 253 1100 view .LVU1165
	.loc 1 253 2087 view .LVU1166
	.loc 1 253 2152 view .LVU1167
	.loc 1 253 2177 view .LVU1168
	.loc 1 253 2178 view .LVU1169
	.loc 1 253 2180 view .LVU1170
	.loc 1 253 2210 view .LVU1171
	.loc 1 253 2240 view .LVU1172
	.loc 1 253 2272 view .LVU1173
	.loc 1 253 2304 view .LVU1174
	.loc 1 253 2336 view .LVU1175
	.loc 1 253 2533 view .LVU1176
	.loc 1 253 2557 view .LVU1177
	.loc 1 253 2558 view .LVU1178
	.loc 1 253 2560 view .LVU1179
	.loc 1 253 2589 view .LVU1180
	.loc 1 253 2618 view .LVU1181
	.loc 1 253 2649 view .LVU1182
	.loc 1 253 2680 view .LVU1183
	.loc 1 253 2711 view .LVU1184
	.loc 1 253 2918 view .LVU1185
.LBB846:
	.loc 1 253 3357 view .LVU1186
	.loc 1 253 3362 view .LVU1187
	.loc 1 253 0 view .LVU1188
	ldr	r1, .L43+12
.LBE846:
.LBB847:
	.loc 1 253 3817 is_stmt 0 view .LVU1189
	str	r3, [r2, #28]
.LBE847:
.LBB848:
	.loc 1 253 182 view .LVU1190
	movs	r3, #4
.LVL73:
	.loc 1 253 182 view .LVU1191
.LBE848:
.LBB849:
	.loc 1 253 3817 view .LVU1192
	strd	r1, r4, [r2, #20]
	.loc 1 253 2772 is_stmt 1 view .LVU1193
	.loc 1 253 13 view .LVU1194
.LVL74:
	.loc 1 253 36 view .LVU1195
	.loc 1 253 36 is_stmt 0 view .LVU1196
.LBE849:
	.loc 1 253 15 is_stmt 1 view .LVU1197
	.loc 1 253 12 view .LVU1198
.LBB850:
	.loc 1 253 17 view .LVU1199
	.loc 1 253 242 view .LVU1200
	.loc 1 253 1195 view .LVU1201
	.loc 1 253 1260 view .LVU1202
.LBE850:
.LBE845:
.LBE857:
.LBE862:
.LBE867:
.LBE872:
.LBE877:
	.loc 1 253 1284 view .LVU1203
	.loc 1 253 1313 view .LVU1204
	.loc 1 253 1324 view .LVU1205
	.loc 1 253 1411 view .LVU1206
.LBB878:
.LBB873:
.LBB868:
.LBB863:
.LBB858:
.LBB853:
.LBB851:
	.loc 1 253 1427 view .LVU1207
	.loc 1 253 1467 view .LVU1208
	.loc 1 253 2731 view .LVU1209
	.loc 1 253 2769 view .LVU1210
	.loc 1 253 2774 view .LVU1211
	.loc 1 253 3218 view .LVU1212
	.loc 1 253 2772 view .LVU1213
	.loc 1 253 13 view .LVU1214
	.loc 1 253 36 view .LVU1215
	.loc 1 253 36 is_stmt 0 view .LVU1216
.LBE851:
	.loc 1 253 15 is_stmt 1 view .LVU1217
	.loc 1 253 11 view .LVU1218
	.loc 1 253 34 view .LVU1219
	.loc 1 253 58 view .LVU1220
	.loc 1 253 86 view .LVU1221
.LBE853:
.LBE858:
.LBE863:
.LBE868:
.LBE873:
.LBE878:
	.loc 1 253 12 view .LVU1222
	.loc 1 253 51 view .LVU1223
	.loc 1 253 56 view .LVU1224
	.loc 1 253 86 view .LVU1225
	.loc 1 253 153 view .LVU1226
	.loc 1 253 158 view .LVU1227
	.loc 1 253 188 view .LVU1228
.LBB879:
.LBB874:
.LBB869:
.LBB864:
.LBB859:
.LBB854:
	.loc 1 253 262 view .LVU1229
	.loc 1 253 22 view .LVU1230
.LBB852:
	.loc 1 253 12 view .LVU1231
	.loc 1 253 170 view .LVU1232
	.loc 1 253 172 view .LVU1233
	.loc 1 253 182 is_stmt 0 view .LVU1234
	str	r3, [r2, #16]!
.LVL75:
	.loc 1 253 182 view .LVU1235
.LBE852:
.LBE854:
	.loc 1 253 32 is_stmt 1 view .LVU1236
	.loc 1 253 13 view .LVU1237
	.loc 1 253 153 view .LVU1238
	.loc 1 253 155 view .LVU1239
.LBB855:
.LBI842:
	.loc 2 26 20 view .LVU1240
.LBB844:
	.loc 2 38 2 view .LVU1241
	.loc 2 38 7 view .LVU1242
	.loc 2 38 5 view .LVU1243
	.loc 2 39 2 view .LVU1244
	mov	r1, #8320
	mov	r3, r5
	b	.L42
.LVL76:
.L41:
	.loc 2 39 2 is_stmt 0 view .LVU1245
.LBE844:
.LBE855:
.LBE859:
.LBE864:
.LBE869:
.LBE874:
.LBE879:
	.loc 1 257 5 is_stmt 1 view .LVU1246
	.loc 1 257 12 is_stmt 0 view .LVU1247
	ldr	r0, .L43+16
.LVL77:
	.loc 1 257 12 view .LVU1248
	movs	r2, #12
	mla	r0, r2, r3, r0
	b	.L36
.L44:
	.align	2
.L43:
	.word	.LC3
	.word	log_const_zmk
	.word	.LC4
	.word	.LC5
	.word	zmk_keymap
	.cfi_endproc
.LFE590:
	.size	zmk_keymap_get_layer_binding_at_idx, .-zmk_keymap_get_layer_binding_at_idx
	.section	.text.zmk_keymap_set_layer_binding_at_idx,"ax",%progbits
	.align	1
	.global	zmk_keymap_set_layer_binding_at_idx
	.syntax unified
	.thumb
	.thumb_func
	.type	zmk_keymap_set_layer_binding_at_idx, %function
zmk_keymap_set_layer_binding_at_idx:
.LVL78:
.LFB591:
	.loc 1 312 78 is_stmt 1 view -0
	.cfi_startproc
	@ args = 12, pretend = 8, frame = 0
	@ frame_needed = 0, uses_anonymous_args = 0
	@ link register save eliminated.
	.loc 1 313 5 view .LVU1250
	.loc 1 312 78 is_stmt 0 view .LVU1251
	sub	sp, sp, #8
	.cfi_def_cfa_offset 8
	.loc 1 312 78 view .LVU1252
	stm	sp, {r2, r3}
	.loc 1 314 1 view .LVU1253
	mvn	r0, #133
.LVL79:
	.loc 1 314 1 view .LVU1254
	add	sp, sp, #8
	.cfi_def_cfa_offset 0
	bx	lr
	.cfi_endproc
.LFE591:
	.size	zmk_keymap_set_layer_binding_at_idx, .-zmk_keymap_set_layer_binding_at_idx
	.section	.text.zmk_keymap_move_layer,"ax",%progbits
	.align	1
	.global	zmk_keymap_move_layer
	.syntax unified
	.thumb
	.thumb_func
	.type	zmk_keymap_move_layer, %function
zmk_keymap_move_layer:
.LVL80:
.LFB592:
	.loc 1 431 90 is_stmt 1 view -0
	.cfi_startproc
	@ args = 0, pretend = 0, frame = 0
	@ frame_needed = 0, uses_anonymous_args = 0
	@ link register save eliminated.
	.loc 1 432 5 view .LVU1256
	.loc 1 433 1 is_stmt 0 view .LVU1257
	mvn	r0, #133
.LVL81:
	.loc 1 433 1 view .LVU1258
	bx	lr
	.cfi_endproc
.LFE592:
	.size	zmk_keymap_move_layer, .-zmk_keymap_move_layer
	.section	.text.zmk_keymap_add_layer,"ax",%progbits
	.align	1
	.global	zmk_keymap_add_layer
	.syntax unified
	.thumb
	.thumb_func
	.type	zmk_keymap_add_layer, %function
zmk_keymap_add_layer:
.LFB610:
	.cfi_startproc
	.loc 1 435 5 is_stmt 1 view -0
	@ args = 0, pretend = 0, frame = 0
	@ frame_needed = 0, uses_anonymous_args = 0
	@ link register save eliminated.
	mvn	r0, #133
	bx	lr
	.cfi_endproc
.LFE610:
	.size	zmk_keymap_add_layer, .-zmk_keymap_add_layer
	.section	.text.zmk_keymap_remove_layer,"ax",%progbits
	.align	1
	.global	zmk_keymap_remove_layer
	.syntax unified
	.thumb
	.thumb_func
	.type	zmk_keymap_remove_layer, %function
zmk_keymap_remove_layer:
.LVL82:
.LFB594:
	.loc 1 437 61 view -0
	.cfi_startproc
	@ args = 0, pretend = 0, frame = 0
	@ frame_needed = 0, uses_anonymous_args = 0
	@ link register save eliminated.
	.loc 1 437 63 view .LVU1261
	.loc 1 437 79 is_stmt 0 view .LVU1262
	mvn	r0, #133
.LVL83:
	.loc 1 437 79 view .LVU1263
	bx	lr
	.cfi_endproc
.LFE594:
	.size	zmk_keymap_remove_layer, .-zmk_keymap_remove_layer
	.section	.text.zmk_keymap_restore_layer,"ax",%progbits
	.align	1
	.global	zmk_keymap_restore_layer
	.syntax unified
	.thumb
	.thumb_func
	.type	zmk_keymap_restore_layer, %function
zmk_keymap_restore_layer:
.LFB612:
	.cfi_startproc
	.loc 1 439 5 is_stmt 1 view -0
	@ args = 0, pretend = 0, frame = 0
	@ frame_needed = 0, uses_anonymous_args = 0
	@ link register save eliminated.
	mvn	r0, #133
	bx	lr
	.cfi_endproc
.LFE612:
	.size	zmk_keymap_restore_layer, .-zmk_keymap_restore_layer
	.section	.text.zmk_keymap_set_layer_name,"ax",%progbits
	.align	1
	.global	zmk_keymap_set_layer_name
	.syntax unified
	.thumb
	.thumb_func
	.type	zmk_keymap_set_layer_name, %function
zmk_keymap_set_layer_name:
.LVL84:
.LFB596:
	.loc 1 443 88 view -0
	.cfi_startproc
	@ args = 0, pretend = 0, frame = 0
	@ frame_needed = 0, uses_anonymous_args = 0
	@ link register save eliminated.
	.loc 1 444 5 view .LVU1266
	.loc 1 445 1 is_stmt 0 view .LVU1267
	mvn	r0, #133
.LVL85:
	.loc 1 445 1 view .LVU1268
	bx	lr
	.cfi_endproc
.LFE596:
	.size	zmk_keymap_set_layer_name, .-zmk_keymap_set_layer_name
	.section	.text.zmk_keymap_save_changes,"ax",%progbits
	.align	1
	.global	zmk_keymap_save_changes
	.syntax unified
	.thumb
	.thumb_func
	.type	zmk_keymap_save_changes, %function
zmk_keymap_save_changes:
.LFB597:
	.loc 1 680 35 is_stmt 1 view -0
	.cfi_startproc
	@ args = 0, pretend = 0, frame = 0
	@ frame_needed = 0, uses_anonymous_args = 0
	@ link register save eliminated.
	.loc 1 680 37 view .LVU1270
	.loc 1 680 53 is_stmt 0 view .LVU1271
	mvn	r0, #133
	bx	lr
	.cfi_endproc
.LFE597:
	.size	zmk_keymap_save_changes, .-zmk_keymap_save_changes
	.section	.text.zmk_keymap_discard_changes,"ax",%progbits
	.align	1
	.global	zmk_keymap_discard_changes
	.syntax unified
	.thumb
	.thumb_func
	.type	zmk_keymap_discard_changes, %function
zmk_keymap_discard_changes:
.LFB606:
	.cfi_startproc
	.loc 1 682 5 is_stmt 1 view -0
	@ args = 0, pretend = 0, frame = 0
	@ frame_needed = 0, uses_anonymous_args = 0
	@ link register save eliminated.
	mvn	r0, #133
	bx	lr
	.cfi_endproc
.LFE606:
	.size	zmk_keymap_discard_changes, .-zmk_keymap_discard_changes
	.section	.text.zmk_keymap_reset_settings,"ax",%progbits
	.align	1
	.global	zmk_keymap_reset_settings
	.syntax unified
	.thumb
	.thumb_func
	.type	zmk_keymap_reset_settings, %function
zmk_keymap_reset_settings:
.LFB608:
	.cfi_startproc
	.loc 1 684 5 view -0
	@ args = 0, pretend = 0, frame = 0
	@ frame_needed = 0, uses_anonymous_args = 0
	@ link register save eliminated.
	mvn	r0, #133
	bx	lr
	.cfi_endproc
.LFE608:
	.size	zmk_keymap_reset_settings, .-zmk_keymap_reset_settings
	.section	.rodata.zmk_keymap_apply_position_state.str1.1,"aMS",%progbits,1
.LC6:
	.ascii	"%s: layer_id: %d position: %d, binding name: %s\000"
	.section	.text.zmk_keymap_apply_position_state,"ax",%progbits
	.align	1
	.global	zmk_keymap_apply_position_state
	.syntax unified
	.thumb
	.thumb_func
	.type	zmk_keymap_apply_position_state, %function
zmk_keymap_apply_position_state:
.LVL86:
.LFB600:
	.loc 1 689 88 view -0
	.cfi_startproc
	@ args = 8, pretend = 0, frame = 16
	@ frame_needed = 1, uses_anonymous_args = 0
	.loc 1 690 5 view .LVU1275
	.loc 1 689 88 is_stmt 0 view .LVU1276
	push	{r4, r5, r6, r7, r8, r9, lr}
	.cfi_def_cfa_offset 28
	.cfi_offset 4, -28
	.cfi_offset 5, -24
	.cfi_offset 6, -20
	.cfi_offset 7, -16
	.cfi_offset 8, -12
	.cfi_offset 9, -8
	.cfi_offset 14, -4
	mov	r5, r1
	sub	sp, sp, #36
	.cfi_def_cfa_offset 64
	.loc 1 691 9 view .LVU1277
	uxtb	r1, r2
.LVL87:
	.loc 1 689 88 view .LVU1278
	add	r7, sp, #16
	.cfi_def_cfa 7, 48
	.loc 1 691 9 view .LVU1279
	mov	r0, r5
.LVL88:
	.loc 1 689 88 view .LVU1280
	mov	r4, r2
	mov	r8, r3
	.loc 1 691 9 view .LVU1281
	bl	zmk_keymap_get_layer_binding_at_idx
.LVL89:
	.loc 1 692 39 view .LVU1282
	ldrd	r2, [r7, #48]
.LBB896:
.LBB897:
.LBB898:
.LBB899:
	.loc 1 701 109 view .LVU1283
	mov	r9, sp
	.loc 1 701 84 view .LVU1284
	sub	sp, sp, #48
.LBE899:
.LBE898:
.LBE897:
.LBE896:
	.loc 1 692 39 view .LVU1285
	strd	r2, [r7, #8]
	strd	r5, r4, [r7]
.LBB940:
.LBB933:
	.loc 1 701 138 view .LVU1286
	ldr	r3, [r0]
.LBE933:
.LBE940:
	.loc 1 691 9 view .LVU1287
	mov	r6, r0
.LVL90:
	.loc 1 692 5 is_stmt 1 view .LVU1288
	.loc 1 701 5 view .LVU1289
.LBB941:
	.loc 1 701 10 view .LVU1290
	.loc 1 701 59 view .LVU1291
	.loc 1 701 16 view .LVU1292
	.loc 1 701 4 view .LVU1293
	.loc 1 701 43 view .LVU1294
	.loc 1 701 178 view .LVU1295
	.loc 1 701 189 view .LVU1296
	.loc 1 701 277 view .LVU1297
.LBB934:
	.loc 1 701 5 view .LVU1298
	.loc 1 701 7 view .LVU1299
	.loc 1 701 56 view .LVU1300
	.loc 1 701 91 view .LVU1301
	.loc 1 701 126 view .LVU1302
	.loc 1 701 5 view .LVU1303
.LBB927:
	.loc 1 701 10 view .LVU1304
	.loc 1 701 4 view .LVU1305
.LBE927:
.LBE934:
.LBE941:
	.loc 1 701 5 view .LVU1306
	.loc 1 701 14 view .LVU1307
	.loc 1 701 109 view .LVU1308
	.loc 1 701 5 view .LVU1309
.LBB942:
.LBB935:
.LBB928:
	.loc 1 701 14 view .LVU1310
	.loc 1 701 104 view .LVU1311
	.loc 1 701 106 view .LVU1312
.LBB922:
	.loc 1 701 111 view .LVU1313
	.loc 1 701 122 view .LVU1314
	.loc 1 701 211 view .LVU1315
	.loc 1 701 28 view .LVU1316
.LBE922:
.LBE928:
.LBE935:
.LBE942:
	.loc 1 701 5 view .LVU1317
	.loc 1 701 370 view .LVU1318
	.loc 1 701 77 view .LVU1319
	.loc 1 701 4 view .LVU1320
	.loc 1 701 4 view .LVU1321
	.loc 1 701 4 view .LVU1322
	.loc 1 701 40 view .LVU1323
	.loc 1 701 6 view .LVU1324
	.loc 1 701 32 view .LVU1325
	.loc 1 701 58 view .LVU1326
	.loc 1 701 1863 view .LVU1327
	.loc 1 701 1925 view .LVU1328
	.loc 1 701 3844 view .LVU1329
	.loc 1 701 3909 view .LVU1330
	.loc 1 701 3934 view .LVU1331
	.loc 1 701 3935 view .LVU1332
	.loc 1 701 3937 view .LVU1333
	.loc 1 701 3967 view .LVU1334
	.loc 1 701 3997 view .LVU1335
	.loc 1 701 4029 view .LVU1336
	.loc 1 701 4061 view .LVU1337
	.loc 1 701 4093 view .LVU1338
	.loc 1 701 0 view .LVU1339
	.loc 1 701 0 view .LVU1340
	.loc 1 701 0 view .LVU1341
	.loc 1 701 0 view .LVU1342
	.loc 1 701 0 view .LVU1343
	.loc 1 701 0 view .LVU1344
	.loc 1 701 0 view .LVU1345
	.loc 1 701 0 view .LVU1346
	.loc 1 701 0 view .LVU1347
	.loc 1 701 0 view .LVU1348
	.loc 1 701 6 view .LVU1349
	.loc 1 701 24 view .LVU1350
	.loc 1 701 44 view .LVU1351
	.loc 1 701 6 view .LVU1352
	.loc 1 701 44 view .LVU1353
	.loc 1 701 15 view .LVU1354
	.loc 1 701 15 view .LVU1355
	.loc 1 701 63 view .LVU1356
	.loc 1 701 94 view .LVU1357
	.loc 1 701 128 view .LVU1358
	.loc 1 701 133 view .LVU1359
	.loc 1 701 407 view .LVU1360
	.loc 1 701 1556 view .LVU1361
	.loc 1 701 1621 view .LVU1362
	.loc 1 701 1645 view .LVU1363
	.loc 1 701 1723 view .LVU1364
	.loc 1 701 1734 view .LVU1365
	.loc 1 701 1870 view .LVU1366
	.loc 1 701 1886 view .LVU1367
	.loc 1 701 1926 view .LVU1368
	.loc 1 701 1951 view .LVU1369
	.loc 1 701 3288 view .LVU1370
	.loc 1 701 3329 view .LVU1371
	.loc 1 701 9 view .LVU1372
	.loc 1 701 32 view .LVU1373
	.loc 1 701 131 view .LVU1374
	.loc 1 701 8 view .LVU1375
	.loc 1 701 13 view .LVU1376
	.loc 1 701 238 view .LVU1377
	.loc 1 701 1191 view .LVU1378
	.loc 1 701 1256 view .LVU1379
	.loc 1 701 1280 view .LVU1380
	.loc 1 701 1309 view .LVU1381
	.loc 1 701 1320 view .LVU1382
	.loc 1 701 1407 view .LVU1383
	.loc 1 701 1423 view .LVU1384
	.loc 1 701 1463 view .LVU1385
	.loc 1 701 1488 view .LVU1386
	.loc 1 701 2727 view .LVU1387
	.loc 1 701 2768 view .LVU1388
	.loc 1 701 9 view .LVU1389
	.loc 1 701 32 view .LVU1390
	.loc 1 701 11 view .LVU1391
	.loc 1 701 8 view .LVU1392
	.loc 1 701 13 view .LVU1393
	.loc 1 701 238 view .LVU1394
	.loc 1 701 1191 view .LVU1395
	.loc 1 701 1256 view .LVU1396
	.loc 1 701 1280 view .LVU1397
	.loc 1 701 1309 view .LVU1398
	.loc 1 701 1320 view .LVU1399
	.loc 1 701 1407 view .LVU1400
	.loc 1 701 1423 view .LVU1401
	.loc 1 701 1463 view .LVU1402
	.loc 1 701 2727 view .LVU1403
	.loc 1 701 2768 view .LVU1404
	.loc 1 701 9 view .LVU1405
	.loc 1 701 32 view .LVU1406
	.loc 1 701 11 view .LVU1407
	.loc 1 701 8 view .LVU1408
	.loc 1 701 13 view .LVU1409
	.loc 1 701 238 view .LVU1410
	.loc 1 701 1191 view .LVU1411
	.loc 1 701 1256 view .LVU1412
	.loc 1 701 1280 view .LVU1413
	.loc 1 701 1309 view .LVU1414
	.loc 1 701 1320 view .LVU1415
	.loc 1 701 1407 view .LVU1416
	.loc 1 701 1423 view .LVU1417
	.loc 1 701 1463 view .LVU1418
	.loc 1 701 2727 view .LVU1419
	.loc 1 701 2768 view .LVU1420
	.loc 1 701 9 view .LVU1421
	.loc 1 701 32 view .LVU1422
	.loc 1 701 11 view .LVU1423
	.loc 1 701 8 view .LVU1424
	.loc 1 701 13 view .LVU1425
	.loc 1 701 238 view .LVU1426
	.loc 1 701 1191 view .LVU1427
	.loc 1 701 1256 view .LVU1428
	.loc 1 701 1280 view .LVU1429
	.loc 1 701 1309 view .LVU1430
	.loc 1 701 1320 view .LVU1431
	.loc 1 701 1407 view .LVU1432
	.loc 1 701 1423 view .LVU1433
	.loc 1 701 1463 view .LVU1434
	.loc 1 701 1553 view .LVU1435
	.loc 1 701 1956 view .LVU1436
	.loc 1 701 2613 view .LVU1437
	.loc 1 701 2632 view .LVU1438
	.loc 1 701 2669 view .LVU1439
	.loc 1 701 2727 view .LVU1440
	.loc 1 701 2768 view .LVU1441
	.loc 1 701 9 view .LVU1442
	.loc 1 701 32 view .LVU1443
	.loc 1 701 11 view .LVU1444
	.loc 1 701 7 view .LVU1445
	.loc 1 701 30 view .LVU1446
	.loc 1 701 54 view .LVU1447
	.loc 1 701 82 view .LVU1448
	.loc 1 701 258 view .LVU1449
	.loc 1 701 18 view .LVU1450
.LBB943:
.LBB936:
.LBB929:
.LBB923:
	.loc 1 701 31 view .LVU1451
	.loc 1 701 5 view .LVU1452
	.loc 1 701 5 view .LVU1453
	.loc 1 701 72 view .LVU1454
	.loc 1 701 84 is_stmt 0 view .LVU1455
	add	r2, sp, #16
.LVL91:
	.loc 1 701 76 is_stmt 1 view .LVU1456
	.loc 1 701 486 view .LVU1457
	.loc 1 701 7 view .LVU1458
	.loc 1 701 9 view .LVU1459
	.loc 1 701 14 view .LVU1460
	.loc 1 701 12 view .LVU1461
	.loc 1 701 7 view .LVU1462
	.loc 1 701 25 view .LVU1463
.LBB900:
	.loc 1 701 5 view .LVU1464
	.loc 1 701 370 view .LVU1465
	.loc 1 701 77 view .LVU1466
.LVL92:
	.loc 1 701 4 view .LVU1467
	.loc 1 701 4 view .LVU1468
	.loc 1 701 4 view .LVU1469
	.loc 1 701 40 view .LVU1470
	.loc 1 701 69 view .LVU1471
	.loc 1 701 95 view .LVU1472
	.loc 1 701 121 view .LVU1473
	.loc 1 701 1926 view .LVU1474
	.loc 1 701 1988 view .LVU1475
	.loc 1 701 3907 view .LVU1476
	.loc 1 701 3972 view .LVU1477
	.loc 1 701 3997 view .LVU1478
	.loc 1 701 3998 view .LVU1479
	.loc 1 701 4000 view .LVU1480
	.loc 1 701 4030 view .LVU1481
	.loc 1 701 4060 view .LVU1482
	.loc 1 701 4092 view .LVU1483
	.loc 1 701 0 view .LVU1484
	.loc 1 701 0 view .LVU1485
	.loc 1 701 0 view .LVU1486
	.loc 1 701 0 view .LVU1487
	.loc 1 701 0 view .LVU1488
	.loc 1 701 0 view .LVU1489
	.loc 1 701 0 view .LVU1490
	.loc 1 701 0 view .LVU1491
	.loc 1 701 0 view .LVU1492
	.loc 1 701 0 view .LVU1493
	.loc 1 701 0 view .LVU1494
	.loc 1 701 0 view .LVU1495
.LBB901:
	.loc 1 701 3326 view .LVU1496
	.loc 1 701 3331 view .LVU1497
	.loc 1 701 4069 view .LVU1498
	.loc 1 701 0 is_stmt 0 view .LVU1499
	ldr	r1, .L55
	str	r1, [r2, #20]
	.loc 1 701 3329 is_stmt 1 view .LVU1500
	.loc 1 701 9 view .LVU1501
.LVL93:
	.loc 1 701 32 view .LVU1502
	.loc 1 701 32 is_stmt 0 view .LVU1503
.LBE901:
	.loc 1 701 131 is_stmt 1 view .LVU1504
	.loc 1 701 8 view .LVU1505
.LBB902:
	.loc 1 701 13 view .LVU1506
	.loc 1 701 238 view .LVU1507
	.loc 1 701 1191 view .LVU1508
	.loc 1 701 1256 view .LVU1509
.LBE902:
.LBE900:
.LBE923:
.LBE929:
.LBE936:
.LBE943:
	.loc 1 701 1280 view .LVU1510
	.loc 1 701 1309 view .LVU1511
	.loc 1 701 1320 view .LVU1512
	.loc 1 701 1407 view .LVU1513
.LBB944:
.LBB937:
.LBB930:
.LBB924:
.LBB917:
.LBB903:
	.loc 1 701 1423 view .LVU1514
	.loc 1 701 1463 view .LVU1515
	.loc 1 701 1488 view .LVU1516
	.loc 1 701 2727 view .LVU1517
	.loc 1 701 2765 view .LVU1518
	.loc 1 701 2770 view .LVU1519
	.loc 1 701 3214 view .LVU1520
.LBE903:
.LBB904:
	.loc 1 701 3813 is_stmt 0 view .LVU1521
	strd	r4, r3, [r2, #32]
.LBE904:
.LBB905:
	.loc 1 701 3813 view .LVU1522
	ldr	r1, .L55+4
.LBE905:
.LBB906:
.LBB907:
	.loc 1 701 229 view .LVU1523
	movw	r3, #1283
.LVL94:
	.loc 1 701 229 view .LVU1524
	strh	r3, [r2, #40]	@ movhi
.LBE907:
.LBE906:
.LBB909:
	.loc 1 701 178 view .LVU1525
	ldr	r3, .L55+8
.LBE909:
.LBB910:
	.loc 1 701 3813 view .LVU1526
	strd	r1, r5, [r2, #24]
	.loc 1 701 2768 is_stmt 1 view .LVU1527
	.loc 1 701 9 view .LVU1528
.LVL95:
	.loc 1 701 32 view .LVU1529
	.loc 1 701 32 is_stmt 0 view .LVU1530
.LBE910:
	.loc 1 701 11 is_stmt 1 view .LVU1531
	.loc 1 701 8 view .LVU1532
.LBB911:
	.loc 1 701 13 view .LVU1533
	.loc 1 701 238 view .LVU1534
	.loc 1 701 1191 view .LVU1535
	.loc 1 701 1256 view .LVU1536
.LBE911:
.LBE917:
.LBE924:
.LBE930:
.LBE937:
.LBE944:
	.loc 1 701 1280 view .LVU1537
	.loc 1 701 1309 view .LVU1538
	.loc 1 701 1320 view .LVU1539
	.loc 1 701 1407 view .LVU1540
.LBB945:
.LBB938:
.LBB931:
.LBB925:
.LBB918:
.LBB912:
	.loc 1 701 1423 view .LVU1541
	.loc 1 701 1463 view .LVU1542
	.loc 1 701 2727 view .LVU1543
	.loc 1 701 2765 view .LVU1544
	.loc 1 701 2770 view .LVU1545
	.loc 1 701 3214 view .LVU1546
.LBE912:
.LBB913:
	.loc 1 701 2768 view .LVU1547
	.loc 1 701 9 view .LVU1548
	.loc 1 701 32 view .LVU1549
	.loc 1 701 32 is_stmt 0 view .LVU1550
.LBE913:
	.loc 1 701 11 is_stmt 1 view .LVU1551
	.loc 1 701 7 view .LVU1552
	.loc 1 701 30 view .LVU1553
	.loc 1 701 54 view .LVU1554
	.loc 1 701 82 view .LVU1555
.LBB914:
	.loc 1 701 8 view .LVU1556
	.loc 1 701 47 view .LVU1557
.LBE914:
.LBE918:
.LBE925:
.LBE931:
.LBE938:
.LBE945:
	.loc 1 701 52 view .LVU1558
	.loc 1 701 82 view .LVU1559
.LBB946:
.LBB939:
.LBB932:
.LBB926:
.LBB919:
.LBB915:
.LBB908:
	.loc 1 701 184 view .LVU1560
	.loc 1 701 216 view .LVU1561
	.loc 1 701 210 view .LVU1562
	.loc 1 701 184 view .LVU1563
	.loc 1 701 216 view .LVU1564
	.loc 1 701 210 view .LVU1565
	.loc 1 701 184 view .LVU1566
.LBE908:
.LBE915:
	.loc 1 701 258 view .LVU1567
	.loc 1 701 18 view .LVU1568
.LBB916:
	.loc 1 701 8 view .LVU1569
	.loc 1 701 166 view .LVU1570
	.loc 1 701 168 view .LVU1571
	.loc 1 701 178 is_stmt 0 view .LVU1572
	str	r3, [r2, #16]!
.LVL96:
	.loc 1 701 178 view .LVU1573
.LBE916:
.LBE919:
	.loc 1 701 28 is_stmt 1 view .LVU1574
	.loc 1 701 9 view .LVU1575
	.loc 1 701 149 view .LVU1576
	.loc 1 701 151 view .LVU1577
.LBB920:
.LBI920:
	.loc 2 26 20 view .LVU1578
.LBB921:
	.loc 2 38 2 view .LVU1579
	.loc 2 38 7 view .LVU1580
	.loc 2 38 5 view .LVU1581
	.loc 2 39 2 view .LVU1582
	ldr	r0, .L55+12
.LVL97:
	.loc 2 39 2 is_stmt 0 view .LVU1583
	movs	r3, #0
	mov	r1, #13568
	bl	z_impl_z_log_msg_static_create
.LVL98:
	.loc 2 39 2 view .LVU1584
.LBE921:
.LBE920:
	mov	sp, r9
.LBE926:
	.loc 1 701 109 is_stmt 1 view .LVU1585
	.loc 1 701 7 view .LVU1586
.LVL99:
	.loc 1 701 44 view .LVU1587
.LBE932:
	.loc 1 701 8 view .LVU1588
.LBE939:
	.loc 1 701 280 view .LVU1589
	.loc 1 701 7 view .LVU1590
	.loc 1 701 20 view .LVU1591
.LBE946:
	.loc 1 701 8 view .LVU1592
	.loc 1 704 5 view .LVU1593
	.loc 1 704 12 is_stmt 0 view .LVU1594
	add	r3, r7, #16
	str	r8, [sp, #8]
.LVL100:
	.loc 1 704 12 view .LVU1595
	ldmdb	r3, {r0, r1}
	stm	sp, {r0, r1}
	mov	r0, r6
	ldrd	r2, r3, [r7]
	bl	zmk_behavior_invoke_binding
.LVL101:
	.loc 1 705 1 view .LVU1596
	adds	r7, r7, #20
	.cfi_def_cfa_offset 28
	mov	sp, r7
	.cfi_def_cfa_register 13
	@ sp needed
	pop	{r4, r5, r6, r7, r8, r9, pc}
.LVL102:
.L56:
	.loc 1 705 1 view .LVU1597
	.align	2
.L55:
	.word	.LC6
	.word	__func__.1
	.word	16777222
	.word	log_const_zmk
	.cfi_endproc
.LFE600:
	.size	zmk_keymap_apply_position_state, .-zmk_keymap_apply_position_state
	.section	.rodata.zmk_keymap_position_state_changed.str1.1,"aMS",%progbits,1
.LC7:
	.ascii	"%s: behavior processing to continue to next layer\000"
.LC8:
	.ascii	"%s: Behavior returned error: %d\000"
	.section	.text.zmk_keymap_position_state_changed,"ax",%progbits
	.align	1
	.global	zmk_keymap_position_state_changed
	.syntax unified
	.thumb
	.thumb_func
	.type	zmk_keymap_position_state_changed, %function
zmk_keymap_position_state_changed:
.LVL103:
.LFB601:
	.loc 1 708 58 is_stmt 1 view -0
	.cfi_startproc
	@ args = 8, pretend = 0, frame = 0
	@ frame_needed = 1, uses_anonymous_args = 0
	.loc 1 709 5 view .LVU1599
	.loc 1 708 58 is_stmt 0 view .LVU1600
	push	{r4, r5, r6, r7, lr}
	.cfi_def_cfa_offset 20
	.cfi_offset 4, -20
	.cfi_offset 5, -16
	.cfi_offset 6, -12
	.cfi_offset 7, -8
	.cfi_offset 14, -4
	sub	sp, sp, #12
	.cfi_def_cfa_offset 32
	ldr	r3, .L69
	add	r7, sp, #8
	.cfi_def_cfa 7, 24
	.loc 1 708 58 view .LVU1601
	mov	r6, r0
	mov	r4, r1
	.loc 1 709 8 view .LVU1602
	mov	r5, r2
	cbz	r2, .L58
	.loc 1 710 9 is_stmt 1 view .LVU1603
	.loc 1 710 52 is_stmt 0 view .LVU1604
	ldr	r2, .L69+4
.LVL104:
	.loc 1 710 52 view .LVU1605
	ldr	r2, [r2]
	str	r2, [r3, r1, lsl #2]
.L58:
.LVL105:
.LBB971:
	.loc 1 715 20 is_stmt 1 discriminator 1 view .LVU1606
.LBB972:
	.loc 1 716 9 discriminator 1 view .LVU1607
	.loc 1 718 9 discriminator 1 view .LVU1608
	.loc 1 721 9 discriminator 1 view .LVU1609
	.loc 1 721 13 is_stmt 0 discriminator 1 view .LVU1610
	ldr	r1, [r3, r4, lsl #2]
.LVL106:
	.loc 1 721 13 discriminator 1 view .LVU1611
	movs	r0, #0
.LVL107:
	.loc 1 721 13 discriminator 1 view .LVU1612
	bl	zmk_keymap_layer_active_with_state
.LVL108:
	.loc 1 721 12 discriminator 1 view .LVU1613
	cbz	r0, .L59
.LBB973:
	.loc 1 723 13 is_stmt 1 view .LVU1614
	.loc 1 724 17 is_stmt 0 view .LVU1615
	ldrd	r2, [r7, #24]
	movs	r1, #0
	strd	r2, [sp]
	mov	r0, r6
	mov	r2, r4
	mov	r3, r5
	bl	zmk_keymap_apply_position_state
.LVL109:
	.loc 1 725 13 is_stmt 1 view .LVU1616
	.loc 1 725 16 is_stmt 0 view .LVU1617
	subs	r4, r0, #0
.LVL110:
	.loc 1 725 16 view .LVU1618
	ble	.L60
	.loc 1 726 17 is_stmt 1 view .LVU1619
.LBB974:
	.loc 1 726 22 view .LVU1620
	.loc 1 726 71 view .LVU1621
	.loc 1 726 28 view .LVU1622
	.loc 1 726 16 view .LVU1623
.LVL111:
	.loc 1 726 55 view .LVU1624
	.loc 1 726 190 view .LVU1625
	.loc 1 726 201 view .LVU1626
	.loc 1 726 289 view .LVU1627
.LBB975:
	.loc 1 726 17 view .LVU1628
	.loc 1 726 19 view .LVU1629
	.loc 1 726 17 view .LVU1630
.LBB976:
	.loc 1 726 22 view .LVU1631
	.loc 1 726 16 view .LVU1632
.LBE976:
.LBE975:
.LBE974:
.LBE973:
.LBE972:
.LBE971:
	.loc 1 726 17 view .LVU1633
	.loc 1 726 26 view .LVU1634
	.loc 1 726 121 view .LVU1635
	.loc 1 726 17 view .LVU1636
.LBB1049:
.LBB1040:
.LBB1031:
.LBB998:
.LBB994:
.LBB990:
	.loc 1 726 26 view .LVU1637
	.loc 1 726 116 view .LVU1638
	.loc 1 726 118 view .LVU1639
.LBB977:
	.loc 1 726 121 is_stmt 0 view .LVU1640
	mov	r4, sp
	.loc 1 726 123 is_stmt 1 view .LVU1641
	.loc 1 726 134 view .LVU1642
.LVL112:
	.loc 1 726 223 view .LVU1643
	.loc 1 726 40 view .LVU1644
.LBE977:
.LBE990:
.LBE994:
.LBE998:
.LBE1031:
.LBE1040:
.LBE1049:
	.loc 1 726 17 view .LVU1645
	.loc 1 726 382 view .LVU1646
	.loc 1 726 89 view .LVU1647
	.loc 1 726 16 view .LVU1648
	.loc 1 726 16 view .LVU1649
	.loc 1 726 16 view .LVU1650
	.loc 1 726 52 view .LVU1651
	.loc 1 726 18 view .LVU1652
	.loc 1 726 44 view .LVU1653
	.loc 1 726 70 view .LVU1654
	.loc 1 726 537 view .LVU1655
	.loc 1 726 599 view .LVU1656
	.loc 1 726 1120 view .LVU1657
	.loc 1 726 1185 view .LVU1658
	.loc 1 726 1210 view .LVU1659
	.loc 1 726 1211 view .LVU1660
	.loc 1 726 1213 view .LVU1661
	.loc 1 726 1243 view .LVU1662
	.loc 1 726 1273 view .LVU1663
	.loc 1 726 1305 view .LVU1664
	.loc 1 726 1337 view .LVU1665
	.loc 1 726 1369 view .LVU1666
	.loc 1 726 1566 view .LVU1667
	.loc 1 726 1590 view .LVU1668
	.loc 1 726 1591 view .LVU1669
	.loc 1 726 1593 view .LVU1670
	.loc 1 726 1622 view .LVU1671
	.loc 1 726 1651 view .LVU1672
	.loc 1 726 1682 view .LVU1673
	.loc 1 726 1713 view .LVU1674
	.loc 1 726 1744 view .LVU1675
	.loc 1 726 1951 view .LVU1676
	.loc 1 726 18 view .LVU1677
	.loc 1 726 36 view .LVU1678
	.loc 1 726 56 view .LVU1679
	.loc 1 726 18 view .LVU1680
	.loc 1 726 56 view .LVU1681
	.loc 1 726 27 view .LVU1682
	.loc 1 726 27 view .LVU1683
	.loc 1 726 75 view .LVU1684
	.loc 1 726 106 view .LVU1685
	.loc 1 726 140 view .LVU1686
	.loc 1 726 145 view .LVU1687
	.loc 1 726 421 view .LVU1688
	.loc 1 726 1578 view .LVU1689
	.loc 1 726 1643 view .LVU1690
	.loc 1 726 1667 view .LVU1691
	.loc 1 726 1747 view .LVU1692
	.loc 1 726 1758 view .LVU1693
	.loc 1 726 1896 view .LVU1694
	.loc 1 726 1912 view .LVU1695
	.loc 1 726 1952 view .LVU1696
	.loc 1 726 1977 view .LVU1697
	.loc 1 726 3318 view .LVU1698
	.loc 1 726 3359 view .LVU1699
	.loc 1 726 21 view .LVU1700
	.loc 1 726 44 view .LVU1701
	.loc 1 726 143 view .LVU1702
	.loc 1 726 20 view .LVU1703
	.loc 1 726 25 view .LVU1704
	.loc 1 726 250 view .LVU1705
	.loc 1 726 1203 view .LVU1706
	.loc 1 726 1268 view .LVU1707
	.loc 1 726 1292 view .LVU1708
	.loc 1 726 1321 view .LVU1709
	.loc 1 726 1332 view .LVU1710
	.loc 1 726 1419 view .LVU1711
	.loc 1 726 1435 view .LVU1712
	.loc 1 726 1475 view .LVU1713
	.loc 1 726 1500 view .LVU1714
	.loc 1 726 2739 view .LVU1715
	.loc 1 726 2780 view .LVU1716
	.loc 1 726 21 view .LVU1717
	.loc 1 726 44 view .LVU1718
	.loc 1 726 23 view .LVU1719
	.loc 1 726 19 view .LVU1720
	.loc 1 726 42 view .LVU1721
	.loc 1 726 66 view .LVU1722
	.loc 1 726 94 view .LVU1723
	.loc 1 726 270 view .LVU1724
	.loc 1 726 30 view .LVU1725
.LBB1050:
.LBB1041:
.LBB1032:
.LBB999:
.LBB995:
.LBB991:
.LBB987:
	.loc 1 726 43 view .LVU1726
	.loc 1 726 17 view .LVU1727
	.loc 1 726 17 view .LVU1728
	.loc 1 726 84 view .LVU1729
	.loc 1 726 96 is_stmt 0 view .LVU1730
	sub	sp, sp, #32
	add	r2, sp, #8
.LVL113:
	.loc 1 726 88 is_stmt 1 view .LVU1731
	.loc 1 726 498 view .LVU1732
	.loc 1 726 19 view .LVU1733
	.loc 1 726 21 view .LVU1734
	.loc 1 726 26 view .LVU1735
	.loc 1 726 24 view .LVU1736
	.loc 1 726 19 view .LVU1737
	.loc 1 726 37 view .LVU1738
.LBB978:
	.loc 1 726 17 view .LVU1739
	.loc 1 726 382 view .LVU1740
	.loc 1 726 89 view .LVU1741
.LVL114:
	.loc 1 726 16 view .LVU1742
	.loc 1 726 16 view .LVU1743
	.loc 1 726 16 view .LVU1744
	.loc 1 726 52 view .LVU1745
	.loc 1 726 81 view .LVU1746
	.loc 1 726 107 view .LVU1747
	.loc 1 726 133 view .LVU1748
	.loc 1 726 600 view .LVU1749
	.loc 1 726 662 view .LVU1750
	.loc 1 726 1183 view .LVU1751
	.loc 1 726 1248 view .LVU1752
	.loc 1 726 1273 view .LVU1753
	.loc 1 726 1274 view .LVU1754
	.loc 1 726 1276 view .LVU1755
	.loc 1 726 1306 view .LVU1756
	.loc 1 726 1336 view .LVU1757
	.loc 1 726 1368 view .LVU1758
	.loc 1 726 1400 view .LVU1759
	.loc 1 726 1432 view .LVU1760
	.loc 1 726 1629 view .LVU1761
	.loc 1 726 1653 view .LVU1762
	.loc 1 726 1654 view .LVU1763
	.loc 1 726 1656 view .LVU1764
	.loc 1 726 1685 view .LVU1765
	.loc 1 726 1714 view .LVU1766
	.loc 1 726 1745 view .LVU1767
	.loc 1 726 1776 view .LVU1768
	.loc 1 726 1807 view .LVU1769
	.loc 1 726 2014 view .LVU1770
.LBB979:
	.loc 1 726 3356 view .LVU1771
	.loc 1 726 3361 view .LVU1772
	.loc 1 726 0 view .LVU1773
	ldr	r3, .L69+8
	str	r3, [r2, #20]
	.loc 1 726 3359 view .LVU1774
	.loc 1 726 21 view .LVU1775
.LVL115:
	.loc 1 726 44 view .LVU1776
	.loc 1 726 44 is_stmt 0 view .LVU1777
.LBE979:
	.loc 1 726 143 is_stmt 1 view .LVU1778
	.loc 1 726 20 view .LVU1779
.LBB980:
	.loc 1 726 25 view .LVU1780
	.loc 1 726 250 view .LVU1781
	.loc 1 726 1203 view .LVU1782
	.loc 1 726 1268 view .LVU1783
.LBE980:
.LBE978:
.LBE987:
.LBE991:
.LBE995:
.LBE999:
.LBE1032:
.LBE1041:
.LBE1050:
	.loc 1 726 1292 view .LVU1784
	.loc 1 726 1321 view .LVU1785
	.loc 1 726 1332 view .LVU1786
	.loc 1 726 1419 view .LVU1787
.LBB1051:
.LBB1042:
.LBB1033:
.LBB1000:
.LBB996:
.LBB992:
.LBB988:
.LBB983:
.LBB981:
	.loc 1 726 1435 view .LVU1788
	.loc 1 726 1475 view .LVU1789
	.loc 1 726 1500 view .LVU1790
	.loc 1 726 2739 view .LVU1791
	.loc 1 726 2777 view .LVU1792
	.loc 1 726 2782 view .LVU1793
	.loc 1 726 3226 view .LVU1794
	.loc 1 726 3825 is_stmt 0 view .LVU1795
	ldr	r3, .L69+12
	str	r3, [r2, #24]
	.loc 1 726 2780 is_stmt 1 view .LVU1796
	.loc 1 726 21 view .LVU1797
.LVL116:
	.loc 1 726 44 view .LVU1798
	.loc 1 726 44 is_stmt 0 view .LVU1799
.LBE981:
	.loc 1 726 23 is_stmt 1 view .LVU1800
	.loc 1 726 19 view .LVU1801
	.loc 1 726 42 view .LVU1802
	.loc 1 726 66 view .LVU1803
	.loc 1 726 94 view .LVU1804
.LBE983:
.LBE988:
.LBE992:
.LBE996:
.LBE1000:
.LBE1033:
.LBE1042:
.LBE1051:
	.loc 1 726 20 view .LVU1805
	.loc 1 726 59 view .LVU1806
	.loc 1 726 64 view .LVU1807
	.loc 1 726 94 view .LVU1808
	.loc 1 726 161 view .LVU1809
	.loc 1 726 166 view .LVU1810
	.loc 1 726 196 view .LVU1811
.LBB1052:
.LBB1043:
.LBB1034:
.LBB1001:
.LBB997:
.LBB993:
.LBB989:
.LBB984:
	.loc 1 726 270 view .LVU1812
	.loc 1 726 30 view .LVU1813
.LBB982:
	.loc 1 726 20 view .LVU1814
	.loc 1 726 178 view .LVU1815
	.loc 1 726 180 view .LVU1816
	.loc 1 726 190 is_stmt 0 view .LVU1817
	movs	r3, #3
	str	r3, [r2, #16]!
.LVL117:
	.loc 1 726 190 view .LVU1818
.LBE982:
.LBE984:
	.loc 1 726 40 is_stmt 1 view .LVU1819
	.loc 1 726 21 view .LVU1820
	.loc 1 726 161 view .LVU1821
	.loc 1 726 163 view .LVU1822
.LBB985:
.LBI985:
	.loc 2 26 20 view .LVU1823
.LBB986:
	.loc 2 38 2 view .LVU1824
	.loc 2 38 7 view .LVU1825
	.loc 2 38 5 view .LVU1826
	.loc 2 39 2 view .LVU1827
	ldr	r0, .L69+16
.LVL118:
	.loc 2 39 2 is_stmt 0 view .LVU1828
	movs	r3, #0
	mov	r1, #6400
	bl	z_impl_z_log_msg_static_create
.LVL119:
	.loc 2 39 2 view .LVU1829
.LBE986:
.LBE985:
	mov	sp, r4
.LBE989:
	.loc 1 726 121 is_stmt 1 view .LVU1830
	.loc 1 726 19 view .LVU1831
.LVL120:
	.loc 1 726 56 view .LVU1832
.LBE993:
	.loc 1 726 20 view .LVU1833
.LBE997:
	.loc 1 726 292 view .LVU1834
	.loc 1 726 19 view .LVU1835
	.loc 1 726 32 view .LVU1836
.LBE1001:
	.loc 1 726 20 view .LVU1837
	.loc 1 727 17 view .LVU1838
	.loc 1 727 17 is_stmt 0 view .LVU1839
.LBE1034:
.LBE1043:
	.loc 1 715 20 is_stmt 1 view .LVU1840
.L59:
	.loc 1 715 20 is_stmt 0 view .LVU1841
.LBE1052:
	.loc 1 737 12 view .LVU1842
	mvn	r4, #133
.L57:
	.loc 1 738 1 view .LVU1843
	mov	r0, r4
	adds	r7, r7, #4
	.cfi_remember_state
	.cfi_def_cfa_offset 20
	mov	sp, r7
	.cfi_def_cfa_register 13
	@ sp needed
	pop	{r4, r5, r6, r7, pc}
.LVL121:
.L60:
	.cfi_restore_state
.LBB1053:
.LBB1044:
.LBB1035:
	.loc 1 728 20 is_stmt 1 view .LVU1844
	.loc 1 728 23 is_stmt 0 view .LVU1845
	beq	.L57
	.loc 1 729 17 is_stmt 1 view .LVU1846
.LBB1002:
	.loc 1 729 22 view .LVU1847
	.loc 1 729 71 view .LVU1848
	.loc 1 729 28 view .LVU1849
	.loc 1 729 16 view .LVU1850
.LVL122:
	.loc 1 729 55 view .LVU1851
	.loc 1 729 190 view .LVU1852
	.loc 1 729 201 view .LVU1853
	.loc 1 729 289 view .LVU1854
.LBB1003:
	.loc 1 729 17 view .LVU1855
	.loc 1 729 19 view .LVU1856
	.loc 1 729 68 view .LVU1857
	.loc 1 729 17 view .LVU1858
.LBB1004:
	.loc 1 729 22 view .LVU1859
	.loc 1 729 16 view .LVU1860
.LBE1004:
.LBE1003:
.LBE1002:
.LBE1035:
.LBE1044:
.LBE1053:
	.loc 1 729 17 view .LVU1861
	.loc 1 729 26 view .LVU1862
	.loc 1 729 121 view .LVU1863
	.loc 1 729 17 view .LVU1864
.LBB1054:
.LBB1045:
.LBB1036:
.LBB1027:
.LBB1023:
.LBB1019:
	.loc 1 729 26 view .LVU1865
	.loc 1 729 116 view .LVU1866
	.loc 1 729 118 view .LVU1867
.LBB1005:
	.loc 1 729 121 is_stmt 0 view .LVU1868
	mov	r5, sp
	.loc 1 729 123 is_stmt 1 view .LVU1869
	.loc 1 729 134 view .LVU1870
.LVL123:
	.loc 1 729 223 view .LVU1871
	.loc 1 729 40 view .LVU1872
.LBE1005:
.LBE1019:
.LBE1023:
.LBE1027:
.LBE1036:
.LBE1045:
.LBE1054:
	.loc 1 729 17 view .LVU1873
	.loc 1 729 382 view .LVU1874
	.loc 1 729 89 view .LVU1875
	.loc 1 729 16 view .LVU1876
	.loc 1 729 16 view .LVU1877
	.loc 1 729 16 view .LVU1878
	.loc 1 729 52 view .LVU1879
	.loc 1 729 18 view .LVU1880
	.loc 1 729 44 view .LVU1881
	.loc 1 729 70 view .LVU1882
	.loc 1 729 983 view .LVU1883
	.loc 1 729 1045 view .LVU1884
	.loc 1 729 2032 view .LVU1885
	.loc 1 729 2097 view .LVU1886
	.loc 1 729 2122 view .LVU1887
	.loc 1 729 2123 view .LVU1888
	.loc 1 729 2125 view .LVU1889
	.loc 1 729 2155 view .LVU1890
	.loc 1 729 2185 view .LVU1891
	.loc 1 729 2217 view .LVU1892
	.loc 1 729 2249 view .LVU1893
	.loc 1 729 2281 view .LVU1894
	.loc 1 729 2478 view .LVU1895
	.loc 1 729 2502 view .LVU1896
	.loc 1 729 2503 view .LVU1897
	.loc 1 729 2505 view .LVU1898
	.loc 1 729 2534 view .LVU1899
	.loc 1 729 2563 view .LVU1900
	.loc 1 729 2594 view .LVU1901
	.loc 1 729 2625 view .LVU1902
	.loc 1 729 2656 view .LVU1903
	.loc 1 729 2863 view .LVU1904
	.loc 1 729 18 view .LVU1905
	.loc 1 729 36 view .LVU1906
	.loc 1 729 56 view .LVU1907
	.loc 1 729 18 view .LVU1908
	.loc 1 729 56 view .LVU1909
	.loc 1 729 27 view .LVU1910
	.loc 1 729 27 view .LVU1911
	.loc 1 729 75 view .LVU1912
	.loc 1 729 106 view .LVU1913
	.loc 1 729 140 view .LVU1914
	.loc 1 729 145 view .LVU1915
	.loc 1 729 403 view .LVU1916
	.loc 1 729 1488 view .LVU1917
	.loc 1 729 1553 view .LVU1918
	.loc 1 729 1577 view .LVU1919
	.loc 1 729 1639 view .LVU1920
	.loc 1 729 1650 view .LVU1921
	.loc 1 729 1770 view .LVU1922
	.loc 1 729 1786 view .LVU1923
	.loc 1 729 1826 view .LVU1924
	.loc 1 729 1851 view .LVU1925
	.loc 1 729 3156 view .LVU1926
	.loc 1 729 3197 view .LVU1927
	.loc 1 729 21 view .LVU1928
	.loc 1 729 44 view .LVU1929
	.loc 1 729 143 view .LVU1930
	.loc 1 729 20 view .LVU1931
	.loc 1 729 25 view .LVU1932
	.loc 1 729 250 view .LVU1933
	.loc 1 729 1203 view .LVU1934
	.loc 1 729 1268 view .LVU1935
	.loc 1 729 1292 view .LVU1936
	.loc 1 729 1321 view .LVU1937
	.loc 1 729 1332 view .LVU1938
	.loc 1 729 1419 view .LVU1939
	.loc 1 729 1435 view .LVU1940
	.loc 1 729 1475 view .LVU1941
	.loc 1 729 1500 view .LVU1942
	.loc 1 729 2739 view .LVU1943
	.loc 1 729 2780 view .LVU1944
	.loc 1 729 21 view .LVU1945
	.loc 1 729 44 view .LVU1946
	.loc 1 729 23 view .LVU1947
	.loc 1 729 20 view .LVU1948
	.loc 1 729 25 view .LVU1949
	.loc 1 729 250 view .LVU1950
	.loc 1 729 1203 view .LVU1951
	.loc 1 729 1268 view .LVU1952
	.loc 1 729 1292 view .LVU1953
	.loc 1 729 1321 view .LVU1954
	.loc 1 729 1332 view .LVU1955
	.loc 1 729 1419 view .LVU1956
	.loc 1 729 1435 view .LVU1957
	.loc 1 729 1475 view .LVU1958
	.loc 1 729 2739 view .LVU1959
	.loc 1 729 2780 view .LVU1960
	.loc 1 729 21 view .LVU1961
	.loc 1 729 44 view .LVU1962
	.loc 1 729 23 view .LVU1963
	.loc 1 729 19 view .LVU1964
	.loc 1 729 42 view .LVU1965
	.loc 1 729 66 view .LVU1966
	.loc 1 729 94 view .LVU1967
	.loc 1 729 270 view .LVU1968
	.loc 1 729 30 view .LVU1969
.LBB1055:
.LBB1046:
.LBB1037:
.LBB1028:
.LBB1024:
.LBB1020:
.LBB1016:
	.loc 1 729 43 view .LVU1970
	.loc 1 729 17 view .LVU1971
	.loc 1 729 17 view .LVU1972
	.loc 1 729 84 view .LVU1973
	.loc 1 729 96 is_stmt 0 view .LVU1974
	sub	sp, sp, #32
	add	r2, sp, #8
.LVL124:
	.loc 1 729 88 is_stmt 1 view .LVU1975
	.loc 1 729 498 view .LVU1976
	.loc 1 729 19 view .LVU1977
	.loc 1 729 21 view .LVU1978
	.loc 1 729 26 view .LVU1979
	.loc 1 729 24 view .LVU1980
	.loc 1 729 19 view .LVU1981
	.loc 1 729 37 view .LVU1982
.LBB1006:
	.loc 1 729 17 view .LVU1983
	.loc 1 729 382 view .LVU1984
	.loc 1 729 89 view .LVU1985
.LVL125:
	.loc 1 729 16 view .LVU1986
	.loc 1 729 16 view .LVU1987
	.loc 1 729 16 view .LVU1988
	.loc 1 729 52 view .LVU1989
	.loc 1 729 81 view .LVU1990
	.loc 1 729 107 view .LVU1991
	.loc 1 729 133 view .LVU1992
	.loc 1 729 1046 view .LVU1993
	.loc 1 729 1108 view .LVU1994
	.loc 1 729 2095 view .LVU1995
	.loc 1 729 2160 view .LVU1996
	.loc 1 729 2185 view .LVU1997
	.loc 1 729 2186 view .LVU1998
	.loc 1 729 2188 view .LVU1999
	.loc 1 729 2218 view .LVU2000
	.loc 1 729 2248 view .LVU2001
	.loc 1 729 2280 view .LVU2002
	.loc 1 729 2312 view .LVU2003
	.loc 1 729 2344 view .LVU2004
	.loc 1 729 2541 view .LVU2005
	.loc 1 729 2565 view .LVU2006
	.loc 1 729 2566 view .LVU2007
	.loc 1 729 2568 view .LVU2008
	.loc 1 729 2597 view .LVU2009
	.loc 1 729 2626 view .LVU2010
	.loc 1 729 2657 view .LVU2011
	.loc 1 729 2688 view .LVU2012
	.loc 1 729 2719 view .LVU2013
	.loc 1 729 2926 view .LVU2014
.LBB1007:
	.loc 1 729 3194 view .LVU2015
	.loc 1 729 3199 view .LVU2016
	.loc 1 729 3841 view .LVU2017
	.loc 1 729 0 is_stmt 0 view .LVU2018
	ldr	r3, .L69+20
	str	r3, [r2, #20]
	.loc 1 729 3197 is_stmt 1 view .LVU2019
	.loc 1 729 21 view .LVU2020
.LVL126:
	.loc 1 729 44 view .LVU2021
	.loc 1 729 44 is_stmt 0 view .LVU2022
.LBE1007:
	.loc 1 729 143 is_stmt 1 view .LVU2023
	.loc 1 729 20 view .LVU2024
.LBB1008:
	.loc 1 729 25 view .LVU2025
	.loc 1 729 250 view .LVU2026
	.loc 1 729 1203 view .LVU2027
	.loc 1 729 1268 view .LVU2028
.LBE1008:
.LBE1006:
.LBE1016:
.LBE1020:
.LBE1024:
.LBE1028:
.LBE1037:
.LBE1046:
.LBE1055:
	.loc 1 729 1292 view .LVU2029
	.loc 1 729 1321 view .LVU2030
	.loc 1 729 1332 view .LVU2031
	.loc 1 729 1419 view .LVU2032
.LBB1056:
.LBB1047:
.LBB1038:
.LBB1029:
.LBB1025:
.LBB1021:
.LBB1017:
.LBB1012:
.LBB1009:
	.loc 1 729 1435 view .LVU2033
	.loc 1 729 1475 view .LVU2034
	.loc 1 729 1500 view .LVU2035
	.loc 1 729 2739 view .LVU2036
	.loc 1 729 2777 view .LVU2037
	.loc 1 729 2782 view .LVU2038
	.loc 1 729 3226 view .LVU2039
	.loc 1 729 3825 is_stmt 0 view .LVU2040
	ldr	r3, .L69+12
.LBE1009:
.LBB1010:
	.loc 1 729 3825 view .LVU2041
	strd	r3, r4, [r2, #24]
	.loc 1 729 2780 is_stmt 1 view .LVU2042
	.loc 1 729 21 view .LVU2043
.LVL127:
	.loc 1 729 44 view .LVU2044
	.loc 1 729 44 is_stmt 0 view .LVU2045
.LBE1010:
	.loc 1 729 23 is_stmt 1 view .LVU2046
	.loc 1 729 19 view .LVU2047
	.loc 1 729 42 view .LVU2048
	.loc 1 729 66 view .LVU2049
	.loc 1 729 94 view .LVU2050
.LBE1012:
.LBE1017:
.LBE1021:
.LBE1025:
.LBE1029:
.LBE1038:
.LBE1047:
.LBE1056:
	.loc 1 729 20 view .LVU2051
	.loc 1 729 59 view .LVU2052
	.loc 1 729 64 view .LVU2053
	.loc 1 729 94 view .LVU2054
	.loc 1 729 161 view .LVU2055
	.loc 1 729 166 view .LVU2056
	.loc 1 729 196 view .LVU2057
.LBB1057:
.LBB1048:
.LBB1039:
.LBB1030:
.LBB1026:
.LBB1022:
.LBB1018:
.LBB1013:
	.loc 1 729 270 view .LVU2058
	.loc 1 729 30 view .LVU2059
.LBB1011:
	.loc 1 729 20 view .LVU2060
	.loc 1 729 178 view .LVU2061
	.loc 1 729 180 view .LVU2062
	.loc 1 729 190 is_stmt 0 view .LVU2063
	movs	r3, #4
	str	r3, [r2, #16]!
.LVL128:
	.loc 1 729 190 view .LVU2064
.LBE1011:
.LBE1013:
	.loc 1 729 40 is_stmt 1 view .LVU2065
	.loc 1 729 21 view .LVU2066
	.loc 1 729 161 view .LVU2067
	.loc 1 729 163 view .LVU2068
.LBB1014:
.LBI1014:
	.loc 2 26 20 view .LVU2069
.LBB1015:
	.loc 2 38 2 view .LVU2070
	.loc 2 38 7 view .LVU2071
	.loc 2 38 5 view .LVU2072
	.loc 2 39 2 view .LVU2073
	ldr	r0, .L69+16
.LVL129:
	.loc 2 39 2 is_stmt 0 view .LVU2074
	movs	r3, #0
	mov	r1, #8448
	bl	z_impl_z_log_msg_static_create
.LVL130:
	.loc 2 39 2 view .LVU2075
.LBE1015:
.LBE1014:
	mov	sp, r5
.LBE1018:
	.loc 1 729 121 is_stmt 1 view .LVU2076
	.loc 1 729 19 view .LVU2077
.LVL131:
	.loc 1 729 56 view .LVU2078
.LBE1022:
	.loc 1 729 20 view .LVU2079
.LBE1026:
	.loc 1 729 292 view .LVU2080
	.loc 1 729 19 view .LVU2081
	.loc 1 729 32 view .LVU2082
.LBE1030:
	.loc 1 729 20 view .LVU2083
	.loc 1 730 17 view .LVU2084
	.loc 1 730 24 is_stmt 0 view .LVU2085
	b	.L57
.L70:
	.align	2
.L69:
	.word	zmk_keymap_active_behavior_layer
	.word	_zmk_keymap_layer_state
	.word	.LC7
	.word	__func__.0
	.word	log_const_zmk
	.word	.LC8
.LBE1039:
.LBE1048:
.LBE1057:
	.cfi_endproc
.LFE601:
	.size	zmk_keymap_position_state_changed, .-zmk_keymap_position_state_changed
	.section	.text.keymap_listener,"ax",%progbits
	.align	1
	.global	keymap_listener
	.syntax unified
	.thumb
	.thumb_func
	.type	keymap_listener, %function
keymap_listener:
.LVL132:
.LFB602:
	.loc 1 803 44 is_stmt 1 view -0
	.cfi_startproc
	@ args = 0, pretend = 0, frame = 0
	@ frame_needed = 0, uses_anonymous_args = 0
	.loc 1 804 5 view .LVU2087
	.loc 1 805 5 view .LVU2088
	.loc 1 803 44 is_stmt 0 view .LVU2089
	push	{r0, r1, r2, r4, r5, lr}
	.cfi_def_cfa_offset 24
	.cfi_offset 4, -12
	.cfi_offset 5, -8
	.cfi_offset 14, -4
	.loc 1 805 19 view .LVU2090
	bl	as_zmk_position_state_changed
.LVL133:
	.loc 1 805 8 view .LVU2091
	mov	r3, r0
	cbz	r0, .L73
	.loc 1 806 9 is_stmt 1 view .LVU2092
	.loc 1 806 16 is_stmt 0 view .LVU2093
	ldrd	r4, [r3, #16]
	ldrb	r2, [r0, #8]	@ zero_extendqisi2
	ldrb	r0, [r0]	@ zero_extendqisi2
.LVL134:
	.loc 1 806 16 view .LVU2094
	strd	r4, [sp]
	ldr	r1, [r3, #4]
	bl	zmk_keymap_position_state_changed
.LVL135:
.L71:
	.loc 1 819 1 view .LVU2095
	add	sp, sp, #12
	.cfi_remember_state
	.cfi_def_cfa_offset 12
	@ sp needed
	pop	{r4, r5, pc}
.LVL136:
.L73:
	.cfi_restore_state
	.loc 1 818 12 view .LVU2096
	mvn	r0, #133
.LVL137:
	.loc 1 818 12 view .LVU2097
	b	.L71
	.cfi_endproc
.LFE602:
	.size	keymap_listener, .-keymap_listener
	.section	.rodata.__func__.0,"a"
	.type	__func__.0, %object
	.size	__func__.0, 34
__func__.0:
	.ascii	"zmk_keymap_position_state_changed\000"
	.section	.rodata.__func__.1,"a"
	.type	__func__.1, %object
	.size	__func__.1, 32
__func__.1:
	.ascii	"zmk_keymap_apply_position_state\000"
	.section	.rodata.__func__.2,"a"
	.type	__func__.2, %object
	.size	__func__.2, 16
__func__.2:
	.ascii	"set_layer_state\000"
	.section	.z_init_APPLICATION90_0_,"a"
	.align	2
	.type	__init_keymap_init, %object
	.size	__init_keymap_init, 8
__init_keymap_init:
	.word	keymap_init
	.word	0
	.global	zmk_event_sub_keymapzmk_position_state_changed
	.section	.event_subscription,"a"
	.align	2
	.type	zmk_event_sub_keymapzmk_position_state_changed, %object
	.size	zmk_event_sub_keymapzmk_position_state_changed, 8
zmk_event_sub_keymapzmk_position_state_changed:
	.word	zmk_event_zmk_position_state_changed
	.word	zmk_listener_keymap
	.global	zmk_listener_keymap
	.section	.rodata.zmk_listener_keymap,"a"
	.align	2
	.type	zmk_listener_keymap, %object
	.size	zmk_listener_keymap, 4
zmk_listener_keymap:
	.word	keymap_listener
	.section	.rodata.str1.1,"aMS",%progbits,1
.LC9:
	.ascii	"key_press\000"
	.section	.rodata.zmk_keymap,"a"
	.align	2
	.type	zmk_keymap, %object
	.size	zmk_keymap, 288
zmk_keymap:
	.word	.LC9
	.word	458782
	.word	0
	.word	.LC9
	.word	458783
	.word	0
	.word	.LC9
	.word	458756
	.word	0
	.word	.LC9
	.word	458757
	.word	0
	.space	240
	.section	.bss.zmk_keymap_active_behavior_layer,"aw",%nobits
	.align	2
	.type	zmk_keymap_active_behavior_layer, %object
	.size	zmk_keymap_active_behavior_layer, 96
zmk_keymap_active_behavior_layer:
	.space	96
	.section	.bss._zmk_keymap_layer_state,"aw",%nobits
	.align	2
	.type	_zmk_keymap_layer_state, %object
	.size	_zmk_keymap_layer_state, 4
_zmk_keymap_layer_state:
	.space	4
	.text
.Letext0:
	.file 6 "/home/g/zephyr-sdk-0.16.3/arm-zephyr-eabi/lib/gcc/arm-zephyr-eabi/12.2.0/include/stddef.h"
	.file 7 "/home/g/zephyr-sdk-0.16.3/arm-zephyr-eabi/picolibc/include/machine/_default_types.h"
	.file 8 "/home/g/zephyr-sdk-0.16.3/arm-zephyr-eabi/picolibc/include/sys/_stdint.h"
	.file 9 "/home/g/mise-work/zmk-firmware/zmk/zephyr/include/zephyr/init.h"
	.file 10 "/home/g/mise-work/zmk-firmware/zmk/zephyr/include/zephyr/device.h"
	.file 11 "/home/g/mise-work/zmk-firmware/zmk/zephyr/include/zephyr/fatal_types.h"
	.file 12 "/home/g/mise-work/zmk-firmware/zmk/app/include/zmk/behavior.h"
	.file 13 "/home/g/mise-work/zmk-firmware/zmk/zephyr/include/zephyr/logging/log_instance.h"
	.file 14 "/home/g/mise-work/zmk-firmware/zmk/zephyr/include/zephyr/sys/cbprintf.h"
	.file 15 "/home/g/mise-work/zmk-firmware/zmk/zephyr/include/zephyr/logging/log_msg.h"
	.file 16 "/home/g/mise-work/zmk-firmware/zmk/app/include/zmk/event_manager.h"
	.file 17 "/home/g/mise-work/zmk-firmware/zmk/app/include/zmk/events/position_state_changed.h"
	.file 18 "/home/g/mise-work/zmk-firmware/zmk/app/include/zmk/keymap.h"
	.file 19 "/home/g/mise-work/zmk-firmware/zmk/app/include/zmk/physical_layouts.h"
	.file 20 "/home/g/mise-work/zmk-firmware/zmk/zephyr/include/zephyr/sys/cbprintf_internal.h"
	.file 21 "/home/g/mise-work/zmk-firmware/zmk/zephyr/include/zephyr/syscall.h"