	.cpu cortex-m4
	.arch armv7e-m
	.fpu fpv4-sp-d16
	.eabi_attribute 27, 1
	.eabi_attribute 28, 1
	.eabi_attribute 20, 1
	.eabi_attribute 21, 1
	.eabi_attribute 23, 3
	.eabi_attribute 24, 1
	.eabi_attribute 25, 1
	.eabi_attribute 26, 1
	.eabi_attribute 30, 4
	.eabi_attribute 34, 1
	.eabi_attribute 38, 1
	.eabi_attribute 18, 4
	.file	"physical_layouts.c"
	.text
.Ltext0:
	.cfi_sections	.debug_frame
	.file 1 "/home/g/mise-work/zmk-firmware/zmk/app/src/physical_layouts.c"
	.section	.text.zmk_physical_layout_kscan_callback,"ax",%progbits
	.align	1
	.syntax unified
	.thumb
	.thumb_func
	.type	zmk_physical_layout_kscan_callback, %function
zmk_physical_layout_kscan_callback:
.LVL0:
.LFB500:
	.loc 1 184 78 view -0
	.cfi_startproc
	@ args = 0, pretend = 0, frame = 16
	@ frame_needed = 0, uses_anonymous_args = 0
	.loc 1 185 5 view .LVU1
	.loc 1 184 78 is_stmt 0 view .LVU2
	push	{r0, r1, r2, r3, r4, lr}
	.cfi_def_cfa_offset 24
	.cfi_offset 4, -8
	.cfi_offset 14, -4
	.loc 1 185 22 view .LVU3
	ldr	r4, .L3
	ldr	r4, [r4]
	.loc 1 185 8 view .LVU4
	ldr	r4, [r4, #8]
	cmp	r4, r0
	bne	.L1
.LVL1:
.LBB394:
.LBI394:
	.loc 1 183 13 is_stmt 1 view .LVU5
.LBB395:
	.loc 1 189 5 view .LVU6
	.loc 1 192 31 is_stmt 0 view .LVU7
	eor	r3, r3, #1
.LVL2:
	.loc 1 189 28 view .LVU8
	strd	r1, r2, [sp, #4]
	.loc 1 192 31 view .LVU9
	str	r3, [sp, #12]
	.loc 1 194 5 is_stmt 1 view .LVU10
.LVL3:
.LBB396:
.LBI396:
	.file 2 "/home/g/mise-work/zmk-firmware/zmk/app/build/zephyr/include/generated/syscalls/kernel.h"
	.loc 2 1178 19 view .LVU11
.LBB397:
	.loc 2 1188 2 view .LVU12
	.loc 2 1188 7 view .LVU13
	.loc 2 1188 5 view .LVU14
	.loc 2 1189 2 view .LVU15
	.loc 2 1189 9 is_stmt 0 view .LVU16
	ldr	r0, .L3+4
.LVL4:
	.loc 2 1189 9 view .LVU17
	movs	r2, #0
.LVL5:
	.loc 2 1189 9 view .LVU18
	movs	r3, #0
	add	r1, sp, #4
.LVL6:
	.loc 2 1189 9 view .LVU19
	bl	z_impl_k_msgq_put
.LVL7:
	.loc 2 1189 9 view .LVU20
.LBE397:
.LBE396:
	.loc 1 195 5 is_stmt 1 view .LVU21
	ldr	r0, .L3+8
	bl	k_work_submit
.LVL8:
.L1:
	.loc 1 195 5 is_stmt 0 view .LVU22
.LBE395:
.LBE394:
	.loc 1 196 1 view .LVU23
	add	sp, sp, #16
	.cfi_def_cfa_offset 8
	@ sp needed
	pop	{r4, pc}
.L4:
	.align	2
.L3:
	.word	active
	.word	physical_layouts_kscan_msgq
	.word	msg_processor
	.cfi_endproc
.LFE500:
	.size	zmk_physical_layout_kscan_callback, .-zmk_physical_layout_kscan_callback
	.section	.rodata.zmk_physical_layouts_kscan_process_msgq.str1.1,"aMS",%progbits,1
.LC0:
	.ascii	"true\000"
.LC1:
	.ascii	"false\000"
.LC2:
	.ascii	"Not found in transform: row: %d, col: %d, pressed: "
	.ascii	"%s\000"
.LC3:
	.ascii	"%s: Row: %d, col: %d, position: %d, pressed: %s\000"
	.section	.text.zmk_physical_layouts_kscan_process_msgq,"ax",%progbits
	.align	1
	.syntax unified
	.thumb
	.thumb_func
	.type	zmk_physical_layouts_kscan_process_msgq, %function
zmk_physical_layouts_kscan_process_msgq:
.LVL9:
.LFB501:
	.loc 1 198 74 is_stmt 1 view -0
	.cfi_startproc
	@ args = 0, pretend = 0, frame = 40
	@ frame_needed = 1, uses_anonymous_args = 0
	.loc 1 199 5 view .LVU25
	.loc 1 201 5 view .LVU26
	.loc 1 198 74 is_stmt 0 view .LVU27
	push	{r4, r5, r6, r7, r8, r9, r10, fp, lr}
	.cfi_def_cfa_offset 36
	.cfi_offset 4, -36
	.cfi_offset 5, -32
	.cfi_offset 6, -28
	.cfi_offset 7, -24
	.cfi_offset 8, -20
	.cfi_offset 9, -16
	.cfi_offset 10, -12
	.cfi_offset 11, -8
	.cfi_offset 14, -4
.LBB438:
.LBB439:
.LBB440:
	.loc 2 1207 9 view .LVU28
	ldr	r8, .L14+24
.LBE440:
.LBE439:
.LBB442:
	.loc 1 203 78 view .LVU29
	ldr	r9, .L14+28
.LBB443:
.LBB444:
	.loc 1 212 201 view .LVU30
	ldr	r6, .L14
.LBE444:
.LBE443:
.LBE442:
.LBE438:
	.loc 1 198 74 view .LVU31
	sub	sp, sp, #52
	.cfi_def_cfa_offset 88
	add	r7, sp, #8
	.cfi_def_cfa 7, 80
.LVL10:
.L6:
.LBB562:
	.loc 1 201 79 is_stmt 1 view .LVU32
.LBB550:
.LBI439:
	.loc 2 1196 19 view .LVU33
.LBB441:
	.loc 2 1206 2 view .LVU34
	.loc 2 1206 7 view .LVU35
	.loc 2 1206 5 view .LVU36
	.loc 2 1207 2 view .LVU37
	.loc 2 1207 9 is_stmt 0 view .LVU38
	movs	r2, #0
	movs	r3, #0
	adds	r1, r7, #4
.LVL11:
	.loc 2 1207 9 view .LVU39
	mov	r0, r8
	bl	z_impl_k_msgq_get
.LVL12:
	.loc 2 1207 9 view .LVU40
.LBE441:
.LBE550:
	.loc 1 201 79 view .LVU41
	mov	fp, r0
	cbz	r0, .L11
.LBE562:
	.loc 1 220 1 view .LVU42
	adds	r7, r7, #44
	.cfi_remember_state
	.cfi_def_cfa_offset 36
	mov	sp, r7
	.cfi_def_cfa_register 13
	@ sp needed
	pop	{r4, r5, r6, r7, r8, r9, r10, fp, pc}
.L11:
	.cfi_restore_state
.LBB563:
.LBB551:
	.loc 1 202 8 is_stmt 1 view .LVU43
	.loc 1 203 78 is_stmt 0 view .LVU44
	ldr	r3, [r9]
	.loc 1 202 26 view .LVU45
	ldr	r4, [r7, #12]
.LVL13:
	.loc 1 203 9 is_stmt 1 view .LVU46
	.loc 1 203 28 is_stmt 0 view .LVU47
	ldr	r0, [r3, #4]
	ldrd	r1, r2, [r7, #4]
	bl	zmk_matrix_transform_row_column_to_position
.LVL14:
	.loc 1 206 9 is_stmt 1 view .LVU48
.LBB498:
.LBB499:
	.loc 1 207 121 is_stmt 0 view .LVU49
	ldr	r3, .L14+4
	cmp	r4, #0
	it	ne
	movne	r3, r6
.LBE499:
.LBE498:
	.loc 1 206 12 view .LVU50
	subs	r5, r0, #0
	ldrd	r0, r1, [r7, #4]
.LVL15:
	.loc 1 206 12 view .LVU51
	bge	.L7
	.loc 1 207 13 is_stmt 1 view .LVU52
.LBB532:
	.loc 1 207 18 view .LVU53
	.loc 1 207 67 view .LVU54
	.loc 1 207 24 view .LVU55
	.loc 1 207 12 view .LVU56
.LVL16:
	.loc 1 207 51 view .LVU57
	.loc 1 207 186 view .LVU58
	.loc 1 207 197 view .LVU59
	.loc 1 207 285 view .LVU60
.LBB527:
	.loc 1 207 13 view .LVU61
	.loc 1 207 15 view .LVU62
	.loc 1 207 48 view .LVU63
	.loc 1 207 84 view .LVU64
	.loc 1 207 13 view .LVU65
.LBB500:
	.loc 1 207 18 view .LVU66
	.loc 1 207 12 view .LVU67
.LBE500:
.LBE527:
.LBE532:
.LBE551:
.LBE563:
	.loc 1 207 13 view .LVU68
	.loc 1 207 22 view .LVU69
	.loc 1 207 117 view .LVU70
	.loc 1 207 13 view .LVU71
.LBB564:
.LBB552:
.LBB533:
.LBB528:
.LBB523:
	.loc 1 207 22 view .LVU72
	.loc 1 207 112 view .LVU73
	.loc 1 207 114 view .LVU74
.LBB501:
	.loc 1 207 117 is_stmt 0 view .LVU75
	mov	r4, sp
.LVL17:
	.loc 1 207 119 is_stmt 1 view .LVU76
	.loc 1 207 130 view .LVU77
	.loc 1 207 219 view .LVU78
	.loc 1 207 36 view .LVU79
.LBE501:
.LBE523:
.LBE528:
.LBE533:
.LBE552:
.LBE564:
	.loc 1 207 13 view .LVU80
	.loc 1 207 378 view .LVU81
	.loc 1 207 85 view .LVU82
	.loc 1 207 12 view .LVU83
	.loc 1 207 12 view .LVU84
	.loc 1 207 12 view .LVU85
	.loc 1 207 48 view .LVU86
	.loc 1 207 14 view .LVU87
	.loc 1 207 40 view .LVU88
	.loc 1 207 66 view .LVU89
	.loc 1 207 1425 view .LVU90
	.loc 1 207 1487 view .LVU91
	.loc 1 207 2940 view .LVU92
	.loc 1 207 3005 view .LVU93
	.loc 1 207 3030 view .LVU94
	.loc 1 207 3031 view .LVU95
	.loc 1 207 3033 view .LVU96
	.loc 1 207 3063 view .LVU97
	.loc 1 207 3093 view .LVU98
	.loc 1 207 3125 view .LVU99
	.loc 1 207 3157 view .LVU100
	.loc 1 207 3189 view .LVU101
	.loc 1 207 3386 view .LVU102
	.loc 1 207 3410 view .LVU103
	.loc 1 207 3411 view .LVU104
	.loc 1 207 3413 view .LVU105
	.loc 1 207 3442 view .LVU106
	.loc 1 207 3471 view .LVU107
	.loc 1 207 3502 view .LVU108
	.loc 1 207 3533 view .LVU109
	.loc 1 207 3564 view .LVU110
	.loc 1 207 3771 view .LVU111
	.loc 1 207 14 view .LVU112
	.loc 1 207 32 view .LVU113
	.loc 1 207 52 view .LVU114
	.loc 1 207 14 view .LVU115
	.loc 1 207 52 view .LVU116
	.loc 1 207 23 view .LVU117
	.loc 1 207 23 view .LVU118
	.loc 1 207 71 view .LVU119
	.loc 1 207 102 view .LVU120
	.loc 1 207 136 view .LVU121
	.loc 1 207 141 view .LVU122
	.loc 1 207 418 view .LVU123
	.loc 1 207 1579 view .LVU124
	.loc 1 207 1644 view .LVU125
	.loc 1 207 1668 view .LVU126
	.loc 1 207 1749 view .LVU127
	.loc 1 207 1760 view .LVU128
	.loc 1 207 1899 view .LVU129
	.loc 1 207 1915 view .LVU130
	.loc 1 207 1955 view .LVU131
	.loc 1 207 1980 view .LVU132
	.loc 1 207 3323 view .LVU133
	.loc 1 207 3364 view .LVU134
	.loc 1 207 17 view .LVU135
	.loc 1 207 40 view .LVU136
	.loc 1 207 139 view .LVU137
	.loc 1 207 16 view .LVU138
	.loc 1 207 21 view .LVU139
	.loc 1 207 246 view .LVU140
	.loc 1 207 1199 view .LVU141
	.loc 1 207 1264 view .LVU142
	.loc 1 207 1288 view .LVU143
	.loc 1 207 1317 view .LVU144
	.loc 1 207 1328 view .LVU145
	.loc 1 207 1415 view .LVU146
	.loc 1 207 1431 view .LVU147
	.loc 1 207 1471 view .LVU148
	.loc 1 207 2735 view .LVU149
	.loc 1 207 2776 view .LVU150
	.loc 1 207 17 view .LVU151
	.loc 1 207 40 view .LVU152
	.loc 1 207 19 view .LVU153
	.loc 1 207 16 view .LVU154
	.loc 1 207 21 view .LVU155
	.loc 1 207 246 view .LVU156
	.loc 1 207 1199 view .LVU157
	.loc 1 207 1264 view .LVU158
	.loc 1 207 1288 view .LVU159
	.loc 1 207 1317 view .LVU160
	.loc 1 207 1328 view .LVU161
	.loc 1 207 1415 view .LVU162
	.loc 1 207 1431 view .LVU163
	.loc 1 207 1471 view .LVU164
	.loc 1 207 2735 view .LVU165
	.loc 1 207 2776 view .LVU166
	.loc 1 207 17 view .LVU167
	.loc 1 207 40 view .LVU168
	.loc 1 207 19 view .LVU169
	.loc 1 207 16 view .LVU170
	.loc 1 207 21 view .LVU171
	.loc 1 207 246 view .LVU172
	.loc 1 207 1199 view .LVU173
	.loc 1 207 1264 view .LVU174
	.loc 1 207 1288 view .LVU175
	.loc 1 207 1317 view .LVU176
	.loc 1 207 1328 view .LVU177
	.loc 1 207 1415 view .LVU178
	.loc 1 207 1431 view .LVU179
	.loc 1 207 1471 view .LVU180
	.loc 1 207 1561 view .LVU181
	.loc 1 207 1964 view .LVU182
	.loc 1 207 2621 view .LVU183
	.loc 1 207 2640 view .LVU184
	.loc 1 207 2677 view .LVU185
	.loc 1 207 2735 view .LVU186
	.loc 1 207 2776 view .LVU187
	.loc 1 207 17 view .LVU188
	.loc 1 207 40 view .LVU189
	.loc 1 207 19 view .LVU190
	.loc 1 207 15 view .LVU191
	.loc 1 207 38 view .LVU192
	.loc 1 207 62 view .LVU193
	.loc 1 207 90 view .LVU194
	.loc 1 207 266 view .LVU195
	.loc 1 207 26 view .LVU196
.LBB565:
.LBB553:
.LBB534:
.LBB529:
.LBB524:
.LBB520:
	.loc 1 207 39 view .LVU197
	.loc 1 207 13 view .LVU198
	.loc 1 207 13 view .LVU199
	.loc 1 207 80 view .LVU200
	.loc 1 207 92 is_stmt 0 view .LVU201
	sub	sp, sp, #40
	add	r2, sp, #8
.LVL18:
	.loc 1 207 84 is_stmt 1 view .LVU202
	.loc 1 207 494 view .LVU203
	.loc 1 207 15 view .LVU204
	.loc 1 207 17 view .LVU205
	.loc 1 207 22 view .LVU206
	.loc 1 207 20 view .LVU207
	.loc 1 207 15 view .LVU208
	.loc 1 207 33 view .LVU209
.LBB502:
	.loc 1 207 13 view .LVU210
	.loc 1 207 378 view .LVU211
	.loc 1 207 85 view .LVU212
.LVL19:
	.loc 1 207 12 view .LVU213
	.loc 1 207 12 view .LVU214
	.loc 1 207 12 view .LVU215
	.loc 1 207 48 view .LVU216
	.loc 1 207 77 view .LVU217
	.loc 1 207 103 view .LVU218
	.loc 1 207 129 view .LVU219
	.loc 1 207 1488 view .LVU220
	.loc 1 207 1550 view .LVU221
	.loc 1 207 3003 view .LVU222
	.loc 1 207 3068 view .LVU223
	.loc 1 207 3093 view .LVU224
	.loc 1 207 3094 view .LVU225
	.loc 1 207 3096 view .LVU226
	.loc 1 207 3126 view .LVU227
	.loc 1 207 3156 view .LVU228
	.loc 1 207 3188 view .LVU229
	.loc 1 207 3220 view .LVU230
	.loc 1 207 3252 view .LVU231
	.loc 1 207 3449 view .LVU232
	.loc 1 207 3473 view .LVU233
	.loc 1 207 3474 view .LVU234
	.loc 1 207 3476 view .LVU235
	.loc 1 207 3505 view .LVU236
	.loc 1 207 3534 view .LVU237
	.loc 1 207 3565 view .LVU238
	.loc 1 207 3596 view .LVU239
	.loc 1 207 3627 view .LVU240
	.loc 1 207 3834 view .LVU241
.LBB503:
	.loc 1 207 3361 view .LVU242
	.loc 1 207 3366 view .LVU243
	.loc 1 207 0 view .LVU244
	ldr	r5, .L14+8
.LVL20:
	.loc 1 207 0 is_stmt 0 view .LVU245
.LBE503:
.LBB504:
	.loc 1 207 3821 view .LVU246
	strd	r1, r3, [r2, #28]
.LBE504:
.LBB505:
.LBB506:
	.loc 1 207 237 view .LVU247
	movw	r3, #1026
.LVL21:
	.loc 1 207 237 view .LVU248
	strh	r3, [r2, #36]	@ movhi
.LBE506:
.LBE505:
.LBB508:
	.loc 1 207 186 view .LVU249
	ldr	r3, .L14+12
.LBE508:
.LBB509:
	.loc 1 207 3821 view .LVU250
	strd	r5, r0, [r2, #20]
	.loc 1 207 2776 is_stmt 1 view .LVU251
	.loc 1 207 17 view .LVU252
.LVL22:
	.loc 1 207 40 view .LVU253
	.loc 1 207 40 is_stmt 0 view .LVU254
.LBE509:
	.loc 1 207 19 is_stmt 1 view .LVU255
	.loc 1 207 16 view .LVU256
.LBB510:
	.loc 1 207 21 view .LVU257
	.loc 1 207 246 view .LVU258
	.loc 1 207 1199 view .LVU259
	.loc 1 207 1264 view .LVU260
.LBE510:
.LBE502:
.LBE520:
.LBE524:
.LBE529:
.LBE534:
.LBE553:
.LBE565:
	.loc 1 207 1288 view .LVU261
	.loc 1 207 1317 view .LVU262
	.loc 1 207 1328 view .LVU263
	.loc 1 207 1415 view .LVU264
.LBB566:
.LBB554:
.LBB535:
.LBB530:
.LBB525:
.LBB521:
.LBB516:
.LBB511:
	.loc 1 207 1431 view .LVU265
	.loc 1 207 1471 view .LVU266
	.loc 1 207 2735 view .LVU267
	.loc 1 207 2773 view .LVU268
	.loc 1 207 2778 view .LVU269
	.loc 1 207 3222 view .LVU270
.LBE511:
.LBB512:
	.loc 1 207 2776 view .LVU271
	.loc 1 207 17 view .LVU272
	.loc 1 207 40 view .LVU273
	.loc 1 207 40 is_stmt 0 view .LVU274
.LBE512:
	.loc 1 207 19 is_stmt 1 view .LVU275
	.loc 1 207 15 view .LVU276
	.loc 1 207 38 view .LVU277
	.loc 1 207 62 view .LVU278
	.loc 1 207 90 view .LVU279
.LBB513:
	.loc 1 207 16 view .LVU280
	.loc 1 207 55 view .LVU281
.LBE513:
.LBE516:
.LBE521:
.LBE525:
.LBE530:
.LBE535:
.LBE554:
.LBE566:
	.loc 1 207 60 view .LVU282
	.loc 1 207 90 view .LVU283
.LBB567:
.LBB555:
.LBB536:
.LBB531:
.LBB526:
.LBB522:
.LBB517:
.LBB514:
.LBB507:
	.loc 1 207 192 view .LVU284
	.loc 1 207 224 view .LVU285
	.loc 1 207 218 view .LVU286
	.loc 1 207 192 view .LVU287
	.loc 1 207 224 view .LVU288
	.loc 1 207 218 view .LVU289
	.loc 1 207 192 view .LVU290
.LBE507:
.LBE514:
	.loc 1 207 266 view .LVU291
	.loc 1 207 26 view .LVU292
.LBB515:
	.loc 1 207 16 view .LVU293
	.loc 1 207 174 view .LVU294
	.loc 1 207 176 view .LVU295
	.loc 1 207 186 is_stmt 0 view .LVU296
	str	r3, [r2, #16]!
.LVL23:
	.loc 1 207 186 view .LVU297
.LBE515:
.LBE517:
	.loc 1 207 36 is_stmt 1 view .LVU298
	.loc 1 207 17 view .LVU299
	.loc 1 207 157 view .LVU300
	.loc 1 207 159 view .LVU301
.LBB518:
.LBI518:
	.file 3 "/home/g/mise-work/zmk-firmware/zmk/app/build/zephyr/include/generated/syscalls/log_msg.h"
	.loc 3 26 20 view .LVU302
.LBB519:
	.loc 3 38 2 view .LVU303
	.loc 3 38 7 view .LVU304
	.loc 3 38 5 view .LVU305
	.loc 3 39 2 view .LVU306
	ldr	r0, .L14+16
.LVL24:
	.loc 3 39 2 is_stmt 0 view .LVU307
	mov	r3, fp
	mov	r1, #11392
.LVL25:
	.loc 3 39 2 view .LVU308
	bl	z_impl_z_log_msg_static_create
.LVL26:
	.loc 3 39 2 view .LVU309
.LBE519:
.LBE518:
	mov	sp, r4
.LBE522:
	.loc 1 207 117 is_stmt 1 view .LVU310
	.loc 1 207 15 view .LVU311
.LVL27:
	.loc 1 207 52 view .LVU312
.LBE526:
	.loc 1 207 16 view .LVU313
.LBE531:
	.loc 1 207 288 view .LVU314
	.loc 1 207 15 view .LVU315
	.loc 1 207 28 view .LVU316
.LBE536:
	.loc 1 207 16 view .LVU317
	.loc 1 209 13 view .LVU318
	b	.L6
.LVL28:
.L7:
	.loc 1 212 9 view .LVU319
.LBB537:
	.loc 1 212 14 view .LVU320
	.loc 1 212 63 view .LVU321
	.loc 1 212 20 view .LVU322
	.loc 1 212 8 view .LVU323
	.loc 1 212 47 view .LVU324
	.loc 1 212 182 view .LVU325
	.loc 1 212 193 view .LVU326
	.loc 1 212 281 view .LVU327
.LBB489:
	.loc 1 212 9 view .LVU328
	.loc 1 212 11 view .LVU329
	.loc 1 212 60 view .LVU330
	.loc 1 212 93 view .LVU331
	.loc 1 212 129 view .LVU332
	.loc 1 212 164 view .LVU333
	.loc 1 212 9 view .LVU334
.LBB445:
	.loc 1 212 14 view .LVU335
	.loc 1 212 8 view .LVU336
.LBE445:
.LBE489:
.LBE537:
.LBE555:
.LBE567:
	.loc 1 212 9 view .LVU337
	.loc 1 212 18 view .LVU338
	.loc 1 212 113 view .LVU339
	.loc 1 212 9 view .LVU340
.LBB568:
.LBB556:
.LBB538:
.LBB490:
.LBB481:
	.loc 1 212 18 view .LVU341
	.loc 1 212 108 view .LVU342
	.loc 1 212 110 view .LVU343
.LBB446:
	.loc 1 212 113 is_stmt 0 view .LVU344
	mov	r10, sp
	.loc 1 212 115 is_stmt 1 view .LVU345
	.loc 1 212 126 view .LVU346
.LVL29:
	.loc 1 212 215 view .LVU347
	.loc 1 212 32 view .LVU348
.LBE446:
.LBE481:
.LBE490:
.LBE538:
.LBE556:
.LBE568:
	.loc 1 212 9 view .LVU349
	.loc 1 212 374 view .LVU350
	.loc 1 212 81 view .LVU351
	.loc 1 212 8 view .LVU352
	.loc 1 212 8 view .LVU353
	.loc 1 212 8 view .LVU354
	.loc 1 212 44 view .LVU355
	.loc 1 212 10 view .LVU356
	.loc 1 212 36 view .LVU357
	.loc 1 212 62 view .LVU358
	.loc 1 212 2313 view .LVU359
	.loc 1 212 2375 view .LVU360
	.loc 1 212 0 view .LVU361
	.loc 1 212 0 view .LVU362
	.loc 1 212 0 view .LVU363
	.loc 1 212 0 view .LVU364
	.loc 1 212 0 view .LVU365
	.loc 1 212 0 view .LVU366
	.loc 1 212 0 view .LVU367
	.loc 1 212 0 view .LVU368
	.loc 1 212 0 view .LVU369
	.loc 1 212 0 view .LVU370
	.loc 1 212 0 view .LVU371
	.loc 1 212 0 view .LVU372
	.loc 1 212 0 view .LVU373
	.loc 1 212 0 view .LVU374
	.loc 1 212 0 view .LVU375
	.loc 1 212 0 view .LVU376
	.loc 1 212 0 view .LVU377
	.loc 1 212 0 view .LVU378
	.loc 1 212 0 view .LVU379
	.loc 1 212 0 view .LVU380
	.loc 1 212 10 view .LVU381
	.loc 1 212 28 view .LVU382
	.loc 1 212 48 view .LVU383
	.loc 1 212 10 view .LVU384
	.loc 1 212 48 view .LVU385
	.loc 1 212 19 view .LVU386
	.loc 1 212 19 view .LVU387
	.loc 1 212 67 view .LVU388
	.loc 1 212 98 view .LVU389
	.loc 1 212 132 view .LVU390
	.loc 1 212 137 view .LVU391
	.loc 1 212 411 view .LVU392
	.loc 1 212 1560 view .LVU393
	.loc 1 212 1625 view .LVU394
	.loc 1 212 1649 view .LVU395
	.loc 1 212 1727 view .LVU396
	.loc 1 212 1738 view .LVU397
	.loc 1 212 1874 view .LVU398
	.loc 1 212 1890 view .LVU399
	.loc 1 212 1930 view .LVU400
	.loc 1 212 1955 view .LVU401
	.loc 1 212 3292 view .LVU402
	.loc 1 212 3333 view .LVU403
	.loc 1 212 13 view .LVU404
	.loc 1 212 36 view .LVU405
	.loc 1 212 135 view .LVU406
	.loc 1 212 12 view .LVU407
	.loc 1 212 17 view .LVU408
	.loc 1 212 242 view .LVU409
	.loc 1 212 1195 view .LVU410
	.loc 1 212 1260 view .LVU411
	.loc 1 212 1284 view .LVU412
	.loc 1 212 1313 view .LVU413
	.loc 1 212 1324 view .LVU414
	.loc 1 212 1411 view .LVU415
	.loc 1 212 1427 view .LVU416
	.loc 1 212 1467 view .LVU417
	.loc 1 212 1492 view .LVU418
	.loc 1 212 2731 view .LVU419
	.loc 1 212 2772 view .LVU420
	.loc 1 212 13 view .LVU421
	.loc 1 212 36 view .LVU422
	.loc 1 212 15 view .LVU423
	.loc 1 212 12 view .LVU424
	.loc 1 212 17 view .LVU425
	.loc 1 212 242 view .LVU426
	.loc 1 212 1195 view .LVU427
	.loc 1 212 1260 view .LVU428
	.loc 1 212 1284 view .LVU429
	.loc 1 212 1313 view .LVU430
	.loc 1 212 1324 view .LVU431
	.loc 1 212 1411 view .LVU432
	.loc 1 212 1427 view .LVU433
	.loc 1 212 1467 view .LVU434
	.loc 1 212 2731 view .LVU435
	.loc 1 212 2772 view .LVU436
	.loc 1 212 13 view .LVU437
	.loc 1 212 36 view .LVU438
	.loc 1 212 15 view .LVU439
	.loc 1 212 12 view .LVU440
	.loc 1 212 17 view .LVU441
	.loc 1 212 242 view .LVU442
	.loc 1 212 1195 view .LVU443
	.loc 1 212 1260 view .LVU444
	.loc 1 212 1284 view .LVU445
	.loc 1 212 1313 view .LVU446
	.loc 1 212 1324 view .LVU447
	.loc 1 212 1411 view .LVU448
	.loc 1 212 1427 view .LVU449
	.loc 1 212 1467 view .LVU450
	.loc 1 212 2731 view .LVU451
	.loc 1 212 2772 view .LVU452
	.loc 1 212 13 view .LVU453
	.loc 1 212 36 view .LVU454
	.loc 1 212 15 view .LVU455
	.loc 1 212 12 view .LVU456
	.loc 1 212 17 view .LVU457
	.loc 1 212 242 view .LVU458
	.loc 1 212 1195 view .LVU459
	.loc 1 212 1260 view .LVU460
	.loc 1 212 1284 view .LVU461
	.loc 1 212 1313 view .LVU462
	.loc 1 212 1324 view .LVU463
	.loc 1 212 1411 view .LVU464
	.loc 1 212 1427 view .LVU465
	.loc 1 212 1467 view .LVU466
	.loc 1 212 2731 view .LVU467
	.loc 1 212 2772 view .LVU468
	.loc 1 212 13 view .LVU469
	.loc 1 212 36 view .LVU470
	.loc 1 212 15 view .LVU471
	.loc 1 212 12 view .LVU472
	.loc 1 212 17 view .LVU473
	.loc 1 212 242 view .LVU474
	.loc 1 212 1195 view .LVU475
	.loc 1 212 1260 view .LVU476
	.loc 1 212 1284 view .LVU477
	.loc 1 212 1313 view .LVU478
	.loc 1 212 1324 view .LVU479
	.loc 1 212 1411 view .LVU480
	.loc 1 212 1427 view .LVU481
	.loc 1 212 1467 view .LVU482
	.loc 1 212 1557 view .LVU483
	.loc 1 212 1960 view .LVU484
	.loc 1 212 2617 view .LVU485
	.loc 1 212 2636 view .LVU486
	.loc 1 212 2673 view .LVU487
	.loc 1 212 2731 view .LVU488
	.loc 1 212 2772 view .LVU489
	.loc 1 212 13 view .LVU490
	.loc 1 212 36 view .LVU491
	.loc 1 212 15 view .LVU492
	.loc 1 212 11 view .LVU493
	.loc 1 212 34 view .LVU494
	.loc 1 212 58 view .LVU495
	.loc 1 212 86 view .LVU496
	.loc 1 212 262 view .LVU497
	.loc 1 212 22 view .LVU498
.LBB569:
.LBB557:
.LBB539:
.LBB491:
.LBB482:
.LBB474:
	.loc 1 212 35 view .LVU499
	.loc 1 212 9 view .LVU500
	.loc 1 212 9 view .LVU501
	.loc 1 212 76 view .LVU502
	.loc 1 212 88 is_stmt 0 view .LVU503
	sub	sp, sp, #48
	add	r2, sp, #8
.LVL30:
	.loc 1 212 80 is_stmt 1 view .LVU504
	.loc 1 212 490 view .LVU505
	.loc 1 212 11 view .LVU506
	.loc 1 212 13 view .LVU507
	.loc 1 212 18 view .LVU508
	.loc 1 212 16 view .LVU509
	.loc 1 212 11 view .LVU510
	.loc 1 212 29 view .LVU511
.LBB447:
	.loc 1 212 9 view .LVU512
	.loc 1 212 374 view .LVU513
	.loc 1 212 81 view .LVU514
.LVL31:
	.loc 1 212 8 view .LVU515
	.loc 1 212 8 view .LVU516
	.loc 1 212 8 view .LVU517
	.loc 1 212 44 view .LVU518
	.loc 1 212 73 view .LVU519
	.loc 1 212 99 view .LVU520
	.loc 1 212 125 view .LVU521
	.loc 1 212 2376 view .LVU522
	.loc 1 212 2438 view .LVU523
	.loc 1 212 0 view .LVU524
	.loc 1 212 0 view .LVU525
	.loc 1 212 0 view .LVU526
	.loc 1 212 0 view .LVU527
	.loc 1 212 0 view .LVU528
	.loc 1 212 0 view .LVU529
	.loc 1 212 0 view .LVU530
	.loc 1 212 0 view .LVU531
	.loc 1 212 0 view .LVU532
	.loc 1 212 0 view .LVU533
	.loc 1 212 0 view .LVU534
	.loc 1 212 0 view .LVU535
	.loc 1 212 0 view .LVU536
	.loc 1 212 0 view .LVU537
	.loc 1 212 0 view .LVU538
	.loc 1 212 0 view .LVU539
	.loc 1 212 0 view .LVU540
	.loc 1 212 0 view .LVU541
	.loc 1 212 0 view .LVU542
	.loc 1 212 0 view .LVU543
.LBB448:
	.loc 1 212 3330 view .LVU544
	.loc 1 212 3335 view .LVU545
	.loc 1 212 4073 view .LVU546
	.loc 1 212 0 is_stmt 0 view .LVU547
	ldr	ip, .L14+32
	str	ip, [r2, #20]
	.loc 1 212 3333 is_stmt 1 view .LVU548
	.loc 1 212 13 view .LVU549
.LVL32:
	.loc 1 212 36 view .LVU550
	.loc 1 212 36 is_stmt 0 view .LVU551
.LBE448:
	.loc 1 212 135 is_stmt 1 view .LVU552
	.loc 1 212 12 view .LVU553
.LBB449:
	.loc 1 212 17 view .LVU554
	.loc 1 212 242 view .LVU555
	.loc 1 212 1195 view .LVU556
	.loc 1 212 1260 view .LVU557
.LBE449:
.LBE447:
.LBE474:
.LBE482:
.LBE491:
.LBE539:
.LBE557:
.LBE569:
	.loc 1 212 1284 view .LVU558
	.loc 1 212 1313 view .LVU559
	.loc 1 212 1324 view .LVU560
	.loc 1 212 1411 view .LVU561
.LBB570:
.LBB558:
.LBB540:
.LBB492:
.LBB483:
.LBB475:
.LBB466:
.LBB450:
	.loc 1 212 1427 view .LVU562
	.loc 1 212 1467 view .LVU563
	.loc 1 212 1492 view .LVU564
	.loc 1 212 2731 view .LVU565
	.loc 1 212 2769 view .LVU566
	.loc 1 212 2774 view .LVU567
	.loc 1 212 3218 view .LVU568
.LBE450:
.LBB451:
	.loc 1 212 3817 is_stmt 0 view .LVU569
	str	r3, [r2, #40]
.LBE451:
.LBB452:
	.loc 1 212 3817 view .LVU570
	ldr	ip, .L14+36
.LBE452:
.LBB453:
.LBB454:
	.loc 1 212 233 view .LVU571
	movw	r3, #1540
.LVL33:
	.loc 1 212 233 view .LVU572
	strh	r3, [r2, #44]	@ movhi
.LBE454:
.LBE453:
.LBB456:
	.loc 1 212 182 view .LVU573
	ldr	r3, .L14+20
.LBE456:
.LBB457:
	.loc 1 212 3817 view .LVU574
	strd	ip, r0, [r2, #24]
	.loc 1 212 2772 is_stmt 1 view .LVU575
	.loc 1 212 13 view .LVU576
.LVL34:
	.loc 1 212 36 view .LVU577
	.loc 1 212 36 is_stmt 0 view .LVU578
.LBE457:
	.loc 1 212 15 is_stmt 1 view .LVU579
	.loc 1 212 12 view .LVU580
.LBB458:
	.loc 1 212 17 view .LVU581
	.loc 1 212 242 view .LVU582
	.loc 1 212 1195 view .LVU583
	.loc 1 212 1260 view .LVU584
.LBE458:
.LBE466:
.LBE475:
.LBE483:
.LBE492:
.LBE540:
.LBE558:
.LBE570:
	.loc 1 212 1284 view .LVU585
	.loc 1 212 1313 view .LVU586
	.loc 1 212 1324 view .LVU587
	.loc 1 212 1411 view .LVU588
.LBB571:
.LBB559:
.LBB541:
.LBB493:
.LBB484:
.LBB476:
.LBB467:
.LBB459:
	.loc 1 212 1427 view .LVU589
	.loc 1 212 1467 view .LVU590
	.loc 1 212 2731 view .LVU591
	.loc 1 212 2769 view .LVU592
	.loc 1 212 2774 view .LVU593
	.loc 1 212 3218 view .LVU594
.LBE459:
.LBB460:
	.loc 1 212 3817 is_stmt 0 view .LVU595
	strd	r1, r5, [r2, #32]
	.loc 1 212 2772 is_stmt 1 view .LVU596
	.loc 1 212 13 view .LVU597
.LVL35:
	.loc 1 212 36 view .LVU598
	.loc 1 212 36 is_stmt 0 view .LVU599
.LBE460:
	.loc 1 212 15 is_stmt 1 view .LVU600
	.loc 1 212 12 view .LVU601
.LBB461:
	.loc 1 212 17 view .LVU602
	.loc 1 212 242 view .LVU603
	.loc 1 212 1195 view .LVU604
	.loc 1 212 1260 view .LVU605
.LBE461:
.LBE467:
.LBE476:
.LBE484:
.LBE493:
.LBE541:
.LBE559:
.LBE571:
	.loc 1 212 1284 view .LVU606
	.loc 1 212 1313 view .LVU607
	.loc 1 212 1324 view .LVU608
	.loc 1 212 1411 view .LVU609
.LBB572:
.LBB560:
.LBB542:
.LBB494:
.LBB485:
.LBB477:
.LBB468:
.LBB462:
	.loc 1 212 1427 view .LVU610
	.loc 1 212 1467 view .LVU611
	.loc 1 212 1557 view .LVU612
	.loc 1 212 1960 view .LVU613
	.loc 1 212 2617 view .LVU614
	.loc 1 212 2636 view .LVU615
	.loc 1 212 2673 view .LVU616
	.loc 1 212 2731 view .LVU617
	.loc 1 212 2769 view .LVU618
	.loc 1 212 2774 view .LVU619
	.loc 1 212 3218 view .LVU620
	.loc 1 212 2772 view .LVU621
	.loc 1 212 13 view .LVU622
	.loc 1 212 36 view .LVU623
	.loc 1 212 36 is_stmt 0 view .LVU624
.LBE462:
	.loc 1 212 15 is_stmt 1 view .LVU625
	.loc 1 212 11 view .LVU626
	.loc 1 212 34 view .LVU627
	.loc 1 212 58 view .LVU628
	.loc 1 212 86 view .LVU629
.LBB463:
	.loc 1 212 12 view .LVU630
	.loc 1 212 51 view .LVU631
.LBE463:
.LBE468:
.LBE477:
.LBE485:
.LBE494:
.LBE542:
.LBE560:
.LBE572:
	.loc 1 212 56 view .LVU632
	.loc 1 212 86 view .LVU633
.LBB573:
.LBB561:
.LBB543:
.LBB495:
.LBB486:
.LBB478:
.LBB469:
.LBB464:
.LBB455:
	.loc 1 212 188 view .LVU634
	.loc 1 212 220 view .LVU635
	.loc 1 212 214 view .LVU636
	.loc 1 212 188 view .LVU637
	.loc 1 212 220 view .LVU638
	.loc 1 212 214 view .LVU639
	.loc 1 212 188 view .LVU640
.LBE455:
.LBE464:
	.loc 1 212 262 view .LVU641
	.loc 1 212 22 view .LVU642
.LBB465:
	.loc 1 212 12 view .LVU643
	.loc 1 212 170 view .LVU644
	.loc 1 212 172 view .LVU645
	.loc 1 212 182 is_stmt 0 view .LVU646
	str	r3, [r2, #16]!
.LVL36:
	.loc 1 212 182 view .LVU647
.LBE465:
.LBE469:
	.loc 1 212 32 is_stmt 1 view .LVU648
	.loc 1 212 13 view .LVU649
	.loc 1 212 153 view .LVU650
	.loc 1 212 155 view .LVU651
.LBB470:
.LBI470:
	.loc 3 26 20 view .LVU652
.LBB471:
	.loc 3 38 2 view .LVU653
	.loc 3 38 7 view .LVU654
	.loc 3 38 5 view .LVU655
	.loc 3 39 2 view .LVU656
	ldr	r0, .L14+16
.LVL37:
	.loc 3 39 2 is_stmt 0 view .LVU657
	mov	r3, fp
	mov	r1, #15616
.LVL38:
	.loc 3 39 2 view .LVU658
.LBE471:
.LBE470:
.LBE478:
.LBE486:
.LBE495:
.LBE543:
	.loc 1 202 13 view .LVU659
	clz	r4, r4
.LVL39:
.LBB544:
.LBB496:
.LBB487:
.LBB479:
.LBB473:
.LBB472:
	.loc 3 39 2 view .LVU660
	bl	z_impl_z_log_msg_static_create
.LVL40:
	.loc 3 39 2 view .LVU661
.LBE472:
.LBE473:
.LBE479:
.LBE487:
.LBE496:
.LBE544:
	.loc 1 215 48 view .LVU662
	movs	r3, #255
	.loc 1 202 13 view .LVU663
	lsrs	r4, r4, #5
.LBB545:
.LBB497:
.LBB488:
.LBB480:
	mov	sp, r10
.LBE480:
	.loc 1 212 113 is_stmt 1 view .LVU664
	.loc 1 212 11 view .LVU665
.LVL41:
	.loc 1 212 48 view .LVU666
.LBE488:
	.loc 1 212 12 view .LVU667
.LBE497:
	.loc 1 212 284 view .LVU668
	.loc 1 212 11 view .LVU669
	.loc 1 212 24 view .LVU670
.LBE545:
	.loc 1 212 12 view .LVU671
	.loc 1 214 9 view .LVU672
	.loc 1 215 48 is_stmt 0 view .LVU673
	strb	r3, [r7, #16]
	str	r5, [r7, #20]
	.loc 1 202 13 view .LVU674
	strb	r4, [r7, #24]
.LBB546:
.LBI546:
	.file 4 "/home/g/mise-work/zmk-firmware/zmk/zephyr/include/zephyr/kernel.h"
	.loc 4 1757 23 is_stmt 1 view .LVU675
.LBB547:
	.loc 4 1759 2 view .LVU676
.LBB548:
.LBI548:
	.loc 2 599 23 view .LVU677
.LBB549:
	.loc 2 608 2 view .LVU678
	.loc 2 608 7 view .LVU679
	.loc 2 608 5 view .LVU680
	.loc 2 609 2 view .LVU681
	.loc 2 609 9 is_stmt 0 view .LVU682
	bl	z_impl_k_uptime_ticks
.LVL42:
.LBE549:
.LBE548:
	.loc 4 1759 51 view .LVU683
	mov	r2, #1000
	umull	r0, r3, r0, r2
	mla	r1, r2, r1, r3
	.loc 4 1759 44 view .LVU684
	lsrs	r0, r0, #15
	orr	r0, r0, r1, lsl #17
	lsrs	r1, r1, #15
.LBE547:
.LBE546:
	.loc 1 215 48 view .LVU685
	strd	r0, r1, [r7, #32]
	.loc 1 214 9 view .LVU686
	add	r3, r7, #40
	ldmdb	r3, {r0, r1}
	stm	sp, {r0, r1}
	add	r3, r7, #16
	ldm	r3, {r0, r1, r2, r3}
	bl	raise_zmk_position_state_changed
.LVL43:
	b	.L6
.L15:
	.align	2
.L14:
	.word	.LC1
	.word	.LC0
	.word	.LC2
	.word	16777221
	.word	log_const_zmk
	.word	16777223
	.word	physical_layouts_kscan_msgq
	.word	active
	.word	.LC3
	.word	__func__.0
.LBE561:
.LBE573:
	.cfi_endproc
.LFE501:
	.size	zmk_physical_layouts_kscan_process_msgq, .-zmk_physical_layouts_kscan_process_msgq
	.section	.text.copy_raised_zmk_physical_layout_selection_changed,"ax",%progbits
	.align	1
	.global	copy_raised_zmk_physical_layout_selection_changed
	.syntax unified
	.thumb
	.thumb_func
	.type	copy_raised_zmk_physical_layout_selection_changed, %function
copy_raised_zmk_physical_layout_selection_changed:
.LVL44:
.LFB496:
	.loc 1 26 254 is_stmt 1 view -0
	.cfi_startproc
	@ args = 0, pretend = 0, frame = 0
	@ frame_needed = 0, uses_anonymous_args = 0
	@ link register save eliminated.
	.loc 1 26 256 view .LVU688
	.loc 1 26 9 view .LVU689
	.loc 1 26 16 is_stmt 0 view .LVU690
	subs	r1, r1, #8
.LVL45:
	.loc 1 26 254 view .LVU691
	mov	r3, r0
	.loc 1 26 16 view .LVU692
	ldm	r1, {r0, r1, r2}
.LVL46:
	.loc 1 26 16 view .LVU693
	stm	r3, {r0, r1, r2}
	.loc 1 26 24 view .LVU694
	mov	r0, r3
	bx	lr
	.cfi_endproc
.LFE496:
	.size	copy_raised_zmk_physical_layout_selection_changed, .-copy_raised_zmk_physical_layout_selection_changed
	.section	.text.raise_zmk_physical_layout_selection_changed,"ax",%progbits
	.align	1
	.global	raise_zmk_physical_layout_selection_changed
	.syntax unified
	.thumb
	.thumb_func
	.type	raise_zmk_physical_layout_selection_changed, %function
raise_zmk_physical_layout_selection_changed:
.LVL47:
.LFB497:
	.loc 1 26 126 is_stmt 1 view -0
	.cfi_startproc
	@ args = 0, pretend = 0, frame = 16
	@ frame_needed = 0, uses_anonymous_args = 0
	.loc 1 26 128 view .LVU696
	.loc 1 26 126 is_stmt 0 view .LVU697
	push	{r0, r1, r2, r3, r4, lr}
	.cfi_def_cfa_offset 24
	.cfi_offset 14, -4
	.loc 1 26 179 view .LVU698
	movs	r3, #0
	strd	r3, r3, [sp, #8]
	ldr	r3, .L18
	strb	r0, [sp, #12]
	.loc 1 26 271 is_stmt 1 view .LVU699
	.loc 1 26 278 is_stmt 0 view .LVU700
	add	r0, sp, #4
.LVL48:
	.loc 1 26 179 view .LVU701
	str	r3, [sp, #4]
	.loc 1 26 278 view .LVU702
	bl	zmk_event_manager_raise
.LVL49:
	.loc 1 26 317 view .LVU703
	add	sp, sp, #20
	.cfi_def_cfa_offset 4
	@ sp needed
	ldr	pc, [sp], #4
.L19:
	.align	2
.L18:
	.word	zmk_event_zmk_physical_layout_selection_changed
	.cfi_endproc
.LFE497:
	.size	raise_zmk_physical_layout_selection_changed, .-raise_zmk_physical_layout_selection_changed
	.section	.text.as_zmk_physical_layout_selection_changed,"ax",%progbits
	.align	1
	.global	as_zmk_physical_layout_selection_changed
	.syntax unified
	.thumb
	.thumb_func
	.type	as_zmk_physical_layout_selection_changed, %function
as_zmk_physical_layout_selection_changed:
.LVL50:
.LFB498:
	.loc 1 26 430 is_stmt 1 view -0
	.cfi_startproc
	@ args = 0, pretend = 0, frame = 0
	@ frame_needed = 0, uses_anonymous_args = 0
	@ link register save eliminated.
	.loc 1 26 432 view .LVU705
	.loc 1 26 571 is_stmt 0 view .LVU706
	ldr	r2, [r0]
	ldr	r3, .L23
	cmp	r2, r3
	ite	eq
	addeq	r0, r0, #8
.LVL51:
	.loc 1 26 571 view .LVU707
	movne	r0, #0
	.loc 1 26 3 view .LVU708
	bx	lr
.L24:
	.align	2
.L23:
	.word	zmk_event_zmk_physical_layout_selection_changed
	.cfi_endproc
.LFE498:
	.size	as_zmk_physical_layout_selection_changed, .-as_zmk_physical_layout_selection_changed
	.section	.text.zmk_physical_layouts_get_list,"ax",%progbits
	.align	1
	.global	zmk_physical_layouts_get_list
	.syntax unified
	.thumb
	.thumb_func
	.type	zmk_physical_layouts_get_list, %function
zmk_physical_layouts_get_list:
.LVL52:
.LFB499:
	.loc 1 161 94 is_stmt 1 view -0
	.cfi_startproc
	@ args = 0, pretend = 0, frame = 0
	@ frame_needed = 0, uses_anonymous_args = 0
	@ link register save eliminated.
	.loc 1 162 5 view .LVU710
	.loc 1 162 19 is_stmt 0 view .LVU711
	ldr	r3, .L26
	str	r3, [r0]
	.loc 1 164 5 is_stmt 1 view .LVU712
	.loc 1 165 1 is_stmt 0 view .LVU713
	movs	r0, #1
.LVL53:
	.loc 1 165 1 view .LVU714
	bx	lr
.L27:
	.align	2
.L26:
	.word	layouts
	.cfi_endproc
.LFE499:
	.size	zmk_physical_layouts_get_list, .-zmk_physical_layouts_get_list
	.section	.text.zmk_physical_layouts_get_selected_to_stock_position_map,"ax",%progbits
	.align	1
	.global	zmk_physical_layouts_get_selected_to_stock_position_map
	.syntax unified
	.thumb
	.thumb_func
	.type	zmk_physical_layouts_get_selected_to_stock_position_map, %function
zmk_physical_layouts_get_selected_to_stock_position_map:
.LVL54:
.LFB504:
	.loc 1 246 83 is_stmt 1 view -0
	.cfi_startproc
	@ args = 0, pretend = 0, frame = 0
	@ frame_needed = 0, uses_anonymous_args = 0
	@ link register save eliminated.
	.loc 1 247 5 view .LVU716
	.loc 1 247 10 is_stmt 0 view .LVU717
	ldr	r3, .L29
	str	r3, [r0]
	.loc 1 248 5 is_stmt 1 view .LVU718
	.loc 1 249 1 is_stmt 0 view .LVU719
	movs	r0, #24
.LVL55:
	.loc 1 249 1 view .LVU720
	bx	lr
.L30:
	.align	2
.L29:
	.word	selected_to_stock_map
	.cfi_endproc
.LFE504:
	.size	zmk_physical_layouts_get_selected_to_stock_position_map, .-zmk_physical_layouts_get_selected_to_stock_position_map
	.section	.text.zmk_physical_layouts_get_selected,"ax",%progbits
	.align	1
	.global	zmk_physical_layouts_get_selected
	.syntax unified
	.thumb
	.thumb_func
	.type	zmk_physical_layouts_get_selected, %function
zmk_physical_layouts_get_selected:
.LFB507:
	.loc 1 314 45 is_stmt 1 view -0
	.cfi_startproc
	@ args = 0, pretend = 0, frame = 0
	@ frame_needed = 0, uses_anonymous_args = 0
	@ link register save eliminated.
	.loc 1 315 5 view .LVU722
.LBB574:
	.loc 1 315 10 view .LVU723
.LVL56:
	.loc 1 315 23 view .LVU724
	.loc 1 316 9 view .LVU725
	.loc 1 316 12 is_stmt 0 view .LVU726
	ldr	r3, .L34
	ldr	r2, [r3]
	ldr	r3, .L34+4
	cmp	r2, r3
.LBE574:
	.loc 1 322 1 view .LVU727
	ite	ne
	mvnne	r0, #18
	moveq	r0, #0
	bx	lr
.L35:
	.align	2
.L34:
	.word	active
	.word	_zmk_physical_layout_DT_N_S_physical_layout
	.cfi_endproc
.LFE507:
	.size	zmk_physical_layouts_get_selected, .-zmk_physical_layouts_get_selected
	.section	.text.zmk_physical_layouts_check_unsaved_selection,"ax",%progbits
	.align	1
	.global	zmk_physical_layouts_check_unsaved_selection
	.syntax unified
	.thumb
	.thumb_func
	.type	zmk_physical_layouts_check_unsaved_selection, %function
zmk_physical_layouts_check_unsaved_selection:
.LFB509:
	.loc 1 336 56 is_stmt 1 view -0
	.cfi_startproc
	@ args = 0, pretend = 0, frame = 0
	@ frame_needed = 0, uses_anonymous_args = 0
	.loc 1 338 5 view .LVU729
	.loc 1 336 56 is_stmt 0 view .LVU730
	push	{r3, lr}
	.cfi_def_cfa_offset 8
	.cfi_offset 3, -8
	.cfi_offset 14, -4
	.loc 1 338 33 view .LVU731
	ldr	r3, .L39
	ldrsb	r1, [r3]
	.loc 1 341 16 view .LVU732
	cmp	r1, #0
	blt	.L38
	.loc 1 339 53 discriminator 1 view .LVU733
	bl	zmk_physical_layouts_get_selected
.LVL57:
	.loc 1 341 16 discriminator 1 view .LVU734
	uxtb	r0, r0
	subs	r0, r0, r1
	it	ne
	movne	r0, #1
.L36:
	.loc 1 345 1 view .LVU735
	pop	{r3, pc}
.L38:
	.loc 1 341 16 view .LVU736
	movs	r0, #0
	b	.L36
.L40:
	.align	2
.L39:
	.word	saved_selected_index
	.cfi_endproc
.LFE509:
	.size	zmk_physical_layouts_check_unsaved_selection, .-zmk_physical_layouts_check_unsaved_selection
	.section	.rodata.zmk_physical_layouts_save_selected.str1.1,"aMS",%progbits,1
.LC4:
	.ascii	"physical_layouts/selected\000"
	.section	.text.zmk_physical_layouts_save_selected,"ax",%progbits
	.align	1
	.global	zmk_physical_layouts_save_selected
	.syntax unified
	.thumb
	.thumb_func
	.type	zmk_physical_layouts_save_selected, %function
zmk_physical_layouts_save_selected:
.LFB510:
	.loc 1 347 46 is_stmt 1 view -0
	.cfi_startproc
	@ args = 0, pretend = 0, frame = 8
	@ frame_needed = 0, uses_anonymous_args = 0
	.loc 1 349 5 view .LVU738
	.loc 1 347 46 is_stmt 0 view .LVU739
	push	{r0, r1, r2, lr}
	.cfi_def_cfa_offset 16
	.cfi_offset 14, -4
	.loc 1 349 28 view .LVU740
	bl	zmk_physical_layouts_get_selected
.LVL58:
	.loc 1 351 12 view .LVU741
	add	r1, sp, #7
	.loc 1 349 19 view .LVU742
	strb	r0, [sp, #7]
	.loc 1 351 5 is_stmt 1 view .LVU743
	.loc 1 351 12 is_stmt 0 view .LVU744
	movs	r2, #1
	ldr	r0, .L42
	bl	settings_save_one
.LVL59:
	.loc 1 355 1 view .LVU745
	add	sp, sp, #12
	.cfi_def_cfa_offset 4
	@ sp needed
	ldr	pc, [sp], #4
.L43:
	.align	2
.L42:
	.word	.LC4
	.cfi_endproc
.LFE510:
	.size	zmk_physical_layouts_save_selected, .-zmk_physical_layouts_save_selected
	.section	.text.zmk_physical_layouts_get_position_map,"ax",%progbits
	.align	1
	.global	zmk_physical_layouts_get_position_map
	.syntax unified
	.thumb
	.thumb_func
	.type	zmk_physical_layouts_get_position_map, %function
zmk_physical_layouts_get_position_map:
.LVL60:
.LFB512:
	.loc 1 360 67 is_stmt 1 view -0
	.cfi_startproc
	@ args = 0, pretend = 0, frame = 0
	@ frame_needed = 0, uses_anonymous_args = 0
	@ link register save eliminated.
	.loc 1 361 5 view .LVU747
	.loc 1 361 8 is_stmt 0 view .LVU748
	orrs	r0, r0, r1
.LVL61:
	.loc 1 361 8 view .LVU749
	bne	.L48
.L46:
.LVL62:
.LBB586:
.LBB587:
.LBB588:
	.loc 1 366 27 is_stmt 1 view .LVU750
	cmp	r2, r0
	bne	.L47
	movs	r0, #0
.LVL63:
	.loc 1 366 27 is_stmt 0 view .LVU751
	bx	lr
.LVL64:
.L47:
	.loc 1 367 13 is_stmt 1 view .LVU752
	.loc 1 367 20 is_stmt 0 view .LVU753
	str	r0, [r3, r0, lsl #2]
	.loc 1 366 40 is_stmt 1 view .LVU754
	adds	r0, r0, #1
.LVL65:
	.loc 1 366 40 is_stmt 0 view .LVU755
	b	.L46
.LVL66:
.L48:
	.loc 1 366 40 view .LVU756
.LBE588:
.LBE587:
.LBE586:
	.loc 1 362 16 view .LVU757
	mvn	r0, #21
	.loc 1 439 1 view .LVU758
	bx	lr
	.cfi_endproc
.LFE512:
	.size	zmk_physical_layouts_get_position_map, .-zmk_physical_layouts_get_position_map
	.section	.rodata.zmk_physical_layouts_select_layout.str1.1,"aMS",%progbits,1
.LC5:
	.ascii	"Failed to refresh the selected to stock mapping (%d"
	.ascii	")\000"
	.section	.text.zmk_physical_layouts_select_layout,"ax",%progbits
	.align	1
	.global	zmk_physical_layouts_select_layout
	.syntax unified
	.thumb
	.thumb_func
	.type	zmk_physical_layouts_select_layout, %function
zmk_physical_layouts_select_layout:
.LVL67:
.LFB505:
	.loc 1 251 87 is_stmt 1 view -0
	.cfi_startproc
	@ args = 0, pretend = 0, frame = 0
	@ frame_needed = 1, uses_anonymous_args = 0
	.loc 1 252 5 view .LVU760
	.loc 1 251 87 is_stmt 0 view .LVU761
	push	{r3, r4, r5, r6, r7, lr}
	.cfi_def_cfa_offset 24
	.cfi_offset 3, -24
	.cfi_offset 4, -20
	.cfi_offset 5, -16
	.cfi_offset 6, -12
	.cfi_offset 7, -8
	.cfi_offset 14, -4
	.loc 1 252 8 view .LVU762
	mov	r5, r0
	.loc 1 251 87 view .LVU763
	add	r7, sp, #0
	.cfi_def_cfa_register 7
	.loc 1 252 8 view .LVU764
	cmp	r0, #0
	beq	.L58
	.loc 1 256 5 is_stmt 1 view .LVU765
	.loc 1 256 21 is_stmt 0 view .LVU766
	ldr	r6, .L75
	ldr	r3, [r6]
	.loc 1 256 8 view .LVU767
	cmp	r3, r0
	beq	.L52
	.loc 1 260 5 is_stmt 1 view .LVU768
	.loc 1 260 8 is_stmt 0 view .LVU769
	cbz	r3, .L53
	.loc 1 261 9 is_stmt 1 view .LVU770
	.loc 1 261 19 is_stmt 0 view .LVU771
	ldr	r0, [r3, #8]
.LVL68:
	.loc 1 261 12 view .LVU772
	cbz	r0, .L53
	.loc 1 262 13 is_stmt 1 view .LVU773
.LVL69:
.LBB618:
.LBI618:
	.file 5 "/home/g/mise-work/zmk-firmware/zmk/app/build/zephyr/include/generated/syscalls/kscan.h"
	.loc 5 73 19 view .LVU774
.LBB619:
	.loc 5 81 2 view .LVU775
	.loc 5 81 7 view .LVU776
	.loc 5 81 5 view .LVU777
	.loc 5 82 2 view .LVU778
.LVL70:
.LBB620:
.LBI620:
	.file 6 "/home/g/mise-work/zmk-firmware/zmk/zephyr/include/zephyr/drivers/kscan.h"
	.loc 6 120 19 view .LVU779
.LBB621:
	.loc 6 122 2 view .LVU780
	.loc 6 125 2 view .LVU781
	.loc 6 125 9 is_stmt 0 view .LVU782
	ldr	r3, [r0, #8]
	ldr	r3, [r3, #4]
	.loc 6 125 5 view .LVU783
	cbz	r3, .L54
	.loc 6 129 2 is_stmt 1 view .LVU784
	.loc 6 129 9 is_stmt 0 view .LVU785
	blx	r3
.LVL71:
.L54:
	.loc 6 129 9 view .LVU786
.LBE621:
.LBE620:
.LBE619:
.LBE618:
	.loc 1 266 13 is_stmt 1 view .LVU787
	.loc 1 266 40 is_stmt 0 view .LVU788
	ldr	r3, [r6]
	.loc 1 266 13 view .LVU789
	movs	r1, #0
	ldr	r0, [r3, #8]
	bl	pm_device_action_run
.LVL72:
.L53:
	.loc 1 271 5 is_stmt 1 view .LVU790
.LBB622:
.LBI622:
	.loc 1 234 12 view .LVU791
.LBB623:
	.loc 1 235 5 view .LVU792
.LBB624:
	.loc 1 235 10 view .LVU793
	.loc 1 235 23 view .LVU794
	.loc 1 236 9 view .LVU795
	.loc 1 236 9 is_stmt 0 view .LVU796
.LBE624:
.LBE623:
.LBE622:
	.loc 1 272 5 is_stmt 1 view .LVU797
	.loc 1 273 5 view .LVU798
	.loc 1 273 15 is_stmt 0 view .LVU799
	ldr	r1, .L75+4
	ldr	r3, .L75+8
	cmp	r5, r1
	ite	ne
	movne	r1, #237
	moveq	r1, #0
	movs	r2, #24
	movs	r0, #0
	bl	zmk_physical_layouts_get_position_map
.LVL73:
	.loc 1 275 5 is_stmt 1 view .LVU800
	.loc 1 275 8 is_stmt 0 view .LVU801
	subs	r4, r0, #0
	bge	.L56
	.loc 1 276 9 is_stmt 1 view .LVU802
.LBB625:
	.loc 1 276 14 view .LVU803
	.loc 1 276 63 view .LVU804
	.loc 1 276 20 view .LVU805
	.loc 1 276 8 view .LVU806
.LVL74:
	.loc 1 276 47 view .LVU807
	.loc 1 276 182 view .LVU808
	.loc 1 276 193 view .LVU809
	.loc 1 276 281 view .LVU810
.LBB626:
	.loc 1 276 9 view .LVU811
	.loc 1 276 11 view .LVU812
	.loc 1 276 9 view .LVU813
.LBB627:
	.loc 1 276 14 view .LVU814
	.loc 1 276 8 view .LVU815
.LBE627:
.LBE626:
.LBE625:
	.loc 1 276 9 view .LVU816
	.loc 1 276 18 view .LVU817
	.loc 1 276 113 view .LVU818
	.loc 1 276 9 view .LVU819
.LBB644:
.LBB641:
.LBB638:
	.loc 1 276 18 view .LVU820
	.loc 1 276 108 view .LVU821
	.loc 1 276 110 view .LVU822
.LBB628:
	.loc 1 276 113 is_stmt 0 view .LVU823
	mov	r5, sp
.LVL75:
	.loc 1 276 115 is_stmt 1 view .LVU824
	.loc 1 276 126 view .LVU825
	.loc 1 276 215 view .LVU826
	.loc 1 276 32 view .LVU827
.LBE628:
.LBE638:
.LBE641:
.LBE644:
	.loc 1 276 9 view .LVU828
	.loc 1 276 374 view .LVU829
	.loc 1 276 81 view .LVU830
	.loc 1 276 8 view .LVU831
	.loc 1 276 8 view .LVU832
	.loc 1 276 8 view .LVU833
	.loc 1 276 44 view .LVU834
	.loc 1 276 10 view .LVU835
	.loc 1 276 36 view .LVU836
	.loc 1 276 62 view .LVU837
	.loc 1 276 529 view .LVU838
	.loc 1 276 591 view .LVU839
	.loc 1 276 1112 view .LVU840
	.loc 1 276 1177 view .LVU841
	.loc 1 276 1202 view .LVU842
	.loc 1 276 1203 view .LVU843
	.loc 1 276 1205 view .LVU844
	.loc 1 276 1235 view .LVU845
	.loc 1 276 1265 view .LVU846
	.loc 1 276 1297 view .LVU847
	.loc 1 276 1329 view .LVU848
	.loc 1 276 1361 view .LVU849
	.loc 1 276 1558 view .LVU850
	.loc 1 276 1582 view .LVU851
	.loc 1 276 1583 view .LVU852
	.loc 1 276 1585 view .LVU853
	.loc 1 276 1614 view .LVU854
	.loc 1 276 1643 view .LVU855
	.loc 1 276 1674 view .LVU856
	.loc 1 276 1705 view .LVU857
	.loc 1 276 1736 view .LVU858
	.loc 1 276 1943 view .LVU859
	.loc 1 276 10 view .LVU860
	.loc 1 276 28 view .LVU861
	.loc 1 276 48 view .LVU862
	.loc 1 276 10 view .LVU863
	.loc 1 276 48 view .LVU864
	.loc 1 276 19 view .LVU865
	.loc 1 276 19 view .LVU866
	.loc 1 276 67 view .LVU867
	.loc 1 276 98 view .LVU868
	.loc 1 276 132 view .LVU869
	.loc 1 276 137 view .LVU870
	.loc 1 276 413 view .LVU871
	.loc 1 276 1570 view .LVU872
	.loc 1 276 1635 view .LVU873
	.loc 1 276 1659 view .LVU874
	.loc 1 276 1739 view .LVU875
	.loc 1 276 1750 view .LVU876
	.loc 1 276 1888 view .LVU877
	.loc 1 276 1904 view .LVU878
	.loc 1 276 1944 view .LVU879
	.loc 1 276 1969 view .LVU880
	.loc 1 276 3310 view .LVU881
	.loc 1 276 3351 view .LVU882
	.loc 1 276 13 view .LVU883
	.loc 1 276 36 view .LVU884
	.loc 1 276 135 view .LVU885
	.loc 1 276 12 view .LVU886
	.loc 1 276 17 view .LVU887
	.loc 1 276 242 view .LVU888
	.loc 1 276 1195 view .LVU889
	.loc 1 276 1260 view .LVU890
	.loc 1 276 1284 view .LVU891
	.loc 1 276 1313 view .LVU892
	.loc 1 276 1324 view .LVU893
	.loc 1 276 1411 view .LVU894
	.loc 1 276 1427 view .LVU895
	.loc 1 276 1467 view .LVU896
	.loc 1 276 2731 view .LVU897
	.loc 1 276 2772 view .LVU898
	.loc 1 276 13 view .LVU899
	.loc 1 276 36 view .LVU900
	.loc 1 276 15 view .LVU901
	.loc 1 276 11 view .LVU902
	.loc 1 276 34 view .LVU903
	.loc 1 276 58 view .LVU904
	.loc 1 276 86 view .LVU905
	.loc 1 276 262 view .LVU906
	.loc 1 276 22 view .LVU907
.LBB645:
.LBB642:
.LBB639:
.LBB636:
	.loc 1 276 35 view .LVU908
	.loc 1 276 9 view .LVU909
	.loc 1 276 9 view .LVU910
	.loc 1 276 76 view .LVU911
	.loc 1 276 88 is_stmt 0 view .LVU912
	sub	sp, sp, #32
	mov	r2, sp
.LVL76:
	.loc 1 276 80 is_stmt 1 view .LVU913
	.loc 1 276 490 view .LVU914
	.loc 1 276 11 view .LVU915
	.loc 1 276 13 view .LVU916
	.loc 1 276 18 view .LVU917
	.loc 1 276 16 view .LVU918
	.loc 1 276 11 view .LVU919
	.loc 1 276 29 view .LVU920
.LBB629:
	.loc 1 276 9 view .LVU921
	.loc 1 276 374 view .LVU922
	.loc 1 276 81 view .LVU923
.LVL77:
	.loc 1 276 8 view .LVU924
	.loc 1 276 8 view .LVU925
	.loc 1 276 8 view .LVU926
	.loc 1 276 44 view .LVU927
	.loc 1 276 73 view .LVU928
	.loc 1 276 99 view .LVU929
	.loc 1 276 125 view .LVU930
	.loc 1 276 592 view .LVU931
	.loc 1 276 654 view .LVU932
	.loc 1 276 1175 view .LVU933
	.loc 1 276 1240 view .LVU934
	.loc 1 276 1265 view .LVU935
	.loc 1 276 1266 view .LVU936
	.loc 1 276 1268 view .LVU937
	.loc 1 276 1298 view .LVU938
	.loc 1 276 1328 view .LVU939
	.loc 1 276 1360 view .LVU940
	.loc 1 276 1392 view .LVU941
	.loc 1 276 1424 view .LVU942
	.loc 1 276 1621 view .LVU943
	.loc 1 276 1645 view .LVU944
	.loc 1 276 1646 view .LVU945
	.loc 1 276 1648 view .LVU946
	.loc 1 276 1677 view .LVU947
	.loc 1 276 1706 view .LVU948
	.loc 1 276 1737 view .LVU949
	.loc 1 276 1768 view .LVU950
	.loc 1 276 1799 view .LVU951
	.loc 1 276 2006 view .LVU952
.LBB630:
	.loc 1 276 3348 view .LVU953
	.loc 1 276 3353 view .LVU954
	.loc 1 276 0 view .LVU955
	ldr	r3, .L75+12
.LBE630:
.LBB631:
	.loc 1 276 3817 is_stmt 0 view .LVU956
	strd	r3, r4, [r2, #20]
	.loc 1 276 2772 is_stmt 1 view .LVU957
	.loc 1 276 13 view .LVU958
.LVL78:
	.loc 1 276 36 view .LVU959
	.loc 1 276 36 is_stmt 0 view .LVU960
.LBE631:
	.loc 1 276 15 is_stmt 1 view .LVU961
	.loc 1 276 11 view .LVU962
	.loc 1 276 34 view .LVU963
	.loc 1 276 58 view .LVU964
	.loc 1 276 86 view .LVU965
.LBE629:
.LBE636:
.LBE639:
.LBE642:
.LBE645:
	.loc 1 276 12 view .LVU966
	.loc 1 276 51 view .LVU967
	.loc 1 276 56 view .LVU968
	.loc 1 276 86 view .LVU969
	.loc 1 276 153 view .LVU970
	.loc 1 276 158 view .LVU971
	.loc 1 276 188 view .LVU972
.LBB646:
.LBB643:
.LBB640:
.LBB637:
.LBB633:
	.loc 1 276 262 view .LVU973
	.loc 1 276 22 view .LVU974
.LBB632:
	.loc 1 276 12 view .LVU975
	.loc 1 276 170 view .LVU976
	.loc 1 276 172 view .LVU977
	.loc 1 276 182 is_stmt 0 view .LVU978
	movs	r3, #3
	str	r3, [r2, #16]!
.LVL79:
	.loc 1 276 182 view .LVU979
.LBE632:
.LBE633:
	.loc 1 276 32 is_stmt 1 view .LVU980
	.loc 1 276 13 view .LVU981
	.loc 1 276 153 view .LVU982
	.loc 1 276 155 view .LVU983
.LBB634:
.LBI634:
	.loc 3 26 20 view .LVU984
.LBB635:
	.loc 3 38 2 view .LVU985
	.loc 3 38 7 view .LVU986
	.loc 3 38 5 view .LVU987
	.loc 3 39 2 view .LVU988
	ldr	r0, .L75+16
.LVL80:
	.loc 3 39 2 is_stmt 0 view .LVU989
	movs	r3, #0
	mov	r1, #6208
	bl	z_impl_z_log_msg_static_create
.LVL81:
	.loc 3 39 2 view .LVU990
.LBE635:
.LBE634:
	mov	sp, r5
.LVL82:
	.loc 3 39 2 view .LVU991
.LBE637:
	.loc 1 276 113 is_stmt 1 view .LVU992
	.loc 1 276 11 view .LVU993
	.loc 1 276 48 view .LVU994
.LBE640:
	.loc 1 276 12 view .LVU995
.LBE643:
	.loc 1 276 284 view .LVU996
	.loc 1 276 11 view .LVU997
	.loc 1 276 24 view .LVU998
.LBE646:
	.loc 1 276 12 view .LVU999
	.loc 1 277 9 view .LVU1000
.L49:
	.loc 1 297 1 is_stmt 0 view .LVU1001
	mov	r0, r4
	mov	sp, r7
	.cfi_remember_state
	.cfi_def_cfa_register 13
	@ sp needed
	pop	{r3, r4, r5, r6, r7, pc}
.LVL83:
.L56:
	.cfi_restore_state
	.loc 1 280 5 is_stmt 1 view .LVU1002
	.loc 1 282 15 is_stmt 0 view .LVU1003
	ldr	r0, [r5, #8]
.LVL84:
	.loc 1 280 12 view .LVU1004
	str	r5, [r6]
	.loc 1 282 5 is_stmt 1 view .LVU1005
	.loc 1 282 8 is_stmt 0 view .LVU1006
	cbz	r0, .L52
	.loc 1 290 9 is_stmt 1 view .LVU1007
	movs	r1, #1
	bl	pm_device_action_run
.LVL85:
	.loc 1 292 9 view .LVU1008
	.loc 1 292 28 is_stmt 0 view .LVU1009
	ldr	r3, [r6]
	ldr	r0, [r3, #8]
.LVL86:
.LBB647:
.LBI647:
	.loc 5 26 19 is_stmt 1 view .LVU1010
.LBB648:
	.loc 5 35 2 view .LVU1011
	.loc 5 35 7 view .LVU1012
	.loc 5 35 5 view .LVU1013
	.loc 5 36 2 view .LVU1014
.LVL87:
.LBB649:
.LBI649:
	.loc 6 82 19 view .LVU1015
.LBB650:
	.loc 6 85 2 view .LVU1016
	.loc 6 88 2 view .LVU1017
	.loc 6 88 12 is_stmt 0 view .LVU1018
	ldr	r3, [r0, #8]
	.loc 6 88 9 view .LVU1019
	ldr	r1, .L75+20
	ldr	r3, [r3]
	blx	r3
.LVL88:
	.loc 6 88 9 view .LVU1020
.LBE650:
.LBE649:
.LBE648:
.LBE647:
	.loc 1 293 9 is_stmt 1 view .LVU1021
	.loc 1 293 37 is_stmt 0 view .LVU1022
	ldr	r3, [r6]
	ldr	r0, [r3, #8]
.LVL89:
.LBB651:
.LBI651:
	.loc 5 50 19 is_stmt 1 view .LVU1023
.LBB652:
	.loc 5 58 2 view .LVU1024
	.loc 5 58 7 view .LVU1025
	.loc 5 58 5 view .LVU1026
	.loc 5 59 2 view .LVU1027
.LVL90:
.LBB653:
.LBI653:
	.loc 6 99 19 view .LVU1028
.LBB654:
	.loc 6 101 2 view .LVU1029
	.loc 6 104 2 view .LVU1030
	.loc 6 104 9 is_stmt 0 view .LVU1031
	ldr	r3, [r0, #8]
	ldr	r3, [r3, #8]
	.loc 6 104 5 view .LVU1032
	cbz	r3, .L52
	.loc 6 108 2 is_stmt 1 view .LVU1033
	.loc 6 108 9 is_stmt 0 view .LVU1034
	blx	r3
.LVL91:
.L52:
	.loc 6 108 9 view .LVU1035
.LBE654:
.LBE653:
.LBE652:
.LBE651:
	.loc 1 257 16 view .LVU1036
	movs	r4, #0
	b	.L49
.LVL92:
.L58:
	.loc 1 253 16 view .LVU1037
	mvn	r4, #18
	b	.L49
.L76:
	.align	2
.L75:
	.word	active
	.word	_zmk_physical_layout_DT_N_S_physical_layout
	.word	selected_to_stock_map
	.word	.LC5
	.word	log_const_zmk
	.word	zmk_physical_layout_kscan_callback
	.cfi_endproc
.LFE505:
	.size	zmk_physical_layouts_select_layout, .-zmk_physical_layouts_select_layout
	.section	.text.zmk_physical_layouts_select,"ax",%progbits
	.align	1
	.global	zmk_physical_layouts_select
	.syntax unified
	.thumb
	.thumb_func
	.type	zmk_physical_layouts_select, %function
zmk_physical_layouts_select:
.LVL93:
.LFB506:
	.loc 1 299 48 is_stmt 1 view -0
	.cfi_startproc
	@ args = 0, pretend = 0, frame = 0
	@ frame_needed = 0, uses_anonymous_args = 0
	.loc 1 300 5 view .LVU1039
	.loc 1 299 48 is_stmt 0 view .LVU1040
	push	{r3, r4, r5, lr}
	.cfi_def_cfa_offset 16
	.cfi_offset 3, -16
	.cfi_offset 4, -12
	.cfi_offset 5, -8
	.cfi_offset 14, -4
	.loc 1 300 8 view .LVU1041
	mov	r5, r0
	cbnz	r0, .L81
	.loc 1 304 5 is_stmt 1 view .LVU1042
	.loc 1 304 15 is_stmt 0 view .LVU1043
	ldr	r0, .L82
.LVL94:
	.loc 1 304 15 view .LVU1044
	bl	zmk_physical_layouts_select_layout
.LVL95:
	.loc 1 306 5 is_stmt 1 view .LVU1045
	.loc 1 306 8 is_stmt 0 view .LVU1046
	subs	r4, r0, #0
	blt	.L77
.LBB655:
	.loc 1 307 9 is_stmt 1 view .LVU1047
	mov	r0, r5
.LVL96:
	.loc 1 307 9 is_stmt 0 view .LVU1048
	bl	raise_zmk_physical_layout_selection_changed
.LVL97:
.L77:
	.loc 1 307 9 view .LVU1049
.LBE655:
	.loc 1 312 1 view .LVU1050
	mov	r0, r4
	pop	{r3, r4, r5, pc}
.LVL98:
.L81:
	.loc 1 301 16 view .LVU1051
	mvn	r4, #21
	b	.L77
.L83:
	.align	2
.L82:
	.word	_zmk_physical_layout_DT_N_S_physical_layout
	.cfi_endproc
.LFE506:
	.size	zmk_physical_layouts_select, .-zmk_physical_layouts_select
	.section	.rodata.physical_layouts_handle_set.part.0.str1.1,"aMS",%progbits,1
.LC6:
	.ascii	"Failed to handle selected physical dest_layout from"
	.ascii	" settings (err %d)\000"
	.section	.text.physical_layouts_handle_set.part.0,"ax",%progbits
	.align	1
	.syntax unified
	.thumb
	.thumb_func
	.type	physical_layouts_handle_set.part.0, %function
physical_layouts_handle_set.part.0:
.LVL99:
.LFB517:
	.loc 1 443 12 is_stmt 1 view -0
	.cfi_startproc
	@ args = 0, pretend = 0, frame = 0
	@ frame_needed = 1, uses_anonymous_args = 0
.LBB686:
	.loc 1 452 9 view .LVU1053
.LBE686:
	.loc 1 443 12 is_stmt 0 view .LVU1054
	push	{r4, r5, r7, lr}
	.cfi_def_cfa_offset 16
	.cfi_offset 4, -16
	.cfi_offset 5, -12
	.cfi_offset 7, -8
	.cfi_offset 14, -4
.LBB709:
	.loc 1 452 19 view .LVU1055
	ldr	r5, .L87
.LBE709:
	.loc 1 443 12 view .LVU1056
	mov	r3, r0
	add	r7, sp, #0
	.cfi_def_cfa_register 7
	.loc 1 443 12 view .LVU1057
	mov	r0, r1
.LVL100:
.LBB710:
	.loc 1 452 19 view .LVU1058
	movs	r2, #1
	mov	r1, r5
.LVL101:
	.loc 1 452 19 view .LVU1059
	blx	r3
.LVL102:
	.loc 1 453 9 is_stmt 1 view .LVU1060
	.loc 1 453 12 is_stmt 0 view .LVU1061
	subs	r4, r0, #0
	bgt	.L85
	.loc 1 454 13 is_stmt 1 view .LVU1062
.LBB687:
	.loc 1 454 18 view .LVU1063
	.loc 1 454 67 view .LVU1064
	.loc 1 454 24 view .LVU1065
	.loc 1 454 12 view .LVU1066
.LVL103:
	.loc 1 454 51 view .LVU1067
	.loc 1 454 186 view .LVU1068
	.loc 1 454 197 view .LVU1069
	.loc 1 454 285 view .LVU1070
.LBB688:
	.loc 1 454 13 view .LVU1071
	.loc 1 454 15 view .LVU1072
	.loc 1 454 13 view .LVU1073
.LBB689:
	.loc 1 454 18 view .LVU1074
	.loc 1 454 12 view .LVU1075
.LBE689:
.LBE688:
.LBE687:
.LBE710:
	.loc 1 454 13 view .LVU1076
	.loc 1 454 22 view .LVU1077
	.loc 1 454 117 view .LVU1078
	.loc 1 454 13 view .LVU1079
.LBB711:
.LBB706:
.LBB703:
.LBB700:
	.loc 1 454 22 view .LVU1080
	.loc 1 454 112 view .LVU1081
	.loc 1 454 114 view .LVU1082
.LBB690:
	.loc 1 454 117 is_stmt 0 view .LVU1083
	mov	r5, sp
	.loc 1 454 119 is_stmt 1 view .LVU1084
	.loc 1 454 130 view .LVU1085
.LVL104:
	.loc 1 454 219 view .LVU1086
	.loc 1 454 36 view .LVU1087
.LBE690:
.LBE700:
.LBE703:
.LBE706:
.LBE711:
	.loc 1 454 13 view .LVU1088
	.loc 1 454 378 view .LVU1089
	.loc 1 454 85 view .LVU1090
	.loc 1 454 12 view .LVU1091
	.loc 1 454 12 view .LVU1092
	.loc 1 454 12 view .LVU1093
	.loc 1 454 48 view .LVU1094
	.loc 1 454 14 view .LVU1095
	.loc 1 454 40 view .LVU1096
	.loc 1 454 66 view .LVU1097
	.loc 1 454 533 view .LVU1098
	.loc 1 454 595 view .LVU1099
	.loc 1 454 1116 view .LVU1100
	.loc 1 454 1181 view .LVU1101
	.loc 1 454 1206 view .LVU1102
	.loc 1 454 1207 view .LVU1103
	.loc 1 454 1209 view .LVU1104
	.loc 1 454 1239 view .LVU1105
	.loc 1 454 1269 view .LVU1106
	.loc 1 454 1301 view .LVU1107
	.loc 1 454 1333 view .LVU1108
	.loc 1 454 1365 view .LVU1109
	.loc 1 454 1562 view .LVU1110
	.loc 1 454 1586 view .LVU1111
	.loc 1 454 1587 view .LVU1112
	.loc 1 454 1589 view .LVU1113
	.loc 1 454 1618 view .LVU1114
	.loc 1 454 1647 view .LVU1115
	.loc 1 454 1678 view .LVU1116
	.loc 1 454 1709 view .LVU1117
	.loc 1 454 1740 view .LVU1118
	.loc 1 454 1947 view .LVU1119
	.loc 1 454 14 view .LVU1120
	.loc 1 454 32 view .LVU1121
	.loc 1 454 52 view .LVU1122
	.loc 1 454 14 view .LVU1123
	.loc 1 454 52 view .LVU1124
	.loc 1 454 23 view .LVU1125
	.loc 1 454 23 view .LVU1126
	.loc 1 454 71 view .LVU1127
	.loc 1 454 102 view .LVU1128
	.loc 1 454 136 view .LVU1129
	.loc 1 454 141 view .LVU1130
	.loc 1 454 434 view .LVU1131
	.loc 1 454 1659 view .LVU1132
	.loc 1 454 1724 view .LVU1133
	.loc 1 454 1748 view .LVU1134
	.loc 1 454 1845 view .LVU1135
	.loc 1 454 1856 view .LVU1136
	.loc 1 454 2011 view .LVU1137
	.loc 1 454 2027 view .LVU1138
	.loc 1 454 2067 view .LVU1139
	.loc 1 454 2092 view .LVU1140
	.loc 1 454 3467 view .LVU1141
	.loc 1 454 3508 view .LVU1142
	.loc 1 454 17 view .LVU1143
	.loc 1 454 40 view .LVU1144
	.loc 1 454 139 view .LVU1145
	.loc 1 454 16 view .LVU1146
	.loc 1 454 21 view .LVU1147
	.loc 1 454 246 view .LVU1148
	.loc 1 454 1199 view .LVU1149
	.loc 1 454 1264 view .LVU1150
	.loc 1 454 1288 view .LVU1151
	.loc 1 454 1317 view .LVU1152
	.loc 1 454 1328 view .LVU1153
	.loc 1 454 1415 view .LVU1154
	.loc 1 454 1431 view .LVU1155
	.loc 1 454 1471 view .LVU1156
	.loc 1 454 2735 view .LVU1157
	.loc 1 454 2776 view .LVU1158
	.loc 1 454 17 view .LVU1159
	.loc 1 454 40 view .LVU1160
	.loc 1 454 19 view .LVU1161
	.loc 1 454 15 view .LVU1162
	.loc 1 454 38 view .LVU1163
	.loc 1 454 62 view .LVU1164
	.loc 1 454 90 view .LVU1165
	.loc 1 454 266 view .LVU1166
	.loc 1 454 26 view .LVU1167
.LBB712:
.LBB707:
.LBB704:
.LBB701:
.LBB698:
	.loc 1 454 39 view .LVU1168
	.loc 1 454 13 view .LVU1169
	.loc 1 454 13 view .LVU1170
	.loc 1 454 80 view .LVU1171
	.loc 1 454 92 is_stmt 0 view .LVU1172
	sub	sp, sp, #32
	mov	r2, sp
.LVL105:
	.loc 1 454 84 is_stmt 1 view .LVU1173
	.loc 1 454 494 view .LVU1174
	.loc 1 454 15 view .LVU1175
	.loc 1 454 17 view .LVU1176
	.loc 1 454 22 view .LVU1177
	.loc 1 454 20 view .LVU1178
	.loc 1 454 15 view .LVU1179
	.loc 1 454 33 view .LVU1180
.LBB691:
	.loc 1 454 13 view .LVU1181
	.loc 1 454 378 view .LVU1182
	.loc 1 454 85 view .LVU1183
.LVL106:
	.loc 1 454 12 view .LVU1184
	.loc 1 454 12 view .LVU1185
	.loc 1 454 12 view .LVU1186
	.loc 1 454 48 view .LVU1187
	.loc 1 454 77 view .LVU1188
	.loc 1 454 103 view .LVU1189
	.loc 1 454 129 view .LVU1190
	.loc 1 454 596 view .LVU1191
	.loc 1 454 658 view .LVU1192
	.loc 1 454 1179 view .LVU1193
	.loc 1 454 1244 view .LVU1194
	.loc 1 454 1269 view .LVU1195
	.loc 1 454 1270 view .LVU1196
	.loc 1 454 1272 view .LVU1197
	.loc 1 454 1302 view .LVU1198
	.loc 1 454 1332 view .LVU1199
	.loc 1 454 1364 view .LVU1200
	.loc 1 454 1396 view .LVU1201
	.loc 1 454 1428 view .LVU1202
	.loc 1 454 1625 view .LVU1203
	.loc 1 454 1649 view .LVU1204
	.loc 1 454 1650 view .LVU1205
	.loc 1 454 1652 view .LVU1206
	.loc 1 454 1681 view .LVU1207
	.loc 1 454 1710 view .LVU1208
	.loc 1 454 1741 view .LVU1209
	.loc 1 454 1772 view .LVU1210
	.loc 1 454 1803 view .LVU1211
	.loc 1 454 2010 view .LVU1212
.LBB692:
	.loc 1 454 3505 view .LVU1213
	.loc 1 454 3510 view .LVU1214
	.loc 1 454 0 view .LVU1215
	ldr	r3, .L87+4
.LBE692:
.LBB693:
	.loc 1 454 3821 is_stmt 0 view .LVU1216
	strd	r3, r4, [r2, #20]
	.loc 1 454 2776 is_stmt 1 view .LVU1217
	.loc 1 454 17 view .LVU1218
.LVL107:
	.loc 1 454 40 view .LVU1219
	.loc 1 454 40 is_stmt 0 view .LVU1220
.LBE693:
	.loc 1 454 19 is_stmt 1 view .LVU1221
	.loc 1 454 15 view .LVU1222
	.loc 1 454 38 view .LVU1223
	.loc 1 454 62 view .LVU1224
	.loc 1 454 90 view .LVU1225
.LBE691:
.LBE698:
.LBE701:
.LBE704:
.LBE707:
.LBE712:
	.loc 1 454 16 view .LVU1226
	.loc 1 454 55 view .LVU1227
	.loc 1 454 60 view .LVU1228
	.loc 1 454 90 view .LVU1229
	.loc 1 454 157 view .LVU1230
	.loc 1 454 162 view .LVU1231
	.loc 1 454 192 view .LVU1232
.LBB713:
.LBB708:
.LBB705:
.LBB702:
.LBB699:
.LBB695:
	.loc 1 454 266 view .LVU1233
	.loc 1 454 26 view .LVU1234
.LBB694:
	.loc 1 454 16 view .LVU1235
	.loc 1 454 174 view .LVU1236
	.loc 1 454 176 view .LVU1237
	.loc 1 454 186 is_stmt 0 view .LVU1238
	movs	r3, #3
	str	r3, [r2, #16]!
.LVL108:
	.loc 1 454 186 view .LVU1239
.LBE694:
.LBE695:
	.loc 1 454 36 is_stmt 1 view .LVU1240
	.loc 1 454 17 view .LVU1241
	.loc 1 454 157 view .LVU1242
	.loc 1 454 159 view .LVU1243
.LBB696:
.LBI696:
	.loc 3 26 20 view .LVU1244
.LBB697:
	.loc 3 38 2 view .LVU1245
	.loc 3 38 7 view .LVU1246
	.loc 3 38 5 view .LVU1247
	.loc 3 39 2 view .LVU1248
	ldr	r0, .L87+8
.LVL109:
	.loc 3 39 2 is_stmt 0 view .LVU1249
	movs	r3, #0
	mov	r1, #6208
	bl	z_impl_z_log_msg_static_create
.LVL110:
	.loc 3 39 2 view .LVU1250
.LBE697:
.LBE696:
	mov	sp, r5
.LVL111:
	.loc 3 39 2 view .LVU1251
.LBE699:
	.loc 1 454 117 is_stmt 1 view .LVU1252
	.loc 1 454 15 view .LVU1253
	.loc 1 454 52 view .LVU1254
.LBE702:
	.loc 1 454 16 view .LVU1255
.LBE705:
	.loc 1 454 288 view .LVU1256
	.loc 1 454 15 view .LVU1257
	.loc 1 454 28 view .LVU1258
.LBE708:
	.loc 1 454 16 view .LVU1259
	.loc 1 455 13 view .LVU1260
.L84:
	.loc 1 455 13 is_stmt 0 view .LVU1261
.LBE713:
	.loc 1 462 1 view .LVU1262
	mov	r0, r4
	mov	sp, r7
	.cfi_remember_state
	.cfi_def_cfa_register 13
	@ sp needed
	pop	{r4, r5, r7, pc}
.LVL112:
.L85:
	.cfi_restore_state
.LBB714:
	.loc 1 458 9 is_stmt 1 view .LVU1263
	.loc 1 458 16 is_stmt 0 view .LVU1264
	ldrb	r0, [r5]	@ zero_extendqisi2
.LVL113:
	.loc 1 458 16 view .LVU1265
	bl	zmk_physical_layouts_select
.LVL114:
	mov	r4, r0
.LVL115:
	.loc 1 458 16 view .LVU1266
	b	.L84
.L88:
	.align	2
.L87:
	.word	saved_selected_index
	.word	.LC6
	.word	log_const_zmk
.LBE714:
	.cfi_endproc
.LFE517:
	.size	physical_layouts_handle_set.part.0, .-physical_layouts_handle_set.part.0
	.section	.rodata.physical_layouts_handle_set.str1.1,"aMS",%progbits,1
.LC7:
	.ascii	"selected\000"
	.section	.text.physical_layouts_handle_set,"ax",%progbits
	.align	1
	.syntax unified
	.thumb
	.thumb_func
	.type	physical_layouts_handle_set, %function
physical_layouts_handle_set:
.LVL116:
.LFB513:
	.loc 1 444 54 is_stmt 1 view -0
	.cfi_startproc
	@ args = 0, pretend = 0, frame = 8
	@ frame_needed = 0, uses_anonymous_args = 0
	.loc 1 445 5 view .LVU1268
	.loc 1 447 5 view .LVU1269
	.loc 1 444 54 is_stmt 0 view .LVU1270
	push	{r0, r1, r4, r5, r6, lr}
	.cfi_def_cfa_offset 24
	.cfi_offset 4, -16
	.cfi_offset 5, -12
	.cfi_offset 6, -8
	.cfi_offset 14, -4
	.loc 1 444 54 view .LVU1271
	mov	r6, r1
	mov	r4, r2
	.loc 1 447 9 view .LVU1272
	ldr	r1, .L96
.LVL117:
	.loc 1 447 9 view .LVU1273
	add	r2, sp, #4
.LVL118:
	.loc 1 444 54 view .LVU1274
	mov	r5, r3
	.loc 1 447 9 view .LVU1275
	bl	settings_name_steq
.LVL119:
	.loc 1 447 8 view .LVU1276
	cbz	r0, .L89
	.loc 1 447 53 discriminator 1 view .LVU1277
	ldr	r3, [sp, #4]
	cbnz	r3, .L91
.LBB715:
	.loc 1 448 9 is_stmt 1 view .LVU1278
	.loc 1 448 12 is_stmt 0 view .LVU1279
	cmp	r6, #1
	bne	.L92
.LBE715:
	mov	r1, r5
	mov	r0, r4
	bl	physical_layouts_handle_set.part.0
.LVL120:
.L89:
	.loc 1 462 1 view .LVU1280
	add	sp, sp, #8
	.cfi_remember_state
	.cfi_def_cfa_offset 16
	@ sp needed
	pop	{r4, r5, r6, pc}
.LVL121:
.L91:
	.cfi_restore_state
	.loc 1 461 12 view .LVU1281
	movs	r0, #0
	b	.L89
.L92:
.LBB716:
	.loc 1 449 20 view .LVU1282
	mvn	r0, #21
	b	.L89
.L97:
	.align	2
.L96:
	.word	.LC7
.LBE716:
	.cfi_endproc
.LFE513:
	.size	physical_layouts_handle_set, .-physical_layouts_handle_set
	.section	.text.zmk_physical_layouts_select_initial,"ax",%progbits
	.align	1
	.global	zmk_physical_layouts_select_initial
	.syntax unified
	.thumb
	.thumb_func
	.type	zmk_physical_layouts_select_initial, %function
zmk_physical_layouts_select_initial:
.LFB508:
	.loc 1 330 47 is_stmt 1 view -0
	.cfi_startproc
	@ args = 0, pretend = 0, frame = 0
	@ frame_needed = 0, uses_anonymous_args = 0
	@ link register save eliminated.
	.loc 1 331 5 view .LVU1284
.LBB717:
.LBI717:
	.loc 1 222 42 view .LVU1285
	.loc 1 223 5 view .LVU1286
	.loc 1 226 5 view .LVU1287
.LVL122:
	.loc 1 231 5 view .LVU1288
.LBE717:
	.loc 1 331 15 is_stmt 0 view .LVU1289
	ldr	r0, .L99
	b	zmk_physical_layouts_select_layout
.LVL123:
.L100:
	.align	2
.L99:
	.word	_zmk_physical_layout_DT_N_S_physical_layout
	.cfi_endproc
.LFE508:
	.size	zmk_physical_layouts_select_initial, .-zmk_physical_layouts_select_initial
	.section	.text.zmk_physical_layouts_revert_selected,"ax",%progbits
	.align	1
	.global	zmk_physical_layouts_revert_selected
	.syntax unified
	.thumb
	.thumb_func
	.type	zmk_physical_layouts_revert_selected, %function
zmk_physical_layouts_revert_selected:
.LFB511:
	.loc 1 357 48 is_stmt 1 view -0
	.cfi_startproc
	@ args = 0, pretend = 0, frame = 0
	@ frame_needed = 0, uses_anonymous_args = 0
	@ link register save eliminated.
	.loc 1 357 50 view .LVU1291
	.loc 1 357 57 is_stmt 0 view .LVU1292
	b	zmk_physical_layouts_select_initial
.LVL124:
	.cfi_endproc
.LFE511:
	.size	zmk_physical_layouts_revert_selected, .-zmk_physical_layouts_revert_selected
	.section	.rodata.zmk_physical_layouts_init.str1.1,"aMS",%progbits,1
.LC8:
	.ascii	"Failed to wakeup enable %s\000"
	.section	.text.zmk_physical_layouts_init,"ax",%progbits
	.align	1
	.syntax unified
	.thumb
	.thumb_func
	.type	zmk_physical_layouts_init, %function
zmk_physical_layouts_init:
.LFB514:
	.loc 1 469 44 is_stmt 1 view -0
	.cfi_startproc
	@ args = 0, pretend = 0, frame = 0
	@ frame_needed = 1, uses_anonymous_args = 0
	.loc 1 470 5 view .LVU1294
	.loc 1 469 44 is_stmt 0 view .LVU1295
	push	{r3, r4, r7, lr}
	.cfi_def_cfa_offset 16
	.cfi_offset 3, -16
	.cfi_offset 4, -12
	.cfi_offset 7, -8
	.cfi_offset 14, -4
.LBB734:
.LBB735:
	.loc 1 475 26 view .LVU1296
	ldr	r4, .L111
.LBE735:
.LBE734:
	.loc 1 470 5 view .LVU1297
	ldr	r0, .L111+4
	ldr	r1, .L111+8
	.loc 1 469 44 view .LVU1298
	add	r7, sp, #0
	.cfi_def_cfa_register 7
	.loc 1 470 5 view .LVU1299
	bl	k_work_init
.LVL125:
	.loc 1 473 5 is_stmt 1 view .LVU1300
.LBB765:
	.loc 1 473 10 view .LVU1301
	.loc 1 473 23 view .LVU1302
.LBB761:
	.loc 1 474 9 view .LVU1303
	.loc 1 475 9 view .LVU1304
	.loc 1 475 26 is_stmt 0 view .LVU1305
	mov	r0, r4
	bl	pm_device_wakeup_is_capable
.LVL126:
	.loc 1 475 23 view .LVU1306
	cbz	r0, .L104
	.loc 1 476 14 discriminator 2 view .LVU1307
	movs	r1, #1
	mov	r0, r4
	bl	pm_device_wakeup_enable
.LVL127:
	.loc 1 475 65 discriminator 2 view .LVU1308
	mov	r3, r0
	cbnz	r0, .L104
	.loc 1 477 13 is_stmt 1 view .LVU1309
.LBB736:
	.loc 1 477 18 view .LVU1310
	.loc 1 477 67 view .LVU1311
	.loc 1 477 24 view .LVU1312
	.loc 1 477 12 view .LVU1313
.LVL128:
	.loc 1 477 51 view .LVU1314
	.loc 1 477 186 view .LVU1315
	.loc 1 477 197 view .LVU1316
	.loc 1 477 285 view .LVU1317
.LBB737:
	.loc 1 477 13 view .LVU1318
	.loc 1 477 15 view .LVU1319
	.loc 1 477 27 is_stmt 0 view .LVU1320
	ldr	r1, [r4]
.LVL129:
	.loc 1 477 13 is_stmt 1 view .LVU1321
.LBB738:
	.loc 1 477 18 view .LVU1322
	.loc 1 477 12 view .LVU1323
.LBE738:
.LBE737:
.LBE736:
.LBE761:
.LBE765:
	.loc 1 477 13 view .LVU1324
	.loc 1 477 22 view .LVU1325
	.loc 1 477 117 view .LVU1326
	.loc 1 477 13 view .LVU1327
.LBB766:
.LBB762:
.LBB758:
.LBB755:
.LBB752:
	.loc 1 477 22 view .LVU1328
	.loc 1 477 112 view .LVU1329
	.loc 1 477 114 view .LVU1330
.LBB739:
	.loc 1 477 117 is_stmt 0 view .LVU1331
	mov	r4, sp
	.loc 1 477 119 is_stmt 1 view .LVU1332
	.loc 1 477 130 view .LVU1333
.LVL130:
	.loc 1 477 219 view .LVU1334
	.loc 1 477 36 view .LVU1335
.LBE739:
.LBE752:
.LBE755:
.LBE758:
.LBE762:
.LBE766:
	.loc 1 477 13 view .LVU1336
	.loc 1 477 378 view .LVU1337
	.loc 1 477 85 view .LVU1338
	.loc 1 477 12 view .LVU1339
	.loc 1 477 12 view .LVU1340
	.loc 1 477 12 view .LVU1341
	.loc 1 477 48 view .LVU1342
	.loc 1 477 14 view .LVU1343
	.loc 1 477 40 view .LVU1344
	.loc 1 477 66 view .LVU1345
	.loc 1 477 533 view .LVU1346
	.loc 1 477 595 view .LVU1347
	.loc 1 477 1116 view .LVU1348
	.loc 1 477 1181 view .LVU1349
	.loc 1 477 1206 view .LVU1350
	.loc 1 477 1207 view .LVU1351
	.loc 1 477 1209 view .LVU1352
	.loc 1 477 1239 view .LVU1353
	.loc 1 477 1269 view .LVU1354
	.loc 1 477 1301 view .LVU1355
	.loc 1 477 1333 view .LVU1356
	.loc 1 477 1365 view .LVU1357
	.loc 1 477 1562 view .LVU1358
	.loc 1 477 1586 view .LVU1359
	.loc 1 477 1587 view .LVU1360
	.loc 1 477 1589 view .LVU1361
	.loc 1 477 1618 view .LVU1362
	.loc 1 477 1647 view .LVU1363
	.loc 1 477 1678 view .LVU1364
	.loc 1 477 1709 view .LVU1365
	.loc 1 477 1740 view .LVU1366
	.loc 1 477 1947 view .LVU1367
	.loc 1 477 14 view .LVU1368
	.loc 1 477 32 view .LVU1369
	.loc 1 477 52 view .LVU1370
	.loc 1 477 14 view .LVU1371
	.loc 1 477 52 view .LVU1372
	.loc 1 477 23 view .LVU1373
	.loc 1 477 23 view .LVU1374
	.loc 1 477 71 view .LVU1375
	.loc 1 477 102 view .LVU1376
	.loc 1 477 136 view .LVU1377
	.loc 1 477 141 view .LVU1378
	.loc 1 477 391 view .LVU1379
	.loc 1 477 1444 view .LVU1380
	.loc 1 477 1509 view .LVU1381
	.loc 1 477 1533 view .LVU1382
	.loc 1 477 1587 view .LVU1383
	.loc 1 477 1598 view .LVU1384
	.loc 1 477 1710 view .LVU1385
	.loc 1 477 1726 view .LVU1386
	.loc 1 477 1766 view .LVU1387
	.loc 1 477 1791 view .LVU1388
	.loc 1 477 3080 view .LVU1389
	.loc 1 477 3121 view .LVU1390
	.loc 1 477 17 view .LVU1391
	.loc 1 477 40 view .LVU1392
	.loc 1 477 139 view .LVU1393
	.loc 1 477 16 view .LVU1394
	.loc 1 477 21 view .LVU1395
	.loc 1 477 246 view .LVU1396
	.loc 1 477 1199 view .LVU1397
	.loc 1 477 1264 view .LVU1398
	.loc 1 477 1288 view .LVU1399
	.loc 1 477 1317 view .LVU1400
	.loc 1 477 1328 view .LVU1401
	.loc 1 477 1415 view .LVU1402
	.loc 1 477 1431 view .LVU1403
	.loc 1 477 1471 view .LVU1404
	.loc 1 477 1561 view .LVU1405
	.loc 1 477 1964 view .LVU1406
	.loc 1 477 2621 view .LVU1407
	.loc 1 477 2640 view .LVU1408
	.loc 1 477 2677 view .LVU1409
	.loc 1 477 2735 view .LVU1410
	.loc 1 477 2776 view .LVU1411
	.loc 1 477 17 view .LVU1412
	.loc 1 477 40 view .LVU1413
	.loc 1 477 19 view .LVU1414
	.loc 1 477 15 view .LVU1415
	.loc 1 477 38 view .LVU1416
	.loc 1 477 62 view .LVU1417
	.loc 1 477 90 view .LVU1418
	.loc 1 477 266 view .LVU1419
	.loc 1 477 26 view .LVU1420
.LBB767:
.LBB763:
.LBB759:
.LBB756:
.LBB753:
.LBB750:
	.loc 1 477 39 view .LVU1421
	.loc 1 477 13 view .LVU1422
	.loc 1 477 13 view .LVU1423
	.loc 1 477 80 view .LVU1424
	.loc 1 477 92 is_stmt 0 view .LVU1425
	sub	sp, sp, #32
	mov	r2, sp
.LVL131:
	.loc 1 477 84 is_stmt 1 view .LVU1426
	.loc 1 477 494 view .LVU1427
	.loc 1 477 15 view .LVU1428
	.loc 1 477 17 view .LVU1429
	.loc 1 477 22 view .LVU1430
	.loc 1 477 20 view .LVU1431
	.loc 1 477 15 view .LVU1432
	.loc 1 477 33 view .LVU1433
.LBB740:
	.loc 1 477 13 view .LVU1434
	.loc 1 477 378 view .LVU1435
	.loc 1 477 85 view .LVU1436
.LVL132:
	.loc 1 477 12 view .LVU1437
	.loc 1 477 12 view .LVU1438
	.loc 1 477 12 view .LVU1439
	.loc 1 477 48 view .LVU1440
	.loc 1 477 77 view .LVU1441
	.loc 1 477 103 view .LVU1442
	.loc 1 477 129 view .LVU1443
	.loc 1 477 596 view .LVU1444
	.loc 1 477 658 view .LVU1445
	.loc 1 477 1179 view .LVU1446
	.loc 1 477 1244 view .LVU1447
	.loc 1 477 1269 view .LVU1448
	.loc 1 477 1270 view .LVU1449
	.loc 1 477 1272 view .LVU1450
	.loc 1 477 1302 view .LVU1451
	.loc 1 477 1332 view .LVU1452
	.loc 1 477 1364 view .LVU1453
	.loc 1 477 1396 view .LVU1454
	.loc 1 477 1428 view .LVU1455
	.loc 1 477 1625 view .LVU1456
	.loc 1 477 1649 view .LVU1457
	.loc 1 477 1650 view .LVU1458
	.loc 1 477 1652 view .LVU1459
	.loc 1 477 1681 view .LVU1460
	.loc 1 477 1710 view .LVU1461
	.loc 1 477 1741 view .LVU1462
	.loc 1 477 1772 view .LVU1463
	.loc 1 477 1803 view .LVU1464
	.loc 1 477 2010 view .LVU1465
.LBB741:
	.loc 1 477 3118 view .LVU1466
	.loc 1 477 3123 view .LVU1467
	.loc 1 477 3717 view .LVU1468
	.loc 1 477 0 is_stmt 0 view .LVU1469
	ldr	r0, .L111+12
.LBE741:
.LBB742:
	.loc 1 477 3821 view .LVU1470
	strd	r0, r1, [r2, #20]
	.loc 1 477 2776 is_stmt 1 view .LVU1471
	.loc 1 477 17 view .LVU1472
.LVL133:
	.loc 1 477 40 view .LVU1473
	.loc 1 477 40 is_stmt 0 view .LVU1474
.LBE742:
	.loc 1 477 19 is_stmt 1 view .LVU1475
	.loc 1 477 15 view .LVU1476
	.loc 1 477 38 view .LVU1477
	.loc 1 477 62 view .LVU1478
	.loc 1 477 90 view .LVU1479
.LBB743:
	.loc 1 477 16 view .LVU1480
	.loc 1 477 55 view .LVU1481
.LBE743:
.LBE740:
.LBE750:
.LBE753:
.LBE756:
.LBE759:
.LBE763:
.LBE767:
	.loc 1 477 60 view .LVU1482
	.loc 1 477 90 view .LVU1483
.LBB768:
.LBB764:
.LBB760:
.LBB757:
.LBB754:
.LBB751:
.LBB747:
.LBB745:
.LBB744:
	.loc 1 477 192 view .LVU1484
	.loc 1 477 224 view .LVU1485
	.loc 1 477 218 view .LVU1486
	.loc 1 477 192 view .LVU1487
	.loc 1 477 224 view .LVU1488
	.loc 1 477 237 is_stmt 0 view .LVU1489
	mov	r1, #512
.LVL134:
	.loc 1 477 237 view .LVU1490
	strh	r1, [r2, #28]	@ movhi
	.loc 1 477 218 is_stmt 1 view .LVU1491
.LVL135:
	.loc 1 477 192 view .LVU1492
.LBE744:
.LBE745:
	.loc 1 477 266 view .LVU1493
	.loc 1 477 26 view .LVU1494
.LBB746:
	.loc 1 477 16 view .LVU1495
	.loc 1 477 174 view .LVU1496
	.loc 1 477 176 view .LVU1497
	.loc 1 477 186 is_stmt 0 view .LVU1498
	ldr	r1, .L111+16
	str	r1, [r2, #16]!
.LVL136:
	.loc 1 477 186 view .LVU1499
.LBE746:
.LBE747:
	.loc 1 477 36 is_stmt 1 view .LVU1500
	.loc 1 477 17 view .LVU1501
	.loc 1 477 157 view .LVU1502
	.loc 1 477 159 view .LVU1503
.LBB748:
.LBI748:
	.loc 3 26 20 view .LVU1504
.LBB749:
	.loc 3 38 2 view .LVU1505
	.loc 3 38 7 view .LVU1506
	.loc 3 38 5 view .LVU1507
	.loc 3 39 2 view .LVU1508
	ldr	r0, .L111+20
	mov	r1, #7296
	bl	z_impl_z_log_msg_static_create
.LVL137:
	.loc 3 39 2 is_stmt 0 view .LVU1509
.LBE749:
.LBE748:
	mov	sp, r4
.LVL138:
	.loc 3 39 2 view .LVU1510
.LBE751:
	.loc 1 477 117 is_stmt 1 view .LVU1511
	.loc 1 477 15 view .LVU1512
	.loc 1 477 52 view .LVU1513
.LBE754:
	.loc 1 477 16 view .LVU1514
.LBE757:
	.loc 1 477 288 view .LVU1515
	.loc 1 477 15 view .LVU1516
	.loc 1 477 28 view .LVU1517
.L104:
	.loc 1 477 28 is_stmt 0 view .LVU1518
	ldr	r2, .L111+24
.LBE760:
.LBE764:
.LBE768:
.LBB769:
	.loc 1 483 14 view .LVU1519
	movs	r3, #0
.L106:
.LVL139:
	.loc 1 484 9 is_stmt 1 discriminator 3 view .LVU1520
	.loc 1 484 34 is_stmt 0 discriminator 3 view .LVU1521
	str	r3, [r2], #4
	.loc 1 483 84 is_stmt 1 discriminator 3 view .LVU1522
	adds	r3, r3, #1
.LVL140:
	.loc 1 483 23 discriminator 3 view .LVU1523
	cmp	r3, #24
	bne	.L106
.LBE769:
	.loc 1 487 5 view .LVU1524
	.loc 1 487 12 is_stmt 0 view .LVU1525
	bl	zmk_physical_layouts_select_initial
.LVL141:
	.loc 1 488 1 view .LVU1526
	mov	sp, r7
	.cfi_def_cfa_register 13
	@ sp needed
	pop	{r3, r4, r7, pc}
.L112:
	.align	2
.L111:
	.word	__device_dts_ord_23
	.word	msg_processor
	.word	zmk_physical_layouts_kscan_process_msgq
	.word	.LC8
	.word	16777219
	.word	log_const_zmk
	.word	selected_to_stock_map
	.cfi_endproc
.LFE514:
	.size	zmk_physical_layouts_init, .-zmk_physical_layouts_init
	.section	.rodata.__func__.0,"a"
	.type	__func__.0, %object
	.size	__func__.0, 40
__func__.0:
	.ascii	"zmk_physical_layouts_kscan_process_msgq\000"
	.section	.z_init_APPLICATION90_0_,"a"
	.align	2
	.type	__init_zmk_physical_layouts_init, %object
	.size	__init_zmk_physical_layouts_init, 8
__init_zmk_physical_layouts_init:
	.word	zmk_physical_layouts_init
	.word	0
	.global	settings_handler_physical_layouts
	.section	.rodata.str1.1,"aMS",%progbits,1
.LC9:
	.ascii	"physical_layouts\000"
	.section	._settings_handler_static.static.settings_handler_physical_layouts_,"a"
	.align	2
	.type	settings_handler_physical_layouts, %object
	.size	settings_handler_physical_layouts, 20
settings_handler_physical_layouts:
	.word	.LC9
	.word	0
	.word	physical_layouts_handle_set
	.word	0
	.word	0
	.section	.data.saved_selected_index,"aw"
	.type	saved_selected_index, %object
	.size	saved_selected_index, 1
saved_selected_index:
	.byte	-1
	.section	.bss.selected_to_stock_map,"aw",%nobits
	.align	2
	.type	selected_to_stock_map, %object
	.size	selected_to_stock_map, 96
selected_to_stock_map:
	.space	96
	.global	physical_layouts_kscan_msgq
	.section	._k_msgq.static.physical_layouts_kscan_msgq_,"aw"
	.align	2
	.type	physical_layouts_kscan_msgq, %object
	.size	physical_layouts_kscan_msgq, 48
physical_layouts_kscan_msgq:
	.word	physical_layouts_kscan_msgq
	.word	physical_layouts_kscan_msgq
	.word	12
	.word	4
	.word	_k_fifo_buf_physical_layouts_kscan_msgq
	.word	_k_fifo_buf_physical_layouts_kscan_msgq+48
	.word	_k_fifo_buf_physical_layouts_kscan_msgq
	.word	_k_fifo_buf_physical_layouts_kscan_msgq
	.word	0
	.word	physical_layouts_kscan_msgq+36
	.word	physical_layouts_kscan_msgq+36
	.space	4
	.section	.noinit."WEST_TOPDIR/app/src/physical_layouts.c".0,"aw"
	.align	2
	.type	_k_fifo_buf_physical_layouts_kscan_msgq, %object
	.size	_k_fifo_buf_physical_layouts_kscan_msgq, 48
_k_fifo_buf_physical_layouts_kscan_msgq:
	.space	48
	.section	.bss.msg_processor,"aw",%nobits
	.align	2
	.type	msg_processor, %object
	.size	msg_processor, 16
msg_processor:
	.space	16
	.global	active
	.section	.bss.active,"aw",%nobits
	.align	2
	.type	active, %object
	.size	active, 4
active:
	.space	4
	.section	.rodata.layouts,"a"
	.align	2
	.type	layouts, %object
	.size	layouts, 4
layouts:
	.word	_zmk_physical_layout_DT_N_S_physical_layout
	.section	.rodata.str1.1
.LC10:
	.ascii	"Default Layout\000"
	.section	.rodata._zmk_physical_layout_DT_N_S_physical_layout,"a"
	.align	2
	.type	_zmk_physical_layout_DT_N_S_physical_layout, %object
	.size	_zmk_physical_layout_DT_N_S_physical_layout, 20
_zmk_physical_layout_DT_N_S_physical_layout:
	.word	.LC10
	.word	zmk_matrix_transform_DT_N_S_keymap_transform0
	.word	__device_dts_ord_23
	.word	_zmk_physical_layout_keys_0
	.word	24
	.section	.rodata._zmk_physical_layout_keys_0,"a"
	.align	1
	.type	_zmk_physical_layout_keys_0, %object
	.size	_zmk_physical_layout_keys_0, 336
_zmk_physical_layout_keys_0:
	.short	100
	.short	100
	.short	0
	.short	0
	.short	0
	.short	0
	.short	0
	.short	100
	.short	100
	.short	100
	.short	0
	.short	0
	.short	0
	.short	0
	.short	100
	.short	100
	.short	200
	.short	0
	.short	0
	.short	0
	.short	0
	.short	100
	.short	100
	.short	300
	.short	0
	.short	0
	.short	0
	.short	0
	.short	100
	.short	100
	.short	400
	.short	0
	.short	0
	.short	0
	.short	0
	.short	100
	.short	100
	.short	500
	.short	0
	.short	0
	.short	0
	.short	0
	.short	100
	.short	100
	.short	600
	.short	0
	.short	0
	.short	0
	.short	0
	.short	100
	.short	100
	.short	700
	.short	0
	.short	0
	.short	0
	.short	0
	.short	100
	.short	100
	.short	0
	.short	100
	.short	0
	.short	0
	.short	0
	.short	100
	.short	100
	.short	100
	.short	100
	.short	0
	.short	0
	.short	0
	.short	100
	.short	100
	.short	200
	.short	100
	.short	0
	.short	0
	.short	0
	.short	100
	.short	100
	.short	300
	.short	100
	.short	0
	.short	0
	.short	0
	.short	100
	.short	100
	.short	400
	.short	100
	.short	0
	.short	0
	.short	0
	.short	100
	.short	100
	.short	500
	.short	100
	.short	0
	.short	0
	.short	0
	.short	100
	.short	100
	.short	600
	.short	100
	.short	0
	.short	0
	.short	0
	.short	100
	.short	100
	.short	700
	.short	100
	.short	0
	.short	0
	.short	0
	.short	100
	.short	100
	.short	0
	.short	200
	.short	0
	.short	0
	.short	0
	.short	100
	.short	100
	.short	100
	.short	200
	.short	0
	.short	0
	.short	0
	.short	100
	.short	100
	.short	200
	.short	200
	.short	0
	.short	0
	.short	0
	.short	100
	.short	100
	.short	300
	.short	200
	.short	0
	.short	0
	.short	0
	.short	100
	.short	100
	.short	400
	.short	200
	.short	0
	.short	0
	.short	0
	.short	100
	.short	100
	.short	500
	.short	200
	.short	0
	.short	0
	.short	0
	.short	100
	.short	100
	.short	600
	.short	200
	.short	0
	.short	0
	.short	0
	.short	100
	.short	100
	.short	700
	.short	200
	.short	0
	.short	0
	.short	0
	.global	zmk_event_ref_zmk_physical_layout_selection_changed
	.section	.event_type,"aw"
	.align	2
	.type	zmk_event_ref_zmk_physical_layout_selection_changed, %object
	.size	zmk_event_ref_zmk_physical_layout_selection_changed, 4
zmk_event_ref_zmk_physical_layout_selection_changed:
	.word	zmk_event_zmk_physical_layout_selection_changed
	.global	zmk_event_zmk_physical_layout_selection_changed
	.section	.rodata.str1.1
.LC11:
	.ascii	"zmk_physical_layout_selection_changed\000"
	.section	.rodata.zmk_event_zmk_physical_layout_selection_changed,"a"
	.align	2
	.type	zmk_event_zmk_physical_layout_selection_changed, %object
	.size	zmk_event_zmk_physical_layout_selection_changed, 4
zmk_event_zmk_physical_layout_selection_changed:
	.word	.LC11
	.text
.Letext0:
	.file 7 "/home/g/zephyr-sdk-0.16.3/arm-zephyr-eabi/picolibc/include/machine/_default_types.h"
	.file 8 "/home/g/zephyr-sdk-0.16.3/arm-zephyr-eabi/picolibc/include/sys/_stdint.h"
	.file 9 "/home/g/zephyr-sdk-0.16.3/arm-zephyr-eabi/lib/gcc/arm-zephyr-eabi/12.2.0/include/stddef.h"
	.file 10 "/home/g/mise-work/zmk-firmware/zmk/zephyr/include/zephyr/init.h"
	.file 11 "/home/g/mise-work/zmk-firmware/zmk/zephyr/include/zephyr/device.h"
	.file 12 "/home/g/mise-work/zmk-firmware/zmk/zephyr/include/zephyr/pm/device.h"
	.file 13 "/home/g/mise-work/zmk-firmware/zmk/zephyr/include/zephyr/sys/atomic.h"
	.file 14 "/home/g/mise-work/zmk-firmware/zmk/zephyr/include/zephyr/sys/dlist.h"
	.file 15 "/home/g/mise-work/zmk-firmware/zmk/zephyr/include/zephyr/sys/rb.h"
	.file 16 "/home/g/mise-work/zmk-firmware/zmk/zephyr/include/zephyr/sys/slist.h"
	.file 17 "/home/g/mise-work/zmk-firmware/zmk/zephyr/include/zephyr/sys/sys_heap.h"
	.file 18 "/home/g/mise-work/zmk-firmware/zmk/zephyr/include/zephyr/kernel/thread.h"
	.file 19 "/home/g/mise-work/zmk-firmware/zmk/zephyr/include/zephyr/kernel_structs.h"
	.file 20 "/home/g/zephyr-sdk-0.16.3/arm-zephyr-eabi/picolibc/include/sys/_types.h"
	.file 21 "/home/g/zephyr-sdk-0.16.3/arm-zephyr-eabi/picolibc/include/sys/types.h"
	.file 22 "/home/g/mise-work/zmk-firmware/zmk/zephyr/include/zephyr/arch/arm/thread.h"
	.file 23 "/home/g/mise-work/zmk-firmware/zmk/zephyr/include/zephyr/sys_clock.h"
	.file 24 "/home/g/mise-work/zmk-firmware/zmk/zephyr/include/zephyr/fatal_types.h"
	.file 25 "/home/g/mise-work/zmk-firmware/zmk/zephyr/include/zephyr/settings/settings.h"
	.file 26 "/home/g/mise-work/zmk-firmware/zmk/zephyr/include/zephyr/logging/log_instance.h"
	.file 27 "/home/g/mise-work/zmk-firmware/zmk/zephyr/include/zephyr/sys/cbprintf.h"
	.file 28 "/home/g/mise-work/zmk-firmware/zmk/zephyr/include/zephyr/logging/log_msg.h"
	.file 29 "/home/g/mise-work/zmk-firmware/zmk/app/include/zmk/matrix_transform.h"
	.file 30 "/home/g/mise-work/zmk-firmware/zmk/app/include/zmk/event_manager.h"
	.file 31 "/home/g/mise-work/zmk-firmware/zmk/app/include/zmk/physical_layouts.h"
	.file 32 "/home/g/mise-work/zmk-firmware/zmk/app/include/zmk/events/position_state_changed.h"
	.file 33 "/home/g/mise-work/zmk-firmware/zmk/zephyr/include/zephyr/sys/cbprintf_internal.h"
	.file 34 "/home/g/zephyr-sdk-0.16.3/arm-zephyr-eabi/picolibc/include/ssp/string.h"
	.file 35 "/home/g/mise-work/zmk-firmware/zmk/zephyr/include/zephyr/syscall.h"
	.file 36 "/home/g/mise-work/zmk-firmware/zmk/zephyr/include/zephyr/spinlock.h"