	.cpu cortex-m4
	.arch armv7e-m
	.fpu fpv4-sp-d16
	.eabi_attribute 27, 1
	.eabi_attribute 28, 1
	.eabi_attribute 20, 1
	.eabi_attribute 21, 1
	.eabi_attribute 23, 3
	.eabi_attribute 24, 1
	.eabi_attribute 25, 1
	.eabi_attribute 26, 1
	.eabi_attribute 30, 4
	.eabi_attribute 34, 1
	.eabi_attribute 38, 1
	.eabi_attribute 18, 4
	.file	"usb.c"
	.text
.Ltext0:
	.cfi_sections	.debug_frame
	.file 1 "/home/g/mise-work/zmk-firmware/zmk/app/src/usb.c"
	.section	.rodata.zmk_usb_init.part.0.str1.1,"aMS",%progbits,1
.LC0:
	.ascii	"Unable to enable USB\000"
	.section	.text.zmk_usb_init.part.0,"ax",%progbits
	.align	1
	.syntax unified
	.thumb
	.thumb_func
	.type	zmk_usb_init.part.0, %function
zmk_usb_init.part.0:
.LFB491:
	.loc 1 78 12 view -0
	.cfi_startproc
	@ args = 0, pretend = 0, frame = 24
	@ frame_needed = 0, uses_anonymous_args = 0
	.loc 1 84 9 view .LVU1
.LBB158:
	.loc 1 84 14 view .LVU2
	.loc 1 84 63 view .LVU3
	.loc 1 84 20 view .LVU4
	.loc 1 84 8 view .LVU5
.LVL0:
	.loc 1 84 47 view .LVU6
	.loc 1 84 182 view .LVU7
	.loc 1 84 193 view .LVU8
	.loc 1 84 281 view .LVU9
	.loc 1 84 9 view .LVU10
	.loc 1 84 9 view .LVU11
.LBB159:
	.loc 1 84 14 view .LVU12
	.loc 1 84 8 view .LVU13
.LBE159:
.LBE158:
	.loc 1 84 9 view .LVU14
	.loc 1 84 18 view .LVU15
	.loc 1 84 113 view .LVU16
	.loc 1 84 9 view .LVU17
.LBB178:
.LBB173:
	.loc 1 84 18 view .LVU18
	.loc 1 84 108 view .LVU19
	.loc 1 84 110 view .LVU20
.LBB160:
	.loc 1 84 115 view .LVU21
	.loc 1 84 126 view .LVU22
	.loc 1 84 215 view .LVU23
	.loc 1 84 32 view .LVU24
.LBE160:
.LBE173:
.LBE178:
	.loc 1 84 9 view .LVU25
	.loc 1 84 374 view .LVU26
	.loc 1 84 81 view .LVU27
	.loc 1 84 8 view .LVU28
	.loc 1 84 8 view .LVU29
	.loc 1 84 8 view .LVU30
	.loc 1 84 44 view .LVU31
	.loc 1 84 10 view .LVU32
	.loc 1 84 36 view .LVU33
	.loc 1 84 62 view .LVU34
	.loc 1 84 85 view .LVU35
	.loc 1 84 147 view .LVU36
	.loc 1 84 204 view .LVU37
	.loc 1 84 269 view .LVU38
	.loc 1 84 294 view .LVU39
	.loc 1 84 295 view .LVU40
	.loc 1 84 297 view .LVU41
	.loc 1 84 327 view .LVU42
	.loc 1 84 357 view .LVU43
	.loc 1 84 389 view .LVU44
	.loc 1 84 421 view .LVU45
	.loc 1 84 453 view .LVU46
	.loc 1 84 650 view .LVU47
	.loc 1 84 674 view .LVU48
	.loc 1 84 675 view .LVU49
	.loc 1 84 677 view .LVU50
	.loc 1 84 706 view .LVU51
	.loc 1 84 735 view .LVU52
	.loc 1 84 766 view .LVU53
	.loc 1 84 797 view .LVU54
	.loc 1 84 828 view .LVU55
	.loc 1 84 1035 view .LVU56
	.loc 1 84 10 view .LVU57
	.loc 1 84 28 view .LVU58
	.loc 1 84 48 view .LVU59
	.loc 1 84 10 view .LVU60
	.loc 1 84 48 view .LVU61
	.loc 1 84 19 view .LVU62
	.loc 1 84 19 view .LVU63
	.loc 1 84 67 view .LVU64
	.loc 1 84 98 view .LVU65
	.loc 1 84 132 view .LVU66
	.loc 1 84 137 view .LVU67
	.loc 1 84 381 view .LVU68
	.loc 1 84 1410 view .LVU69
	.loc 1 84 1475 view .LVU70
	.loc 1 84 1499 view .LVU71
	.loc 1 84 1547 view .LVU72
	.loc 1 84 1558 view .LVU73
	.loc 1 84 1664 view .LVU74
	.loc 1 84 1680 view .LVU75
	.loc 1 84 1720 view .LVU76
	.loc 1 84 1745 view .LVU77
	.loc 1 84 3022 view .LVU78
	.loc 1 84 3063 view .LVU79
	.loc 1 84 13 view .LVU80
	.loc 1 84 36 view .LVU81
	.loc 1 84 135 view .LVU82
	.loc 1 84 11 view .LVU83
	.loc 1 84 34 view .LVU84
	.loc 1 84 58 view .LVU85
	.loc 1 84 86 view .LVU86
	.loc 1 84 262 view .LVU87
	.loc 1 84 22 view .LVU88
.LBB179:
.LBB174:
.LBB169:
	.loc 1 84 35 view .LVU89
	.loc 1 84 9 view .LVU90
	.loc 1 84 9 view .LVU91
	.loc 1 84 76 view .LVU92
	.loc 1 84 76 is_stmt 0 view .LVU93
.LBE169:
.LBE174:
.LBE179:
	.loc 1 78 12 view .LVU94
	push	{r0, r1, r2, r3, r4, r5, r6, lr}
	.cfi_def_cfa_offset 32
	.cfi_offset 14, -4
.LVL1:
.LBB180:
.LBB175:
.LBB170:
	.loc 1 84 80 is_stmt 1 view .LVU95
	.loc 1 84 490 view .LVU96
	.loc 1 84 11 view .LVU97
	.loc 1 84 13 view .LVU98
	.loc 1 84 18 view .LVU99
	.loc 1 84 16 view .LVU100
	.loc 1 84 11 view .LVU101
	.loc 1 84 29 view .LVU102
.LBB161:
	.loc 1 84 9 view .LVU103
	.loc 1 84 374 view .LVU104
	.loc 1 84 81 view .LVU105
.LVL2:
	.loc 1 84 8 view .LVU106
	.loc 1 84 8 view .LVU107
	.loc 1 84 8 view .LVU108
	.loc 1 84 44 view .LVU109
	.loc 1 84 73 view .LVU110
	.loc 1 84 99 view .LVU111
	.loc 1 84 125 view .LVU112
	.loc 1 84 148 view .LVU113
	.loc 1 84 210 view .LVU114
	.loc 1 84 267 view .LVU115
	.loc 1 84 332 view .LVU116
	.loc 1 84 357 view .LVU117
	.loc 1 84 358 view .LVU118
	.loc 1 84 360 view .LVU119
	.loc 1 84 390 view .LVU120
	.loc 1 84 420 view .LVU121
	.loc 1 84 452 view .LVU122
	.loc 1 84 484 view .LVU123
	.loc 1 84 516 view .LVU124
	.loc 1 84 713 view .LVU125
	.loc 1 84 737 view .LVU126
	.loc 1 84 738 view .LVU127
	.loc 1 84 740 view .LVU128
	.loc 1 84 769 view .LVU129
	.loc 1 84 798 view .LVU130
	.loc 1 84 829 view .LVU131
	.loc 1 84 860 view .LVU132
	.loc 1 84 891 view .LVU133
	.loc 1 84 1098 view .LVU134
	.loc 1 84 10 view .LVU135
	.loc 1 84 28 view .LVU136
	.loc 1 84 48 view .LVU137
	.loc 1 84 10 view .LVU138
	.loc 1 84 48 view .LVU139
	.loc 1 84 19 view .LVU140
	.loc 1 84 19 view .LVU141
	.loc 1 84 67 view .LVU142
	.loc 1 84 98 view .LVU143
	.loc 1 84 132 view .LVU144
.LBB162:
	.loc 1 84 137 view .LVU145
	.loc 1 84 381 view .LVU146
	.loc 1 84 1410 view .LVU147
	.loc 1 84 1475 view .LVU148
.LBE162:
.LBE161:
.LBE170:
.LBE175:
.LBE180:
	.loc 1 84 1499 view .LVU149
	.loc 1 84 1547 view .LVU150
	.loc 1 84 1558 view .LVU151
	.loc 1 84 1664 view .LVU152
.LBB181:
.LBB176:
.LBB171:
.LBB165:
.LBB163:
	.loc 1 84 1680 view .LVU153
	.loc 1 84 1720 view .LVU154
	.loc 1 84 1745 view .LVU155
	.loc 1 84 3022 view .LVU156
	.loc 1 84 3060 view .LVU157
	.loc 1 84 3065 view .LVU158
	.loc 1 84 3623 view .LVU159
	.loc 1 84 0 is_stmt 0 view .LVU160
	ldr	r3, .L2
	str	r3, [sp, #20]
	.loc 1 84 3063 is_stmt 1 view .LVU161
	.loc 1 84 13 view .LVU162
.LVL3:
	.loc 1 84 36 view .LVU163
	.loc 1 84 36 is_stmt 0 view .LVU164
.LBE163:
	.loc 1 84 135 is_stmt 1 view .LVU165
	.loc 1 84 11 view .LVU166
	.loc 1 84 34 view .LVU167
	.loc 1 84 58 view .LVU168
	.loc 1 84 86 view .LVU169
.LBE165:
.LBE171:
.LBE176:
.LBE181:
	.loc 1 84 12 view .LVU170
	.loc 1 84 51 view .LVU171
	.loc 1 84 56 view .LVU172
	.loc 1 84 86 view .LVU173
	.loc 1 84 153 view .LVU174
	.loc 1 84 158 view .LVU175
	.loc 1 84 188 view .LVU176
.LBB182:
.LBB177:
.LBB172:
.LBB166:
	.loc 1 84 262 view .LVU177
	.loc 1 84 22 view .LVU178
.LBB164:
	.loc 1 84 12 view .LVU179
	.loc 1 84 170 view .LVU180
	.loc 1 84 172 view .LVU181
	.loc 1 84 182 is_stmt 0 view .LVU182
	movs	r3, #2
	str	r3, [sp, #16]
.LVL4:
	.loc 1 84 182 view .LVU183
.LBE164:
.LBE166:
	.loc 1 84 32 is_stmt 1 view .LVU184
	.loc 1 84 13 view .LVU185
	.loc 1 84 153 view .LVU186
	.loc 1 84 155 view .LVU187
.LBB167:
.LBI167:
	.file 2 "/home/g/mise-work/zmk-firmware/zmk/app/build/zephyr/include/generated/syscalls/log_msg.h"
	.loc 2 26 20 view .LVU188
.LBB168:
	.loc 2 38 2 view .LVU189
	.loc 2 38 7 view .LVU190
	.loc 2 38 5 view .LVU191
	.loc 2 39 2 view .LVU192
	ldr	r0, .L2+4
	movs	r3, #0
	add	r2, sp, #16
.LVL5:
	.loc 2 39 2 is_stmt 0 view .LVU193
	mov	r1, #4160
	bl	z_impl_z_log_msg_static_create
.LVL6:
	.loc 2 39 2 view .LVU194
.LBE168:
.LBE167:
.LBE172:
	.loc 1 84 113 is_stmt 1 view .LVU195
	.loc 1 84 11 view .LVU196
	.loc 1 84 48 view .LVU197
.LBE177:
	.loc 1 84 12 view .LVU198
	.loc 1 84 284 view .LVU199
	.loc 1 84 11 view .LVU200
	.loc 1 84 24 view .LVU201
.LBE182:
	.loc 1 84 12 view .LVU202
	.loc 1 85 9 view .LVU203
	.loc 1 89 1 is_stmt 0 view .LVU204
	mvn	r0, #21
	add	sp, sp, #28
	.cfi_def_cfa_offset 4
.LVL7:
	.loc 1 89 1 view .LVU205
	@ sp needed
	ldr	pc, [sp], #4
.LVL8:
.L3:
	.loc 1 89 1 view .LVU206
	.align	2
.L2:
	.word	.LC0
	.word	log_const_zmk
	.cfi_endproc
.LFE491:
	.size	zmk_usb_init.part.0, .-zmk_usb_init.part.0
	.section	.text.zmk_usb_init,"ax",%progbits
	.align	1
	.syntax unified
	.thumb
	.thumb_func
	.type	zmk_usb_init, %function
zmk_usb_init:
.LFB490:
	.loc 1 78 31 is_stmt 1 view -0
	.cfi_startproc
	@ args = 0, pretend = 0, frame = 0
	@ frame_needed = 0, uses_anonymous_args = 0
	.loc 1 79 5 view .LVU208
	.loc 1 81 5 view .LVU209
	.loc 1 78 31 is_stmt 0 view .LVU210
	push	{r3, lr}
	.cfi_def_cfa_offset 8
	.cfi_offset 3, -8
	.cfi_offset 14, -4
	.loc 1 81 22 view .LVU211
	ldr	r0, .L6
	bl	usb_enable
.LVL9:
	.loc 1 83 5 is_stmt 1 view .LVU212
	.loc 1 83 8 is_stmt 0 view .LVU213
	cbz	r0, .L4
	.loc 1 89 1 view .LVU214
	pop	{r3, lr}
	.cfi_remember_state
	.cfi_restore 14
	.cfi_restore 3
	.cfi_def_cfa_offset 0
	b	zmk_usb_init.part.0
.LVL10:
.L4:
	.cfi_restore_state
	.loc 1 89 1 view .LVU215
	pop	{r3, pc}
.L7:
	.align	2
.L6:
	.word	usb_status_cb
	.cfi_endproc
.LFE490:
	.size	zmk_usb_init, .-zmk_usb_init
	.section	.text.zmk_usb_get_status,"ax",%progbits
	.align	1
	.global	zmk_usb_get_status
	.syntax unified
	.thumb
	.thumb_func
	.type	zmk_usb_get_status, %function
zmk_usb_get_status:
.LFB486:
	.loc 1 32 50 is_stmt 1 view -0
	.cfi_startproc
	@ args = 0, pretend = 0, frame = 0
	@ frame_needed = 0, uses_anonymous_args = 0
	@ link register save eliminated.
	.loc 1 32 52 view .LVU217
	.loc 1 32 71 is_stmt 0 view .LVU218
	ldr	r3, .L9
	ldrb	r0, [r3]	@ zero_extendqisi2
	bx	lr
.L10:
	.align	2
.L9:
	.word	usb_status
	.cfi_endproc
.LFE486:
	.size	zmk_usb_get_status, .-zmk_usb_get_status
	.section	.rodata.zmk_usb_get_conn_state.str1.1,"aMS",%progbits,1
.LC1:
	.ascii	"%s: state: %d\000"
	.section	.text.zmk_usb_get_conn_state,"ax",%progbits
	.align	1
	.global	zmk_usb_get_conn_state
	.syntax unified
	.thumb
	.thumb_func
	.type	zmk_usb_get_conn_state, %function
zmk_usb_get_conn_state:
.LFB487:
	.loc 1 34 54 is_stmt 1 view -0
	.cfi_startproc
	@ args = 0, pretend = 0, frame = 0
	@ frame_needed = 1, uses_anonymous_args = 0
	.loc 1 35 5 view .LVU220
.LBB194:
	.loc 1 35 10 view .LVU221
	.loc 1 35 59 view .LVU222
	.loc 1 35 16 view .LVU223
	.loc 1 35 4 view .LVU224
.LVL11:
	.loc 1 35 43 view .LVU225
	.loc 1 35 178 view .LVU226
	.loc 1 35 189 view .LVU227
	.loc 1 35 277 view .LVU228
.LBB195:
	.loc 1 35 5 view .LVU229
	.loc 1 35 7 view .LVU230
	.loc 1 35 56 view .LVU231
.LBE195:
.LBE194:
	.loc 1 34 54 is_stmt 0 view .LVU232
	push	{r4, r5, r7, lr}
	.cfi_def_cfa_offset 16
	.cfi_offset 4, -16
	.cfi_offset 5, -12
	.cfi_offset 7, -8
	.cfi_offset 14, -4
.LBB226:
.LBB219:
	.loc 1 35 87 view .LVU233
	ldr	r4, .L15
.LBE219:
.LBE226:
	.loc 1 34 54 view .LVU234
	add	r7, sp, #0
	.cfi_def_cfa_register 7
.LBB227:
.LBB220:
.LBB196:
.LBB197:
	.loc 1 35 109 view .LVU235
	mov	r5, sp
	.loc 1 35 84 view .LVU236
	sub	sp, sp, #32
.LBE197:
.LBE196:
	.loc 1 35 68 view .LVU237
	ldrb	r3, [r4]	@ zero_extendqisi2
.LVL12:
	.loc 1 35 5 is_stmt 1 view .LVU238
.LBB213:
	.loc 1 35 10 view .LVU239
	.loc 1 35 4 view .LVU240
.LBE213:
.LBE220:
.LBE227:
	.loc 1 35 5 view .LVU241
	.loc 1 35 14 view .LVU242
	.loc 1 35 109 view .LVU243
	.loc 1 35 5 view .LVU244
.LBB228:
.LBB221:
.LBB214:
	.loc 1 35 14 view .LVU245
	.loc 1 35 104 view .LVU246
	.loc 1 35 106 view .LVU247
.LBB208:
	.loc 1 35 111 view .LVU248
	.loc 1 35 122 view .LVU249
	.loc 1 35 211 view .LVU250
	.loc 1 35 28 view .LVU251
.LBE208:
.LBE214:
.LBE221:
.LBE228:
	.loc 1 35 5 view .LVU252
	.loc 1 35 370 view .LVU253
	.loc 1 35 77 view .LVU254
	.loc 1 35 4 view .LVU255
	.loc 1 35 4 view .LVU256
	.loc 1 35 4 view .LVU257
	.loc 1 35 40 view .LVU258
	.loc 1 35 6 view .LVU259
	.loc 1 35 32 view .LVU260
	.loc 1 35 58 view .LVU261
	.loc 1 35 971 view .LVU262
	.loc 1 35 1033 view .LVU263
	.loc 1 35 2020 view .LVU264
	.loc 1 35 2085 view .LVU265
	.loc 1 35 2110 view .LVU266
	.loc 1 35 2111 view .LVU267
	.loc 1 35 2113 view .LVU268
	.loc 1 35 2143 view .LVU269
	.loc 1 35 2173 view .LVU270
	.loc 1 35 2205 view .LVU271
	.loc 1 35 2237 view .LVU272
	.loc 1 35 2269 view .LVU273
	.loc 1 35 2466 view .LVU274
	.loc 1 35 2490 view .LVU275
	.loc 1 35 2491 view .LVU276
	.loc 1 35 2493 view .LVU277
	.loc 1 35 2522 view .LVU278
	.loc 1 35 2551 view .LVU279
	.loc 1 35 2582 view .LVU280
	.loc 1 35 2613 view .LVU281
	.loc 1 35 2644 view .LVU282
	.loc 1 35 2851 view .LVU283
	.loc 1 35 6 view .LVU284
	.loc 1 35 24 view .LVU285
	.loc 1 35 44 view .LVU286
	.loc 1 35 6 view .LVU287
	.loc 1 35 44 view .LVU288
	.loc 1 35 15 view .LVU289
	.loc 1 35 15 view .LVU290
	.loc 1 35 63 view .LVU291
	.loc 1 35 94 view .LVU292
	.loc 1 35 128 view .LVU293
	.loc 1 35 133 view .LVU294
	.loc 1 35 373 view .LVU295
	.loc 1 35 1386 view .LVU296
	.loc 1 35 1451 view .LVU297
	.loc 1 35 1475 view .LVU298
	.loc 1 35 1519 view .LVU299
	.loc 1 35 1530 view .LVU300
	.loc 1 35 1632 view .LVU301
	.loc 1 35 1648 view .LVU302
	.loc 1 35 1688 view .LVU303
	.loc 1 35 1713 view .LVU304
	.loc 1 35 2982 view .LVU305
	.loc 1 35 3023 view .LVU306
	.loc 1 35 9 view .LVU307
	.loc 1 35 32 view .LVU308
	.loc 1 35 131 view .LVU309
	.loc 1 35 8 view .LVU310
	.loc 1 35 13 view .LVU311
	.loc 1 35 238 view .LVU312
	.loc 1 35 1191 view .LVU313
	.loc 1 35 1256 view .LVU314
	.loc 1 35 1280 view .LVU315
	.loc 1 35 1309 view .LVU316
	.loc 1 35 1320 view .LVU317
	.loc 1 35 1407 view .LVU318
	.loc 1 35 1423 view .LVU319
	.loc 1 35 1463 view .LVU320
	.loc 1 35 1488 view .LVU321
	.loc 1 35 2727 view .LVU322
	.loc 1 35 2768 view .LVU323
	.loc 1 35 9 view .LVU324
	.loc 1 35 32 view .LVU325
	.loc 1 35 11 view .LVU326
	.loc 1 35 8 view .LVU327
	.loc 1 35 13 view .LVU328
	.loc 1 35 238 view .LVU329
	.loc 1 35 1191 view .LVU330
	.loc 1 35 1256 view .LVU331
	.loc 1 35 1280 view .LVU332
	.loc 1 35 1309 view .LVU333
	.loc 1 35 1320 view .LVU334
	.loc 1 35 1407 view .LVU335
	.loc 1 35 1423 view .LVU336
	.loc 1 35 1463 view .LVU337
	.loc 1 35 2727 view .LVU338
	.loc 1 35 2768 view .LVU339
	.loc 1 35 9 view .LVU340
	.loc 1 35 32 view .LVU341
	.loc 1 35 11 view .LVU342
	.loc 1 35 7 view .LVU343
	.loc 1 35 30 view .LVU344
	.loc 1 35 54 view .LVU345
	.loc 1 35 82 view .LVU346
	.loc 1 35 258 view .LVU347
	.loc 1 35 18 view .LVU348
.LBB229:
.LBB222:
.LBB215:
.LBB209:
	.loc 1 35 31 view .LVU349
	.loc 1 35 5 view .LVU350
	.loc 1 35 5 view .LVU351
	.loc 1 35 72 view .LVU352
	.loc 1 35 84 is_stmt 0 view .LVU353
	mov	r2, sp
.LVL13:
	.loc 1 35 76 is_stmt 1 view .LVU354
	.loc 1 35 486 view .LVU355
	.loc 1 35 7 view .LVU356
	.loc 1 35 9 view .LVU357
	.loc 1 35 14 view .LVU358
	.loc 1 35 12 view .LVU359
	.loc 1 35 7 view .LVU360
	.loc 1 35 25 view .LVU361
.LBB198:
	.loc 1 35 5 view .LVU362
	.loc 1 35 370 view .LVU363
	.loc 1 35 77 view .LVU364
.LVL14:
	.loc 1 35 4 view .LVU365
	.loc 1 35 4 view .LVU366
	.loc 1 35 4 view .LVU367
	.loc 1 35 40 view .LVU368
	.loc 1 35 69 view .LVU369
	.loc 1 35 95 view .LVU370
	.loc 1 35 121 view .LVU371
	.loc 1 35 1034 view .LVU372
	.loc 1 35 1096 view .LVU373
	.loc 1 35 2083 view .LVU374
	.loc 1 35 2148 view .LVU375
	.loc 1 35 2173 view .LVU376
	.loc 1 35 2174 view .LVU377
	.loc 1 35 2176 view .LVU378
	.loc 1 35 2206 view .LVU379
	.loc 1 35 2236 view .LVU380
	.loc 1 35 2268 view .LVU381
	.loc 1 35 2300 view .LVU382
	.loc 1 35 2332 view .LVU383
	.loc 1 35 2529 view .LVU384
	.loc 1 35 2553 view .LVU385
	.loc 1 35 2554 view .LVU386
	.loc 1 35 2556 view .LVU387
	.loc 1 35 2585 view .LVU388
	.loc 1 35 2614 view .LVU389
	.loc 1 35 2645 view .LVU390
	.loc 1 35 2676 view .LVU391
	.loc 1 35 2707 view .LVU392
	.loc 1 35 2914 view .LVU393
.LBB199:
	.loc 1 35 3020 view .LVU394
	.loc 1 35 3025 view .LVU395
	.loc 1 35 3559 view .LVU396
	.loc 1 35 0 is_stmt 0 view .LVU397
	ldr	r1, .L15+4
	str	r1, [r2, #20]
	.loc 1 35 3023 is_stmt 1 view .LVU398
	.loc 1 35 9 view .LVU399
.LVL15:
	.loc 1 35 32 view .LVU400
	.loc 1 35 32 is_stmt 0 view .LVU401
.LBE199:
	.loc 1 35 131 is_stmt 1 view .LVU402
	.loc 1 35 8 view .LVU403
.LBB200:
	.loc 1 35 13 view .LVU404
	.loc 1 35 238 view .LVU405
	.loc 1 35 1191 view .LVU406
	.loc 1 35 1256 view .LVU407
.LBE200:
.LBE198:
.LBE209:
.LBE215:
.LBE222:
.LBE229:
	.loc 1 35 1280 view .LVU408
	.loc 1 35 1309 view .LVU409
	.loc 1 35 1320 view .LVU410
	.loc 1 35 1407 view .LVU411
.LBB230:
.LBB223:
.LBB216:
.LBB210:
.LBB204:
.LBB201:
	.loc 1 35 1423 view .LVU412
	.loc 1 35 1463 view .LVU413
	.loc 1 35 1488 view .LVU414
	.loc 1 35 2727 view .LVU415
	.loc 1 35 2765 view .LVU416
	.loc 1 35 2770 view .LVU417
	.loc 1 35 3214 view .LVU418
	.loc 1 35 3813 is_stmt 0 view .LVU419
	ldr	r1, .L15+8
.LBE201:
.LBB202:
	.loc 1 35 3813 view .LVU420
	strd	r1, r3, [r2, #24]
	.loc 1 35 2768 is_stmt 1 view .LVU421
	.loc 1 35 9 view .LVU422
.LVL16:
	.loc 1 35 32 view .LVU423
	.loc 1 35 32 is_stmt 0 view .LVU424
.LBE202:
	.loc 1 35 11 is_stmt 1 view .LVU425
	.loc 1 35 7 view .LVU426
	.loc 1 35 30 view .LVU427
	.loc 1 35 54 view .LVU428
	.loc 1 35 82 view .LVU429
.LBE204:
.LBE210:
.LBE216:
.LBE223:
.LBE230:
	.loc 1 35 8 view .LVU430
	.loc 1 35 47 view .LVU431
	.loc 1 35 52 view .LVU432
	.loc 1 35 82 view .LVU433
	.loc 1 35 149 view .LVU434
	.loc 1 35 154 view .LVU435
	.loc 1 35 184 view .LVU436
.LBB231:
.LBB224:
.LBB217:
.LBB211:
.LBB205:
	.loc 1 35 258 view .LVU437
	.loc 1 35 18 view .LVU438
.LBB203:
	.loc 1 35 8 view .LVU439
	.loc 1 35 166 view .LVU440
	.loc 1 35 168 view .LVU441
	.loc 1 35 178 is_stmt 0 view .LVU442
	movs	r3, #4
.LVL17:
	.loc 1 35 178 view .LVU443
	str	r3, [r2, #16]!
.LVL18:
	.loc 1 35 178 view .LVU444
.LBE203:
.LBE205:
	.loc 1 35 28 is_stmt 1 view .LVU445
	.loc 1 35 9 view .LVU446
	.loc 1 35 149 view .LVU447
	.loc 1 35 151 view .LVU448
.LBB206:
.LBI206:
	.loc 2 26 20 view .LVU449
.LBB207:
	.loc 2 38 2 view .LVU450
	.loc 2 38 7 view .LVU451
	.loc 2 38 5 view .LVU452
	.loc 2 39 2 view .LVU453
	ldr	r0, .L15+12
	movs	r3, #0
	mov	r1, #8448
	bl	z_impl_z_log_msg_static_create
.LVL19:
	.loc 2 39 2 is_stmt 0 view .LVU454
.LBE207:
.LBE206:
.LBE211:
.LBE217:
.LBE224:
.LBE231:
	.loc 1 36 5 view .LVU455
	ldrb	r3, [r4]	@ zero_extendqisi2
	cmp	r3, #11
.LBB232:
.LBB225:
.LBB218:
.LBB212:
	mov	sp, r5
.LVL20:
	.loc 1 36 5 view .LVU456
.LBE212:
	.loc 1 35 109 is_stmt 1 view .LVU457
	.loc 1 35 7 view .LVU458
	.loc 1 35 44 view .LVU459
.LBE218:
	.loc 1 35 8 view .LVU460
.LBE225:
	.loc 1 35 280 view .LVU461
	.loc 1 35 7 view .LVU462
	.loc 1 35 20 view .LVU463
.LBE232:
	.loc 1 35 8 view .LVU464
	.loc 1 36 5 view .LVU465
	mov	r0, #1
	bhi	.L12
	lsls	r0, r0, r3
	tst	r0, #1640
	bne	.L14
	tst	r0, #2064
	ite	eq
	moveq	r0, #1
	movne	r0, #0
.L12:
	.loc 1 51 1 is_stmt 0 view .LVU466
	mov	sp, r7
	.cfi_remember_state
	.cfi_def_cfa_register 13
	@ sp needed
	pop	{r4, r5, r7, pc}
.LVL21:
.L14:
	.cfi_restore_state
	.loc 1 42 16 view .LVU467
	movs	r0, #2
	b	.L12
.L16:
	.align	2
.L15:
	.word	usb_status
	.word	.LC1
	.word	__func__.0
	.word	log_const_zmk
	.cfi_endproc
.LFE487:
	.size	zmk_usb_get_conn_state, .-zmk_usb_get_conn_state
	.section	.text.raise_usb_status_changed_event,"ax",%progbits
	.align	1
	.syntax unified
	.thumb
	.thumb_func
	.type	raise_usb_status_changed_event, %function
raise_usb_status_changed_event:
.LVL22:
.LFB485:
	.loc 1 25 66 is_stmt 1 view -0
	.cfi_startproc
	@ args = 0, pretend = 0, frame = 0
	@ frame_needed = 0, uses_anonymous_args = 0
	.loc 1 26 5 view .LVU469
	.loc 1 25 66 is_stmt 0 view .LVU470
	push	{r3, lr}
	.cfi_def_cfa_offset 8
	.cfi_offset 3, -8
	.cfi_offset 14, -4
	.loc 1 27 59 view .LVU471
	bl	zmk_usb_get_conn_state
.LVL23:
	.loc 1 28 1 view .LVU472
	pop	{r3, lr}
	.cfi_restore 14
	.cfi_restore 3
	.cfi_def_cfa_offset 0
	.loc 1 26 5 view .LVU473
	b	raise_zmk_usb_conn_state_changed
.LVL24:
	.cfi_endproc
.LFE485:
	.size	raise_usb_status_changed_event, .-raise_usb_status_changed_event
	.section	.text.usb_status_cb,"ax",%progbits
	.align	1
	.global	usb_status_cb
	.syntax unified
	.thumb
	.thumb_func
	.type	usb_status_cb, %function
usb_status_cb:
.LVL25:
.LFB489:
	.loc 1 57 75 is_stmt 1 view -0
	.cfi_startproc
	@ args = 0, pretend = 0, frame = 0
	@ frame_needed = 0, uses_anonymous_args = 0
	.loc 1 60 5 view .LVU475
	.loc 1 60 8 is_stmt 0 view .LVU476
	cmp	r0, #10
	.loc 1 57 75 view .LVU477
	push	{r4, lr}
	.cfi_def_cfa_offset 8
	.cfi_offset 4, -8
	.cfi_offset 14, -4
	.loc 1 60 8 view .LVU478
	beq	.L18
.LVL26:
.LBB235:
.LBI235:
	.loc 1 57 6 is_stmt 1 view .LVU479
.LBB236:
	.loc 1 69 5 view .LVU480
	.loc 1 69 16 is_stmt 0 view .LVU481
	ldr	r4, .L22
	strb	r0, [r4]
	.loc 1 70 5 is_stmt 1 view .LVU482
	.loc 1 70 9 is_stmt 0 view .LVU483
	bl	zmk_usb_get_conn_state
.LVL27:
	.loc 1 70 8 view .LVU484
	cmp	r0, #2
	ldr	r2, .L22+4
	bne	.L21
	.loc 1 71 9 is_stmt 1 view .LVU485
	.loc 1 71 37 is_stmt 0 view .LVU486
	ldrb	r1, [r4]	@ zero_extendqisi2
	ldrb	r3, [r2]	@ zero_extendqisi2
	cmp	r1, #3
	it	eq
	orreq	r3, r3, #1
.L20:
	strb	r3, [r2]
	.loc 1 75 5 is_stmt 1 view .LVU487
.LBE236:
.LBE235:
	.loc 1 76 1 is_stmt 0 view .LVU488
	pop	{r4, lr}
	.cfi_remember_state
	.cfi_restore 14
	.cfi_restore 4
	.cfi_def_cfa_offset 0
.LBB238:
.LBB237:
	.loc 1 75 5 view .LVU489
	ldr	r0, .L22+8
	b	k_work_submit
.LVL28:
.L21:
	.cfi_restore_state
	.loc 1 73 23 view .LVU490
	movs	r3, #0
	b	.L20
.LVL29:
.L18:
	.loc 1 73 23 view .LVU491
.LBE237:
.LBE238:
	.loc 1 76 1 view .LVU492
	pop	{r4, pc}
.L23:
	.align	2
.L22:
	.word	usb_status
	.word	is_configured
	.word	usb_status_notifier_work
	.cfi_endproc
.LFE489:
	.size	usb_status_cb, .-usb_status_cb
	.section	.text.zmk_usb_is_hid_ready,"ax",%progbits
	.align	1
	.global	zmk_usb_is_hid_ready
	.syntax unified
	.thumb
	.thumb_func
	.type	zmk_usb_is_hid_ready, %function
zmk_usb_is_hid_ready:
.LFB488:
	.loc 1 53 32 is_stmt 1 view -0
	.cfi_startproc
	@ args = 0, pretend = 0, frame = 0
	@ frame_needed = 0, uses_anonymous_args = 0
	.loc 1 54 5 view .LVU494
	.loc 1 53 32 is_stmt 0 view .LVU495
	push	{r3, lr}
	.cfi_def_cfa_offset 8
	.cfi_offset 3, -8
	.cfi_offset 14, -4
	.loc 1 54 12 view .LVU496
	bl	zmk_usb_get_conn_state
.LVL30:
	.loc 1 54 57 view .LVU497
	cmp	r0, #2
	itte	eq
	ldreq	r3, .L27
	ldrbeq	r0, [r3]	@ zero_extendqisi2
	movne	r0, #0
	.loc 1 55 1 view .LVU498
	and	r0, r0, #1
	pop	{r3, pc}
.L28:
	.align	2
.L27:
	.word	is_configured
	.cfi_endproc
.LFE488:
	.size	zmk_usb_is_hid_ready, .-zmk_usb_is_hid_ready
	.section	.rodata.__func__.0,"a"
	.type	__func__.0, %object
	.size	__func__.0, 23
__func__.0:
	.ascii	"zmk_usb_get_conn_state\000"
	.section	.z_init_APPLICATION94_0_,"a"
	.align	2
	.type	__init_zmk_usb_init, %object
	.size	__init_zmk_usb_init, 8
__init_zmk_usb_init:
	.word	zmk_usb_init
	.word	0
	.global	usb_status_notifier_work
	.section	.data.usb_status_notifier_work,"aw"
	.align	2
	.type	usb_status_notifier_work, %object
	.size	usb_status_notifier_work, 16
usb_status_notifier_work:
	.space	4
	.word	raise_usb_status_changed_event
	.space	8
	.section	.bss.is_configured,"aw",%nobits
	.type	is_configured, %object
	.size	is_configured, 1
is_configured:
	.space	1
	.section	.data.usb_status,"aw"
	.type	usb_status, %object
	.size	usb_status, 1
usb_status:
	.byte	11
	.text
.Letext0:
	.file 3 "/home/g/zephyr-sdk-0.16.3/arm-zephyr-eabi/picolibc/include/machine/_default_types.h"
	.file 4 "/home/g/zephyr-sdk-0.16.3/arm-zephyr-eabi/picolibc/include/sys/_stdint.h"
	.file 5 "/home/g/zephyr-sdk-0.16.3/arm-zephyr-eabi/lib/gcc/arm-zephyr-eabi/12.2.0/include/stddef.h"
	.file 6 "/home/g/mise-work/zmk-firmware/zmk/zephyr/include/zephyr/init.h"
	.file 7 "/home/g/mise-work/zmk-firmware/zmk/zephyr/include/zephyr/device.h"
	.file 8 "/home/g/mise-work/zmk-firmware/zmk/zephyr/include/zephyr/drivers/usb/usb_dc.h"
	.file 9 "/home/g/mise-work/zmk-firmware/zmk/zephyr/include/zephyr/logging/log_instance.h"
	.file 10 "/home/g/mise-work/zmk-firmware/zmk/zephyr/include/zephyr/sys/cbprintf.h"
	.file 11 "/home/g/mise-work/zmk-firmware/zmk/zephyr/include/zephyr/sys/dlist.h"
	.file 12 "/home/g/mise-work/zmk-firmware/zmk/zephyr/include/zephyr/sys/rb.h"
	.file 13 "/home/g/mise-work/zmk-firmware/zmk/zephyr/include/zephyr/sys/sys_heap.h"
	.file 14 "/home/g/mise-work/zmk-firmware/zmk/zephyr/include/zephyr/sys/slist.h"
	.file 15 "/home/g/mise-work/zmk-firmware/zmk/zephyr/include/zephyr/kernel/thread.h"
	.file 16 "/home/g/mise-work/zmk-firmware/zmk/zephyr/include/zephyr/kernel_structs.h"
	.file 17 "/home/g/mise-work/zmk-firmware/zmk/zephyr/include/zephyr/arch/arm/thread.h"
	.file 18 "/home/g/mise-work/zmk-firmware/zmk/zephyr/include/zephyr/logging/log_msg.h"
	.file 19 "/home/g/mise-work/zmk-firmware/zmk/zephyr/include/zephyr/kernel.h"
	.file 20 "/home/g/mise-work/zmk-firmware/zmk/app/include/zmk/usb.h"
	.file 21 "/home/g/mise-work/zmk-firmware/zmk/app/include/zmk/events/usb_conn_state_changed.h"
	.file 22 "/home/g/mise-work/zmk-firmware/zmk/app/include/zmk/hid.h"
	.file 23 "/home/g/mise-work/zmk-firmware/zmk/zephyr/include/zephyr/usb/usb_device.h"
	.file 24 "/home/g/mise-work/zmk-firmware/zmk/zephyr/include/zephyr/sys/cbprintf_internal.h"
	.file 25 "/home/g/mise-work/zmk-firmware/zmk/zephyr/include/zephyr/spinlock.h"
	.file 26 "/home/g/mise-work/zmk-firmware/zmk/zephyr/include/zephyr/syscall.h"