	.cpu cortex-m4
	.arch armv7e-m
	.fpu fpv4-sp-d16
	.eabi_attribute 27, 1
	.eabi_attribute 28, 1
	.eabi_attribute 20, 1
	.eabi_attribute 21, 1
	.eabi_attribute 23, 3
	.eabi_attribute 24, 1
	.eabi_attribute 25, 1
	.eabi_attribute 26, 1
	.eabi_attribute 30, 4
	.eabi_attribute 34, 1
	.eabi_attribute 38, 1
	.eabi_attribute 18, 4
	.file	"usb_hid.c"
	.text
.Ltext0:
	.cfi_sections	.debug_frame
	.file 1 "/home/g/mise-work/zmk-firmware/zmk/app/src/usb_hid.c"
	.section	.text.zmk_usb_hid_send_report,"ax",%progbits
	.align	1
	.syntax unified
	.thumb
	.thumb_func
	.type	zmk_usb_hid_send_report, %function
zmk_usb_hid_send_report:
.LVL0:
.LFB489:
	.loc 1 187 71 view -0
	.cfi_startproc
	@ args = 0, pretend = 0, frame = 0
	@ frame_needed = 0, uses_anonymous_args = 0
	.loc 1 188 5 view .LVU1
	.loc 1 187 71 is_stmt 0 view .LVU2
	push	{r3, r4, r5, lr}
	.cfi_def_cfa_offset 16
	.cfi_offset 3, -16
	.cfi_offset 4, -12
	.cfi_offset 5, -8
	.cfi_offset 14, -4
	.loc 1 187 71 view .LVU3
	mov	r4, r0
	mov	r5, r1
	.loc 1 188 13 view .LVU4
	bl	zmk_usb_get_status
.LVL1:
	.loc 1 188 5 view .LVU5
	cmp	r0, #11
	bhi	.L2
	tbb	[pc, r0]
.L4:
	.byte	(.L7-.L4)/2
	.byte	(.L7-.L4)/2
	.byte	(.L2-.L4)/2
	.byte	(.L2-.L4)/2
	.byte	(.L7-.L4)/2
	.byte	(.L5-.L4)/2
	.byte	(.L2-.L4)/2
	.byte	(.L2-.L4)/2
	.byte	(.L2-.L4)/2
	.byte	(.L2-.L4)/2
	.byte	(.L2-.L4)/2
	.byte	(.L7-.L4)/2
	.p2align 1
.L5:
.LBB311:
	.loc 1 190 9 is_stmt 1 view .LVU6
.LBE311:
	.loc 1 206 1 is_stmt 0 view .LVU7
	pop	{r3, r4, r5, lr}
	.cfi_remember_state
	.cfi_restore 14
	.cfi_restore 5
	.cfi_restore 4
	.cfi_restore 3
	.cfi_def_cfa_offset 0
.LVL2:
.LBB312:
	.loc 1 190 16 view .LVU8
	b	usb_wakeup_request
.LVL3:
.L2:
	.cfi_restore_state
	.loc 1 190 16 view .LVU9
.LBE312:
.LBB313:
.LBI313:
	.loc 1 187 12 is_stmt 1 view .LVU10
.LBB314:
	.loc 1 197 9 view .LVU11
.LBB315:
.LBI315:
	.file 2 "/home/g/mise-work/zmk-firmware/zmk/app/build/zephyr/include/generated/syscalls/kernel.h"
	.loc 2 1093 19 view .LVU12
.LBB316:
	.loc 2 1102 2 view .LVU13
	.loc 2 1102 7 view .LVU14
	.loc 2 1102 5 view .LVU15
	.loc 2 1103 2 view .LVU16
	.loc 2 1103 9 is_stmt 0 view .LVU17
	mov	r2, #984
	movs	r3, #0
	ldr	r0, .L11
	bl	z_impl_k_sem_take
.LVL4:
	.loc 2 1103 9 view .LVU18
.LBE316:
.LBE315:
	.loc 1 198 9 is_stmt 1 view .LVU19
	.loc 1 198 19 is_stmt 0 view .LVU20
	ldr	r0, .L11+4
	mov	r1, r4
	ldr	r0, [r0]
	movs	r3, #0
	mov	r2, r5
	bl	hid_int_ep_write
.LVL5:
	.loc 1 200 9 is_stmt 1 view .LVU21
	.loc 1 200 12 is_stmt 0 view .LVU22
	mov	r4, r0
.LVL6:
	.loc 1 200 12 view .LVU23
	cbz	r0, .L1
	.loc 1 201 13 is_stmt 1 view .LVU24
.LBB317:
.LBI317:
	.loc 2 1110 20 view .LVU25
.LVL7:
.LBB318:
	.loc 2 1119 2 view .LVU26
	.loc 2 1119 7 view .LVU27
	.loc 2 1119 5 view .LVU28
	.loc 2 1120 2 view .LVU29
	ldr	r0, .L11
.LVL8:
	.loc 2 1120 2 is_stmt 0 view .LVU30
	bl	z_impl_k_sem_give
.LVL9:
.L1:
	.loc 2 1120 2 view .LVU31
.LBE318:
.LBE317:
.LBE314:
.LBE313:
	.loc 1 206 1 view .LVU32
	mov	r0, r4
	pop	{r3, r4, r5, pc}
.LVL10:
.L7:
	.loc 1 188 5 view .LVU33
	mvn	r4, #18
.LVL11:
	.loc 1 188 5 view .LVU34
	b	.L1
.L12:
	.align	2
.L11:
	.word	hid_sem
	.word	hid_dev
	.cfi_endproc
.LFE489:
	.size	zmk_usb_hid_send_report, .-zmk_usb_hid_send_report
	.section	.text.in_ready_cb,"ax",%progbits
	.align	1
	.syntax unified
	.thumb
	.thumb_func
	.type	in_ready_cb, %function
in_ready_cb:
.LVL12:
.LFB485:
	.loc 1 33 51 is_stmt 1 view -0
	.cfi_startproc
	@ args = 0, pretend = 0, frame = 0
	@ frame_needed = 0, uses_anonymous_args = 0
	@ link register save eliminated.
	.loc 1 33 53 view .LVU36
.LBB321:
.LBI321:
	.loc 2 1110 20 view .LVU37
.LBB322:
	.loc 2 1119 2 view .LVU38
	.loc 2 1119 7 view .LVU39
	.loc 2 1119 5 view .LVU40
	.loc 2 1120 2 view .LVU41
	ldr	r0, .L14
.LVL13:
	.loc 2 1120 2 is_stmt 0 view .LVU42
	b	z_impl_k_sem_give
.LVL14:
.L15:
	.align	2
.L14:
	.word	hid_sem
.LBE322:
.LBE321:
	.cfi_endproc
.LFE485:
	.size	in_ready_cb, .-in_ready_cb
	.section	.rodata.zmk_usb_hid_init.part.0.str1.1,"aMS",%progbits,1
.LC0:
	.ascii	"Unable to locate HID device\000"
	.section	.text.zmk_usb_hid_init.part.0,"ax",%progbits
	.align	1
	.syntax unified
	.thumb
	.thumb_func
	.type	zmk_usb_hid_init.part.0, %function
zmk_usb_hid_init.part.0:
.LFB495:
	.loc 1 238 12 is_stmt 1 view -0
	.cfi_startproc
	@ args = 0, pretend = 0, frame = 24
	@ frame_needed = 0, uses_anonymous_args = 0
	.loc 1 241 9 view .LVU44
.LBB347:
	.loc 1 241 14 view .LVU45
	.loc 1 241 63 view .LVU46
	.loc 1 241 20 view .LVU47
	.loc 1 241 8 view .LVU48
.LVL15:
	.loc 1 241 47 view .LVU49
	.loc 1 241 182 view .LVU50
	.loc 1 241 193 view .LVU51
	.loc 1 241 281 view .LVU52
	.loc 1 241 9 view .LVU53
	.loc 1 241 9 view .LVU54
.LBB348:
	.loc 1 241 14 view .LVU55
	.loc 1 241 8 view .LVU56
.LBE348:
.LBE347:
	.loc 1 241 9 view .LVU57
	.loc 1 241 18 view .LVU58
	.loc 1 241 113 view .LVU59
	.loc 1 241 9 view .LVU60
.LBB367:
.LBB362:
	.loc 1 241 18 view .LVU61
	.loc 1 241 108 view .LVU62
	.loc 1 241 110 view .LVU63
.LBB349:
	.loc 1 241 115 view .LVU64
	.loc 1 241 126 view .LVU65
	.loc 1 241 215 view .LVU66
	.loc 1 241 32 view .LVU67
.LBE349:
.LBE362:
.LBE367:
	.loc 1 241 9 view .LVU68
	.loc 1 241 374 view .LVU69
	.loc 1 241 81 view .LVU70
	.loc 1 241 8 view .LVU71
	.loc 1 241 8 view .LVU72
	.loc 1 241 8 view .LVU73
	.loc 1 241 44 view .LVU74
	.loc 1 241 10 view .LVU75
	.loc 1 241 36 view .LVU76
	.loc 1 241 62 view .LVU77
	.loc 1 241 85 view .LVU78
	.loc 1 241 147 view .LVU79
	.loc 1 241 204 view .LVU80
	.loc 1 241 269 view .LVU81
	.loc 1 241 294 view .LVU82
	.loc 1 241 295 view .LVU83
	.loc 1 241 297 view .LVU84
	.loc 1 241 327 view .LVU85
	.loc 1 241 357 view .LVU86
	.loc 1 241 389 view .LVU87
	.loc 1 241 421 view .LVU88
	.loc 1 241 453 view .LVU89
	.loc 1 241 650 view .LVU90
	.loc 1 241 674 view .LVU91
	.loc 1 241 675 view .LVU92
	.loc 1 241 677 view .LVU93
	.loc 1 241 706 view .LVU94
	.loc 1 241 735 view .LVU95
	.loc 1 241 766 view .LVU96
	.loc 1 241 797 view .LVU97
	.loc 1 241 828 view .LVU98
	.loc 1 241 1035 view .LVU99
	.loc 1 241 10 view .LVU100
	.loc 1 241 28 view .LVU101
	.loc 1 241 48 view .LVU102
	.loc 1 241 10 view .LVU103
	.loc 1 241 48 view .LVU104
	.loc 1 241 19 view .LVU105
	.loc 1 241 19 view .LVU106
	.loc 1 241 67 view .LVU107
	.loc 1 241 98 view .LVU108
	.loc 1 241 132 view .LVU109
	.loc 1 241 137 view .LVU110
	.loc 1 241 388 view .LVU111
	.loc 1 241 1445 view .LVU112
	.loc 1 241 1510 view .LVU113
	.loc 1 241 1534 view .LVU114
	.loc 1 241 1589 view .LVU115
	.loc 1 241 1600 view .LVU116
	.loc 1 241 1713 view .LVU117
	.loc 1 241 1729 view .LVU118
	.loc 1 241 1769 view .LVU119
	.loc 1 241 1794 view .LVU120
	.loc 1 241 3085 view .LVU121
	.loc 1 241 3126 view .LVU122
	.loc 1 241 13 view .LVU123
	.loc 1 241 36 view .LVU124
	.loc 1 241 135 view .LVU125
	.loc 1 241 11 view .LVU126
	.loc 1 241 34 view .LVU127
	.loc 1 241 58 view .LVU128
	.loc 1 241 86 view .LVU129
	.loc 1 241 262 view .LVU130
	.loc 1 241 22 view .LVU131
.LBB368:
.LBB363:
.LBB358:
	.loc 1 241 35 view .LVU132
	.loc 1 241 9 view .LVU133
	.loc 1 241 9 view .LVU134
	.loc 1 241 76 view .LVU135
	.loc 1 241 76 is_stmt 0 view .LVU136
.LBE358:
.LBE363:
.LBE368:
	.loc 1 238 12 view .LVU137
	push	{r0, r1, r2, r3, r4, r5, r6, lr}
	.cfi_def_cfa_offset 32
	.cfi_offset 14, -4
.LVL16:
.LBB369:
.LBB364:
.LBB359:
	.loc 1 241 80 is_stmt 1 view .LVU138
	.loc 1 241 490 view .LVU139
	.loc 1 241 11 view .LVU140
	.loc 1 241 13 view .LVU141
	.loc 1 241 18 view .LVU142
	.loc 1 241 16 view .LVU143
	.loc 1 241 11 view .LVU144
	.loc 1 241 29 view .LVU145
.LBB350:
	.loc 1 241 9 view .LVU146
	.loc 1 241 374 view .LVU147
	.loc 1 241 81 view .LVU148
.LVL17:
	.loc 1 241 8 view .LVU149
	.loc 1 241 8 view .LVU150
	.loc 1 241 8 view .LVU151
	.loc 1 241 44 view .LVU152
	.loc 1 241 73 view .LVU153
	.loc 1 241 99 view .LVU154
	.loc 1 241 125 view .LVU155
	.loc 1 241 148 view .LVU156
	.loc 1 241 210 view .LVU157
	.loc 1 241 267 view .LVU158
	.loc 1 241 332 view .LVU159
	.loc 1 241 357 view .LVU160
	.loc 1 241 358 view .LVU161
	.loc 1 241 360 view .LVU162
	.loc 1 241 390 view .LVU163
	.loc 1 241 420 view .LVU164
	.loc 1 241 452 view .LVU165
	.loc 1 241 484 view .LVU166
	.loc 1 241 516 view .LVU167
	.loc 1 241 713 view .LVU168
	.loc 1 241 737 view .LVU169
	.loc 1 241 738 view .LVU170
	.loc 1 241 740 view .LVU171
	.loc 1 241 769 view .LVU172
	.loc 1 241 798 view .LVU173
	.loc 1 241 829 view .LVU174
	.loc 1 241 860 view .LVU175
	.loc 1 241 891 view .LVU176
	.loc 1 241 1098 view .LVU177
	.loc 1 241 10 view .LVU178
	.loc 1 241 28 view .LVU179
	.loc 1 241 48 view .LVU180
	.loc 1 241 10 view .LVU181
	.loc 1 241 48 view .LVU182
	.loc 1 241 19 view .LVU183
	.loc 1 241 19 view .LVU184
	.loc 1 241 67 view .LVU185
	.loc 1 241 98 view .LVU186
	.loc 1 241 132 view .LVU187
.LBB351:
	.loc 1 241 137 view .LVU188
	.loc 1 241 388 view .LVU189
	.loc 1 241 1445 view .LVU190
	.loc 1 241 1510 view .LVU191
.LBE351:
.LBE350:
.LBE359:
.LBE364:
.LBE369:
	.loc 1 241 1534 view .LVU192
	.loc 1 241 1589 view .LVU193
	.loc 1 241 1600 view .LVU194
	.loc 1 241 1713 view .LVU195
.LBB370:
.LBB365:
.LBB360:
.LBB354:
.LBB352:
	.loc 1 241 1729 view .LVU196
	.loc 1 241 1769 view .LVU197
	.loc 1 241 1794 view .LVU198
	.loc 1 241 3085 view .LVU199
	.loc 1 241 3123 view .LVU200
	.loc 1 241 3128 view .LVU201
	.loc 1 241 3728 view .LVU202
	.loc 1 241 0 is_stmt 0 view .LVU203
	ldr	r3, .L17
	str	r3, [sp, #20]
	.loc 1 241 3126 is_stmt 1 view .LVU204
	.loc 1 241 13 view .LVU205
.LVL18:
	.loc 1 241 36 view .LVU206
	.loc 1 241 36 is_stmt 0 view .LVU207
.LBE352:
	.loc 1 241 135 is_stmt 1 view .LVU208
	.loc 1 241 11 view .LVU209
	.loc 1 241 34 view .LVU210
	.loc 1 241 58 view .LVU211
	.loc 1 241 86 view .LVU212
.LBE354:
.LBE360:
.LBE365:
.LBE370:
	.loc 1 241 12 view .LVU213
	.loc 1 241 51 view .LVU214
	.loc 1 241 56 view .LVU215
	.loc 1 241 86 view .LVU216
	.loc 1 241 153 view .LVU217
	.loc 1 241 158 view .LVU218
	.loc 1 241 188 view .LVU219
.LBB371:
.LBB366:
.LBB361:
.LBB355:
	.loc 1 241 262 view .LVU220
	.loc 1 241 22 view .LVU221
.LBB353:
	.loc 1 241 12 view .LVU222
	.loc 1 241 170 view .LVU223
	.loc 1 241 172 view .LVU224
	.loc 1 241 182 is_stmt 0 view .LVU225
	movs	r3, #2
	str	r3, [sp, #16]
.LVL19:
	.loc 1 241 182 view .LVU226
.LBE353:
.LBE355:
	.loc 1 241 32 is_stmt 1 view .LVU227
	.loc 1 241 13 view .LVU228
	.loc 1 241 153 view .LVU229
	.loc 1 241 155 view .LVU230
.LBB356:
.LBI356:
	.file 3 "/home/g/mise-work/zmk-firmware/zmk/app/build/zephyr/include/generated/syscalls/log_msg.h"
	.loc 3 26 20 view .LVU231
.LBB357:
	.loc 3 38 2 view .LVU232
	.loc 3 38 7 view .LVU233
	.loc 3 38 5 view .LVU234
	.loc 3 39 2 view .LVU235
	ldr	r0, .L17+4
	movs	r3, #0
	add	r2, sp, #16
.LVL20:
	.loc 3 39 2 is_stmt 0 view .LVU236
	mov	r1, #4160
	bl	z_impl_z_log_msg_static_create
.LVL21:
	.loc 3 39 2 view .LVU237
.LBE357:
.LBE356:
.LBE361:
	.loc 1 241 113 is_stmt 1 view .LVU238
	.loc 1 241 11 view .LVU239
	.loc 1 241 48 view .LVU240
.LBE366:
	.loc 1 241 12 view .LVU241
	.loc 1 241 284 view .LVU242
	.loc 1 241 11 view .LVU243
	.loc 1 241 24 view .LVU244
.LBE371:
	.loc 1 241 12 view .LVU245
	.loc 1 242 9 view .LVU246
	.loc 1 254 1 is_stmt 0 view .LVU247
	mvn	r0, #21
	add	sp, sp, #28
	.cfi_def_cfa_offset 4
.LVL22:
	.loc 1 254 1 view .LVU248
	@ sp needed
	ldr	pc, [sp], #4
.LVL23:
.L18:
	.loc 1 254 1 view .LVU249
	.align	2
.L17:
	.word	.LC0
	.word	log_const_zmk
	.cfi_endproc
.LFE495:
	.size	zmk_usb_hid_init.part.0, .-zmk_usb_hid_init.part.0
	.section	.rodata.zmk_usb_hid_init.str1.1,"aMS",%progbits,1
.LC1:
	.ascii	"HID_0\000"
	.section	.text.zmk_usb_hid_init,"ax",%progbits
	.align	1
	.syntax unified
	.thumb
	.thumb_func
	.type	zmk_usb_hid_init, %function
zmk_usb_hid_init:
.LFB493:
	.loc 1 238 35 is_stmt 1 view -0
	.cfi_startproc
	@ args = 0, pretend = 0, frame = 0
	@ frame_needed = 0, uses_anonymous_args = 0
	.loc 1 239 5 view .LVU251
.LBB377:
.LBI377:
	.file 4 "/home/g/mise-work/zmk-firmware/zmk/app/build/zephyr/include/generated/syscalls/device.h"
	.loc 4 26 37 view .LVU252
.LVL24:
.LBB378:
	.loc 4 34 2 view .LVU253
	.loc 4 34 7 view .LVU254
.LBE378:
.LBE377:
	.loc 1 238 35 is_stmt 0 view .LVU255
	push	{r4, lr}
	.cfi_def_cfa_offset 8
	.cfi_offset 4, -8
	.cfi_offset 14, -4
.LBB381:
.LBB379:
	.loc 4 34 7 view .LVU256
	.loc 4 34 5 is_stmt 1 view .LVU257
	.loc 4 35 2 view .LVU258
	.loc 4 35 9 is_stmt 0 view .LVU259
	ldr	r0, .L21
.LBE379:
.LBE381:
	.loc 1 239 13 view .LVU260
	ldr	r4, .L21+4
.LBB382:
.LBB380:
	.loc 4 35 9 view .LVU261
	bl	z_impl_device_get_binding
.LVL25:
	.loc 4 35 9 view .LVU262
.LBE380:
.LBE382:
	.loc 1 239 13 view .LVU263
	str	r0, [r4]
	.loc 1 240 5 is_stmt 1 view .LVU264
	.loc 1 240 8 is_stmt 0 view .LVU265
	cbnz	r0, .L20
	.loc 1 254 1 view .LVU266
	pop	{r4, lr}
	.cfi_remember_state
	.cfi_restore 14
	.cfi_restore 4
	.cfi_def_cfa_offset 0
	b	zmk_usb_hid_init.part.0
.LVL26:
.L20:
	.cfi_restore_state
	.loc 1 245 5 is_stmt 1 view .LVU267
	ldr	r3, .L21+8
	ldr	r1, .L21+12
	movs	r2, #176
	bl	usb_hid_register_device
.LVL27:
	.loc 1 251 5 view .LVU268
	ldr	r0, [r4]
	bl	usb_hid_init
.LVL28:
	.loc 1 253 5 view .LVU269
	.loc 1 254 1 is_stmt 0 view .LVU270
	movs	r0, #0
	pop	{r4, pc}
.L22:
	.align	2
.L21:
	.word	.LC1
	.word	hid_dev
	.word	ops
	.word	zmk_hid_report_desc
	.cfi_endproc
.LFE493:
	.size	zmk_usb_hid_init, .-zmk_usb_hid_init
	.section	.rodata.set_report_cb.str1.1,"aMS",%progbits,1
.LC2:
	.ascii	"Invalid report ID %d requested\000"
.LC3:
	.ascii	"Unsupported report type %d requested\000"
	.section	.text.set_report_cb,"ax",%progbits
	.align	1
	.syntax unified
	.thumb
	.thumb_func
	.type	set_report_cb, %function
set_report_cb:
.LVL29:
.LFB488:
	.loc 1 123 42 is_stmt 1 view -0
	.cfi_startproc
	@ args = 0, pretend = 0, frame = 0
	@ frame_needed = 1, uses_anonymous_args = 0
	.loc 1 124 5 view .LVU272
	.loc 1 123 42 is_stmt 0 view .LVU273
	push	{r3, r4, r7, lr}
	.cfi_def_cfa_offset 16
	.cfi_offset 3, -16
	.cfi_offset 4, -12
	.cfi_offset 7, -8
	.cfi_offset 14, -4
	.loc 1 124 18 view .LVU274
	ldrh	r3, [r1, #2]
.LVL30:
	.loc 1 124 18 view .LVU275
	and	r2, r3, #65280
.LVL31:
	.loc 1 124 5 view .LVU276
	cmp	r2, #512
	.loc 1 123 42 view .LVU277
	add	r7, sp, #0
	.cfi_def_cfa_register 7
	.loc 1 124 5 view .LVU278
	beq	.L24
	cmp	r2, #768
	beq	.L25
	.loc 1 168 9 is_stmt 1 view .LVU279
	.loc 1 170 9 view .LVU280
.LBB403:
	.loc 1 170 14 view .LVU281
	.loc 1 170 63 view .LVU282
	.loc 1 170 20 view .LVU283
	.loc 1 170 8 view .LVU284
.LVL32:
	.loc 1 170 47 view .LVU285
	.loc 1 170 182 view .LVU286
	.loc 1 170 193 view .LVU287
	.loc 1 170 281 view .LVU288
.LBB404:
	.loc 1 170 9 view .LVU289
	.loc 1 170 11 view .LVU290
	.loc 1 170 9 view .LVU291
.LBB405:
	.loc 1 170 14 view .LVU292
	.loc 1 170 8 view .LVU293
.LBE405:
.LBE404:
.LBE403:
	.loc 1 170 9 view .LVU294
	.loc 1 170 18 view .LVU295
	.loc 1 170 113 view .LVU296
	.loc 1 170 9 view .LVU297
.LBB431:
.LBB427:
.LBB422:
	.loc 1 170 18 view .LVU298
	.loc 1 170 108 view .LVU299
	.loc 1 170 110 view .LVU300
.LBB406:
	.loc 1 170 113 is_stmt 0 view .LVU301
	mov	r4, sp
	.loc 1 170 115 is_stmt 1 view .LVU302
	.loc 1 170 126 view .LVU303
.LVL33:
	.loc 1 170 215 view .LVU304
	.loc 1 170 32 view .LVU305
.LBE406:
.LBE422:
.LBE427:
.LBE431:
	.loc 1 170 9 view .LVU306
	.loc 1 170 374 view .LVU307
	.loc 1 170 81 view .LVU308
	.loc 1 170 8 view .LVU309
	.loc 1 170 8 view .LVU310
	.loc 1 170 8 view .LVU311
	.loc 1 170 44 view .LVU312
	.loc 1 170 10 view .LVU313
	.loc 1 170 36 view .LVU314
	.loc 1 170 62 view .LVU315
	.loc 1 170 529 view .LVU316
	.loc 1 170 591 view .LVU317
	.loc 1 170 1112 view .LVU318
	.loc 1 170 1177 view .LVU319
	.loc 1 170 1202 view .LVU320
	.loc 1 170 1203 view .LVU321
	.loc 1 170 1205 view .LVU322
	.loc 1 170 1235 view .LVU323
	.loc 1 170 1265 view .LVU324
	.loc 1 170 1297 view .LVU325
	.loc 1 170 1329 view .LVU326
	.loc 1 170 1361 view .LVU327
	.loc 1 170 1558 view .LVU328
	.loc 1 170 1582 view .LVU329
	.loc 1 170 1583 view .LVU330
	.loc 1 170 1585 view .LVU331
	.loc 1 170 1614 view .LVU332
	.loc 1 170 1643 view .LVU333
	.loc 1 170 1674 view .LVU334
	.loc 1 170 1705 view .LVU335
	.loc 1 170 1736 view .LVU336
	.loc 1 170 1943 view .LVU337
	.loc 1 170 10 view .LVU338
	.loc 1 170 28 view .LVU339
	.loc 1 170 48 view .LVU340
	.loc 1 170 10 view .LVU341
	.loc 1 170 48 view .LVU342
	.loc 1 170 19 view .LVU343
	.loc 1 170 19 view .LVU344
	.loc 1 170 67 view .LVU345
	.loc 1 170 98 view .LVU346
	.loc 1 170 132 view .LVU347
	.loc 1 170 137 view .LVU348
	.loc 1 170 397 view .LVU349
	.loc 1 170 1490 view .LVU350
	.loc 1 170 1555 view .LVU351
	.loc 1 170 1579 view .LVU352
	.loc 1 170 1643 view .LVU353
	.loc 1 170 1654 view .LVU354
	.loc 1 170 1776 view .LVU355
	.loc 1 170 1792 view .LVU356
	.loc 1 170 1832 view .LVU357
	.loc 1 170 1857 view .LVU358
	.loc 1 170 3166 view .LVU359
	.loc 1 170 3207 view .LVU360
	.loc 1 170 13 view .LVU361
	.loc 1 170 36 view .LVU362
	.loc 1 170 135 view .LVU363
	.loc 1 170 12 view .LVU364
	.loc 1 170 17 view .LVU365
	.loc 1 170 242 view .LVU366
	.loc 1 170 1195 view .LVU367
	.loc 1 170 1260 view .LVU368
	.loc 1 170 1284 view .LVU369
	.loc 1 170 1313 view .LVU370
	.loc 1 170 1324 view .LVU371
	.loc 1 170 1411 view .LVU372
	.loc 1 170 1427 view .LVU373
	.loc 1 170 1467 view .LVU374
	.loc 1 170 2731 view .LVU375
	.loc 1 170 2772 view .LVU376
	.loc 1 170 13 view .LVU377
	.loc 1 170 36 view .LVU378
	.loc 1 170 15 view .LVU379
	.loc 1 170 11 view .LVU380
	.loc 1 170 34 view .LVU381
	.loc 1 170 58 view .LVU382
	.loc 1 170 86 view .LVU383
	.loc 1 170 262 view .LVU384
	.loc 1 170 22 view .LVU385
.LBB432:
.LBB428:
.LBB423:
.LBB418:
	.loc 1 170 35 view .LVU386
	.loc 1 170 9 view .LVU387
	.loc 1 170 9 view .LVU388
	.loc 1 170 76 view .LVU389
	.loc 1 170 88 is_stmt 0 view .LVU390
	sub	sp, sp, #32
	mov	r2, sp
.LVL34:
	.loc 1 170 80 is_stmt 1 view .LVU391
	.loc 1 170 490 view .LVU392
	.loc 1 170 11 view .LVU393
	.loc 1 170 13 view .LVU394
	.loc 1 170 18 view .LVU395
	.loc 1 170 16 view .LVU396
	.loc 1 170 11 view .LVU397
	.loc 1 170 29 view .LVU398
.LBB407:
	.loc 1 170 9 view .LVU399
	.loc 1 170 374 view .LVU400
	.loc 1 170 81 view .LVU401
.LVL35:
	.loc 1 170 8 view .LVU402
	.loc 1 170 8 view .LVU403
	.loc 1 170 8 view .LVU404
	.loc 1 170 44 view .LVU405
	.loc 1 170 73 view .LVU406
	.loc 1 170 99 view .LVU407
	.loc 1 170 125 view .LVU408
	.loc 1 170 592 view .LVU409
	.loc 1 170 654 view .LVU410
	.loc 1 170 1175 view .LVU411
	.loc 1 170 1240 view .LVU412
	.loc 1 170 1265 view .LVU413
	.loc 1 170 1266 view .LVU414
	.loc 1 170 1268 view .LVU415
	.loc 1 170 1298 view .LVU416
	.loc 1 170 1328 view .LVU417
	.loc 1 170 1360 view .LVU418
	.loc 1 170 1392 view .LVU419
	.loc 1 170 1424 view .LVU420
	.loc 1 170 1621 view .LVU421
	.loc 1 170 1645 view .LVU422
	.loc 1 170 1646 view .LVU423
	.loc 1 170 1648 view .LVU424
	.loc 1 170 1677 view .LVU425
	.loc 1 170 1706 view .LVU426
	.loc 1 170 1737 view .LVU427
	.loc 1 170 1768 view .LVU428
	.loc 1 170 1799 view .LVU429
	.loc 1 170 2006 view .LVU430
.LBB408:
	.loc 1 170 3204 view .LVU431
	.loc 1 170 3209 view .LVU432
	.loc 1 170 3863 view .LVU433
.LBE408:
.LBE407:
.LBE418:
.LBE423:
	.loc 1 170 23 is_stmt 0 view .LVU434
	lsrs	r3, r3, #8
.LVL36:
	.loc 1 170 23 view .LVU435
	str	r3, [r2, #24]
.LBB424:
.LBB419:
.LBB413:
.LBB409:
	.loc 1 170 0 view .LVU436
	ldr	r1, .L32
.LVL37:
	.loc 1 170 0 view .LVU437
	str	r1, [r2, #20]
	.loc 1 170 3207 is_stmt 1 view .LVU438
	.loc 1 170 13 view .LVU439
.LVL38:
	.loc 1 170 36 view .LVU440
	.loc 1 170 36 is_stmt 0 view .LVU441
.LBE409:
	.loc 1 170 135 is_stmt 1 view .LVU442
	.loc 1 170 12 view .LVU443
.LBB410:
	.loc 1 170 17 view .LVU444
	.loc 1 170 242 view .LVU445
	.loc 1 170 1195 view .LVU446
	.loc 1 170 1260 view .LVU447
.LBE410:
.LBE413:
.LBE419:
.LBE424:
.LBE428:
.LBE432:
	.loc 1 170 1284 view .LVU448
	.loc 1 170 1313 view .LVU449
	.loc 1 170 1324 view .LVU450
	.loc 1 170 1411 view .LVU451
.LBB433:
.LBB429:
.LBB425:
.LBB420:
.LBB414:
.LBB411:
	.loc 1 170 1427 view .LVU452
	.loc 1 170 1467 view .LVU453
	.loc 1 170 2731 view .LVU454
	.loc 1 170 2769 view .LVU455
	.loc 1 170 2774 view .LVU456
	.loc 1 170 3218 view .LVU457
	.loc 1 170 2772 view .LVU458
	.loc 1 170 13 view .LVU459
	.loc 1 170 36 view .LVU460
	.loc 1 170 36 is_stmt 0 view .LVU461
.LBE411:
	.loc 1 170 15 is_stmt 1 view .LVU462
	.loc 1 170 11 view .LVU463
	.loc 1 170 34 view .LVU464
	.loc 1 170 58 view .LVU465
	.loc 1 170 86 view .LVU466
.LBE414:
.LBE420:
.LBE425:
.LBE429:
.LBE433:
	.loc 1 170 12 view .LVU467
	.loc 1 170 51 view .LVU468
	.loc 1 170 56 view .LVU469
	.loc 1 170 86 view .LVU470
	.loc 1 170 153 view .LVU471
	.loc 1 170 158 view .LVU472
	.loc 1 170 188 view .LVU473
.LBB434:
.LBB430:
.LBB426:
.LBB421:
.LBB415:
	.loc 1 170 262 view .LVU474
	.loc 1 170 22 view .LVU475
.LBB412:
	.loc 1 170 12 view .LVU476
	.loc 1 170 170 view .LVU477
	.loc 1 170 172 view .LVU478
	.loc 1 170 182 is_stmt 0 view .LVU479
	movs	r3, #3
	str	r3, [r2, #16]!
.LVL39:
	.loc 1 170 182 view .LVU480
.LBE412:
.LBE415:
	.loc 1 170 32 is_stmt 1 view .LVU481
	.loc 1 170 13 view .LVU482
	.loc 1 170 153 view .LVU483
	.loc 1 170 155 view .LVU484
.LBB416:
.LBI416:
	.loc 3 26 20 view .LVU485
.LBB417:
	.loc 3 38 2 view .LVU486
	.loc 3 38 7 view .LVU487
	.loc 3 38 5 view .LVU488
	.loc 3 39 2 view .LVU489
	ldr	r0, .L32+4
.LVL40:
	.loc 3 39 2 is_stmt 0 view .LVU490
	movs	r3, #0
	mov	r1, #6208
	bl	z_impl_z_log_msg_static_create
.LVL41:
	.loc 3 39 2 view .LVU491
.LBE417:
.LBE416:
	mov	sp, r4
.LVL42:
	.loc 3 39 2 view .LVU492
.LBE421:
	.loc 1 170 113 is_stmt 1 view .LVU493
	.loc 1 170 11 view .LVU494
	.loc 1 170 48 view .LVU495
.LBE426:
	.loc 1 170 12 view .LVU496
.LBE430:
	.loc 1 170 284 view .LVU497
	.loc 1 170 11 view .LVU498
	.loc 1 170 24 view .LVU499
.LBE434:
	.loc 1 170 12 view .LVU500
	.loc 1 172 9 view .LVU501
.L25:
	.loc 1 144 20 is_stmt 0 view .LVU502
	mvn	r0, #133
	b	.L23
.LVL43:
.L24:
	.loc 1 146 9 is_stmt 1 view .LVU503
	.loc 1 149 9 view .LVU504
	.loc 1 165 13 view .LVU505
.LBB435:
	.loc 1 165 18 view .LVU506
	.loc 1 165 67 view .LVU507
	.loc 1 165 24 view .LVU508
	.loc 1 165 12 view .LVU509
	.loc 1 165 51 view .LVU510
	.loc 1 165 186 view .LVU511
	.loc 1 165 197 view .LVU512
	.loc 1 165 285 view .LVU513
.LBB436:
	.loc 1 165 13 view .LVU514
	.loc 1 165 15 view .LVU515
	.loc 1 165 13 view .LVU516
.LBB437:
	.loc 1 165 18 view .LVU517
	.loc 1 165 12 view .LVU518
.LBE437:
.LBE436:
.LBE435:
	.loc 1 165 13 view .LVU519
	.loc 1 165 22 view .LVU520
	.loc 1 165 117 view .LVU521
	.loc 1 165 13 view .LVU522
.LBB467:
.LBB461:
.LBB455:
	.loc 1 165 22 view .LVU523
	.loc 1 165 112 view .LVU524
	.loc 1 165 114 view .LVU525
.LBB438:
	.loc 1 165 117 is_stmt 0 view .LVU526
	mov	r4, sp
	.loc 1 165 119 is_stmt 1 view .LVU527
	.loc 1 165 130 view .LVU528
.LVL44:
	.loc 1 165 219 view .LVU529
	.loc 1 165 36 view .LVU530
.LBE438:
.LBE455:
.LBE461:
.LBE467:
	.loc 1 165 13 view .LVU531
	.loc 1 165 378 view .LVU532
	.loc 1 165 85 view .LVU533
	.loc 1 165 12 view .LVU534
	.loc 1 165 12 view .LVU535
	.loc 1 165 12 view .LVU536
	.loc 1 165 48 view .LVU537
	.loc 1 165 14 view .LVU538
	.loc 1 165 40 view .LVU539
	.loc 1 165 66 view .LVU540
	.loc 1 165 533 view .LVU541
	.loc 1 165 595 view .LVU542
	.loc 1 165 1116 view .LVU543
	.loc 1 165 1181 view .LVU544
	.loc 1 165 1206 view .LVU545
	.loc 1 165 1207 view .LVU546
	.loc 1 165 1209 view .LVU547
	.loc 1 165 1239 view .LVU548
	.loc 1 165 1269 view .LVU549
	.loc 1 165 1301 view .LVU550
	.loc 1 165 1333 view .LVU551
	.loc 1 165 1365 view .LVU552
	.loc 1 165 1562 view .LVU553
	.loc 1 165 1586 view .LVU554
	.loc 1 165 1587 view .LVU555
	.loc 1 165 1589 view .LVU556
	.loc 1 165 1618 view .LVU557
	.loc 1 165 1647 view .LVU558
	.loc 1 165 1678 view .LVU559
	.loc 1 165 1709 view .LVU560
	.loc 1 165 1740 view .LVU561
	.loc 1 165 1947 view .LVU562
	.loc 1 165 14 view .LVU563
	.loc 1 165 32 view .LVU564
	.loc 1 165 52 view .LVU565
	.loc 1 165 14 view .LVU566
	.loc 1 165 52 view .LVU567
	.loc 1 165 23 view .LVU568
	.loc 1 165 23 view .LVU569
	.loc 1 165 71 view .LVU570
	.loc 1 165 102 view .LVU571
	.loc 1 165 136 view .LVU572
	.loc 1 165 141 view .LVU573
	.loc 1 165 395 view .LVU574
	.loc 1 165 1464 view .LVU575
	.loc 1 165 1529 view .LVU576
	.loc 1 165 1553 view .LVU577
	.loc 1 165 1611 view .LVU578
	.loc 1 165 1622 view .LVU579
	.loc 1 165 1738 view .LVU580
	.loc 1 165 1754 view .LVU581
	.loc 1 165 1794 view .LVU582
	.loc 1 165 1819 view .LVU583
	.loc 1 165 3116 view .LVU584
	.loc 1 165 3157 view .LVU585
	.loc 1 165 17 view .LVU586
	.loc 1 165 40 view .LVU587
	.loc 1 165 139 view .LVU588
	.loc 1 165 16 view .LVU589
	.loc 1 165 21 view .LVU590
	.loc 1 165 246 view .LVU591
	.loc 1 165 1199 view .LVU592
	.loc 1 165 1264 view .LVU593
	.loc 1 165 1288 view .LVU594
	.loc 1 165 1317 view .LVU595
	.loc 1 165 1328 view .LVU596
	.loc 1 165 1415 view .LVU597
	.loc 1 165 1431 view .LVU598
	.loc 1 165 1471 view .LVU599
	.loc 1 165 2735 view .LVU600
	.loc 1 165 2776 view .LVU601
	.loc 1 165 17 view .LVU602
	.loc 1 165 40 view .LVU603
	.loc 1 165 19 view .LVU604
	.loc 1 165 15 view .LVU605
	.loc 1 165 38 view .LVU606
	.loc 1 165 62 view .LVU607
	.loc 1 165 90 view .LVU608
	.loc 1 165 266 view .LVU609
	.loc 1 165 26 view .LVU610
.LBB468:
.LBB462:
.LBB456:
.LBB450:
	.loc 1 165 39 view .LVU611
	.loc 1 165 13 view .LVU612
	.loc 1 165 13 view .LVU613
	.loc 1 165 80 view .LVU614
	.loc 1 165 92 is_stmt 0 view .LVU615
	sub	sp, sp, #32
	mov	r2, sp
.LVL45:
	.loc 1 165 84 is_stmt 1 view .LVU616
	.loc 1 165 494 view .LVU617
	.loc 1 165 15 view .LVU618
	.loc 1 165 17 view .LVU619
	.loc 1 165 22 view .LVU620
	.loc 1 165 20 view .LVU621
	.loc 1 165 15 view .LVU622
	.loc 1 165 33 view .LVU623
.LBB439:
	.loc 1 165 13 view .LVU624
	.loc 1 165 378 view .LVU625
	.loc 1 165 85 view .LVU626
.LVL46:
	.loc 1 165 12 view .LVU627
	.loc 1 165 12 view .LVU628
	.loc 1 165 12 view .LVU629
	.loc 1 165 48 view .LVU630
	.loc 1 165 77 view .LVU631
	.loc 1 165 103 view .LVU632
	.loc 1 165 129 view .LVU633
	.loc 1 165 596 view .LVU634
	.loc 1 165 658 view .LVU635
	.loc 1 165 1179 view .LVU636
	.loc 1 165 1244 view .LVU637
	.loc 1 165 1269 view .LVU638
	.loc 1 165 1270 view .LVU639
	.loc 1 165 1272 view .LVU640
	.loc 1 165 1302 view .LVU641
	.loc 1 165 1332 view .LVU642
	.loc 1 165 1364 view .LVU643
	.loc 1 165 1396 view .LVU644
	.loc 1 165 1428 view .LVU645
	.loc 1 165 1625 view .LVU646
	.loc 1 165 1649 view .LVU647
	.loc 1 165 1650 view .LVU648
	.loc 1 165 1652 view .LVU649
	.loc 1 165 1681 view .LVU650
	.loc 1 165 1710 view .LVU651
	.loc 1 165 1741 view .LVU652
	.loc 1 165 1772 view .LVU653
	.loc 1 165 1803 view .LVU654
	.loc 1 165 2010 view .LVU655
.LBB440:
	.loc 1 165 3154 view .LVU656
	.loc 1 165 3159 view .LVU657
	.loc 1 165 3777 view .LVU658
.LBE440:
.LBE439:
.LBE450:
.LBE456:
.LBE462:
.LBE468:
	.loc 1 149 31 is_stmt 0 view .LVU659
	uxtb	r3, r3
.LVL47:
	.loc 1 149 31 view .LVU660
	str	r3, [r2, #24]
.LBB469:
.LBB463:
.LBB457:
.LBB451:
.LBB445:
.LBB441:
	.loc 1 165 0 view .LVU661
	ldr	r1, .L32+8
.LVL48:
	.loc 1 165 0 view .LVU662
	str	r1, [r2, #20]
	.loc 1 165 3157 is_stmt 1 view .LVU663
	.loc 1 165 17 view .LVU664
.LVL49:
	.loc 1 165 40 view .LVU665
	.loc 1 165 40 is_stmt 0 view .LVU666
.LBE441:
	.loc 1 165 139 is_stmt 1 view .LVU667
	.loc 1 165 16 view .LVU668
.LBB442:
	.loc 1 165 21 view .LVU669
	.loc 1 165 246 view .LVU670
	.loc 1 165 1199 view .LVU671
	.loc 1 165 1264 view .LVU672
.LBE442:
.LBE445:
.LBE451:
.LBE457:
.LBE463:
.LBE469:
	.loc 1 165 1288 view .LVU673
	.loc 1 165 1317 view .LVU674
	.loc 1 165 1328 view .LVU675
	.loc 1 165 1415 view .LVU676
.LBB470:
.LBB464:
.LBB458:
.LBB452:
.LBB446:
.LBB443:
	.loc 1 165 1431 view .LVU677
	.loc 1 165 1471 view .LVU678
	.loc 1 165 2735 view .LVU679
	.loc 1 165 2773 view .LVU680
	.loc 1 165 2778 view .LVU681
	.loc 1 165 3222 view .LVU682
	.loc 1 165 2776 view .LVU683
	.loc 1 165 17 view .LVU684
	.loc 1 165 40 view .LVU685
	.loc 1 165 40 is_stmt 0 view .LVU686
.LBE443:
	.loc 1 165 19 is_stmt 1 view .LVU687
	.loc 1 165 15 view .LVU688
	.loc 1 165 38 view .LVU689
	.loc 1 165 62 view .LVU690
	.loc 1 165 90 view .LVU691
.LBE446:
.LBE452:
.LBE458:
.LBE464:
.LBE470:
	.loc 1 165 16 view .LVU692
	.loc 1 165 55 view .LVU693
	.loc 1 165 60 view .LVU694
	.loc 1 165 90 view .LVU695
	.loc 1 165 157 view .LVU696
	.loc 1 165 162 view .LVU697
	.loc 1 165 192 view .LVU698
.LBB471:
.LBB465:
.LBB459:
.LBB453:
.LBB447:
	.loc 1 165 266 view .LVU699
	.loc 1 165 26 view .LVU700
.LBB444:
	.loc 1 165 16 view .LVU701
	.loc 1 165 174 view .LVU702
	.loc 1 165 176 view .LVU703
	.loc 1 165 186 is_stmt 0 view .LVU704
	movs	r3, #3
	str	r3, [r2, #16]!
.LVL50:
	.loc 1 165 186 view .LVU705
.LBE444:
.LBE447:
	.loc 1 165 36 is_stmt 1 view .LVU706
	.loc 1 165 17 view .LVU707
	.loc 1 165 157 view .LVU708
	.loc 1 165 159 view .LVU709
.LBB448:
.LBI448:
	.loc 3 26 20 view .LVU710
.LBB449:
	.loc 3 38 2 view .LVU711
	.loc 3 38 7 view .LVU712
	.loc 3 38 5 view .LVU713
	.loc 3 39 2 view .LVU714
	ldr	r0, .L32+4
.LVL51:
	.loc 3 39 2 is_stmt 0 view .LVU715
	movs	r3, #0
	mov	r1, #6208
	bl	z_impl_z_log_msg_static_create
.LVL52:
	.loc 3 39 2 view .LVU716
.LBE449:
.LBE448:
.LBE453:
.LBE459:
.LBE465:
.LBE471:
	.loc 1 166 20 view .LVU717
	mvn	r0, #21
.LBB472:
.LBB466:
.LBB460:
.LBB454:
	mov	sp, r4
.LVL53:
	.loc 1 166 20 view .LVU718
.LBE454:
	.loc 1 165 117 is_stmt 1 view .LVU719
	.loc 1 165 15 view .LVU720
	.loc 1 165 52 view .LVU721
.LBE460:
	.loc 1 165 16 view .LVU722
.LBE466:
	.loc 1 165 288 view .LVU723
	.loc 1 165 15 view .LVU724
	.loc 1 165 28 view .LVU725
.LBE472:
	.loc 1 165 16 view .LVU726
	.loc 1 166 13 view .LVU727
.L23:
	.loc 1 176 1 is_stmt 0 view .LVU728
	mov	sp, r7
	.cfi_def_cfa_register 13
	@ sp needed
	pop	{r3, r4, r7, pc}
.L33:
	.align	2
.L32:
	.word	.LC3
	.word	log_const_zmk
	.word	.LC2
	.cfi_endproc
.LFE488:
	.size	set_report_cb, .-set_report_cb
	.section	.text.get_report_cb,"ax",%progbits
	.align	1
	.syntax unified
	.thumb
	.thumb_func
	.type	get_report_cb, %function
get_report_cb:
.LVL54:
.LFB487:
	.loc 1 64 42 is_stmt 1 view -0
	.cfi_startproc
	@ args = 0, pretend = 0, frame = 0
	@ frame_needed = 1, uses_anonymous_args = 0
	.loc 1 65 5 view .LVU730
	.loc 1 64 42 is_stmt 0 view .LVU731
	push	{r4, r5, r7, lr}
	.cfi_def_cfa_offset 16
	.cfi_offset 4, -16
	.cfi_offset 5, -12
	.cfi_offset 7, -8
	.cfi_offset 14, -4
	.loc 1 65 18 view .LVU732
	ldrh	r1, [r1, #2]
.LVL55:
	.loc 1 64 42 view .LVU733
	mov	r5, r3
	and	r3, r1, #65280
.LVL56:
	.loc 1 65 5 view .LVU734
	cmp	r3, #256
	.loc 1 64 42 view .LVU735
	add	r7, sp, #0
	.cfi_def_cfa_register 7
	.loc 1 64 42 view .LVU736
	mov	r4, r2
	.loc 1 65 5 view .LVU737
	beq	.L35
	cmp	r3, #768
	beq	.L36
	.loc 1 114 9 is_stmt 1 view .LVU738
.LBB497:
	.loc 1 114 14 view .LVU739
	.loc 1 114 63 view .LVU740
	.loc 1 114 20 view .LVU741
	.loc 1 114 8 view .LVU742
.LVL57:
	.loc 1 114 47 view .LVU743
	.loc 1 114 182 view .LVU744
	.loc 1 114 193 view .LVU745
	.loc 1 114 281 view .LVU746
.LBB498:
	.loc 1 114 9 view .LVU747
	.loc 1 114 11 view .LVU748
	.loc 1 114 9 view .LVU749
.LBB499:
	.loc 1 114 14 view .LVU750
	.loc 1 114 8 view .LVU751
.LBE499:
.LBE498:
.LBE497:
	.loc 1 114 9 view .LVU752
	.loc 1 114 18 view .LVU753
	.loc 1 114 113 view .LVU754
	.loc 1 114 9 view .LVU755
.LBB526:
.LBB522:
.LBB517:
	.loc 1 114 18 view .LVU756
	.loc 1 114 108 view .LVU757
	.loc 1 114 110 view .LVU758
.LBB500:
	.loc 1 114 113 is_stmt 0 view .LVU759
	mov	r4, sp
	.loc 1 114 115 is_stmt 1 view .LVU760
	.loc 1 114 126 view .LVU761
.LVL58:
	.loc 1 114 215 view .LVU762
	.loc 1 114 32 view .LVU763
.LBE500:
.LBE517:
.LBE522:
.LBE526:
	.loc 1 114 9 view .LVU764
	.loc 1 114 374 view .LVU765
	.loc 1 114 81 view .LVU766
	.loc 1 114 8 view .LVU767
	.loc 1 114 8 view .LVU768
	.loc 1 114 8 view .LVU769
	.loc 1 114 44 view .LVU770
	.loc 1 114 10 view .LVU771
	.loc 1 114 36 view .LVU772
	.loc 1 114 62 view .LVU773
	.loc 1 114 529 view .LVU774
	.loc 1 114 591 view .LVU775
	.loc 1 114 1112 view .LVU776
	.loc 1 114 1177 view .LVU777
	.loc 1 114 1202 view .LVU778
	.loc 1 114 1203 view .LVU779
	.loc 1 114 1205 view .LVU780
	.loc 1 114 1235 view .LVU781
	.loc 1 114 1265 view .LVU782
	.loc 1 114 1297 view .LVU783
	.loc 1 114 1329 view .LVU784
	.loc 1 114 1361 view .LVU785
	.loc 1 114 1558 view .LVU786
	.loc 1 114 1582 view .LVU787
	.loc 1 114 1583 view .LVU788
	.loc 1 114 1585 view .LVU789
	.loc 1 114 1614 view .LVU790
	.loc 1 114 1643 view .LVU791
	.loc 1 114 1674 view .LVU792
	.loc 1 114 1705 view .LVU793
	.loc 1 114 1736 view .LVU794
	.loc 1 114 1943 view .LVU795
	.loc 1 114 10 view .LVU796
	.loc 1 114 28 view .LVU797
	.loc 1 114 48 view .LVU798
	.loc 1 114 10 view .LVU799
	.loc 1 114 48 view .LVU800
	.loc 1 114 19 view .LVU801
	.loc 1 114 19 view .LVU802
	.loc 1 114 67 view .LVU803
	.loc 1 114 98 view .LVU804
	.loc 1 114 132 view .LVU805
	.loc 1 114 137 view .LVU806
	.loc 1 114 397 view .LVU807
	.loc 1 114 1490 view .LVU808
	.loc 1 114 1555 view .LVU809
	.loc 1 114 1579 view .LVU810
	.loc 1 114 1643 view .LVU811
	.loc 1 114 1654 view .LVU812
	.loc 1 114 1776 view .LVU813
	.loc 1 114 1792 view .LVU814
	.loc 1 114 1832 view .LVU815
	.loc 1 114 1857 view .LVU816
	.loc 1 114 3166 view .LVU817
	.loc 1 114 3207 view .LVU818
	.loc 1 114 13 view .LVU819
	.loc 1 114 36 view .LVU820
	.loc 1 114 135 view .LVU821
	.loc 1 114 12 view .LVU822
	.loc 1 114 17 view .LVU823
	.loc 1 114 242 view .LVU824
	.loc 1 114 1195 view .LVU825
	.loc 1 114 1260 view .LVU826
	.loc 1 114 1284 view .LVU827
	.loc 1 114 1313 view .LVU828
	.loc 1 114 1324 view .LVU829
	.loc 1 114 1411 view .LVU830
	.loc 1 114 1427 view .LVU831
	.loc 1 114 1467 view .LVU832
	.loc 1 114 2731 view .LVU833
	.loc 1 114 2772 view .LVU834
	.loc 1 114 13 view .LVU835
	.loc 1 114 36 view .LVU836
	.loc 1 114 15 view .LVU837
	.loc 1 114 11 view .LVU838
	.loc 1 114 34 view .LVU839
	.loc 1 114 58 view .LVU840
	.loc 1 114 86 view .LVU841
	.loc 1 114 262 view .LVU842
	.loc 1 114 22 view .LVU843
.LBB527:
.LBB523:
.LBB518:
.LBB513:
	.loc 1 114 35 view .LVU844
	.loc 1 114 9 view .LVU845
	.loc 1 114 9 view .LVU846
	.loc 1 114 76 view .LVU847
	.loc 1 114 88 is_stmt 0 view .LVU848
	sub	sp, sp, #32
	mov	r2, sp
.LVL59:
	.loc 1 114 80 is_stmt 1 view .LVU849
	.loc 1 114 490 view .LVU850
	.loc 1 114 11 view .LVU851
	.loc 1 114 13 view .LVU852
	.loc 1 114 18 view .LVU853
	.loc 1 114 16 view .LVU854
	.loc 1 114 11 view .LVU855
	.loc 1 114 29 view .LVU856
.LBB501:
	.loc 1 114 9 view .LVU857
	.loc 1 114 374 view .LVU858
	.loc 1 114 81 view .LVU859
.LVL60:
	.loc 1 114 8 view .LVU860
	.loc 1 114 8 view .LVU861
	.loc 1 114 8 view .LVU862
	.loc 1 114 44 view .LVU863
	.loc 1 114 73 view .LVU864
	.loc 1 114 99 view .LVU865
	.loc 1 114 125 view .LVU866
	.loc 1 114 592 view .LVU867
	.loc 1 114 654 view .LVU868
	.loc 1 114 1175 view .LVU869
	.loc 1 114 1240 view .LVU870
	.loc 1 114 1265 view .LVU871
	.loc 1 114 1266 view .LVU872
	.loc 1 114 1268 view .LVU873
	.loc 1 114 1298 view .LVU874
	.loc 1 114 1328 view .LVU875
	.loc 1 114 1360 view .LVU876
	.loc 1 114 1392 view .LVU877
	.loc 1 114 1424 view .LVU878
	.loc 1 114 1621 view .LVU879
	.loc 1 114 1645 view .LVU880
	.loc 1 114 1646 view .LVU881
	.loc 1 114 1648 view .LVU882
	.loc 1 114 1677 view .LVU883
	.loc 1 114 1706 view .LVU884
	.loc 1 114 1737 view .LVU885
	.loc 1 114 1768 view .LVU886
	.loc 1 114 1799 view .LVU887
	.loc 1 114 2006 view .LVU888
.LBB502:
	.loc 1 114 3204 view .LVU889
	.loc 1 114 3209 view .LVU890
	.loc 1 114 3863 view .LVU891
	.loc 1 114 0 is_stmt 0 view .LVU892
	ldr	r3, .L48
	str	r3, [r2, #20]
	.loc 1 114 3207 is_stmt 1 view .LVU893
	.loc 1 114 13 view .LVU894
.LVL61:
	.loc 1 114 36 view .LVU895
	.loc 1 114 36 is_stmt 0 view .LVU896
.LBE502:
	.loc 1 114 135 is_stmt 1 view .LVU897
	.loc 1 114 12 view .LVU898
.LBB503:
	.loc 1 114 17 view .LVU899
	.loc 1 114 242 view .LVU900
	.loc 1 114 1195 view .LVU901
	.loc 1 114 1260 view .LVU902
.LBE503:
.LBE501:
.LBE513:
.LBE518:
.LBE523:
.LBE527:
	.loc 1 114 1284 view .LVU903
	.loc 1 114 1313 view .LVU904
	.loc 1 114 1324 view .LVU905
	.loc 1 114 1411 view .LVU906
.LBB528:
.LBB524:
.LBB519:
.LBB514:
.LBB508:
.LBB504:
	.loc 1 114 1427 view .LVU907
	.loc 1 114 1467 view .LVU908
	.loc 1 114 2731 view .LVU909
	.loc 1 114 2769 view .LVU910
	.loc 1 114 2774 view .LVU911
	.loc 1 114 3218 view .LVU912
.LBE504:
.LBE508:
.LBE514:
.LBE519:
	.loc 1 114 55 is_stmt 0 view .LVU913
	lsls	r1, r1, #8
.LVL62:
	.loc 1 114 23 view .LVU914
	and	r1, r1, #16711680
.LBB520:
.LBB515:
.LBB509:
.LBB505:
	.loc 1 114 182 view .LVU915
	movs	r3, #3
.LBE505:
.LBB506:
	.loc 1 114 3817 view .LVU916
	str	r1, [r2, #24]
	.loc 1 114 2772 is_stmt 1 view .LVU917
	.loc 1 114 13 view .LVU918
.LVL63:
	.loc 1 114 36 view .LVU919
	.loc 1 114 36 is_stmt 0 view .LVU920
.LBE506:
	.loc 1 114 15 is_stmt 1 view .LVU921
	.loc 1 114 11 view .LVU922
	.loc 1 114 34 view .LVU923
	.loc 1 114 58 view .LVU924
	.loc 1 114 86 view .LVU925
.LBE509:
.LBE515:
.LBE520:
.LBE524:
.LBE528:
	.loc 1 114 12 view .LVU926
	.loc 1 114 51 view .LVU927
	.loc 1 114 56 view .LVU928
	.loc 1 114 86 view .LVU929
	.loc 1 114 153 view .LVU930
	.loc 1 114 158 view .LVU931
	.loc 1 114 188 view .LVU932
.LBB529:
.LBB525:
.LBB521:
.LBB516:
.LBB510:
	.loc 1 114 262 view .LVU933
	.loc 1 114 22 view .LVU934
.LBB507:
	.loc 1 114 12 view .LVU935
	.loc 1 114 170 view .LVU936
	.loc 1 114 172 view .LVU937
	.loc 1 114 182 is_stmt 0 view .LVU938
	str	r3, [r2, #16]!
.LVL64:
	.loc 1 114 182 view .LVU939
.LBE507:
.LBE510:
	.loc 1 114 32 is_stmt 1 view .LVU940
	.loc 1 114 13 view .LVU941
	.loc 1 114 153 view .LVU942
	.loc 1 114 155 view .LVU943
.LBB511:
.LBI511:
	.loc 3 26 20 view .LVU944
.LBB512:
	.loc 3 38 2 view .LVU945
	.loc 3 38 7 view .LVU946
	.loc 3 38 5 view .LVU947
	.loc 3 39 2 view .LVU948
	ldr	r0, .L48+4
.LVL65:
	.loc 3 39 2 is_stmt 0 view .LVU949
	movs	r3, #0
	mov	r1, #6208
	bl	z_impl_z_log_msg_static_create
.LVL66:
	.loc 3 39 2 view .LVU950
.LBE512:
.LBE511:
	mov	sp, r4
.LVL67:
	.loc 3 39 2 view .LVU951
.LBE516:
	.loc 1 114 113 is_stmt 1 view .LVU952
	.loc 1 114 11 view .LVU953
	.loc 1 114 48 view .LVU954
.LBE521:
	.loc 1 114 12 view .LVU955
.LBE525:
	.loc 1 114 284 view .LVU956
	.loc 1 114 11 view .LVU957
	.loc 1 114 24 view .LVU958
.LBE529:
	.loc 1 114 12 view .LVU959
	.loc 1 116 9 view .LVU960
.L36:
	.loc 1 86 20 is_stmt 0 view .LVU961
	mvn	r0, #133
	b	.L34
.LVL68:
.L35:
	.loc 1 88 9 is_stmt 1 view .LVU962
	.loc 1 90 9 view .LVU963
	uxtb	r1, r1
	cmp	r1, #1
	beq	.L38
	cmp	r1, #2
	beq	.L39
	.loc 1 104 13 view .LVU964
.LBB530:
	.loc 1 104 18 view .LVU965
	.loc 1 104 67 view .LVU966
	.loc 1 104 24 view .LVU967
	.loc 1 104 12 view .LVU968
.LVL69:
	.loc 1 104 51 view .LVU969
	.loc 1 104 186 view .LVU970
	.loc 1 104 197 view .LVU971
	.loc 1 104 285 view .LVU972
.LBB531:
	.loc 1 104 13 view .LVU973
	.loc 1 104 15 view .LVU974
	.loc 1 104 13 view .LVU975
.LBB532:
	.loc 1 104 18 view .LVU976
	.loc 1 104 12 view .LVU977
.LBE532:
.LBE531:
.LBE530:
	.loc 1 104 13 view .LVU978
	.loc 1 104 22 view .LVU979
	.loc 1 104 117 view .LVU980
	.loc 1 104 13 view .LVU981
.LBB556:
.LBB551:
.LBB546:
	.loc 1 104 22 view .LVU982
	.loc 1 104 112 view .LVU983
	.loc 1 104 114 view .LVU984
.LBB533:
	.loc 1 104 117 is_stmt 0 view .LVU985
	mov	r4, sp
	.loc 1 104 119 is_stmt 1 view .LVU986
	.loc 1 104 130 view .LVU987
.LVL70:
	.loc 1 104 219 view .LVU988
	.loc 1 104 36 view .LVU989
.LBE533:
.LBE546:
.LBE551:
.LBE556:
	.loc 1 104 13 view .LVU990
	.loc 1 104 378 view .LVU991
	.loc 1 104 85 view .LVU992
	.loc 1 104 12 view .LVU993
	.loc 1 104 12 view .LVU994
	.loc 1 104 12 view .LVU995
	.loc 1 104 48 view .LVU996
	.loc 1 104 14 view .LVU997
	.loc 1 104 40 view .LVU998
	.loc 1 104 66 view .LVU999
	.loc 1 104 533 view .LVU1000
	.loc 1 104 595 view .LVU1001
	.loc 1 104 1116 view .LVU1002
	.loc 1 104 1181 view .LVU1003
	.loc 1 104 1206 view .LVU1004
	.loc 1 104 1207 view .LVU1005
	.loc 1 104 1209 view .LVU1006
	.loc 1 104 1239 view .LVU1007
	.loc 1 104 1269 view .LVU1008
	.loc 1 104 1301 view .LVU1009
	.loc 1 104 1333 view .LVU1010
	.loc 1 104 1365 view .LVU1011
	.loc 1 104 1562 view .LVU1012
	.loc 1 104 1586 view .LVU1013
	.loc 1 104 1587 view .LVU1014
	.loc 1 104 1589 view .LVU1015
	.loc 1 104 1618 view .LVU1016
	.loc 1 104 1647 view .LVU1017
	.loc 1 104 1678 view .LVU1018
	.loc 1 104 1709 view .LVU1019
	.loc 1 104 1740 view .LVU1020
	.loc 1 104 1947 view .LVU1021
	.loc 1 104 14 view .LVU1022
	.loc 1 104 32 view .LVU1023
	.loc 1 104 52 view .LVU1024
	.loc 1 104 14 view .LVU1025
	.loc 1 104 52 view .LVU1026
	.loc 1 104 23 view .LVU1027
	.loc 1 104 23 view .LVU1028
	.loc 1 104 71 view .LVU1029
	.loc 1 104 102 view .LVU1030
	.loc 1 104 136 view .LVU1031
	.loc 1 104 141 view .LVU1032
	.loc 1 104 395 view .LVU1033
	.loc 1 104 1464 view .LVU1034
	.loc 1 104 1529 view .LVU1035
	.loc 1 104 1553 view .LVU1036
	.loc 1 104 1611 view .LVU1037
	.loc 1 104 1622 view .LVU1038
	.loc 1 104 1738 view .LVU1039
	.loc 1 104 1754 view .LVU1040
	.loc 1 104 1794 view .LVU1041
	.loc 1 104 1819 view .LVU1042
	.loc 1 104 3116 view .LVU1043
	.loc 1 104 3157 view .LVU1044
	.loc 1 104 17 view .LVU1045
	.loc 1 104 40 view .LVU1046
	.loc 1 104 139 view .LVU1047
	.loc 1 104 16 view .LVU1048
	.loc 1 104 21 view .LVU1049
	.loc 1 104 246 view .LVU1050
	.loc 1 104 1199 view .LVU1051
	.loc 1 104 1264 view .LVU1052
	.loc 1 104 1288 view .LVU1053
	.loc 1 104 1317 view .LVU1054
	.loc 1 104 1328 view .LVU1055
	.loc 1 104 1415 view .LVU1056
	.loc 1 104 1431 view .LVU1057
	.loc 1 104 1471 view .LVU1058
	.loc 1 104 2735 view .LVU1059
	.loc 1 104 2776 view .LVU1060
	.loc 1 104 17 view .LVU1061
	.loc 1 104 40 view .LVU1062
	.loc 1 104 19 view .LVU1063
	.loc 1 104 15 view .LVU1064
	.loc 1 104 38 view .LVU1065
	.loc 1 104 62 view .LVU1066
	.loc 1 104 90 view .LVU1067
	.loc 1 104 266 view .LVU1068
	.loc 1 104 26 view .LVU1069
.LBB557:
.LBB552:
.LBB547:
.LBB542:
	.loc 1 104 39 view .LVU1070
	.loc 1 104 13 view .LVU1071
	.loc 1 104 13 view .LVU1072
	.loc 1 104 80 view .LVU1073
	.loc 1 104 92 is_stmt 0 view .LVU1074
	sub	sp, sp, #32
	mov	r2, sp
.LVL71:
	.loc 1 104 84 is_stmt 1 view .LVU1075
	.loc 1 104 494 view .LVU1076
	.loc 1 104 15 view .LVU1077
	.loc 1 104 17 view .LVU1078
	.loc 1 104 22 view .LVU1079
	.loc 1 104 20 view .LVU1080
	.loc 1 104 15 view .LVU1081
	.loc 1 104 33 view .LVU1082
.LBB534:
	.loc 1 104 13 view .LVU1083
	.loc 1 104 378 view .LVU1084
	.loc 1 104 85 view .LVU1085
.LVL72:
	.loc 1 104 12 view .LVU1086
	.loc 1 104 12 view .LVU1087
	.loc 1 104 12 view .LVU1088
	.loc 1 104 48 view .LVU1089
	.loc 1 104 77 view .LVU1090
	.loc 1 104 103 view .LVU1091
	.loc 1 104 129 view .LVU1092
	.loc 1 104 596 view .LVU1093
	.loc 1 104 658 view .LVU1094
	.loc 1 104 1179 view .LVU1095
	.loc 1 104 1244 view .LVU1096
	.loc 1 104 1269 view .LVU1097
	.loc 1 104 1270 view .LVU1098
	.loc 1 104 1272 view .LVU1099
	.loc 1 104 1302 view .LVU1100
	.loc 1 104 1332 view .LVU1101
	.loc 1 104 1364 view .LVU1102
	.loc 1 104 1396 view .LVU1103
	.loc 1 104 1428 view .LVU1104
	.loc 1 104 1625 view .LVU1105
	.loc 1 104 1649 view .LVU1106
	.loc 1 104 1650 view .LVU1107
	.loc 1 104 1652 view .LVU1108
	.loc 1 104 1681 view .LVU1109
	.loc 1 104 1710 view .LVU1110
	.loc 1 104 1741 view .LVU1111
	.loc 1 104 1772 view .LVU1112
	.loc 1 104 1803 view .LVU1113
	.loc 1 104 2010 view .LVU1114
.LBB535:
	.loc 1 104 3154 view .LVU1115
	.loc 1 104 3159 view .LVU1116
	.loc 1 104 3777 view .LVU1117
	.loc 1 104 0 is_stmt 0 view .LVU1118
	ldr	r3, .L48+8
.LBE535:
.LBE534:
.LBE542:
.LBE547:
.LBE552:
.LBE557:
	.loc 1 90 31 view .LVU1119
	strd	r3, r1, [r2, #20]
.LBB558:
.LBB553:
.LBB548:
.LBB543:
.LBB538:
.LBB536:
	.loc 1 104 2776 is_stmt 1 view .LVU1120
	.loc 1 104 17 view .LVU1121
.LVL73:
	.loc 1 104 40 view .LVU1122
	.loc 1 104 40 is_stmt 0 view .LVU1123
.LBE536:
	.loc 1 104 19 is_stmt 1 view .LVU1124
	.loc 1 104 15 view .LVU1125
	.loc 1 104 38 view .LVU1126
	.loc 1 104 62 view .LVU1127
	.loc 1 104 90 view .LVU1128
.LBE538:
.LBE543:
.LBE548:
.LBE553:
.LBE558:
	.loc 1 104 16 view .LVU1129
	.loc 1 104 55 view .LVU1130
	.loc 1 104 60 view .LVU1131
	.loc 1 104 90 view .LVU1132
	.loc 1 104 157 view .LVU1133
	.loc 1 104 162 view .LVU1134
	.loc 1 104 192 view .LVU1135
.LBB559:
.LBB554:
.LBB549:
.LBB544:
.LBB539:
	.loc 1 104 266 view .LVU1136
	.loc 1 104 26 view .LVU1137
.LBB537:
	.loc 1 104 16 view .LVU1138
	.loc 1 104 174 view .LVU1139
	.loc 1 104 176 view .LVU1140
	.loc 1 104 186 is_stmt 0 view .LVU1141
	movs	r3, #3
	str	r3, [r2, #16]!
.LVL74:
	.loc 1 104 186 view .LVU1142
.LBE537:
.LBE539:
	.loc 1 104 36 is_stmt 1 view .LVU1143
	.loc 1 104 17 view .LVU1144
	.loc 1 104 157 view .LVU1145
	.loc 1 104 159 view .LVU1146
.LBB540:
.LBI540:
	.loc 3 26 20 view .LVU1147
.LBB541:
	.loc 3 38 2 view .LVU1148
	.loc 3 38 7 view .LVU1149
	.loc 3 38 5 view .LVU1150
	.loc 3 39 2 view .LVU1151
	ldr	r0, .L48+4
.LVL75:
	.loc 3 39 2 is_stmt 0 view .LVU1152
	movs	r3, #0
	mov	r1, #6208
.LVL76:
	.loc 3 39 2 view .LVU1153
	bl	z_impl_z_log_msg_static_create
.LVL77:
	.loc 3 39 2 view .LVU1154
.LBE541:
.LBE540:
.LBE544:
.LBE549:
.LBE554:
.LBE559:
	.loc 1 105 20 view .LVU1155
	mvn	r0, #21
.LBB560:
.LBB555:
.LBB550:
.LBB545:
	mov	sp, r4
.LVL78:
	.loc 1 105 20 view .LVU1156
.LBE545:
	.loc 1 104 117 is_stmt 1 view .LVU1157
	.loc 1 104 15 view .LVU1158
	.loc 1 104 52 view .LVU1159
.LBE550:
	.loc 1 104 16 view .LVU1160
.LBE555:
	.loc 1 104 288 view .LVU1161
	.loc 1 104 15 view .LVU1162
	.loc 1 104 28 view .LVU1163
.LBE560:
	.loc 1 104 16 view .LVU1164
	.loc 1 105 13 view .LVU1165
	.loc 1 105 20 is_stmt 0 view .LVU1166
	b	.L34
.LVL79:
.L38:
.LBB561:
	.loc 1 92 13 is_stmt 1 view .LVU1167
	.loc 1 93 13 view .LVU1168
.LBB562:
.LBI562:
	.loc 1 50 17 view .LVU1169
.LBB563:
	.loc 1 58 5 view .LVU1170
	.loc 1 58 46 is_stmt 0 view .LVU1171
	bl	zmk_hid_get_keyboard_report
.LVL80:
	.loc 1 59 5 is_stmt 1 view .LVU1172
	.loc 1 60 5 view .LVU1173
	.loc 1 60 5 is_stmt 0 view .LVU1174
.LBE563:
.LBE562:
	.loc 1 94 13 is_stmt 1 view .LVU1175
	.loc 1 95 13 view .LVU1176
.LBB565:
.LBB564:
	.loc 1 58 46 is_stmt 0 view .LVU1177
	movs	r3, #9
.L41:
.LBE564:
.LBE565:
.LBE561:
.LBB566:
	.loc 1 99 19 view .LVU1178
	str	r0, [r5]
	.loc 1 100 18 view .LVU1179
	str	r3, [r4]
.LBE566:
	.loc 1 119 12 view .LVU1180
	movs	r0, #0
.LVL81:
.L34:
	.loc 1 120 1 view .LVU1181
	mov	sp, r7
	.cfi_remember_state
	.cfi_def_cfa_register 13
	@ sp needed
	pop	{r4, r5, r7, pc}
.LVL82:
.L39:
	.cfi_restore_state
.LBB567:
	.loc 1 98 13 is_stmt 1 view .LVU1182
	.loc 1 98 54 is_stmt 0 view .LVU1183
	bl	zmk_hid_get_consumer_report
.LVL83:
	.loc 1 99 13 is_stmt 1 view .LVU1184
	.loc 1 100 13 view .LVU1185
	.loc 1 101 13 view .LVU1186
	movs	r3, #13
	b	.L41
.L49:
	.align	2
.L48:
	.word	.LC3
	.word	log_const_zmk
	.word	.LC2
.LBE567:
	.cfi_endproc
.LFE487:
	.size	get_report_cb, .-get_report_cb
	.section	.text.zmk_usb_hid_send_keyboard_report,"ax",%progbits
	.align	1
	.global	zmk_usb_hid_send_keyboard_report
	.syntax unified
	.thumb
	.thumb_func
	.type	zmk_usb_hid_send_keyboard_report, %function
zmk_usb_hid_send_keyboard_report:
.LFB490:
	.loc 1 208 44 view -0
	.cfi_startproc
	@ args = 0, pretend = 0, frame = 0
	@ frame_needed = 0, uses_anonymous_args = 0
	.loc 1 209 5 view .LVU1188
	.loc 1 210 5 view .LVU1189
.LVL84:
.LBB568:
.LBI568:
	.loc 1 50 17 view .LVU1190
.LBB569:
	.loc 1 58 5 view .LVU1191
.LBE569:
.LBE568:
	.loc 1 208 44 is_stmt 0 view .LVU1192
	push	{r3, lr}
	.cfi_def_cfa_offset 8
	.cfi_offset 3, -8
	.cfi_offset 14, -4
.LBB571:
.LBB570:
	.loc 1 58 46 view .LVU1193
	bl	zmk_hid_get_keyboard_report
.LVL85:
	.loc 1 59 5 is_stmt 1 view .LVU1194
	.loc 1 60 5 view .LVU1195
	.loc 1 60 5 is_stmt 0 view .LVU1196
.LBE570:
.LBE571:
	.loc 1 211 5 is_stmt 1 view .LVU1197
	.loc 1 212 1 is_stmt 0 view .LVU1198
	pop	{r3, lr}
	.cfi_restore 14
	.cfi_restore 3
	.cfi_def_cfa_offset 0
	.loc 1 211 12 view .LVU1199
	movs	r1, #9
	b	zmk_usb_hid_send_report
.LVL86:
	.loc 1 211 12 view .LVU1200
	.cfi_endproc
.LFE490:
	.size	zmk_usb_hid_send_keyboard_report, .-zmk_usb_hid_send_keyboard_report
	.section	.text.zmk_usb_hid_send_consumer_report,"ax",%progbits
	.align	1
	.global	zmk_usb_hid_send_consumer_report
	.syntax unified
	.thumb
	.thumb_func
	.type	zmk_usb_hid_send_consumer_report, %function
zmk_usb_hid_send_consumer_report:
.LFB491:
	.loc 1 214 44 is_stmt 1 view -0
	.cfi_startproc
	@ args = 0, pretend = 0, frame = 0
	@ frame_needed = 0, uses_anonymous_args = 0
	.loc 1 221 5 view .LVU1202
	.loc 1 214 44 is_stmt 0 view .LVU1203
	push	{r3, lr}
	.cfi_def_cfa_offset 8
	.cfi_offset 3, -8
	.cfi_offset 14, -4
	.loc 1 221 46 view .LVU1204
	bl	zmk_hid_get_consumer_report
.LVL87:
	.loc 1 222 5 is_stmt 1 view .LVU1205
	.loc 1 223 1 is_stmt 0 view .LVU1206
	pop	{r3, lr}
	.cfi_restore 14
	.cfi_restore 3
	.cfi_def_cfa_offset 0
	.loc 1 222 12 view .LVU1207
	movs	r1, #13
	b	zmk_usb_hid_send_report
.LVL88:
	.loc 1 222 12 view .LVU1208
	.cfi_endproc
.LFE491:
	.size	zmk_usb_hid_send_consumer_report, .-zmk_usb_hid_send_consumer_report
	.section	.text.zmk_usb_hid_send_mouse_report,"ax",%progbits
	.align	1
	.global	zmk_usb_hid_send_mouse_report
	.syntax unified
	.thumb
	.thumb_func
	.type	zmk_usb_hid_send_mouse_report, %function
zmk_usb_hid_send_mouse_report:
.LFB492:
	.loc 1 226 37 is_stmt 1 view -0
	.cfi_startproc
	@ args = 0, pretend = 0, frame = 0
	@ frame_needed = 0, uses_anonymous_args = 0
	.loc 1 233 5 view .LVU1210
	.loc 1 226 37 is_stmt 0 view .LVU1211
	push	{r3, lr}
	.cfi_def_cfa_offset 8
	.cfi_offset 3, -8
	.cfi_offset 14, -4
	.loc 1 233 43 view .LVU1212
	bl	zmk_hid_get_mouse_report
.LVL89:
	.loc 1 234 5 is_stmt 1 view .LVU1213
	.loc 1 235 1 is_stmt 0 view .LVU1214
	pop	{r3, lr}
	.cfi_restore 14
	.cfi_restore 3
	.cfi_def_cfa_offset 0
	.loc 1 234 12 view .LVU1215
	movs	r1, #10
	b	zmk_usb_hid_send_report
.LVL90:
	.loc 1 234 12 view .LVU1216
	.cfi_endproc
.LFE492:
	.size	zmk_usb_hid_send_mouse_report, .-zmk_usb_hid_send_mouse_report
	.section	.z_init_APPLICATION95_0_,"a"
	.align	2
	.type	__init_zmk_usb_hid_init, %object
	.size	__init_zmk_usb_hid_init, 8
__init_zmk_usb_hid_init:
	.word	zmk_usb_hid_init
	.word	0
	.section	.rodata.ops,"a"
	.align	2
	.type	ops, %object
	.size	ops, 20
ops:
	.word	get_report_cb
	.word	set_report_cb
	.space	8
	.word	in_ready_cb
	.section	._k_sem.static.hid_sem_,"aw"
	.align	2
	.type	hid_sem, %object
	.size	hid_sem, 24
hid_sem:
	.word	hid_sem
	.word	hid_sem
	.word	1
	.word	1
	.word	hid_sem+16
	.word	hid_sem+16
	.section	.bss.hid_dev,"aw",%nobits
	.align	2
	.type	hid_dev, %object
	.size	hid_dev, 4
hid_dev:
	.space	4
	.section	.rodata.zmk_hid_report_desc,"a"
	.type	zmk_hid_report_desc, %object
	.size	zmk_hid_report_desc, 176
zmk_hid_report_desc:
	.ascii	"\005\001\011\006\241\001\205\001\005\007\031\340)\347"
	.ascii	"\025\000%\001u\001\225\010\201\002\005\007u\010\225"
	.ascii	"\001\201\003\005\007\025\000&\377\000\031\000)\377u"
	.ascii	"\010\225\006\201\000\300\005\014\011\001\241\001\205"
	.ascii	"\002\005\014\025\000&\377\017\031\000*\377\017u\020"
	.ascii	"\225\006\201\000\300\005\001\011\002\241\001\205\003"
	.ascii	"\011\001\241\000\005\011\031\001)\005\025\000%\001u"
	.ascii	"\001\225\005\201\002u\003\225\001\201\003\005\001\011"
	.ascii	"0\0111\026\000\200&\377\177u\020\225\002\201\006\241"
	.ascii	"\002\0118\026\000\200&\377\1775\000E\000u\020\225\001"
	.ascii	"\201\006\300\241\002\005\014\0128\002\026\000\200&\377"
	.ascii	"\1775\000E\000u\020\225\001\201\006\300\300\300"
	.text
.Letext0:
	.file 5 "/home/g/zephyr-sdk-0.16.3/arm-zephyr-eabi/picolibc/include/machine/_default_types.h"
	.file 6 "/home/g/zephyr-sdk-0.16.3/arm-zephyr-eabi/picolibc/include/sys/_stdint.h"
	.file 7 "/home/g/zephyr-sdk-0.16.3/arm-zephyr-eabi/lib/gcc/arm-zephyr-eabi/12.2.0/include/stddef.h"
	.file 8 "/home/g/mise-work/zmk-firmware/zmk/zephyr/include/zephyr/init.h"
	.file 9 "/home/g/mise-work/zmk-firmware/zmk/zephyr/include/zephyr/device.h"
	.file 10 "/home/g/mise-work/zmk-firmware/zmk/zephyr/include/zephyr/usb/usb_ch9.h"
	.file 11 "/home/g/mise-work/zmk-firmware/zmk/zephyr/include/zephyr/logging/log_instance.h"
	.file 12 "/home/g/mise-work/zmk-firmware/zmk/zephyr/include/zephyr/sys/cbprintf.h"
	.file 13 "/home/g/mise-work/zmk-firmware/zmk/zephyr/include/zephyr/sys/dlist.h"
	.file 14 "/home/g/mise-work/zmk-firmware/zmk/zephyr/include/zephyr/kernel_structs.h"
	.file 15 "/home/g/mise-work/zmk-firmware/zmk/zephyr/include/zephyr/drivers/usb/usb_dc.h"
	.file 16 "/home/g/mise-work/zmk-firmware/zmk/zephyr/include/zephyr/fatal_types.h"
	.file 17 "/home/g/mise-work/zmk-firmware/zmk/zephyr/include/zephyr/logging/log_msg.h"
	.file 18 "/home/g/mise-work/zmk-firmware/zmk/zephyr/include/zephyr/usb/class/usb_hid.h"
	.file 19 "/home/g/mise-work/zmk-firmware/zmk/zephyr/include/zephyr/sys_clock.h"
	.file 20 "/home/g/mise-work/zmk-firmware/zmk/zephyr/include/zephyr/kernel.h"
	.file 21 "/home/g/mise-work/zmk-firmware/zmk/app/include/zmk/keys.h"
	.file 22 "/home/g/mise-work/zmk-firmware/zmk/app/include/zmk/pointing.h"
	.file 23 "/home/g/mise-work/zmk-firmware/zmk/app/include/zmk/hid.h"
	.file 24 "/home/g/mise-work/zmk-firmware/zmk/zephyr/include/zephyr/usb/usb_device.h"
	.file 25 "/home/g/mise-work/zmk-firmware/zmk/app/include/zmk/usb.h"
	.file 26 "/home/g/mise-work/zmk-firmware/zmk/zephyr/include/zephyr/sys/cbprintf_internal.h"
	.file 27 "/home/g/mise-work/zmk-firmware/zmk/zephyr/include/zephyr/syscall.h"