	.cpu cortex-m4
	.arch armv7e-m
	.fpu fpv4-sp-d16
	.eabi_attribute 27, 1
	.eabi_attribute 28, 1
	.eabi_attribute 20, 1
	.eabi_attribute 21, 1
	.eabi_attribute 23, 3
	.eabi_attribute 24, 1
	.eabi_attribute 25, 1
	.eabi_attribute 26, 1
	.eabi_attribute 30, 2
	.eabi_attribute 34, 1
	.eabi_attribute 38, 1
	.eabi_attribute 18, 4
	.file	"lll_conn.c"
	.text
.Ltext0:
	.cfi_sections	.debug_frame
	.file 1 "/home/g/mise-work/zmk-firmware/zmk/zephyr/subsys/bluetooth/controller/ll_sw/nordic/lll/lll_conn.c"
	.section	.rodata.isr_done.str1.4,"aMS",%progbits,1
	.align	2
.LC0:
	.ascii	"WEST_TOPDIR/zephyr/subsys/bluetooth/controller/ll_s"
	.ascii	"w/nordic/lll/lll_conn.c\000"
	.align	2
.LC1:
	.ascii	"e\000"
	.align	2
.LC2:
	.ascii	"ASSERTION FAIL [%s] @ %s:%d\012\000"
	.section	.text.isr_done,"ax",%progbits
	.align	1
	.p2align 2,,3
	.syntax unified
	.thumb
	.thumb_func
	.type	isr_done, %function
isr_done:
.LVL0:
.LFB1056:
	.loc 1 834 1 view -0
	.cfi_startproc
	@ args = 0, pretend = 0, frame = 0
	@ frame_needed = 0, uses_anonymous_args = 0
	.loc 1 835 2 view .LVU1
	.loc 1 837 2 view .LVU2
	.loc 1 834 1 is_stmt 0 view .LVU3
	push	{r3, r4, r5, r6, r7, lr}
	.cfi_def_cfa_offset 24
	.cfi_offset 3, -24
	.cfi_offset 4, -20
	.cfi_offset 5, -16
	.cfi_offset 6, -12
	.cfi_offset 7, -8
	.cfi_offset 14, -4
	.loc 1 834 1 view .LVU4
	mov	r5, r0
	.loc 1 837 2 view .LVU5
	bl	lll_isr_status_reset
.LVL1:
	.loc 1 839 2 is_stmt 1 view .LVU6
	.loc 1 839 6 is_stmt 0 view .LVU7
	bl	ull_event_done_extra_get
.LVL2:
	.loc 1 840 2 is_stmt 1 view .LVU8
	.loc 1 840 7 view .LVU9
	.loc 1 840 10 is_stmt 0 view .LVU10
	mov	r4, r0
	cmp	r0, #0
	beq	.L12
.LVL3:
.L2:
	.loc 1 840 157 is_stmt 1 discriminator 3 view .LVU11
	.loc 1 840 5 discriminator 3 view .LVU12
	.loc 1 842 2 discriminator 3 view .LVU13
	.loc 1 844 15 is_stmt 0 discriminator 3 view .LVU14
	ldr	r1, .L14
	ldrb	r2, [r4, #6]	@ zero_extendqisi2
	ldrb	r0, [r1]	@ zero_extendqisi2
	.loc 1 843 13 discriminator 3 view .LVU15
	ldr	r3, .L14+4
	.loc 1 844 15 discriminator 3 view .LVU16
	bfi	r2, r0, #0, #1
	strb	r2, [r4, #6]
	.loc 1 847 15 discriminator 3 view .LVU17
	ldr	r2, .L14+8
	.loc 1 843 13 discriminator 3 view .LVU18
	ldrh	r3, [r3]
	.loc 1 847 15 discriminator 3 view .LVU19
	ldrb	r2, [r2]	@ zero_extendqisi2
	.loc 1 843 13 discriminator 3 view .LVU20
	strh	r3, [r4, #4]	@ movhi
	.loc 1 842 10 discriminator 3 view .LVU21
	movs	r1, #1
	strb	r1, [r4]
	.loc 1 843 2 is_stmt 1 discriminator 3 view .LVU22
	.loc 1 844 2 discriminator 3 view .LVU23
	.loc 1 847 2 discriminator 3 view .LVU24
	.loc 1 847 15 is_stmt 0 discriminator 3 view .LVU25
	strb	r2, [r4, #8]
	.loc 1 851 2 is_stmt 1 discriminator 3 view .LVU26
	.loc 1 851 5 is_stmt 0 discriminator 3 view .LVU27
	cbz	r3, .L3
.LBB28:
	.loc 1 852 3 is_stmt 1 view .LVU28
.LVL4:
	.loc 1 854 3 view .LVU29
	.loc 1 854 6 is_stmt 0 view .LVU30
	ldrsb	r3, [r5, #29]
	cmp	r3, #0
	blt	.L13
.LVL5:
.L3:
	.loc 1 854 6 view .LVU31
.LBE28:
	.loc 1 878 2 is_stmt 1 view .LVU32
	mov	r0, r5
	.loc 1 879 1 is_stmt 0 view .LVU33
	pop	{r3, r4, r5, r6, r7, lr}
	.cfi_remember_state
	.cfi_restore 14
	.cfi_restore 7
	.cfi_restore 6
	.cfi_restore 5
	.cfi_restore 4
	.cfi_restore 3
	.cfi_def_cfa_offset 0
.LVL6:
	.loc 1 878 2 view .LVU34
	b	lll_isr_cleanup
.LVL7:
.L13:
	.cfi_restore_state
.LBB35:
.LBB29:
	.loc 1 855 4 is_stmt 1 view .LVU35
	.loc 1 858 4 view .LVU36
	.loc 1 859 20 is_stmt 0 view .LVU37
	ldrb	r3, [r5, #91]	@ zero_extendqisi2
	and	r3, r3, #7
.LVL8:
.LBB30:
.LBI30:
	.file 2 "/home/g/mise-work/zmk-firmware/zmk/zephyr/subsys/bluetooth/controller/ll_sw/nordic/lll/lll_tim_internal.h"
	.loc 2 21 24 is_stmt 1 view .LVU38
.LBB31:
	.loc 2 23 2 view .LVU39
	cmp	r3, #2
	beq	.L5
	.loc 2 26 10 is_stmt 0 view .LVU40
	cmp	r3, #4
	ite	eq
	moveq	r7, #376
	movne	r7, #40
.L4:
.LVL9:
	.loc 2 26 10 view .LVU41
.LBE31:
.LBE30:
	.loc 1 865 4 is_stmt 1 view .LVU42
	.loc 1 866 5 is_stmt 0 view .LVU43
	bl	radio_tmr_aa_restore
.LVL10:
	mov	r6, r0
	.loc 1 866 30 view .LVU44
	bl	radio_tmr_ready_get
.LVL11:
	.loc 1 866 28 view .LVU45
	subs	r6, r6, r0
	.loc 1 865 40 view .LVU46
	str	r6, [r4, #12]
	.loc 1 867 4 is_stmt 1 view .LVU47
	.loc 1 868 16 is_stmt 0 view .LVU48
	ldr	r2, [r5, #48]
	.loc 1 869 33 view .LVU49
	strd	r2, r7, [r4, #16]
	.loc 1 872 4 is_stmt 1 view .LVU50
	.loc 1 872 41 is_stmt 0 view .LVU51
	movs	r3, #0
	str	r3, [r5, #48]
	.loc 1 873 4 is_stmt 1 view .LVU52
	.loc 1 873 37 is_stmt 0 view .LVU53
	str	r3, [r5, #56]
.LBE29:
.LBE35:
	.loc 1 878 2 is_stmt 1 view .LVU54
	mov	r0, r5
	.loc 1 879 1 is_stmt 0 view .LVU55
	pop	{r3, r4, r5, r6, r7, lr}
	.cfi_remember_state
	.cfi_restore 14
	.cfi_restore 7
	.cfi_restore 6
	.cfi_restore 5
	.cfi_restore 4
	.cfi_restore 3
	.cfi_def_cfa_offset 0
.LVL12:
	.loc 1 878 2 view .LVU56
	b	lll_isr_cleanup
.LVL13:
.L5:
	.cfi_restore_state
.LBB36:
.LBB34:
.LBB33:
.LBB32:
	.loc 2 23 2 view .LVU57
	movs	r7, #24
	b	.L4
.LVL14:
.L12:
	.loc 2 23 2 view .LVU58
.LBE32:
.LBE33:
.LBE34:
.LBE36:
	.loc 1 840 19 is_stmt 1 discriminator 1 view .LVU59
	ldr	r2, .L14+12
	ldr	r1, .L14+16
	ldr	r0, .L14+20
.LVL15:
	.loc 1 840 19 is_stmt 0 discriminator 1 view .LVU60
	mov	r3, #840
	bl	assert_print
.LVL16:
	.loc 1 840 154 is_stmt 1 discriminator 1 view .LVU61
	.loc 1 840 159 discriminator 1 view .LVU62
	.syntax unified
@ 840 "/home/g/mise-work/zmk-firmware/zmk/zephyr/subsys/bluetooth/controller/ll_sw/nordic/lll/lll_conn.c" 1
	eors.n r0, r0
	msr BASEPRI, r0
	mov r0, #3
	svc #2
	
@ 0 "" 2
	.thumb
	.syntax unified
	b	.L2
.L15:
	.align	2
.L14:
	.word	crc_valid
	.word	trx_cnt
	.word	mic_state
	.word	.LC0
	.word	.LC1
	.word	.LC2
	.cfi_endproc
.LFE1056:
	.size	isr_done, .-isr_done
	.section	.text.lll_conn_init,"ax",%progbits
	.align	1
	.p2align 2,,3
	.global	lll_conn_init
	.syntax unified
	.thumb
	.thumb_func
	.type	lll_conn_init, %function
lll_conn_init:
.LFB1045:
	.loc 1 108 1 view -0
	.cfi_startproc
	@ args = 0, pretend = 0, frame = 0
	@ frame_needed = 0, uses_anonymous_args = 0
	.loc 1 109 2 view .LVU64
	.loc 1 111 2 view .LVU65
.LVL17:
	.loc 1 112 2 view .LVU66
	.loc 1 116 2 view .LVU67
.LBB37:
.LBI37:
	.loc 1 1058 13 view .LVU68
.LBB38:
	.loc 1 1060 2 view .LVU69
	.loc 1 1062 2 view .LVU70
.LBE38:
.LBE37:
	.loc 1 108 1 is_stmt 0 view .LVU71
	push	{r3, lr}
	.cfi_def_cfa_offset 8
	.cfi_offset 3, -8
	.cfi_offset 14, -4
.LBB40:
.LBB39:
	.loc 1 1062 6 view .LVU72
	bl	radio_pkt_empty_get
.LVL18:
	.loc 1 1063 11 view .LVU73
	ldrb	r2, [r0]	@ zero_extendqisi2
	.loc 1 1062 6 view .LVU74
	mov	r3, r0
.LVL19:
	.loc 1 1063 2 is_stmt 1 view .LVU75
	.loc 1 1063 11 is_stmt 0 view .LVU76
	movs	r1, #1
	bfi	r2, r1, #0, #2
	strb	r2, [r3]
.LVL20:
	.loc 1 1063 11 view .LVU77
.LBE39:
.LBE40:
	.loc 1 118 2 is_stmt 1 view .LVU78
	.loc 1 119 1 is_stmt 0 view .LVU79
	movs	r0, #0
	pop	{r3, pc}
	.cfi_endproc
.LFE1045:
	.size	lll_conn_init, .-lll_conn_init
	.section	.text.lll_conn_reset,"ax",%progbits
	.align	1
	.p2align 2,,3
	.global	lll_conn_reset
	.syntax unified
	.thumb
	.thumb_func
	.type	lll_conn_reset, %function
lll_conn_reset:
.LFB1046:
	.loc 1 122 1 is_stmt 1 view -0
	.cfi_startproc
	@ args = 0, pretend = 0, frame = 0
	@ frame_needed = 0, uses_anonymous_args = 0
	@ link register save eliminated.
	.loc 1 123 2 view .LVU81
	.loc 1 125 2 view .LVU82
.LVL21:
	.loc 1 126 2 view .LVU83
	.loc 1 130 2 view .LVU84
	.loc 1 132 2 view .LVU85
	.loc 1 133 1 is_stmt 0 view .LVU86
	movs	r0, #0
	bx	lr
	.cfi_endproc
.LFE1046:
	.size	lll_conn_reset, .-lll_conn_reset
	.section	.text.lll_conn_flush,"ax",%progbits
	.align	1
	.p2align 2,,3
	.global	lll_conn_flush
	.syntax unified
	.thumb
	.thumb_func
	.type	lll_conn_flush, %function
lll_conn_flush:
.LVL22:
.LFB1047:
	.loc 1 136 1 is_stmt 1 view -0
	.cfi_startproc
	@ args = 0, pretend = 0, frame = 0
	@ frame_needed = 0, uses_anonymous_args = 0
	@ link register save eliminated.
	.loc 1 138 1 view .LVU88
	bx	lr
	.cfi_endproc
.LFE1047:
	.size	lll_conn_flush, .-lll_conn_flush
	.section	.text.lll_conn_prepare_reset,"ax",%progbits
	.align	1
	.p2align 2,,3
	.global	lll_conn_prepare_reset
	.syntax unified
	.thumb
	.thumb_func
	.type	lll_conn_prepare_reset, %function
lll_conn_prepare_reset:
.LFB1048:
	.loc 1 141 1 view -0
	.cfi_startproc
	@ args = 0, pretend = 0, frame = 0
	@ frame_needed = 0, uses_anonymous_args = 0
	@ link register save eliminated.
	.loc 1 142 2 view .LVU90
	.loc 1 141 1 is_stmt 0 view .LVU91
	push	{r4}
	.cfi_def_cfa_offset 4
	.cfi_offset 4, -4
	.loc 1 143 12 view .LVU92
	ldr	r0, .L22
	.loc 1 142 10 view .LVU93
	ldr	r4, .L22+4
	.loc 1 144 13 view .LVU94
	ldr	r1, .L22+8
	.loc 1 147 12 view .LVU95
	ldr	r2, .L22+12
	.loc 1 142 10 view .LVU96
	movs	r3, #0
	strh	r3, [r4]	@ movhi
	.loc 1 143 2 is_stmt 1 view .LVU97
	.loc 1 143 12 is_stmt 0 view .LVU98
	strb	r3, [r0]
	.loc 1 144 2 is_stmt 1 view .LVU99
	.loc 1 144 13 is_stmt 0 view .LVU100
	strb	r3, [r1]
	.loc 1 147 2 is_stmt 1 view .LVU101
	.loc 1 147 12 is_stmt 0 view .LVU102
	strb	r3, [r2]
	.loc 1 149 1 view .LVU103
	ldr	r4, [sp], #4
	.cfi_restore 4
	.cfi_def_cfa_offset 0
	bx	lr
.L23:
	.align	2
.L22:
	.word	crc_valid
	.word	trx_cnt
	.word	crc_expire
	.word	mic_state
	.cfi_endproc
.LFE1048:
	.size	lll_conn_prepare_reset, .-lll_conn_prepare_reset
	.section	.rodata.lll_conn_abort_cb.str1.4,"aMS",%progbits,1
	.align	2
.LC3:
	.ascii	"err >= 0\000"
	.section	.text.lll_conn_abort_cb,"ax",%progbits
	.align	1
	.p2align 2,,3
	.global	lll_conn_abort_cb
	.syntax unified
	.thumb
	.thumb_func
	.type	lll_conn_abort_cb, %function
lll_conn_abort_cb:
.LVL23:
.LFB1049:
	.loc 1 152 1 is_stmt 1 view -0
	.cfi_startproc
	@ args = 0, pretend = 0, frame = 0
	@ frame_needed = 0, uses_anonymous_args = 0
	.loc 1 153 2 view .LVU105
	.loc 1 154 2 view .LVU106
	.loc 1 155 2 view .LVU107
	.loc 1 158 2 view .LVU108
	.loc 1 152 1 is_stmt 0 view .LVU109
	push	{r3, r4, r5, lr}
	.cfi_def_cfa_offset 16
	.cfi_offset 3, -16
	.cfi_offset 4, -12
	.cfi_offset 5, -8
	.cfi_offset 14, -4
	.loc 1 158 5 view .LVU110
	cbz	r0, .L29
	.loc 1 171 2 is_stmt 1 view .LVU111
	mov	r5, r1
	mov	r4, r0
	.loc 1 171 8 is_stmt 0 view .LVU112
	bl	lll_hfclock_off
.LVL24:
	.loc 1 172 2 is_stmt 1 view .LVU113
	.loc 1 172 7 view .LVU114
	.loc 1 172 10 is_stmt 0 view .LVU115
	cmp	r0, #0
	blt	.L30
.LVL25:
.L26:
	.loc 1 172 171 is_stmt 1 discriminator 3 view .LVU116
	.loc 1 172 5 discriminator 3 view .LVU117
	.loc 1 175 2 discriminator 3 view .LVU118
	.loc 1 175 6 is_stmt 0 discriminator 3 view .LVU119
	ldr	r2, [r4, #12]
.LVL26:
	.loc 1 176 2 is_stmt 1 discriminator 3 view .LVU120
	.loc 1 176 23 is_stmt 0 discriminator 3 view .LVU121
	ldrh	r3, [r4, #8]
	ldrh	r1, [r2, #18]
	adds	r3, r3, #1
	add	r3, r3, r1
	strh	r3, [r2, #18]	@ movhi
	.loc 1 179 2 is_stmt 1 discriminator 3 view .LVU122
	.loc 1 179 6 is_stmt 0 discriminator 3 view .LVU123
	bl	ull_event_done_extra_get
.LVL27:
	.loc 1 180 2 is_stmt 1 discriminator 3 view .LVU124
	.loc 1 180 7 discriminator 3 view .LVU125
	.loc 1 180 10 is_stmt 0 discriminator 3 view .LVU126
	mov	r4, r0
.LVL28:
	.loc 1 180 10 discriminator 3 view .LVU127
	cbz	r0, .L31
.LVL29:
.L27:
	.loc 1 180 157 is_stmt 1 discriminator 3 view .LVU128
	.loc 1 180 5 discriminator 3 view .LVU129
	.loc 1 182 2 discriminator 3 view .LVU130
	.loc 1 184 15 is_stmt 0 discriminator 3 view .LVU131
	ldrb	r2, [r4, #6]	@ zero_extendqisi2
	.loc 1 183 13 discriminator 3 view .LVU132
	movs	r3, #0
	.loc 1 184 15 discriminator 3 view .LVU133
	bfi	r2, r3, #0, #1
	.loc 1 182 10 discriminator 3 view .LVU134
	movs	r1, #1
	strb	r1, [r4]
	.loc 1 183 2 is_stmt 1 discriminator 3 view .LVU135
	.loc 1 183 13 is_stmt 0 discriminator 3 view .LVU136
	strh	r3, [r4, #4]	@ movhi
	.loc 1 184 2 is_stmt 1 discriminator 3 view .LVU137
	.loc 1 184 15 is_stmt 0 discriminator 3 view .LVU138
	strb	r2, [r4, #6]
	.loc 1 186 2 is_stmt 1 discriminator 3 view .LVU139
	.loc 1 186 15 is_stmt 0 discriminator 3 view .LVU140
	strb	r3, [r4, #8]
	.loc 1 189 2 is_stmt 1 discriminator 3 view .LVU141
	mov	r0, r5
	.loc 1 190 1 is_stmt 0 discriminator 3 view .LVU142
	pop	{r3, r4, r5, lr}
	.cfi_remember_state
	.cfi_restore 14
	.cfi_restore 5
	.cfi_restore 4
	.cfi_restore 3
	.cfi_def_cfa_offset 0
.LVL30:
	.loc 1 189 2 discriminator 3 view .LVU143
	b	lll_done
.LVL31:
.L30:
	.cfi_restore_state
	.loc 1 172 26 is_stmt 1 discriminator 1 view .LVU144
	ldr	r2, .L32
	ldr	r1, .L32+4
	ldr	r0, .L32+8
.LVL32:
	.loc 1 172 26 is_stmt 0 discriminator 1 view .LVU145
	movs	r3, #172
	bl	assert_print
.LVL33:
	.loc 1 172 168 is_stmt 1 discriminator 1 view .LVU146
	.loc 1 172 173 discriminator 1 view .LVU147
	.syntax unified
@ 172 "/home/g/mise-work/zmk-firmware/zmk/zephyr/subsys/bluetooth/controller/ll_sw/nordic/lll/lll_conn.c" 1
	eors.n r0, r0
	msr BASEPRI, r0
	mov r0, #3
	svc #2
	
@ 0 "" 2
	.thumb
	.syntax unified
	b	.L26
.LVL34:
.L29:
	.loc 1 163 3 view .LVU148
	ldr	r0, .L32+12
.LVL35:
	.loc 1 163 3 is_stmt 0 view .LVU149
	bl	radio_isr_set
.LVL36:
	.loc 1 164 3 is_stmt 1 view .LVU150
	.loc 1 190 1 is_stmt 0 view .LVU151
	pop	{r3, r4, r5, lr}
	.cfi_remember_state
	.cfi_restore 14
	.cfi_restore 5
	.cfi_restore 4
	.cfi_restore 3
	.cfi_def_cfa_offset 0
	.loc 1 164 3 view .LVU152
	b	radio_disable
.LVL37:
.L31:
	.cfi_restore_state
	.loc 1 180 19 is_stmt 1 discriminator 1 view .LVU153
	ldr	r2, .L32
	ldr	r1, .L32+16
	ldr	r0, .L32+8
.LVL38:
	.loc 1 180 19 is_stmt 0 discriminator 1 view .LVU154
	movs	r3, #180
	bl	assert_print
.LVL39:
	.loc 1 180 154 is_stmt 1 discriminator 1 view .LVU155
	.loc 1 180 159 discriminator 1 view .LVU156
	.syntax unified
@ 180 "/home/g/mise-work/zmk-firmware/zmk/zephyr/subsys/bluetooth/controller/ll_sw/nordic/lll/lll_conn.c" 1
	eors.n r0, r0
	msr BASEPRI, r0
	mov r0, #3
	svc #2
	
@ 0 "" 2
	.thumb
	.syntax unified
	b	.L27
.L33:
	.align	2
.L32:
	.word	.LC0
	.word	.LC3
	.word	.LC2
	.word	isr_done
	.word	.LC1
	.cfi_endproc
.LFE1049:
	.size	lll_conn_abort_cb, .-lll_conn_abort_cb
	.section	.rodata.lll_conn_rx_pkt_set.str1.4,"aMS",%progbits,1
	.align	2
.LC4:
	.ascii	"node_rx\000"
	.section	.text.lll_conn_rx_pkt_set,"ax",%progbits
	.align	1
	.p2align 2,,3
	.global	lll_conn_rx_pkt_set
	.syntax unified
	.thumb
	.thumb_func
	.type	lll_conn_rx_pkt_set, %function
lll_conn_rx_pkt_set:
.LVL40:
.LFB1052:
	.loc 1 638 1 view -0
	.cfi_startproc
	@ args = 0, pretend = 0, frame = 0
	@ frame_needed = 0, uses_anonymous_args = 0
	.loc 1 639 2 view .LVU158
	.loc 1 640 2 view .LVU159
	.loc 1 641 2 view .LVU160
	.loc 1 643 2 view .LVU161
	.loc 1 638 1 is_stmt 0 view .LVU162
	push	{r3, r4, r5, r6, r7, lr}
	.cfi_def_cfa_offset 24
	.cfi_offset 3, -24
	.cfi_offset 4, -20
	.cfi_offset 5, -16
	.cfi_offset 6, -12
	.cfi_offset 7, -8
	.cfi_offset 14, -4
	.loc 1 638 1 view .LVU163
	mov	r5, r0
	.loc 1 643 12 view .LVU164
	movs	r0, #1
.LVL41:
	.loc 1 643 12 view .LVU165
	bl	ull_pdu_rx_alloc_peek
.LVL42:
	.loc 1 644 2 is_stmt 1 view .LVU166
	.loc 1 644 7 view .LVU167
	.loc 1 644 10 is_stmt 0 view .LVU168
	mov	r4, r0
	cbz	r0, .L38
.LVL43:
.L35:
	.loc 1 644 169 is_stmt 1 discriminator 3 view .LVU169
	.loc 1 644 5 discriminator 3 view .LVU170
	.loc 1 647 2 discriminator 3 view .LVU171
	.loc 1 658 11 is_stmt 0 discriminator 3 view .LVU172
	ldrb	r6, [r5, #91]	@ zero_extendqisi2
	.loc 1 647 16 discriminator 3 view .LVU173
	ldrh	r7, [r5, #78]
	.loc 1 658 6 discriminator 3 view .LVU174
	and	r6, r6, #7
	.loc 1 663 2 discriminator 3 view .LVU175
	movs	r1, #0
.LVL44:
	.loc 1 652 2 is_stmt 1 discriminator 3 view .LVU176
	.loc 1 658 2 discriminator 3 view .LVU177
	.loc 1 663 2 discriminator 3 view .LVU178
	mov	r0, r6
	bl	radio_phy_set
.LVL45:
	.loc 1 665 2 discriminator 3 view .LVU179
	.loc 1 667 9 discriminator 3 view .LVU180
	.loc 1 667 13 is_stmt 0 discriminator 3 view .LVU181
	ldrb	r3, [r5, #114]	@ zero_extendqisi2
	.loc 1 669 43 discriminator 3 view .LVU182
	lsls	r2, r6, #2
	.loc 1 667 12 discriminator 3 view .LVU183
	lsls	r3, r3, #28
	.loc 1 668 3 discriminator 3 view .LVU184
	uxtb	r1, r7
	orr	r2, r2, #1
	.loc 1 682 20 discriminator 3 view .LVU185
	add	r4, r4, #28
.LVL46:
	.loc 1 667 12 discriminator 3 view .LVU186
	bpl	.L36
	.loc 1 668 3 is_stmt 1 view .LVU187
	adds	r1, r1, #4
	uxtb	r1, r1
	movs	r0, #8
	bl	radio_pkt_configure
.LVL47:
	.loc 1 681 3 view .LVU188
	mov	r2, r4
	mov	r1, r6
	add	r0, r5, #115
	bl	radio_ccm_rx_pkt_set
.LVL48:
	.loc 1 692 1 is_stmt 0 view .LVU189
	pop	{r3, r4, r5, r6, r7, lr}
	.cfi_remember_state
	.cfi_restore 14
	.cfi_restore 7
	.cfi_restore 6
	.cfi_restore 5
	.cfi_restore 4
	.cfi_restore 3
	.cfi_def_cfa_offset 0
.LVL49:
	.loc 1 681 3 view .LVU190
	b	radio_pkt_rx_set
.LVL50:
.L36:
	.cfi_restore_state
	.loc 1 686 3 is_stmt 1 view .LVU191
	movs	r0, #8
	bl	radio_pkt_configure
.LVL51:
	.loc 1 690 3 view .LVU192
	mov	r0, r4
	.loc 1 692 1 is_stmt 0 view .LVU193
	pop	{r3, r4, r5, r6, r7, lr}
	.cfi_remember_state
	.cfi_restore 14
	.cfi_restore 7
	.cfi_restore 6
	.cfi_restore 5
	.cfi_restore 4
	.cfi_restore 3
	.cfi_def_cfa_offset 0
.LVL52:
	.loc 1 690 3 view .LVU194
	b	radio_pkt_rx_set
.LVL53:
.L38:
	.cfi_restore_state
	.loc 1 644 25 is_stmt 1 discriminator 1 view .LVU195
	ldr	r2, .L39
	ldr	r1, .L39+4
	ldr	r0, .L39+8
.LVL54:
	.loc 1 644 25 is_stmt 0 discriminator 1 view .LVU196
	mov	r3, #644
	bl	assert_print
.LVL55:
	.loc 1 644 166 is_stmt 1 discriminator 1 view .LVU197
	.loc 1 644 171 discriminator 1 view .LVU198
	.syntax unified
@ 644 "/home/g/mise-work/zmk-firmware/zmk/zephyr/subsys/bluetooth/controller/ll_sw/nordic/lll/lll_conn.c" 1
	eors.n r0, r0
	msr BASEPRI, r0
	mov r0, #3
	svc #2
	
@ 0 "" 2
	.thumb
	.syntax unified
	b	.L35
.L40:
	.align	2
.L39:
	.word	.LC0
	.word	.LC4
	.word	.LC2
	.cfi_endproc
.LFE1052:
	.size	lll_conn_rx_pkt_set, .-lll_conn_rx_pkt_set
	.section	.rodata.lll_conn_isr_tx.str1.4,"aMS",%progbits,1
	.align	2
.LC5:
	.ascii	"!radio_is_ready()\000"
	.section	.text.lll_conn_isr_tx,"ax",%progbits
	.align	1
	.p2align 2,,3
	.global	lll_conn_isr_tx
	.syntax unified
	.thumb
	.thumb_func
	.type	lll_conn_isr_tx, %function
lll_conn_isr_tx:
.LVL56:
.LFB1051:
	.loc 1 492 1 view -0
	.cfi_startproc
	@ args = 0, pretend = 0, frame = 0
	@ frame_needed = 0, uses_anonymous_args = 0
	.loc 1 497 2 view .LVU200
	.loc 1 498 2 view .LVU201
	.loc 1 501 2 view .LVU202
	.loc 1 492 1 is_stmt 0 view .LVU203
	push	{r3, r4, r5, lr}
	.cfi_def_cfa_offset 16
	.cfi_offset 3, -16
	.cfi_offset 4, -12
	.cfi_offset 5, -8
	.cfi_offset 14, -4
	.loc 1 492 1 view .LVU204
	mov	r4, r0
	.loc 1 501 2 view .LVU205
	bl	lll_isr_tx_status_reset
.LVL57:
	.loc 1 504 2 is_stmt 1 view .LVU206
	movs	r0, #150
	bl	radio_tmr_tifs_set
.LVL58:
	.loc 1 506 2 view .LVU207
	.loc 1 560 2 view .LVU208
	.loc 1 560 63 is_stmt 0 view .LVU209
	ldrb	r2, [r4, #90]	@ zero_extendqisi2
	.loc 1 560 34 view .LVU210
	ldrb	r0, [r4, #91]	@ zero_extendqisi2
	.loc 1 560 2 view .LVU211
	ubfx	r3, r2, #3, #1
	and	r0, r0, #7
	and	r2, r2, #7
	movs	r1, #0
	bl	radio_switch_complete_and_tx
.LVL59:
	.loc 1 566 2 is_stmt 1 view .LVU212
	mov	r0, r4
	bl	lll_conn_rx_pkt_set
.LVL60:
	.loc 1 569 2 view .LVU213
	.loc 1 569 7 view .LVU214
	.loc 1 569 14 is_stmt 0 view .LVU215
	bl	radio_is_ready
.LVL61:
	.loc 1 569 10 view .LVU216
	cbnz	r0, .L50
.L42:
	.loc 1 569 189 is_stmt 1 discriminator 3 view .LVU217
	.loc 1 569 5 discriminator 3 view .LVU218
	.loc 1 583 2 discriminator 3 view .LVU219
	.loc 1 583 9 is_stmt 0 discriminator 3 view .LVU220
	bl	radio_tmr_tifs_base_get
.LVL62:
	mov	r5, r0
	.loc 1 589 38 discriminator 3 view .LVU221
	ldrb	r0, [r4, #91]	@ zero_extendqisi2
	.loc 1 589 10 discriminator 3 view .LVU222
	movs	r1, #1
	and	r0, r0, #7
.LVL63:
	.loc 1 589 2 is_stmt 1 discriminator 3 view .LVU223
	.loc 1 589 10 is_stmt 0 discriminator 3 view .LVU224
	bl	radio_rx_chain_delay_get
.LVL64:
	.loc 1 590 25 discriminator 3 view .LVU225
	ldrb	r3, [r4, #91]	@ zero_extendqisi2
	and	r3, r3, #7
	.loc 1 589 7 discriminator 3 view .LVU226
	add	r5, r5, r0
.LVL65:
.LBB41:
.LBB42:
	.loc 2 23 2 discriminator 3 view .LVU227
	cmp	r3, #2
.LBE42:
.LBE41:
	.loc 1 589 7 discriminator 3 view .LVU228
	add	r5, r5, #163
.LVL66:
	.loc 1 590 2 is_stmt 1 discriminator 3 view .LVU229
.LBB45:
.LBI41:
	.loc 2 21 24 discriminator 3 view .LVU230
.LBB43:
	.loc 2 23 2 discriminator 3 view .LVU231
	beq	.L44
	.loc 2 26 10 is_stmt 0 view .LVU232
	cmp	r3, #4
	ite	eq
	moveq	r3, #376
	movne	r3, #40
.L43:
.LVL67:
	.loc 2 26 10 view .LVU233
.LBE43:
.LBE45:
	.loc 1 591 51 view .LVU234
	ldrb	r0, [r4, #90]	@ zero_extendqisi2
	.loc 1 591 10 view .LVU235
	ubfx	r1, r0, #3, #1
	and	r0, r0, #7
	.loc 1 590 7 view .LVU236
	add	r5, r5, r3
.LVL68:
	.loc 1 591 2 is_stmt 1 view .LVU237
	.loc 1 591 10 is_stmt 0 view .LVU238
	bl	radio_tx_chain_delay_get
.LVL69:
	.loc 1 598 2 is_stmt 1 view .LVU239
	subs	r0, r5, r0
.LVL70:
	.loc 1 598 2 is_stmt 0 view .LVU240
	bl	radio_tmr_hcto_configure
.LVL71:
	.loc 1 605 2 is_stmt 1 view .LVU241
	.loc 1 630 2 view .LVU242
	mov	r1, r4
	ldr	r0, .L51
	.loc 1 635 1 is_stmt 0 view .LVU243
	pop	{r3, r4, r5, lr}
	.cfi_remember_state
	.cfi_restore 14
	.cfi_restore 5
	.cfi_restore 4
	.cfi_restore 3
	.cfi_def_cfa_offset 0
.LVL72:
	.loc 1 630 2 view .LVU244
	b	radio_isr_set
.LVL73:
.L44:
	.cfi_restore_state
.LBB46:
.LBB44:
	.loc 2 23 2 view .LVU245
	movs	r3, #24
	b	.L43
.LVL74:
.L50:
	.loc 2 23 2 view .LVU246
.LBE44:
.LBE46:
	.loc 1 569 35 is_stmt 1 discriminator 1 view .LVU247
	ldr	r2, .L51+4
	ldr	r1, .L51+8
	ldr	r0, .L51+12
	movw	r3, #569
	bl	assert_print
.LVL75:
	.loc 1 569 186 discriminator 1 view .LVU248
	.loc 1 569 191 discriminator 1 view .LVU249
	.syntax unified
@ 569 "/home/g/mise-work/zmk-firmware/zmk/zephyr/subsys/bluetooth/controller/ll_sw/nordic/lll/lll_conn.c" 1
	eors.n r0, r0
	msr BASEPRI, r0
	mov r0, #3
	svc #2
	
@ 0 "" 2
	.thumb
	.syntax unified
	b	.L42
.L52:
	.align	2
.L51:
	.word	lll_conn_isr_rx
	.word	.LC0
	.word	.LC5
	.word	.LC2
	.cfi_endproc
.LFE1051:
	.size	lll_conn_isr_tx, .-lll_conn_isr_tx
	.section	.text.lll_conn_tx_pkt_set,"ax",%progbits
	.align	1
	.p2align 2,,3
	.global	lll_conn_tx_pkt_set
	.syntax unified
	.thumb
	.thumb_func
	.type	lll_conn_tx_pkt_set, %function
lll_conn_tx_pkt_set:
.LVL76:
.LFB1053:
	.loc 1 695 1 view -0
	.cfi_startproc
	@ args = 0, pretend = 0, frame = 0
	@ frame_needed = 0, uses_anonymous_args = 0
	.loc 1 696 2 view .LVU251
	.loc 1 697 2 view .LVU252
	.loc 1 700 2 view .LVU253
	.loc 1 695 1 is_stmt 0 view .LVU254
	push	{r3, r4, r5, r6, r7, lr}
	.cfi_def_cfa_offset 24
	.cfi_offset 3, -24
	.cfi_offset 4, -20
	.cfi_offset 5, -16
	.cfi_offset 6, -12
	.cfi_offset 7, -8
	.cfi_offset 14, -4
	.loc 1 695 1 view .LVU255
	mov	r7, r1
	.loc 1 711 11 view .LVU256
	ldrb	r1, [r0, #90]	@ zero_extendqisi2
.LVL77:
	.loc 1 700 16 view .LVU257
	ldrh	r6, [r0, #76]
	.loc 1 711 6 view .LVU258
	and	r4, r1, #7
	.loc 1 695 1 view .LVU259
	mov	r5, r0
.LVL78:
	.loc 1 705 2 is_stmt 1 view .LVU260
	.loc 1 711 2 view .LVU261
	.loc 1 712 2 view .LVU262
	.loc 1 718 2 view .LVU263
	ubfx	r1, r1, #3, #1
.LVL79:
	.loc 1 718 2 is_stmt 0 view .LVU264
	mov	r0, r4
.LVL80:
	.loc 1 718 2 view .LVU265
	bl	radio_phy_set
.LVL81:
	.loc 1 727 3 is_stmt 1 view .LVU266
	.loc 1 733 13 is_stmt 0 view .LVU267
	ldrb	r3, [r5, #114]	@ zero_extendqisi2
	.loc 1 727 49 view .LVU268
	lsls	r2, r4, #2
	.loc 1 733 12 view .LVU269
	lsls	r3, r3, #27
	.loc 1 727 13 view .LVU270
	orr	r2, r2, #1
.LVL82:
	.loc 1 731 2 is_stmt 1 view .LVU271
	.loc 1 733 9 view .LVU272
	.loc 1 734 3 is_stmt 0 view .LVU273
	uxtb	r1, r6
	.loc 1 733 12 view .LVU274
	bpl	.L54
	.loc 1 734 3 is_stmt 1 view .LVU275
	adds	r1, r1, #4
	uxtb	r1, r1
	movs	r0, #8
	bl	radio_pkt_configure
.LVL83:
	.loc 1 737 3 view .LVU276
	mov	r1, r7
	add	r0, r5, #148
	bl	radio_ccm_tx_pkt_set
.LVL84:
	.loc 1 744 1 is_stmt 0 view .LVU277
	pop	{r3, r4, r5, r6, r7, lr}
	.cfi_remember_state
	.cfi_restore 14
	.cfi_restore 7
	.cfi_restore 6
	.cfi_restore 5
	.cfi_restore 4
	.cfi_restore 3
	.cfi_def_cfa_offset 0
.LVL85:
	.loc 1 737 3 view .LVU278
	b	radio_pkt_tx_set
.LVL86:
.L54:
	.cfi_restore_state
	.loc 1 740 3 is_stmt 1 view .LVU279
	movs	r0, #8
	bl	radio_pkt_configure
.LVL87:
	.loc 1 742 3 view .LVU280
	mov	r0, r7
	.loc 1 744 1 is_stmt 0 view .LVU281
	pop	{r3, r4, r5, r6, r7, lr}
	.cfi_restore 14
	.cfi_restore 7
	.cfi_restore 6
	.cfi_restore 5
	.cfi_restore 4
	.cfi_restore 3
	.cfi_def_cfa_offset 0
.LVL88:
	.loc 1 742 3 view .LVU282
	b	radio_pkt_tx_set
.LVL89:
	.loc 1 742 3 view .LVU283
	.cfi_endproc
.LFE1053:
	.size	lll_conn_tx_pkt_set, .-lll_conn_tx_pkt_set
	.section	.text.lll_conn_pdu_tx_prep,"ax",%progbits
	.align	1
	.p2align 2,,3
	.global	lll_conn_pdu_tx_prep
	.syntax unified
	.thumb
	.thumb_func
	.type	lll_conn_pdu_tx_prep, %function
lll_conn_pdu_tx_prep:
.LVL90:
.LFB1054:
	.loc 1 747 1 is_stmt 1 view -0
	.cfi_startproc
	@ args = 0, pretend = 0, frame = 8
	@ frame_needed = 0, uses_anonymous_args = 0
	.loc 1 748 2 view .LVU285
	.loc 1 749 2 view .LVU286
	.loc 1 750 2 view .LVU287
	.loc 1 752 2 view .LVU288
	.loc 1 747 1 is_stmt 0 view .LVU289
	push	{r4, r5, r6, r7, lr}
	.cfi_def_cfa_offset 20
	.cfi_offset 4, -20
	.cfi_offset 5, -16
	.cfi_offset 6, -12
	.cfi_offset 7, -8
	.cfi_offset 14, -4
	mov	r5, r0
	sub	sp, sp, #12
	.cfi_def_cfa_offset 32
	.loc 1 752 9 view .LVU290
	add	r2, sp, #4
	ldr	r0, [r0, #92]
.LVL91:
	.loc 1 747 1 view .LVU291
	mov	r7, r1
	.loc 1 752 9 view .LVU292
	ldr	r1, [r5, #96]
.LVL92:
	.loc 1 752 9 view .LVU293
	bl	memq_peek
.LVL93:
	.loc 1 753 6 view .LVU294
	ldrb	r3, [r5, #114]	@ zero_extendqisi2
	.loc 1 753 5 view .LVU295
	lsls	r2, r3, #29
	.loc 1 752 9 view .LVU296
	mov	r6, r0
.LVL94:
	.loc 1 753 2 is_stmt 1 view .LVU297
	.loc 1 753 5 is_stmt 0 view .LVU298
	bmi	.L57
	.loc 1 753 17 discriminator 1 view .LVU299
	cbz	r0, .L73
.LBB47:
	.loc 1 763 3 is_stmt 1 view .LVU300
	.loc 1 765 3 view .LVU301
	.loc 1 765 16 is_stmt 0 view .LVU302
	ldr	r4, [sp, #4]
	.loc 1 765 29 view .LVU303
	ldrb	r3, [r5, #113]	@ zero_extendqisi2
	.loc 1 767 6 view .LVU304
	ldrb	r2, [r5, #112]	@ zero_extendqisi2
	.loc 1 765 16 view .LVU305
	adds	r4, r4, #4
	.loc 1 765 5 view .LVU306
	add	r4, r4, r3
.LVL95:
	.loc 1 767 3 is_stmt 1 view .LVU307
	.loc 1 767 6 is_stmt 0 view .LVU308
	cbnz	r2, .L61
	.loc 1 768 4 is_stmt 1 view .LVU309
	.loc 1 768 31 is_stmt 0 view .LVU310
	ldrb	r2, [r4, #1]	@ zero_extendqisi2
	.loc 1 768 28 view .LVU311
	strb	r2, [r5, #112]
.L61:
	.loc 1 771 3 is_stmt 1 view .LVU312
	.loc 1 771 6 is_stmt 0 view .LVU313
	cbz	r3, .L62
	.loc 1 772 4 is_stmt 1 view .LVU314
	.loc 1 772 13 is_stmt 0 view .LVU315
	ldrb	r3, [r4]	@ zero_extendqisi2
	movs	r2, #1
	bfi	r3, r2, #0, #2
	strb	r3, [r4]
	.loc 1 785 41 view .LVU316
	ldrb	r3, [r5, #113]	@ zero_extendqisi2
.L62:
	.loc 1 785 3 is_stmt 1 view .LVU317
	.loc 1 785 36 is_stmt 0 view .LVU318
	ldrb	r2, [r5, #112]	@ zero_extendqisi2
	subs	r3, r2, r3
	.loc 1 785 10 view .LVU319
	strb	r3, [r4, #1]
	.loc 1 787 3 is_stmt 1 view .LVU320
	.loc 1 787 19 is_stmt 0 view .LVU321
	mov	r0, r5
.LVL96:
	.loc 1 787 19 view .LVU322
	bl	ull_conn_lll_max_tx_octets_get
.LVL97:
	.loc 1 789 3 is_stmt 1 view .LVU323
	.loc 1 789 6 is_stmt 0 view .LVU324
	ldrb	r3, [r4, #1]	@ zero_extendqisi2
	cmp	r3, r0
	bls	.L63
	.loc 1 792 4 is_stmt 1 view .LVU325
	.loc 1 792 11 is_stmt 0 view .LVU326
	strb	r0, [r4, #1]
	.loc 1 793 4 is_stmt 1 view .LVU327
.L65:
.LBE47:
	.loc 1 747 1 is_stmt 0 view .LVU328
	movs	r1, #1
.L64:
.LBB48:
	.loc 1 801 3 is_stmt 1 view .LVU329
	.loc 1 793 10 is_stmt 0 view .LVU330
	ldrb	r3, [r4]	@ zero_extendqisi2
	and	r3, r3, #15
	.loc 1 807 22 view .LVU331
	movs	r2, #0
	.loc 1 793 10 view .LVU332
	orr	r3, r3, r1, lsl #4
	strb	r3, [r4]
	.loc 1 806 3 is_stmt 1 view .LVU333
	.loc 1 807 4 view .LVU334
	.loc 1 807 22 is_stmt 0 view .LVU335
	strb	r2, [r4, #2]
	.loc 1 807 22 view .LVU336
.LBE48:
	.loc 1 813 2 is_stmt 1 view .LVU337
	.loc 1 813 15 is_stmt 0 view .LVU338
	str	r4, [r7]
	.loc 1 814 1 view .LVU339
	add	sp, sp, #12
	.cfi_remember_state
	.cfi_def_cfa_offset 20
	@ sp needed
	pop	{r4, r5, r6, r7, pc}
.LVL98:
.L73:
	.cfi_restore_state
	.loc 1 754 3 is_stmt 1 view .LVU340
	.loc 1 754 14 is_stmt 0 view .LVU341
	orr	r3, r3, #4
	strb	r3, [r5, #114]
	.loc 1 756 3 is_stmt 1 view .LVU342
	.loc 1 756 7 is_stmt 0 view .LVU343
	bl	radio_pkt_empty_get
.LVL99:
	.loc 1 756 7 view .LVU344
	mov	r4, r0
.LVL100:
	.loc 1 757 3 is_stmt 1 view .LVU345
.L59:
	.loc 1 760 4 view .LVU346
	.loc 1 760 10 is_stmt 0 view .LVU347
	ldrb	r3, [r4]	@ zero_extendqisi2
	bfc	r3, #4, #1
	strb	r3, [r4]
	.loc 1 813 2 is_stmt 1 view .LVU348
	.loc 1 813 15 is_stmt 0 view .LVU349
	str	r4, [r7]
	.loc 1 814 1 view .LVU350
	add	sp, sp, #12
	.cfi_remember_state
	.cfi_def_cfa_offset 20
	@ sp needed
	pop	{r4, r5, r6, r7, pc}
.LVL101:
.L57:
	.cfi_restore_state
	.loc 1 754 3 is_stmt 1 view .LVU351
	.loc 1 754 14 is_stmt 0 view .LVU352
	orr	r3, r3, #4
	strb	r3, [r5, #114]
	.loc 1 756 3 is_stmt 1 view .LVU353
	.loc 1 756 7 is_stmt 0 view .LVU354
	bl	radio_pkt_empty_get
.LVL102:
	.loc 1 756 7 view .LVU355
	mov	r4, r0
.LVL103:
	.loc 1 757 3 is_stmt 1 view .LVU356
	.loc 1 757 6 is_stmt 0 view .LVU357
	cmp	r6, #0
	beq	.L59
	.loc 1 758 4 is_stmt 1 view .LVU358
	.loc 1 758 10 is_stmt 0 view .LVU359
	ldrb	r3, [r0]	@ zero_extendqisi2
	orr	r3, r3, #16
	strb	r3, [r0]
	.loc 1 813 2 is_stmt 1 view .LVU360
	.loc 1 813 15 is_stmt 0 view .LVU361
	str	r4, [r7]
	.loc 1 814 1 view .LVU362
	add	sp, sp, #12
	.cfi_remember_state
	.cfi_def_cfa_offset 20
	@ sp needed
	pop	{r4, r5, r6, r7, pc}
.LVL104:
.L63:
	.cfi_restore_state
.LBB49:
	.loc 1 794 10 is_stmt 1 view .LVU363
	.loc 1 794 13 is_stmt 0 view .LVU364
	ldr	r2, [r6]
	ldr	r3, [r5, #96]
	cmp	r2, r3
	bne	.L65
	movs	r1, #0
	b	.L64
.LBE49:
	.cfi_endproc
.LFE1054:
	.size	lll_conn_pdu_tx_prep, .-lll_conn_pdu_tx_prep
	.section	.rodata.lll_conn_isr_rx.str1.4,"aMS",%progbits,1
	.align	2
.LC6:
	.ascii	"0\000"
	.align	2
.LC7:
	.ascii	"done\000"
	.align	2
.LC8:
	.ascii	"lll->handle != 0xFFFF\000"
	.section	.text.lll_conn_isr_rx,"ax",%progbits
	.align	1
	.p2align 2,,3
	.global	lll_conn_isr_rx
	.syntax unified
	.thumb
	.thumb_func
	.type	lll_conn_isr_rx, %function
lll_conn_isr_rx:
.LVL105:
.LFB1050:
	.loc 1 193 1 is_stmt 1 view -0
	.cfi_startproc
	@ args = 0, pretend = 0, frame = 8
	@ frame_needed = 0, uses_anonymous_args = 0
	.loc 1 194 2 view .LVU366
	.loc 1 195 2 view .LVU367
	.loc 1 196 2 view .LVU368
	.loc 1 197 2 view .LVU369
	.loc 1 198 2 view .LVU370
	.loc 1 202 2 view .LVU371
	.loc 1 203 2 view .LVU372
	.loc 1 204 2 view .LVU373
	.loc 1 205 1 view .LVU374
	.loc 1 206 2 view .LVU375
	.loc 1 207 2 view .LVU376
	.loc 1 208 2 view .LVU377
	.loc 1 209 2 view .LVU378
	.loc 1 210 2 view .LVU379
	.loc 1 215 2 view .LVU380
	.loc 1 220 2 view .LVU381
	.loc 1 193 1 is_stmt 0 view .LVU382
	push	{r4, r5, r6, r7, r8, lr}
	.cfi_def_cfa_offset 24
	.cfi_offset 4, -24
	.cfi_offset 5, -20
	.cfi_offset 6, -16
	.cfi_offset 7, -12
	.cfi_offset 8, -8
	.cfi_offset 14, -4
	sub	sp, sp, #8
	.cfi_def_cfa_offset 32
	.loc 1 193 1 view .LVU383
	mov	r4, r0
	.loc 1 220 13 view .LVU384
	bl	radio_is_done
.LVL106:
	.loc 1 221 2 is_stmt 1 view .LVU385
	.loc 1 221 5 is_stmt 0 view .LVU386
	uxtb	r0, r0
	.loc 1 221 5 view .LVU387
	cbnz	r0, .L148
.LVL107:
	.loc 1 236 2 is_stmt 1 view .LVU388
	bl	lll_isr_rx_status_reset
.LVL108:
	.loc 1 239 2 view .LVU389
	.loc 1 240 3 view .LVU390
	ldr	r0, .L162
	mov	r1, r4
	bl	radio_isr_set
.LVL109:
	.loc 1 241 3 view .LVU391
	.loc 1 489 1 is_stmt 0 view .LVU392
	add	sp, sp, #8
	.cfi_remember_state
	.cfi_def_cfa_offset 24
	@ sp needed
	pop	{r4, r5, r6, r7, r8, lr}
	.cfi_restore 14
	.cfi_restore 8
	.cfi_restore 7
	.cfi_restore 6
	.cfi_restore 5
	.cfi_restore 4
	.cfi_def_cfa_offset 0
.LVL110:
	.loc 1 241 3 view .LVU393
	b	radio_disable
.LVL111:
.L148:
	.cfi_restore_state
	.loc 1 222 3 is_stmt 1 view .LVU394
	.loc 1 222 12 is_stmt 0 view .LVU395
	bl	radio_crc_is_valid
.LVL112:
	.loc 1 222 10 view .LVU396
	uxtb	r5, r0
.LVL113:
	.loc 1 223 3 is_stmt 1 view .LVU397
	.loc 1 223 16 is_stmt 0 view .LVU398
	bl	radio_rssi_is_ready
.LVL114:
	.loc 1 236 2 is_stmt 1 view .LVU399
	bl	lll_isr_rx_status_reset
.LVL115:
	.loc 1 239 2 view .LVU400
	.loc 1 246 2 view .LVU401
	.loc 1 246 9 is_stmt 0 view .LVU402
	ldr	r2, .L162+4
	ldrh	r3, [r2]
	.loc 1 254 12 view .LVU403
	movs	r0, #1
	.loc 1 246 9 view .LVU404
	add	r3, r3, r0
	strh	r3, [r2]	@ movhi
	.loc 1 248 2 is_stmt 1 view .LVU405
.LVL116:
	.loc 1 249 2 view .LVU406
	.loc 1 250 2 view .LVU407
	.loc 1 252 2 view .LVU408
	.loc 1 254 2 view .LVU409
	.loc 1 254 12 is_stmt 0 view .LVU410
	bl	ull_pdu_rx_alloc_peek
.LVL117:
	.loc 1 255 2 is_stmt 1 view .LVU411
	.loc 1 255 7 view .LVU412
	.loc 1 255 10 is_stmt 0 view .LVU413
	mov	r8, r0
	cmp	r0, #0
	beq	.L149
	.loc 1 255 169 is_stmt 1 discriminator 3 view .LVU414
	.loc 1 255 5 discriminator 3 view .LVU415
	.loc 1 257 2 discriminator 3 view .LVU416
.LVL118:
	.loc 1 259 2 discriminator 3 view .LVU417
	.loc 1 259 5 is_stmt 0 discriminator 3 view .LVU418
	cmp	r5, #0
	bne	.L150
.LVL119:
.L78:
	.loc 1 284 3 is_stmt 1 view .LVU419
	.loc 1 284 18 is_stmt 0 view .LVU420
	ldr	r3, .L162+8
	ldrb	r6, [r3]	@ zero_extendqisi2
	.loc 1 284 6 view .LVU421
	cmp	r6, #0
	bne	.L104
	.loc 1 285 4 is_stmt 1 view .LVU422
	.loc 1 289 3 view .LVU423
	.loc 1 289 13 is_stmt 0 view .LVU424
	movs	r2, #1
	.loc 1 309 2 view .LVU425
	add	r1, sp, #4
	mov	r0, r4
	.loc 1 289 13 view .LVU426
	strb	r2, [r3]
	.loc 1 290 3 is_stmt 1 view .LVU427
	.loc 1 308 2 view .LVU428
.LVL120:
	.loc 1 309 2 view .LVU429
	bl	lll_conn_pdu_tx_prep
.LVL121:
	.loc 1 322 3 view .LVU430
	.loc 1 326 2 view .LVU431
.L105:
	.loc 1 371 13 is_stmt 0 view .LVU432
	movs	r6, #0
	ldr	r7, [sp, #4]
	mov	r5, r6
.LVL122:
.L107:
	.loc 1 356 3 is_stmt 1 view .LVU433
	movs	r0, #150
	bl	radio_tmr_tifs_set
.LVL123:
	.loc 1 359 3 view .LVU434
	.loc 1 359 35 is_stmt 0 view .LVU435
	ldrb	r0, [r4, #91]	@ zero_extendqisi2
	.loc 1 359 3 view .LVU436
	and	r0, r0, #7
	bl	radio_switch_complete_and_rx
.LVL124:
	.loc 1 364 3 is_stmt 1 view .LVU437
	ldr	r0, .L162+12
	mov	r1, r4
	bl	radio_isr_set
.LVL125:
	.loc 1 367 3 view .LVU438
	bl	radio_tmr_end_capture
.LVL126:
.L108:
	.loc 1 371 2 view .LVU439
	.loc 1 371 23 is_stmt 0 view .LVU440
	ldrb	r2, [r4, #114]	@ zero_extendqisi2
	.loc 1 371 18 view .LVU441
	ldrb	r3, [r7]	@ zero_extendqisi2
	bfi	r3, r2, #3, #1
	strb	r3, [r7]
	.loc 1 372 2 is_stmt 1 view .LVU442
	.loc 1 372 25 is_stmt 0 view .LVU443
	ldrb	r3, [r4, #114]	@ zero_extendqisi2
	.loc 1 372 20 view .LVU444
	ldrb	r2, [r7]	@ zero_extendqisi2
	.loc 1 372 25 view .LVU445
	ubfx	r3, r3, #1, #1
	.loc 1 372 20 view .LVU446
	bfi	r2, r3, #2, #1
	strb	r2, [r7]
	.loc 1 375 2 is_stmt 1 view .LVU447
	mov	r1, r7
	mov	r0, r4
	bl	lll_conn_tx_pkt_set
.LVL127:
	.loc 1 399 2 view .LVU448
	.loc 1 399 7 view .LVU449
	.loc 1 399 14 is_stmt 0 view .LVU450
	bl	radio_is_ready
.LVL128:
	.loc 1 399 10 view .LVU451
	cmp	r0, #0
	bne	.L151
.L109:
.LVL129:
	.loc 1 399 189 is_stmt 1 discriminator 3 view .LVU452
	.loc 1 399 5 discriminator 3 view .LVU453
	.loc 1 403 2 discriminator 3 view .LVU454
	.loc 1 403 7 is_stmt 0 discriminator 3 view .LVU455
	bl	radio_tmr_aa_restore
.LVL130:
	.loc 1 403 5 discriminator 3 view .LVU456
	cmp	r0, #0
	beq	.L152
	.loc 1 411 2 is_stmt 1 view .LVU457
.LVL131:
	.loc 1 413 2 view .LVU458
	.loc 1 413 5 is_stmt 0 view .LVU459
	cmp	r5, #0
	beq	.L111
.L155:
	.loc 1 414 3 is_stmt 1 view .LVU460
	.loc 1 414 8 view .LVU461
	.loc 1 414 17 is_stmt 0 view .LVU462
	ldrh	r0, [r4, #12]
	.loc 1 414 11 view .LVU463
	movw	r3, #65535
	cmp	r0, r3
	beq	.L116
.LVL132:
.L112:
	.loc 1 414 198 is_stmt 1 discriminator 3 view .LVU464
	.loc 1 414 6 discriminator 3 view .LVU465
	.loc 1 416 3 discriminator 3 view .LVU466
	mov	r1, r5
	bl	ull_conn_lll_ack_enqueue
.LVL133:
	.loc 1 418 3 discriminator 3 view .LVU467
	.loc 1 421 2 discriminator 3 view .LVU468
	.loc 1 421 5 is_stmt 0 discriminator 3 view .LVU469
	cmp	r6, #0
	bne	.L114
.L113:
.LVL134:
	.loc 1 461 3 is_stmt 1 view .LVU470
	.loc 1 489 1 is_stmt 0 view .LVU471
	add	sp, sp, #8
	.cfi_remember_state
	.cfi_def_cfa_offset 24
	@ sp needed
	pop	{r4, r5, r6, r7, r8, lr}
	.cfi_restore 14
	.cfi_restore 8
	.cfi_restore 7
	.cfi_restore 6
	.cfi_restore 5
	.cfi_restore 4
	.cfi_def_cfa_offset 0
.LVL135:
	.loc 1 461 3 view .LVU472
	b	ull_rx_sched
.LVL136:
.L150:
	.cfi_restore_state
.LBB65:
	.loc 1 260 3 is_stmt 1 view .LVU473
	.loc 1 262 3 view .LVU474
.LBB66:
.LBI66:
	.loc 1 888 19 view .LVU475
.LBB67:
	.loc 1 909 2 view .LVU476
	.loc 1 909 30 is_stmt 0 view .LVU477
	ldrb	r3, [r4, #114]	@ zero_extendqisi2
	.loc 1 909 17 view .LVU478
	ldrb	r2, [r8, #28]	@ zero_extendqisi2
	.loc 1 909 30 view .LVU479
	and	r1, r3, #1
	.loc 1 909 5 view .LVU480
	ubfx	r0, r2, #2, #1
	cmp	r0, r1
	beq	.L119
.LBB68:
	.loc 1 910 3 is_stmt 1 view .LVU481
	.loc 1 911 3 view .LVU482
	.loc 1 912 3 view .LVU483
	.loc 1 915 3 view .LVU484
	.loc 1 921 6 is_stmt 0 view .LVU485
	ldrsb	r2, [r4, #29]
	.loc 1 915 10 view .LVU486
	eor	r1, r1, #1
	bfi	r3, r1, #0, #1
	.loc 1 921 6 view .LVU487
	cmp	r2, #0
	.loc 1 915 10 view .LVU488
	strb	r3, [r4, #114]
	.loc 1 921 3 is_stmt 1 view .LVU489
	.loc 1 921 6 is_stmt 0 view .LVU490
	bge	.L80
	.loc 1 922 4 is_stmt 1 view .LVU491
	.loc 1 922 32 is_stmt 0 view .LVU492
	ldrb	r3, [r4, #32]	@ zero_extendqisi2
	orr	r3, r3, #4
	strb	r3, [r4, #32]
.L80:
	.loc 1 926 3 is_stmt 1 view .LVU493
	.loc 1 928 3 view .LVU494
	.loc 1 928 7 is_stmt 0 view .LVU495
	ldrb	r3, [r4, #114]	@ zero_extendqisi2
	.loc 1 928 6 view .LVU496
	lsls	r5, r3, #29
.LVL137:
	.loc 1 928 6 view .LVU497
	bmi	.L81
	.loc 1 929 4 is_stmt 1 view .LVU498
	.loc 1 929 11 is_stmt 0 view .LVU499
	ldrd	r0, r1, [r4, #92]
	add	r2, sp, #4
	bl	memq_peek
.LVL138:
	.loc 1 943 3 is_stmt 1 view .LVU500
	.loc 1 943 6 is_stmt 0 view .LVU501
	mov	r5, r0
	cmp	r0, #0
	beq	.L84
.LBB69:
	.loc 1 944 4 is_stmt 1 view .LVU502
	.loc 1 945 4 view .LVU503
	.loc 1 947 4 view .LVU504
	.loc 1 948 16 is_stmt 0 view .LVU505
	ldrb	r2, [r4, #113]	@ zero_extendqisi2
.LVL139:
	.loc 1 950 4 is_stmt 1 view .LVU506
	.loc 1 950 20 is_stmt 0 view .LVU507
	ldr	r3, [sp, #4]
	add	r3, r3, r2
	ldrb	r1, [r3, #5]	@ zero_extendqisi2
.LVL140:
	.loc 1 952 4 is_stmt 1 view .LVU508
	.loc 1 952 7 is_stmt 0 view .LVU509
	cbz	r1, .L85
	.loc 1 954 5 is_stmt 1 view .LVU510
	.loc 1 954 9 is_stmt 0 view .LVU511
	ldrb	r3, [r4, #114]	@ zero_extendqisi2
	.loc 1 954 8 view .LVU512
	lsls	r0, r3, #27
.LVL141:
	.loc 1 954 8 view .LVU513
	bpl	.L85
	.loc 1 955 6 is_stmt 1 view .LVU514
	.loc 1 955 17 is_stmt 0 view .LVU515
	ldr	r3, [r4, #164]
	.loc 1 955 25 view .LVU516
	adds	r3, r3, #1
	str	r3, [r4, #164]
	.loc 1 955 17 view .LVU517
	ldr	r3, [r4, #168]
	.loc 1 955 25 view .LVU518
	adc	r3, r3, #0
	str	r3, [r4, #168]
.L85:
	.loc 1 960 4 is_stmt 1 view .LVU519
	.loc 1 961 20 is_stmt 0 view .LVU520
	ldrb	r3, [r4, #112]	@ zero_extendqisi2
	.loc 1 960 11 view .LVU521
	add	r2, r2, r1
.LVL142:
	.loc 1 960 11 view .LVU522
	uxtb	r2, r2
.LVL143:
	.loc 1 961 4 is_stmt 1 view .LVU523
	.loc 1 961 7 is_stmt 0 view .LVU524
	cmp	r2, r3
	bcc	.L153
	.loc 1 963 11 is_stmt 1 view .LVU525
	.loc 1 963 14 is_stmt 0 view .LVU526
	beq	.L154
	.loc 1 980 5 is_stmt 1 view .LVU527
	.loc 1 980 10 view .LVU528
	.loc 1 980 22 view .LVU529
	ldr	r2, .L162+16
.LVL144:
	.loc 1 980 22 is_stmt 0 view .LVU530
	ldr	r1, .L162+20
.LVL145:
	.loc 1 980 22 view .LVU531
	ldr	r0, .L162+24
	mov	r3, #980
	bl	assert_print
.LVL146:
	.loc 1 980 157 is_stmt 1 view .LVU532
	.loc 1 980 162 view .LVU533
	.syntax unified
@ 980 "/home/g/mise-work/zmk-firmware/zmk/zephyr/subsys/bluetooth/controller/ll_sw/nordic/lll/lll_conn.c" 1
	eors.n r0, r0
	msr BASEPRI, r0
	mov r0, #3
	svc #2
	
@ 0 "" 2
	.thumb
	.syntax unified
	b	.L84
.LVL147:
.L152:
	.loc 1 980 162 is_stmt 0 view .LVU534
.LBE69:
.LBE68:
.LBE67:
.LBE66:
.LBE65:
	.loc 1 404 3 is_stmt 1 view .LVU535
	bl	radio_tmr_aa_get
.LVL148:
	bl	radio_tmr_aa_save
.LVL149:
	.loc 1 411 2 view .LVU536
	.loc 1 413 2 view .LVU537
	.loc 1 413 5 is_stmt 0 view .LVU538
	cmp	r5, #0
	bne	.L155
.L111:
	.loc 1 421 2 is_stmt 1 view .LVU539
	.loc 1 421 5 is_stmt 0 view .LVU540
	cbnz	r6, .L114
.LVL150:
.L74:
	.loc 1 489 1 view .LVU541
	add	sp, sp, #8
	.cfi_remember_state
	.cfi_def_cfa_offset 24
	@ sp needed
	pop	{r4, r5, r6, r7, r8, pc}
.LVL151:
.L104:
	.cfi_restore_state
	.loc 1 289 3 is_stmt 1 view .LVU542
	.loc 1 289 13 is_stmt 0 view .LVU543
	subs	r6, r6, #1
	uxtb	r6, r6
	.loc 1 309 2 view .LVU544
	add	r1, sp, #4
	mov	r0, r4
	.loc 1 289 13 view .LVU545
	strb	r6, [r3]
	.loc 1 290 3 is_stmt 1 view .LVU546
.LVL152:
	.loc 1 308 2 view .LVU547
	.loc 1 309 2 view .LVU548
	bl	lll_conn_pdu_tx_prep
.LVL153:
	.loc 1 322 3 view .LVU549
	.loc 1 326 2 view .LVU550
	.loc 1 326 20 is_stmt 0 view .LVU551
	cmp	r6, #0
	bne	.L105
	.loc 1 371 13 view .LVU552
	ldr	r7, [sp, #4]
.LVL154:
.L106:
	.loc 1 330 2 is_stmt 1 view .LVU553
	.loc 1 331 3 view .LVU554
	ldr	r0, .L162
	mov	r1, r4
	bl	radio_isr_set
.LVL155:
	.loc 1 333 3 view .LVU555
	.loc 1 352 4 view .LVU556
	bl	radio_switch_complete_and_disable
.LVL156:
	b	.L108
.LVL157:
.L114:
	.loc 1 438 3 view .LVU557
	bl	ull_pdu_rx_alloc
.LVL158:
	.loc 1 440 3 view .LVU558
	.loc 1 440 21 is_stmt 0 view .LVU559
	movs	r3, #3
	strb	r3, [r8, #4]
	.loc 1 441 3 is_stmt 1 view .LVU560
	.loc 1 441 28 is_stmt 0 view .LVU561
	ldrh	r3, [r4, #12]
	.loc 1 443 3 view .LVU562
	ldr	r0, [r8]
	.loc 1 441 23 view .LVU563
	strh	r3, [r8, #6]	@ movhi
	.loc 1 443 3 is_stmt 1 view .LVU564
	mov	r1, r8
	bl	ull_rx_put
.LVL159:
	.loc 1 444 3 view .LVU565
	.loc 1 455 2 view .LVU566
	.loc 1 457 3 view .LVU567
	.loc 1 460 2 view .LVU568
	.loc 1 461 3 view .LVU569
	.loc 1 489 1 is_stmt 0 view .LVU570
	add	sp, sp, #8
	.cfi_remember_state
	.cfi_def_cfa_offset 24
	@ sp needed
	pop	{r4, r5, r6, r7, r8, lr}
	.cfi_restore 14
	.cfi_restore 8
	.cfi_restore 7
	.cfi_restore 6
	.cfi_restore 5
	.cfi_restore 4
	.cfi_def_cfa_offset 0
.LVL160:
	.loc 1 461 3 view .LVU571
	b	ull_rx_sched
.LVL161:
.L151:
	.cfi_restore_state
	.loc 1 399 35 is_stmt 1 discriminator 1 view .LVU572
	ldr	r2, .L162+16
	ldr	r1, .L162+28
	ldr	r0, .L162+24
	movw	r3, #399
	bl	assert_print
.LVL162:
	.loc 1 399 186 discriminator 1 view .LVU573
	.loc 1 399 191 discriminator 1 view .LVU574
	.syntax unified
@ 399 "/home/g/mise-work/zmk-firmware/zmk/zephyr/subsys/bluetooth/controller/ll_sw/nordic/lll/lll_conn.c" 1
	eors.n r0, r0
	msr BASEPRI, r0
	mov r0, #3
	svc #2
	
@ 0 "" 2
	.thumb
	.syntax unified
	b	.L109
.LVL163:
.L149:
	.loc 1 255 25 discriminator 1 view .LVU575
	ldr	r2, .L162+16
	ldr	r1, .L162+32
	ldr	r0, .L162+24
.LVL164:
	.loc 1 255 25 is_stmt 0 discriminator 1 view .LVU576
	movs	r3, #255
	bl	assert_print
.LVL165:
	.loc 1 255 166 is_stmt 1 discriminator 1 view .LVU577
	.loc 1 255 171 discriminator 1 view .LVU578
	.syntax unified
@ 255 "/home/g/mise-work/zmk-firmware/zmk/zephyr/subsys/bluetooth/controller/ll_sw/nordic/lll/lll_conn.c" 1
	eors.n r0, r0
	msr BASEPRI, r0
	mov r0, #3
	svc #2
	
@ 0 "" 2
	.loc 1 255 169 discriminator 1 view .LVU579
	.loc 1 255 5 discriminator 1 view .LVU580
	.loc 1 257 2 discriminator 1 view .LVU581
.LVL166:
	.loc 1 259 2 discriminator 1 view .LVU582
	.loc 1 259 5 is_stmt 0 discriminator 1 view .LVU583
	.thumb
	.syntax unified
	cmp	r5, #0
	beq	.L78
	b	.L150
.LVL167:
.L119:
	.loc 1 249 13 view .LVU584
	movs	r5, #0
.LVL168:
.L79:
.LBB100:
.LBB93:
.LBB86:
	.loc 1 991 2 is_stmt 1 view .LVU585
	.loc 1 991 5 is_stmt 0 view .LVU586
	ubfx	r2, r2, #3, #1
	ubfx	r3, r3, #1, #1
	cmp	r2, r3
	beq	.L156
.L88:
.LBE86:
.LBE93:
.LBE100:
	.loc 1 250 16 view .LVU587
	movs	r6, #0
.LVL169:
.L90:
.LBB101:
	.loc 1 278 3 is_stmt 1 view .LVU588
	.loc 1 278 14 is_stmt 0 view .LVU589
	ldr	r2, .L162+8
	.loc 1 281 13 view .LVU590
	ldr	r3, .L162+36
	.loc 1 278 14 view .LVU591
	movs	r1, #0
	strb	r1, [r2]
	.loc 1 281 3 is_stmt 1 view .LVU592
.LBE101:
	.loc 1 309 2 is_stmt 0 view .LVU593
	mov	r0, r4
.LBB102:
	.loc 1 281 13 view .LVU594
	movs	r2, #1
.LBE102:
	.loc 1 309 2 view .LVU595
	add	r1, sp, #4
.LBB103:
	.loc 1 281 13 view .LVU596
	strb	r2, [r3]
.LVL170:
	.loc 1 281 13 view .LVU597
.LBE103:
	.loc 1 308 2 is_stmt 1 view .LVU598
	.loc 1 309 2 view .LVU599
	bl	lll_conn_pdu_tx_prep
.LVL171:
	.loc 1 322 3 view .LVU600
	.loc 1 326 2 view .LVU601
	.loc 1 326 53 is_stmt 0 view .LVU602
	ldrb	r3, [r8, #28]	@ zero_extendqisi2
	.loc 1 326 33 view .LVU603
	lsls	r2, r3, #27
	bmi	.L157
	.loc 1 327 22 discriminator 5 view .LVU604
	ldr	r7, [sp, #4]
	.loc 1 327 27 discriminator 5 view .LVU605
	ldrb	r3, [r7]	@ zero_extendqisi2
	.loc 1 326 59 discriminator 5 view .LVU606
	lsls	r3, r3, #27
	bmi	.L107
	.loc 1 327 33 view .LVU607
	ldrb	r3, [r7, #1]	@ zero_extendqisi2
	cmp	r3, #0
	bne	.L107
	b	.L106
.LVL172:
.L161:
	.loc 1 371 13 view .LVU608
	movs	r6, #0
.LVL173:
.L116:
	.loc 1 414 40 is_stmt 1 discriminator 1 view .LVU609
	ldr	r2, .L162+16
	ldr	r1, .L162+40
	ldr	r0, .L162+24
	mov	r3, #414
	bl	assert_print
.LVL174:
	.loc 1 414 195 discriminator 1 view .LVU610
	.loc 1 414 200 discriminator 1 view .LVU611
	.syntax unified
@ 414 "/home/g/mise-work/zmk-firmware/zmk/zephyr/subsys/bluetooth/controller/ll_sw/nordic/lll/lll_conn.c" 1
	eors.n r0, r0
	msr BASEPRI, r0
	mov r0, #3
	svc #2
	
@ 0 "" 2
	.loc 1 416 3 is_stmt 0 discriminator 1 view .LVU612
	.thumb
	.syntax unified
	ldrh	r0, [r4, #12]
	b	.L112
.LVL175:
.L157:
	.loc 1 327 22 view .LVU613
	ldr	r7, [sp, #4]
	b	.L107
.LVL176:
.L81:
.LBB104:
.LBB94:
.LBB87:
.LBB72:
	.loc 1 932 4 is_stmt 1 view .LVU614
	.loc 1 932 15 is_stmt 0 view .LVU615
	bfc	r3, #2, #1
	strb	r3, [r4, #114]
	.loc 1 934 4 is_stmt 1 view .LVU616
	.loc 1 934 18 is_stmt 0 view .LVU617
	bl	radio_pkt_empty_get
.LVL177:
	.loc 1 935 4 is_stmt 1 view .LVU618
	.loc 1 940 4 view .LVU619
	.loc 1 943 3 view .LVU620
.L84:
	.loc 1 943 3 is_stmt 0 view .LVU621
	ldrb	r3, [r4, #114]	@ zero_extendqisi2
	ldrb	r2, [r8, #28]	@ zero_extendqisi2
.LBE72:
.LBE87:
.LBE94:
.LBE104:
	.loc 1 249 13 view .LVU622
	movs	r5, #0
	b	.L79
.LVL178:
.L153:
.LBB105:
.LBB95:
.LBB88:
.LBB73:
.LBB70:
	.loc 1 962 5 is_stmt 1 view .LVU623
	.loc 1 962 32 is_stmt 0 view .LVU624
	strb	r2, [r4, #113]
.LVL179:
	.loc 1 962 32 view .LVU625
	b	.L84
.LVL180:
.L156:
	.loc 1 962 32 view .LVU626
.LBE70:
.LBE73:
	.loc 1 995 7 view .LVU627
	movs	r0, #3
	bl	ull_pdu_rx_alloc_peek
.LVL181:
	.loc 1 991 37 view .LVU628
	cmp	r0, #0
	beq	.L88
	.loc 1 997 3 is_stmt 1 view .LVU629
	.loc 1 997 12 is_stmt 0 view .LVU630
	ldrb	r3, [r4, #114]	@ zero_extendqisi2
	eor	r3, r3, #2
	strb	r3, [r4, #114]
	.loc 1 999 3 is_stmt 1 view .LVU631
	.loc 1 999 6 is_stmt 0 view .LVU632
	ldrb	r3, [r8, #29]	@ zero_extendqisi2
	cmp	r3, #0
	beq	.L88
	.loc 1 1003 4 is_stmt 1 view .LVU633
	.loc 1 1003 8 is_stmt 0 view .LVU634
	ldrb	r3, [r4, #114]	@ zero_extendqisi2
	.loc 1 1003 7 view .LVU635
	lsls	r1, r3, #28
	bmi	.L89
.LVL182:
.L100:
	.loc 1 1051 19 view .LVU636
	movs	r6, #1
	b	.L90
.LVL183:
.L154:
.LBB74:
.LBB71:
	.loc 1 964 5 is_stmt 1 view .LVU637
	.loc 1 965 5 view .LVU638
	.loc 1 964 29 is_stmt 0 view .LVU639
	movs	r2, #0
.LVL184:
	.loc 1 964 29 view .LVU640
	strh	r2, [r4, #112]	@ movhi
.LVL185:
	.loc 1 967 5 is_stmt 1 view .LVU641
	ldr	r0, [r4, #96]
	add	r1, r4, #92
.LVL186:
	.loc 1 967 5 is_stmt 0 view .LVU642
	bl	memq_dequeue
.LVL187:
	.loc 1 971 5 is_stmt 1 view .LVU643
	.loc 1 971 20 is_stmt 0 view .LVU644
	ldr	r3, [sp, #4]
	ldr	r3, [r3]
	.loc 1 971 16 view .LVU645
	str	r3, [r5]
	.loc 1 974 5 is_stmt 1 view .LVU646
	.loc 1 974 7 is_stmt 0 view .LVU647
	ldr	r3, [sp, #4]
	.loc 1 974 14 view .LVU648
	str	r5, [r3]
	.loc 1 976 5 is_stmt 1 view .LVU649
	.loc 1 976 17 is_stmt 0 view .LVU650
	ldr	r5, [sp, #4]
.LVL188:
	.loc 1 978 5 is_stmt 1 view .LVU651
	ldrb	r3, [r4, #114]	@ zero_extendqisi2
.LVL189:
	.loc 1 978 5 is_stmt 0 view .LVU652
	ldrb	r2, [r8, #28]	@ zero_extendqisi2
	b	.L79
.L163:
	.align	2
.L162:
	.word	isr_done
	.word	trx_cnt
	.word	crc_expire
	.word	lll_conn_isr_tx
	.word	.LC0
	.word	.LC6
	.word	.LC2
	.word	.LC5
	.word	.LC4
	.word	crc_valid
	.word	.LC8
.LVL190:
.L89:
	.loc 1 978 5 view .LVU653
.LBE71:
.LBE74:
.LBB75:
	.loc 1 1004 5 is_stmt 1 view .LVU654
	.loc 1 1006 5 view .LVU655
	.loc 1 1006 12 is_stmt 0 view .LVU656
	bl	radio_ccm_is_done
.LVL191:
	.loc 1 1007 5 is_stmt 1 view .LVU657
	.loc 1 1007 10 view .LVU658
	.loc 1 1007 13 is_stmt 0 view .LVU659
	cmp	r0, #0
	beq	.L158
.LVL192:
.L91:
	.loc 1 1007 167 is_stmt 1 view .LVU660
	.loc 1 1007 8 view .LVU661
	.loc 1 1009 4 view .LVU662
	.loc 1 1009 24 is_stmt 0 view .LVU663
	bl	radio_ccm_mic_is_valid
.LVL193:
	.loc 1 1011 5 is_stmt 1 view .LVU664
	.loc 1 1011 8 is_stmt 0 view .LVU665
	cmp	r0, #0
	bne	.L143
	.loc 1 1012 20 view .LVU666
	ldr	r3, [r4, #131]	@ unaligned
	ldr	r2, [r4, #135]	@ unaligned
	.loc 1 1011 21 view .LVU667
	orrs	r3, r3, r2
	bne	.L93
	.loc 1 1013 29 view .LVU668
	ldrb	r3, [r8, #28]	@ zero_extendqisi2
	.loc 1 1012 34 view .LVU669
	and	r3, r3, #3
	cmp	r3, #3
	beq	.L159
.LVL194:
.L93:
	.loc 1 1037 6 is_stmt 1 view .LVU670
	.loc 1 1037 16 is_stmt 0 view .LVU671
	ldr	r3, .L164
.LBE75:
.LBE88:
.LBE95:
	.loc 1 268 4 view .LVU672
	ldr	r0, .L164+4
.LBB96:
.LBB89:
.LBB82:
	.loc 1 1037 16 view .LVU673
	movs	r2, #2
.LBE82:
.LBE89:
.LBE96:
	.loc 1 268 4 view .LVU674
	mov	r1, r4
.LBB97:
.LBB90:
.LBB83:
	.loc 1 1037 16 view .LVU675
	strb	r2, [r3]
	.loc 1 1039 6 is_stmt 1 view .LVU676
.LVL195:
	.loc 1 1039 6 is_stmt 0 view .LVU677
.LBE83:
.LBE90:
.LBE97:
	.loc 1 264 3 is_stmt 1 view .LVU678
	.loc 1 268 4 view .LVU679
	bl	radio_isr_set
.LVL196:
	.loc 1 269 4 view .LVU680
	bl	radio_disable
.LVL197:
	.loc 1 272 4 view .LVU681
	.loc 1 272 9 view .LVU682
	.loc 1 272 16 is_stmt 0 view .LVU683
	bl	radio_is_ready
.LVL198:
	.loc 1 272 12 view .LVU684
	cbnz	r0, .L94
.L147:
	.loc 1 272 12 view .LVU685
.LBE105:
	.loc 1 399 189 is_stmt 1 discriminator 1 view .LVU686
	.loc 1 399 5 discriminator 1 view .LVU687
	.loc 1 403 2 discriminator 1 view .LVU688
	.loc 1 403 7 is_stmt 0 discriminator 1 view .LVU689
	bl	radio_tmr_aa_restore
.LVL199:
	.loc 1 403 5 discriminator 1 view .LVU690
	cbz	r0, .L160
	.loc 1 411 2 is_stmt 1 view .LVU691
.LVL200:
	.loc 1 413 2 view .LVU692
	.loc 1 413 5 is_stmt 0 view .LVU693
	cmp	r5, #0
	beq	.L74
.L98:
	.loc 1 414 3 is_stmt 1 view .LVU694
	.loc 1 414 8 view .LVU695
	.loc 1 414 17 is_stmt 0 view .LVU696
	ldrh	r0, [r4, #12]
	.loc 1 414 11 view .LVU697
	movw	r3, #65535
	cmp	r0, r3
	beq	.L161
	.loc 1 414 198 is_stmt 1 view .LVU698
	.loc 1 414 6 view .LVU699
	.loc 1 416 3 view .LVU700
	mov	r1, r5
	bl	ull_conn_lll_ack_enqueue
.LVL201:
	.loc 1 418 3 view .LVU701
	.loc 1 421 2 view .LVU702
	b	.L113
.LVL202:
.L94:
.LBB106:
	.loc 1 272 37 discriminator 1 view .LVU703
	ldr	r2, .L164+8
	ldr	r1, .L164+12
	ldr	r0, .L164+16
	mov	r3, #272
	bl	assert_print
.LVL203:
	.loc 1 272 188 discriminator 1 view .LVU704
	.loc 1 272 193 discriminator 1 view .LVU705
	.syntax unified
@ 272 "/home/g/mise-work/zmk-firmware/zmk/zephyr/subsys/bluetooth/controller/ll_sw/nordic/lll/lll_conn.c" 1
	eors.n r0, r0
	msr BASEPRI, r0
	mov r0, #3
	svc #2
	
@ 0 "" 2
	.thumb
	.syntax unified
	b	.L147
.L160:
	.loc 1 272 193 is_stmt 0 discriminator 1 view .LVU706
.LBE106:
	.loc 1 404 3 is_stmt 1 view .LVU707
	bl	radio_tmr_aa_get
.LVL204:
	bl	radio_tmr_aa_save
.LVL205:
	.loc 1 411 2 view .LVU708
	.loc 1 413 2 view .LVU709
	.loc 1 413 5 is_stmt 0 view .LVU710
	cmp	r5, #0
	bne	.L98
	b	.L74
.LVL206:
.L159:
.LBB107:
.LBB98:
.LBB91:
.LBB84:
.LBB76:
	.loc 1 1020 6 is_stmt 1 view .LVU711
	.loc 1 1021 7 is_stmt 0 view .LVU712
	bl	radio_pkt_scratch_get
.LVL207:
	.loc 1 1023 10 view .LVU713
	ldrb	r3, [r0, #1]	@ zero_extendqisi2
	.loc 1 1023 9 view .LVU714
	cmp	r3, #39
	.loc 1 1021 7 view .LVU715
	mov	r1, r0
.LVL208:
	.loc 1 1023 6 is_stmt 1 view .LVU716
	.loc 1 1023 9 is_stmt 0 view .LVU717
	bhi	.L93
	.loc 1 1025 6 is_stmt 1 view .LVU718
.LVL209:
.LBB77:
.LBI77:
	.file 3 "/home/g/zephyr-sdk-0.16.3/arm-zephyr-eabi/picolibc/include/ssp/string.h"
	.loc 3 83 216 view .LVU719
.LBB78:
	.loc 3 83 292 view .LVU720
.LBE78:
.LBE77:
	.loc 1 1025 14 is_stmt 0 view .LVU721
	adds	r3, r3, #3
.LVL210:
.LBB80:
.LBB79:
	.loc 3 83 299 view .LVU722
	uxtb	r2, r3
	add	r0, r8, #28
.LVL211:
	.loc 3 83 299 view .LVU723
	bl	memcpy
.LVL212:
	.loc 3 83 299 view .LVU724
.LBE79:
.LBE80:
	.loc 1 1030 7 is_stmt 1 view .LVU725
	.loc 1 1031 7 view .LVU726
	.loc 1 1031 18 is_stmt 0 view .LVU727
	ldr	r3, [r4, #131]	@ unaligned
	ldr	r2, [r4, #135]	@ unaligned
	.loc 1 1031 26 view .LVU728
	subs	r3, r3, #1
	str	r3, [r4, #131]	@ unaligned
	adc	r3, r2, #-1
	str	r3, [r4, #135]	@ unaligned
.LVL213:
.L143:
	.loc 1 1031 26 view .LVU729
.LBE76:
	.loc 1 1035 5 is_stmt 1 view .LVU730
	.loc 1 1043 16 is_stmt 0 view .LVU731
	ldr	r3, [r4, #131]	@ unaligned
	.loc 1 1046 15 view .LVU732
	ldr	r2, .L164
	.loc 1 1043 24 view .LVU733
	adds	r3, r3, #1
	str	r3, [r4, #131]	@ unaligned
	.loc 1 1043 16 view .LVU734
	ldr	r3, [r4, #135]	@ unaligned
.LBB81:
	.loc 1 1031 26 view .LVU735
	add	r1, r4, #131
.LVL214:
	.loc 1 1031 26 view .LVU736
.LBE81:
	.loc 1 1043 5 is_stmt 1 view .LVU737
	.loc 1 1043 24 is_stmt 0 view .LVU738
	adc	r3, r3, #0
	str	r3, [r1, #4]	@ unaligned
	.loc 1 1046 5 is_stmt 1 view .LVU739
	.loc 1 1046 15 is_stmt 0 view .LVU740
	movs	r3, #1
	strb	r3, [r2]
.LVL215:
	.loc 1 1046 15 view .LVU741
.LBE84:
.LBE91:
.LBE98:
	.loc 1 264 3 is_stmt 1 view .LVU742
	b	.L100
.LVL216:
.L158:
.LBB99:
.LBB92:
.LBB85:
	.loc 1 1007 25 view .LVU743
	ldr	r2, .L164+8
	ldr	r1, .L164+20
	ldr	r0, .L164+16
.LVL217:
	.loc 1 1007 25 is_stmt 0 view .LVU744
	movw	r3, #1007
	bl	assert_print
.LVL218:
	.loc 1 1007 164 is_stmt 1 view .LVU745
	.loc 1 1007 169 view .LVU746
	.syntax unified
@ 1007 "/home/g/mise-work/zmk-firmware/zmk/zephyr/subsys/bluetooth/controller/ll_sw/nordic/lll/lll_conn.c" 1
	eors.n r0, r0
	msr BASEPRI, r0
	mov r0, #3
	svc #2
	
@ 0 "" 2
	.thumb
	.syntax unified
	b	.L91
.L165:
	.align	2
.L164:
	.word	mic_state
	.word	isr_done
	.word	.LC0
	.word	.LC5
	.word	.LC2
	.word	.LC7
.LBE85:
.LBE92:
.LBE99:
.LBE107:
	.cfi_endproc
.LFE1050:
	.size	lll_conn_isr_rx, .-lll_conn_isr_rx
	.section	.bss.mic_state,"aw",%nobits
	.type	mic_state, %object
	.size	mic_state, 1
mic_state:
	.space	1
	.section	.bss.trx_cnt,"aw",%nobits
	.align	1
	.type	trx_cnt, %object
	.size	trx_cnt, 2
trx_cnt:
	.space	2
	.section	.bss.crc_valid,"aw",%nobits
	.type	crc_valid, %object
	.size	crc_valid, 1
crc_valid:
	.space	1
	.section	.bss.crc_expire,"aw",%nobits
	.type	crc_expire, %object
	.size	crc_expire, 1
crc_expire:
	.space	1
	.text
.Letext0:
	.file 4 "/home/g/zephyr-sdk-0.16.3/arm-zephyr-eabi/picolibc/include/machine/_default_types.h"
	.file 5 "/home/g/zephyr-sdk-0.16.3/arm-zephyr-eabi/picolibc/include/sys/_stdint.h"
	.file 6 "/home/g/zephyr-sdk-0.16.3/arm-zephyr-eabi/lib/gcc/arm-zephyr-eabi/12.2.0/include/stddef.h"
	.file 7 "/home/g/mise-work/zmk-firmware/zmk/zephyr/include/zephyr/fatal_types.h"
	.file 8 "/home/g/mise-work/zmk-firmware/zmk/zephyr/include/zephyr/kernel.h"
	.file 9 "/home/g/mise-work/zmk-firmware/zmk/zephyr/subsys/bluetooth/controller/./hal/ccm.h"
	.file 10 "/home/g/mise-work/zmk-firmware/zmk/zephyr/subsys/bluetooth/controller/ll_sw/nordic/hal/nrf5/radio/radio.h"
	.file 11 "/home/g/mise-work/zmk-firmware/zmk/zephyr/subsys/bluetooth/controller/./util/memq.h"
	.file 12 "/home/g/mise-work/zmk-firmware/zmk/zephyr/subsys/bluetooth/controller/ll_sw/pdu_df.h"
	.file 13 "/home/g/mise-work/zmk-firmware/zmk/zephyr/subsys/bluetooth/controller/ll_sw/nordic/lll/pdu_vendor.h"
	.file 14 "/home/g/mise-work/zmk-firmware/zmk/zephyr/subsys/bluetooth/controller/ll_sw/pdu.h"
	.file 15 "/home/g/mise-work/zmk-firmware/zmk/zephyr/subsys/bluetooth/controller/ll_sw/lll.h"
	.file 16 "/home/g/mise-work/zmk-firmware/zmk/zephyr/subsys/bluetooth/controller/ll_sw/nordic/lll/lll_df_types.h"
	.file 17 "/home/g/mise-work/zmk-firmware/zmk/zephyr/subsys/bluetooth/controller/ll_sw/lll_conn.h"
	.file 18 "/home/g/mise-work/zmk-firmware/zmk/zephyr/subsys/bluetooth/controller/ll_sw/nordic/lll/lll_internal.h"
	.file 19 "/home/g/mise-work/zmk-firmware/zmk/zephyr/include/zephyr/sys/__assert.h"
	.file 20 "/home/g/mise-work/zmk-firmware/zmk/zephyr/subsys/bluetooth/controller/ll_sw/lll_clock.h"
	.file 21 "<built-in>"