	.cpu cortex-m4
	.arch armv7e-m
	.fpu fpv4-sp-d16
	.eabi_attribute 27, 1
	.eabi_attribute 28, 1
	.eabi_attribute 20, 1
	.eabi_attribute 21, 1
	.eabi_attribute 23, 3
	.eabi_attribute 24, 1
	.eabi_attribute 25, 1
	.eabi_attribute 26, 1
	.eabi_attribute 30, 4
	.eabi_attribute 34, 1
	.eabi_attribute 38, 1
	.eabi_attribute 18, 4
	.file	"nrfx_glue.c"
	.text
.Ltext0:
	.cfi_sections	.debug_frame
	.file 1 "/home/g/mise-work/zmk-firmware/zmk/zephyr/modules/hal_nordic/nrfx/nrfx_glue.c"
	.section	.text.nrfx_isr,"ax",%progbits
	.align	1
	.global	nrfx_isr
	.syntax unified
	.thumb
	.thumb_func
	.type	nrfx_isr, %function
nrfx_isr:
.LVL0:
.LFB445:
	.loc 1 12 1 view -0
	.cfi_startproc
	@ args = 0, pretend = 0, frame = 0
	@ frame_needed = 0, uses_anonymous_args = 0
	@ link register save eliminated.
	.loc 1 13 2 view .LVU1
	.loc 1 13 3 is_stmt 0 view .LVU2
	bx	r0	@ indirect register sibling call
.LVL1:
	.loc 1 13 3 view .LVU3
	.cfi_endproc
.LFE445:
	.size	nrfx_isr, .-nrfx_isr
	.section	.text.nrfx_busy_wait,"ax",%progbits
	.align	1
	.global	nrfx_busy_wait
	.syntax unified
	.thumb
	.thumb_func
	.type	nrfx_busy_wait, %function
nrfx_busy_wait:
.LVL2:
.LFB446:
	.loc 1 17 1 is_stmt 1 view -0
	.cfi_startproc
	@ args = 0, pretend = 0, frame = 0
	@ frame_needed = 0, uses_anonymous_args = 0
	@ link register save eliminated.
	.loc 1 18 2 view .LVU5
	.loc 1 19 3 view .LVU6
.LBB4:
.LBI4:
	.file 2 "/home/g/mise-work/zmk-firmware/zmk/app/build/zephyr/include/generated/syscalls/kernel.h"
	.loc 2 158 20 view .LVU7
.LBB5:
	.loc 2 167 2 view .LVU8
	.loc 2 167 7 view .LVU9
	.loc 2 167 5 view .LVU10
	.loc 2 168 2 view .LVU11
	b	z_impl_k_busy_wait
.LVL3:
	.loc 2 168 2 is_stmt 0 view .LVU12
.LBE5:
.LBE4:
	.cfi_endproc
.LFE446:
	.size	nrfx_busy_wait, .-nrfx_busy_wait
	.section	.rodata.nrfx_error_string_get.str1.1,"aMS",%progbits,1
.LC0:
	.ascii	"NRFX_SUCCESS\000"
.LC1:
	.ascii	"unknown\000"
.LC2:
	.ascii	"NRFX_ERROR_NO_MEM\000"
.LC3:
	.ascii	"NRFX_ERROR_NOT_SUPPORTED\000"
.LC4:
	.ascii	"NRFX_ERROR_INVALID_PARAM\000"
.LC5:
	.ascii	"NRFX_ERROR_INVALID_STATE\000"
.LC6:
	.ascii	"NRFX_ERROR_INVALID_LENGTH\000"
.LC7:
	.ascii	"NRFX_ERROR_TIMEOUT\000"
.LC8:
	.ascii	"NRFX_ERROR_FORBIDDEN\000"
.LC9:
	.ascii	"NRFX_ERROR_NULL\000"
.LC10:
	.ascii	"NRFX_ERROR_INVALID_ADDR\000"
.LC11:
	.ascii	"NRFX_ERROR_BUSY\000"
.LC12:
	.ascii	"NRFX_ERROR_ALREADY_INITIALIZED\000"
.LC13:
	.ascii	"NRFX_ERROR_DRV_TWI_ERR_OVERRUN\000"
.LC14:
	.ascii	"NRFX_ERROR_DRV_TWI_ERR_ANACK\000"
.LC15:
	.ascii	"NRFX_ERROR_DRV_TWI_ERR_DNACK\000"
.LC16:
	.ascii	"NRFX_ERROR_INTERNAL\000"
	.section	.text.nrfx_error_string_get,"ax",%progbits
	.align	1
	.global	nrfx_error_string_get
	.syntax unified
	.thumb
	.thumb_func
	.type	nrfx_error_string_get, %function
nrfx_error_string_get:
.LVL4:
.LFB447:
	.loc 1 26 1 is_stmt 1 view -0
	.cfi_startproc
	@ args = 0, pretend = 0, frame = 0
	@ frame_needed = 0, uses_anonymous_args = 0
	.loc 1 28 2 view .LVU14
	ldr	r3, .L24
	cmp	r0, r3
	.loc 1 26 1 is_stmt 0 view .LVU15
	push	{r4, lr}
	.cfi_def_cfa_offset 8
	.cfi_offset 4, -8
	.cfi_offset 14, -4
	.loc 1 26 1 view .LVU16
	mov	r2, r0
	.loc 1 28 2 view .LVU17
	bcs	.L4
	subs	r3, r3, #14
	cmp	r0, r3
	bls	.L19
	ldr	r3, .L24+4
	add	r3, r3, r0
	cmp	r3, #11
	bhi	.L6
	tbb	[pc, r3]
.L8:
	.byte	(.L20-.L8)/2
	.byte	(.L18-.L8)/2
	.byte	(.L17-.L8)/2
	.byte	(.L16-.L8)/2
	.byte	(.L15-.L8)/2
	.byte	(.L14-.L8)/2
	.byte	(.L13-.L8)/2
	.byte	(.L12-.L8)/2
	.byte	(.L11-.L8)/2
	.byte	(.L10-.L8)/2
	.byte	(.L9-.L8)/2
	.byte	(.L7-.L8)/2
	.p2align 1
.L6:
	.loc 1 29 29 view .LVU18
	ldr	r0, .L24+8
.LVL5:
.L3:
	.loc 1 47 1 view .LVU19
	pop	{r4, pc}
.LVL6:
.L4:
	.loc 1 28 2 view .LVU20
	ldr	r3, .L24+12
	cmp	r0, r3
	beq	.L21
	adds	r3, r3, #1
	cmp	r0, r3
	beq	.L22
	.loc 1 45 19 view .LVU21
	ldr	r4, .L24+16
	ldr	r3, .L24+20
	ldr	r0, .L24+24
.LVL7:
	.loc 1 45 19 view .LVU22
	cmp	r2, r4
	it	eq
	moveq	r0, r3
	b	.L3
.LVL8:
.L18:
	.loc 1 31 27 is_stmt 1 view .LVU23
	.loc 1 31 34 is_stmt 0 view .LVU24
	ldr	r0, .L24+28
.LVL9:
	.loc 1 31 34 view .LVU25
	b	.L3
.LVL10:
.L17:
	.loc 1 32 34 is_stmt 1 view .LVU26
	.loc 1 32 41 is_stmt 0 view .LVU27
	ldr	r0, .L24+32
.LVL11:
	.loc 1 32 41 view .LVU28
	b	.L3
.LVL12:
.L16:
	.loc 1 33 34 is_stmt 1 view .LVU29
	.loc 1 33 41 is_stmt 0 view .LVU30
	ldr	r0, .L24+36
.LVL13:
	.loc 1 33 41 view .LVU31
	b	.L3
.LVL14:
.L15:
	.loc 1 34 34 is_stmt 1 view .LVU32
	.loc 1 34 41 is_stmt 0 view .LVU33
	ldr	r0, .L24+40
.LVL15:
	.loc 1 34 41 view .LVU34
	b	.L3
.LVL16:
.L14:
	.loc 1 35 35 is_stmt 1 view .LVU35
	.loc 1 35 42 is_stmt 0 view .LVU36
	ldr	r0, .L24+44
.LVL17:
	.loc 1 35 42 view .LVU37
	b	.L3
.LVL18:
.L13:
	.loc 1 36 28 is_stmt 1 view .LVU38
	.loc 1 36 35 is_stmt 0 view .LVU39
	ldr	r0, .L24+48
.LVL19:
	.loc 1 36 35 view .LVU40
	b	.L3
.LVL20:
.L12:
	.loc 1 37 30 is_stmt 1 view .LVU41
	.loc 1 37 37 is_stmt 0 view .LVU42
	ldr	r0, .L24+52
.LVL21:
	.loc 1 37 37 view .LVU43
	b	.L3
.LVL22:
.L11:
	.loc 1 38 25 is_stmt 1 view .LVU44
	.loc 1 38 32 is_stmt 0 view .LVU45
	ldr	r0, .L24+56
.LVL23:
	.loc 1 38 32 view .LVU46
	b	.L3
.LVL24:
.L10:
	.loc 1 39 33 is_stmt 1 view .LVU47
	.loc 1 39 40 is_stmt 0 view .LVU48
	ldr	r0, .L24+60
.LVL25:
	.loc 1 39 40 view .LVU49
	b	.L3
.LVL26:
.L9:
	.loc 1 40 25 is_stmt 1 view .LVU50
	.loc 1 40 32 is_stmt 0 view .LVU51
	ldr	r0, .L24+64
.LVL27:
	.loc 1 40 32 view .LVU52
	b	.L3
.LVL28:
.L7:
	.loc 1 41 40 is_stmt 1 view .LVU53
	.loc 1 41 47 is_stmt 0 view .LVU54
	ldr	r0, .L24+68
.LVL29:
	.loc 1 41 47 view .LVU55
	b	.L3
.LVL30:
.L19:
	.loc 1 45 19 view .LVU56
	ldr	r0, .L24+24
.LVL31:
	.loc 1 45 19 view .LVU57
	b	.L3
.LVL32:
.L20:
	.loc 1 28 2 view .LVU58
	ldr	r0, .L24+72
.LVL33:
	.loc 1 28 2 view .LVU59
	b	.L3
.LVL34:
.L21:
	.loc 1 43 45 view .LVU60
	ldr	r0, .L24+76
.LVL35:
	.loc 1 43 45 view .LVU61
	b	.L3
.LVL36:
.L22:
	.loc 1 44 45 view .LVU62
	ldr	r0, .L24+80
.LVL37:
	.loc 1 44 45 view .LVU63
	b	.L3
.L25:
	.align	2
.L24:
	.word	195887117
	.word	-195887105
	.word	.LC0
	.word	195952641
	.word	195952640
	.word	.LC13
	.word	.LC1
	.word	.LC2
	.word	.LC3
	.word	.LC4
	.word	.LC5
	.word	.LC6
	.word	.LC7
	.word	.LC8
	.word	.LC9
	.word	.LC10
	.word	.LC11
	.word	.LC12
	.word	.LC16
	.word	.LC14
	.word	.LC15
	.cfi_endproc
.LFE447:
	.size	nrfx_error_string_get, .-nrfx_error_string_get
	.text
.Letext0:
	.file 3 "/home/g/zephyr-sdk-0.16.3/arm-zephyr-eabi/picolibc/include/machine/_default_types.h"
	.file 4 "/home/g/zephyr-sdk-0.16.3/arm-zephyr-eabi/picolibc/include/sys/_stdint.h"
	.file 5 "/home/g/mise-work/zmk-firmware/zmk/modules/hal/nordic/nrfx/drivers/nrfx_common.h"
	.file 6 "/home/g/mise-work/zmk-firmware/zmk/modules/hal/nordic/nrfx/drivers/nrfx_errors.h"