	.cpu cortex-m4
	.arch armv7e-m
	.fpu fpv4-sp-d16
	.eabi_attribute 27, 1
	.eabi_attribute 28, 1
	.eabi_attribute 20, 1
	.eabi_attribute 21, 1
	.eabi_attribute 23, 3
	.eabi_attribute 24, 1
	.eabi_attribute 25, 1
	.eabi_attribute 26, 1
	.eabi_attribute 30, 4
	.eabi_attribute 34, 1
	.eabi_attribute 38, 1
	.eabi_attribute 18, 4
	.file	"nrf_rtc_timer.c"
	.text
.Ltext0:
	.cfi_sections	.debug_frame
	.file 1 "/home/g/mise-work/zmk-firmware/zmk/zephyr/drivers/timer/nrf_rtc_timer.c"
	.section	.text.event_clear,"ax",%progbits
	.align	1
	.syntax unified
	.thumb
	.thumb_func
	.type	event_clear, %function
event_clear:
.LVL0:
.LFB516:
	.loc 1 84 1 view -0
	.cfi_startproc
	@ args = 0, pretend = 0, frame = 0
	@ frame_needed = 0, uses_anonymous_args = 0
	@ link register save eliminated.
	.loc 1 85 2 view .LVU1
.LBB167:
.LBI167:
	.file 2 "/home/g/mise-work/zmk-firmware/zmk/modules/hal/nordic/nrfx/hal/nrf_rtc.h"
	.loc 2 397 20 view .LVU2
.LBB168:
	.loc 2 399 5 view .LVU3
.LBE168:
.LBE167:
	.loc 1 85 98 is_stmt 0 view .LVU4
	add	r3, r0, #80
	lsls	r3, r3, #2
.LBB172:
.LBB171:
	.loc 2 399 48 view .LVU5
	uxth	r3, r3
	.loc 2 399 7 view .LVU6
	add	r3, r3, #1073741824
	add	r3, r3, #69632
	.loc 2 399 66 view .LVU7
	movs	r2, #0
	str	r2, [r3]
	.loc 2 400 5 is_stmt 1 view .LVU8
.LVL1:
.LBB169:
.LBI169:
	.file 3 "/home/g/mise-work/zmk-firmware/zmk/modules/hal/nordic/nrfx/hal/nrf_common.h"
	.loc 3 186 20 view .LVU9
.LBB170:
	.loc 3 189 5 view .LVU10
	ldr	r3, [r3]
.LVL2:
	.loc 3 189 5 is_stmt 0 view .LVU11
.LBE170:
.LBE169:
.LBE171:
.LBE172:
	.loc 1 86 1 view .LVU12
	bx	lr
	.cfi_endproc
.LFE516:
	.size	event_clear, .-event_clear
	.section	.text.compare_int_lock,"ax",%progbits
	.align	1
	.syntax unified
	.thumb
	.thumb_func
	.type	compare_int_lock, %function
compare_int_lock:
.LVL3:
.LFB525:
	.loc 1 156 1 is_stmt 1 view -0
	.cfi_startproc
	@ args = 0, pretend = 0, frame = 0
	@ frame_needed = 0, uses_anonymous_args = 0
	.loc 1 157 2 view .LVU14
	.loc 1 156 1 is_stmt 0 view .LVU15
	push	{r4, r5, r6, lr}
	.cfi_def_cfa_offset 16
	.cfi_offset 4, -16
	.cfi_offset 5, -12
	.cfi_offset 6, -8
	.cfi_offset 14, -4
	.loc 1 157 50 view .LVU16
	movs	r3, #1
	lsls	r3, r3, r0
.LVL4:
.LBB185:
.LBI185:
	.file 4 "/home/g/mise-work/zmk-firmware/zmk/zephyr/include/zephyr/sys/atomic_builtin.h"
	.loc 4 319 28 is_stmt 1 view .LVU17
.LBB186:
	.loc 4 321 2 view .LVU18
	.loc 4 321 9 is_stmt 0 view .LVU19
	ldr	r2, .L4
	dmb	ish
.LBE186:
.LBE185:
	.loc 1 157 44 view .LVU20
	mvns	r4, r3
.LVL5:
.L3:
.LBB188:
.LBB187:
	.loc 4 321 9 view .LVU21
	ldrex	r1, [r2]
	and	r5, r1, r4
	strex	r6, r5, [r2]
	cmp	r6, #0
	bne	.L3
	dmb	ish
.LVL6:
	.loc 4 321 9 view .LVU22
.LBE187:
.LBE188:
	.loc 1 159 2 is_stmt 1 view .LVU23
	mov	r2, #65536
	lsls	r2, r2, r0
.LVL7:
.LBB189:
.LBI189:
	.loc 2 352 20 view .LVU24
.LBB190:
	.loc 2 354 5 view .LVU25
	.loc 2 354 21 is_stmt 0 view .LVU26
	ldr	r0, .L4+4
.LVL8:
	.loc 2 354 21 view .LVU27
	str	r2, [r0, #776]
.LVL9:
	.loc 2 354 21 view .LVU28
.LBE190:
.LBE189:
	.loc 1 161 2 is_stmt 1 view .LVU29
.LBB191:
.LBI191:
	.file 5 "/home/g/mise-work/zmk-firmware/zmk/zephyr/include/zephyr/sys/barrier.h"
	.loc 5 38 51 view .LVU30
	.loc 5 41 2 view .LVU31
.LBB192:
.LBI192:
	.file 6 "/home/g/mise-work/zmk-firmware/zmk/zephyr/include/zephyr/arch/arm/barrier.h"
	.loc 6 19 51 view .LVU32
	.loc 6 21 2 view .LVU33
.LBB193:
.LBI193:
	.file 7 "/home/g/mise-work/zmk-firmware/zmk/modules/hal/cmsis/CMSIS/Core/Include/cmsis_gcc.h"
	.loc 7 280 51 view .LVU34
.LBB194:
	.loc 7 282 3 view .LVU35
	.syntax unified
@ 282 "/home/g/mise-work/zmk-firmware/zmk/modules/hal/cmsis/CMSIS/Core/Include/cmsis_gcc.h" 1
	dmb 0xF
@ 0 "" 2
	.thumb
	.syntax unified
.LBE194:
.LBE193:
.LBE192:
.LBE191:
	.loc 1 162 2 view .LVU36
.LBB195:
.LBI195:
	.loc 5 76 51 view .LVU37
	.loc 5 79 2 view .LVU38
.LBB196:
.LBI196:
	.loc 6 29 51 view .LVU39
	.loc 6 31 2 view .LVU40
.LBB197:
.LBI197:
	.loc 7 258 51 view .LVU41
.LBB198:
	.loc 7 260 3 view .LVU42
	.syntax unified
@ 260 "/home/g/mise-work/zmk-firmware/zmk/modules/hal/cmsis/CMSIS/Core/Include/cmsis_gcc.h" 1
	isb 0xF
@ 0 "" 2
	.thumb
	.syntax unified
.LBE198:
.LBE197:
.LBE196:
.LBE195:
	.loc 1 164 2 view .LVU43
	.loc 1 164 14 is_stmt 0 view .LVU44
	tst	r3, r1
	.loc 1 165 1 view .LVU45
	ite	ne
	movne	r0, #1
	moveq	r0, #0
	pop	{r4, r5, r6, pc}
.L5:
	.align	2
.L4:
	.word	int_mask
	.word	1073811456
	.cfi_endproc
.LFE525:
	.size	compare_int_lock, .-compare_int_lock
	.section	.text.sys_clock_timeout_handler,"ax",%progbits
	.align	1
	.syntax unified
	.thumb
	.thumb_func
	.type	sys_clock_timeout_handler, %function
sys_clock_timeout_handler:
.LVL10:
.LFB540:
	.loc 1 476 1 is_stmt 1 view -0
	.cfi_startproc
	@ args = 4, pretend = 0, frame = 0
	@ frame_needed = 0, uses_anonymous_args = 0
	@ link register save eliminated.
	.loc 1 477 2 view .LVU47
.LBB205:
.LBI205:
	.loc 1 103 17 view .LVU48
.LBB206:
	.loc 1 106 2 view .LVU49
.LBE206:
.LBE205:
	.loc 1 476 1 is_stmt 0 view .LVU50
	push	{r4, r5, r6}
	.cfi_def_cfa_offset 12
	.cfi_offset 4, -12
	.cfi_offset 5, -8
	.cfi_offset 6, -4
	.loc 1 478 57 view .LVU51
	ldr	r1, .L8
	ldrd	r3, r4, [r1]
	.loc 1 478 11 view .LVU52
	subs	r0, r2, r3
.LVL11:
	.loc 1 480 13 view .LVU53
	adds	r3, r0, r3
	adc	r4, r4, #0
.LBB208:
.LBB207:
	.loc 1 106 23 view .LVU54
	bic	r6, r2, #-16777216
.LVL12:
	.loc 1 106 23 view .LVU55
.LBE207:
.LBE208:
	.loc 1 478 2 is_stmt 1 view .LVU56
	.loc 1 480 2 view .LVU57
	.loc 1 480 13 is_stmt 0 view .LVU58
	strd	r3, r4, [r1]
	.loc 1 482 2 is_stmt 1 view .LVU59
.LVL13:
.LBB209:
.LBI209:
	.loc 1 460 20 view .LVU60
.LBB210:
	.loc 1 463 2 view .LVU61
.LBB211:
.LBI211:
	.loc 1 455 19 view .LVU62
.LBB212:
	.loc 1 457 2 view .LVU63
	.loc 1 457 44 is_stmt 0 view .LVU64
	sub	r3, r6, #2097152
.LBE212:
.LBE211:
	.loc 1 463 5 view .LVU65
	cmp	r3, #12582912
	bcs	.L7
	.loc 1 469 3 is_stmt 1 view .LVU66
	.loc 1 469 14 is_stmt 0 view .LVU67
	ldr	r3, .L8+4
	ldr	r3, [r3]
	.loc 1 469 38 view .LVU68
	lsrs	r2, r3, #8
.LVL14:
	.loc 1 469 38 view .LVU69
	lsls	r3, r3, #24
	.loc 1 469 46 view .LVU70
	adds	r4, r3, r6
	.loc 1 469 10 view .LVU71
	ldr	r3, .L8+8
	.loc 1 469 46 view .LVU72
	adc	r5, r2, #0
	.loc 1 469 10 view .LVU73
	strd	r4, [r3]
.L7:
.LVL15:
	.loc 1 469 10 view .LVU74
.LBE210:
.LBE209:
	.loc 1 484 2 is_stmt 1 view .LVU75
	.loc 1 492 2 view .LVU76
	.loc 1 493 1 is_stmt 0 view .LVU77
	pop	{r4, r5, r6}
	.cfi_restore 6
	.cfi_restore 5
	.cfi_restore 4
	.cfi_def_cfa_offset 0
.LVL16:
	.loc 1 492 2 view .LVU78
	b	sys_clock_announce
.LVL17:
.L9:
	.loc 1 492 2 view .LVU79
	.align	2
.L8:
	.word	last_count
	.word	overflow_cnt
	.word	anchor
	.cfi_endproc
.LFE540:
	.size	sys_clock_timeout_handler, .-sys_clock_timeout_handler
	.section	.text.compare_int_unlock,"ax",%progbits
	.align	1
	.syntax unified
	.thumb
	.thumb_func
	.type	compare_int_unlock, %function
compare_int_unlock:
.LVL18:
.LFB527:
	.loc 1 176 1 is_stmt 1 view -0
	.cfi_startproc
	@ args = 0, pretend = 0, frame = 0
	@ frame_needed = 0, uses_anonymous_args = 0
	@ link register save eliminated.
	.loc 1 177 2 view .LVU81
	.loc 1 177 5 is_stmt 0 view .LVU82
	cbz	r1, .L10
.LVL19:
.LBB223:
.LBI223:
	.loc 1 175 13 is_stmt 1 view .LVU83
.LBB224:
	.loc 1 178 3 view .LVU84
.LBB225:
.LBI225:
	.loc 4 279 28 view .LVU85
.LBB226:
	.loc 4 281 2 view .LVU86
	.loc 4 281 9 is_stmt 0 view .LVU87
	dmb	ish
.LBE226:
.LBE225:
	.loc 1 178 29 view .LVU88
	movs	r3, #1
.LBB229:
.LBB227:
	.loc 4 281 9 view .LVU89
	ldr	r2, .L18
.LBE227:
.LBE229:
	.loc 1 178 29 view .LVU90
	lsls	r3, r3, r0
.LVL20:
.L17:
.LBB230:
.LBB228:
	.loc 4 281 9 view .LVU91
	ldrex	ip, [r2]
	orr	ip, ip, r3
	strex	r1, ip, [r2]
	cmp	r1, #0
	bne	.L17
	dmb	ish
.LVL21:
	.loc 4 281 9 view .LVU92
.LBE228:
.LBE230:
	.loc 1 179 3 is_stmt 1 view .LVU93
.LBB231:
.LBB232:
	.loc 2 349 21 is_stmt 0 view .LVU94
	ldr	r2, .L18+4
.LBE232:
.LBE231:
	.loc 1 179 3 view .LVU95
	mov	r3, #65536
	lsls	r3, r3, r0
.LVL22:
.LBB234:
.LBI231:
	.loc 2 347 20 is_stmt 1 view .LVU96
.LBB233:
	.loc 2 349 5 view .LVU97
	.loc 2 349 21 is_stmt 0 view .LVU98
	str	r3, [r2, #772]
.LVL23:
	.loc 2 349 21 view .LVU99
.LBE233:
.LBE234:
	.loc 1 180 3 is_stmt 1 view .LVU100
.LBB235:
.LBI235:
	.loc 4 159 28 view .LVU101
.LBB236:
	.loc 4 161 2 view .LVU102
	.loc 4 161 9 is_stmt 0 view .LVU103
	ldr	r3, .L18+8
	dmb	ish
	ldr	r3, [r3]
	dmb	ish
.LVL24:
	.loc 4 161 9 view .LVU104
.LBE236:
.LBE235:
	.loc 1 180 7 view .LVU105
	lsrs	r3, r3, r0
	.loc 1 180 6 view .LVU106
	lsls	r3, r3, #31
	.loc 1 181 4 is_stmt 1 view .LVU107
.LVL25:
.LBB237:
.LBI237:
	.file 8 "/home/g/mise-work/zmk-firmware/zmk/modules/hal/cmsis/CMSIS/Core/Include/core_cm4.h"
	.loc 8 1760 20 view .LVU108
.LBB238:
	.loc 8 1762 3 view .LVU109
	.loc 8 1764 5 view .LVU110
	.loc 8 1764 83 is_stmt 0 view .LVU111
	ittt	mi
	ldrmi	r3, .L18+12
	movmi	r2, #131072
	strmi	r2, [r3, #256]
.LVL26:
.L10:
	.loc 8 1764 83 view .LVU112
.LBE238:
.LBE237:
.LBE224:
.LBE223:
	.loc 1 184 1 view .LVU113
	bx	lr
.L19:
	.align	2
.L18:
	.word	int_mask
	.word	1073811456
	.word	force_isr_mask
	.word	-536813312
	.cfi_endproc
.LFE527:
	.size	compare_int_unlock, .-compare_int_unlock
	.section	.text.z_nrf_rtc_timer_compare_evt_address_get,"ax",%progbits
	.align	1
	.global	z_nrf_rtc_timer_compare_evt_address_get
	.syntax unified
	.thumb
	.thumb_func
	.type	z_nrf_rtc_timer_compare_evt_address_get, %function
z_nrf_rtc_timer_compare_evt_address_get:
.LVL27:
.LFB523:
	.loc 1 133 1 is_stmt 1 view -0
	.cfi_startproc
	@ args = 0, pretend = 0, frame = 0
	@ frame_needed = 0, uses_anonymous_args = 0
	@ link register save eliminated.
	.loc 1 134 4 view .LVU115
	.loc 1 134 5 view .LVU116
	.loc 1 135 2 view .LVU117
.LBB239:
.LBI239:
	.loc 2 453 31 view .LVU118
.LBB240:
	.loc 2 455 5 view .LVU119
	.loc 2 455 5 is_stmt 0 view .LVU120
.LBE240:
.LBE239:
.LBB243:
.LBI243:
	.loc 2 419 24 is_stmt 1 view .LVU121
.LBB244:
	.loc 2 422 5 view .LVU122
	.loc 2 422 5 is_stmt 0 view .LVU123
.LBE244:
.LBE243:
.LBB245:
.LBB241:
	.loc 2 455 39 view .LVU124
	uxtb	r3, r0
.LBE241:
.LBE245:
	.loc 1 136 1 view .LVU125
	ldr	r0, .L21
.LVL28:
.LBB246:
.LBB242:
	.loc 2 455 39 view .LVU126
	lsls	r3, r3, #2
.LBE242:
.LBE246:
	.loc 1 136 1 view .LVU127
	add	r0, r0, r3
	bx	lr
.L22:
	.align	2
.L21:
	.word	1073811776
	.cfi_endproc
.LFE523:
	.size	z_nrf_rtc_timer_compare_evt_address_get, .-z_nrf_rtc_timer_compare_evt_address_get
	.section	.text.z_nrf_rtc_timer_capture_task_address_get,"ax",%progbits
	.align	1
	.global	z_nrf_rtc_timer_capture_task_address_get
	.syntax unified
	.thumb
	.thumb_func
	.type	z_nrf_rtc_timer_capture_task_address_get, %function
z_nrf_rtc_timer_capture_task_address_get:
.LVL29:
.LFB524:
	.loc 1 139 1 is_stmt 1 view -0
	.cfi_startproc
	@ args = 0, pretend = 0, frame = 0
	@ frame_needed = 0, uses_anonymous_args = 0
	@ link register save eliminated.
	.loc 1 150 2 view .LVU129
	.loc 1 151 2 view .LVU130
	.loc 1 153 1 is_stmt 0 view .LVU131
	movs	r0, #0
.LVL30:
	.loc 1 153 1 view .LVU132
	bx	lr
	.cfi_endproc
.LFE524:
	.size	z_nrf_rtc_timer_capture_task_address_get, .-z_nrf_rtc_timer_capture_task_address_get
	.section	.text.z_nrf_rtc_timer_compare_int_lock,"ax",%progbits
	.align	1
	.global	z_nrf_rtc_timer_compare_int_lock
	.syntax unified
	.thumb
	.thumb_func
	.type	z_nrf_rtc_timer_compare_int_lock, %function
z_nrf_rtc_timer_compare_int_lock:
.LVL31:
.LFB526:
	.loc 1 169 1 is_stmt 1 view -0
	.cfi_startproc
	@ args = 0, pretend = 0, frame = 0
	@ frame_needed = 0, uses_anonymous_args = 0
	@ link register save eliminated.
	.loc 1 170 4 view .LVU134
	.loc 1 170 5 view .LVU135
	.loc 1 172 2 view .LVU136
	.loc 1 172 9 is_stmt 0 view .LVU137
	b	compare_int_lock
.LVL32:
	.loc 1 172 9 view .LVU138
	.cfi_endproc
.LFE526:
	.size	z_nrf_rtc_timer_compare_int_lock, .-z_nrf_rtc_timer_compare_int_lock
	.section	.text.z_nrf_rtc_timer_compare_int_unlock,"ax",%progbits
	.align	1
	.global	z_nrf_rtc_timer_compare_int_unlock
	.syntax unified
	.thumb
	.thumb_func
	.type	z_nrf_rtc_timer_compare_int_unlock, %function
z_nrf_rtc_timer_compare_int_unlock:
.LVL33:
.LFB528:
	.loc 1 187 1 is_stmt 1 view -0
	.cfi_startproc
	@ args = 0, pretend = 0, frame = 0
	@ frame_needed = 0, uses_anonymous_args = 0
	@ link register save eliminated.
	.loc 1 188 4 view .LVU140
	.loc 1 188 5 view .LVU141
	.loc 1 190 2 view .LVU142
	b	compare_int_unlock
.LVL34:
	.loc 1 190 2 is_stmt 0 view .LVU143
	.cfi_endproc
.LFE528:
	.size	z_nrf_rtc_timer_compare_int_unlock, .-z_nrf_rtc_timer_compare_int_unlock
	.section	.text.z_nrf_rtc_timer_compare_read,"ax",%progbits
	.align	1
	.global	z_nrf_rtc_timer_compare_read
	.syntax unified
	.thumb
	.thumb_func
	.type	z_nrf_rtc_timer_compare_read, %function
z_nrf_rtc_timer_compare_read:
.LVL35:
.LFB529:
	.loc 1 194 1 is_stmt 1 view -0
	.cfi_startproc
	@ args = 0, pretend = 0, frame = 0
	@ frame_needed = 0, uses_anonymous_args = 0
	@ link register save eliminated.
	.loc 1 195 4 view .LVU145
	.loc 1 195 5 view .LVU146
	.loc 1 197 2 view .LVU147
.LBB247:
.LBI247:
	.loc 2 342 24 view .LVU148
.LBB248:
	.loc 2 344 5 view .LVU149
	.loc 2 344 21 is_stmt 0 view .LVU150
	ldr	r3, .L27
	add	r0, r0, #336
.LVL36:
	.loc 2 344 21 view .LVU151
	ldr	r0, [r3, r0, lsl #2]
.LVL37:
	.loc 2 344 21 view .LVU152
.LBE248:
.LBE247:
	.loc 1 198 1 view .LVU153
	bx	lr
.L28:
	.align	2
.L27:
	.word	1073811456
	.cfi_endproc
.LFE529:
	.size	z_nrf_rtc_timer_compare_read, .-z_nrf_rtc_timer_compare_read
	.section	.text.z_nrf_rtc_timer_abort,"ax",%progbits
	.align	1
	.global	z_nrf_rtc_timer_abort
	.syntax unified
	.thumb
	.thumb_func
	.type	z_nrf_rtc_timer_abort, %function
z_nrf_rtc_timer_abort:
.LVL38:
.LFB536:
	.loc 1 412 1 is_stmt 1 view -0
	.cfi_startproc
	@ args = 0, pretend = 0, frame = 0
	@ frame_needed = 0, uses_anonymous_args = 0
	.loc 1 413 4 view .LVU155
	.loc 1 413 5 view .LVU156
	.loc 1 415 1 view .LVU157
	.loc 1 412 1 is_stmt 0 view .LVU158
	push	{r4, r6, r7, lr}
	.cfi_def_cfa_offset 16
	.cfi_offset 4, -16
	.cfi_offset 6, -12
	.cfi_offset 7, -8
	.cfi_offset 14, -4
	.loc 1 412 1 view .LVU159
	mov	r4, r0
	.loc 1 415 12 view .LVU160
	bl	compare_int_lock
.LVL39:
	.loc 1 417 28 view .LVU161
	ldr	r3, .L31
	.loc 1 415 12 view .LVU162
	mov	r1, r0
.LVL40:
	.loc 1 417 2 is_stmt 1 view .LVU163
	.loc 1 417 28 is_stmt 0 view .LVU164
	add	r3, r3, r4, lsl #4
	mov	r6, #-1
	mov	r7, #-1
	.loc 1 418 2 view .LVU165
	mov	r0, r4
	.loc 1 417 28 view .LVU166
	strd	r6, [r3, #8]
	.loc 1 418 2 is_stmt 1 view .LVU167
	bl	event_clear
.LVL41:
	.loc 1 419 2 view .LVU168
.LBB255:
.LBI255:
	.loc 1 93 13 view .LVU169
.LBB256:
	.loc 1 95 2 view .LVU170
.LBB257:
.LBB258:
	.loc 2 450 21 is_stmt 0 view .LVU171
	ldr	r2, .L31+4
.LBE258:
.LBE257:
	.loc 1 95 2 view .LVU172
	mov	r3, #65536
	lsls	r3, r3, r4
.LVL42:
.LBB260:
.LBI257:
	.loc 2 448 20 is_stmt 1 view .LVU173
.LBB259:
	.loc 2 450 5 view .LVU174
	.loc 2 450 21 is_stmt 0 view .LVU175
	str	r3, [r2, #840]
.LVL43:
	.loc 2 450 21 view .LVU176
.LBE259:
.LBE260:
.LBE256:
.LBE255:
	.loc 1 420 2 is_stmt 1 view .LVU177
.LBB261:
.LBI261:
	.loc 4 319 28 view .LVU178
.LBB262:
	.loc 4 321 2 view .LVU179
.LBE262:
.LBE261:
	.loc 1 420 42 is_stmt 0 view .LVU180
	movs	r3, #1
	lsls	r3, r3, r4
.LBB265:
.LBB263:
	.loc 4 321 9 view .LVU181
	ldr	r2, .L31+8
	dmb	ish
.LBE263:
.LBE265:
	.loc 1 420 36 view .LVU182
	mvns	r3, r3
.LVL44:
.L30:
.LBB266:
.LBB264:
	.loc 4 321 9 view .LVU183
	ldrex	r6, [r2]
	ands	r6, r6, r3
	strex	r4, r6, [r2]
	cmp	r4, #0
	bne	.L30
	dmb	ish
.LVL45:
	.loc 4 321 9 view .LVU184
.LBE264:
.LBE266:
	.loc 1 422 2 is_stmt 1 view .LVU185
	.loc 1 423 1 is_stmt 0 view .LVU186
	pop	{r4, r6, r7, lr}
	.cfi_restore 14
	.cfi_restore 7
	.cfi_restore 6
	.cfi_restore 4
	.cfi_def_cfa_offset 0
	.loc 1 422 2 view .LVU187
	b	compare_int_unlock
.LVL46:
.L32:
	.loc 1 422 2 view .LVU188
	.align	2
.L31:
	.word	cc_data
	.word	1073811456
	.word	force_isr_mask
	.cfi_endproc
.LFE536:
	.size	z_nrf_rtc_timer_abort, .-z_nrf_rtc_timer_abort
	.section	.text.z_nrf_rtc_timer_read,"ax",%progbits
	.align	1
	.global	z_nrf_rtc_timer_read
	.syntax unified
	.thumb
	.thumb_func
	.type	z_nrf_rtc_timer_read, %function
z_nrf_rtc_timer_read:
.LFB537:
	.loc 1 426 1 is_stmt 1 view -0
	.cfi_startproc
	@ args = 0, pretend = 0, frame = 0
	@ frame_needed = 0, uses_anonymous_args = 0
	@ link register save eliminated.
	.loc 1 427 2 view .LVU190
	.loc 1 427 18 is_stmt 0 view .LVU191
	ldr	r3, .L35
	ldr	r0, [r3]
	.loc 1 427 11 view .LVU192
	lsrs	r1, r0, #8
	lsls	r0, r0, #24
.LVL47:
	.loc 1 429 2 is_stmt 1 view .LVU193
.LBB267:
.LBI267:
	.loc 5 38 51 view .LVU194
	.loc 5 41 2 view .LVU195
.LBB268:
.LBI268:
	.loc 6 19 51 view .LVU196
	.loc 6 21 2 view .LVU197
.LBB269:
.LBI269:
	.loc 7 280 51 view .LVU198
.LBB270:
	.loc 7 282 3 view .LVU199
	.syntax unified
@ 282 "/home/g/mise-work/zmk-firmware/zmk/modules/hal/cmsis/CMSIS/Core/Include/cmsis_gcc.h" 1
	dmb 0xF
@ 0 "" 2
	.thumb
	.syntax unified
.LBE270:
.LBE269:
.LBE268:
.LBE267:
	.loc 1 431 2 view .LVU200
.LBB271:
.LBI271:
	.loc 1 98 17 view .LVU201
	.loc 1 100 2 view .LVU202
.LVL48:
.LBB272:
.LBI272:
	.loc 2 403 24 view .LVU203
.LBB273:
	.loc 2 405 6 view .LVU204
	.loc 2 405 18 is_stmt 0 view .LVU205
	ldr	r3, .L35+4
	ldr	r3, [r3, #1284]
.LVL49:
	.loc 2 405 18 view .LVU206
.LBE273:
.LBE272:
.LBE271:
	.loc 1 433 2 is_stmt 1 view .LVU207
	.loc 1 433 6 is_stmt 0 view .LVU208
	adds	r0, r3, r0
.LVL50:
	.loc 1 433 6 view .LVU209
	adc	r1, r1, #0
.LVL51:
	.loc 1 435 2 is_stmt 1 view .LVU210
	.loc 1 435 5 is_stmt 0 view .LVU211
	cmp	r3, #1048576
	bcs	.L33
	.loc 1 442 3 is_stmt 1 view .LVU212
	.loc 1 442 11 is_stmt 0 view .LVU213
	ldr	r3, .L35+8
.LVL52:
	.loc 1 442 11 view .LVU214
	ldrd	r2, [r3]
	.loc 1 442 6 view .LVU215
	cmp	r0, r2
	sbcs	r3, r1, r3
	bcs	.L33
	.loc 1 444 4 is_stmt 1 view .LVU216
	.loc 1 444 8 is_stmt 0 view .LVU217
	adds	r0, r0, #16777216
.LVL53:
	.loc 1 444 8 view .LVU218
	adc	r1, r1, #0
.LVL54:
	.loc 1 450 2 is_stmt 1 view .LVU219
	.loc 1 452 2 view .LVU220
.L33:
	.loc 1 453 1 is_stmt 0 view .LVU221
	bx	lr
.L36:
	.align	2
.L35:
	.word	overflow_cnt
	.word	1073811456
	.word	anchor
	.cfi_endproc
.LFE537:
	.size	z_nrf_rtc_timer_read, .-z_nrf_rtc_timer_read
	.section	.text.z_nrf_rtc_timer_get_ticks,"ax",%progbits
	.align	1
	.global	z_nrf_rtc_timer_get_ticks
	.syntax unified
	.thumb
	.thumb_func
	.type	z_nrf_rtc_timer_get_ticks, %function
z_nrf_rtc_timer_get_ticks:
.LVL55:
.LFB530:
	.loc 1 201 1 is_stmt 1 view -0
	.cfi_startproc
	@ args = 0, pretend = 0, frame = 0
	@ frame_needed = 0, uses_anonymous_args = 0
	.loc 1 201 1 is_stmt 0 view .LVU223
	push	{r3, r4, r5, r6, r7, r8, r9, r10, fp, lr}
	.cfi_def_cfa_offset 40
	.cfi_offset 3, -40
	.cfi_offset 4, -36
	.cfi_offset 5, -32
	.cfi_offset 6, -28
	.cfi_offset 7, -24
	.cfi_offset 8, -20
	.cfi_offset 9, -16
	.cfi_offset 10, -12
	.cfi_offset 11, -8
	.cfi_offset 14, -4
	.loc 1 201 1 view .LVU224
	mov	r10, r0
.LVL56:
	.loc 1 201 1 view .LVU225
	mov	r6, r1
	.loc 1 201 1 view .LVU226
	mov	r7, r0
.LVL57:
	.loc 1 201 1 view .LVU227
	mov	fp, r1
.LVL58:
.L38:
	.loc 1 202 2 is_stmt 1 discriminator 1 view .LVU228
	.loc 1 203 2 discriminator 1 view .LVU229
	.loc 1 204 2 discriminator 1 view .LVU230
	.loc 1 205 2 discriminator 1 view .LVU231
	.loc 1 207 2 discriminator 1 view .LVU232
	.loc 1 208 3 discriminator 1 view .LVU233
	.loc 1 208 15 is_stmt 0 discriminator 1 view .LVU234
	bl	z_nrf_rtc_timer_read
.LVL59:
	mov	r4, r0
	mov	r5, r1
.LVL60:
	.loc 1 209 3 is_stmt 1 discriminator 1 view .LVU235
	.loc 1 209 15 is_stmt 0 discriminator 1 view .LVU236
	bl	sys_clock_tick_get
.LVL61:
	.loc 1 209 15 discriminator 1 view .LVU237
	mov	r8, r0
	mov	r9, r1
.LVL62:
	.loc 1 210 21 is_stmt 1 discriminator 1 view .LVU238
	.loc 1 210 24 is_stmt 0 discriminator 1 view .LVU239
	bl	z_nrf_rtc_timer_read
.LVL63:
	.loc 1 210 21 discriminator 1 view .LVU240
	cmp	r1, r5
	it	eq
	cmpeq	r0, r4
	bne	.L38
	.loc 1 212 2 is_stmt 1 view .LVU241
	.loc 1 212 12 is_stmt 0 view .LVU242
	mvn	r3, #1
	subs	r3, r3, r7
	mov	r2, #-1
	sbc	r2, r2, fp
.LVL64:
	.loc 1 213 2 is_stmt 1 view .LVU243
	.loc 1 213 5 is_stmt 0 view .LVU244
	cmp	r2, #0
	ldr	ip, .L44
	bge	.L39
	.loc 1 215 3 is_stmt 1 view .LVU245
	.loc 1 216 11 is_stmt 0 view .LVU246
	cmp	r10, ip
	sbcs	r3, r6, #0
.LVL65:
	.loc 1 216 11 view .LVU247
	bge	.L42
	.loc 1 216 11 discriminator 1 view .LVU248
	adds	r0, r7, r4
	adc	r1, r5, r6
.L37:
	.loc 1 227 1 view .LVU249
	pop	{r3, r4, r5, r6, r7, r8, r9, r10, fp, pc}
.LVL66:
.L39:
	.loc 1 220 2 is_stmt 1 view .LVU250
	.loc 1 220 9 is_stmt 0 view .LVU251
	subs	r0, r3, r8
	sbc	r1, r2, r9
.LVL67:
	.loc 1 222 2 is_stmt 1 view .LVU252
	.loc 1 222 5 is_stmt 0 view .LVU253
	cmp	r0, ip
	sbcs	r3, r1, #0
.LVL68:
	.loc 1 222 5 view .LVU254
	bge	.L42
	.loc 1 226 2 is_stmt 1 view .LVU255
	.loc 1 226 19 is_stmt 0 view .LVU256
	adds	r0, r0, r4
.LVL69:
	.loc 1 226 19 view .LVU257
	adc	r1, r5, r1
.LVL70:
	.loc 1 226 19 view .LVU258
	b	.L37
.LVL71:
.L42:
	.loc 1 216 11 view .LVU259
	mvn	r0, #21
	mov	r1, #-1
	b	.L37
.L45:
	.align	2
.L44:
	.word	16777217
	.cfi_endproc
.LFE530:
	.size	z_nrf_rtc_timer_get_ticks, .-z_nrf_rtc_timer_get_ticks
	.section	.text.compare_set,"ax",%progbits
	.align	1
	.syntax unified
	.thumb
	.thumb_func
	.type	compare_set, %function
compare_set:
.LVL72:
.LFB533:
	.loc 1 381 1 is_stmt 1 view -0
	.cfi_startproc
	@ args = 12, pretend = 0, frame = 16
	@ frame_needed = 0, uses_anonymous_args = 0
	.loc 1 382 1 view .LVU261
	.loc 1 384 2 view .LVU262
	.loc 1 381 1 is_stmt 0 view .LVU263
	push	{r4, r5, r6, r7, r8, r9, r10, fp, lr}
	.cfi_def_cfa_offset 36
	.cfi_offset 4, -36
	.cfi_offset 5, -32
	.cfi_offset 6, -28
	.cfi_offset 7, -24
	.cfi_offset 8, -20
	.cfi_offset 9, -16
	.cfi_offset 10, -12
	.cfi_offset 11, -8
	.cfi_offset 14, -4
	sub	sp, sp, #20
	.cfi_def_cfa_offset 56
	.loc 1 381 1 view .LVU264
	mov	r6, r2
	mov	r7, r3
	ldrb	r10, [sp, #64]	@ zero_extendqisi2
	mov	r4, r0
	.loc 1 384 8 view .LVU265
	bl	compare_int_lock
.LVL73:
	.loc 1 384 8 view .LVU266
	str	r0, [sp, #4]
.LVL74:
	.loc 1 386 2 is_stmt 1 view .LVU267
.LBB310:
.LBI310:
	.loc 1 342 12 view .LVU268
.LBB311:
	.loc 1 346 2 view .LVU269
	.loc 1 347 2 view .LVU270
.LBB312:
.LBI312:
	.loc 1 103 17 view .LVU271
.LBB313:
	.loc 1 106 2 view .LVU272
	.loc 1 106 2 is_stmt 0 view .LVU273
.LBE313:
.LBE312:
	.loc 1 348 2 is_stmt 1 view .LVU274
	.loc 1 348 23 is_stmt 0 view .LVU275
	bl	z_nrf_rtc_timer_read
.LVL75:
	.loc 1 350 2 is_stmt 1 view .LVU276
	.loc 1 350 5 is_stmt 0 view .LVU277
	cmp	r0, r6
	sbcs	r3, r1, r7
	bcs	.L47
	.loc 1 351 3 is_stmt 1 view .LVU278
	.loc 1 351 6 is_stmt 0 view .LVU279
	ldr	r3, .L62
	.loc 1 351 19 view .LVU280
	subs	r0, r6, r0
.LVL76:
	.loc 1 351 19 view .LVU281
	sbc	r1, r7, r1
	.loc 1 351 6 view .LVU282
	cmp	r0, r3
	sbcs	r1, r1, #0
	bcs	.L48
	.loc 1 356 3 is_stmt 1 view .LVU283
	.loc 1 356 35 is_stmt 0 view .LVU284
	ldr	r3, .L62+4
	add	r3, r3, r4, lsl #4
	ldrd	r2, [r3, #8]
	.loc 1 356 6 view .LVU285
	cmp	r7, r3
	it	eq
	cmpeq	r6, r2
	beq	.L50
.LBB315:
.LBB316:
.LBB317:
.LBB318:
.LBB319:
.LBB320:
	.loc 2 450 21 view .LVU286
	ldr	r1, .L62+8
.LBE320:
.LBE319:
	.loc 1 95 2 view .LVU287
	mov	r8, #65536
.LBE318:
.LBE317:
.LBB328:
.LBB329:
.LBB330:
	.loc 1 80 105 view .LVU288
	add	r5, r4, #80
.LBE330:
.LBE329:
.LBE328:
.LBB384:
.LBB325:
	.loc 1 95 2 view .LVU289
	lsl	r8, r8, r4
.LBE325:
.LBE384:
.LBB385:
.LBB350:
.LBB345:
	.loc 1 80 105 view .LVU290
	lsls	r5, r5, #2
.LBE345:
.LBE350:
.LBE385:
.LBB386:
.LBB326:
.LBB323:
.LBB321:
	.loc 2 450 21 view .LVU291
	str	r8, [r1, #840]
.LVL77:
	.loc 2 450 21 view .LVU292
.LBE321:
.LBE323:
.LBE326:
.LBE386:
	.loc 1 280 2 view .LVU293
	mov	r0, r4
.LBB387:
.LBB351:
.LBB346:
.LBB331:
.LBB332:
	.loc 2 394 12 view .LVU294
	uxth	r5, r5
.LBE332:
.LBE331:
.LBE346:
.LBE351:
.LBE387:
	.loc 1 280 2 view .LVU295
	bl	event_clear
.LVL78:
.LBE316:
.LBE315:
.LBB393:
.LBB314:
	.loc 1 106 23 view .LVU296
	bic	fp, r6, #-16777216
.LBE314:
.LBE393:
	.loc 1 360 4 is_stmt 1 view .LVU297
.LVL79:
.LBB394:
.LBI315:
	.loc 1 250 12 view .LVU298
.LBB392:
	.loc 1 252 2 view .LVU299
	.loc 1 257 2 view .LVU300
	.loc 1 268 2 view .LVU301
	.loc 1 269 2 view .LVU302
	.loc 1 270 2 view .LVU303
	.loc 1 279 2 view .LVU304
.LBB388:
.LBI317:
	.loc 1 93 13 view .LVU305
.LBB327:
	.loc 1 95 2 view .LVU306
.LBB324:
.LBI319:
	.loc 2 448 20 view .LVU307
.LBB322:
	.loc 2 450 5 view .LVU308
	.loc 2 450 5 is_stmt 0 view .LVU309
.LBE322:
.LBE324:
.LBE327:
.LBE388:
	.loc 1 280 2 is_stmt 1 view .LVU310
.LBB389:
.LBB352:
.LBB347:
.LBB342:
.LBB339:
.LBB333:
.LBB334:
	.loc 3 283 18 is_stmt 0 view .LVU311
	add	r5, r5, #1073741824
.LBE334:
.LBE333:
.LBE339:
.LBE342:
.LBE347:
.LBE352:
.LBB353:
.LBB354:
.LBB355:
.LBB356:
	.loc 2 339 19 view .LVU312
	add	r3, r4, #336
.LBE356:
.LBE355:
.LBE354:
.LBE353:
.LBB365:
.LBB348:
.LBB343:
.LBB340:
.LBB337:
.LBB335:
	.loc 3 283 18 view .LVU313
	add	r5, r5, #69632
.LBE335:
.LBE337:
.LBE340:
.LBE343:
.LBE348:
.LBE365:
.LBE389:
	.loc 1 269 11 view .LVU314
	mov	ip, fp
	.loc 1 270 11 view .LVU315
	mov	r9, #3
.LBB390:
.LBB366:
.LBB363:
.LBB360:
.LBB357:
	.loc 2 339 19 view .LVU316
	str	r3, [sp, #8]
.LVL80:
.L55:
	.loc 2 339 19 view .LVU317
.LBE357:
.LBE360:
.LBE363:
.LBE366:
.LBE390:
	.loc 1 282 2 is_stmt 1 view .LVU318
.LBB391:
	.loc 1 283 3 view .LVU319
	.loc 1 285 3 view .LVU320
.LBB367:
.LBI353:
	.loc 1 73 13 view .LVU321
.LBB364:
	.loc 1 75 2 view .LVU322
.LBB361:
.LBB358:
	.loc 2 339 19 is_stmt 0 view .LVU323
	ldr	r2, [sp, #8]
.LBE358:
.LBE361:
	.loc 1 75 2 view .LVU324
	bic	r3, ip, #-16777216
.LVL81:
.LBB362:
.LBI355:
	.loc 2 337 20 is_stmt 1 view .LVU325
.LBB359:
	.loc 2 339 5 view .LVU326
	.loc 2 339 19 is_stmt 0 view .LVU327
	str	r3, [r1, r2, lsl #2]
.LVL82:
	.loc 2 339 19 view .LVU328
.LBE359:
.LBE362:
.LBE364:
.LBE367:
	.loc 1 293 3 is_stmt 1 view .LVU329
.LBB368:
.LBI368:
	.loc 1 88 13 view .LVU330
	.loc 1 90 2 view .LVU331
.LBB369:
.LBI369:
	.loc 2 443 20 view .LVU332
.LBB370:
	.loc 2 445 5 view .LVU333
	.loc 2 445 21 is_stmt 0 view .LVU334
	str	r8, [r1, #836]
.LVL83:
	.loc 2 445 21 view .LVU335
.LBE370:
.LBE369:
.LBE368:
	.loc 1 295 3 is_stmt 1 view .LVU336
.LBB371:
.LBI371:
	.loc 1 98 17 view .LVU337
	.loc 1 100 2 view .LVU338
.LBB372:
.LBI372:
	.loc 2 403 24 view .LVU339
.LBB373:
	.loc 2 405 6 view .LVU340
	.loc 2 405 18 is_stmt 0 view .LVU341
	ldr	r3, [r1, #1284]
.LVL84:
	.loc 2 405 18 view .LVU342
.LBE373:
.LBE372:
.LBE371:
	.loc 1 304 3 is_stmt 1 view .LVU343
.LBB374:
.LBI374:
	.loc 1 68 17 view .LVU344
.LBB375:
	.loc 1 70 2 view .LVU345
	.loc 1 70 2 is_stmt 0 view .LVU346
.LBE375:
.LBE374:
	.loc 1 304 6 view .LVU347
	ldr	r2, .L62+12
.LBB377:
.LBB376:
	.loc 1 70 12 view .LVU348
	mvn	r0, #2
	subs	r0, r0, r3
	add	r0, r0, ip
	.loc 1 70 17 view .LVU349
	bic	r0, r0, #-16777216
.LBE376:
.LBE377:
	.loc 1 304 6 view .LVU350
	cmp	r0, r2
	bls	.L50
	.loc 1 309 4 is_stmt 1 view .LVU351
.LBB378:
.LBI329:
	.loc 1 78 12 view .LVU352
.LBB349:
	.loc 1 80 2 view .LVU353
.LVL85:
.LBB344:
.LBI331:
	.loc 2 392 23 view .LVU354
.LBB341:
	.loc 2 394 5 view .LVU355
.LBB338:
.LBI333:
	.loc 3 281 23 view .LVU356
.LBB336:
	.loc 3 283 5 view .LVU357
	.loc 3 283 17 is_stmt 0 view .LVU358
	ldr	r0, [r5]
.LVL86:
	.loc 3 283 17 view .LVU359
.LBE336:
.LBE338:
.LBE341:
.LBE344:
.LBE349:
.LBE378:
	.loc 1 309 7 view .LVU360
	cbz	r0, .L52
	.loc 1 317 5 is_stmt 1 view .LVU361
.LBB379:
.LBI379:
	.loc 1 98 17 view .LVU362
	.loc 1 100 2 view .LVU363
.LVL87:
.LBB380:
.LBI380:
	.loc 2 403 24 view .LVU364
.LBB381:
	.loc 2 405 6 view .LVU365
	.loc 2 405 18 is_stmt 0 view .LVU366
	ldr	r3, [r1, #1284]
.LVL88:
	.loc 2 405 18 view .LVU367
.LBE381:
.LBE380:
.LBE379:
	.loc 1 318 5 is_stmt 1 view .LVU368
.LBB382:
.LBI382:
	.loc 1 68 17 view .LVU369
.LBB383:
	.loc 1 70 2 view .LVU370
	.loc 1 70 12 is_stmt 0 view .LVU371
	str	r3, [sp, #12]
	sub	r0, r3, fp
	.loc 1 70 17 view .LVU372
	bic	r0, r0, #-16777216
.LBE383:
.LBE382:
	.loc 1 318 8 view .LVU373
	cmp	r0, #8388608
	bls	.L50
	.loc 1 319 6 is_stmt 1 view .LVU374
	mov	r0, r4
	bl	event_clear
.LVL89:
	.loc 1 320 6 view .LVU375
	.loc 1 320 9 is_stmt 0 view .LVU376
	ldr	r3, [sp, #12]
.LVL90:
.L52:
	.loc 1 327 11 is_stmt 1 view .LVU377
	.loc 1 327 14 is_stmt 0 view .LVU378
	cmp	r10, #0
	bne	.L48
.LVL91:
	.loc 1 332 4 is_stmt 1 view .LVU379
	.loc 1 332 11 is_stmt 0 view .LVU380
	add	ip, r9, r3
.LVL92:
	.loc 1 333 4 is_stmt 1 view .LVU381
	.loc 1 333 10 is_stmt 0 view .LVU382
	add	r9, r9, #1
.LVL93:
	.loc 1 333 10 view .LVU383
.LBE391:
	.loc 1 282 2 is_stmt 1 view .LVU384
	.loc 1 282 11 is_stmt 0 view .LVU385
	b	.L55
.LVL94:
.L47:
	.loc 1 282 11 view .LVU386
.LBE392:
.LBE394:
	.loc 1 362 9 is_stmt 1 view .LVU387
	.loc 1 362 12 is_stmt 0 view .LVU388
	cmp	r10, #0
	beq	.L56
.LVL95:
.L48:
	.loc 1 353 11 view .LVU389
	mvn	r5, #21
.LVL96:
.L57:
	.loc 1 353 11 view .LVU390
.LBE311:
.LBE310:
	.loc 1 388 2 is_stmt 1 view .LVU391
	mov	r0, r4
	ldr	r1, [sp, #4]
	bl	compare_int_unlock
.LVL97:
	.loc 1 390 2 view .LVU392
	.loc 1 391 1 is_stmt 0 view .LVU393
	mov	r0, r5
	add	sp, sp, #20
	.cfi_remember_state
	.cfi_def_cfa_offset 36
	@ sp needed
	pop	{r4, r5, r6, r7, r8, r9, r10, fp, pc}
.LVL98:
.L56:
	.cfi_restore_state
.LBB402:
.LBB401:
	.loc 1 364 3 is_stmt 1 view .LVU394
.LBB395:
.LBI395:
	.loc 4 279 28 view .LVU395
.LBB396:
	.loc 4 281 2 view .LVU396
.LBE396:
.LBE395:
	.loc 1 364 35 is_stmt 0 view .LVU397
	movs	r3, #1
.LBB399:
.LBB397:
	.loc 4 281 9 view .LVU398
	ldr	r2, .L62+16
	dmb	ish
.LBE397:
.LBE399:
	.loc 1 364 35 view .LVU399
	lsls	r3, r3, r4
.LVL99:
.L61:
.LBB400:
.LBB398:
	.loc 4 281 9 view .LVU400
	ldrex	r0, [r2]
	orrs	r0, r0, r3
	strex	r1, r0, [r2]
	cmp	r1, #0
	bne	.L61
	dmb	ish
.LVL100:
.L50:
	.loc 4 281 9 view .LVU401
.LBE398:
.LBE400:
	.loc 1 370 3 is_stmt 1 view .LVU402
	.loc 1 370 29 is_stmt 0 view .LVU403
	ldr	r1, .L62+4
	.loc 1 371 26 view .LVU404
	ldr	r0, [sp, #56]
	.loc 1 370 29 view .LVU405
	lsls	r3, r4, #4
	add	r2, r1, r4, lsl #4
	.loc 1 371 26 view .LVU406
	str	r0, [r1, r3]
	.loc 1 372 30 view .LVU407
	ldr	r3, [sp, #60]
	str	r3, [r2, #4]
	.loc 1 370 29 view .LVU408
	strd	r6, [r2, #8]
	.loc 1 371 3 is_stmt 1 view .LVU409
	.loc 1 372 3 view .LVU410
	.loc 1 372 30 is_stmt 0 view .LVU411
	movs	r5, #0
	b	.L57
.L63:
	.align	2
.L62:
	.word	8388609
	.word	cc_data
	.word	1073811456
	.word	8388605
	.word	force_isr_mask
.LBE401:
.LBE402:
	.cfi_endproc
.LFE533:
	.size	compare_set, .-compare_set
	.section	.text.z_nrf_rtc_timer_set,"ax",%progbits
	.align	1
	.global	z_nrf_rtc_timer_set
	.syntax unified
	.thumb
	.thumb_func
	.type	z_nrf_rtc_timer_set, %function
z_nrf_rtc_timer_set:
.LVL101:
.LFB534:
	.loc 1 396 1 is_stmt 1 view -0
	.cfi_startproc
	@ args = 8, pretend = 0, frame = 0
	@ frame_needed = 0, uses_anonymous_args = 0
	.loc 1 397 4 view .LVU413
	.loc 1 397 5 view .LVU414
	.loc 1 399 2 view .LVU415
	.loc 1 396 1 is_stmt 0 view .LVU416
	push	{r0, r1, r2, r3, r4, lr}
	.cfi_def_cfa_offset 24
	.cfi_offset 14, -4
	.loc 1 399 9 view .LVU417
	movs	r1, #0
	str	r1, [sp, #8]
	ldr	r1, [sp, #28]
	str	r1, [sp, #4]
	ldr	r1, [sp, #24]
	str	r1, [sp]
	bl	compare_set
.LVL102:
	.loc 1 400 1 view .LVU418
	add	sp, sp, #20
	.cfi_def_cfa_offset 4
	@ sp needed
	ldr	pc, [sp], #4
	.loc 1 400 1 view .LVU419
	.cfi_endproc
.LFE534:
	.size	z_nrf_rtc_timer_set, .-z_nrf_rtc_timer_set
	.section	.text.z_nrf_rtc_timer_exact_set,"ax",%progbits
	.align	1
	.global	z_nrf_rtc_timer_exact_set
	.syntax unified
	.thumb
	.thumb_func
	.type	z_nrf_rtc_timer_exact_set, %function
z_nrf_rtc_timer_exact_set:
.LVL103:
.LFB535:
	.loc 1 405 1 is_stmt 1 view -0
	.cfi_startproc
	@ args = 8, pretend = 0, frame = 0
	@ frame_needed = 0, uses_anonymous_args = 0
	.loc 1 406 4 view .LVU421
	.loc 1 406 5 view .LVU422
	.loc 1 408 2 view .LVU423
	.loc 1 405 1 is_stmt 0 view .LVU424
	push	{r0, r1, r2, r3, r4, lr}
	.cfi_def_cfa_offset 24
	.cfi_offset 14, -4
	.loc 1 408 9 view .LVU425
	movs	r1, #1
	str	r1, [sp, #8]
	ldr	r1, [sp, #28]
	str	r1, [sp, #4]
	ldr	r1, [sp, #24]
	str	r1, [sp]
	bl	compare_set
.LVL104:
	.loc 1 409 1 view .LVU426
	add	sp, sp, #20
	.cfi_def_cfa_offset 4
	@ sp needed
	ldr	pc, [sp], #4
	.loc 1 409 1 view .LVU427
	.cfi_endproc
.LFE535:
	.size	z_nrf_rtc_timer_exact_set, .-z_nrf_rtc_timer_exact_set
	.section	.text.sys_clock_driver_init,"ax",%progbits
	.align	1
	.syntax unified
	.thumb
	.thumb_func
	.type	sys_clock_driver_init, %function
sys_clock_driver_init:
.LFB552:
	.loc 1 731 1 is_stmt 1 view -0
	.cfi_startproc
	@ args = 0, pretend = 0, frame = 0
	@ frame_needed = 0, uses_anonymous_args = 0
	.loc 1 732 2 view .LVU429
	.loc 1 739 2 view .LVU430
.LBB425:
.LBI425:
	.loc 1 706 13 view .LVU431
.LBB426:
	.loc 1 708 2 view .LVU432
.LVL105:
	.loc 1 716 2 view .LVU433
.LBB427:
.LBI427:
	.loc 2 352 20 view .LVU434
.LBB428:
	.loc 2 354 5 view .LVU435
.LBE428:
.LBE427:
.LBE426:
.LBE425:
	.loc 1 731 1 is_stmt 0 view .LVU436
	push	{r0, r1, r2, r3, r4, r5, r6, lr}
	.cfi_def_cfa_offset 32
	.cfi_offset 4, -16
	.cfi_offset 5, -12
	.cfi_offset 6, -8
	.cfi_offset 14, -4
.LBB434:
.LBB433:
.LBB430:
.LBB429:
	.loc 2 354 21 view .LVU437
	ldr	r4, .L67
	ldr	r3, .L67+4
	str	r3, [r4, #776]
.LVL106:
	.loc 2 354 21 view .LVU438
.LBE429:
.LBE430:
	.loc 1 719 2 is_stmt 1 view .LVU439
.LBB431:
.LBI431:
	.loc 2 448 20 view .LVU440
.LBB432:
	.loc 2 450 5 view .LVU441
	.loc 2 450 21 is_stmt 0 view .LVU442
	str	r3, [r4, #840]
.LVL107:
	.loc 2 450 21 view .LVU443
.LBE432:
.LBE431:
.LBE433:
.LBE434:
	.loc 1 742 2 is_stmt 1 view .LVU444
.LBB435:
.LBI435:
	.loc 2 408 20 view .LVU445
.LBB436:
	.loc 2 410 7 view .LVU446
	.loc 2 410 8 view .LVU447
	.loc 2 411 5 view .LVU448
.LBE436:
.LBE435:
.LBB439:
	.loc 1 744 29 is_stmt 0 view .LVU449
	ldr	r3, .L67+8
.LBE439:
.LBB442:
.LBB437:
	.loc 2 411 22 view .LVU450
	movs	r5, #0
.LBE437:
.LBE442:
.LBB443:
	.loc 1 744 29 view .LVU451
	mov	r0, #-1
	mov	r1, #-1
.LBE443:
.LBB444:
.LBB438:
	.loc 2 411 22 view .LVU452
	str	r5, [r4, #1288]
.LVL108:
	.loc 2 411 22 view .LVU453
.LBE438:
.LBE444:
	.loc 1 743 2 is_stmt 1 view .LVU454
.LBB445:
	.loc 1 743 7 view .LVU455
	.loc 1 743 30 view .LVU456
	.loc 1 744 3 view .LVU457
	.loc 1 744 29 is_stmt 0 view .LVU458
	strd	r0, [r3, #8]
	.loc 1 745 3 is_stmt 1 view .LVU459
.LVL109:
.LBB440:
.LBI440:
	.loc 2 347 20 view .LVU460
.LBB441:
	.loc 2 349 5 view .LVU461
	.loc 2 349 21 is_stmt 0 view .LVU462
	mov	r3, #65536
	str	r3, [r4, #772]
.LVL110:
	.loc 2 349 21 view .LVU463
.LBE441:
.LBE440:
	.loc 1 743 45 is_stmt 1 view .LVU464
	.loc 1 743 30 view .LVU465
.LBE445:
	.loc 1 748 2 view .LVU466
.LBB446:
.LBI446:
	.loc 2 347 20 view .LVU467
.LBB447:
	.loc 2 349 5 view .LVU468
.LBE447:
.LBE446:
.LBB450:
.LBB451:
.LBB452:
	.loc 8 1779 83 is_stmt 0 view .LVU469
	ldr	r3, .L67+12
.LBE452:
.LBE451:
.LBE450:
.LBB459:
.LBB448:
	.loc 2 349 21 view .LVU470
	movs	r6, #2
.LBE448:
.LBE459:
.LBB460:
.LBB456:
.LBB453:
	.loc 8 1779 83 view .LVU471
	mov	r2, #131072
.LBE453:
.LBE456:
.LBE460:
.LBB461:
	.loc 1 752 148 view .LVU472
	movs	r1, #1
.LBE461:
.LBB462:
.LBB449:
	.loc 2 349 21 view .LVU473
	str	r6, [r4, #772]
.LVL111:
	.loc 2 349 21 view .LVU474
.LBE449:
.LBE462:
	.loc 1 750 2 is_stmt 1 view .LVU475
.LBB463:
.LBI450:
	.loc 8 1775 20 view .LVU476
	.loc 8 1777 3 view .LVU477
.LBB457:
.LBI451:
	.loc 8 1775 20 view .LVU478
.LBB454:
	.loc 8 1779 5 view .LVU479
.LBE454:
.LBE457:
.LBE463:
.LBB464:
	.loc 1 752 148 is_stmt 0 view .LVU480
	movs	r0, #17
.LBE464:
.LBB465:
.LBB458:
.LBB455:
	.loc 8 1779 83 view .LVU481
	str	r2, [r3, #384]
.LVL112:
	.loc 8 1779 83 view .LVU482
.LBE455:
.LBE458:
.LBE465:
.LBB466:
	.loc 1 752 4 is_stmt 1 view .LVU483
	.loc 1 752 101 view .LVU484
	.loc 1 752 278 view .LVU485
	.loc 1 752 148 view .LVU486
	mov	r2, r5
	bl	z_arm_irq_priority_set
.LVL113:
.LBE466:
	.loc 1 753 25 view .LVU487
	.loc 1 754 2 view .LVU488
	movs	r0, #17
	bl	arch_irq_enable
.LVL114:
	.loc 1 756 2 view .LVU489
.LBB467:
.LBI467:
	.loc 2 438 20 view .LVU490
.LBB468:
	.loc 2 440 5 view .LVU491
.LBE468:
.LBE467:
	.loc 1 759 11 is_stmt 0 view .LVU492
	ldr	r2, .L67+16
.LBB470:
.LBB469:
	.loc 2 440 52 view .LVU493
	movs	r3, #1
	str	r3, [r4, #8]
.LVL115:
	.loc 2 440 52 view .LVU494
.LBE469:
.LBE470:
	.loc 1 757 2 is_stmt 1 view .LVU495
.LBB471:
.LBI471:
	.loc 2 438 20 view .LVU496
.LBB472:
	.loc 2 440 5 view .LVU497
	.loc 2 440 52 is_stmt 0 view .LVU498
	str	r3, [r4]
.LVL116:
	.loc 2 440 52 view .LVU499
.LBE472:
.LBE471:
	.loc 1 759 2 is_stmt 1 view .LVU500
	.loc 1 759 11 is_stmt 0 view .LVU501
	str	r3, [r2]
	.loc 1 760 2 is_stmt 1 view .LVU502
	.loc 1 764 2 view .LVU503
.LVL117:
	.loc 1 767 2 view .LVU504
	ldr	r3, .L67+20
	ldr	r2, .L67+24
	str	r3, [sp]
	strd	r5, r5, [sp, #4]
	movs	r3, #0
	mov	r0, r5
	bl	compare_set
.LVL118:
	.loc 1 769 2 view .LVU505
	mov	r0, r6
	bl	z_nrf_clock_control_lf_on
.LVL119:
	.loc 1 771 2 view .LVU506
	.loc 1 772 1 is_stmt 0 view .LVU507
	mov	r0, r5
	add	sp, sp, #16
	.cfi_def_cfa_offset 16
	@ sp needed
	pop	{r4, r5, r6, pc}
.L68:
	.align	2
.L67:
	.word	1073811456
	.word	983043
	.word	cc_data
	.word	-536813312
	.word	int_mask
	.word	sys_clock_timeout_handler
	.word	8388607
	.cfi_endproc
.LFE552:
	.size	sys_clock_driver_init, .-sys_clock_driver_init
	.section	.text.rtc_nrf_isr,"ax",%progbits
	.align	1
	.global	rtc_nrf_isr
	.syntax unified
	.thumb
	.thumb_func
	.type	rtc_nrf_isr, %function
rtc_nrf_isr:
.LVL120:
.LFB543:
	.loc 1 564 1 is_stmt 1 view -0
	.cfi_startproc
	@ args = 0, pretend = 0, frame = 0
	@ frame_needed = 0, uses_anonymous_args = 0
	.loc 1 565 2 view .LVU509
	.loc 1 567 2 view .LVU510
	.loc 1 571 2 view .LVU511
.LBB529:
.LBI529:
	.loc 2 357 24 view .LVU512
.LBB530:
	.loc 2 359 5 view .LVU513
.LBE530:
.LBE529:
	.loc 1 564 1 is_stmt 0 view .LVU514
	push	{r0, r1, r2, r4, r5, r6, r7, r8, r9, lr}
	.cfi_def_cfa_offset 40
	.cfi_offset 4, -28
	.cfi_offset 5, -24
	.cfi_offset 6, -20
	.cfi_offset 7, -16
	.cfi_offset 8, -12
	.cfi_offset 9, -8
	.cfi_offset 14, -4
.LBB532:
.LBB531:
	.loc 2 359 17 view .LVU515
	ldr	r4, .L92
	ldr	r3, [r4, #772]
.LVL121:
	.loc 2 359 17 view .LVU516
.LBE531:
.LBE532:
	.loc 1 571 5 view .LVU517
	lsls	r1, r3, #30
	bpl	.L70
.LVL122:
.LBB533:
.LBI533:
	.loc 2 392 23 is_stmt 1 view .LVU518
	.loc 2 394 5 view .LVU519
.LBB534:
.LBI534:
	.loc 3 281 23 view .LVU520
.LBB535:
	.loc 3 283 5 view .LVU521
	.loc 3 283 17 is_stmt 0 view .LVU522
	ldr	r3, [r4, #260]
.LVL123:
	.loc 3 283 17 view .LVU523
.LBE535:
.LBE534:
.LBE533:
	.loc 1 571 90 view .LVU524
	cbz	r3, .L70
	.loc 1 573 3 is_stmt 1 view .LVU525
.LVL124:
.LBB536:
.LBI536:
	.loc 2 397 20 view .LVU526
.LBB537:
	.loc 2 399 5 view .LVU527
.LBE537:
.LBE536:
	.loc 1 574 15 is_stmt 0 view .LVU528
	ldr	r2, .L92+4
.LBB541:
.LBB540:
	.loc 2 399 66 view .LVU529
	movs	r3, #0
	str	r3, [r4, #260]
	.loc 2 400 5 is_stmt 1 view .LVU530
.LVL125:
.LBB538:
.LBI538:
	.loc 3 186 20 view .LVU531
.LBB539:
	.loc 3 189 5 view .LVU532
	ldr	r3, [r4, #260]
.LVL126:
	.loc 3 189 5 is_stmt 0 view .LVU533
.LBE539:
.LBE538:
.LBE540:
.LBE541:
	.loc 1 574 3 is_stmt 1 view .LVU534
	.loc 1 574 15 is_stmt 0 view .LVU535
	ldr	r3, [r2]
	adds	r3, r3, #1
	str	r3, [r2]
.L70:
.LBB542:
	.loc 1 577 30 is_stmt 1 discriminator 1 view .LVU536
	.loc 1 578 3 discriminator 1 view .LVU537
.LBB543:
.LBI543:
	.loc 1 511 13 discriminator 1 view .LVU538
.LVL127:
	.loc 1 513 2 discriminator 1 view .LVU539
.LBB544:
.LBI544:
	.loc 1 495 12 discriminator 1 view .LVU540
.LBB545:
	.loc 1 497 2 discriminator 1 view .LVU541
.LBB546:
.LBI546:
	.loc 2 357 24 discriminator 1 view .LVU542
.LBB547:
	.loc 2 359 5 discriminator 1 view .LVU543
	.loc 2 359 17 is_stmt 0 discriminator 1 view .LVU544
	ldr	r3, [r4, #772]
.LVL128:
	.loc 2 359 17 discriminator 1 view .LVU545
.LBE547:
.LBE546:
	.loc 1 497 5 discriminator 1 view .LVU546
	lsls	r2, r3, #15
	bpl	.L69
	.loc 1 501 3 is_stmt 1 view .LVU547
.LVL129:
.LBB548:
.LBI548:
	.loc 4 319 28 view .LVU548
.LBB549:
	.loc 4 321 2 view .LVU549
	.loc 4 321 9 is_stmt 0 view .LVU550
	dmb	ish
	ldr	r3, .L92+8
.LVL130:
.L91:
	.loc 4 321 9 view .LVU551
	ldrex	r2, [r3]
	bic	r1, r2, #1
	strex	r0, r1, [r3]
	cmp	r0, #0
	bne	.L91
	dmb	ish
.LVL131:
	.loc 4 321 9 view .LVU552
.LBE549:
.LBE548:
	.loc 1 501 6 view .LVU553
	lsls	r3, r2, #31
	bmi	.L73
.LVL132:
.LBB550:
.LBI550:
	.loc 1 78 12 is_stmt 1 view .LVU554
	.loc 1 80 2 view .LVU555
.LBB551:
.LBI551:
	.loc 2 392 23 view .LVU556
	.loc 2 394 5 view .LVU557
.LBB552:
.LBI552:
	.loc 3 281 23 view .LVU558
.LBB553:
	.loc 3 283 5 view .LVU559
	.loc 3 283 17 is_stmt 0 view .LVU560
	ldr	r3, [r4, #320]
.LVL133:
	.loc 3 283 17 view .LVU561
.LBE553:
.LBE552:
.LBE551:
.LBE550:
	.loc 1 501 73 view .LVU562
	cbz	r3, .L69
.L73:
	.loc 1 503 4 is_stmt 1 view .LVU563
.LVL134:
.LBB554:
.LBI554:
	.loc 1 83 13 view .LVU564
	.loc 1 85 2 view .LVU565
.LBB555:
.LBI555:
	.loc 2 397 20 view .LVU566
.LBB556:
	.loc 2 399 5 view .LVU567
	.loc 2 399 66 is_stmt 0 view .LVU568
	movs	r5, #0
	str	r5, [r4, #320]
	.loc 2 400 5 is_stmt 1 view .LVU569
.LVL135:
.LBB557:
.LBI557:
	.loc 3 186 20 view .LVU570
.LBB558:
	.loc 3 189 5 view .LVU571
	ldr	r3, [r4, #320]
.LVL136:
	.loc 3 189 5 is_stmt 0 view .LVU572
.LBE558:
.LBE557:
.LBE556:
.LBE555:
.LBE554:
.LBE545:
.LBE544:
.LBB559:
	.loc 1 514 3 is_stmt 1 view .LVU573
	.loc 1 515 3 view .LVU574
	.loc 1 516 3 view .LVU575
	.loc 1 517 3 view .LVU576
	.loc 1 518 3 view .LVU577
	.loc 1 520 3 view .LVU578
	.loc 1 520 15 is_stmt 0 view .LVU579
	bl	z_nrf_rtc_timer_read
.LVL137:
	.loc 1 526 3 is_stmt 1 view .LVU580
.LBB560:
.LBI560:
	.loc 1 109 17 view .LVU581
.LBB561:
	.loc 1 111 2 view .LVU582
	.loc 1 113 2 view .LVU583
	.loc 1 117 3 view .LVU584
.LBB562:
.LBI562:
	.file 9 "/home/g/mise-work/zmk-firmware/zmk/zephyr/include/zephyr/arch/arm/asm_inline_gcc.h"
	.loc 9 42 59 view .LVU585
.LBB563:
	.loc 9 44 2 view .LVU586
	.loc 9 57 2 view .LVU587
	.loc 9 59 2 view .LVU588
	.syntax unified
@ 59 "/home/g/mise-work/zmk-firmware/zmk/zephyr/include/zephyr/arch/arm/asm_inline_gcc.h" 1
	mov r3, #32;mrs r2, BASEPRI;msr BASEPRI_MAX, r3;isb;
@ 0 "" 2
.LVL138:
	.loc 9 88 2 view .LVU589
	.loc 9 88 2 is_stmt 0 view .LVU590
	.thumb
	.syntax unified
.LBE563:
.LBE562:
	.loc 1 120 2 is_stmt 1 view .LVU591
	.loc 1 120 2 is_stmt 0 view .LVU592
.LBE561:
.LBE560:
	.loc 1 531 3 is_stmt 1 view .LVU593
	.loc 1 531 15 is_stmt 0 view .LVU594
	ldr	r3, .L92+12
	ldrd	r6, [r3, #8]
.LVL139:
	.loc 1 532 3 is_stmt 1 view .LVU595
	.loc 1 532 6 is_stmt 0 view .LVU596
	cmp	r0, r6
	sbcs	r1, r1, r7
.LVL140:
	.loc 1 532 6 view .LVU597
	bcs	.L74
	.loc 1 547 3 is_stmt 1 view .LVU598
.LVL141:
.LBB564:
.LBI564:
	.loc 1 123 13 view .LVU599
	.loc 1 125 2 view .LVU600
	.loc 1 128 3 view .LVU601
.LBB565:
.LBI565:
	.loc 9 96 51 view .LVU602
.LBB566:
	.loc 9 107 2 view .LVU603
	.syntax unified
@ 107 "/home/g/mise-work/zmk-firmware/zmk/zephyr/include/zephyr/arch/arm/asm_inline_gcc.h" 1
	msr BASEPRI, r2;isb;
@ 0 "" 2
.LVL142:
	.loc 9 107 2 is_stmt 0 view .LVU604
	.thumb
	.syntax unified
.LBE566:
.LBE565:
.LBE564:
	.loc 1 549 3 is_stmt 1 view .LVU605
.L69:
	.loc 1 549 3 is_stmt 0 view .LVU606
.LBE559:
.LBE543:
.LBE542:
	.loc 1 580 1 view .LVU607
	add	sp, sp, #12
	.cfi_remember_state
	.cfi_def_cfa_offset 28
	@ sp needed
	pop	{r4, r5, r6, r7, r8, r9, pc}
.LVL143:
.L74:
	.cfi_restore_state
.LBB580:
.LBB579:
.LBB578:
	.loc 1 533 4 is_stmt 1 view .LVU608
	.loc 1 536 30 is_stmt 0 view .LVU609
	mov	r8, #-1
	mov	r9, #-1
	strd	r8, [r3, #8]
	.loc 1 534 17 view .LVU610
	ldrd	r1, r0, [r3]
.LVL144:
	.loc 1 535 4 is_stmt 1 view .LVU611
	.loc 1 535 27 is_stmt 0 view .LVU612
	str	r5, [r3]
	.loc 1 536 4 is_stmt 1 view .LVU613
	.loc 1 537 4 view .LVU614
.LVL145:
.LBB569:
.LBI569:
	.loc 1 93 13 view .LVU615
	.loc 1 95 2 view .LVU616
.LBB570:
.LBI570:
	.loc 2 448 20 view .LVU617
.LBB571:
	.loc 2 450 5 view .LVU618
	.loc 2 450 21 is_stmt 0 view .LVU619
	mov	r3, #65536
	str	r3, [r4, #840]
.LVL146:
	.loc 2 450 21 view .LVU620
.LBE571:
.LBE570:
.LBE569:
	.loc 1 544 4 is_stmt 1 view .LVU621
.LBB572:
.LBI572:
	.loc 1 83 13 view .LVU622
	.loc 1 85 2 view .LVU623
.LBB573:
.LBI573:
	.loc 2 397 20 view .LVU624
.LBB574:
	.loc 2 399 5 view .LVU625
	.loc 2 399 66 is_stmt 0 view .LVU626
	str	r5, [r4, #320]
	.loc 2 400 5 is_stmt 1 view .LVU627
.LVL147:
.LBB575:
.LBI575:
	.loc 3 186 20 view .LVU628
.LBB576:
	.loc 3 189 5 view .LVU629
	ldr	r3, [r4, #320]
.LVL148:
	.loc 3 189 5 is_stmt 0 view .LVU630
.LBE576:
.LBE575:
.LBE574:
.LBE573:
.LBE572:
	.loc 1 547 3 is_stmt 1 view .LVU631
.LBB577:
	.loc 1 123 13 view .LVU632
	.loc 1 125 2 view .LVU633
	.loc 1 128 3 view .LVU634
.LBB568:
	.loc 9 96 51 view .LVU635
.LBB567:
	.loc 9 107 2 view .LVU636
	.syntax unified
@ 107 "/home/g/mise-work/zmk-firmware/zmk/zephyr/include/zephyr/arch/arm/asm_inline_gcc.h" 1
	msr BASEPRI, r2;isb;
@ 0 "" 2
.LVL149:
	.loc 9 107 2 is_stmt 0 view .LVU637
	.thumb
	.syntax unified
.LBE567:
.LBE568:
.LBE577:
	.loc 1 549 3 is_stmt 1 view .LVU638
	.loc 1 549 6 is_stmt 0 view .LVU639
	cmp	r1, #0
	beq	.L69
	.loc 1 550 4 is_stmt 1 view .LVU640
	str	r0, [sp]
	mov	r2, r6
.LVL150:
	.loc 1 550 4 is_stmt 0 view .LVU641
	mov	r3, r7
	mov	r0, r5
.LVL151:
	.loc 1 550 4 view .LVU642
	blx	r1
.LVL152:
	.loc 1 550 4 view .LVU643
	b	.L69
.L93:
	.align	2
.L92:
	.word	1073811456
	.word	overflow_cnt
	.word	force_isr_mask
	.word	cc_data
.LBE578:
.LBE579:
.LBE580:
	.cfi_endproc
.LFE543:
	.size	rtc_nrf_isr, .-rtc_nrf_isr
	.section	.text.z_nrf_rtc_timer_chan_alloc,"ax",%progbits
	.align	1
	.global	z_nrf_rtc_timer_chan_alloc
	.syntax unified
	.thumb
	.thumb_func
	.type	z_nrf_rtc_timer_chan_alloc, %function
z_nrf_rtc_timer_chan_alloc:
.LFB544:
	.loc 1 583 1 is_stmt 1 view -0
	.cfi_startproc
	@ args = 0, pretend = 0, frame = 0
	@ frame_needed = 0, uses_anonymous_args = 0
	.loc 1 587 21 is_stmt 0 view .LVU645
	ldr	r3, .L101
	.loc 1 583 1 view .LVU646
	push	{r4, r5, r6, lr}
	.cfi_def_cfa_offset 16
	.cfi_offset 4, -16
	.cfi_offset 5, -12
	.cfi_offset 6, -8
	.cfi_offset 14, -4
	.loc 1 591 40 view .LVU647
	movs	r4, #1
.L96:
	.loc 1 584 2 is_stmt 1 view .LVU648
	.loc 1 585 2 view .LVU649
	.loc 1 586 2 view .LVU650
	.loc 1 587 3 view .LVU651
	.loc 1 587 21 is_stmt 0 view .LVU652
	ldr	r0, [r3]
	.loc 1 587 54 view .LVU653
	cbz	r0, .L97
.LBB583:
.LBB584:
	.loc 4 321 9 discriminator 1 view .LVU654
	dmb	ish
.LBE584:
.LBE583:
	.loc 1 587 28 discriminator 1 view .LVU655
	clz	r0, r0
	.loc 1 587 54 discriminator 1 view .LVU656
	rsb	r0, r0, #31
.LVL153:
	.loc 1 588 3 is_stmt 1 discriminator 1 view .LVU657
	.loc 1 591 3 discriminator 1 view .LVU658
.LBB587:
.LBI583:
	.loc 4 319 28 discriminator 1 view .LVU659
.LBB585:
	.loc 4 321 2 discriminator 1 view .LVU660
.LBE585:
.LBE587:
	.loc 1 591 40 is_stmt 0 discriminator 1 view .LVU661
	lsl	r1, r4, r0
	.loc 1 591 34 discriminator 1 view .LVU662
	mvns	r1, r1
.L100:
.LBB588:
.LBB586:
	.loc 4 321 9 discriminator 1 view .LVU663
	ldrex	r2, [r3]
	and	r5, r2, r1
	strex	r6, r5, [r3]
	cmp	r6, #0
	bne	.L100
	dmb	ish
.LVL154:
	.loc 4 321 9 discriminator 1 view .LVU664
.LBE586:
.LBE588:
	.loc 1 592 11 is_stmt 1 discriminator 1 view .LVU665
	lsrs	r2, r2, r0
.LVL155:
	.loc 1 592 11 is_stmt 0 discriminator 1 view .LVU666
	lsls	r2, r2, #31
	bpl	.L96
.LVL156:
.L94:
	.loc 1 595 1 view .LVU667
	pop	{r4, r5, r6, pc}
.L97:
	.loc 1 589 11 view .LVU668
	mvn	r0, #11
	b	.L94
.L102:
	.align	2
.L101:
	.word	alloc_mask
	.cfi_endproc
.LFE544:
	.size	z_nrf_rtc_timer_chan_alloc, .-z_nrf_rtc_timer_chan_alloc
	.section	.text.z_nrf_rtc_timer_chan_free,"ax",%progbits
	.align	1
	.global	z_nrf_rtc_timer_chan_free
	.syntax unified
	.thumb
	.thumb_func
	.type	z_nrf_rtc_timer_chan_free, %function
z_nrf_rtc_timer_chan_free:
.LVL157:
.LFB545:
	.loc 1 598 1 is_stmt 1 view -0
	.cfi_startproc
	@ args = 0, pretend = 0, frame = 0
	@ frame_needed = 0, uses_anonymous_args = 0
	@ link register save eliminated.
	.loc 1 599 4 view .LVU670
	.loc 1 599 5 view .LVU671
	.loc 1 601 2 view .LVU672
.LBB591:
.LBI591:
	.loc 4 279 28 view .LVU673
.LBB592:
	.loc 4 281 2 view .LVU674
.LBE592:
.LBE591:
	.loc 1 601 30 is_stmt 0 view .LVU675
	movs	r3, #1
.LBB595:
.LBB593:
	.loc 4 281 9 view .LVU676
	ldr	r2, .L105
	dmb	ish
.LBE593:
.LBE595:
	.loc 1 601 30 view .LVU677
	lsls	r3, r3, r0
.LVL158:
.L104:
.LBB596:
.LBB594:
	.loc 4 281 9 view .LVU678
	ldrex	r0, [r2]
	orrs	r0, r0, r3
	strex	r1, r0, [r2]
	cmp	r1, #0
	bne	.L104
	dmb	ish
.LVL159:
	.loc 4 281 9 view .LVU679
.LBE594:
.LBE596:
	.loc 1 602 1 view .LVU680
	bx	lr
.L106:
	.align	2
.L105:
	.word	alloc_mask
	.cfi_endproc
.LFE545:
	.size	z_nrf_rtc_timer_chan_free, .-z_nrf_rtc_timer_chan_free
	.section	.text.z_nrf_rtc_timer_trigger_overflow,"ax",%progbits
	.align	1
	.global	z_nrf_rtc_timer_trigger_overflow
	.syntax unified
	.thumb
	.thumb_func
	.type	z_nrf_rtc_timer_trigger_overflow, %function
z_nrf_rtc_timer_trigger_overflow:
.LFB546:
	.loc 1 606 1 is_stmt 1 view -0
	.cfi_startproc
	@ args = 0, pretend = 0, frame = 0
	@ frame_needed = 0, uses_anonymous_args = 0
	@ link register save eliminated.
	.loc 1 607 2 view .LVU682
	.loc 1 608 2 view .LVU683
.LVL160:
	.loc 1 610 2 view .LVU684
	.loc 1 612 3 view .LVU685
	.loc 1 638 1 is_stmt 0 view .LVU686
	mvn	r0, #133
	bx	lr
	.cfi_endproc
.LFE546:
	.size	z_nrf_rtc_timer_trigger_overflow, .-z_nrf_rtc_timer_trigger_overflow
	.section	.text.sys_clock_set_timeout,"ax",%progbits
	.align	1
	.global	sys_clock_set_timeout
	.syntax unified
	.thumb
	.thumb_func
	.type	sys_clock_set_timeout, %function
sys_clock_set_timeout:
.LVL161:
.LFB547:
	.loc 1 641 1 is_stmt 1 view -0
	.cfi_startproc
	@ args = 0, pretend = 0, frame = 0
	@ frame_needed = 0, uses_anonymous_args = 0
	.loc 1 642 2 view .LVU688
	.loc 1 643 2 view .LVU689
	.loc 1 645 2 view .LVU690
	.loc 1 649 2 view .LVU691
	.loc 1 641 1 is_stmt 0 view .LVU692
	push	{r4, r5, lr}
	.cfi_def_cfa_offset 12
	.cfi_offset 4, -12
	.cfi_offset 5, -8
	.cfi_offset 14, -4
	.loc 1 649 5 view .LVU693
	adds	r3, r0, #1
	ldr	r4, .L113
	.loc 1 641 1 view .LVU694
	sub	sp, sp, #20
	.cfi_def_cfa_offset 32
	.loc 1 649 5 view .LVU695
	beq	.L109
	.loc 1 656 3 is_stmt 1 view .LVU696
	.loc 1 656 131 is_stmt 0 view .LVU697
	cmp	r4, r0
	it	ge
	movge	r4, r0
	cmp	r4, #1
	it	lt
	movlt	r4, #1
.LVL162:
	.loc 1 657 3 is_stmt 1 view .LVU698
	.loc 1 658 3 view .LVU699
.L109:
	.loc 1 661 2 view .LVU700
	.loc 1 661 25 is_stmt 0 view .LVU701
	bl	z_nrf_rtc_timer_read
.LVL163:
	.loc 1 661 48 view .LVU702
	ldr	r3, .L113+4
	ldr	r5, .L113
	ldrd	r1, r3, [r3]
	.loc 1 661 11 view .LVU703
	subs	r0, r0, r1
.LVL164:
	.loc 1 668 2 is_stmt 1 view .LVU704
	.loc 1 668 5 is_stmt 0 view .LVU705
	cmp	r0, #8388608
	bcs	.L112
	.loc 1 675 2 is_stmt 1 view .LVU706
.LVL165:
	.loc 1 676 2 view .LVU707
	.loc 1 683 2 view .LVU708
	.loc 1 675 6 is_stmt 0 view .LVU709
	adds	r2, r4, r0
.LVL166:
	.loc 1 683 5 view .LVU710
	cmp	r2, r5
	it	cs
	movcs	r2, r5
.LVL167:
.L110:
	.loc 1 687 2 is_stmt 1 view .LVU711
	.loc 1 689 2 view .LVU712
	.loc 1 687 11 is_stmt 0 view .LVU713
	adds	r2, r2, r1
.LVL168:
	.loc 1 687 29 view .LVU714
	mov	r0, #0
.LVL169:
	.loc 1 689 2 view .LVU715
	ldr	r1, .L113+8
	str	r1, [sp]
	strd	r0, r0, [sp, #4]
	adc	r3, r3, #0
	bl	compare_set
.LVL170:
	.loc 1 690 1 view .LVU716
	add	sp, sp, #20
	.cfi_remember_state
	.cfi_def_cfa_offset 12
	@ sp needed
	pop	{r4, r5, pc}
.LVL171:
.L112:
	.cfi_restore_state
	.loc 1 684 7 view .LVU717
	mov	r2, r5
	b	.L110
.L114:
	.align	2
.L113:
	.word	8388607
	.word	last_count
	.word	sys_clock_timeout_handler
	.cfi_endproc
.LFE547:
	.size	sys_clock_set_timeout, .-sys_clock_set_timeout
	.section	.text.sys_clock_elapsed,"ax",%progbits
	.align	1
	.global	sys_clock_elapsed
	.syntax unified
	.thumb
	.thumb_func
	.type	sys_clock_elapsed, %function
sys_clock_elapsed:
.LFB548:
	.loc 1 693 1 is_stmt 1 view -0
	.cfi_startproc
	@ args = 0, pretend = 0, frame = 0
	@ frame_needed = 0, uses_anonymous_args = 0
	.loc 1 694 2 view .LVU719
	.loc 1 698 2 view .LVU720
	.loc 1 693 1 is_stmt 0 view .LVU721
	push	{r3, lr}
	.cfi_def_cfa_offset 8
	.cfi_offset 3, -8
	.cfi_offset 14, -4
	.loc 1 698 10 view .LVU722
	bl	z_nrf_rtc_timer_read
.LVL172:
	.loc 1 698 47 view .LVU723
	ldr	r3, .L116
	ldr	r3, [r3]
	.loc 1 699 1 view .LVU724
	subs	r0, r0, r3
	pop	{r3, pc}
.L117:
	.align	2
.L116:
	.word	last_count
	.cfi_endproc
.LFE548:
	.size	sys_clock_elapsed, .-sys_clock_elapsed
	.section	.text.sys_clock_cycle_get_32,"ax",%progbits
	.align	1
	.global	sys_clock_cycle_get_32
	.syntax unified
	.thumb
	.thumb_func
	.type	sys_clock_cycle_get_32, %function
sys_clock_cycle_get_32:
.LFB549:
	.loc 1 702 1 is_stmt 1 view -0
	.cfi_startproc
	@ args = 0, pretend = 0, frame = 0
	@ frame_needed = 0, uses_anonymous_args = 0
	.loc 1 703 2 view .LVU726
	.loc 1 702 1 is_stmt 0 view .LVU727
	push	{r3, lr}
	.cfi_def_cfa_offset 8
	.cfi_offset 3, -8
	.cfi_offset 14, -4
	.loc 1 703 19 view .LVU728
	bl	z_nrf_rtc_timer_read
.LVL173:
	.loc 1 704 1 view .LVU729
	pop	{r3, pc}
	.cfi_endproc
.LFE549:
	.size	sys_clock_cycle_get_32, .-sys_clock_cycle_get_32
	.section	.text.sys_clock_disable,"ax",%progbits
	.align	1
	.global	sys_clock_disable
	.syntax unified
	.thumb
	.thumb_func
	.type	sys_clock_disable, %function
sys_clock_disable:
.LFB551:
	.loc 1 723 1 is_stmt 1 view -0
	.cfi_startproc
	@ args = 0, pretend = 0, frame = 0
	@ frame_needed = 0, uses_anonymous_args = 0
	.loc 1 724 2 view .LVU731
.LVL174:
.LBB609:
.LBI609:
	.loc 2 438 20 view .LVU732
.LBB610:
	.loc 2 440 5 view .LVU733
.LBE610:
.LBE609:
	.loc 1 723 1 is_stmt 0 view .LVU734
	push	{r4, lr}
	.cfi_def_cfa_offset 8
	.cfi_offset 4, -8
	.cfi_offset 14, -4
.LBB612:
.LBB611:
	.loc 2 440 52 view .LVU735
	ldr	r4, .L120
	movs	r3, #1
	str	r3, [r4, #4]
.LVL175:
	.loc 2 440 52 view .LVU736
.LBE611:
.LBE612:
	.loc 1 725 2 is_stmt 1 view .LVU737
	movs	r0, #17
	bl	arch_irq_disable
.LVL176:
	.loc 1 726 2 view .LVU738
.LBB613:
.LBI613:
	.loc 1 706 13 view .LVU739
.LBB614:
	.loc 1 708 2 view .LVU740
	.loc 1 716 2 view .LVU741
.LBB615:
.LBI615:
	.loc 2 352 20 view .LVU742
.LBB616:
	.loc 2 354 5 view .LVU743
	.loc 2 354 21 is_stmt 0 view .LVU744
	ldr	r3, .L120+4
	str	r3, [r4, #776]
.LVL177:
	.loc 2 354 21 view .LVU745
.LBE616:
.LBE615:
	.loc 1 719 2 is_stmt 1 view .LVU746
.LBB617:
.LBI617:
	.loc 2 448 20 view .LVU747
.LBB618:
	.loc 2 450 5 view .LVU748
	.loc 2 450 21 is_stmt 0 view .LVU749
	str	r3, [r4, #840]
.LVL178:
	.loc 2 450 21 view .LVU750
.LBE618:
.LBE617:
.LBE614:
.LBE613:
	.loc 1 727 2 is_stmt 1 view .LVU751
.LBB619:
.LBI619:
	.loc 8 1775 20 view .LVU752
	.loc 8 1777 3 view .LVU753
.LBB620:
.LBI620:
	.loc 8 1775 20 view .LVU754
.LBB621:
	.loc 8 1779 5 view .LVU755
	.loc 8 1779 83 is_stmt 0 view .LVU756
	ldr	r3, .L120+8
	mov	r2, #131072
	str	r2, [r3, #384]
.LVL179:
	.loc 8 1779 83 view .LVU757
.LBE621:
.LBE620:
.LBE619:
	.loc 1 728 1 view .LVU758
	pop	{r4, pc}
.L121:
	.align	2
.L120:
	.word	1073811456
	.word	983043
	.word	-536813312
	.cfi_endproc
.LFE551:
	.size	sys_clock_disable, .-sys_clock_disable
	.section	.z_init_PRE_KERNEL_20_0_,"a"
	.align	2
	.type	__init_sys_clock_driver_init, %object
	.size	__init_sys_clock_driver_init, 8
__init_sys_clock_driver_init:
	.word	sys_clock_driver_init
	.word	0
	.section	.intList,"aw"
	.align	2
	.type	__isr_rtc_nrf_isr_irq_0.0, %object
	.size	__isr_rtc_nrf_isr_irq_0.0, 16
__isr_rtc_nrf_isr_irq_0.0:
	.word	17
	.word	0
	.word	rtc_nrf_isr
	.word	0
	.section	.bss.force_isr_mask,"aw",%nobits
	.align	2
	.type	force_isr_mask, %object
	.size	force_isr_mask, 4
force_isr_mask:
	.space	4
	.section	.bss.alloc_mask,"aw",%nobits
	.align	2
	.type	alloc_mask, %object
	.size	alloc_mask, 4
alloc_mask:
	.space	4
	.section	.bss.int_mask,"aw",%nobits
	.align	2
	.type	int_mask, %object
	.size	int_mask, 4
int_mask:
	.space	4
	.section	.bss.cc_data,"aw",%nobits
	.align	3
	.type	cc_data, %object
	.size	cc_data, 16
cc_data:
	.space	16
	.section	.bss.last_count,"aw",%nobits
	.align	3
	.type	last_count, %object
	.size	last_count, 8
last_count:
	.space	8
	.section	.bss.anchor,"aw",%nobits
	.align	3
	.type	anchor, %object
	.size	anchor, 8
anchor:
	.space	8
	.section	.bss.overflow_cnt,"aw",%nobits
	.align	2
	.type	overflow_cnt, %object
	.size	overflow_cnt, 4
overflow_cnt:
	.space	4
	.text
.Letext0:
	.file 10 "/home/g/zephyr-sdk-0.16.3/arm-zephyr-eabi/picolibc/include/machine/_default_types.h"
	.file 11 "/home/g/zephyr-sdk-0.16.3/arm-zephyr-eabi/picolibc/include/sys/_stdint.h"
	.file 12 "/home/g/zephyr-sdk-0.16.3/arm-zephyr-eabi/lib/gcc/arm-zephyr-eabi/12.2.0/include/stddef.h"
	.file 13 "/home/g/mise-work/zmk-firmware/zmk/zephyr/include/zephyr/init.h"
	.file 14 "/home/g/mise-work/zmk-firmware/zmk/zephyr/include/zephyr/device.h"
	.file 15 "/home/g/mise-work/zmk-firmware/zmk/modules/hal/nordic/nrfx/mdk/nrf52840.h"
	.file 16 "/home/g/mise-work/zmk-firmware/zmk/zephyr/include/zephyr/sys/atomic.h"
	.file 17 "/home/g/mise-work/zmk-firmware/zmk/zephyr/include/zephyr/sw_isr_table.h"
	.file 18 "/home/g/mise-work/zmk-firmware/zmk/zephyr/include/zephyr/sys_clock.h"
	.file 19 "/home/g/mise-work/zmk-firmware/zmk/zephyr/include/zephyr/fatal_types.h"
	.file 20 "/home/g/mise-work/zmk-firmware/zmk/zephyr/include/zephyr/kernel.h"
	.file 21 "/home/g/mise-work/zmk-firmware/zmk/zephyr/include/zephyr/drivers/clock_control/nrf_clock_control.h"
	.file 22 "/home/g/mise-work/zmk-firmware/zmk/zephyr/include/zephyr/drivers/timer/nrf_rtc_timer.h"
	.file 23 "/home/g/mise-work/zmk-firmware/zmk/zephyr/include/zephyr/arch/arm/irq.h"
	.file 24 "/home/g/mise-work/zmk-firmware/zmk/zephyr/include/zephyr/drivers/timer/system_timer.h"