	.cpu cortex-m4
	.arch armv7e-m
	.fpu fpv4-sp-d16
	.eabi_attribute 27, 1
	.eabi_attribute 28, 1
	.eabi_attribute 20, 1
	.eabi_attribute 21, 1
	.eabi_attribute 23, 3
	.eabi_attribute 24, 1
	.eabi_attribute 25, 1
	.eabi_attribute 26, 1
	.eabi_attribute 30, 2
	.eabi_attribute 34, 1
	.eabi_attribute 38, 1
	.eabi_attribute 18, 4
	.file	"crypto.c"
	.text
.Ltext0:
	.cfi_sections	.debug_frame
	.file 1 "/home/g/mise-work/zmk-firmware/zmk/zephyr/subsys/bluetooth/controller/crypto/crypto.c"
	.section	.text.bt_rand,"ax",%progbits
	.align	1
	.p2align 2,,3
	.global	bt_rand
	.syntax unified
	.thumb
	.thumb_func
	.type	bt_rand, %function
bt_rand:
.LVL0:
.LFB549:
	.loc 1 19 1 view -0
	.cfi_startproc
	@ args = 0, pretend = 0, frame = 0
	@ frame_needed = 0, uses_anonymous_args = 0
	@ link register save eliminated.
	.loc 1 20 2 view .LVU1
	.loc 1 20 9 is_stmt 0 view .LVU2
	b	lll_csrand_get
.LVL1:
	.loc 1 20 9 view .LVU3
	.cfi_endproc
.LFE549:
	.size	bt_rand, .-bt_rand
	.section	.text.bt_encrypt_le,"ax",%progbits
	.align	1
	.p2align 2,,3
	.global	bt_encrypt_le
	.syntax unified
	.thumb
	.thumb_func
	.type	bt_encrypt_le, %function
bt_encrypt_le:
.LVL2:
.LFB550:
	.loc 1 25 1 is_stmt 1 view -0
	.cfi_startproc
	@ args = 0, pretend = 0, frame = 0
	@ frame_needed = 0, uses_anonymous_args = 0
	.loc 1 26 2 view .LVU5
.LBB2:
	.loc 1 26 7 view .LVU6
.LBE2:
	.loc 1 26 5 view .LVU7
	.loc 1 27 2 view .LVU8
.LBB3:
	.loc 1 27 7 view .LVU9
.LBE3:
	.loc 1 27 5 view .LVU10
	.loc 1 29 2 view .LVU11
	.loc 1 25 1 is_stmt 0 view .LVU12
	push	{r3, lr}
	.cfi_def_cfa_offset 8
	.cfi_offset 3, -8
	.cfi_offset 14, -4
	.loc 1 29 2 view .LVU13
	movs	r3, #0
	bl	ecb_encrypt
.LVL3:
	.loc 1 31 2 is_stmt 1 view .LVU14
.LBB4:
	.loc 1 31 7 view .LVU15
.LBE4:
	.loc 1 31 5 view .LVU16
	.loc 1 33 2 view .LVU17
	.loc 1 34 1 is_stmt 0 view .LVU18
	movs	r0, #0
	pop	{r3, pc}
	.cfi_endproc
.LFE550:
	.size	bt_encrypt_le, .-bt_encrypt_le
	.section	.text.bt_encrypt_be,"ax",%progbits
	.align	1
	.p2align 2,,3
	.global	bt_encrypt_be
	.syntax unified
	.thumb
	.thumb_func
	.type	bt_encrypt_be, %function
bt_encrypt_be:
.LVL4:
.LFB551:
	.loc 1 38 1 is_stmt 1 view -0
	.cfi_startproc
	@ args = 0, pretend = 0, frame = 0
	@ frame_needed = 0, uses_anonymous_args = 0
	.loc 1 39 2 view .LVU20
.LBB5:
	.loc 1 39 7 view .LVU21
.LBE5:
	.loc 1 39 5 view .LVU22
	.loc 1 40 2 view .LVU23
.LBB6:
	.loc 1 40 7 view .LVU24
.LBE6:
	.loc 1 40 5 view .LVU25
	.loc 1 42 2 view .LVU26
	.loc 1 38 1 is_stmt 0 view .LVU27
	push	{r3, lr}
	.cfi_def_cfa_offset 8
	.cfi_offset 3, -8
	.cfi_offset 14, -4
	.loc 1 42 2 view .LVU28
	bl	ecb_encrypt_be
.LVL5:
	.loc 1 44 2 is_stmt 1 view .LVU29
.LBB7:
	.loc 1 44 7 view .LVU30
.LBE7:
	.loc 1 44 5 view .LVU31
	.loc 1 46 2 view .LVU32
	.loc 1 47 1 is_stmt 0 view .LVU33
	movs	r0, #0
	pop	{r3, pc}
	.cfi_endproc
.LFE551:
	.size	bt_encrypt_be, .-bt_encrypt_be
	.global	log_const_bt_ctlr_crypto
	.section	.rodata.str1.4,"aMS",%progbits,1
	.align	2
.LC0:
	.ascii	"bt_ctlr_crypto\000"
	.section	._log_const.static.log_const_bt_ctlr_crypto_,"a"
	.align	2
	.type	log_const_bt_ctlr_crypto, %object
	.size	log_const_bt_ctlr_crypto, 8
log_const_bt_ctlr_crypto:
	.word	.LC0
	.byte	3
	.space	3
	.text
.Letext0:
	.file 2 "/home/g/zephyr-sdk-0.16.3/arm-zephyr-eabi/picolibc/include/machine/_default_types.h"
	.file 3 "/home/g/zephyr-sdk-0.16.3/arm-zephyr-eabi/lib/gcc/arm-zephyr-eabi/12.2.0/include/stddef.h"
	.file 4 "/home/g/zephyr-sdk-0.16.3/arm-zephyr-eabi/picolibc/include/sys/_stdint.h"
	.file 5 "/home/g/mise-work/zmk-firmware/zmk/zephyr/include/zephyr/fatal_types.h"
	.file 6 "/home/g/mise-work/zmk-firmware/zmk/zephyr/include/zephyr/kernel.h"
	.file 7 "/home/g/mise-work/zmk-firmware/zmk/zephyr/include/zephyr/logging/log_instance.h"
	.file 8 "/home/g/mise-work/zmk-firmware/zmk/zephyr/include/zephyr/sys/cbprintf.h"
	.file 9 "/home/g/mise-work/zmk-firmware/zmk/zephyr/include/zephyr/logging/log_msg.h"
	.file 10 "/home/g/mise-work/zmk-firmware/zmk/zephyr/subsys/bluetooth/controller/./hal/ecb.h"
	.file 11 "/home/g/mise-work/zmk-firmware/zmk/zephyr/subsys/bluetooth/controller/./ll_sw/lll.h"