	.cpu cortex-m4
	.arch armv7e-m
	.fpu fpv4-sp-d16
	.eabi_attribute 27, 1
	.eabi_attribute 28, 1
	.eabi_attribute 20, 1
	.eabi_attribute 21, 1
	.eabi_attribute 23, 3
	.eabi_attribute 24, 1
	.eabi_attribute 25, 1
	.eabi_attribute 26, 1
	.eabi_attribute 30, 4
	.eabi_attribute 34, 1
	.eabi_attribute 38, 1
	.eabi_attribute 18, 4
	.file	"usb_descriptor.c"
	.text
.Ltext0:
	.cfi_sections	.debug_frame
	.file 1 "/home/g/mise-work/zmk-firmware/zmk/zephyr/subsys/usb/device/usb_descriptor.c"
	.section	.text.usb_get_str_descriptor_idx,"ax",%progbits
	.align	1
	.global	usb_get_str_descriptor_idx
	.syntax unified
	.thumb
	.thumb_func
	.type	usb_get_str_descriptor_idx, %function
usb_get_str_descriptor_idx:
.LVL0:
.LFB510:
	.loc 1 193 1 view -0
	.cfi_startproc
	@ args = 0, pretend = 0, frame = 0
	@ frame_needed = 0, uses_anonymous_args = 0
	.loc 1 194 2 view .LVU1
	.loc 1 195 2 view .LVU2
	.loc 1 193 1 is_stmt 0 view .LVU3
	push	{r4, lr}
	.cfi_def_cfa_offset 8
	.cfi_offset 4, -8
	.cfi_offset 14, -4
	.loc 1 194 26 view .LVU4
	ldr	r3, .L6
	.loc 1 193 1 view .LVU5
	mov	r1, r0
.LVL1:
	.loc 1 196 2 is_stmt 1 view .LVU6
	.loc 1 198 2 view .LVU7
	.loc 1 196 6 is_stmt 0 view .LVU8
	movs	r0, #0
.LVL2:
.L2:
	.loc 1 198 23 is_stmt 1 view .LVU9
	.loc 1 198 13 is_stmt 0 view .LVU10
	ldrb	r2, [r3]	@ zero_extendqisi2
	.loc 1 198 23 view .LVU11
	cbnz	r2, .L5
	.loc 1 215 9 view .LVU12
	mov	r0, r2
.LVL3:
.L1:
	.loc 1 216 1 view .LVU13
	pop	{r4, pc}
.LVL4:
.L5:
	.loc 1 199 3 is_stmt 1 view .LVU14
	ldrb	r4, [r3, #1]	@ zero_extendqisi2
	cmp	r4, #3
	bne	.L3
	.loc 1 201 4 view .LVU15
	.loc 1 201 7 is_stmt 0 view .LVU16
	cmp	r3, r1
	beq	.L1
	.loc 1 205 4 is_stmt 1 view .LVU17
	.loc 1 205 18 is_stmt 0 view .LVU18
	adds	r0, r0, #1
.LVL5:
	.loc 1 206 4 is_stmt 1 view .LVU19
.L3:
	.loc 1 212 3 view .LVU20
	.loc 1 212 8 is_stmt 0 view .LVU21
	add	r3, r3, r2
.LVL6:
	.loc 1 212 8 view .LVU22
	b	.L2
.L7:
	.align	2
.L6:
	.word	__usb_descriptor_start
	.cfi_endproc
.LFE510:
	.size	usb_get_str_descriptor_idx, .-usb_get_str_descriptor_idx
	.section	.rodata.usb_update_sn_string_descriptor.str1.1,"aMS",%progbits,1
.LC0:
	.ascii	"0123456789ABCDEF\000"
	.section	.text.usb_update_sn_string_descriptor,"ax",%progbits
	.align	1
	.weak	usb_update_sn_string_descriptor
	.syntax unified
	.thumb
	.thumb_func
	.type	usb_update_sn_string_descriptor, %function
usb_update_sn_string_descriptor:
.LFB513:
	.loc 1 305 1 is_stmt 1 view -0
	.cfi_startproc
	@ args = 0, pretend = 0, frame = 40
	@ frame_needed = 0, uses_anonymous_args = 0
	.loc 1 311 2 view .LVU24
.LVL7:
	.loc 1 312 2 view .LVU25
	.loc 1 313 2 view .LVU26
	.loc 1 314 2 view .LVU27
	.loc 1 305 1 is_stmt 0 view .LVU28
	push	{r4, r5, lr}
	.cfi_def_cfa_offset 12
	.cfi_offset 4, -12
	.cfi_offset 5, -8
	.cfi_offset 14, -4
	.loc 1 314 13 view .LVU29
	ldr	r3, .L14
	.loc 1 305 1 view .LVU30
	sub	sp, sp, #44
	.cfi_def_cfa_offset 56
	.loc 1 314 13 view .LVU31
	add	r2, sp, #20
	add	r5, r3, #16
.L9:
	ldr	r0, [r3]	@ unaligned
	ldr	r1, [r3, #4]	@ unaligned
	mov	r4, r2
	stmia	r4!, {r0, r1}
	adds	r3, r3, #8
	cmp	r3, r5
	mov	r2, r4
	bne	.L9
	ldrb	r3, [r3]	@ zero_extendqisi2
	strb	r3, [r4]
	.loc 1 315 2 is_stmt 1 view .LVU32
	.loc 1 317 1 view .LVU33
	.loc 1 317 23 is_stmt 0 view .LVU34
	movs	r2, #16
	movs	r1, #0
	add	r0, sp, #4
	bl	memset
.LVL8:
	.loc 1 318 1 is_stmt 1 view .LVU35
	.loc 1 318 23 is_stmt 0 view .LVU36
	movs	r2, #18
	movs	r1, #0
	ldr	r0, .L14+4
	bl	memset
.LVL9:
	.loc 1 320 2 is_stmt 1 view .LVU37
.LBB447:
.LBI447:
	.file 2 "/home/g/mise-work/zmk-firmware/zmk/app/build/zephyr/include/generated/syscalls/hwinfo.h"
	.loc 2 26 23 view .LVU38
.LBB448:
	.loc 2 35 2 view .LVU39
	.loc 2 35 7 view .LVU40
	.loc 2 35 5 view .LVU41
	.loc 2 36 2 view .LVU42
	.loc 2 36 9 is_stmt 0 view .LVU43
	movs	r1, #16
	add	r0, sp, #4
.LVL10:
	.loc 2 36 9 view .LVU44
	bl	z_impl_hwinfo_get_device_id
.LVL11:
	.loc 2 36 9 view .LVU45
.LBE448:
.LBE447:
	.loc 1 321 2 is_stmt 1 view .LVU46
	.loc 1 321 5 is_stmt 0 view .LVU47
	cmp	r0, #0
	.loc 1 321 5 view .LVU48
	ble	.L10
	.loc 1 322 3 is_stmt 1 view .LVU49
.LVL12:
	.loc 1 323 3 view .LVU50
.LBB449:
	.loc 1 323 8 view .LVU51
	.loc 1 323 44 view .LVU52
.LBE449:
	.loc 1 323 6 view .LVU53
	.loc 1 324 3 view .LVU54
.LBB450:
	.loc 1 324 8 view .LVU55
	.loc 1 324 21 view .LVU56
.LBE450:
	.loc 1 322 42 is_stmt 0 view .LVU57
	cmp	r0, #8
	it	lt
	movlt	r0, #8
.LVL13:
	.loc 1 322 42 view .LVU58
	subs	r0, r0, #9
	add	r3, sp, #4
	ldr	r1, .L14+4
	adds	r2, r3, r0
.LBB451:
	.loc 1 324 12 view .LVU59
	movs	r0, #0
.LVL14:
.L11:
	.loc 1 325 4 is_stmt 1 discriminator 3 view .LVU60
	.loc 1 325 24 is_stmt 0 discriminator 3 view .LVU61
	ldrb	r3, [r2, #1]!	@ zero_extendqisi2
	.loc 1 325 19 discriminator 3 view .LVU62
	add	r4, sp, #40
	add	r4, r4, r3, lsr #4
	.loc 1 326 39 discriminator 3 view .LVU63
	and	r3, r3, #15
	.loc 1 326 23 discriminator 3 view .LVU64
	adds	r3, r3, #40
	add	r3, sp, r3
	.loc 1 324 32 discriminator 3 view .LVU65
	adds	r0, r0, #1
.LVL15:
	.loc 1 325 14 discriminator 3 view .LVU66
	ldrb	r4, [r4, #-20]	@ zero_extendqisi2
	.loc 1 326 18 discriminator 3 view .LVU67
	ldrb	r3, [r3, #-20]	@ zero_extendqisi2
	.loc 1 325 14 discriminator 3 view .LVU68
	strb	r4, [r1]
	.loc 1 326 4 is_stmt 1 discriminator 3 view .LVU69
	.loc 1 324 21 is_stmt 0 discriminator 3 view .LVU70
	cmp	r0, #8
	.loc 1 326 18 discriminator 3 view .LVU71
	strb	r3, [r1, #1]
	.loc 1 324 32 is_stmt 1 discriminator 3 view .LVU72
.LVL16:
	.loc 1 324 21 discriminator 3 view .LVU73
	add	r1, r1, #2
	bne	.L11
.LVL17:
.L10:
	.loc 1 324 21 is_stmt 0 discriminator 3 view .LVU74
.LBE451:
	.loc 1 330 2 is_stmt 1 view .LVU75
	.loc 1 331 1 is_stmt 0 view .LVU76
	ldr	r0, .L14+4
	add	sp, sp, #44
	.cfi_def_cfa_offset 12
	@ sp needed
	pop	{r4, r5, pc}
.L15:
	.align	2
.L14:
	.word	.LC0
	.word	sn.0
	.cfi_endproc
.LFE513:
	.size	usb_update_sn_string_descriptor, .-usb_update_sn_string_descriptor
	.section	.rodata.usb_get_device_descriptor.str1.1,"aMS",%progbits,1
.LC1:
	.ascii	"There is no usb_cfg_data for %p\000"
.LC2:
	.ascii	"Uninitialized usb_cfg_data pointer, corrupted devic"
	.ascii	"e descriptor?\000"
.LC3:
	.ascii	"Failed to validate endpoints\000"
.LC4:
	.ascii	"the new SN descriptor doesn't have the same length "
	.ascii	"as CONFIG_USB_DEVICE_SN\000"
.LC5:
	.ascii	"Incomplete device descriptor\000"
.LC6:
	.ascii	"Failed to fixup USB descriptor\000"
	.section	.text.usb_get_device_descriptor,"ax",%progbits
	.align	1
	.global	usb_get_device_descriptor
	.syntax unified
	.thumb
	.thumb_func
	.type	usb_get_device_descriptor, %function
usb_get_device_descriptor:
.LFB517:
	.loc 1 507 1 is_stmt 1 view -0
	.cfi_startproc
	@ args = 0, pretend = 0, frame = 40
	@ frame_needed = 1, uses_anonymous_args = 0
	.loc 1 508 2 view .LVU78
.LBB646:
	.loc 1 508 7 view .LVU79
.LBE646:
	.loc 1 508 5 view .LVU80
	.loc 1 509 2 view .LVU81
.LBB647:
	.loc 1 509 7 view .LVU82
.LBE647:
	.loc 1 509 5 view .LVU83
	.loc 1 511 2 view .LVU84
.LBB648:
.LBI648:
	.loc 1 393 12 view .LVU85
.LVL18:
	.loc 1 393 12 is_stmt 0 view .LVU86
.LBE648:
	.loc 1 507 1 view .LVU87
	push	{r4, r5, r6, r7, r8, r9, r10, fp, lr}
	.cfi_def_cfa_offset 36
	.cfi_offset 4, -36
	.cfi_offset 5, -32
	.cfi_offset 6, -28
	.cfi_offset 7, -24
	.cfi_offset 8, -20
	.cfi_offset 9, -16
	.cfi_offset 10, -12
	.cfi_offset 11, -8
	.cfi_offset 14, -4
	ldr	r4, .L77
	sub	sp, sp, #44
	.cfi_def_cfa_offset 80
.LBB736:
.LBB649:
	.loc 1 400 10 view .LVU88
	mov	fp, #0
.LBE649:
.LBE736:
	.loc 1 507 1 view .LVU89
	add	r7, sp, #0
	.cfi_def_cfa_register 7
.LVL19:
.L55:
.LBB737:
.LBB733:
	.loc 1 395 2 is_stmt 1 view .LVU90
	.loc 1 396 2 view .LVU91
	.loc 1 397 2 view .LVU92
	.loc 1 398 2 view .LVU93
	.loc 1 399 2 view .LVU94
	.loc 1 400 2 view .LVU95
	.loc 1 401 2 view .LVU96
	.loc 1 403 2 view .LVU97
	.loc 1 400 10 is_stmt 0 view .LVU98
	movs	r6, #0
	.loc 1 401 11 view .LVU99
	mov	r10, #65537
	.loc 1 399 10 view .LVU100
	mov	r9, r6
	.loc 1 397 23 view .LVU101
	mov	r5, r6
	.loc 1 395 29 view .LVU102
	mov	r8, r6
.LVL20:
.L17:
	.loc 1 403 23 is_stmt 1 view .LVU103
	ldrb	r3, [r4]	@ zero_extendqisi2
	cbnz	r3, .L54
	.loc 1 497 2 view .LVU104
	.loc 1 497 5 is_stmt 0 view .LVU105
	ldr	r3, .L77+4
	.loc 1 497 12 view .LVU106
	adds	r4, r4, #2
.LVL21:
	.loc 1 497 5 view .LVU107
	cmp	r4, r3
	bne	.L55
.LBE733:
.LBE737:
	.loc 1 516 9 view .LVU108
	ldr	r0, .L77
.LVL22:
.L16:
	.loc 1 517 1 view .LVU109
	adds	r7, r7, #44
	.cfi_remember_state
	.cfi_def_cfa_offset 36
	mov	sp, r7
	.cfi_def_cfa_register 13
	@ sp needed
	pop	{r4, r5, r6, r7, r8, r9, r10, fp, pc}
.LVL23:
.L54:
	.cfi_restore_state
.LBB738:
.LBB734:
	.loc 1 404 3 is_stmt 1 view .LVU110
	ldrb	r3, [r4, #1]	@ zero_extendqisi2
	cmp	r3, #5
	bhi	.L23
	tbh	[pc, r3, lsl #1]
.L20:
	.2byte	(.L22-.L20)/2
	.2byte	(.L24-.L20)/2
	.2byte	(.L57-.L20)/2
	.2byte	(.L22-.L20)/2
	.2byte	(.L21-.L20)/2
	.2byte	(.L19-.L20)/2
	.p2align 1
.L24:
	.loc 1 406 4 view .LVU111
.LBB650:
	.loc 1 406 9 view .LVU112
.LBE650:
	.loc 1 406 7 view .LVU113
	.loc 1 407 4 view .LVU114
.LVL24:
.LBB651:
.LBI651:
	.loc 1 358 13 view .LVU115
.LBB652:
	.loc 1 360 2 view .LVU116
	.loc 1 360 28 is_stmt 0 view .LVU117
	movs	r3, #64
	strb	fp, [r7, #16]
	strh	r3, [r7, #18]	@ movhi
	strb	fp, [r7, #20]
	.loc 1 365 2 is_stmt 1 view .LVU118
	.loc 1 367 2 view .LVU119
	.loc 1 367 8 is_stmt 0 view .LVU120
	add	r0, r7, #16
	bl	usb_dc_ep_check_cap
.LVL25:
	.loc 1 368 2 is_stmt 1 view .LVU121
	.loc 1 368 5 is_stmt 0 view .LVU122
	cbz	r0, .L26
	.loc 1 370 3 is_stmt 1 view .LVU123
	.loc 1 370 17 is_stmt 0 view .LVU124
	movs	r3, #8
	strh	r3, [r7, #18]	@ movhi
	.loc 1 371 3 is_stmt 1 view .LVU125
	.loc 1 371 9 is_stmt 0 view .LVU126
	add	r0, r7, #16
.LVL26:
	.loc 1 371 9 view .LVU127
	bl	usb_dc_ep_check_cap
.LVL27:
	.loc 1 372 3 is_stmt 1 view .LVU128
	.loc 1 372 6 is_stmt 0 view .LVU129
	cbz	r0, .L26
	.loc 1 373 4 is_stmt 1 view .LVU130
	.loc 1 373 18 is_stmt 0 view .LVU131
	strh	fp, [r7, #18]	@ movhi
.L26:
	.loc 1 376 5 is_stmt 1 view .LVU132
	.loc 1 376 6 view .LVU133
	.loc 1 379 2 view .LVU134
	.loc 1 379 24 is_stmt 0 view .LVU135
	ldrh	r3, [r7, #18]
	strb	r3, [r4, #7]
	.loc 1 380 2 is_stmt 1 view .LVU136
.LBB653:
	.loc 1 380 7 view .LVU137
.LBE653:
	.loc 1 380 5 view .LVU138
.LVL28:
.L23:
	.loc 1 380 5 is_stmt 0 view .LVU139
.LBE652:
.LBE651:
	.loc 1 494 3 is_stmt 1 view .LVU140
	.loc 1 494 59 is_stmt 0 view .LVU141
	ldrb	r3, [r4]	@ zero_extendqisi2
	.loc 1 494 8 view .LVU142
	add	r4, r4, r3
.LVL29:
	.loc 1 494 8 view .LVU143
	b	.L17
.L21:
	.loc 1 417 4 is_stmt 1 view .LVU144
.LVL30:
	.loc 1 418 4 view .LVU145
.LBB654:
	.loc 1 418 9 view .LVU146
.LBE654:
	.loc 1 418 7 view .LVU147
	.loc 1 419 4 view .LVU148
	.loc 1 419 7 is_stmt 0 view .LVU149
	ldrb	r3, [r4, #3]	@ zero_extendqisi2
	cmp	r3, #0
	bne	.L23
	.loc 1 424 4 is_stmt 1 view .LVU150
	.loc 1 424 7 is_stmt 0 view .LVU151
	ldrb	r3, [r4, #2]	@ zero_extendqisi2
	cbz	r3, .L58
.L29:
	.loc 1 438 4 is_stmt 1 view .LVU152
	.loc 1 438 16 is_stmt 0 view .LVU153
	add	r9, r9, #1
.LVL31:
	.loc 1 438 16 view .LVU154
	uxtb	r9, r9
.LVL32:
	.loc 1 439 4 is_stmt 1 view .LVU155
	b	.L23
.LVL33:
.L31:
.LBB655:
.LBB656:
.LBB657:
	.loc 1 287 3 view .LVU156
	.loc 1 287 6 is_stmt 0 view .LVU157
	ldr	r3, [r5, #4]
	cmp	r4, r3
	beq	.L30
	.loc 1 286 229 is_stmt 1 view .LVU158
	adds	r5, r5, #36
.LVL34:
.L28:
	.loc 1 286 174 view .LVU159
	ldr	r3, .L77+8
	cmp	r5, r3
	bcc	.L31
.LVL35:
	.loc 1 286 174 is_stmt 0 view .LVU160
.LBE657:
.LBE656:
.LBE655:
	.loc 1 427 6 is_stmt 1 view .LVU161
.LBB660:
	.loc 1 427 11 view .LVU162
	.loc 1 427 60 view .LVU163
	.loc 1 427 17 view .LVU164
	.loc 1 427 5 view .LVU165
	.loc 1 427 44 view .LVU166
	.loc 1 427 179 view .LVU167
	.loc 1 427 190 view .LVU168
	.loc 1 427 278 view .LVU169
.LBB661:
	.loc 1 427 6 view .LVU170
	.loc 1 427 8 view .LVU171
	.loc 1 427 6 view .LVU172
.LBB662:
	.loc 1 427 11 view .LVU173
	.loc 1 427 5 view .LVU174
	.loc 1 427 15 view .LVU175
	.loc 1 427 105 view .LVU176
	.loc 1 427 107 view .LVU177
.LBB663:
	.loc 1 427 110 is_stmt 0 view .LVU178
	mov	r5, sp
	.loc 1 427 112 is_stmt 1 view .LVU179
	.loc 1 427 123 view .LVU180
.LVL36:
	.loc 1 427 212 view .LVU181
	.loc 1 427 29 view .LVU182
	.loc 1 427 32 view .LVU183
	.loc 1 427 6 view .LVU184
	.loc 1 427 6 view .LVU185
	.loc 1 427 73 view .LVU186
	.loc 1 427 85 is_stmt 0 view .LVU187
	sub	sp, sp, #32
	mov	r2, sp
.LVL37:
	.loc 1 427 77 is_stmt 1 view .LVU188
	.loc 1 427 487 view .LVU189
	.loc 1 427 8 view .LVU190
	.loc 1 427 10 view .LVU191
	.loc 1 427 15 view .LVU192
	.loc 1 427 13 view .LVU193
	.loc 1 427 8 view .LVU194
	.loc 1 427 26 view .LVU195
.LBB664:
	.loc 1 427 6 view .LVU196
	.loc 1 427 371 view .LVU197
	.loc 1 427 78 view .LVU198
.LVL38:
	.loc 1 427 5 view .LVU199
	.loc 1 427 5 view .LVU200
	.loc 1 427 5 view .LVU201
	.loc 1 427 41 view .LVU202
	.loc 1 427 70 view .LVU203
	.loc 1 427 96 view .LVU204
	.loc 1 427 122 view .LVU205
	.loc 1 427 589 view .LVU206
	.loc 1 427 651 view .LVU207
	.loc 1 427 1172 view .LVU208
	.loc 1 427 1237 view .LVU209
	.loc 1 427 1262 view .LVU210
	.loc 1 427 1263 view .LVU211
	.loc 1 427 1265 view .LVU212
	.loc 1 427 1295 view .LVU213
	.loc 1 427 1325 view .LVU214
	.loc 1 427 1357 view .LVU215
	.loc 1 427 1389 view .LVU216
	.loc 1 427 1421 view .LVU217
	.loc 1 427 1618 view .LVU218
	.loc 1 427 1642 view .LVU219
	.loc 1 427 1643 view .LVU220
	.loc 1 427 1645 view .LVU221
	.loc 1 427 1674 view .LVU222
	.loc 1 427 1703 view .LVU223
	.loc 1 427 1734 view .LVU224
	.loc 1 427 1765 view .LVU225
	.loc 1 427 1796 view .LVU226
	.loc 1 427 2003 view .LVU227
.LBB665:
	.loc 1 427 3183 view .LVU228
	.loc 1 427 3188 view .LVU229
	.loc 1 427 3830 view .LVU230
	.loc 1 427 0 is_stmt 0 view .LVU231
	ldr	r3, .L77+12
.LBE665:
.LBB666:
	.loc 1 427 3814 view .LVU232
	strd	r3, r4, [r2, #20]
	.loc 1 427 2769 is_stmt 1 view .LVU233
	.loc 1 427 10 view .LVU234
.LVL39:
	.loc 1 427 33 view .LVU235
	.loc 1 427 33 is_stmt 0 view .LVU236
.LBE666:
	.loc 1 427 12 is_stmt 1 view .LVU237
	.loc 1 427 8 view .LVU238
	.loc 1 427 31 view .LVU239
	.loc 1 427 55 view .LVU240
	.loc 1 427 83 view .LVU241
	.loc 1 427 259 view .LVU242
	.loc 1 427 19 view .LVU243
.LBB667:
	.loc 1 427 9 view .LVU244
	.loc 1 427 167 view .LVU245
	.loc 1 427 169 view .LVU246
	.loc 1 427 179 is_stmt 0 view .LVU247
	movs	r3, #3
	str	r3, [r2, #16]!
.LVL40:
	.loc 1 427 179 view .LVU248
.LBE667:
.LBE664:
	.loc 1 427 29 is_stmt 1 view .LVU249
	.loc 1 427 10 view .LVU250
	.loc 1 427 150 view .LVU251
	.loc 1 427 152 view .LVU252
.LBB668:
.LBI668:
	.file 3 "/home/g/mise-work/zmk-firmware/zmk/app/build/zephyr/include/generated/syscalls/log_msg.h"
	.loc 3 26 20 view .LVU253
.LBB669:
	.loc 3 38 2 view .LVU254
	.loc 3 38 7 view .LVU255
	.loc 3 38 5 view .LVU256
	.loc 3 39 2 view .LVU257
	ldr	r0, .L77+16
	movs	r3, #0
	mov	r1, #6208
	bl	z_impl_z_log_msg_static_create
.LVL41:
	.loc 3 39 2 is_stmt 0 view .LVU258
.LBE669:
.LBE668:
	mov	sp, r5
.LVL42:
	.loc 3 39 2 view .LVU259
.LBE663:
	.loc 1 427 110 is_stmt 1 view .LVU260
	.loc 1 427 8 view .LVU261
	.loc 1 427 45 view .LVU262
.LBE662:
	.loc 1 427 9 view .LVU263
.LBE661:
	.loc 1 427 281 view .LVU264
	.loc 1 427 8 view .LVU265
	.loc 1 427 21 view .LVU266
.LBE660:
	.loc 1 427 9 view .LVU267
	.loc 1 429 6 view .LVU268
.L32:
	.loc 1 429 6 is_stmt 0 view .LVU269
.LBE734:
.LBE738:
	.loc 1 512 3 is_stmt 1 view .LVU270
.LBB739:
	.loc 1 512 8 view .LVU271
	.loc 1 512 57 view .LVU272
	.loc 1 512 14 view .LVU273
	.loc 1 512 2 view .LVU274
	.loc 1 512 41 view .LVU275
	.loc 1 512 176 view .LVU276
	.loc 1 512 187 view .LVU277
	.loc 1 512 275 view .LVU278
	.loc 1 512 3 view .LVU279
	.loc 1 512 3 view .LVU280
.LBB740:
	.loc 1 512 8 view .LVU281
	.loc 1 512 2 view .LVU282
.LBE740:
.LBE739:
	.loc 1 512 3 view .LVU283
	.loc 1 512 12 view .LVU284
	.loc 1 512 107 view .LVU285
	.loc 1 512 3 view .LVU286
.LBB757:
.LBB753:
	.loc 1 512 12 view .LVU287
	.loc 1 512 102 view .LVU288
	.loc 1 512 104 view .LVU289
.LBB741:
	.loc 1 512 109 view .LVU290
	.loc 1 512 120 view .LVU291
	.loc 1 512 209 view .LVU292
	.loc 1 512 26 view .LVU293
.LBE741:
.LBE753:
.LBE757:
	.loc 1 512 3 view .LVU294
	.loc 1 512 368 view .LVU295
	.loc 1 512 75 view .LVU296
	.loc 1 512 2 view .LVU297
	.loc 1 512 2 view .LVU298
	.loc 1 512 2 view .LVU299
	.loc 1 512 38 view .LVU300
	.loc 1 512 4 view .LVU301
	.loc 1 512 30 view .LVU302
	.loc 1 512 56 view .LVU303
	.loc 1 512 79 view .LVU304
	.loc 1 512 141 view .LVU305
	.loc 1 512 198 view .LVU306
	.loc 1 512 263 view .LVU307
	.loc 1 512 288 view .LVU308
	.loc 1 512 289 view .LVU309
	.loc 1 512 291 view .LVU310
	.loc 1 512 321 view .LVU311
	.loc 1 512 351 view .LVU312
	.loc 1 512 383 view .LVU313
	.loc 1 512 415 view .LVU314
	.loc 1 512 447 view .LVU315
	.loc 1 512 644 view .LVU316
	.loc 1 512 668 view .LVU317
	.loc 1 512 669 view .LVU318
	.loc 1 512 671 view .LVU319
	.loc 1 512 700 view .LVU320
	.loc 1 512 729 view .LVU321
	.loc 1 512 760 view .LVU322
	.loc 1 512 791 view .LVU323
	.loc 1 512 822 view .LVU324
	.loc 1 512 1029 view .LVU325
	.loc 1 512 4 view .LVU326
	.loc 1 512 22 view .LVU327
	.loc 1 512 42 view .LVU328
	.loc 1 512 4 view .LVU329
	.loc 1 512 42 view .LVU330
	.loc 1 512 13 view .LVU331
	.loc 1 512 13 view .LVU332
	.loc 1 512 61 view .LVU333
	.loc 1 512 92 view .LVU334
	.loc 1 512 126 view .LVU335
	.loc 1 512 131 view .LVU336
	.loc 1 512 385 view .LVU337
	.loc 1 512 1454 view .LVU338
	.loc 1 512 1519 view .LVU339
	.loc 1 512 1543 view .LVU340
	.loc 1 512 1601 view .LVU341
	.loc 1 512 1612 view .LVU342
	.loc 1 512 1728 view .LVU343
	.loc 1 512 1744 view .LVU344
	.loc 1 512 1784 view .LVU345
	.loc 1 512 1809 view .LVU346
	.loc 1 512 3106 view .LVU347
	.loc 1 512 3147 view .LVU348
	.loc 1 512 7 view .LVU349
	.loc 1 512 30 view .LVU350
	.loc 1 512 129 view .LVU351
	.loc 1 512 5 view .LVU352
	.loc 1 512 28 view .LVU353
	.loc 1 512 52 view .LVU354
	.loc 1 512 80 view .LVU355
	.loc 1 512 256 view .LVU356
	.loc 1 512 16 view .LVU357
.LBB758:
.LBB754:
.LBB750:
	.loc 1 512 29 view .LVU358
	.loc 1 512 3 view .LVU359
	.loc 1 512 3 view .LVU360
	.loc 1 512 70 view .LVU361
	.loc 1 512 74 view .LVU362
	.loc 1 512 484 view .LVU363
	.loc 1 512 5 view .LVU364
	.loc 1 512 7 view .LVU365
	.loc 1 512 12 view .LVU366
	.loc 1 512 10 view .LVU367
	.loc 1 512 5 view .LVU368
	.loc 1 512 23 view .LVU369
.LBB742:
	.loc 1 512 3 view .LVU370
	.loc 1 512 368 view .LVU371
	.loc 1 512 75 view .LVU372
.LVL43:
	.loc 1 512 2 view .LVU373
	.loc 1 512 2 view .LVU374
	.loc 1 512 2 view .LVU375
	.loc 1 512 38 view .LVU376
	.loc 1 512 67 view .LVU377
	.loc 1 512 93 view .LVU378
	.loc 1 512 119 view .LVU379
	.loc 1 512 142 view .LVU380
	.loc 1 512 204 view .LVU381
	.loc 1 512 261 view .LVU382
	.loc 1 512 326 view .LVU383
	.loc 1 512 351 view .LVU384
	.loc 1 512 352 view .LVU385
	.loc 1 512 354 view .LVU386
	.loc 1 512 384 view .LVU387
	.loc 1 512 414 view .LVU388
	.loc 1 512 446 view .LVU389
	.loc 1 512 478 view .LVU390
	.loc 1 512 510 view .LVU391
	.loc 1 512 707 view .LVU392
	.loc 1 512 731 view .LVU393
	.loc 1 512 732 view .LVU394
	.loc 1 512 734 view .LVU395
	.loc 1 512 763 view .LVU396
	.loc 1 512 792 view .LVU397
	.loc 1 512 823 view .LVU398
	.loc 1 512 854 view .LVU399
	.loc 1 512 885 view .LVU400
	.loc 1 512 1092 view .LVU401
	.loc 1 512 4 view .LVU402
	.loc 1 512 22 view .LVU403
	.loc 1 512 42 view .LVU404
	.loc 1 512 4 view .LVU405
	.loc 1 512 42 view .LVU406
	.loc 1 512 13 view .LVU407
	.loc 1 512 13 view .LVU408
	.loc 1 512 61 view .LVU409
	.loc 1 512 92 view .LVU410
	.loc 1 512 126 view .LVU411
.LBB743:
	.loc 1 512 131 view .LVU412
	.loc 1 512 385 view .LVU413
	.loc 1 512 1454 view .LVU414
	.loc 1 512 1519 view .LVU415
.LBE743:
.LBE742:
.LBE750:
.LBE754:
.LBE758:
	.loc 1 512 1543 view .LVU416
	.loc 1 512 1601 view .LVU417
	.loc 1 512 1612 view .LVU418
	.loc 1 512 1728 view .LVU419
.LBB759:
.LBB755:
.LBB751:
.LBB746:
.LBB744:
	.loc 1 512 1744 view .LVU420
	.loc 1 512 1784 view .LVU421
	.loc 1 512 1809 view .LVU422
	.loc 1 512 3106 view .LVU423
	.loc 1 512 3144 view .LVU424
	.loc 1 512 3149 view .LVU425
	.loc 1 512 3767 view .LVU426
	.loc 1 512 0 is_stmt 0 view .LVU427
	ldr	r3, .L77+20
	str	r3, [r7, #36]
	.loc 1 512 3147 is_stmt 1 view .LVU428
	.loc 1 512 7 view .LVU429
.LVL44:
	.loc 1 512 30 view .LVU430
	.loc 1 512 30 is_stmt 0 view .LVU431
.LBE744:
	.loc 1 512 129 is_stmt 1 view .LVU432
	.loc 1 512 5 view .LVU433
	.loc 1 512 28 view .LVU434
	.loc 1 512 52 view .LVU435
	.loc 1 512 80 view .LVU436
.LBE746:
.LBE751:
.LBE755:
.LBE759:
	.loc 1 512 6 view .LVU437
	.loc 1 512 45 view .LVU438
	.loc 1 512 50 view .LVU439
	.loc 1 512 80 view .LVU440
	.loc 1 512 147 view .LVU441
	.loc 1 512 152 view .LVU442
	.loc 1 512 182 view .LVU443
.LBB760:
.LBB756:
.LBB752:
.LBB747:
	.loc 1 512 256 view .LVU444
	.loc 1 512 16 view .LVU445
.LBB745:
	.loc 1 512 6 view .LVU446
	.loc 1 512 164 view .LVU447
	.loc 1 512 166 view .LVU448
	.loc 1 512 176 is_stmt 0 view .LVU449
	movs	r3, #2
	str	r3, [r7, #32]
.LVL45:
	.loc 1 512 176 view .LVU450
.LBE745:
.LBE747:
	.loc 1 512 26 is_stmt 1 view .LVU451
	.loc 1 512 7 view .LVU452
	.loc 1 512 147 view .LVU453
	.loc 1 512 149 view .LVU454
.LBB748:
.LBI748:
	.loc 3 26 20 view .LVU455
.LBB749:
	.loc 3 38 2 view .LVU456
	.loc 3 38 7 view .LVU457
	.loc 3 38 5 view .LVU458
	.loc 3 39 2 view .LVU459
	ldr	r0, .L77+16
	movs	r3, #0
	add	r2, r7, #32
.LVL46:
	.loc 3 39 2 is_stmt 0 view .LVU460
	mov	r1, #4160
	bl	z_impl_z_log_msg_static_create
.LVL47:
	.loc 3 39 2 view .LVU461
.LBE749:
.LBE748:
.LBE752:
	.loc 1 512 107 is_stmt 1 view .LVU462
	.loc 1 512 5 view .LVU463
.LVL48:
	.loc 1 512 42 view .LVU464
.LBE756:
	.loc 1 512 6 view .LVU465
	.loc 1 512 278 view .LVU466
	.loc 1 512 5 view .LVU467
	.loc 1 512 18 view .LVU468
.LBE760:
	.loc 1 512 6 view .LVU469
	.loc 1 513 3 view .LVU470
	.loc 1 513 9 is_stmt 0 view .LVU471
	movs	r0, #0
	b	.L16
.LVL49:
.L58:
.LBB761:
.LBB735:
.LBB670:
.LBB659:
.LBB658:
	.loc 1 286 137 view .LVU472
	ldr	r5, .L77+24
.LVL50:
	.loc 1 286 137 view .LVU473
	b	.L28
.LVL51:
.L30:
	.loc 1 286 137 view .LVU474
.LBE658:
.LBE659:
.LBE670:
	.loc 1 426 5 is_stmt 1 view .LVU475
	.loc 1 432 5 view .LVU476
	.loc 1 432 17 is_stmt 0 view .LVU477
	ldr	r3, [r5, #8]
	.loc 1 432 8 view .LVU478
	cmp	r3, #0
	beq	.L29
	.loc 1 433 6 is_stmt 1 view .LVU479
	mov	r1, r9
	mov	r0, r4
	blx	r3
.LVL52:
	b	.L29
.LVL53:
.L19:
	.loc 1 441 4 view .LVU480
	.loc 1 441 7 is_stmt 0 view .LVU481
	cmp	r5, #0
	bne	.L59
	.loc 1 442 5 is_stmt 1 view .LVU482
.LBB671:
	.loc 1 442 10 view .LVU483
	.loc 1 442 59 view .LVU484
	.loc 1 442 16 view .LVU485
	.loc 1 442 4 view .LVU486
.LVL54:
	.loc 1 442 43 view .LVU487
	.loc 1 442 178 view .LVU488
	.loc 1 442 189 view .LVU489
	.loc 1 442 277 view .LVU490
	.loc 1 442 5 view .LVU491
	.loc 1 442 5 view .LVU492
.LBB672:
	.loc 1 442 10 view .LVU493
	.loc 1 442 4 view .LVU494
	.loc 1 442 14 view .LVU495
	.loc 1 442 104 view .LVU496
	.loc 1 442 106 view .LVU497
.LBB673:
	.loc 1 442 111 view .LVU498
	.loc 1 442 122 view .LVU499
	.loc 1 442 211 view .LVU500
	.loc 1 442 28 view .LVU501
	.loc 1 442 31 view .LVU502
	.loc 1 442 5 view .LVU503
	.loc 1 442 5 view .LVU504
	.loc 1 442 72 view .LVU505
	.loc 1 442 76 view .LVU506
	.loc 1 442 486 view .LVU507
	.loc 1 442 7 view .LVU508
	.loc 1 442 9 view .LVU509
	.loc 1 442 14 view .LVU510
	.loc 1 442 12 view .LVU511
	.loc 1 442 7 view .LVU512
	.loc 1 442 25 view .LVU513
.LBB674:
	.loc 1 442 5 view .LVU514
	.loc 1 442 370 view .LVU515
	.loc 1 442 77 view .LVU516
.LVL55:
	.loc 1 442 4 view .LVU517
	.loc 1 442 4 view .LVU518
	.loc 1 442 4 view .LVU519
	.loc 1 442 40 view .LVU520
	.loc 1 442 69 view .LVU521
	.loc 1 442 95 view .LVU522
	.loc 1 442 121 view .LVU523
	.loc 1 442 144 view .LVU524
	.loc 1 442 206 view .LVU525
	.loc 1 442 263 view .LVU526
	.loc 1 442 328 view .LVU527
	.loc 1 442 353 view .LVU528
	.loc 1 442 354 view .LVU529
	.loc 1 442 356 view .LVU530
	.loc 1 442 386 view .LVU531
	.loc 1 442 416 view .LVU532
	.loc 1 442 448 view .LVU533
	.loc 1 442 480 view .LVU534
	.loc 1 442 512 view .LVU535
	.loc 1 442 709 view .LVU536
	.loc 1 442 733 view .LVU537
	.loc 1 442 734 view .LVU538
	.loc 1 442 736 view .LVU539
	.loc 1 442 765 view .LVU540
	.loc 1 442 794 view .LVU541
	.loc 1 442 825 view .LVU542
	.loc 1 442 856 view .LVU543
	.loc 1 442 887 view .LVU544
	.loc 1 442 1094 view .LVU545
	.loc 1 442 6 view .LVU546
	.loc 1 442 24 view .LVU547
	.loc 1 442 44 view .LVU548
	.loc 1 442 6 view .LVU549
	.loc 1 442 44 view .LVU550
	.loc 1 442 15 view .LVU551
	.loc 1 442 15 view .LVU552
	.loc 1 442 63 view .LVU553
	.loc 1 442 94 view .LVU554
	.loc 1 442 128 view .LVU555
.LBB675:
	.loc 1 442 133 view .LVU556
	.loc 1 442 424 view .LVU557
	.loc 1 442 1641 view .LVU558
	.loc 1 442 1706 view .LVU559
	.loc 1 442 2005 view .LVU560
	.loc 1 442 2045 view .LVU561
	.loc 1 442 2070 view .LVU562
	.loc 1 442 3441 view .LVU563
	.loc 1 442 3479 view .LVU564
	.loc 1 442 3484 view .LVU565
	.loc 1 442 0 view .LVU566
	ldr	r3, .L77+28
.LVL56:
.L76:
	.loc 1 442 0 is_stmt 0 view .LVU567
.LBE675:
.LBE674:
.LBE673:
.LBE672:
.LBE671:
.LBB676:
.LBB677:
.LBB678:
.LBB679:
.LBB680:
	.loc 1 452 0 view .LVU568
	str	r3, [r7, #36]
	.loc 1 452 3131 is_stmt 1 view .LVU569
	.loc 1 452 9 view .LVU570
.LVL57:
	.loc 1 452 32 view .LVU571
	.loc 1 452 32 is_stmt 0 view .LVU572
.LBE680:
	.loc 1 452 131 is_stmt 1 view .LVU573
	.loc 1 452 7 view .LVU574
	.loc 1 452 30 view .LVU575
	.loc 1 452 54 view .LVU576
	.loc 1 452 82 view .LVU577
	.loc 1 452 258 view .LVU578
	.loc 1 452 18 view .LVU579
.LBB681:
	.loc 1 452 8 view .LVU580
	.loc 1 452 166 view .LVU581
	.loc 1 452 168 view .LVU582
	.loc 1 452 178 is_stmt 0 view .LVU583
	movs	r3, #2
	str	r3, [r7, #32]
.LVL58:
	.loc 1 452 178 view .LVU584
.LBE681:
.LBE679:
	.loc 1 452 28 is_stmt 1 view .LVU585
	.loc 1 452 9 view .LVU586
	.loc 1 452 149 view .LVU587
	.loc 1 452 151 view .LVU588
.LBB683:
.LBI683:
	.loc 3 26 20 view .LVU589
.LBB684:
	.loc 3 38 2 view .LVU590
	.loc 3 38 7 view .LVU591
	.loc 3 38 5 view .LVU592
	.loc 3 39 2 view .LVU593
	ldr	r0, .L77+16
	movs	r3, #0
	add	r2, r7, #32
.LVL59:
	.loc 3 39 2 is_stmt 0 view .LVU594
	mov	r1, #4160
	bl	z_impl_z_log_msg_static_create
.LVL60:
	.loc 3 39 2 view .LVU595
.LBE684:
.LBE683:
.LBE678:
	.loc 1 452 109 is_stmt 1 view .LVU596
	.loc 1 452 7 view .LVU597
.LVL61:
	.loc 1 452 44 view .LVU598
.LBE677:
	.loc 1 452 8 view .LVU599
	.loc 1 452 280 view .LVU600
	.loc 1 452 7 view .LVU601
	.loc 1 452 20 view .LVU602
.LBE676:
	.loc 1 452 8 view .LVU603
	.loc 1 453 5 view .LVU604
	.loc 1 453 5 is_stmt 0 view .LVU605
	b	.L32
.LVL62:
.L42:
.LBB688:
.LBB689:
.LBB690:
.LBB691:
	.loc 1 231 3 is_stmt 1 view .LVU606
	.loc 1 236 3 view .LVU607
	.loc 1 236 44 is_stmt 0 view .LVU608
	ldr	r3, [r5, #32]
	.loc 1 236 6 view .LVU609
	ldrb	r2, [r4, #2]	@ zero_extendqisi2
	.loc 1 236 44 view .LVU610
	add	r3, r3, r1, lsl #3
	str	r3, [r7, #12]
	.loc 1 236 6 view .LVU611
	ldrb	r3, [r3, #4]	@ zero_extendqisi2
	cmp	r2, r3
	beq	.L60
.LVL63:
.L41:
	.loc 1 236 6 view .LVU612
.LBE691:
	.loc 1 230 57 is_stmt 1 view .LVU613
	adds	r1, r1, #1
.LVL64:
.L34:
	.loc 1 230 29 view .LVU614
	.loc 1 230 39 is_stmt 0 view .LVU615
	ldrb	r3, [r5, #28]	@ zero_extendqisi2
	.loc 1 230 29 view .LVU616
	cmp	r1, r3
	bcc	.L42
.LVL65:
	.loc 1 230 29 view .LVU617
.LBE690:
.LBE689:
.LBE688:
	.loc 1 452 5 is_stmt 1 view .LVU618
.LBB699:
	.loc 1 452 10 view .LVU619
	.loc 1 452 59 view .LVU620
	.loc 1 452 16 view .LVU621
	.loc 1 452 4 view .LVU622
	.loc 1 452 43 view .LVU623
	.loc 1 452 178 view .LVU624
	.loc 1 452 189 view .LVU625
	.loc 1 452 277 view .LVU626
	.loc 1 452 5 view .LVU627
	.loc 1 452 5 view .LVU628
.LBB687:
	.loc 1 452 10 view .LVU629
	.loc 1 452 4 view .LVU630
	.loc 1 452 14 view .LVU631
	.loc 1 452 104 view .LVU632
	.loc 1 452 106 view .LVU633
.LBB686:
	.loc 1 452 111 view .LVU634
	.loc 1 452 122 view .LVU635
	.loc 1 452 211 view .LVU636
	.loc 1 452 28 view .LVU637
	.loc 1 452 31 view .LVU638
	.loc 1 452 5 view .LVU639
	.loc 1 452 5 view .LVU640
	.loc 1 452 72 view .LVU641
	.loc 1 452 76 view .LVU642
	.loc 1 452 486 view .LVU643
	.loc 1 452 7 view .LVU644
	.loc 1 452 9 view .LVU645
	.loc 1 452 14 view .LVU646
	.loc 1 452 12 view .LVU647
	.loc 1 452 7 view .LVU648
	.loc 1 452 25 view .LVU649
.LBB685:
	.loc 1 452 5 view .LVU650
	.loc 1 452 370 view .LVU651
	.loc 1 452 77 view .LVU652
.LVL66:
	.loc 1 452 4 view .LVU653
	.loc 1 452 4 view .LVU654
	.loc 1 452 4 view .LVU655
	.loc 1 452 40 view .LVU656
	.loc 1 452 69 view .LVU657
	.loc 1 452 95 view .LVU658
	.loc 1 452 121 view .LVU659
	.loc 1 452 144 view .LVU660
	.loc 1 452 206 view .LVU661
	.loc 1 452 263 view .LVU662
	.loc 1 452 328 view .LVU663
	.loc 1 452 353 view .LVU664
	.loc 1 452 354 view .LVU665
	.loc 1 452 356 view .LVU666
	.loc 1 452 386 view .LVU667
	.loc 1 452 416 view .LVU668
	.loc 1 452 448 view .LVU669
	.loc 1 452 480 view .LVU670
	.loc 1 452 512 view .LVU671
	.loc 1 452 709 view .LVU672
	.loc 1 452 733 view .LVU673
	.loc 1 452 734 view .LVU674
	.loc 1 452 736 view .LVU675
	.loc 1 452 765 view .LVU676
	.loc 1 452 794 view .LVU677
	.loc 1 452 825 view .LVU678
	.loc 1 452 856 view .LVU679
	.loc 1 452 887 view .LVU680
	.loc 1 452 1094 view .LVU681
	.loc 1 452 6 view .LVU682
	.loc 1 452 24 view .LVU683
	.loc 1 452 44 view .LVU684
	.loc 1 452 6 view .LVU685
	.loc 1 452 44 view .LVU686
	.loc 1 452 15 view .LVU687
	.loc 1 452 15 view .LVU688
	.loc 1 452 63 view .LVU689
	.loc 1 452 94 view .LVU690
	.loc 1 452 128 view .LVU691
.LBB682:
	.loc 1 452 133 view .LVU692
	.loc 1 452 385 view .LVU693
	.loc 1 452 1446 view .LVU694
	.loc 1 452 1511 view .LVU695
	.loc 1 452 1732 view .LVU696
	.loc 1 452 1772 view .LVU697
	.loc 1 452 1797 view .LVU698
	.loc 1 452 3090 view .LVU699
	.loc 1 452 3128 view .LVU700
	.loc 1 452 3133 view .LVU701
	.loc 1 452 3739 view .LVU702
	.loc 1 452 0 is_stmt 0 view .LVU703
	ldr	r3, .L77+32
	b	.L76
.LVL67:
.L60:
	.loc 1 452 0 view .LVU704
.LBE682:
.LBE685:
.LBE686:
.LBE687:
.LBE699:
.LBB700:
.LBB698:
.LBB697:
.LBB696:
	movs	r3, #1
.LVL68:
.L35:
.LBB692:
.LBB693:
	.loc 1 243 45 view .LVU705
	ldrb	r0, [r4, #3]	@ zero_extendqisi2
	and	r0, r0, #3
	.loc 1 243 19 view .LVU706
	strb	r0, [r7, #20]
	.loc 1 245 28 view .LVU707
	ldrb	r0, [r4, #4]	@ zero_extendqisi2
	ldrb	ip, [r4, #5]	@ zero_extendqisi2
	orr	r0, r0, ip, lsl #8
	.loc 1 245 18 view .LVU708
	strh	r0, [r7, #18]	@ movhi
	.loc 1 247 7 view .LVU709
	ldrsb	r0, [r4, #2]
	cmp	r0, #0
	uxtb	r2, r3
.LVL69:
	.loc 1 241 4 is_stmt 1 view .LVU710
	.loc 1 243 4 view .LVU711
	.loc 1 245 4 view .LVU712
	.loc 1 246 4 view .LVU713
	.loc 1 247 4 view .LVU714
	.loc 1 247 7 is_stmt 0 view .LVU715
	bge	.L36
	.loc 1 248 5 is_stmt 1 view .LVU716
	.loc 1 248 30 is_stmt 0 view .LVU717
	add	r0, r3, #16
	mov	ip, #1
	lsl	r0, ip, r0
	.loc 1 248 8 view .LVU718
	tst	r0, r10
	bne	.L37
	.loc 1 252 5 is_stmt 1 view .LVU719
	.loc 1 252 20 is_stmt 0 view .LVU720
	orr	r0, r2, #128
.L38:
	strb	r0, [r7, #16]
	.loc 1 260 4 is_stmt 1 view .LVU721
	.loc 1 260 9 is_stmt 0 view .LVU722
	add	r0, r7, #16
	strd	r3, r2, [r7]
	str	r1, [r7, #8]
	bl	usb_dc_ep_check_cap
.LVL70:
	.loc 1 260 7 view .LVU723
	ldrd	r2, r1, [r7, #4]
	ldr	r3, [r7]
	cbnz	r0, .L37
	.loc 1 261 5 is_stmt 1 view .LVU724
.LBB694:
	.loc 1 261 10 view .LVU725
.LBE694:
	.loc 1 261 8 view .LVU726
	.loc 1 264 5 view .LVU727
	.loc 1 264 40 is_stmt 0 view .LVU728
	ldrb	r1, [r7, #16]	@ zero_extendqisi2
	.loc 1 265 24 view .LVU729
	ldr	r0, [r7, #12]
	.loc 1 264 32 view .LVU730
	strb	r1, [r4, #2]
	.loc 1 265 5 is_stmt 1 view .LVU731
	.loc 1 266 8 is_stmt 0 view .LVU732
	tst	r1, #128
	.loc 1 267 35 view .LVU733
	it	ne
	addne	r2, r2, #16
	.loc 1 265 24 view .LVU734
	strb	r1, [r0, #4]
	.loc 1 266 5 is_stmt 1 view .LVU735
	.loc 1 267 35 is_stmt 0 view .LVU736
	it	ne
	uxtbne	r2, r2
	mov	r1, #1
	.loc 1 267 6 is_stmt 1 view .LVU737
	.loc 1 267 27 is_stmt 0 view .LVU738
	ite	ne
	lslne	r1, r1, r2
.LVL71:
	.loc 1 269 6 is_stmt 1 view .LVU739
	.loc 1 269 27 is_stmt 0 view .LVU740
	lsleq	r1, r1, r3
.LVL72:
	.loc 1 269 20 view .LVU741
	orr	r10, r10, r1
.LVL73:
	.loc 1 271 5 is_stmt 1 view .LVU742
.LBB695:
	.loc 1 271 10 view .LVU743
.LBE695:
	.loc 1 271 8 view .LVU744
	.loc 1 272 5 view .LVU745
	.loc 1 272 5 is_stmt 0 view .LVU746
	b	.L23
.LVL74:
.L36:
	.loc 1 254 5 is_stmt 1 view .LVU747
	.loc 1 254 30 is_stmt 0 view .LVU748
	movs	r0, #1
	lsls	r0, r0, r3
	.loc 1 254 8 view .LVU749
	tst	r0, r10
	bne	.L37
	mov	r0, r2
	b	.L38
.LVL75:
.L37:
	.loc 1 254 8 view .LVU750
.LBE693:
	.loc 1 240 39 is_stmt 1 view .LVU751
	.loc 1 240 29 view .LVU752
	adds	r3, r3, #1
.LVL76:
	.loc 1 240 29 is_stmt 0 view .LVU753
	cmp	r3, #16
	bne	.L35
	b	.L41
.LVL77:
.L59:
	.loc 1 240 29 view .LVU754
.LBE692:
.LBE696:
	.loc 1 230 20 view .LVU755
	movs	r1, #0
	b	.L34
.L22:
.LBE697:
.LBE698:
.LBE700:
	.loc 1 462 4 is_stmt 1 view .LVU756
	.loc 1 462 7 is_stmt 0 view .LVU757
	cmp	r6, #3
	bne	.L43
.LBB701:
	.loc 1 463 5 is_stmt 1 view .LVU758
.LVL78:
	.loc 1 465 5 view .LVU759
.LBB702:
.LBI702:
	.loc 1 333 13 view .LVU760
.LBB703:
	.loc 1 335 2 view .LVU761
	.loc 1 335 24 is_stmt 0 view .LVU762
	bl	usb_update_sn_string_descriptor
.LVL79:
	.loc 1 336 2 is_stmt 1 view .LVU763
	.loc 1 338 2 view .LVU764
	.loc 1 338 5 is_stmt 0 view .LVU765
	str	r0, [r7, #12]
	cbz	r0, .L45
	.loc 1 342 2 is_stmt 1 view .LVU766
	.loc 1 342 19 is_stmt 0 view .LVU767
	bl	strlen
.LVL80:
	.loc 1 343 2 is_stmt 1 view .LVU768
	.loc 1 343 5 is_stmt 0 view .LVU769
	cbz	r0, .L45
	.loc 1 347 2 is_stmt 1 view .LVU770
.LVL81:
	.loc 1 349 2 view .LVU771
	.loc 1 349 5 is_stmt 0 view .LVU772
	cmp	r0, #16
	ldr	r3, [r7, #12]
	beq	.L47
	.loc 1 350 3 is_stmt 1 view .LVU773
.LBB704:
	.loc 1 350 8 view .LVU774
	.loc 1 350 57 view .LVU775
	.loc 1 350 14 view .LVU776
	.loc 1 350 2 view .LVU777
.LVL82:
	.loc 1 350 41 view .LVU778
	.loc 1 350 176 view .LVU779
	.loc 1 350 187 view .LVU780
	.loc 1 350 275 view .LVU781
	.loc 1 350 3 view .LVU782
	.loc 1 350 3 view .LVU783
.LBB705:
	.loc 1 350 8 view .LVU784
	.loc 1 350 2 view .LVU785
	.loc 1 350 12 view .LVU786
	.loc 1 350 102 view .LVU787
	.loc 1 350 104 view .LVU788
.LBB706:
	.loc 1 350 109 view .LVU789
	.loc 1 350 120 view .LVU790
	.loc 1 350 209 view .LVU791
	.loc 1 350 26 view .LVU792
	.loc 1 350 29 view .LVU793
	.loc 1 350 3 view .LVU794
	.loc 1 350 3 view .LVU795
	.loc 1 350 70 view .LVU796
	.loc 1 350 74 view .LVU797
	.loc 1 350 484 view .LVU798
	.loc 1 350 5 view .LVU799
	.loc 1 350 7 view .LVU800
	.loc 1 350 12 view .LVU801
	.loc 1 350 10 view .LVU802
	.loc 1 350 5 view .LVU803
	.loc 1 350 23 view .LVU804
.LBB707:
	.loc 1 350 3 view .LVU805
	.loc 1 350 368 view .LVU806
	.loc 1 350 75 view .LVU807
.LVL83:
	.loc 1 350 2 view .LVU808
	.loc 1 350 2 view .LVU809
	.loc 1 350 2 view .LVU810
	.loc 1 350 38 view .LVU811
	.loc 1 350 67 view .LVU812
	.loc 1 350 93 view .LVU813
	.loc 1 350 119 view .LVU814
	.loc 1 350 142 view .LVU815
	.loc 1 350 204 view .LVU816
	.loc 1 350 261 view .LVU817
	.loc 1 350 326 view .LVU818
	.loc 1 350 351 view .LVU819
	.loc 1 350 352 view .LVU820
	.loc 1 350 354 view .LVU821
	.loc 1 350 384 view .LVU822
	.loc 1 350 414 view .LVU823
	.loc 1 350 446 view .LVU824
	.loc 1 350 478 view .LVU825
	.loc 1 350 510 view .LVU826
	.loc 1 350 707 view .LVU827
	.loc 1 350 731 view .LVU828
	.loc 1 350 732 view .LVU829
	.loc 1 350 734 view .LVU830
	.loc 1 350 763 view .LVU831
	.loc 1 350 792 view .LVU832
	.loc 1 350 823 view .LVU833
	.loc 1 350 854 view .LVU834
	.loc 1 350 885 view .LVU835
	.loc 1 350 1092 view .LVU836
	.loc 1 350 4 view .LVU837
	.loc 1 350 22 view .LVU838
	.loc 1 350 42 view .LVU839
	.loc 1 350 4 view .LVU840
	.loc 1 350 42 view .LVU841
	.loc 1 350 13 view .LVU842
	.loc 1 350 13 view .LVU843
	.loc 1 350 61 view .LVU844
	.loc 1 350 92 view .LVU845
	.loc 1 350 126 view .LVU846
.LBB708:
	.loc 1 350 131 view .LVU847
	.loc 1 350 432 view .LVU848
	.loc 1 350 1689 view .LVU849
	.loc 1 350 1754 view .LVU850
	.loc 1 350 2073 view .LVU851
	.loc 1 350 2113 view .LVU852
	.loc 1 350 2138 view .LVU853
	.loc 1 350 3529 view .LVU854
	.loc 1 350 3567 view .LVU855
	.loc 1 350 3572 view .LVU856
	.loc 1 350 0 view .LVU857
	ldr	r3, .L77+36
	str	r3, [r7, #36]
	.loc 1 350 3570 view .LVU858
	.loc 1 350 7 view .LVU859
.LVL84:
	.loc 1 350 30 view .LVU860
	.loc 1 350 30 is_stmt 0 view .LVU861
.LBE708:
	.loc 1 350 129 is_stmt 1 view .LVU862
	.loc 1 350 5 view .LVU863
	.loc 1 350 28 view .LVU864
	.loc 1 350 52 view .LVU865
	.loc 1 350 80 view .LVU866
	.loc 1 350 256 view .LVU867
	.loc 1 350 16 view .LVU868
.LBB709:
	.loc 1 350 6 view .LVU869
	.loc 1 350 164 view .LVU870
	.loc 1 350 166 view .LVU871
	.loc 1 350 176 is_stmt 0 view .LVU872
	movs	r3, #2
	str	r3, [r7, #32]
.LVL85:
	.loc 1 350 176 view .LVU873
.LBE709:
.LBE707:
	.loc 1 350 26 is_stmt 1 view .LVU874
	.loc 1 350 7 view .LVU875
	.loc 1 350 147 view .LVU876
	.loc 1 350 149 view .LVU877
.LBB710:
.LBI710:
	.loc 3 26 20 view .LVU878
.LBB711:
	.loc 3 38 2 view .LVU879
	.loc 3 38 7 view .LVU880
	.loc 3 38 5 view .LVU881
	.loc 3 39 2 view .LVU882
	ldr	r0, .L77+16
.LVL86:
	.loc 3 39 2 is_stmt 0 view .LVU883
	movs	r3, #0
	add	r2, r7, #32
.LVL87:
	.loc 3 39 2 view .LVU884
	mov	r1, #4160
	bl	z_impl_z_log_msg_static_create
.LVL88:
	.loc 3 39 2 view .LVU885
.LBE711:
.LBE710:
.LBE706:
	.loc 1 350 107 is_stmt 1 view .LVU886
	.loc 1 350 5 view .LVU887
.LVL89:
	.loc 1 350 42 view .LVU888
.LBE705:
	.loc 1 350 6 view .LVU889
	.loc 1 350 278 view .LVU890
	.loc 1 350 5 view .LVU891
	.loc 1 350 18 view .LVU892
.LBE704:
	.loc 1 350 6 view .LVU893
	.loc 1 352 3 view .LVU894
	.loc 1 352 3 is_stmt 0 view .LVU895
.LBE703:
.LBE702:
.LBE701:
	.loc 1 471 4 is_stmt 1 view .LVU896
.L45:
	.loc 1 472 5 view .LVU897
.LBB716:
.LBI716:
	.loc 1 164 13 view .LVU898
.LBB717:
	.loc 1 166 2 view .LVU899
	.loc 1 167 2 view .LVU900
	.loc 1 167 26 is_stmt 0 view .LVU901
	ldrb	r3, [r4]	@ zero_extendqisi2
.LVL90:
	.loc 1 168 2 is_stmt 1 view .LVU902
	.loc 1 169 2 view .LVU903
	.loc 1 171 2 view .LVU904
.LBB718:
	.loc 1 171 7 view .LVU905
.LBE718:
	.loc 1 171 5 view .LVU906
	.loc 1 174 2 view .LVU907
.LBB719:
	.loc 1 174 7 view .LVU908
	.loc 1 174 26 is_stmt 0 view .LVU909
	mvn	r1, #2
	adds	r2, r4, r3
	subs	r1, r1, r4
	add	r3, r4, r3, lsr #1
.LVL91:
.L50:
	.loc 1 174 26 is_stmt 1 view .LVU910
	cmn	r1, r2
	bpl	.L51
.LVL92:
.L52:
	.loc 1 174 26 is_stmt 0 view .LVU911
.LBE719:
.LBE717:
.LBE716:
	.loc 1 486 4 is_stmt 1 view .LVU912
	.loc 1 486 18 is_stmt 0 view .LVU913
	adds	r6, r6, #1
.LVL93:
	.loc 1 486 18 view .LVU914
	uxtb	r6, r6
.LVL94:
	.loc 1 488 4 is_stmt 1 view .LVU915
	b	.L23
.LVL95:
.L47:
.LBB723:
.LBB715:
.LBB714:
	.loc 1 355 1 view .LVU916
.LBB712:
.LBI712:
	.file 4 "/home/g/zephyr-sdk-0.16.3/arm-zephyr-eabi/picolibc/include/ssp/string.h"
	.loc 4 83 216 view .LVU917
.LBB713:
	.loc 4 83 292 view .LVU918
	.loc 4 83 299 is_stmt 0 view .LVU919
	mov	r0, r3
.LVL96:
	.loc 4 83 299 view .LVU920
	add	r2, r0, #16
	adds	r3, r4, #2
.LVL97:
.L48:
	.loc 4 83 299 view .LVU921
	ldr	r1, [r0], #4	@ unaligned
	str	r1, [r3], #4	@ unaligned
	cmp	r0, r2
	bne	.L48
	b	.L45
.LVL98:
.L43:
	.loc 4 83 299 view .LVU922
.LBE713:
.LBE712:
.LBE714:
.LBE715:
.LBE723:
	.loc 1 471 4 is_stmt 1 view .LVU923
	.loc 1 471 7 is_stmt 0 view .LVU924
	cmp	r6, #0
	bne	.L45
	.loc 1 474 5 is_stmt 1 view .LVU925
	.loc 1 474 8 is_stmt 0 view .LVU926
	cmp	r8, #0
	bne	.L53
	.loc 1 475 6 is_stmt 1 view .LVU927
.LBB724:
	.loc 1 475 11 view .LVU928
	.loc 1 475 60 view .LVU929
	.loc 1 475 17 view .LVU930
	.loc 1 475 5 view .LVU931
.LVL99:
	.loc 1 475 44 view .LVU932
	.loc 1 475 179 view .LVU933
	.loc 1 475 190 view .LVU934
	.loc 1 475 278 view .LVU935
	.loc 1 475 6 view .LVU936
	.loc 1 475 6 view .LVU937
.LBB725:
	.loc 1 475 11 view .LVU938
	.loc 1 475 5 view .LVU939
	.loc 1 475 15 view .LVU940
	.loc 1 475 105 view .LVU941
	.loc 1 475 107 view .LVU942
.LBB726:
	.loc 1 475 112 view .LVU943
	.loc 1 475 123 view .LVU944
	.loc 1 475 212 view .LVU945
	.loc 1 475 29 view .LVU946
	.loc 1 475 32 view .LVU947
	.loc 1 475 6 view .LVU948
	.loc 1 475 6 view .LVU949
	.loc 1 475 73 view .LVU950
	.loc 1 475 77 view .LVU951
	.loc 1 475 487 view .LVU952
	.loc 1 475 8 view .LVU953
	.loc 1 475 10 view .LVU954
	.loc 1 475 15 view .LVU955
	.loc 1 475 13 view .LVU956
	.loc 1 475 8 view .LVU957
	.loc 1 475 26 view .LVU958
.LBB727:
	.loc 1 475 6 view .LVU959
	.loc 1 475 371 view .LVU960
	.loc 1 475 78 view .LVU961
.LVL100:
	.loc 1 475 5 view .LVU962
	.loc 1 475 5 view .LVU963
	.loc 1 475 5 view .LVU964
	.loc 1 475 41 view .LVU965
	.loc 1 475 70 view .LVU966
	.loc 1 475 96 view .LVU967
	.loc 1 475 122 view .LVU968
	.loc 1 475 145 view .LVU969
	.loc 1 475 207 view .LVU970
	.loc 1 475 264 view .LVU971
	.loc 1 475 329 view .LVU972
	.loc 1 475 354 view .LVU973
	.loc 1 475 355 view .LVU974
	.loc 1 475 357 view .LVU975
	.loc 1 475 387 view .LVU976
	.loc 1 475 417 view .LVU977
	.loc 1 475 449 view .LVU978
	.loc 1 475 481 view .LVU979
	.loc 1 475 513 view .LVU980
	.loc 1 475 710 view .LVU981
	.loc 1 475 734 view .LVU982
	.loc 1 475 735 view .LVU983
	.loc 1 475 737 view .LVU984
	.loc 1 475 766 view .LVU985
	.loc 1 475 795 view .LVU986
	.loc 1 475 826 view .LVU987
	.loc 1 475 857 view .LVU988
	.loc 1 475 888 view .LVU989
	.loc 1 475 1095 view .LVU990
	.loc 1 475 7 view .LVU991
	.loc 1 475 25 view .LVU992
	.loc 1 475 45 view .LVU993
	.loc 1 475 7 view .LVU994
	.loc 1 475 45 view .LVU995
	.loc 1 475 16 view .LVU996
	.loc 1 475 16 view .LVU997
	.loc 1 475 64 view .LVU998
	.loc 1 475 95 view .LVU999
	.loc 1 475 129 view .LVU1000
.LBB728:
	.loc 1 475 134 view .LVU1001
	.loc 1 475 386 view .LVU1002
	.loc 1 475 1447 view .LVU1003
	.loc 1 475 1512 view .LVU1004
	.loc 1 475 1733 view .LVU1005
	.loc 1 475 1773 view .LVU1006
	.loc 1 475 1798 view .LVU1007
	.loc 1 475 3091 view .LVU1008
	.loc 1 475 3129 view .LVU1009
	.loc 1 475 3134 view .LVU1010
	.loc 1 475 3740 view .LVU1011
	.loc 1 475 0 is_stmt 0 view .LVU1012
	ldr	r3, .L77+40
	b	.L76
.LVL101:
.L51:
	.loc 1 475 0 view .LVU1013
.LBE728:
.LBE727:
.LBE726:
.LBE725:
.LBE724:
.LBB729:
.LBB722:
.LBB721:
	.loc 1 175 3 is_stmt 1 view .LVU1014
.LBB720:
	.loc 1 175 8 view .LVU1015
.LBE720:
	.loc 1 175 6 view .LVU1016
	.loc 1 179 5 view .LVU1017
	.loc 1 181 26 view .LVU1018
	.loc 1 182 3 view .LVU1019
	.loc 1 182 10 is_stmt 0 view .LVU1020
	strb	fp, [r2, #-1]
	.loc 1 183 3 is_stmt 1 view .LVU1021
	.loc 1 183 19 is_stmt 0 view .LVU1022
	ldrb	r0, [r3], #-1	@ zero_extendqisi2
	.loc 1 183 14 view .LVU1023
	strb	r0, [r2, #-2]!
	.loc 1 174 34 is_stmt 1 view .LVU1024
	b	.L50
.LVL102:
.L53:
	.loc 1 174 34 is_stmt 0 view .LVU1025
.LBE721:
.LBE722:
.LBE729:
	.loc 1 479 5 is_stmt 1 view .LVU1026
.LBB730:
	.loc 1 479 10 view .LVU1027
.LBE730:
	.loc 1 479 8 view .LVU1028
	.loc 1 481 5 view .LVU1029
	.loc 1 481 34 is_stmt 0 view .LVU1030
	sub	r3, r4, r8
.LVL103:
.LBB731:
.LBI731:
	.file 5 "/home/g/mise-work/zmk-firmware/zmk/zephyr/include/zephyr/sys/byteorder.h"
	.loc 5 384 20 is_stmt 1 view .LVU1031
.LBB732:
	.loc 5 386 2 view .LVU1032
	.loc 5 386 9 is_stmt 0 view .LVU1033
	strb	r3, [r8, #2]
	.loc 5 387 2 is_stmt 1 view .LVU1034
	.loc 5 387 9 is_stmt 0 view .LVU1035
	ubfx	r3, r3, #8, #8
.LVL104:
	.loc 5 387 9 view .LVU1036
	strb	r3, [r8, #3]
.LVL105:
	.loc 5 387 9 view .LVU1037
.LBE732:
.LBE731:
	.loc 1 483 5 is_stmt 1 view .LVU1038
	.loc 1 483 31 is_stmt 0 view .LVU1039
	strb	r9, [r8, #4]
	b	.L52
.L57:
	.loc 1 404 3 view .LVU1040
	mov	r8, r4
.LVL106:
	.loc 1 404 3 view .LVU1041
	b	.L23
.L78:
	.align	2
.L77:
	.word	__usb_descriptor_start
	.word	__usb_descriptor_end
	.word	_usb_cfg_data_list_end
	.word	.LC1
	.word	log_const_usb_descriptor
	.word	.LC6
	.word	_usb_cfg_data_list_start
	.word	.LC2
	.word	.LC3
	.word	.LC4
	.word	.LC5
.LBE735:
.LBE761:
	.cfi_endproc
.LFE517:
	.size	usb_get_device_descriptor, .-usb_get_device_descriptor
	.section	.text.usb_get_dev_data_by_cfg,"ax",%progbits
	.align	1
	.global	usb_get_dev_data_by_cfg
	.syntax unified
	.thumb
	.thumb_func
	.type	usb_get_dev_data_by_cfg, %function
usb_get_dev_data_by_cfg:
.LVL107:
.LFB518:
	.loc 1 521 1 is_stmt 1 view -0
	.cfi_startproc
	@ args = 0, pretend = 0, frame = 0
	@ frame_needed = 0, uses_anonymous_args = 0
	@ link register save eliminated.
	.loc 1 522 2 view .LVU1043
	.loc 1 524 2 view .LVU1044
.LBB762:
.LBI762:
	.file 6 "/home/g/mise-work/zmk-firmware/zmk/zephyr/include/zephyr/sys/slist.h"
	.loc 6 238 28 view .LVU1045
.LBB763:
	.loc 6 240 2 view .LVU1046
	.loc 6 240 13 is_stmt 0 view .LVU1047
	ldr	r0, [r0]
.LVL108:
.L90:
	.loc 6 240 13 view .LVU1048
.LBE763:
.LBE762:
	.loc 1 524 8 view .LVU1049
	cbz	r0, .L79
.LBB764:
	.loc 1 526 30 view .LVU1050
	ldr	r3, [r0, #-4]
	.loc 1 528 6 view .LVU1051
	ldr	r3, [r3, #4]
	cmp	r3, r1
.LBE764:
	.loc 1 524 8 view .LVU1052
	sub	r0, r0, #4
.LVL109:
	.loc 1 524 13 is_stmt 1 view .LVU1053
.LBB765:
	.loc 1 525 3 view .LVU1054
	.loc 1 526 3 view .LVU1055
	.loc 1 528 3 view .LVU1056
	.loc 1 528 6 is_stmt 0 view .LVU1057
	beq	.L79
.LBE765:
	.loc 1 524 12 is_stmt 1 discriminator 6 view .LVU1058
.LVL110:
.LBB766:
.LBI766:
	.loc 6 292 29 discriminator 6 view .LVU1059
	.loc 6 292 70 discriminator 6 view .LVU1060
.LBB767:
.LBI767:
	.loc 6 281 29 discriminator 6 view .LVU1061
	.loc 6 281 79 discriminator 6 view .LVU1062
.LBB768:
.LBI768:
	.loc 6 211 28 discriminator 6 view .LVU1063
.LBB769:
	.loc 6 213 2 discriminator 6 view .LVU1064
	.loc 6 213 13 is_stmt 0 discriminator 6 view .LVU1065
	ldr	r0, [r0, #4]
.LVL111:
	.loc 6 213 13 discriminator 6 view .LVU1066
	b	.L90
.LVL112:
.L79:
	.loc 6 213 13 discriminator 6 view .LVU1067
.LBE769:
.LBE768:
.LBE767:
.LBE766:
	.loc 1 536 1 view .LVU1068
	bx	lr
	.cfi_endproc
.LFE518:
	.size	usb_get_dev_data_by_cfg, .-usb_get_dev_data_by_cfg
	.section	.text.usb_get_dev_data_by_iface,"ax",%progbits
	.align	1
	.global	usb_get_dev_data_by_iface
	.syntax unified
	.thumb
	.thumb_func
	.type	usb_get_dev_data_by_iface, %function
usb_get_dev_data_by_iface:
.LVL113:
.LFB519:
	.loc 1 540 1 is_stmt 1 view -0
	.cfi_startproc
	@ args = 0, pretend = 0, frame = 0
	@ frame_needed = 0, uses_anonymous_args = 0
	@ link register save eliminated.
	.loc 1 541 2 view .LVU1070
	.loc 1 543 2 view .LVU1071
.LBB770:
.LBI770:
	.loc 6 238 28 view .LVU1072
.LBB771:
	.loc 6 240 2 view .LVU1073
	.loc 6 240 13 is_stmt 0 view .LVU1074
	ldr	r0, [r0]
.LVL114:
.L102:
	.loc 6 240 13 view .LVU1075
.LBE771:
.LBE770:
	.loc 1 543 8 view .LVU1076
	cbz	r0, .L91
.LBB772:
	.loc 1 545 30 view .LVU1077
	ldr	r3, [r0, #-4]
	.loc 1 546 35 view .LVU1078
	ldr	r3, [r3, #4]
	.loc 1 549 14 view .LVU1079
	ldr	r3, [r3, #4]
	.loc 1 549 6 view .LVU1080
	ldrb	r3, [r3, #2]	@ zero_extendqisi2
	cmp	r3, r1
.LBE772:
	.loc 1 543 8 view .LVU1081
	sub	r0, r0, #4
.LVL115:
	.loc 1 543 13 is_stmt 1 view .LVU1082
.LBB773:
	.loc 1 544 3 view .LVU1083
	.loc 1 545 3 view .LVU1084
	.loc 1 546 3 view .LVU1085
	.loc 1 549 3 view .LVU1086
	.loc 1 549 6 is_stmt 0 view .LVU1087
	beq	.L91
.LBE773:
	.loc 1 543 12 is_stmt 1 discriminator 6 view .LVU1088
.LVL116:
.LBB774:
.LBI774:
	.loc 6 292 29 discriminator 6 view .LVU1089
	.loc 6 292 70 discriminator 6 view .LVU1090
.LBB775:
.LBI775:
	.loc 6 281 29 discriminator 6 view .LVU1091
	.loc 6 281 79 discriminator 6 view .LVU1092
.LBB776:
.LBI776:
	.loc 6 211 28 discriminator 6 view .LVU1093
.LBB777:
	.loc 6 213 2 discriminator 6 view .LVU1094
	.loc 6 213 13 is_stmt 0 discriminator 6 view .LVU1095
	ldr	r0, [r0, #4]
.LVL117:
	.loc 6 213 13 discriminator 6 view .LVU1096
	b	.L102
.LVL118:
.L91:
	.loc 6 213 13 discriminator 6 view .LVU1097
.LBE777:
.LBE776:
.LBE775:
.LBE774:
	.loc 1 557 1 view .LVU1098
	bx	lr
	.cfi_endproc
.LFE519:
	.size	usb_get_dev_data_by_iface, .-usb_get_dev_data_by_iface
	.section	.text.usb_get_dev_data_by_ep,"ax",%progbits
	.align	1
	.global	usb_get_dev_data_by_ep
	.syntax unified
	.thumb
	.thumb_func
	.type	usb_get_dev_data_by_ep, %function
usb_get_dev_data_by_ep:
.LVL119:
.LFB520:
	.loc 1 560 1 is_stmt 1 view -0
	.cfi_startproc
	@ args = 0, pretend = 0, frame = 0
	@ frame_needed = 0, uses_anonymous_args = 0
	.loc 1 561 2 view .LVU1100
	.loc 1 563 2 view .LVU1101
.LBB778:
.LBI778:
	.loc 6 238 28 view .LVU1102
.LBB779:
	.loc 6 240 2 view .LVU1103
.LBE779:
.LBE778:
	.loc 1 560 1 is_stmt 0 view .LVU1104
	push	{r4, r5, lr}
	.cfi_def_cfa_offset 12
	.cfi_offset 4, -12
	.cfi_offset 5, -8
	.cfi_offset 14, -4
.LBB781:
.LBB780:
	.loc 6 240 13 view .LVU1105
	ldr	r0, [r0]
.LVL120:
.L116:
	.loc 6 240 13 view .LVU1106
.LBE780:
.LBE781:
	.loc 1 563 8 view .LVU1107
	cbz	r0, .L103
.LBB782:
	.loc 1 565 30 view .LVU1108
	ldr	r3, [r0, #-4]
	ldr	r3, [r3, #4]
	.loc 1 566 33 view .LVU1109
	ldr	r2, [r3, #32]
.LBB783:
	.loc 1 568 30 view .LVU1110
	ldrb	r5, [r3, #28]	@ zero_extendqisi2
.LBE783:
.LBE782:
	.loc 1 563 8 view .LVU1111
	subs	r0, r0, #4
.LVL121:
	.loc 1 563 13 is_stmt 1 view .LVU1112
.LBB786:
	.loc 1 564 3 view .LVU1113
	.loc 1 565 3 view .LVU1114
	.loc 1 566 3 view .LVU1115
	.loc 1 568 3 view .LVU1116
.LBB784:
	.loc 1 568 8 view .LVU1117
	.loc 1 568 3 is_stmt 0 view .LVU1118
	movs	r3, #0
.LVL122:
	.loc 1 569 18 view .LVU1119
	subs	r2, r2, #4
.LVL123:
.L105:
	.loc 1 568 25 is_stmt 1 discriminator 1 view .LVU1120
	uxtb	r4, r3
	cmp	r5, r4
	bhi	.L106
.LBE784:
.LBE786:
	.loc 1 563 12 view .LVU1121
.LVL124:
.LBB787:
.LBI787:
	.loc 6 292 29 view .LVU1122
	.loc 6 292 70 view .LVU1123
.LBB788:
.LBI788:
	.loc 6 281 29 view .LVU1124
	.loc 6 281 79 view .LVU1125
.LBB789:
.LBI789:
	.loc 6 211 28 view .LVU1126
.LBB790:
	.loc 6 213 2 view .LVU1127
	.loc 6 213 13 is_stmt 0 view .LVU1128
	ldr	r0, [r0, #4]
.LVL125:
	.loc 6 213 13 view .LVU1129
	b	.L116
.LVL126:
.L106:
	.loc 6 213 13 view .LVU1130
.LBE790:
.LBE789:
.LBE788:
.LBE787:
.LBB791:
.LBB785:
	.loc 1 569 4 is_stmt 1 view .LVU1131
	.loc 1 569 7 is_stmt 0 view .LVU1132
	adds	r3, r3, #1
.LVL127:
	.loc 1 569 7 view .LVU1133
	ldrb	r4, [r2, r3, lsl #3]	@ zero_extendqisi2
.LVL128:
	.loc 1 569 7 view .LVU1134
	cmp	r4, r1
	bne	.L105
.LVL129:
.L103:
	.loc 1 569 7 view .LVU1135
.LBE785:
.LBE791:
	.loc 1 578 1 view .LVU1136
	pop	{r4, r5, pc}
	.cfi_endproc
.LFE520:
	.size	usb_get_dev_data_by_ep, .-usb_get_dev_data_by_ep
	.section	.bss.sn.0,"aw",%nobits
	.type	sn.0, %object
	.size	sn.0, 18
sn.0:
	.space	18
	.section	.usb.descriptor_primary.6,"aw"
	.type	term_descr, %object
	.size	term_descr, 2
term_descr:
	.space	2
	.section	.usb.descriptor_primary.4,"aw"
	.type	string_descr, %object
	.size	string_descr, 94
string_descr:
	.byte	4
	.byte	3
	.2byte	1033
	.byte	24
	.byte	3
	.ascii	"ZMK Project\000"
	.space	10
	.byte	32
	.byte	3
	.ascii	"DYNAMIC_PINCTLS\000"
	.space	14
	.byte	34
	.byte	3
	.ascii	"0123456789ABCDEF\000"
	.space	15
	.section	.usb.descriptor_primary.0,"aw"
	.type	common_desc, %object
	.size	common_desc, 27
common_desc:
	.byte	18
	.byte	1
	.2byte	512
	.byte	-17
	.byte	2
	.byte	1
	.byte	64
	.2byte	7504
	.2byte	24926
	.2byte	773
	.byte	1
	.byte	2
	.byte	3
	.byte	1
	.byte	9
	.byte	2
	.2byte	0
	.byte	0
	.byte	1
	.byte	0
	.byte	-32
	.byte	50
	.global	log_const_usb_descriptor
	.section	.rodata.str1.1,"aMS",%progbits,1
.LC7:
	.ascii	"usb_descriptor\000"
	.section	._log_const.static.log_const_usb_descriptor_,"a"
	.align	2
	.type	log_const_usb_descriptor, %object
	.size	log_const_usb_descriptor, 8
log_const_usb_descriptor:
	.word	.LC7
	.byte	3
	.space	3
	.text
.Letext0:
	.file 7 "/home/g/zephyr-sdk-0.16.3/arm-zephyr-eabi/picolibc/include/machine/_default_types.h"
	.file 8 "/home/g/zephyr-sdk-0.16.3/arm-zephyr-eabi/lib/gcc/arm-zephyr-eabi/12.2.0/include/stddef.h"
	.file 9 "/home/g/zephyr-sdk-0.16.3/arm-zephyr-eabi/picolibc/include/sys/_stdint.h"
	.file 10 "/home/g/mise-work/zmk-firmware/zmk/zephyr/include/zephyr/device.h"
	.file 11 "/home/g/mise-work/zmk-firmware/zmk/zephyr/include/zephyr/drivers/usb/usb_dc.h"
	.file 12 "/home/g/mise-work/zmk-firmware/zmk/zephyr/include/zephyr/usb/usb_ch9.h"
	.file 13 "/home/g/mise-work/zmk-firmware/zmk/zephyr/include/zephyr/logging/log_instance.h"
	.file 14 "/home/g/mise-work/zmk-firmware/zmk/zephyr/include/zephyr/sys/cbprintf.h"
	.file 15 "/home/g/mise-work/zmk-firmware/zmk/zephyr/include/zephyr/fatal_types.h"
	.file 16 "/home/g/mise-work/zmk-firmware/zmk/zephyr/include/zephyr/logging/log_msg.h"
	.file 17 "/home/g/mise-work/zmk-firmware/zmk/zephyr/include/zephyr/usb/usb_device.h"
	.file 18 "/home/g/mise-work/zmk-firmware/zmk/zephyr/subsys/usb/device/usb_descriptor.h"
	.file 19 "/home/g/zephyr-sdk-0.16.3/arm-zephyr-eabi/picolibc/include/sys/_types.h"
	.file 20 "/home/g/zephyr-sdk-0.16.3/arm-zephyr-eabi/picolibc/include/sys/types.h"
	.file 21 "/home/g/mise-work/zmk-firmware/zmk/zephyr/include/zephyr/kernel.h"
	.file 22 "/home/g/zephyr-sdk-0.16.3/arm-zephyr-eabi/picolibc/include/string.h"
	.file 23 "/home/g/mise-work/zmk-firmware/zmk/zephyr/include/zephyr/sys/cbprintf_internal.h"
	.file 24 "/home/g/mise-work/zmk-firmware/zmk/zephyr/include/zephyr/syscall.h"
	.file 25 "<built-in>"