	.cpu cortex-m4
	.arch armv7e-m
	.fpu fpv4-sp-d16
	.eabi_attribute 27, 1
	.eabi_attribute 28, 1
	.eabi_attribute 20, 1
	.eabi_attribute 21, 1
	.eabi_attribute 23, 3
	.eabi_attribute 24, 1
	.eabi_attribute 25, 1
	.eabi_attribute 26, 1
	.eabi_attribute 30, 4
	.eabi_attribute 34, 1
	.eabi_attribute 38, 1
	.eabi_attribute 18, 4
	.file	"addr.c"
	.text
.Ltext0:
	.cfi_sections	.debug_frame
	.file 1 "/home/g/mise-work/zmk-firmware/zmk/zephyr/subsys/bluetooth/host/addr.c"
	.section	.text.bt_addr_le_create_nrpa,"ax",%progbits
	.align	1
	.global	bt_addr_le_create_nrpa
	.syntax unified
	.thumb
	.thumb_func
	.type	bt_addr_le_create_nrpa, %function
bt_addr_le_create_nrpa:
.LVL0:
.LFB28:
	.loc 1 27 1 view -0
	.cfi_startproc
	@ args = 0, pretend = 0, frame = 0
	@ frame_needed = 0, uses_anonymous_args = 0
	.loc 1 28 2 view .LVU1
	.loc 1 30 2 view .LVU2
.LBB6:
.LBI6:
	.loc 1 19 19 view .LVU3
.LBB7:
	.loc 1 21 2 view .LVU4
	.loc 1 21 13 is_stmt 0 view .LVU5
	movs	r3, #1
.LBE7:
.LBE6:
	.loc 1 27 1 view .LVU6
	push	{r4, lr}
	.cfi_def_cfa_offset 8
	.cfi_offset 4, -8
	.cfi_offset 14, -4
.LBB10:
.LBB8:
	.loc 1 23 9 view .LVU7
	movs	r1, #6
.LBE8:
.LBE10:
	.loc 1 27 1 view .LVU8
	mov	r4, r0
.LBB11:
.LBB9:
	.loc 1 21 13 view .LVU9
	strb	r3, [r0], #1
.LVL1:
	.loc 1 23 2 is_stmt 1 view .LVU10
	.loc 1 23 9 is_stmt 0 view .LVU11
	bl	bt_rand
.LVL2:
	.loc 1 23 9 view .LVU12
.LBE9:
.LBE11:
	.loc 1 31 2 is_stmt 1 view .LVU13
	.loc 1 31 5 is_stmt 0 view .LVU14
	cbnz	r0, .L1
	.loc 1 35 2 is_stmt 1 view .LVU15
	.loc 1 35 22 is_stmt 0 view .LVU16
	ldrb	r3, [r4, #6]	@ zero_extendqisi2
	and	r3, r3, #63
	strb	r3, [r4, #6]
	.loc 1 37 2 is_stmt 1 view .LVU17
.L1:
	.loc 1 38 1 is_stmt 0 view .LVU18
	pop	{r4, pc}
	.loc 1 38 1 view .LVU19
	.cfi_endproc
.LFE28:
	.size	bt_addr_le_create_nrpa, .-bt_addr_le_create_nrpa
	.section	.text.bt_addr_le_create_static,"ax",%progbits
	.align	1
	.global	bt_addr_le_create_static
	.syntax unified
	.thumb
	.thumb_func
	.type	bt_addr_le_create_static, %function
bt_addr_le_create_static:
.LVL3:
.LFB29:
	.loc 1 41 1 is_stmt 1 view -0
	.cfi_startproc
	@ args = 0, pretend = 0, frame = 0
	@ frame_needed = 0, uses_anonymous_args = 0
	.loc 1 42 2 view .LVU21
	.loc 1 44 2 view .LVU22
.LBB14:
.LBI14:
	.loc 1 19 19 view .LVU23
.LBB15:
	.loc 1 21 2 view .LVU24
	.loc 1 21 13 is_stmt 0 view .LVU25
	movs	r3, #1
.LBE15:
.LBE14:
	.loc 1 41 1 view .LVU26
	push	{r4, lr}
	.cfi_def_cfa_offset 8
	.cfi_offset 4, -8
	.cfi_offset 14, -4
.LBB18:
.LBB16:
	.loc 1 23 9 view .LVU27
	movs	r1, #6
.LBE16:
.LBE18:
	.loc 1 41 1 view .LVU28
	mov	r4, r0
.LBB19:
.LBB17:
	.loc 1 21 13 view .LVU29
	strb	r3, [r0], #1
.LVL4:
	.loc 1 23 2 is_stmt 1 view .LVU30
	.loc 1 23 9 is_stmt 0 view .LVU31
	bl	bt_rand
.LVL5:
	.loc 1 23 9 view .LVU32
.LBE17:
.LBE19:
	.loc 1 45 2 is_stmt 1 view .LVU33
	.loc 1 45 5 is_stmt 0 view .LVU34
	cbnz	r0, .L3
	.loc 1 49 2 is_stmt 1 view .LVU35
	.loc 1 49 22 is_stmt 0 view .LVU36
	ldrb	r3, [r4, #6]	@ zero_extendqisi2
	orn	r3, r3, #63
	strb	r3, [r4, #6]
	.loc 1 51 2 is_stmt 1 view .LVU37
.L3:
	.loc 1 52 1 is_stmt 0 view .LVU38
	pop	{r4, pc}
	.loc 1 52 1 view .LVU39
	.cfi_endproc
.LFE29:
	.size	bt_addr_le_create_static, .-bt_addr_le_create_static
	.section	.text.bt_addr_from_str,"ax",%progbits
	.align	1
	.global	bt_addr_from_str
	.syntax unified
	.thumb
	.thumb_func
	.type	bt_addr_from_str, %function
bt_addr_from_str:
.LVL6:
.LFB30:
	.loc 1 55 1 is_stmt 1 view -0
	.cfi_startproc
	@ args = 0, pretend = 0, frame = 0
	@ frame_needed = 0, uses_anonymous_args = 0
	.loc 1 55 1 is_stmt 0 view .LVU41
	push	{r4, r5, r6, lr}
	.cfi_def_cfa_offset 16
	.cfi_offset 4, -16
	.cfi_offset 5, -12
	.cfi_offset 6, -8
	.cfi_offset 14, -4
	.loc 1 55 1 view .LVU42
	mov	r4, r0
	.loc 1 60 2 is_stmt 1 view .LVU43
	.loc 1 55 1 is_stmt 0 view .LVU44
	mov	r5, r1
	.loc 1 60 21 view .LVU45
	bl	strlen
.LVL7:
	.loc 1 63 2 is_stmt 1 view .LVU46
	.loc 1 63 5 is_stmt 0 view .LVU47
	cmp	r0, #17
	bne	.L6
.LBB20:
	.loc 1 68 14 view .LVU48
	movs	r3, #2
.L7:
.LVL8:
	.loc 1 69 3 is_stmt 1 view .LVU49
	.loc 1 69 6 is_stmt 0 view .LVU50
	ldrb	r2, [r4, r3]	@ zero_extendqisi2
	cmp	r2, #58
	bne	.L6
	.loc 1 68 32 is_stmt 1 discriminator 2 view .LVU51
	adds	r3, r3, #3
.LVL9:
	.loc 1 68 23 discriminator 2 view .LVU52
	cmp	r3, #17
	bne	.L7
	adds	r5, r5, #5
.LVL10:
	.loc 1 68 23 is_stmt 0 discriminator 2 view .LVU53
	add	r6, r4, #18
.LVL11:
.L8:
	.loc 1 68 23 discriminator 2 view .LVU54
.LBE20:
.LBB21:
.LBB22:
	.loc 1 78 3 is_stmt 1 view .LVU55
	.loc 1 80 3 view .LVU56
	.loc 1 80 8 is_stmt 0 view .LVU57
	movs	r3, #1
	mov	r2, r5
	movs	r1, #2
	mov	r0, r4
	bl	hex2bin
.LVL12:
	.loc 1 80 6 view .LVU58
	cbz	r0, .L6
.LBE22:
	.loc 1 77 206 is_stmt 1 discriminator 2 view .LVU59
.LVL13:
	.loc 1 77 23 discriminator 2 view .LVU60
	adds	r4, r4, #3
	cmp	r4, r6
	add	r5, r5, #-1
.LVL14:
	.loc 1 77 23 is_stmt 0 discriminator 2 view .LVU61
	bne	.L8
.LBE21:
	.loc 1 85 9 view .LVU62
	movs	r0, #0
.LVL15:
.L5:
	.loc 1 86 1 view .LVU63
	pop	{r4, r5, r6, pc}
.L6:
	.loc 1 64 10 view .LVU64
	mvn	r0, #21
	b	.L5
	.cfi_endproc
.LFE30:
	.size	bt_addr_from_str, .-bt_addr_from_str
	.section	.rodata.bt_addr_le_from_str.str1.1,"aMS",%progbits,1
.LC0:
	.ascii	"public\000"
.LC1:
	.ascii	"(public)\000"
.LC2:
	.ascii	"random\000"
.LC3:
	.ascii	"(random)\000"
.LC4:
	.ascii	"public-id\000"
.LC5:
	.ascii	"(public-id)\000"
.LC6:
	.ascii	"random-id\000"
.LC7:
	.ascii	"(random-id)\000"
	.section	.text.bt_addr_le_from_str,"ax",%progbits
	.align	1
	.global	bt_addr_le_from_str
	.syntax unified
	.thumb
	.thumb_func
	.type	bt_addr_le_from_str, %function
bt_addr_le_from_str:
.LVL16:
.LFB31:
	.loc 1 89 1 is_stmt 1 view -0
	.cfi_startproc
	@ args = 0, pretend = 0, frame = 0
	@ frame_needed = 0, uses_anonymous_args = 0
	.loc 1 90 2 view .LVU66
	.loc 1 92 2 view .LVU67
	.loc 1 89 1 is_stmt 0 view .LVU68
	push	{r3, r4, r5, lr}
	.cfi_def_cfa_offset 16
	.cfi_offset 3, -16
	.cfi_offset 4, -12
	.cfi_offset 5, -8
	.cfi_offset 14, -4
	.loc 1 89 1 view .LVU69
	mov	r4, r1
	.loc 1 92 8 view .LVU70
	adds	r1, r2, #1
.LVL17:
	.loc 1 89 1 view .LVU71
	mov	r5, r2
	.loc 1 92 8 view .LVU72
	bl	bt_addr_from_str
.LVL18:
	.loc 1 93 2 is_stmt 1 view .LVU73
	.loc 1 93 5 is_stmt 0 view .LVU74
	cmp	r0, #0
	.loc 1 93 5 view .LVU75
	blt	.L15
	.loc 1 97 2 is_stmt 1 view .LVU76
	.loc 1 97 7 is_stmt 0 view .LVU77
	ldr	r1, .L26
	mov	r0, r4
.LVL19:
	.loc 1 97 7 view .LVU78
	bl	strcmp
.LVL20:
	.loc 1 97 5 view .LVU79
	cbz	r0, .L17
	.loc 1 97 34 discriminator 1 view .LVU80
	ldr	r1, .L26+4
	mov	r0, r4
	bl	strcmp
.LVL21:
	.loc 1 97 30 discriminator 1 view .LVU81
	cbnz	r0, .L18
.L17:
	.loc 1 98 14 view .LVU82
	strb	r0, [r5]
	.loc 1 109 9 view .LVU83
	movs	r0, #0
.L15:
	.loc 1 110 1 view .LVU84
	pop	{r3, r4, r5, pc}
.LVL22:
.L21:
	.loc 1 110 1 view .LVU85
	movs	r0, #1
	b	.L17
.L23:
	movs	r0, #2
	b	.L17
.L25:
	movs	r0, #3
	b	.L17
.L18:
	.loc 1 99 9 is_stmt 1 view .LVU86
	.loc 1 99 14 is_stmt 0 view .LVU87
	ldr	r1, .L26+8
	mov	r0, r4
	bl	strcmp
.LVL23:
	.loc 1 99 12 view .LVU88
	cmp	r0, #0
	beq	.L21
	.loc 1 99 41 discriminator 1 view .LVU89
	ldr	r1, .L26+12
	mov	r0, r4
	bl	strcmp
.LVL24:
	.loc 1 99 37 discriminator 1 view .LVU90
	cmp	r0, #0
	beq	.L21
	.loc 1 101 9 is_stmt 1 view .LVU91
	.loc 1 101 14 is_stmt 0 view .LVU92
	ldr	r1, .L26+16
	mov	r0, r4
	bl	strcmp
.LVL25:
	.loc 1 101 12 view .LVU93
	cmp	r0, #0
	beq	.L23
	.loc 1 101 44 discriminator 1 view .LVU94
	ldr	r1, .L26+20
	mov	r0, r4
	bl	strcmp
.LVL26:
	.loc 1 101 40 discriminator 1 view .LVU95
	cmp	r0, #0
	beq	.L23
	.loc 1 103 9 is_stmt 1 view .LVU96
	.loc 1 103 14 is_stmt 0 view .LVU97
	ldr	r1, .L26+24
	mov	r0, r4
	bl	strcmp
.LVL27:
	.loc 1 103 12 view .LVU98
	cmp	r0, #0
	beq	.L25
	.loc 1 103 44 discriminator 1 view .LVU99
	ldr	r1, .L26+28
	mov	r0, r4
	bl	strcmp
.LVL28:
	.loc 1 103 40 discriminator 1 view .LVU100
	cmp	r0, #0
	beq	.L25
	.loc 1 106 10 view .LVU101
	mvn	r0, #21
	b	.L15
.L27:
	.align	2
.L26:
	.word	.LC0
	.word	.LC1
	.word	.LC2
	.word	.LC3
	.word	.LC4
	.word	.LC5
	.word	.LC6
	.word	.LC7
	.cfi_endproc
.LFE31:
	.size	bt_addr_le_from_str, .-bt_addr_le_from_str
	.section	.text.bt_addr_le_copy_resolved,"ax",%progbits
	.align	1
	.global	bt_addr_le_copy_resolved
	.syntax unified
	.thumb
	.thumb_func
	.type	bt_addr_le_copy_resolved, %function
bt_addr_le_copy_resolved:
.LVL29:
.LFB32:
	.loc 1 113 1 is_stmt 1 view -0
	.cfi_startproc
	@ args = 0, pretend = 0, frame = 0
	@ frame_needed = 0, uses_anonymous_args = 0
	@ link register save eliminated.
	.loc 1 114 2 view .LVU103
.LBB27:
.LBI27:
	.file 2 "/home/g/mise-work/zmk-firmware/zmk/zephyr/include/zephyr/bluetooth/addr.h"
	.loc 2 137 20 view .LVU104
	.loc 2 139 1 view .LVU105
.LBB28:
.LBI28:
	.file 3 "/home/g/zephyr-sdk-0.16.3/arm-zephyr-eabi/picolibc/include/ssp/string.h"
	.loc 3 83 216 view .LVU106
.LBB29:
	.loc 3 83 292 view .LVU107
	.loc 3 83 299 is_stmt 0 view .LVU108
	ldr	r3, [r1]	@ unaligned
	str	r3, [r0]	@ unaligned
	ldrh	r3, [r1, #4]	@ unaligned
	strh	r3, [r0, #4]	@ unaligned
	ldrb	r3, [r1, #6]	@ zero_extendqisi2
	strb	r3, [r0, #6]
.LVL30:
	.loc 3 83 299 view .LVU109
.LBE29:
.LBE28:
.LBE27:
	.loc 1 116 2 is_stmt 1 view .LVU110
	.loc 1 116 12 is_stmt 0 view .LVU111
	ldrb	r3, [r0]	@ zero_extendqisi2
	bic	r3, r3, #2
	strb	r3, [r0]
	.loc 1 117 1 view .LVU112
	bx	lr
	.cfi_endproc
.LFE32:
	.size	bt_addr_le_copy_resolved, .-bt_addr_le_copy_resolved
	.section	.text.bt_addr_le_is_resolved,"ax",%progbits
	.align	1
	.global	bt_addr_le_is_resolved
	.syntax unified
	.thumb
	.thumb_func
	.type	bt_addr_le_is_resolved, %function
bt_addr_le_is_resolved:
.LVL31:
.LFB33:
	.loc 1 120 1 is_stmt 1 view -0
	.cfi_startproc
	@ args = 0, pretend = 0, frame = 0
	@ frame_needed = 0, uses_anonymous_args = 0
	@ link register save eliminated.
	.loc 1 121 2 view .LVU114
	.loc 1 121 31 is_stmt 0 view .LVU115
	ldrb	r0, [r0]	@ zero_extendqisi2
.LVL32:
	.loc 1 122 1 view .LVU116
	ubfx	r0, r0, #1, #1
	bx	lr
	.cfi_endproc
.LFE33:
	.size	bt_addr_le_is_resolved, .-bt_addr_le_is_resolved
	.text
.Letext0:
	.file 4 "/home/g/zephyr-sdk-0.16.3/arm-zephyr-eabi/picolibc/include/machine/_default_types.h"
	.file 5 "/home/g/zephyr-sdk-0.16.3/arm-zephyr-eabi/lib/gcc/arm-zephyr-eabi/12.2.0/include/stddef.h"
	.file 6 "/home/g/zephyr-sdk-0.16.3/arm-zephyr-eabi/picolibc/include/sys/_stdint.h"
	.file 7 "/home/g/zephyr-sdk-0.16.3/arm-zephyr-eabi/picolibc/include/string.h"
	.file 8 "/home/g/mise-work/zmk-firmware/zmk/zephyr/include/zephyr/sys/util.h"
	.file 9 "/home/g/mise-work/zmk-firmware/zmk/zephyr/include/zephyr/bluetooth/crypto.h"