	.cpu cortex-m4
	.arch armv7e-m
	.fpu fpv4-sp-d16
	.eabi_attribute 27, 1
	.eabi_attribute 28, 1
	.eabi_attribute 20, 1
	.eabi_attribute 21, 1
	.eabi_attribute 23, 3
	.eabi_attribute 24, 1
	.eabi_attribute 25, 1
	.eabi_attribute 26, 1
	.eabi_attribute 30, 4
	.eabi_attribute 34, 1
	.eabi_attribute 38, 1
	.eabi_attribute 18, 4
	.file	"adv.c"
	.text
.Ltext0:
	.cfi_sections	.debug_frame
	.file 1 "/home/g/mise-work/zmk-firmware/zmk/zephyr/subsys/bluetooth/host/adv.c"
	.section	.text.get_adv_channel_map,"ax",%progbits
	.align	1
	.syntax unified
	.thumb
	.thumb_func
	.type	get_adv_channel_map, %function
get_adv_channel_map:
.LVL0:
.LFB603:
	.loc 1 884 1 view -0
	.cfi_startproc
	@ args = 0, pretend = 0, frame = 0
	@ frame_needed = 0, uses_anonymous_args = 0
	@ link register save eliminated.
	.loc 1 885 2 view .LVU1
	.loc 1 887 2 view .LVU2
	.loc 1 884 1 is_stmt 0 view .LVU3
	mov	r3, r0
	.loc 1 888 15 view .LVU4
	tst	r0, #32768
	ite	eq
	moveq	r0, #7
.LVL1:
	.loc 1 888 15 view .LVU5
	movne	r0, #6
.LVL2:
	.loc 1 891 2 is_stmt 1 view .LVU6
	.loc 1 891 5 is_stmt 0 view .LVU7
	lsls	r2, r3, #15
	.loc 1 892 3 is_stmt 1 view .LVU8
	.loc 1 892 15 is_stmt 0 view .LVU9
	it	mi
	andmi	r0, r0, #5
.LVL3:
	.loc 1 895 2 is_stmt 1 view .LVU10
	.loc 1 895 5 is_stmt 0 view .LVU11
	lsls	r3, r3, #14
.LVL4:
	.loc 1 896 3 is_stmt 1 view .LVU12
	.loc 1 896 15 is_stmt 0 view .LVU13
	it	mi
	andmi	r0, r0, #251
.LVL5:
	.loc 1 899 2 is_stmt 1 view .LVU14
	.loc 1 900 1 is_stmt 0 view .LVU15
	bx	lr
	.cfi_endproc
.LFE603:
	.size	get_adv_channel_map, .-get_adv_channel_map
	.section	.text.atomic_get,"ax",%progbits
	.align	1
	.syntax unified
	.thumb
	.thumb_func
	.type	atomic_get, %function
atomic_get:
.LVL6:
.LFB44:
	.file 2 "/home/g/mise-work/zmk-firmware/zmk/zephyr/include/zephyr/sys/atomic_builtin.h"
	.loc 2 160 1 is_stmt 1 view -0
	.cfi_startproc
	@ args = 0, pretend = 0, frame = 0
	@ frame_needed = 0, uses_anonymous_args = 0
	@ link register save eliminated.
	.loc 2 161 2 view .LVU17
	.loc 2 161 9 is_stmt 0 view .LVU18
	dmb	ish
	ldr	r0, [r0]
.LVL7:
	.loc 2 161 9 view .LVU19
	dmb	ish
	.loc 2 162 1 view .LVU20
	bx	lr
	.cfi_endproc
.LFE44:
	.size	atomic_get, .-atomic_get
	.section	.text.atomic_and,"ax",%progbits
	.align	1
	.syntax unified
	.thumb
	.thumb_func
	.type	atomic_and, %function
atomic_and:
.LVL8:
.LFB52:
	.loc 2 320 1 is_stmt 1 view -0
	.cfi_startproc
	@ args = 0, pretend = 0, frame = 0
	@ frame_needed = 0, uses_anonymous_args = 0
	.loc 2 321 2 view .LVU22
	.loc 2 320 1 is_stmt 0 view .LVU23
	push	{r4, lr}
	.cfi_def_cfa_offset 8
	.cfi_offset 4, -8
	.cfi_offset 14, -4
	.loc 2 320 1 view .LVU24
	mov	r3, r0
	.loc 2 322 1 view .LVU25
	dmb	ish
.LVL9:
.L14:
	.loc 2 322 1 view .LVU26
	ldrex	r0, [r3]
	and	r2, r0, r1
	strex	r4, r2, [r3]
	cmp	r4, #0
	bne	.L14
	dmb	ish
	pop	{r4, pc}
	.cfi_endproc
.LFE52:
	.size	atomic_and, .-atomic_and
	.section	.text.bt_addr_le_copy,"ax",%progbits
	.align	1
	.syntax unified
	.thumb
	.thumb_func
	.type	bt_addr_le_copy, %function
bt_addr_le_copy:
.LVL10:
.LFB537:
	.file 3 "/home/g/mise-work/zmk-firmware/zmk/zephyr/include/zephyr/bluetooth/addr.h"
	.loc 3 138 1 is_stmt 1 view -0
	.cfi_startproc
	@ args = 0, pretend = 0, frame = 0
	@ frame_needed = 0, uses_anonymous_args = 0
	@ link register save eliminated.
	.loc 3 139 1 view .LVU28
.LBB408:
.LBI408:
	.loc 3 137 20 view .LVU29
.LBB409:
.LBI409:
	.file 4 "/home/g/zephyr-sdk-0.16.3/arm-zephyr-eabi/picolibc/include/ssp/string.h"
	.loc 4 83 216 view .LVU30
.LBB410:
	.loc 4 83 292 view .LVU31
	.loc 4 83 299 is_stmt 0 view .LVU32
	ldr	r3, [r1]	@ unaligned
	str	r3, [r0]	@ unaligned
	ldrh	r3, [r1, #4]	@ unaligned
	strh	r3, [r0, #4]	@ unaligned
	ldrb	r3, [r1, #6]	@ zero_extendqisi2
	strb	r3, [r0, #6]
.LVL11:
	.loc 4 83 299 view .LVU33
.LBE410:
.LBE409:
.LBE408:
	.loc 3 140 1 view .LVU34
	bx	lr
	.cfi_endproc
.LFE537:
	.size	bt_addr_le_copy, .-bt_addr_le_copy
	.section	.rodata.hci_set_ad.str1.1,"aMS",%progbits,1
.LC0:
	.ascii	"Too big advertising data\000"
	.section	.text.hci_set_ad,"ax",%progbits
	.align	1
	.syntax unified
	.thumb
	.thumb_func
	.type	hci_set_ad, %function
hci_set_ad:
.LVL12:
.LFB592:
	.loc 1 534 1 is_stmt 1 view -0
	.cfi_startproc
	@ args = 0, pretend = 0, frame = 32
	@ frame_needed = 0, uses_anonymous_args = 0
	.loc 1 535 2 view .LVU36
	.loc 1 536 2 view .LVU37
	.loc 1 537 2 view .LVU38
	.loc 1 539 2 view .LVU39
	.loc 1 534 1 is_stmt 0 view .LVU40
	push	{r4, r5, r6, r7, r8, r9, r10, fp, lr}
	.cfi_def_cfa_offset 36
	.cfi_offset 4, -36
	.cfi_offset 5, -32
	.cfi_offset 6, -28
	.cfi_offset 7, -24
	.cfi_offset 8, -20
	.cfi_offset 9, -16
	.cfi_offset 10, -12
	.cfi_offset 11, -8
	.cfi_offset 14, -4
	sub	sp, sp, #36
	.cfi_def_cfa_offset 72
	.loc 1 534 1 view .LVU41
	mov	r4, r1
	.loc 1 539 8 view .LVU42
	movs	r1, #32
.LVL13:
	.loc 1 534 1 view .LVU43
	str	r0, [sp]
	mov	r10, r2
	.loc 1 539 8 view .LVU44
	bl	bt_hci_cmd_create
.LVL14:
	.loc 1 540 2 is_stmt 1 view .LVU45
	.loc 1 540 5 is_stmt 0 view .LVU46
	mov	r5, r0
	cmp	r0, #0
	beq	.L24
	.loc 1 544 2 is_stmt 1 view .LVU47
.LVL15:
.LBB445:
.LBI445:
	.file 5 "/home/g/mise-work/zmk-firmware/zmk/zephyr/include/zephyr/net/buf.h"
	.loc 5 1493 21 view .LVU48
.LBB446:
	.loc 5 1495 2 view .LVU49
	.loc 5 1495 9 is_stmt 0 view .LVU50
	movs	r1, #32
	adds	r0, r0, #12
.LVL16:
	.loc 5 1495 9 view .LVU51
	bl	net_buf_simple_add
.LVL17:
.LBE446:
.LBE445:
.LBB448:
.LBB449:
	.loc 4 86 245 view .LVU52
	movs	r2, #32
	movs	r1, #0
.LBE449:
.LBE448:
.LBB451:
.LBB447:
	.loc 5 1495 9 view .LVU53
	mov	r9, r0
.LVL18:
	.loc 5 1495 9 view .LVU54
.LBE447:
.LBE451:
	.loc 1 545 2 is_stmt 1 view .LVU55
.LBB452:
.LBI448:
	.loc 4 86 189 view .LVU56
.LBB450:
	.loc 4 86 238 view .LVU57
	.loc 4 86 245 is_stmt 0 view .LVU58
	bl	memset
.LVL19:
	.loc 4 86 245 view .LVU59
.LBE450:
.LBE452:
	.loc 1 547 2 is_stmt 1 view .LVU60
	.loc 1 547 38 is_stmt 0 view .LVU61
	add	fp, r9, #1
.LVL20:
.LBB453:
.LBI453:
	.loc 1 494 12 is_stmt 1 view .LVU62
.LBB454:
.LBB455:
	.loc 1 499 23 view .LVU63
	add	r10, r4, r10, lsl #3
.LVL21:
	.loc 1 499 23 is_stmt 0 view .LVU64
.LBE455:
	.loc 1 497 10 view .LVU65
	movs	r6, #0
.LVL22:
.L23:
.LBB487:
.LBB456:
	.loc 1 500 3 is_stmt 1 view .LVU66
	.loc 1 502 3 view .LVU67
.LBB457:
	.loc 1 502 8 view .LVU68
	.loc 1 502 8 is_stmt 0 view .LVU69
	ldr	r8, [r4]
	.loc 1 502 15 view .LVU70
	movs	r3, #0
.LVL23:
.L18:
	.loc 1 502 24 is_stmt 1 view .LVU71
	ldr	r2, [r4, #4]
	cmp	r3, r2
	bcc	.L22
	.loc 1 502 24 is_stmt 0 view .LVU72
.LBE457:
.LBE456:
	.loc 1 499 34 is_stmt 1 view .LVU73
	.loc 1 499 23 view .LVU74
	adds	r4, r4, #8
	cmp	r10, r4
	bne	.L23
.LBE487:
	.loc 1 529 2 view .LVU75
.LBE454:
.LBE453:
	.loc 1 554 9 is_stmt 0 view .LVU76
	ldr	r0, [sp]
.LBB495:
.LBB491:
	.loc 1 529 12 view .LVU77
	strb	r6, [r9]
	.loc 1 530 2 is_stmt 1 view .LVU78
.LVL24:
	.loc 1 530 2 is_stmt 0 view .LVU79
.LBE491:
.LBE495:
	.loc 1 549 2 is_stmt 1 view .LVU80
	.loc 1 554 2 view .LVU81
	.loc 1 554 9 is_stmt 0 view .LVU82
	movs	r2, #0
	mov	r1, r5
	.loc 1 555 1 view .LVU83
	add	sp, sp, #36
	.cfi_remember_state
	.cfi_def_cfa_offset 36
	@ sp needed
	pop	{r4, r5, r6, r7, r8, r9, r10, fp, lr}
	.cfi_restore 14
	.cfi_restore 11
	.cfi_restore 10
	.cfi_restore 9
	.cfi_restore 8
	.cfi_restore 7
	.cfi_restore 6
	.cfi_restore 5
	.cfi_restore 4
	.cfi_def_cfa_offset 0
.LVL25:
	.loc 1 554 9 view .LVU84
	b	bt_hci_cmd_send_sync
.LVL26:
.L22:
	.cfi_restore_state
.LBB496:
.LBB492:
.LBB488:
.LBB484:
.LBB481:
.LBB458:
	.loc 1 503 4 is_stmt 1 view .LVU85
	.loc 1 503 11 is_stmt 0 view .LVU86
	ldrb	r2, [r8, #1]	@ zero_extendqisi2
.LVL27:
	.loc 1 504 4 is_stmt 1 view .LVU87
	.loc 1 504 12 is_stmt 0 view .LVU88
	ldrb	ip, [r8]	@ zero_extendqisi2
.LVL28:
	.loc 1 507 4 is_stmt 1 view .LVU89
	adds	r0, r6, #2
	.loc 1 507 28 is_stmt 0 view .LVU90
	adds	r1, r2, r0
	.loc 1 507 7 view .LVU91
	cmp	r1, #31
	bls	.L19
.LBB459:
	.loc 1 508 5 is_stmt 1 view .LVU92
	.loc 1 511 8 is_stmt 0 view .LVU93
	cmp	ip, #9
	.loc 1 508 13 view .LVU94
	rsb	r2, r0, #31
.LVL29:
	.loc 1 511 5 is_stmt 1 view .LVU95
	.loc 1 511 8 is_stmt 0 view .LVU96
	bne	.L20
	.loc 1 511 9 view .LVU97
	cmp	r2, #0
	bgt	.L21
.L20:
	.loc 1 513 6 is_stmt 1 view .LVU98
.LBB460:
	.loc 1 513 11 view .LVU99
	.loc 1 513 60 view .LVU100
	.loc 1 513 17 view .LVU101
	.loc 1 513 5 view .LVU102
.LVL30:
	.loc 1 513 44 view .LVU103
	.loc 1 513 179 view .LVU104
	.loc 1 513 190 view .LVU105
	.loc 1 513 278 view .LVU106
	.loc 1 513 6 view .LVU107
	.loc 1 513 6 view .LVU108
.LBB461:
	.loc 1 513 11 view .LVU109
	.loc 1 513 5 view .LVU110
	.loc 1 513 15 view .LVU111
	.loc 1 513 105 view .LVU112
	.loc 1 513 107 view .LVU113
.LBB462:
	.loc 1 513 112 view .LVU114
	.loc 1 513 123 view .LVU115
	.loc 1 513 212 view .LVU116
	.loc 1 513 29 view .LVU117
	.loc 1 513 32 view .LVU118
	.loc 1 513 6 view .LVU119
	.loc 1 513 6 view .LVU120
	.loc 1 513 73 view .LVU121
	.loc 1 513 77 view .LVU122
	.loc 1 513 487 view .LVU123
	.loc 1 513 8 view .LVU124
	.loc 1 513 10 view .LVU125
	.loc 1 513 15 view .LVU126
	.loc 1 513 13 view .LVU127
	.loc 1 513 8 view .LVU128
	.loc 1 513 26 view .LVU129
.LBB463:
	.loc 1 513 6 view .LVU130
	.loc 1 513 371 view .LVU131
	.loc 1 513 78 view .LVU132
.LVL31:
	.loc 1 513 5 view .LVU133
	.loc 1 513 5 view .LVU134
	.loc 1 513 5 view .LVU135
	.loc 1 513 41 view .LVU136
	.loc 1 513 70 view .LVU137
	.loc 1 513 96 view .LVU138
	.loc 1 513 122 view .LVU139
	.loc 1 513 145 view .LVU140
	.loc 1 513 207 view .LVU141
	.loc 1 513 264 view .LVU142
	.loc 1 513 329 view .LVU143
	.loc 1 513 354 view .LVU144
	.loc 1 513 355 view .LVU145
	.loc 1 513 357 view .LVU146
	.loc 1 513 387 view .LVU147
	.loc 1 513 417 view .LVU148
	.loc 1 513 449 view .LVU149
	.loc 1 513 481 view .LVU150
	.loc 1 513 513 view .LVU151
	.loc 1 513 710 view .LVU152
	.loc 1 513 734 view .LVU153
	.loc 1 513 735 view .LVU154
	.loc 1 513 737 view .LVU155
	.loc 1 513 766 view .LVU156
	.loc 1 513 795 view .LVU157
	.loc 1 513 826 view .LVU158
	.loc 1 513 857 view .LVU159
	.loc 1 513 888 view .LVU160
	.loc 1 513 1095 view .LVU161
	.loc 1 513 7 view .LVU162
	.loc 1 513 25 view .LVU163
	.loc 1 513 45 view .LVU164
	.loc 1 513 7 view .LVU165
	.loc 1 513 45 view .LVU166
	.loc 1 513 16 view .LVU167
	.loc 1 513 16 view .LVU168
	.loc 1 513 64 view .LVU169
	.loc 1 513 95 view .LVU170
	.loc 1 513 129 view .LVU171
.LBB464:
	.loc 1 513 134 view .LVU172
	.loc 1 513 382 view .LVU173
	.loc 1 513 1427 view .LVU174
	.loc 1 513 1492 view .LVU175
	.loc 1 513 1705 view .LVU176
	.loc 1 513 1745 view .LVU177
	.loc 1 513 1770 view .LVU178
	.loc 1 513 3055 view .LVU179
	.loc 1 513 3093 view .LVU180
	.loc 1 513 3098 view .LVU181
	.loc 1 513 3680 view .LVU182
	.loc 1 513 0 is_stmt 0 view .LVU183
	ldr	r3, .L26
.LVL32:
	.loc 1 513 0 view .LVU184
	str	r3, [sp, #28]
.LVL33:
	.loc 1 513 3096 is_stmt 1 view .LVU185
	.loc 1 513 10 view .LVU186
	.loc 1 513 33 view .LVU187
	.loc 1 513 33 is_stmt 0 view .LVU188
.LBE464:
	.loc 1 513 132 is_stmt 1 view .LVU189
	.loc 1 513 8 view .LVU190
	.loc 1 513 31 view .LVU191
	.loc 1 513 55 view .LVU192
	.loc 1 513 83 view .LVU193
	.loc 1 513 259 view .LVU194
	.loc 1 513 19 view .LVU195
.LBB465:
	.loc 1 513 9 view .LVU196
	.loc 1 513 167 view .LVU197
	.loc 1 513 169 view .LVU198
	.loc 1 513 179 is_stmt 0 view .LVU199
	movs	r3, #2
	str	r3, [sp, #24]
.LVL34:
	.loc 1 513 179 view .LVU200
.LBE465:
.LBE463:
	.loc 1 513 29 is_stmt 1 view .LVU201
	.loc 1 513 10 view .LVU202
	.loc 1 513 150 view .LVU203
	.loc 1 513 152 view .LVU204
.LBB466:
.LBI466:
	.file 6 "/home/g/mise-work/zmk-firmware/zmk/app/build/zephyr/include/generated/syscalls/log_msg.h"
	.loc 6 26 20 view .LVU205
.LBB467:
	.loc 6 38 2 view .LVU206
	.loc 6 38 7 view .LVU207
	.loc 6 38 5 view .LVU208
	.loc 6 39 2 view .LVU209
	ldr	r0, .L26+4
	movs	r3, #0
	add	r2, sp, #24
.LVL35:
	.loc 6 39 2 is_stmt 0 view .LVU210
	mov	r1, #4160
	bl	z_impl_z_log_msg_static_create
.LVL36:
	.loc 6 39 2 view .LVU211
.LBE467:
.LBE466:
.LBE462:
	.loc 1 513 110 is_stmt 1 view .LVU212
	.loc 1 513 8 view .LVU213
.LVL37:
	.loc 1 513 45 view .LVU214
.LBE461:
	.loc 1 513 9 view .LVU215
	.loc 1 513 281 view .LVU216
	.loc 1 513 8 view .LVU217
	.loc 1 513 21 view .LVU218
.LBE460:
	.loc 1 513 9 view .LVU219
	.loc 1 514 6 view .LVU220
	.loc 1 514 6 is_stmt 0 view .LVU221
.LBE459:
.LBE458:
.LBE481:
.LBE484:
.LBE488:
.LBE492:
.LBE496:
	.loc 1 549 2 is_stmt 1 view .LVU222
	.loc 1 550 3 view .LVU223
	mov	r0, r5
	bl	net_buf_unref
.LVL38:
	.loc 1 551 3 view .LVU224
.LBB497:
.LBB493:
.LBB489:
.LBB485:
.LBB482:
.LBB478:
.LBB468:
	.loc 1 514 13 is_stmt 0 view .LVU225
	mvn	r0, #21
.LVL39:
.L16:
	.loc 1 514 13 view .LVU226
.LBE468:
.LBE478:
.LBE482:
.LBE485:
.LBE489:
.LBE493:
.LBE497:
	.loc 1 555 1 view .LVU227
	add	sp, sp, #36
	.cfi_remember_state
	.cfi_def_cfa_offset 36
	@ sp needed
	pop	{r4, r5, r6, r7, r8, r9, r10, fp, pc}
.LVL40:
.L21:
	.cfi_restore_state
.LBB498:
.LBB494:
.LBB490:
.LBB486:
.LBB483:
.LBB479:
.LBB469:
	.loc 1 517 5 is_stmt 1 view .LVU228
	.loc 1 518 5 view .LVU229
	.loc 1 517 10 is_stmt 0 view .LVU230
	mov	ip, #8
.LVL41:
.L19:
	.loc 1 517 10 view .LVU231
.LBE469:
	.loc 1 521 35 view .LVU232
	uxtb	r7, r2
	adds	r1, r7, #1
	.loc 1 521 29 view .LVU233
	strb	r1, [fp, r6]
	.loc 1 521 25 view .LVU234
	adds	r1, r6, #1
	.loc 1 522 25 view .LVU235
	uxtb	r1, r1
.LBB470:
.LBB471:
	.loc 4 83 299 view .LVU236
	uxtab	r0, fp, r0
.LBE471:
.LBE470:
	.loc 1 522 29 view .LVU237
	strb	ip, [fp, r1]
.LBB475:
.LBB472:
	.loc 4 83 299 view .LVU238
	ldr	r1, [r8, #4]
	str	r3, [sp, #4]
.LVL42:
	.loc 4 83 299 view .LVU239
.LBE472:
.LBE475:
	.loc 1 521 4 is_stmt 1 view .LVU240
	.loc 1 522 4 view .LVU241
	.loc 1 524 3 view .LVU242
.LBB476:
.LBI470:
	.loc 4 83 216 view .LVU243
.LBB473:
	.loc 4 83 292 view .LVU244
.LBE473:
.LBE476:
	.loc 1 525 17 is_stmt 0 view .LVU245
	adds	r7, r7, #2
.LBB477:
.LBB474:
	.loc 4 83 299 view .LVU246
	bl	memcpy
.LVL43:
	.loc 4 83 299 view .LVU247
.LBE474:
.LBE477:
	.loc 1 525 4 is_stmt 1 view .LVU248
.LBE479:
	.loc 1 502 38 is_stmt 0 view .LVU249
	ldr	r3, [sp, #4]
.LBB480:
	.loc 1 525 17 view .LVU250
	add	r7, r7, r6
	uxtb	r6, r7
.LVL44:
	.loc 1 525 17 view .LVU251
.LBE480:
	.loc 1 502 38 is_stmt 1 view .LVU252
	adds	r3, r3, #1
.LVL45:
	.loc 1 502 38 is_stmt 0 view .LVU253
	add	r8, r8, #8
	b	.L18
.LVL46:
.L24:
	.loc 1 502 38 view .LVU254
.LBE483:
.LBE486:
.LBE490:
.LBE494:
.LBE498:
	.loc 1 541 10 view .LVU255
	mvn	r0, #104
.LVL47:
	.loc 1 541 10 view .LVU256
	b	.L16
.L27:
	.align	2
.L26:
	.word	.LC0
	.word	log_const_bt_adv
	.cfi_endproc
.LFE592:
	.size	hci_set_ad, .-hci_set_ad
	.section	.text.valid_adv_param,"ax",%progbits
	.align	1
	.syntax unified
	.thumb
	.thumb_func
	.type	valid_adv_param, %function
valid_adv_param:
.LVL48:
.LFB590:
	.loc 1 482 1 is_stmt 1 view -0
	.cfi_startproc
	@ args = 0, pretend = 0, frame = 0
	@ frame_needed = 0, uses_anonymous_args = 0
	.loc 1 483 2 view .LVU258
	.loc 1 482 1 is_stmt 0 view .LVU259
	push	{r3, r4, r5, r6, r7, lr}
	.cfi_def_cfa_offset 24
	.cfi_offset 3, -24
	.cfi_offset 4, -20
	.cfi_offset 5, -16
	.cfi_offset 6, -12
	.cfi_offset 7, -8
	.cfi_offset 14, -4
	.loc 1 483 11 view .LVU260
	ldr	r5, [r0, #4]
	.loc 1 483 5 view .LVU261
	lsls	r1, r5, #21
	.loc 1 482 1 view .LVU262
	mov	r6, r0
	.loc 1 483 5 view .LVU263
	bmi	.L43
	.loc 1 487 2 is_stmt 1 view .LVU264
	.loc 1 487 11 is_stmt 0 view .LVU265
	ldr	r4, [r0, #16]
	.loc 1 487 5 view .LVU266
	cbz	r4, .L30
	.loc 1 487 18 discriminator 1 view .LVU267
	ands	r3, r5, #1
	beq	.L43
.L30:
	.loc 1 491 2 is_stmt 1 view .LVU268
.LVL49:
.LBB505:
.LBI505:
	.loc 1 389 12 view .LVU269
.LBB506:
	.loc 1 391 2 view .LVU270
	.loc 1 431 2 view .LVU271
	.loc 1 439 2 view .LVU272
	.loc 1 439 25 is_stmt 0 view .LVU273
	ldr	r7, .L47
	.loc 1 439 11 view .LVU274
	ldrb	r0, [r6]	@ zero_extendqisi2
.LVL50:
	.loc 1 439 5 view .LVU275
	ldrb	r3, [r7, #7]	@ zero_extendqisi2
	cmp	r3, r0
	bls	.L43
.LVL51:
.LBB507:
.LBI507:
	.loc 3 117 19 is_stmt 1 view .LVU276
	.loc 3 119 2 view .LVU277
.LBB508:
.LBI508:
	.loc 3 104 19 view .LVU278
.LBB509:
	.loc 3 106 2 view .LVU279
.LBE509:
.LBE508:
.LBE507:
	.loc 1 440 20 is_stmt 0 view .LVU280
	rsb	r0, r0, r0, lsl #3
.LVL52:
.LBB512:
.LBB511:
.LBB510:
	.loc 3 106 9 view .LVU281
	ldr	r1, .L47+4
	movs	r2, #7
	add	r0, r0, r7
	bl	memcmp
.LVL53:
	.loc 3 106 9 view .LVU282
.LBE510:
.LBE511:
.LBE512:
	.loc 1 439 35 view .LVU283
	cbz	r0, .L29
	.loc 1 444 2 is_stmt 1 view .LVU284
	.loc 1 444 5 is_stmt 0 view .LVU285
	ands	r3, r5, #1
	bne	.L31
	.loc 1 451 3 is_stmt 1 view .LVU286
	.loc 1 451 6 is_stmt 0 view .LVU287
	ldrb	r2, [r7, #112]	@ zero_extendqisi2
	cmp	r2, #8
	bhi	.L31
	.loc 1 451 30 view .LVU288
	ldr	r2, [r6, #8]
	cmp	r2, #159
	bls	.L43
.L31:
	.loc 1 457 2 is_stmt 1 view .LVU289
	.loc 1 457 5 is_stmt 0 view .LVU290
	tst	r5, #48
	beq	.L32
	.loc 1 458 40 view .LVU291
	cbz	r4, .L43
	.loc 1 463 2 is_stmt 1 view .LVU292
	.loc 1 463 5 is_stmt 0 view .LVU293
	lsls	r2, r5, #27
	bmi	.L33
.L34:
	.loc 1 472 2 is_stmt 1 view .LVU294
	.loc 1 473 55 is_stmt 0 view .LVU295
	and	r5, r5, #229376
	.loc 1 472 5 view .LVU296
	subs	r0, r5, #229376
	it	ne
	movne	r0, #1
.LVL54:
.L29:
	.loc 1 472 5 view .LVU297
.LBE506:
.LBE505:
	.loc 1 492 1 view .LVU298
	pop	{r3, r4, r5, r6, r7, pc}
.LVL55:
.L32:
.LBB514:
.LBB513:
	.loc 1 463 2 is_stmt 1 view .LVU299
	.loc 1 463 5 is_stmt 0 view .LVU300
	lsls	r3, r5, #27
	bmi	.L33
	.loc 1 463 57 view .LVU301
	cmp	r4, #0
	bne	.L34
.L33:
	.loc 1 465 3 is_stmt 1 view .LVU302
	.loc 1 465 34 is_stmt 0 view .LVU303
	ldrd	r2, r3, [r6, #8]
	.loc 1 465 6 view .LVU304
	cmp	r2, r3
	bhi	.L43
	.loc 1 465 49 view .LVU305
	cmp	r2, #31
	bls	.L43
	.loc 1 466 36 view .LVU306
	cmp	r3, #16384
	bls	.L34
.LVL56:
.L43:
	.loc 1 466 36 view .LVU307
.LBE513:
.LBE514:
	.loc 1 484 9 view .LVU308
	movs	r0, #0
	b	.L29
.L48:
	.align	2
.L47:
	.word	bt_dev
	.word	bt_addr_le_any
	.cfi_endproc
.LFE590:
	.size	valid_adv_param, .-valid_adv_param
	.section	.text.atomic_set_bit_to,"ax",%progbits
	.align	1
	.syntax unified
	.thumb
	.thumb_func
	.type	atomic_set_bit_to, %function
atomic_set_bit_to:
.LVL57:
.LFB59:
	.file 7 "/home/g/mise-work/zmk-firmware/zmk/zephyr/include/zephyr/sys/atomic.h"
	.loc 7 238 1 is_stmt 1 view -0
	.cfi_startproc
	@ args = 0, pretend = 0, frame = 0
	@ frame_needed = 0, uses_anonymous_args = 0
	@ link register save eliminated.
	.loc 7 239 2 view .LVU310
	.loc 7 239 27 is_stmt 0 view .LVU311
	movs	r3, #1
	.loc 7 238 1 view .LVU312
	push	{r4}
	.cfi_def_cfa_offset 4
	.cfi_offset 4, -4
	.loc 7 239 27 view .LVU313
	lsl	r1, r3, r1
.LVL58:
	.loc 7 241 2 is_stmt 1 view .LVU314
	.loc 7 238 1 is_stmt 0 view .LVU315
	mov	r4, r0
	.loc 7 241 5 view .LVU316
	cbz	r2, .L50
	.loc 7 242 3 is_stmt 1 view .LVU317
.LVL59:
.LBB517:
.LBI517:
	.loc 2 279 28 view .LVU318
.LBB518:
	.loc 2 281 2 view .LVU319
	.loc 2 281 9 is_stmt 0 view .LVU320
	dmb	ish
.LVL60:
.L53:
	.loc 2 281 9 view .LVU321
	ldrex	r3, [r4]
	orrs	r3, r3, r1
	strex	r2, r3, [r4]
	cmp	r2, #0
	bne	.L53
	dmb	ish
.LBE518:
.LBE517:
	.loc 7 246 1 view .LVU322
	ldr	r4, [sp], #4
	.cfi_remember_state
	.cfi_restore 4
	.cfi_def_cfa_offset 0
	bx	lr
.LVL61:
.L50:
	.cfi_restore_state
	.loc 7 244 3 is_stmt 1 view .LVU323
	.loc 7 246 1 is_stmt 0 view .LVU324
	ldr	r4, [sp], #4
	.cfi_restore 4
	.cfi_def_cfa_offset 0
	.loc 7 244 9 view .LVU325
	mvns	r1, r1
.LVL62:
	.loc 7 244 9 view .LVU326
	b	atomic_and
.LVL63:
	.loc 7 244 9 view .LVU327
	.cfi_endproc
.LFE59:
	.size	atomic_set_bit_to, .-atomic_set_bit_to
	.section	.text.adv_is_directed,"ax",%progbits
	.align	1
	.syntax unified
	.thumb
	.thumb_func
	.type	adv_is_directed, %function
adv_is_directed:
.LVL64:
.LFB604:
	.loc 1 903 1 is_stmt 1 view -0
	.cfi_startproc
	@ args = 0, pretend = 0, frame = 0
	@ frame_needed = 0, uses_anonymous_args = 0
	.loc 1 907 2 view .LVU329
.LBB523:
.LBI523:
	.loc 3 117 19 view .LVU330
	.loc 3 119 2 view .LVU331
.LBB524:
.LBI524:
	.loc 3 104 19 view .LVU332
.LBB525:
	.loc 3 106 2 view .LVU333
.LBE525:
.LBE524:
.LBE523:
	.loc 1 903 1 is_stmt 0 view .LVU334
	push	{r3, lr}
	.cfi_def_cfa_offset 8
	.cfi_offset 3, -8
	.cfi_offset 14, -4
.LBB528:
.LBB527:
.LBB526:
	.loc 3 106 9 view .LVU335
	ldr	r1, .L55
	movs	r2, #7
	adds	r0, r0, #9
.LVL65:
	.loc 3 106 9 view .LVU336
	bl	memcmp
.LVL66:
	.loc 3 106 9 view .LVU337
.LBE526:
.LBE527:
.LBE528:
	.loc 1 908 1 view .LVU338
	subs	r0, r0, #0
	it	ne
	movne	r0, #1
	pop	{r3, pc}
.L56:
	.align	2
.L55:
	.word	bt_addr_le_any
	.cfi_endproc
.LFE604:
	.size	adv_is_directed, .-adv_is_directed
	.section	.text.le_adv_start_add_conn,"ax",%progbits
	.align	1
	.syntax unified
	.thumb
	.thumb_func
	.type	le_adv_start_add_conn, %function
le_adv_start_add_conn:
.LVL67:
.LFB605:
	.loc 1 912 1 is_stmt 1 view -0
	.cfi_startproc
	@ args = 0, pretend = 0, frame = 0
	@ frame_needed = 0, uses_anonymous_args = 0
	.loc 1 913 2 view .LVU340
	.loc 1 915 2 view .LVU341
	.loc 1 912 1 is_stmt 0 view .LVU342
	push	{r3, r4, r5, r6, r7, lr}
	.cfi_def_cfa_offset 24
	.cfi_offset 3, -24
	.cfi_offset 4, -20
	.cfi_offset 5, -16
	.cfi_offset 6, -12
	.cfi_offset 7, -8
	.cfi_offset 14, -4
	.loc 1 915 21 view .LVU343
	ldr	r3, .L68
	.loc 1 915 26 view .LVU344
	ldrb	r6, [r0]	@ zero_extendqisi2
	.loc 1 915 21 view .LVU345
	strb	r6, [r3, #111]
	.loc 1 917 2 is_stmt 1 view .LVU346
	.loc 1 912 1 is_stmt 0 view .LVU347
	mov	r4, r0
	mov	r5, r1
	.loc 1 917 7 view .LVU348
	bl	adv_is_directed
.LVL68:
	.loc 1 917 5 view .LVU349
	cbnz	r0, .L58
	.loc 1 919 3 is_stmt 1 view .LVU350
	.loc 1 919 10 is_stmt 0 view .LVU351
	ldr	r1, .L68+4
	mov	r0, r6
	bl	bt_conn_add_le
.LVL69:
	.loc 1 920 3 is_stmt 1 view .LVU352
	.loc 1 920 6 is_stmt 0 view .LVU353
	mov	r4, r0
.LVL70:
	.loc 1 920 6 view .LVU354
	cbnz	r0, .L59
.L61:
	.loc 1 921 11 view .LVU355
	mvn	r0, #11
.LVL71:
.L57:
	.loc 1 941 1 view .LVU356
	pop	{r3, r4, r5, r6, r7, pc}
.LVL72:
.L59:
	.loc 1 924 3 is_stmt 1 view .LVU357
	movs	r1, #4
.L67:
	.loc 1 924 3 is_stmt 0 view .LVU358
	bl	bt_conn_set_state
.LVL73:
	.loc 1 925 3 is_stmt 1 view .LVU359
	.loc 1 926 3 view .LVU360
	.loc 1 925 13 is_stmt 0 view .LVU361
	str	r4, [r5]
	.loc 1 926 10 view .LVU362
	movs	r0, #0
	b	.L57
.LVL74:
.L58:
	.loc 1 929 2 is_stmt 1 view .LVU363
	.loc 1 929 6 is_stmt 0 view .LVU364
	add	r7, r4, #9
	mov	r1, r7
	mov	r0, r6
	bl	bt_conn_exists_le
.LVL75:
	.loc 1 929 5 view .LVU365
	cbnz	r0, .L63
	.loc 1 933 2 is_stmt 1 view .LVU366
	.loc 1 933 9 is_stmt 0 view .LVU367
	ldrb	r0, [r4]	@ zero_extendqisi2
	mov	r1, r7
	bl	bt_conn_add_le
.LVL76:
	.loc 1 934 2 is_stmt 1 view .LVU368
	.loc 1 934 5 is_stmt 0 view .LVU369
	mov	r4, r0
.LVL77:
	.loc 1 934 5 view .LVU370
	cmp	r0, #0
	beq	.L61
	.loc 1 938 2 is_stmt 1 view .LVU371
	movs	r1, #5
	b	.L67
.LVL78:
.L63:
	.loc 1 930 10 is_stmt 0 view .LVU372
	mvn	r0, #21
	b	.L57
.L69:
	.align	2
.L68:
	.word	bt_dev
	.word	bt_addr_le_none
	.cfi_endproc
.LFE605:
	.size	le_adv_start_add_conn, .-le_adv_start_add_conn
	.section	.text.le_adv_update.constprop.0,"ax",%progbits
	.align	1
	.syntax unified
	.thumb
	.thumb_func
	.type	le_adv_update.constprop.0, %function
le_adv_update.constprop.0:
.LVL79:
.LFB622:
	.loc 1 784 12 is_stmt 1 view -0
	.cfi_startproc
	@ args = 12, pretend = 0, frame = 24
	@ frame_needed = 0, uses_anonymous_args = 0
	.loc 1 790 2 view .LVU374
	.loc 1 784 12 is_stmt 0 view .LVU375
	push	{r4, r5, r6, r7, r8, r9, r10, fp, lr}
	.cfi_def_cfa_offset 36
	.cfi_offset 4, -36
	.cfi_offset 5, -32
	.cfi_offset 6, -28
	.cfi_offset 7, -24
	.cfi_offset 8, -20
	.cfi_offset 9, -16
	.cfi_offset 10, -12
	.cfi_offset 11, -8
	.cfi_offset 14, -4
	sub	sp, sp, #28
	.cfi_def_cfa_offset 64
	.loc 1 784 12 view .LVU376
	mov	r5, r0
	ldrb	r6, [sp, #72]	@ zero_extendqisi2
	ldr	r9, [sp, #64]
	ldrb	r10, [sp, #68]	@ zero_extendqisi2
	mov	r4, r1
	mov	r8, r2
	.loc 1 790 15 view .LVU377
	movs	r1, #0
.LVL80:
	.loc 1 790 15 view .LVU378
	movs	r2, #16
.LVL81:
	.loc 1 790 15 view .LVU379
	add	r0, sp, #8
.LVL82:
	.loc 1 784 12 view .LVU380
	mov	r7, r3
	.loc 1 790 15 view .LVU381
	bl	memset
.LVL83:
	.loc 1 791 2 is_stmt 1 view .LVU382
	.loc 1 792 2 view .LVU383
	.loc 1 793 2 view .LVU384
	.loc 1 795 2 view .LVU385
	.loc 1 795 5 is_stmt 0 view .LVU386
	cbnz	r6, .L71
	.loc 1 809 2 is_stmt 1 view .LVU387
	.loc 1 810 3 view .LVU388
.LVL84:
	.loc 1 811 3 view .LVU389
	.loc 1 812 12 is_stmt 0 view .LVU390
	strd	r4, r8, [sp, #8]
	.loc 1 814 3 is_stmt 1 view .LVU391
.LVL85:
.L72:
	.loc 1 810 9 is_stmt 0 view .LVU392
	movs	r2, #1
.L81:
.LVL86:
	.loc 1 820 3 is_stmt 1 view .LVU393
.LBB547:
.LBI547:
	.loc 1 676 12 view .LVU394
.LBB548:
	.loc 1 679 2 view .LVU395
	.loc 1 685 2 view .LVU396
	.loc 1 685 9 is_stmt 0 view .LVU397
	add	r1, sp, #8
.LVL87:
	.loc 1 685 9 view .LVU398
	movw	r0, #8200
	bl	hci_set_ad
.LVL88:
	.loc 1 685 9 view .LVU399
.LBE548:
.LBE547:
	.loc 1 821 3 is_stmt 1 view .LVU400
	.loc 1 821 6 is_stmt 0 view .LVU401
	mov	r4, r0
.LVL89:
	.loc 1 821 6 view .LVU402
	cbnz	r0, .L70
	.loc 1 826 2 is_stmt 1 view .LVU403
	.loc 1 826 5 is_stmt 0 view .LVU404
	cmp	r10, #0
	bne	.L82
.LVL90:
.L84:
	.loc 1 843 2 is_stmt 1 view .LVU405
.LBB549:
.LBI549:
	.loc 7 217 20 view .LVU406
.LBB550:
	.loc 7 219 2 view .LVU407
	.loc 7 221 2 view .LVU408
.LBB551:
.LBI551:
	.loc 2 279 28 view .LVU409
.LBB552:
	.loc 2 281 2 view .LVU410
	.loc 2 281 9 is_stmt 0 view .LVU411
	adds	r5, r5, #16
.LVL91:
	.loc 2 281 9 view .LVU412
	dmb	ish
.L93:
	ldrex	r3, [r5]
	orr	r3, r3, #4
	strex	r2, r3, [r5]
	cmp	r2, #0
	bne	.L93
	dmb	ish
.LVL92:
.L70:
	.loc 2 281 9 view .LVU413
.LBE552:
.LBE551:
.LBE550:
.LBE549:
	.loc 1 845 1 view .LVU414
	mov	r0, r4
	add	sp, sp, #28
	.cfi_remember_state
	.cfi_def_cfa_offset 36
	@ sp needed
	pop	{r4, r5, r6, r7, r8, r9, r10, fp, pc}
.LVL93:
.L71:
	.cfi_restore_state
.LBB553:
	.loc 1 796 3 is_stmt 1 view .LVU415
	.loc 1 796 22 is_stmt 0 view .LVU416
	bl	bt_get_name
.LVL94:
	mov	fp, r0
.LVL95:
	.loc 1 798 3 is_stmt 1 view .LVU417
	.loc 1 798 6 is_stmt 0 view .LVU418
	cbnz	r4, .L85
.L74:
	.loc 1 798 39 view .LVU419
	cbnz	r7, .L87
.L78:
	.loc 1 804 3 is_stmt 1 view .LVU420
	.loc 1 804 57 is_stmt 0 view .LVU421
	mov	r0, fp
.LVL96:
	.loc 1 804 57 view .LVU422
	bl	strlen
.LVL97:
	.loc 1 804 8 view .LVU423
	movs	r3, #9
.LBE553:
	.loc 1 814 6 view .LVU424
	cmp	r6, #1
	.loc 1 811 13 view .LVU425
	strd	fp, r4, [sp, #4]
	.loc 1 812 3 is_stmt 1 view .LVU426
.LBB558:
	.loc 1 804 8 is_stmt 0 view .LVU427
	strb	r3, [sp]
	strb	r0, [sp, #1]
.LBE558:
	.loc 1 812 12 view .LVU428
	str	r8, [sp, #12]
	.loc 1 814 3 is_stmt 1 view .LVU429
	.loc 1 814 6 is_stmt 0 view .LVU430
	bne	.L72
	.loc 1 815 4 is_stmt 1 view .LVU431
	.loc 1 815 14 is_stmt 0 view .LVU432
	str	sp, [sp, #16]
	.loc 1 816 4 is_stmt 1 view .LVU433
	.loc 1 816 13 is_stmt 0 view .LVU434
	str	r6, [sp, #20]
	.loc 1 817 4 is_stmt 1 view .LVU435
.LVL98:
	.loc 1 817 10 is_stmt 0 view .LVU436
	movs	r2, #2
	b	.L81
.LVL99:
.L76:
.LBB559:
.LBB554:
.LBB555:
	.loc 1 758 3 is_stmt 1 view .LVU437
	.loc 1 758 26 is_stmt 0 view .LVU438
	ldrb	r2, [r4, r3, lsl #3]	@ zero_extendqisi2
	.loc 1 758 6 view .LVU439
	subs	r2, r2, #8
	cmp	r2, #1
	bls	.L88
	.loc 1 757 27 is_stmt 1 view .LVU440
	adds	r3, r3, #1
.LVL100:
.L73:
	.loc 1 757 16 view .LVU441
	cmp	r8, r3
	bne	.L76
	b	.L74
.LVL101:
.L85:
	.loc 1 757 9 is_stmt 0 view .LVU442
	movs	r3, #0
	b	.L73
.LVL102:
.L79:
	.loc 1 757 9 view .LVU443
.LBE555:
.LBE554:
.LBB556:
.LBB557:
	.loc 1 758 3 is_stmt 1 view .LVU444
	.loc 1 758 26 is_stmt 0 view .LVU445
	ldrb	r2, [r7, r3, lsl #3]	@ zero_extendqisi2
	.loc 1 758 6 view .LVU446
	subs	r2, r2, #8
	cmp	r2, #1
	bls	.L88
	.loc 1 757 27 is_stmt 1 view .LVU447
	adds	r3, r3, #1
.LVL103:
.L77:
	.loc 1 757 16 view .LVU448
	cmp	r9, r3
	bne	.L79
	b	.L78
.LVL104:
.L87:
	.loc 1 757 9 is_stmt 0 view .LVU449
	movs	r3, #0
	b	.L77
.LVL105:
.L82:
	.loc 1 757 9 view .LVU450
.LBE557:
.LBE556:
.LBE559:
	.loc 1 827 3 is_stmt 1 view .LVU451
	.loc 1 828 3 view .LVU452
	.loc 1 831 6 is_stmt 0 view .LVU453
	cmp	r6, #2
	mov	r2, #1
	.loc 1 833 13 view .LVU454
	it	eq
	streq	r2, [sp, #20]
.LBB560:
.LBB561:
	.loc 1 697 9 view .LVU455
	add	r1, sp, #8
.LBE561:
.LBE560:
	.loc 1 834 10 view .LVU456
	it	eq
	moveq	r2, r6
.LBB564:
.LBB562:
	.loc 1 697 9 view .LVU457
	movw	r0, #8201
.LVL106:
	.loc 1 697 9 view .LVU458
.LBE562:
.LBE564:
	.loc 1 832 14 view .LVU459
	it	eq
	streq	sp, [sp, #16]
	.loc 1 829 12 view .LVU460
	strd	r7, r9, [sp, #8]
	.loc 1 831 3 is_stmt 1 view .LVU461
	.loc 1 832 4 view .LVU462
	.loc 1 833 4 view .LVU463
	.loc 1 834 4 view .LVU464
.LVL107:
	.loc 1 837 3 view .LVU465
.LBB565:
.LBI560:
	.loc 1 688 12 view .LVU466
.LBB563:
	.loc 1 691 2 view .LVU467
	.loc 1 697 2 view .LVU468
	.loc 1 697 9 is_stmt 0 view .LVU469
	bl	hci_set_ad
.LVL108:
	.loc 1 697 9 view .LVU470
.LBE563:
.LBE565:
	.loc 1 838 3 is_stmt 1 view .LVU471
	.loc 1 838 6 is_stmt 0 view .LVU472
	cmp	r0, #0
	beq	.L84
	mov	r4, r0
	b	.L70
.LVL109:
.L88:
.LBB566:
	.loc 1 801 11 view .LVU473
	mvn	r4, #21
.LVL110:
	.loc 1 801 11 view .LVU474
	b	.L70
.LBE566:
	.cfi_endproc
.LFE622:
	.size	le_adv_update.constprop.0, .-le_adv_update.constprop.0
	.section	.text.get_adv_name_type,"ax",%progbits
	.align	1
	.global	get_adv_name_type
	.syntax unified
	.thumb
	.thumb_func
	.type	get_adv_name_type, %function
get_adv_name_type:
.LVL111:
.LFB579:
	.loc 1 175 1 is_stmt 1 view -0
	.cfi_startproc
	@ args = 0, pretend = 0, frame = 0
	@ frame_needed = 0, uses_anonymous_args = 0
	.loc 1 176 2 view .LVU476
	.loc 1 175 1 is_stmt 0 view .LVU477
	push	{r3, lr}
	.cfi_def_cfa_offset 8
	.cfi_offset 3, -8
	.cfi_offset 14, -4
	.loc 1 176 25 view .LVU478
	add	r3, r0, #16
.LVL112:
.LBB571:
.LBI571:
	.loc 7 131 19 is_stmt 1 view .LVU479
.LBB572:
	.loc 7 133 2 view .LVU480
	.loc 7 133 21 is_stmt 0 view .LVU481
	mov	r0, r3
.LVL113:
	.loc 7 133 21 view .LVU482
	bl	atomic_get
.LVL114:
	.loc 7 135 2 is_stmt 1 view .LVU483
	.loc 7 135 2 is_stmt 0 view .LVU484
.LBE572:
.LBE571:
	.loc 1 176 5 view .LVU485
	lsls	r2, r0, #22
	bmi	.L96
	.loc 1 180 2 is_stmt 1 view .LVU486
.LVL115:
.LBB573:
.LBI573:
	.loc 7 131 19 view .LVU487
.LBB574:
	.loc 7 133 2 view .LVU488
	.loc 7 133 21 is_stmt 0 view .LVU489
	mov	r0, r3
	bl	atomic_get
.LVL116:
	.loc 7 135 2 is_stmt 1 view .LVU490
	.loc 7 135 2 is_stmt 0 view .LVU491
.LBE574:
.LBE573:
	.loc 1 180 5 view .LVU492
	ubfx	r0, r0, #8, #1
.L95:
	.loc 1 185 1 view .LVU493
	pop	{r3, pc}
.LVL117:
.L96:
	.loc 1 177 10 view .LVU494
	movs	r0, #2
	b	.L95
	.cfi_endproc
.LFE579:
	.size	get_adv_name_type, .-get_adv_name_type
	.section	.text.get_adv_name_type_param,"ax",%progbits
	.align	1
	.global	get_adv_name_type_param
	.syntax unified
	.thumb
	.thumb_func
	.type	get_adv_name_type_param, %function
get_adv_name_type_param:
.LVL118:
.LFB580:
	.loc 1 188 1 is_stmt 1 view -0
	.cfi_startproc
	@ args = 0, pretend = 0, frame = 0
	@ frame_needed = 0, uses_anonymous_args = 0
	@ link register save eliminated.
	.loc 1 189 2 view .LVU496
	.loc 1 189 11 is_stmt 0 view .LVU497
	ldr	r3, [r0, #4]
	.loc 1 189 5 view .LVU498
	ands	r0, r3, #8
.LVL119:
	.loc 1 189 5 view .LVU499
	beq	.L98
	.loc 1 190 3 is_stmt 1 view .LVU500
	.loc 1 190 6 is_stmt 0 view .LVU501
	lsls	r2, r3, #13
	bmi	.L100
	.loc 1 194 3 is_stmt 1 view .LVU502
	.loc 1 194 48 is_stmt 0 view .LVU503
	and	r3, r3, #1536
	.loc 1 191 11 view .LVU504
	cmp	r3, #1024
	ite	ne
	movne	r0, #2
	moveq	r0, #1
	bx	lr
.L100:
	movs	r0, #1
.L98:
	.loc 1 203 1 view .LVU505
	bx	lr
	.cfi_endproc
.LFE580:
	.size	get_adv_name_type_param, .-get_adv_name_type_param
	.section	.text.bt_le_ext_adv_foreach,"ax",%progbits
	.align	1
	.global	bt_le_ext_adv_foreach
	.syntax unified
	.thumb
	.thumb_func
	.type	bt_le_ext_adv_foreach, %function
bt_le_ext_adv_foreach:
.LVL120:
.LFB581:
	.loc 1 263 1 is_stmt 1 view -0
	.cfi_startproc
	@ args = 0, pretend = 0, frame = 0
	@ frame_needed = 0, uses_anonymous_args = 0
	@ link register save eliminated.
	.loc 1 271 2 view .LVU507
	.loc 1 263 1 is_stmt 0 view .LVU508
	mov	r3, r0
	.loc 1 271 2 view .LVU509
	ldr	r0, .L103
.LVL121:
	.loc 1 271 2 view .LVU510
	bx	r3	@ indirect register sibling call
.LVL122:
.L104:
	.loc 1 271 2 view .LVU511
	.align	2
.L103:
	.word	bt_dev+24
	.cfi_endproc
.LFE581:
	.size	bt_le_ext_adv_foreach, .-bt_le_ext_adv_foreach
	.section	.text.bt_adv_reset_adv_pool,"ax",%progbits
	.align	1
	.global	bt_adv_reset_adv_pool
	.syntax unified
	.thumb
	.thumb_func
	.type	bt_adv_reset_adv_pool, %function
bt_adv_reset_adv_pool:
.LFB582:
	.loc 1 276 1 is_stmt 1 view -0
	.cfi_startproc
	@ args = 0, pretend = 0, frame = 0
	@ frame_needed = 0, uses_anonymous_args = 0
	@ link register save eliminated.
	.loc 1 281 2 view .LVU513
	.loc 1 281 29 is_stmt 0 view .LVU514
	ldr	r0, .L106
	movs	r2, #80
	movs	r1, #0
	b	memset
.LVL123:
.L107:
	.align	2
.L106:
	.word	bt_dev+24
	.cfi_endproc
.LFE582:
	.size	bt_adv_reset_adv_pool, .-bt_adv_reset_adv_pool
	.section	.text.bt_le_adv_delete_legacy,"ax",%progbits
	.align	1
	.global	bt_le_adv_delete_legacy
	.syntax unified
	.thumb
	.thumb_func
	.type	bt_le_adv_delete_legacy, %function
bt_le_adv_delete_legacy:
.LFB584:
	.loc 1 299 1 is_stmt 1 view -0
	.cfi_startproc
	@ args = 0, pretend = 0, frame = 0
	@ frame_needed = 0, uses_anonymous_args = 0
	@ link register save eliminated.
	.loc 1 306 1 view .LVU516
	bx	lr
	.cfi_endproc
.LFE584:
	.size	bt_le_adv_delete_legacy, .-bt_le_adv_delete_legacy
	.section	.text.bt_le_adv_lookup_legacy,"ax",%progbits
	.align	1
	.global	bt_le_adv_lookup_legacy
	.syntax unified
	.thumb
	.thumb_func
	.type	bt_le_adv_lookup_legacy, %function
bt_le_adv_lookup_legacy:
.LFB585:
	.loc 1 309 1 view -0
	.cfi_startproc
	@ args = 0, pretend = 0, frame = 0
	@ frame_needed = 0, uses_anonymous_args = 0
	@ link register save eliminated.
	.loc 1 313 2 view .LVU518
	.loc 1 315 1 is_stmt 0 view .LVU519
	ldr	r0, .L110
	bx	lr
.L111:
	.align	2
.L110:
	.word	bt_dev+24
	.cfi_endproc
.LFE585:
	.size	bt_le_adv_lookup_legacy, .-bt_le_adv_lookup_legacy
	.section	.text.bt_le_adv_set_enable_legacy,"ax",%progbits
	.align	1
	.global	bt_le_adv_set_enable_legacy
	.syntax unified
	.thumb
	.thumb_func
	.type	bt_le_adv_set_enable_legacy, %function
bt_le_adv_set_enable_legacy:
.LVL124:
.LFB586:
	.loc 1 318 1 is_stmt 1 view -0
	.cfi_startproc
	@ args = 0, pretend = 0, frame = 16
	@ frame_needed = 0, uses_anonymous_args = 0
	.loc 1 319 2 view .LVU521
	.loc 1 320 2 view .LVU522
	.loc 1 321 2 view .LVU523
	.loc 1 323 2 view .LVU524
	.loc 1 318 1 is_stmt 0 view .LVU525
	push	{r4, r5, r6, lr}
	.cfi_def_cfa_offset 16
	.cfi_offset 4, -16
	.cfi_offset 5, -12
	.cfi_offset 6, -8
	.cfi_offset 14, -4
	mov	r6, r0
	sub	sp, sp, #24
	.cfi_def_cfa_offset 40
	.loc 1 318 1 view .LVU526
	mov	r5, r1
	.loc 1 323 8 view .LVU527
	movw	r0, #8202
.LVL125:
	.loc 1 323 8 view .LVU528
	movs	r1, #1
.LVL126:
	.loc 1 323 8 view .LVU529
	bl	bt_hci_cmd_create
.LVL127:
	.loc 1 324 2 is_stmt 1 view .LVU530
	.loc 1 324 5 is_stmt 0 view .LVU531
	mov	r4, r0
	cbz	r0, .L116
	.loc 1 328 2 is_stmt 1 view .LVU532
.LBB579:
.LBB580:
	.loc 5 1529 9 is_stmt 0 view .LVU533
	adds	r0, r0, #12
.LVL128:
	.loc 5 1529 9 view .LVU534
.LBE580:
.LBE579:
	.loc 1 328 5 view .LVU535
	cbz	r5, .L114
	.loc 1 329 3 is_stmt 1 view .LVU536
.LVL129:
.LBB582:
.LBI579:
	.loc 5 1527 24 view .LVU537
.LBB581:
	.loc 5 1529 2 view .LVU538
	.loc 5 1529 9 is_stmt 0 view .LVU539
	movs	r1, #1
.LVL130:
.L117:
	.loc 5 1529 9 view .LVU540
.LBE581:
.LBE582:
.LBB583:
.LBB584:
	bl	net_buf_simple_add_u8
.LVL131:
.LBE584:
.LBE583:
	.loc 1 334 2 is_stmt 1 view .LVU541
	add	r2, r6, #16
	add	r1, sp, #12
	mov	r0, r4
	str	r5, [sp]
	movs	r3, #7
	bl	bt_hci_cmd_state_set_init
.LVL132:
	.loc 1 336 2 view .LVU542
	.loc 1 336 8 is_stmt 0 view .LVU543
	movs	r2, #0
	mov	r1, r4
	movw	r0, #8202
	bl	bt_hci_cmd_send_sync
.LVL133:
	.loc 1 337 2 is_stmt 1 view .LVU544
.L112:
	.loc 1 342 1 is_stmt 0 view .LVU545
	add	sp, sp, #24
	.cfi_remember_state
	.cfi_def_cfa_offset 16
	@ sp needed
	pop	{r4, r5, r6, pc}
.LVL134:
.L114:
	.cfi_restore_state
	.loc 1 331 3 is_stmt 1 view .LVU546
.LBB586:
.LBI583:
	.loc 5 1527 24 view .LVU547
.LBB585:
	.loc 5 1529 2 view .LVU548
	.loc 5 1529 9 is_stmt 0 view .LVU549
	mov	r1, r5
	b	.L117
.LVL135:
.L116:
	.loc 5 1529 9 view .LVU550
.LBE585:
.LBE586:
	.loc 1 325 10 view .LVU551
	mvn	r0, #104
.LVL136:
	.loc 1 325 10 view .LVU552
	b	.L112
	.cfi_endproc
.LFE586:
	.size	bt_le_adv_set_enable_legacy, .-bt_le_adv_set_enable_legacy
	.section	.text.bt_le_adv_set_enable_ext,"ax",%progbits
	.align	1
	.global	bt_le_adv_set_enable_ext
	.syntax unified
	.thumb
	.thumb_func
	.type	bt_le_adv_set_enable_ext, %function
bt_le_adv_set_enable_ext:
.LVL137:
.LFB587:
	.loc 1 347 1 is_stmt 1 view -0
	.cfi_startproc
	@ args = 0, pretend = 0, frame = 16
	@ frame_needed = 0, uses_anonymous_args = 0
	.loc 1 348 2 view .LVU554
	.loc 1 349 2 view .LVU555
	.loc 1 350 2 view .LVU556
	.loc 1 352 2 view .LVU557
	.loc 1 347 1 is_stmt 0 view .LVU558
	push	{r4, r5, r6, r7, r8, lr}
	.cfi_def_cfa_offset 24
	.cfi_offset 4, -24
	.cfi_offset 5, -20
	.cfi_offset 6, -16
	.cfi_offset 7, -12
	.cfi_offset 8, -8
	.cfi_offset 14, -4
	mov	r8, r0
	sub	sp, sp, #24
	.cfi_def_cfa_offset 48
	.loc 1 347 1 view .LVU559
	mov	r7, r1
	.loc 1 352 8 view .LVU560
	movw	r0, #8249
.LVL138:
	.loc 1 352 8 view .LVU561
	movs	r1, #6
.LVL139:
	.loc 1 347 1 view .LVU562
	mov	r4, r2
	.loc 1 352 8 view .LVU563
	bl	bt_hci_cmd_create
.LVL140:
	.loc 1 353 2 is_stmt 1 view .LVU564
	.loc 1 353 5 is_stmt 0 view .LVU565
	mov	r6, r0
	cbz	r0, .L124
	.loc 1 357 2 is_stmt 1 view .LVU566
.LBB599:
.LBB600:
	.loc 5 1529 9 is_stmt 0 view .LVU567
	add	r5, r0, #12
.LBE600:
.LBE599:
	.loc 1 357 5 view .LVU568
	cbz	r7, .L120
	.loc 1 358 3 is_stmt 1 view .LVU569
.LVL141:
.LBB602:
.LBI599:
	.loc 5 1527 24 view .LVU570
.LBB601:
	.loc 5 1529 2 view .LVU571
	.loc 5 1529 9 is_stmt 0 view .LVU572
	movs	r1, #1
.LVL142:
.L125:
	.loc 5 1529 9 view .LVU573
.LBE601:
.LBE602:
.LBB603:
.LBB604:
	mov	r0, r5
.LVL143:
	.loc 5 1529 9 view .LVU574
	bl	net_buf_simple_add_u8
.LVL144:
.LBE604:
.LBE603:
	.loc 1 363 2 is_stmt 1 view .LVU575
.LBB606:
.LBI606:
	.loc 5 1527 24 view .LVU576
.LBB607:
	.loc 5 1529 2 view .LVU577
	.loc 5 1529 9 is_stmt 0 view .LVU578
	movs	r1, #1
	mov	r0, r5
	bl	net_buf_simple_add_u8
.LVL145:
	.loc 5 1529 9 view .LVU579
.LBE607:
.LBE606:
	.loc 1 365 2 is_stmt 1 view .LVU580
.LBB608:
.LBI608:
	.loc 5 1527 24 view .LVU581
.LBB609:
	.loc 5 1529 2 view .LVU582
	.loc 5 1529 9 is_stmt 0 view .LVU583
	ldrb	r1, [r8, #1]	@ zero_extendqisi2
	mov	r0, r5
	bl	net_buf_simple_add_u8
.LVL146:
	.loc 5 1529 9 view .LVU584
.LBE609:
.LBE608:
	.loc 1 366 2 is_stmt 1 view .LVU585
	cbz	r4, .L122
.LVL147:
.LBB610:
.LBI610:
	.loc 5 1542 20 discriminator 1 view .LVU586
.LBB611:
	.loc 5 1544 2 discriminator 1 view .LVU587
	ldrh	r1, [r4]
	mov	r0, r5
	bl	net_buf_simple_add_le16
.LVL148:
	.loc 5 1544 2 is_stmt 0 discriminator 1 view .LVU588
.LBE611:
.LBE610:
	.loc 1 367 2 is_stmt 1 discriminator 1 view .LVU589
	ldrb	r1, [r4, #2]	@ zero_extendqisi2
.L123:
.LVL149:
.LBB613:
.LBI613:
	.loc 5 1527 24 discriminator 4 view .LVU590
.LBB614:
	.loc 5 1529 2 discriminator 4 view .LVU591
	.loc 5 1529 9 is_stmt 0 discriminator 4 view .LVU592
	mov	r0, r5
	bl	net_buf_simple_add_u8
.LVL150:
	.loc 5 1529 9 discriminator 4 view .LVU593
.LBE614:
.LBE613:
	.loc 1 369 2 is_stmt 1 discriminator 4 view .LVU594
	add	r2, r8, #16
	add	r1, sp, #12
	mov	r0, r6
	str	r7, [sp]
	movs	r3, #7
	bl	bt_hci_cmd_state_set_init
.LVL151:
	.loc 1 371 2 discriminator 4 view .LVU595
	.loc 1 371 8 is_stmt 0 discriminator 4 view .LVU596
	movs	r2, #0
	mov	r1, r6
	movw	r0, #8249
	bl	bt_hci_cmd_send_sync
.LVL152:
	.loc 1 372 2 is_stmt 1 discriminator 4 view .LVU597
.L118:
	.loc 1 377 1 is_stmt 0 view .LVU598
	add	sp, sp, #24
	.cfi_remember_state
	.cfi_def_cfa_offset 24
	@ sp needed
	pop	{r4, r5, r6, r7, r8, pc}
.LVL153:
.L120:
	.cfi_restore_state
	.loc 1 360 3 is_stmt 1 view .LVU599
.LBB615:
.LBI603:
	.loc 5 1527 24 view .LVU600
.LBB605:
	.loc 5 1529 2 view .LVU601
	.loc 5 1529 9 is_stmt 0 view .LVU602
	mov	r1, r7
	b	.L125
.LVL154:
.L122:
	.loc 5 1529 9 view .LVU603
.LBE605:
.LBE615:
.LBB616:
	.loc 5 1542 20 is_stmt 1 view .LVU604
.LBB612:
	.loc 5 1544 2 view .LVU605
	mov	r1, r4
	mov	r0, r5
	bl	net_buf_simple_add_le16
.LVL155:
	.loc 5 1544 2 is_stmt 0 view .LVU606
.LBE612:
.LBE616:
	.loc 1 367 2 is_stmt 1 view .LVU607
	mov	r1, r4
	b	.L123
.LVL156:
.L124:
	.loc 1 354 10 is_stmt 0 view .LVU608
	mvn	r0, #104
.LVL157:
	.loc 1 354 10 view .LVU609
	b	.L118
	.cfi_endproc
.LFE587:
	.size	bt_le_adv_set_enable_ext, .-bt_le_adv_set_enable_ext
	.section	.text.bt_le_adv_set_enable,"ax",%progbits
	.align	1
	.global	bt_le_adv_set_enable
	.syntax unified
	.thumb
	.thumb_func
	.type	bt_le_adv_set_enable, %function
bt_le_adv_set_enable:
.LVL158:
.LFB588:
	.loc 1 380 1 is_stmt 1 view -0
	.cfi_startproc
	@ args = 0, pretend = 0, frame = 0
	@ frame_needed = 0, uses_anonymous_args = 0
	@ link register save eliminated.
	.loc 1 381 2 view .LVU611
	.loc 1 386 2 view .LVU612
	.loc 1 386 9 is_stmt 0 view .LVU613
	b	bt_le_adv_set_enable_legacy
.LVL159:
	.loc 1 386 9 view .LVU614
	.cfi_endproc
.LFE588:
	.size	bt_le_adv_set_enable, .-bt_le_adv_set_enable
	.section	.text.bt_le_adv_update_data,"ax",%progbits
	.align	1
	.global	bt_le_adv_update_data
	.syntax unified
	.thumb
	.thumb_func
	.type	bt_le_adv_update_data, %function
bt_le_adv_update_data:
.LVL160:
.LFB601:
	.loc 1 849 1 is_stmt 1 view -0
	.cfi_startproc
	@ args = 0, pretend = 0, frame = 0
	@ frame_needed = 0, uses_anonymous_args = 0
	.loc 1 850 2 view .LVU616
.LBB622:
.LBI622:
	.loc 1 308 23 view .LVU617
	.loc 1 313 2 view .LVU618
	.loc 1 313 2 is_stmt 0 view .LVU619
.LBE622:
	.loc 1 851 1 is_stmt 1 view .LVU620
	.loc 1 853 2 view .LVU621
	.loc 1 857 2 view .LVU622
.LBB623:
.LBI623:
	.loc 7 131 19 view .LVU623
.LBB624:
	.loc 7 133 2 view .LVU624
.LBE624:
.LBE623:
	.loc 1 849 1 is_stmt 0 view .LVU625
	push	{r4, r5, r6, r7, lr}
	.cfi_def_cfa_offset 20
	.cfi_offset 4, -20
	.cfi_offset 5, -16
	.cfi_offset 6, -12
	.cfi_offset 7, -8
	.cfi_offset 14, -4
	mov	r5, r0
	sub	sp, sp, #20
	.cfi_def_cfa_offset 40
.LBB626:
.LBB625:
	.loc 7 133 21 view .LVU626
	ldr	r0, .L130
.LVL161:
	.loc 7 133 21 view .LVU627
	bl	atomic_get
.LVL162:
	.loc 7 135 2 is_stmt 1 view .LVU628
	.loc 7 135 2 is_stmt 0 view .LVU629
.LBE625:
.LBE626:
	.loc 1 849 1 view .LVU630
	mov	r7, r3
	.loc 1 857 5 view .LVU631
	lsls	r3, r0, #24
.LVL163:
	.loc 1 849 1 view .LVU632
	mov	r6, r2
	.loc 1 857 5 view .LVU633
	bpl	.L129
	.loc 1 861 2 is_stmt 1 view .LVU634
.LVL164:
.LBB627:
.LBI627:
	.loc 7 131 19 view .LVU635
.LBB628:
	.loc 7 133 2 view .LVU636
	.loc 7 133 21 is_stmt 0 view .LVU637
	ldr	r0, .L130
.LVL165:
	.loc 7 133 21 view .LVU638
	bl	atomic_get
.LVL166:
	.loc 7 133 21 view .LVU639
	mov	r4, r0
.LVL167:
	.loc 7 135 2 is_stmt 1 view .LVU640
	.loc 7 135 2 is_stmt 0 view .LVU641
.LBE628:
.LBE627:
	.loc 1 863 2 is_stmt 1 view .LVU642
	.loc 1 863 9 is_stmt 0 view .LVU643
	ldr	r0, .L130+4
.LVL168:
	.loc 1 863 9 view .LVU644
	bl	get_adv_name_type
.LVL169:
	.loc 1 863 9 view .LVU645
	ubfx	r4, r4, #11, #1
.LVL170:
	.loc 1 863 9 view .LVU646
	str	r0, [sp, #8]
	mov	r2, r1
	strd	r7, r4, [sp]
	ldr	r0, .L130+4
.LVL171:
	.loc 1 863 9 view .LVU647
	mov	r3, r6
	mov	r1, r5
.LVL172:
	.loc 1 863 9 view .LVU648
	bl	le_adv_update.constprop.0
.LVL173:
.L127:
	.loc 1 865 1 view .LVU649
	add	sp, sp, #20
	.cfi_remember_state
	.cfi_def_cfa_offset 20
	@ sp needed
	pop	{r4, r5, r6, r7, pc}
.LVL174:
.L129:
	.cfi_restore_state
	.loc 1 858 10 view .LVU650
	mvn	r0, #10
	b	.L127
.L131:
	.align	2
.L130:
	.word	bt_dev+40
	.word	bt_dev+24
	.cfi_endproc
.LFE601:
	.size	bt_le_adv_update_data, .-bt_le_adv_update_data
	.section	.rodata.bt_le_adv_start_legacy.str1.1,"aMS",%progbits,1
.LC1:
	.ascii	"Failed to start advertiser\000"
	.section	.text.bt_le_adv_start_legacy,"ax",%progbits
	.align	1
	.global	bt_le_adv_start_legacy
	.syntax unified
	.thumb
	.thumb_func
	.type	bt_le_adv_start_legacy, %function
bt_le_adv_start_legacy:
.LVL175:
.LFB607:
	.loc 1 966 1 is_stmt 1 view -0
	.cfi_startproc
	@ args = 8, pretend = 0, frame = 56
	@ frame_needed = 0, uses_anonymous_args = 0
	.loc 1 967 2 view .LVU652
	.loc 1 968 2 view .LVU653
	.loc 1 966 1 is_stmt 0 view .LVU654
	push	{r4, r5, r6, r7, r8, r9, r10, fp, lr}
	.cfi_def_cfa_offset 36
	.cfi_offset 4, -36
	.cfi_offset 5, -32
	.cfi_offset 6, -28
	.cfi_offset 7, -24
	.cfi_offset 8, -20
	.cfi_offset 9, -16
	.cfi_offset 10, -12
	.cfi_offset 11, -8
	.cfi_offset 14, -4
	sub	sp, sp, #76
	.cfi_def_cfa_offset 112
	.loc 1 970 22 view .LVU655
	ldr	r10, [r1, #16]
	.loc 1 966 1 view .LVU656
	str	r3, [sp, #20]
	.loc 1 968 18 view .LVU657
	movs	r3, #0
.LVL176:
	.loc 1 970 6 view .LVU658
	subs	r4, r10, r3
	.loc 1 966 1 view .LVU659
	mov	r7, r0
.LBB647:
.LBB648:
	.loc 7 133 21 view .LVU660
	ldr	r0, .L173
.LVL177:
	.loc 7 133 21 view .LVU661
.LBE648:
.LBE647:
	.loc 1 968 18 view .LVU662
	str	r3, [sp, #28]
	.loc 1 969 2 is_stmt 1 view .LVU663
	.loc 1 970 1 view .LVU664
	.loc 1 970 6 is_stmt 0 view .LVU665
	it	ne
	movne	r4, #1
.LVL178:
	.loc 1 971 2 is_stmt 1 view .LVU666
	.loc 1 973 2 view .LVU667
	.loc 1 975 2 view .LVU668
.LBB650:
.LBI647:
	.loc 7 131 19 view .LVU669
.LBB649:
	.loc 7 133 2 view .LVU670
	.loc 7 133 21 is_stmt 0 view .LVU671
	bl	atomic_get
.LVL179:
	.loc 7 135 2 is_stmt 1 view .LVU672
	.loc 7 135 2 is_stmt 0 view .LVU673
.LBE649:
.LBE650:
	.loc 1 975 5 view .LVU674
	lsls	r6, r0, #29
	.loc 1 966 1 view .LVU675
	mov	r5, r1
	mov	fp, r2
	.loc 1 975 5 view .LVU676
	bpl	.L153
	.loc 1 979 2 is_stmt 1 view .LVU677
	.loc 1 979 7 is_stmt 0 view .LVU678
	mov	r0, r1
	bl	valid_adv_param
.LVL180:
	.loc 1 979 5 view .LVU679
	cbnz	r0, .L134
.L135:
	.loc 1 980 10 view .LVU680
	mvn	r4, #21
.LVL181:
.L132:
	.loc 1 1110 1 view .LVU681
	mov	r0, r4
	add	sp, sp, #76
	.cfi_remember_state
	.cfi_def_cfa_offset 36
	@ sp needed
	pop	{r4, r5, r6, r7, r8, r9, r10, fp, pc}
.LVL182:
.L134:
	.cfi_restore_state
	.loc 1 983 2 is_stmt 1 view .LVU682
	.loc 1 983 7 is_stmt 0 view .LVU683
	mov	r0, r5
	bl	bt_id_adv_random_addr_check
.LVL183:
	.loc 1 983 5 view .LVU684
	mov	r9, r0
	cmp	r0, #0
	beq	.L135
	.loc 1 987 2 is_stmt 1 view .LVU685
	.loc 1 987 25 is_stmt 0 view .LVU686
	add	r8, r7, #16
.LVL184:
.LBB651:
.LBI651:
	.loc 7 131 19 is_stmt 1 view .LVU687
.LBB652:
	.loc 7 133 2 view .LVU688
	.loc 7 133 21 is_stmt 0 view .LVU689
	mov	r0, r8
	bl	atomic_get
.LVL185:
	.loc 7 135 2 is_stmt 1 view .LVU690
	.loc 7 135 65 is_stmt 0 view .LVU691
	ubfx	r3, r0, #7, #1
.LVL186:
	.loc 7 135 65 view .LVU692
.LBE652:
.LBE651:
	.loc 1 987 5 view .LVU693
	lsls	r0, r0, #24
	bmi	.L154
	.loc 1 991 2 is_stmt 1 discriminator 1 view .LVU694
	.loc 1 991 29 is_stmt 0 discriminator 1 view .LVU695
	strd	r3, r3, [sp, #36]
	str	r3, [sp, #43]	@ unaligned
	.loc 1 993 2 is_stmt 1 discriminator 1 view .LVU696
	.loc 1 993 25 is_stmt 0 discriminator 1 view .LVU697
	ldr	r3, [r5, #8]
	.loc 1 995 26 discriminator 1 view .LVU698
	ldr	r0, [r5, #4]
	.loc 1 993 25 discriminator 1 view .LVU699
	strh	r3, [sp, #32]	@ movhi
	.loc 1 994 2 is_stmt 1 discriminator 1 view .LVU700
	.loc 1 994 25 is_stmt 0 discriminator 1 view .LVU701
	ldr	r3, [r5, #12]
	strh	r3, [sp, #34]	@ movhi
	.loc 1 995 2 is_stmt 1 discriminator 1 view .LVU702
	.loc 1 995 26 is_stmt 0 discriminator 1 view .LVU703
	bl	get_adv_channel_map
.LVL187:
.LBB653:
.LBB654:
	.loc 7 202 8 discriminator 1 view .LVU704
	mvn	r1, #8192
.LBE654:
.LBE653:
	.loc 1 995 24 discriminator 1 view .LVU705
	strb	r0, [sp, #45]
	.loc 1 996 2 is_stmt 1 discriminator 1 view .LVU706
	.loc 1 998 2 discriminator 1 view .LVU707
.LVL188:
.LBB656:
.LBI653:
	.loc 7 198 20 discriminator 1 view .LVU708
.LBB655:
	.loc 7 200 2 discriminator 1 view .LVU709
	.loc 7 202 2 discriminator 1 view .LVU710
	.loc 7 202 8 is_stmt 0 discriminator 1 view .LVU711
	ldr	r0, .L173
.LVL189:
	.loc 7 202 8 discriminator 1 view .LVU712
	bl	atomic_and
.LVL190:
	.loc 7 202 8 discriminator 1 view .LVU713
.LBE655:
.LBE656:
	.loc 1 1000 2 is_stmt 1 discriminator 1 view .LVU714
	.loc 1 1001 21 is_stmt 0 discriminator 1 view .LVU715
	ldr	r2, .L173+4
	.loc 1 1000 17 discriminator 1 view .LVU716
	ldrb	r3, [r5]	@ zero_extendqisi2
	.loc 1 1000 10 discriminator 1 view .LVU717
	strb	r3, [r7]
	.loc 1 1001 2 is_stmt 1 discriminator 1 view .LVU718
	.loc 1 1001 21 is_stmt 0 discriminator 1 view .LVU719
	strb	r3, [r2, #111]
	.loc 1 1003 2 is_stmt 1 discriminator 1 view .LVU720
	.loc 1 1003 8 is_stmt 0 discriminator 1 view .LVU721
	ldr	r1, [r5, #4]
	mov	r2, r4
	add	r3, sp, #37
	mov	r0, r7
	bl	bt_id_set_adv_own_addr
.LVL191:
	.loc 1 1005 2 is_stmt 1 discriminator 1 view .LVU722
	.loc 1 1005 5 is_stmt 0 discriminator 1 view .LVU723
	mov	r4, r0
.LVL192:
	.loc 1 1005 5 discriminator 1 view .LVU724
	cmp	r0, #0
	bne	.L132
	.loc 1 1009 2 is_stmt 1 view .LVU725
	.loc 1 1010 3 is_stmt 0 view .LVU726
	add	r0, r7, #9
.LVL193:
	.loc 1 1009 5 view .LVU727
	cmp	r10, #0
	beq	.L136
	.loc 1 1010 3 is_stmt 1 view .LVU728
	ldr	r1, [r5, #16]
	bl	bt_addr_le_copy
.LVL194:
	.loc 1 1015 2 view .LVU729
	.loc 1 1015 14 is_stmt 0 view .LVU730
	mov	r0, r5
	bl	get_adv_name_type_param
.LVL195:
	.loc 1 1017 11 view .LVU731
	ldr	r3, [r5, #4]
	.loc 1 1017 5 view .LVU732
	lsls	r1, r3, #31
	.loc 1 1015 14 view .LVU733
	mov	r6, r0
.LVL196:
	.loc 1 1017 2 is_stmt 1 view .LVU734
	.loc 1 1017 5 is_stmt 0 view .LVU735
	bmi	.L137
.L138:
	.loc 1 1030 9 is_stmt 1 view .LVU736
	.loc 1 1030 12 is_stmt 0 view .LVU737
	lsls	r3, r3, #22
	bmi	.L142
	.loc 1 1030 56 discriminator 1 view .LVU738
	ldr	r3, [sp, #112]
	cbnz	r3, .L142
	.loc 1 1030 62 discriminator 2 view .LVU739
	cmp	r6, #2
	bne	.L143
.L142:
	.loc 1 1032 3 is_stmt 1 view .LVU740
.LVL197:
	.loc 1 1033 3 view .LVU741
	.loc 1 1033 18 is_stmt 0 view .LVU742
	movs	r3, #2
	strb	r3, [sp, #36]
	b	.L141
.LVL198:
.L136:
	.loc 1 1012 3 is_stmt 1 view .LVU743
	ldr	r1, .L173+8
	bl	bt_addr_le_copy
.LVL199:
	.loc 1 1015 2 view .LVU744
	.loc 1 1015 14 is_stmt 0 view .LVU745
	mov	r0, r5
	bl	get_adv_name_type_param
.LVL200:
	.loc 1 1017 11 view .LVU746
	ldr	r3, [r5, #4]
	.loc 1 1017 5 view .LVU747
	lsls	r2, r3, #31
	.loc 1 1015 14 view .LVU748
	mov	r6, r0
.LVL201:
	.loc 1 1017 2 is_stmt 1 view .LVU749
	.loc 1 1017 5 is_stmt 0 view .LVU750
	bpl	.L138
	.loc 1 1018 3 is_stmt 1 view .LVU751
	.loc 1 1027 4 view .LVU752
.LVL202:
	.loc 1 1028 4 view .LVU753
	.loc 1 1028 19 is_stmt 0 view .LVU754
	strb	r10, [sp, #36]
	b	.L141
.LVL203:
.L137:
	.loc 1 1018 3 is_stmt 1 view .LVU755
	.loc 1 1019 4 view .LVU756
	.loc 1 1020 20 is_stmt 0 view .LVU757
	tst	r3, #16
	ite	eq
	moveq	r3, #1
	movne	r3, #4
	.loc 1 1025 4 view .LVU758
	ldr	r1, [r5, #16]
	strb	r3, [sp, #36]
	.loc 1 1025 4 is_stmt 1 view .LVU759
	add	r0, sp, #38
	bl	bt_addr_le_copy
.LVL204:
	.loc 1 970 39 is_stmt 0 view .LVU760
	mov	r9, r4
.LVL205:
.L141:
	.loc 1 1038 2 is_stmt 1 view .LVU761
	.loc 1 1038 8 is_stmt 0 view .LVU762
	movs	r1, #15
	movw	r0, #8198
	bl	bt_hci_cmd_create
.LVL206:
	.loc 1 1039 2 is_stmt 1 view .LVU763
	.loc 1 1039 5 is_stmt 0 view .LVU764
	mov	r4, r0
.LVL207:
	.loc 1 1039 5 view .LVU765
	cmp	r0, #0
	beq	.L156
	.loc 1 1043 2 is_stmt 1 view .LVU766
.LVL208:
.LBB657:
.LBI657:
	.loc 5 1510 21 view .LVU767
.LBB658:
	.loc 5 1513 2 view .LVU768
	.loc 5 1513 9 is_stmt 0 view .LVU769
	movs	r2, #15
	add	r1, sp, #32
.LVL209:
	.loc 5 1513 9 view .LVU770
	adds	r0, r0, #12
.LVL210:
	.loc 5 1513 9 view .LVU771
	bl	net_buf_simple_add_mem
.LVL211:
	.loc 5 1513 9 view .LVU772
.LBE658:
.LBE657:
	.loc 1 1045 2 is_stmt 1 view .LVU773
	.loc 1 1045 8 is_stmt 0 view .LVU774
	mov	r1, r4
	movs	r2, #0
.LVL212:
	.loc 1 1045 8 view .LVU775
	movw	r0, #8198
	bl	bt_hci_cmd_send_sync
.LVL213:
	.loc 1 1046 2 is_stmt 1 view .LVU776
	.loc 1 1046 5 is_stmt 0 view .LVU777
	mov	r4, r0
.LVL214:
	.loc 1 1046 5 view .LVU778
	cmp	r0, #0
	bne	.L132
	.loc 1 1050 2 is_stmt 1 view .LVU779
	.loc 1 1050 5 is_stmt 0 view .LVU780
	cmp	r10, #0
	beq	.L144
.L147:
	.loc 1 1058 2 is_stmt 1 view .LVU781
	.loc 1 1059 22 is_stmt 0 view .LVU782
	ldr	r3, [r5, #4]
	.loc 1 1058 5 view .LVU783
	lsls	r4, r3, #31
	bmi	.L145
.L146:
	.loc 1 1071 2 is_stmt 1 view .LVU784
.LVL215:
.LBB659:
.LBI659:
	.loc 1 379 5 view .LVU785
.LBB660:
	.loc 1 381 2 view .LVU786
	.loc 1 386 2 view .LVU787
	.loc 1 386 9 is_stmt 0 view .LVU788
	movs	r1, #1
	mov	r0, r7
.LVL216:
	.loc 1 386 9 view .LVU789
	bl	bt_le_adv_set_enable_legacy
.LVL217:
	.loc 1 386 9 view .LVU790
.LBE660:
.LBE659:
	.loc 1 1072 2 is_stmt 1 view .LVU791
	.loc 1 1072 5 is_stmt 0 view .LVU792
	mov	r4, r0
	cmp	r0, #0
	beq	.L149
	.loc 1 1073 3 is_stmt 1 view .LVU793
.LBB661:
	.loc 1 1073 8 view .LVU794
	.loc 1 1073 57 view .LVU795
	.loc 1 1073 14 view .LVU796
	.loc 1 1073 2 view .LVU797
.LVL218:
	.loc 1 1073 41 view .LVU798
	.loc 1 1073 176 view .LVU799
	.loc 1 1073 187 view .LVU800
	.loc 1 1073 275 view .LVU801
	.loc 1 1073 3 view .LVU802
	.loc 1 1073 3 view .LVU803
.LBB662:
	.loc 1 1073 8 view .LVU804
	.loc 1 1073 2 view .LVU805
.LBE662:
.LBE661:
	.loc 1 1073 3 view .LVU806
	.loc 1 1073 12 view .LVU807
	.loc 1 1073 107 view .LVU808
	.loc 1 1073 3 view .LVU809
.LBB679:
.LBB675:
	.loc 1 1073 12 view .LVU810
	.loc 1 1073 102 view .LVU811
	.loc 1 1073 104 view .LVU812
.LBB663:
	.loc 1 1073 109 view .LVU813
	.loc 1 1073 120 view .LVU814
	.loc 1 1073 209 view .LVU815
	.loc 1 1073 26 view .LVU816
.LBE663:
.LBE675:
.LBE679:
	.loc 1 1073 3 view .LVU817
	.loc 1 1073 368 view .LVU818
	.loc 1 1073 75 view .LVU819
	.loc 1 1073 2 view .LVU820
	.loc 1 1073 2 view .LVU821
	.loc 1 1073 2 view .LVU822
	.loc 1 1073 38 view .LVU823
	.loc 1 1073 4 view .LVU824
	.loc 1 1073 30 view .LVU825
	.loc 1 1073 56 view .LVU826
	.loc 1 1073 79 view .LVU827
	.loc 1 1073 141 view .LVU828
	.loc 1 1073 198 view .LVU829
	.loc 1 1073 263 view .LVU830
	.loc 1 1073 288 view .LVU831
	.loc 1 1073 289 view .LVU832
	.loc 1 1073 291 view .LVU833
	.loc 1 1073 321 view .LVU834
	.loc 1 1073 351 view .LVU835
	.loc 1 1073 383 view .LVU836
	.loc 1 1073 415 view .LVU837
	.loc 1 1073 447 view .LVU838
	.loc 1 1073 644 view .LVU839
	.loc 1 1073 668 view .LVU840
	.loc 1 1073 669 view .LVU841
	.loc 1 1073 671 view .LVU842
	.loc 1 1073 700 view .LVU843
	.loc 1 1073 729 view .LVU844
	.loc 1 1073 760 view .LVU845
	.loc 1 1073 791 view .LVU846
	.loc 1 1073 822 view .LVU847
	.loc 1 1073 1029 view .LVU848
	.loc 1 1073 4 view .LVU849
	.loc 1 1073 22 view .LVU850
	.loc 1 1073 42 view .LVU851
	.loc 1 1073 4 view .LVU852
	.loc 1 1073 42 view .LVU853
	.loc 1 1073 13 view .LVU854
	.loc 1 1073 13 view .LVU855
	.loc 1 1073 61 view .LVU856
	.loc 1 1073 92 view .LVU857
	.loc 1 1073 126 view .LVU858
	.loc 1 1073 131 view .LVU859
	.loc 1 1073 381 view .LVU860
	.loc 1 1073 1434 view .LVU861
	.loc 1 1073 1499 view .LVU862
	.loc 1 1073 1523 view .LVU863
	.loc 1 1073 1577 view .LVU864
	.loc 1 1073 1588 view .LVU865
	.loc 1 1073 1700 view .LVU866
	.loc 1 1073 1716 view .LVU867
	.loc 1 1073 1756 view .LVU868
	.loc 1 1073 1781 view .LVU869
	.loc 1 1073 3070 view .LVU870
	.loc 1 1073 3111 view .LVU871
	.loc 1 1073 7 view .LVU872
	.loc 1 1073 30 view .LVU873
	.loc 1 1073 129 view .LVU874
	.loc 1 1073 5 view .LVU875
	.loc 1 1073 28 view .LVU876
	.loc 1 1073 52 view .LVU877
	.loc 1 1073 80 view .LVU878
	.loc 1 1073 256 view .LVU879
	.loc 1 1073 16 view .LVU880
.LBB680:
.LBB676:
.LBB672:
	.loc 1 1073 29 view .LVU881
	.loc 1 1073 3 view .LVU882
	.loc 1 1073 3 view .LVU883
	.loc 1 1073 70 view .LVU884
	.loc 1 1073 74 view .LVU885
	.loc 1 1073 484 view .LVU886
	.loc 1 1073 5 view .LVU887
	.loc 1 1073 7 view .LVU888
	.loc 1 1073 12 view .LVU889
	.loc 1 1073 10 view .LVU890
	.loc 1 1073 5 view .LVU891
	.loc 1 1073 23 view .LVU892
.LBB664:
	.loc 1 1073 3 view .LVU893
	.loc 1 1073 368 view .LVU894
	.loc 1 1073 75 view .LVU895
.LVL219:
	.loc 1 1073 2 view .LVU896
	.loc 1 1073 2 view .LVU897
	.loc 1 1073 2 view .LVU898
	.loc 1 1073 38 view .LVU899
	.loc 1 1073 67 view .LVU900
	.loc 1 1073 93 view .LVU901
	.loc 1 1073 119 view .LVU902
	.loc 1 1073 142 view .LVU903
	.loc 1 1073 204 view .LVU904
	.loc 1 1073 261 view .LVU905
	.loc 1 1073 326 view .LVU906
	.loc 1 1073 351 view .LVU907
	.loc 1 1073 352 view .LVU908
	.loc 1 1073 354 view .LVU909
	.loc 1 1073 384 view .LVU910
	.loc 1 1073 414 view .LVU911
	.loc 1 1073 446 view .LVU912
	.loc 1 1073 478 view .LVU913
	.loc 1 1073 510 view .LVU914
	.loc 1 1073 707 view .LVU915
	.loc 1 1073 731 view .LVU916
	.loc 1 1073 732 view .LVU917
	.loc 1 1073 734 view .LVU918
	.loc 1 1073 763 view .LVU919
	.loc 1 1073 792 view .LVU920
	.loc 1 1073 823 view .LVU921
	.loc 1 1073 854 view .LVU922
	.loc 1 1073 885 view .LVU923
	.loc 1 1073 1092 view .LVU924
	.loc 1 1073 4 view .LVU925
	.loc 1 1073 22 view .LVU926
	.loc 1 1073 42 view .LVU927
	.loc 1 1073 4 view .LVU928
	.loc 1 1073 42 view .LVU929
	.loc 1 1073 13 view .LVU930
	.loc 1 1073 13 view .LVU931
	.loc 1 1073 61 view .LVU932
	.loc 1 1073 92 view .LVU933
	.loc 1 1073 126 view .LVU934
.LBB665:
	.loc 1 1073 131 view .LVU935
	.loc 1 1073 381 view .LVU936
	.loc 1 1073 1434 view .LVU937
	.loc 1 1073 1499 view .LVU938
.LBE665:
.LBE664:
.LBE672:
.LBE676:
.LBE680:
	.loc 1 1073 1523 view .LVU939
	.loc 1 1073 1577 view .LVU940
	.loc 1 1073 1588 view .LVU941
	.loc 1 1073 1700 view .LVU942
.LBB681:
.LBB677:
.LBB673:
.LBB668:
.LBB666:
	.loc 1 1073 1716 view .LVU943
	.loc 1 1073 1756 view .LVU944
	.loc 1 1073 1781 view .LVU945
	.loc 1 1073 3070 view .LVU946
	.loc 1 1073 3108 view .LVU947
	.loc 1 1073 3113 view .LVU948
	.loc 1 1073 3707 view .LVU949
	.loc 1 1073 0 is_stmt 0 view .LVU950
	ldr	r3, .L173+12
	str	r3, [sp, #68]
	.loc 1 1073 3111 is_stmt 1 view .LVU951
	.loc 1 1073 7 view .LVU952
.LVL220:
	.loc 1 1073 30 view .LVU953
	.loc 1 1073 30 is_stmt 0 view .LVU954
.LBE666:
	.loc 1 1073 129 is_stmt 1 view .LVU955
	.loc 1 1073 5 view .LVU956
	.loc 1 1073 28 view .LVU957
	.loc 1 1073 52 view .LVU958
	.loc 1 1073 80 view .LVU959
.LBE668:
.LBE673:
.LBE677:
.LBE681:
	.loc 1 1073 6 view .LVU960
	.loc 1 1073 45 view .LVU961
	.loc 1 1073 50 view .LVU962
	.loc 1 1073 80 view .LVU963
	.loc 1 1073 147 view .LVU964
	.loc 1 1073 152 view .LVU965
	.loc 1 1073 182 view .LVU966
.LBB682:
.LBB678:
.LBB674:
.LBB669:
	.loc 1 1073 256 view .LVU967
	.loc 1 1073 16 view .LVU968
.LBB667:
	.loc 1 1073 6 view .LVU969
	.loc 1 1073 164 view .LVU970
	.loc 1 1073 166 view .LVU971
	.loc 1 1073 176 is_stmt 0 view .LVU972
	movs	r3, #2
	str	r3, [sp, #64]
.LVL221:
	.loc 1 1073 176 view .LVU973
.LBE667:
.LBE669:
	.loc 1 1073 26 is_stmt 1 view .LVU974
	.loc 1 1073 7 view .LVU975
	.loc 1 1073 147 view .LVU976
	.loc 1 1073 149 view .LVU977
.LBB670:
.LBI670:
	.loc 6 26 20 view .LVU978
.LBB671:
	.loc 6 38 2 view .LVU979
	.loc 6 38 7 view .LVU980
	.loc 6 38 5 view .LVU981
	.loc 6 39 2 view .LVU982
	ldr	r0, .L173+16
.LVL222:
	.loc 6 39 2 is_stmt 0 view .LVU983
	movs	r3, #0
.LVL223:
	.loc 6 39 2 view .LVU984
	add	r2, sp, #64
.LVL224:
	.loc 6 39 2 view .LVU985
	mov	r1, #4160
	bl	z_impl_z_log_msg_static_create
.LVL225:
	.loc 6 39 2 view .LVU986
.LBE671:
.LBE670:
.LBE674:
	.loc 1 1073 107 is_stmt 1 view .LVU987
	.loc 1 1073 5 view .LVU988
.LVL226:
	.loc 1 1073 42 view .LVU989
.LBE678:
	.loc 1 1073 6 view .LVU990
	.loc 1 1073 278 view .LVU991
	.loc 1 1073 5 view .LVU992
	.loc 1 1073 18 view .LVU993
.LBE682:
	.loc 1 1073 6 view .LVU994
	.loc 1 1074 3 view .LVU995
	.loc 1 1074 9 is_stmt 0 view .LVU996
	ldr	r5, [sp, #28]
.LVL227:
	.loc 1 1074 6 view .LVU997
	cmp	r5, #0
	beq	.L132
	.loc 1 1075 4 is_stmt 1 view .LVU998
	mov	r0, r5
	movs	r1, #0
.LVL228:
	.loc 1 1075 4 is_stmt 0 view .LVU999
	bl	bt_conn_set_state
.LVL229:
	.loc 1 1076 4 is_stmt 1 view .LVU1000
	mov	r0, r5
	bl	bt_conn_unref
.LVL230:
	b	.L132
.LVL231:
.L143:
	.loc 1 1035 3 view .LVU1001
	.loc 1 1035 18 is_stmt 0 view .LVU1002
	movs	r3, #3
	.loc 1 970 39 view .LVU1003
	ldr	r9, [sp, #112]
	.loc 1 1035 18 view .LVU1004
	strb	r3, [sp, #36]
	b	.L141
.LVL232:
.L144:
	.loc 1 1051 3 is_stmt 1 view .LVU1005
	.loc 1 1051 9 is_stmt 0 view .LVU1006
	ldr	r3, [sp, #116]
	str	r3, [sp]
	strd	r9, r6, [sp, #4]
	ldr	r3, [sp, #112]
	ldr	r2, [sp, #20]
	mov	r1, fp
	mov	r0, r7
.LVL233:
	.loc 1 1051 9 view .LVU1007
	bl	le_adv_update.constprop.0
.LVL234:
	.loc 1 1053 3 is_stmt 1 view .LVU1008
	.loc 1 1053 6 is_stmt 0 view .LVU1009
	mov	r4, r0
	cmp	r0, #0
	beq	.L147
	b	.L132
.L145:
	.loc 1 1060 3 is_stmt 1 view .LVU1010
	.loc 1 1060 9 is_stmt 0 view .LVU1011
	add	r1, sp, #28
	mov	r0, r7
.LVL235:
	.loc 1 1060 9 view .LVU1012
	bl	le_adv_start_add_conn
.LVL236:
	.loc 1 1061 3 is_stmt 1 view .LVU1013
	.loc 1 1061 6 is_stmt 0 view .LVU1014
	mov	r4, r0
	cmp	r0, #0
	beq	.L146
	.loc 1 1062 4 is_stmt 1 view .LVU1015
	.loc 1 1062 7 is_stmt 0 view .LVU1016
	cmn	r0, #12
	bne	.L132
	.loc 1 1062 22 discriminator 1 view .LVU1017
	cmp	r10, #0
	bne	.L132
	.loc 1 1063 25 discriminator 2 view .LVU1018
	ldr	r3, [r5, #4]
	.loc 1 1062 34 discriminator 2 view .LVU1019
	lsls	r0, r3, #30
.LVL237:
	.loc 1 1062 34 discriminator 2 view .LVU1020
	bmi	.L132
.L152:
	.loc 1 1092 57 view .LVU1021
	ldr	r4, [r5, #4]
.LVL238:
	.loc 1 1092 57 view .LVU1022
	eor	r4, r4, #2
	ubfx	r4, r4, #1, #1
.LVL239:
.L148:
	.loc 1 1092 2 discriminator 6 view .LVU1023
	and	r2, r4, #1
	movs	r1, #14
	mov	r0, r8
	bl	atomic_set_bit_to
.LVL240:
	.loc 1 1095 2 is_stmt 1 discriminator 6 view .LVU1024
	subs	r3, r6, #1
	rsbs	r2, r3, #0
	adcs	r2, r2, r3
	movs	r1, #8
	mov	r0, r8
	bl	atomic_set_bit_to
.LVL241:
	.loc 1 1098 2 discriminator 6 view .LVU1025
	subs	r1, r6, #2
	rsbs	r2, r1, #0
	adcs	r2, r2, r1
	mov	r0, r8
	movs	r1, #9
	bl	atomic_set_bit_to
.LVL242:
	.loc 1 1101 2 discriminator 6 view .LVU1026
	ldr	r2, [r5, #4]
	movs	r1, #10
	and	r2, r2, #1
	mov	r0, r8
	bl	atomic_set_bit_to
.LVL243:
	.loc 1 1104 2 discriminator 6 view .LVU1027
	mov	r2, r9
	movs	r1, #11
	mov	r0, r8
	bl	atomic_set_bit_to
.LVL244:
	.loc 1 1106 2 discriminator 6 view .LVU1028
	ldr	r2, [r5, #4]
	movs	r1, #13
	ubfx	r2, r2, #2, #1
	mov	r0, r8
	bl	atomic_set_bit_to
.LVL245:
	.loc 1 1109 2 discriminator 6 view .LVU1029
	.loc 1 1109 9 is_stmt 0 discriminator 6 view .LVU1030
	movs	r4, #0
.LVL246:
	.loc 1 1109 9 discriminator 6 view .LVU1031
	b	.L132
.LVL247:
.L149:
	.loc 1 1082 2 is_stmt 1 view .LVU1032
	.loc 1 1082 8 is_stmt 0 view .LVU1033
	ldr	r0, [sp, #28]
.LVL248:
	.loc 1 1082 5 view .LVU1034
	cbz	r0, .L151
	.loc 1 1088 3 is_stmt 1 view .LVU1035
	bl	bt_conn_unref
.LVL249:
.L151:
	.loc 1 1092 2 view .LVU1036
	.loc 1 1092 57 is_stmt 0 view .LVU1037
	cmp	r10, #0
	bne	.L148
	b	.L152
.LVL250:
.L153:
	.loc 1 976 10 view .LVU1038
	mvn	r4, #10
.LVL251:
	.loc 1 976 10 view .LVU1039
	b	.L132
.LVL252:
.L154:
	.loc 1 988 10 view .LVU1040
	mvn	r4, #119
.LVL253:
	.loc 1 988 10 view .LVU1041
	b	.L132
.LVL254:
.L156:
	.loc 1 1040 10 view .LVU1042
	mvn	r4, #104
	b	.L132
.L174:
	.align	2
.L173:
	.word	bt_dev+212
	.word	bt_dev
	.word	bt_addr_le_any
	.word	.LC1
	.word	log_const_bt_adv
	.cfi_endproc
.LFE607:
	.size	bt_le_adv_start_legacy, .-bt_le_adv_start_legacy
	.section	.text.bt_le_adv_start_ext,"ax",%progbits
	.align	1
	.global	bt_le_adv_start_ext
	.syntax unified
	.thumb
	.thumb_func
	.type	bt_le_adv_start_ext, %function
bt_le_adv_start_ext:
.LVL255:
.LFB609:
	.loc 1 1263 1 is_stmt 1 view -0
	.cfi_startproc
	@ args = 8, pretend = 0, frame = 40
	@ frame_needed = 0, uses_anonymous_args = 0
	.loc 1 1264 2 view .LVU1044
	.loc 1 1263 1 is_stmt 0 view .LVU1045
	push	{r4, r5, r6, r7, r8, r9, r10, fp, lr}
	.cfi_def_cfa_offset 36
	.cfi_offset 4, -36
	.cfi_offset 5, -32
	.cfi_offset 6, -28
	.cfi_offset 7, -24
	.cfi_offset 8, -20
	.cfi_offset 9, -16
	.cfi_offset 10, -12
	.cfi_offset 11, -8
	.cfi_offset 14, -4
	sub	sp, sp, #44
	.cfi_def_cfa_offset 80
	.loc 1 1268 22 view .LVU1046
	ldr	r2, [r1, #16]
.LVL256:
	.loc 1 1268 22 view .LVU1047
	str	r2, [sp]
	.loc 1 1264 35 view .LVU1048
	movs	r3, #0
.LVL257:
	.loc 1 1263 1 view .LVU1049
	mov	r8, r0
.LBB721:
.LBB722:
	.loc 7 133 21 view .LVU1050
	ldr	r0, .L249
.LVL258:
	.loc 7 133 21 view .LVU1051
.LBE722:
.LBE721:
	.loc 1 1264 35 view .LVU1052
	strh	r3, [sp, #8]	@ movhi
	strb	r3, [sp, #10]
	.loc 1 1268 1 is_stmt 1 view .LVU1053
.LVL259:
	.loc 1 1269 2 view .LVU1054
	.loc 1 1269 18 is_stmt 0 view .LVU1055
	str	r3, [sp, #12]
	.loc 1 1270 2 is_stmt 1 view .LVU1056
	.loc 1 1272 2 view .LVU1057
.LVL260:
.LBB724:
.LBI721:
	.loc 7 131 19 view .LVU1058
.LBB723:
	.loc 7 133 2 view .LVU1059
	.loc 7 133 21 is_stmt 0 view .LVU1060
	bl	atomic_get
.LVL261:
	.loc 7 135 2 is_stmt 1 view .LVU1061
	.loc 7 135 2 is_stmt 0 view .LVU1062
.LBE723:
.LBE724:
	.loc 1 1263 1 view .LVU1063
	mov	r5, r1
	.loc 1 1272 5 view .LVU1064
	lsls	r1, r0, #29
.LVL262:
	.loc 1 1272 5 view .LVU1065
	bpl	.L203
	.loc 1 1276 2 is_stmt 1 view .LVU1066
	.loc 1 1276 7 is_stmt 0 view .LVU1067
	mov	r0, r5
	bl	valid_adv_param
.LVL263:
	.loc 1 1276 5 view .LVU1068
	cmp	r0, #0
	beq	.L204
	.loc 1 1280 2 is_stmt 1 view .LVU1069
	.loc 1 1280 25 is_stmt 0 view .LVU1070
	add	r7, r8, #16
.LVL264:
.LBB725:
.LBI725:
	.loc 7 131 19 is_stmt 1 view .LVU1071
.LBB726:
	.loc 7 133 2 view .LVU1072
	.loc 7 133 21 is_stmt 0 view .LVU1073
	mov	r0, r7
	bl	atomic_get
.LVL265:
	.loc 7 135 2 is_stmt 1 view .LVU1074
	.loc 7 135 2 is_stmt 0 view .LVU1075
.LBE726:
.LBE725:
	.loc 1 1280 5 view .LVU1076
	lsls	r2, r0, #24
	ubfx	r4, r0, #7, #1
	bmi	.L205
	.loc 1 1284 2 is_stmt 1 view .LVU1077
	.loc 1 1284 17 is_stmt 0 view .LVU1078
	ldrb	r3, [r5]	@ zero_extendqisi2
	.loc 1 1284 10 view .LVU1079
	strb	r3, [r8]
	.loc 1 1285 2 is_stmt 1 view .LVU1080
.LVL266:
.LBB727:
.LBI727:
	.loc 1 1112 12 view .LVU1081
.LBB728:
	.loc 1 1116 2 view .LVU1082
	.loc 1 1117 1 view .LVU1083
	.loc 1 1117 21 is_stmt 0 view .LVU1084
	ldr	fp, [r5, #16]
	.loc 1 1123 8 view .LVU1085
	movs	r1, #25
	.loc 1 1117 6 view .LVU1086
	subs	r9, fp, #0
	.loc 1 1123 8 view .LVU1087
	movw	r0, #8246
	.loc 1 1117 6 view .LVU1088
	it	ne
	movne	r9, #1
.LVL267:
	.loc 1 1118 2 is_stmt 1 view .LVU1089
	.loc 1 1119 2 view .LVU1090
	.loc 1 1120 2 view .LVU1091
	.loc 1 1121 2 view .LVU1092
	.loc 1 1123 2 view .LVU1093
	.loc 1 1123 8 is_stmt 0 view .LVU1094
	bl	bt_hci_cmd_create
.LVL268:
	.loc 1 1124 2 is_stmt 1 view .LVU1095
	.loc 1 1124 5 is_stmt 0 view .LVU1096
	mov	r10, r0
	cbnz	r0, .L177
.LVL269:
	.loc 1 1124 5 view .LVU1097
.LBE728:
.LBE727:
	.loc 1 1286 2 is_stmt 1 view .LVU1098
.LBB768:
.LBB765:
	.loc 1 1125 10 is_stmt 0 view .LVU1099
	mvn	r4, #104
.LVL270:
.L175:
	.loc 1 1125 10 view .LVU1100
.LBE765:
.LBE768:
	.loc 1 1344 1 view .LVU1101
	mov	r0, r4
	add	sp, sp, #44
	.cfi_remember_state
	.cfi_def_cfa_offset 36
.LVL271:
	.loc 1 1344 1 view .LVU1102
	@ sp needed
	pop	{r4, r5, r6, r7, r8, r9, r10, fp, pc}
.LVL272:
.L177:
	.cfi_restore_state
.LBB769:
.LBB766:
	.loc 1 1128 2 is_stmt 1 view .LVU1103
.LBB729:
.LBI729:
	.loc 5 1493 21 view .LVU1104
.LBB730:
	.loc 5 1495 2 view .LVU1105
	.loc 5 1495 9 is_stmt 0 view .LVU1106
	movs	r1, #25
	adds	r0, r0, #12
.LVL273:
	.loc 5 1495 9 view .LVU1107
	bl	net_buf_simple_add
.LVL274:
.LBE730:
.LBE729:
.LBB732:
.LBB733:
	.loc 4 86 245 view .LVU1108
	mov	r1, r4
	movs	r2, #25
.LBE733:
.LBE732:
.LBB735:
.LBB731:
	.loc 5 1495 9 view .LVU1109
	mov	r6, r0
.LVL275:
	.loc 5 1495 9 view .LVU1110
.LBE731:
.LBE735:
	.loc 1 1129 2 is_stmt 1 view .LVU1111
.LBB736:
.LBI732:
	.loc 4 86 189 view .LVU1112
.LBB734:
	.loc 4 86 238 view .LVU1113
	.loc 4 86 245 is_stmt 0 view .LVU1114
	bl	memset
.LVL276:
	.loc 4 86 245 view .LVU1115
.LBE734:
.LBE736:
	.loc 1 1131 2 is_stmt 1 view .LVU1116
	.loc 1 1131 22 is_stmt 0 view .LVU1117
	ldr	r1, [r5, #4]
	.loc 1 1131 15 view .LVU1118
	str	r1, [r8, #72]
	.loc 1 1133 2 is_stmt 1 view .LVU1119
	.loc 1 1133 8 is_stmt 0 view .LVU1120
	add	r3, r6, #10
	mov	r2, r9
	mov	r0, r8
	bl	bt_id_set_adv_own_addr
.LVL277:
	.loc 1 1135 2 is_stmt 1 view .LVU1121
	.loc 1 1135 5 is_stmt 0 view .LVU1122
	mov	r4, r0
	cmp	r0, #0
	bne	.L175
	.loc 1 1139 2 is_stmt 1 view .LVU1123
	.loc 1 1140 3 is_stmt 0 view .LVU1124
	add	r0, r8, #9
.LVL278:
	.loc 1 1139 5 view .LVU1125
	cmp	fp, #0
	beq	.L179
	.loc 1 1140 3 is_stmt 1 view .LVU1126
	ldr	r1, [r5, #16]
.L247:
	.loc 1 1142 3 is_stmt 0 view .LVU1127
	bl	bt_addr_le_copy
.LVL279:
	.loc 1 1145 2 is_stmt 1 view .LVU1128
	.loc 1 1145 14 is_stmt 0 view .LVU1129
	mov	r0, r5
	bl	get_adv_name_type_param
.LVL280:
	.loc 1 1147 18 view .LVU1130
	ldrb	r3, [r8, #1]	@ zero_extendqisi2
	.loc 1 1147 13 view .LVU1131
	strb	r3, [r6]
	.loc 1 1148 20 view .LVU1132
	ldr	r3, [r5, #8]
.LBB737:
.LBB738:
.LBB739:
.LBB740:
	.file 8 "/home/g/mise-work/zmk-firmware/zmk/zephyr/include/zephyr/sys/byteorder.h"
	.loc 8 386 9 view .LVU1133
	strb	r3, [r6, #3]
	.loc 8 387 9 view .LVU1134
	ubfx	r2, r3, #8, #8
.LBE740:
.LBE739:
	.loc 8 402 15 view .LVU1135
	lsrs	r3, r3, #16
.LBB743:
.LBB741:
	.loc 8 387 9 view .LVU1136
	strb	r2, [r6, #4]
.LBE741:
.LBE743:
	.loc 8 402 9 view .LVU1137
	strb	r3, [r6, #5]
.LBE738:
.LBE737:
	.loc 1 1149 20 view .LVU1138
	ldr	r3, [r5, #12]
.LBB746:
.LBB747:
.LBB748:
.LBB749:
	.loc 8 386 9 view .LVU1139
	strb	r3, [r6, #6]
	.loc 8 387 9 view .LVU1140
	ubfx	r2, r3, #8, #8
.LBE749:
.LBE748:
	.loc 8 402 15 view .LVU1141
	lsrs	r3, r3, #16
.LBB752:
.LBB750:
	.loc 8 387 9 view .LVU1142
	strb	r2, [r6, #7]
.LBE750:
.LBE752:
	.loc 8 402 9 view .LVU1143
	strb	r3, [r6, #8]
.LBE747:
.LBE746:
	.loc 1 1145 14 view .LVU1144
	mov	r9, r0
.LVL281:
	.loc 1 1147 2 is_stmt 1 view .LVU1145
	.loc 1 1148 2 view .LVU1146
.LBB755:
.LBI737:
	.loc 8 399 20 view .LVU1147
.LBB745:
	.loc 8 401 2 view .LVU1148
.LBB744:
.LBI739:
	.loc 8 384 20 view .LVU1149
.LBB742:
	.loc 8 386 2 view .LVU1150
	.loc 8 387 2 view .LVU1151
	.loc 8 387 2 is_stmt 0 view .LVU1152
.LBE742:
.LBE744:
	.loc 8 402 2 is_stmt 1 view .LVU1153
	.loc 8 402 2 is_stmt 0 view .LVU1154
.LBE745:
.LBE755:
	.loc 1 1149 2 is_stmt 1 view .LVU1155
.LBB756:
.LBI746:
	.loc 8 399 20 view .LVU1156
.LBB754:
	.loc 8 401 2 view .LVU1157
.LBB753:
.LBI748:
	.loc 8 384 20 view .LVU1158
.LBB751:
	.loc 8 386 2 view .LVU1159
	.loc 8 387 2 view .LVU1160
	.loc 8 387 2 is_stmt 0 view .LVU1161
.LBE751:
.LBE753:
	.loc 8 402 2 is_stmt 1 view .LVU1162
	.loc 8 402 2 is_stmt 0 view .LVU1163
.LBE754:
.LBE756:
	.loc 1 1150 2 is_stmt 1 view .LVU1164
	.loc 1 1150 25 is_stmt 0 view .LVU1165
	ldr	r0, [r5, #4]
	bl	get_adv_channel_map
.LVL282:
	.loc 1 1151 20 view .LVU1166
	movs	r3, #0
	strb	r3, [r6, #18]
	.loc 1 1152 15 view .LVU1167
	movs	r3, #127
	strb	r3, [r6, #19]
	.loc 1 1154 19 view .LVU1168
	movs	r3, #1
	.loc 1 1150 23 view .LVU1169
	strb	r0, [r6, #9]
	.loc 1 1151 2 is_stmt 1 view .LVU1170
	.loc 1 1152 2 view .LVU1171
	.loc 1 1154 2 view .LVU1172
	.loc 1 1154 19 is_stmt 0 view .LVU1173
	strb	r3, [r6, #20]
	.loc 1 1155 2 is_stmt 1 view .LVU1174
	.loc 1 1155 47 is_stmt 0 view .LVU1175
	ldr	r3, [r5, #4]
	and	r3, r3, #3072
	.loc 1 1157 19 view .LVU1176
	cmp	r3, #1024
	ite	ne
	movne	r3, #1
	moveq	r3, #2
	strb	r3, [r6, #22]
	.loc 1 1162 2 is_stmt 1 view .LVU1177
	.loc 1 1162 21 is_stmt 0 view .LVU1178
	ldr	r3, [r5, #4]
	.loc 1 1162 5 view .LVU1179
	lsls	r3, r3, #19
	.loc 1 1163 3 is_stmt 1 view .LVU1180
	.loc 1 1163 20 is_stmt 0 view .LVU1181
	ittt	mi
	movmi	r3, #3
	strbmi	r3, [r6, #20]
	.loc 1 1164 3 is_stmt 1 view .LVU1182
	.loc 1 1164 19 is_stmt 0 view .LVU1183
	strbmi	r3, [r6, #22]
	.loc 1 1167 2 is_stmt 1 view .LVU1184
	.loc 1 1167 13 is_stmt 0 view .LVU1185
	ldr	r2, [r5, #4]
	.loc 1 1167 5 view .LVU1186
	eor	r3, r2, #1024
	ubfx	r3, r3, #10, #1
	.loc 1 1171 5 view .LVU1187
	lsls	r4, r2, #17
.LVL283:
	.loc 1 1167 5 view .LVU1188
	lsl	r3, r3, #4
.LVL284:
	.loc 1 1171 2 is_stmt 1 view .LVU1189
	.loc 1 1172 3 view .LVU1190
	.loc 1 1172 9 is_stmt 0 view .LVU1191
	it	mi
	orrmi	r3, r3, #64
.LVL285:
	.loc 1 1175 2 is_stmt 1 view .LVU1192
	.loc 1 1175 5 is_stmt 0 view .LVU1193
	lsls	r0, r2, #18
	.loc 1 1176 3 is_stmt 1 view .LVU1194
	.loc 1 1176 9 is_stmt 0 view .LVU1195
	it	mi
	orrmi	r3, r3, #32
.LVL286:
	.loc 1 1179 2 is_stmt 1 view .LVU1196
	.loc 1 1179 5 is_stmt 0 view .LVU1197
	lsls	r1, r2, #23
	.loc 1 1180 3 is_stmt 1 view .LVU1198
	.loc 1 1180 30 is_stmt 0 view .LVU1199
	itt	mi
	movmi	r2, #1
	strbmi	r2, [r6, #24]
	.loc 1 1183 2 is_stmt 1 view .LVU1200
	.loc 1 1183 11 is_stmt 0 view .LVU1201
	ldr	r1, [r5, #4]
	.loc 1 1183 5 view .LVU1202
	lsls	r2, r1, #31
	bpl	.L207
	.loc 1 1184 3 is_stmt 1 view .LVU1203
	.loc 1 1184 9 is_stmt 0 view .LVU1204
	orr	r2, r3, #1
.LVL287:
	.loc 1 1185 3 is_stmt 1 view .LVU1205
	.loc 1 1185 6 is_stmt 0 view .LVU1206
	cmp	fp, #0
	bne	.L186
	.loc 1 1185 16 view .LVU1207
	lsls	r4, r1, #21
	bmi	.L186
	.loc 1 1191 4 is_stmt 1 view .LVU1208
	.loc 1 1191 10 is_stmt 0 view .LVU1209
	orr	r2, r3, #3
.LVL288:
.L186:
	.loc 1 1195 2 is_stmt 1 view .LVU1210
	.loc 1 1195 5 is_stmt 0 view .LVU1211
	lsls	r0, r1, #22
	bmi	.L187
	.loc 1 1195 49 view .LVU1212
	ldr	r3, [sp, #80]
	cbnz	r3, .L187
	.loc 1 1195 66 view .LVU1213
	cmp	r9, #2
	bne	.L188
.L187:
	.loc 1 1197 3 is_stmt 1 view .LVU1214
	.loc 1 1197 9 is_stmt 0 view .LVU1215
	orr	r2, r2, #2
.LVL289:
	.loc 1 1197 9 view .LVU1216
	uxth	r2, r2
.LVL290:
.L188:
	.loc 1 1200 2 is_stmt 1 view .LVU1217
	.loc 1 1200 12 is_stmt 0 view .LVU1218
	ubfx	r3, r2, #1, #1
	str	r3, [sp, #4]
.LVL291:
	.loc 1 1202 2 is_stmt 1 view .LVU1219
	.loc 1 1202 5 is_stmt 0 view .LVU1220
	cmp	fp, #0
	beq	.L189
	.loc 1 1203 3 is_stmt 1 view .LVU1221
.LVL292:
	.loc 1 1204 3 view .LVU1222
	.loc 1 1204 6 is_stmt 0 view .LVU1223
	lsls	r3, r1, #27
	.loc 1 1203 9 view .LVU1224
	ite	mi
	orrmi	r2, r2, #4
.LVL293:
	.loc 1 1205 4 is_stmt 1 view .LVU1225
	.loc 1 1205 10 is_stmt 0 view .LVU1226
	orrpl	r2, r2, #12
	.loc 1 1208 3 view .LVU1227
	ldr	r1, [r5, #16]
	add	r0, r6, #11
	.loc 1 1205 10 view .LVU1228
	uxth	r2, r2
.LVL294:
	.loc 1 1208 3 is_stmt 1 view .LVU1229
	bl	bt_addr_le_copy
.LVL295:
.L189:
	.loc 1 1211 2 view .LVU1230
	.loc 1 1211 17 is_stmt 0 view .LVU1231
	ldrb	r3, [r5, #1]	@ zero_extendqisi2
	.loc 1 1211 10 view .LVU1232
	strb	r3, [r6, #23]
	.loc 1 1213 2 is_stmt 1 view .LVU1233
	.loc 1 1213 12 is_stmt 0 view .LVU1234
	strh	r2, [r6, #1]	@ unaligned
	.loc 1 1214 2 is_stmt 1 view .LVU1235
	.loc 1 1214 8 is_stmt 0 view .LVU1236
	mov	r1, r10
	add	r2, sp, #16
.LVL296:
	.loc 1 1214 8 view .LVU1237
	movw	r0, #8246
	bl	bt_hci_cmd_send_sync
.LVL297:
	.loc 1 1215 2 is_stmt 1 view .LVU1238
	.loc 1 1215 5 is_stmt 0 view .LVU1239
	mov	r4, r0
	cmp	r0, #0
	bne	.L175
	.loc 1 1225 2 is_stmt 1 view .LVU1240
	ldr	r0, [sp, #16]
.LVL298:
	.loc 1 1225 2 is_stmt 0 view .LVU1241
	bl	net_buf_unref
.LVL299:
	.loc 1 1227 2 is_stmt 1 view .LVU1242
.LBB757:
.LBI757:
	.loc 7 217 20 view .LVU1243
.LBB758:
	.loc 7 219 2 view .LVU1244
	.loc 7 221 2 view .LVU1245
.LBB759:
.LBI759:
	.loc 2 279 28 view .LVU1246
.LBB760:
	.loc 2 281 2 view .LVU1247
	.loc 2 281 9 is_stmt 0 view .LVU1248
	dmb	ish
.L246:
	.loc 2 281 9 view .LVU1249
	ldrex	r3, [r7]
	orr	r3, r3, #2
	strex	r2, r3, [r7]
	cmp	r2, #0
	bne	.L246
	dmb	ish
.LVL300:
	.loc 2 281 9 view .LVU1250
.LBE760:
.LBE759:
.LBE758:
.LBE757:
	.loc 1 1229 2 is_stmt 1 view .LVU1251
.LBB761:
.LBI761:
	.loc 7 152 19 view .LVU1252
.LBB762:
	.loc 7 154 2 view .LVU1253
	.loc 7 155 2 view .LVU1254
	.loc 7 157 2 view .LVU1255
	.loc 7 157 8 is_stmt 0 view .LVU1256
	mvn	r1, #8
	mov	r0, r7
	bl	atomic_and
.LVL301:
	.loc 7 159 2 is_stmt 1 view .LVU1257
	.loc 7 159 2 is_stmt 0 view .LVU1258
.LBE762:
.LBE761:
	.loc 1 1229 5 view .LVU1259
	lsls	r6, r0, #28
.LVL302:
	.loc 1 1229 5 view .LVU1260
	bmi	.L193
.L196:
	.loc 1 1237 2 is_stmt 1 view .LVU1261
.LVL303:
.LBB763:
.LBI763:
	.loc 7 237 20 view .LVU1262
.LBB764:
	.loc 7 239 2 view .LVU1263
	.loc 7 241 2 view .LVU1264
	.loc 7 244 3 view .LVU1265
	.loc 7 244 9 is_stmt 0 view .LVU1266
	mvn	r1, #16384
	mov	r0, r7
	bl	atomic_and
.LVL304:
	.loc 7 244 9 view .LVU1267
.LBE764:
.LBE763:
	.loc 1 1239 2 is_stmt 1 view .LVU1268
	add	r0, r9, #-1
	rsbs	r2, r0, #0
	adcs	r2, r2, r0
	movs	r1, #8
	mov	r0, r7
	.loc 1 1242 2 is_stmt 0 view .LVU1269
	sub	r4, r9, #2
.LVL305:
	.loc 1 1239 2 view .LVU1270
	bl	atomic_set_bit_to
.LVL306:
	.loc 1 1242 2 is_stmt 1 view .LVU1271
	rsbs	r2, r4, #0
	adcs	r2, r2, r4
	movs	r1, #9
	mov	r0, r7
	bl	atomic_set_bit_to
.LVL307:
	.loc 1 1245 2 view .LVU1272
	ldr	r2, [r5, #4]
	movs	r1, #10
	and	r2, r2, #1
	mov	r0, r7
	bl	atomic_set_bit_to
.LVL308:
	.loc 1 1248 2 view .LVU1273
	ldr	r2, [sp, #4]
	movs	r1, #11
	mov	r0, r7
	bl	atomic_set_bit_to
.LVL309:
	.loc 1 1250 2 view .LVU1274
	ldr	r2, [r5, #4]
	movs	r1, #13
	ubfx	r2, r2, #2, #1
	mov	r0, r7
	bl	atomic_set_bit_to
.LVL310:
	.loc 1 1253 2 view .LVU1275
	ldr	r2, [r5, #4]
	movs	r1, #12
	ubfx	r2, r2, #10, #1
	mov	r0, r7
	bl	atomic_set_bit_to
.LVL311:
	.loc 1 1256 2 view .LVU1276
	.loc 1 1256 2 is_stmt 0 view .LVU1277
.LBE766:
.LBE769:
	.loc 1 1286 2 is_stmt 1 view .LVU1278
	.loc 1 1290 2 view .LVU1279
	.loc 1 1290 5 is_stmt 0 view .LVU1280
	ldr	r3, [sp]
	cbnz	r3, .L244
.L194:
	.loc 1 1305 2 is_stmt 1 view .LVU1281
	.loc 1 1306 22 is_stmt 0 view .LVU1282
	ldr	r3, [r5, #4]
	.loc 1 1305 5 view .LVU1283
	lsls	r2, r3, #31
	bpl	.L197
	.loc 1 1307 3 is_stmt 1 view .LVU1284
	.loc 1 1307 9 is_stmt 0 view .LVU1285
	add	r1, sp, #12
	mov	r0, r8
	bl	le_adv_start_add_conn
.LVL312:
	.loc 1 1308 3 is_stmt 1 view .LVU1286
	.loc 1 1308 6 is_stmt 0 view .LVU1287
	mov	r4, r0
	cmp	r0, #0
	beq	.L197
	.loc 1 1309 4 is_stmt 1 view .LVU1288
	.loc 1 1309 7 is_stmt 0 view .LVU1289
	cmn	r0, #12
	bne	.L175
	.loc 1 1309 22 discriminator 1 view .LVU1290
	ldr	r3, [sp]
	cmp	r3, #0
	bne	.L175
	.loc 1 1310 25 discriminator 2 view .LVU1291
	ldr	r3, [r5, #4]
	.loc 1 1309 34 discriminator 2 view .LVU1292
	lsls	r3, r3, #30
	bmi	.L175
.LVL313:
.L202:
	.loc 1 1340 57 view .LVU1293
	ldr	r4, [r5, #4]
.LVL314:
	.loc 1 1340 57 view .LVU1294
	eor	r4, r4, #2
	ubfx	r4, r4, #1, #1
.LVL315:
.L198:
	.loc 1 1340 2 discriminator 6 view .LVU1295
	and	r2, r4, #1
	movs	r1, #14
	mov	r0, r7
	bl	atomic_set_bit_to
.LVL316:
	.loc 1 1343 2 is_stmt 1 discriminator 6 view .LVU1296
	.loc 1 1343 9 is_stmt 0 discriminator 6 view .LVU1297
	movs	r4, #0
	b	.L175
.LVL317:
.L179:
.LBB770:
.LBB767:
	.loc 1 1142 3 is_stmt 1 view .LVU1298
	ldr	r1, .L249+4
	b	.L247
.LVL318:
.L207:
	.loc 1 1142 3 is_stmt 0 view .LVU1299
	mov	r2, r3
	b	.L186
.LVL319:
.L193:
	.loc 1 1230 3 is_stmt 1 view .LVU1300
	.loc 1 1230 9 is_stmt 0 view .LVU1301
	add	r1, r8, #3
	mov	r0, r8
	bl	bt_id_set_adv_random_addr
.LVL320:
	.loc 1 1231 3 is_stmt 1 view .LVU1302
	.loc 1 1231 6 is_stmt 0 view .LVU1303
	mov	r4, r0
	cmp	r0, #0
	beq	.L196
	b	.L175
.LVL321:
.L244:
	.loc 1 1231 6 view .LVU1304
.LBE767:
.LBE770:
	.loc 1 1298 3 is_stmt 1 view .LVU1305
	.loc 1 1298 24 is_stmt 0 view .LVU1306
	ldr	r3, [r5, #4]
	.loc 1 1298 6 view .LVU1307
	lsls	r1, r3, #27
	bmi	.L194
	.loc 1 1299 4 is_stmt 1 view .LVU1308
	.loc 1 1299 24 is_stmt 0 view .LVU1309
	movs	r3, #128
	strh	r3, [sp, #8]	@ movhi
	.loc 1 1301 4 is_stmt 1 view .LVU1310
.LVL322:
.LBB771:
.LBI771:
	.loc 7 217 20 view .LVU1311
.LBB772:
	.loc 7 219 2 view .LVU1312
	.loc 7 221 2 view .LVU1313
.LBB773:
.LBI773:
	.loc 2 279 28 view .LVU1314
.LBB774:
	.loc 2 281 2 view .LVU1315
	.loc 2 281 9 is_stmt 0 view .LVU1316
	dmb	ish
.L245:
	.loc 2 281 9 view .LVU1317
	ldrex	r3, [r7]
	orr	r3, r3, #64
	strex	r2, r3, [r7]
	cmp	r2, #0
	bne	.L245
	dmb	ish
	b	.L194
.LVL323:
.L197:
	.loc 2 281 9 view .LVU1318
.LBE774:
.LBE773:
.LBE772:
.LBE771:
	.loc 1 1318 2 is_stmt 1 view .LVU1319
	.loc 1 1318 8 is_stmt 0 view .LVU1320
	add	r2, sp, #8
	movs	r1, #1
	mov	r0, r8
	bl	bt_le_adv_set_enable_ext
.LVL324:
	.loc 1 1319 2 is_stmt 1 view .LVU1321
	.loc 1 1319 5 is_stmt 0 view .LVU1322
	mov	r4, r0
	cbz	r0, .L199
	.loc 1 1320 3 is_stmt 1 view .LVU1323
.LBB775:
	.loc 1 1320 8 view .LVU1324
	.loc 1 1320 57 view .LVU1325
	.loc 1 1320 14 view .LVU1326
	.loc 1 1320 2 view .LVU1327
.LVL325:
	.loc 1 1320 41 view .LVU1328
	.loc 1 1320 176 view .LVU1329
	.loc 1 1320 187 view .LVU1330
	.loc 1 1320 275 view .LVU1331
	.loc 1 1320 3 view .LVU1332
	.loc 1 1320 3 view .LVU1333
.LBB776:
	.loc 1 1320 8 view .LVU1334
	.loc 1 1320 2 view .LVU1335
.LBE776:
.LBE775:
	.loc 1 1320 3 view .LVU1336
	.loc 1 1320 12 view .LVU1337
	.loc 1 1320 107 view .LVU1338
	.loc 1 1320 3 view .LVU1339
.LBB793:
.LBB789:
	.loc 1 1320 12 view .LVU1340
	.loc 1 1320 102 view .LVU1341
	.loc 1 1320 104 view .LVU1342
.LBB777:
	.loc 1 1320 109 view .LVU1343
	.loc 1 1320 120 view .LVU1344
	.loc 1 1320 209 view .LVU1345
	.loc 1 1320 26 view .LVU1346
.LBE777:
.LBE789:
.LBE793:
	.loc 1 1320 3 view .LVU1347
	.loc 1 1320 368 view .LVU1348
	.loc 1 1320 75 view .LVU1349
	.loc 1 1320 2 view .LVU1350
	.loc 1 1320 2 view .LVU1351
	.loc 1 1320 2 view .LVU1352
	.loc 1 1320 38 view .LVU1353
	.loc 1 1320 4 view .LVU1354
	.loc 1 1320 30 view .LVU1355
	.loc 1 1320 56 view .LVU1356
	.loc 1 1320 79 view .LVU1357
	.loc 1 1320 141 view .LVU1358
	.loc 1 1320 198 view .LVU1359
	.loc 1 1320 263 view .LVU1360
	.loc 1 1320 288 view .LVU1361
	.loc 1 1320 289 view .LVU1362
	.loc 1 1320 291 view .LVU1363
	.loc 1 1320 321 view .LVU1364
	.loc 1 1320 351 view .LVU1365
	.loc 1 1320 383 view .LVU1366
	.loc 1 1320 415 view .LVU1367
	.loc 1 1320 447 view .LVU1368
	.loc 1 1320 644 view .LVU1369
	.loc 1 1320 668 view .LVU1370
	.loc 1 1320 669 view .LVU1371
	.loc 1 1320 671 view .LVU1372
	.loc 1 1320 700 view .LVU1373
	.loc 1 1320 729 view .LVU1374
	.loc 1 1320 760 view .LVU1375
	.loc 1 1320 791 view .LVU1376
	.loc 1 1320 822 view .LVU1377
	.loc 1 1320 1029 view .LVU1378
	.loc 1 1320 4 view .LVU1379
	.loc 1 1320 22 view .LVU1380
	.loc 1 1320 42 view .LVU1381
	.loc 1 1320 4 view .LVU1382
	.loc 1 1320 42 view .LVU1383
	.loc 1 1320 13 view .LVU1384
	.loc 1 1320 13 view .LVU1385
	.loc 1 1320 61 view .LVU1386
	.loc 1 1320 92 view .LVU1387
	.loc 1 1320 126 view .LVU1388
	.loc 1 1320 131 view .LVU1389
	.loc 1 1320 381 view .LVU1390
	.loc 1 1320 1434 view .LVU1391
	.loc 1 1320 1499 view .LVU1392
	.loc 1 1320 1523 view .LVU1393
	.loc 1 1320 1577 view .LVU1394
	.loc 1 1320 1588 view .LVU1395
	.loc 1 1320 1700 view .LVU1396
	.loc 1 1320 1716 view .LVU1397
	.loc 1 1320 1756 view .LVU1398
	.loc 1 1320 1781 view .LVU1399
	.loc 1 1320 3070 view .LVU1400
	.loc 1 1320 3111 view .LVU1401
	.loc 1 1320 7 view .LVU1402
	.loc 1 1320 30 view .LVU1403
	.loc 1 1320 129 view .LVU1404
	.loc 1 1320 5 view .LVU1405
	.loc 1 1320 28 view .LVU1406
	.loc 1 1320 52 view .LVU1407
	.loc 1 1320 80 view .LVU1408
	.loc 1 1320 256 view .LVU1409
	.loc 1 1320 16 view .LVU1410
.LBB794:
.LBB790:
.LBB786:
	.loc 1 1320 29 view .LVU1411
	.loc 1 1320 3 view .LVU1412
	.loc 1 1320 3 view .LVU1413
	.loc 1 1320 70 view .LVU1414
	.loc 1 1320 74 view .LVU1415
	.loc 1 1320 484 view .LVU1416
	.loc 1 1320 5 view .LVU1417
	.loc 1 1320 7 view .LVU1418
	.loc 1 1320 12 view .LVU1419
	.loc 1 1320 10 view .LVU1420
	.loc 1 1320 5 view .LVU1421
	.loc 1 1320 23 view .LVU1422
.LBB778:
	.loc 1 1320 3 view .LVU1423
	.loc 1 1320 368 view .LVU1424
	.loc 1 1320 75 view .LVU1425
.LVL326:
	.loc 1 1320 2 view .LVU1426
	.loc 1 1320 2 view .LVU1427
	.loc 1 1320 2 view .LVU1428
	.loc 1 1320 38 view .LVU1429
	.loc 1 1320 67 view .LVU1430
	.loc 1 1320 93 view .LVU1431
	.loc 1 1320 119 view .LVU1432
	.loc 1 1320 142 view .LVU1433
	.loc 1 1320 204 view .LVU1434
	.loc 1 1320 261 view .LVU1435
	.loc 1 1320 326 view .LVU1436
	.loc 1 1320 351 view .LVU1437
	.loc 1 1320 352 view .LVU1438
	.loc 1 1320 354 view .LVU1439
	.loc 1 1320 384 view .LVU1440
	.loc 1 1320 414 view .LVU1441
	.loc 1 1320 446 view .LVU1442
	.loc 1 1320 478 view .LVU1443
	.loc 1 1320 510 view .LVU1444
	.loc 1 1320 707 view .LVU1445
	.loc 1 1320 731 view .LVU1446
	.loc 1 1320 732 view .LVU1447
	.loc 1 1320 734 view .LVU1448
	.loc 1 1320 763 view .LVU1449
	.loc 1 1320 792 view .LVU1450
	.loc 1 1320 823 view .LVU1451
	.loc 1 1320 854 view .LVU1452
	.loc 1 1320 885 view .LVU1453
	.loc 1 1320 1092 view .LVU1454
	.loc 1 1320 4 view .LVU1455
	.loc 1 1320 22 view .LVU1456
	.loc 1 1320 42 view .LVU1457
	.loc 1 1320 4 view .LVU1458
	.loc 1 1320 42 view .LVU1459
	.loc 1 1320 13 view .LVU1460
	.loc 1 1320 13 view .LVU1461
	.loc 1 1320 61 view .LVU1462
	.loc 1 1320 92 view .LVU1463
	.loc 1 1320 126 view .LVU1464
.LBB779:
	.loc 1 1320 131 view .LVU1465
	.loc 1 1320 381 view .LVU1466
	.loc 1 1320 1434 view .LVU1467
	.loc 1 1320 1499 view .LVU1468
.LBE779:
.LBE778:
.LBE786:
.LBE790:
.LBE794:
	.loc 1 1320 1523 view .LVU1469
	.loc 1 1320 1577 view .LVU1470
	.loc 1 1320 1588 view .LVU1471
	.loc 1 1320 1700 view .LVU1472
.LBB795:
.LBB791:
.LBB787:
.LBB782:
.LBB780:
	.loc 1 1320 1716 view .LVU1473
	.loc 1 1320 1756 view .LVU1474
	.loc 1 1320 1781 view .LVU1475
	.loc 1 1320 3070 view .LVU1476
	.loc 1 1320 3108 view .LVU1477
	.loc 1 1320 3113 view .LVU1478
	.loc 1 1320 3707 view .LVU1479
	.loc 1 1320 0 is_stmt 0 view .LVU1480
	ldr	r3, .L249+8
	str	r3, [sp, #36]
	.loc 1 1320 3111 is_stmt 1 view .LVU1481
	.loc 1 1320 7 view .LVU1482
.LVL327:
	.loc 1 1320 30 view .LVU1483
	.loc 1 1320 30 is_stmt 0 view .LVU1484
.LBE780:
	.loc 1 1320 129 is_stmt 1 view .LVU1485
	.loc 1 1320 5 view .LVU1486
	.loc 1 1320 28 view .LVU1487
	.loc 1 1320 52 view .LVU1488
	.loc 1 1320 80 view .LVU1489
.LBE782:
.LBE787:
.LBE791:
.LBE795:
	.loc 1 1320 6 view .LVU1490
	.loc 1 1320 45 view .LVU1491
	.loc 1 1320 50 view .LVU1492
	.loc 1 1320 80 view .LVU1493
	.loc 1 1320 147 view .LVU1494
	.loc 1 1320 152 view .LVU1495
	.loc 1 1320 182 view .LVU1496
.LBB796:
.LBB792:
.LBB788:
.LBB783:
	.loc 1 1320 256 view .LVU1497
	.loc 1 1320 16 view .LVU1498
.LBB781:
	.loc 1 1320 6 view .LVU1499
	.loc 1 1320 164 view .LVU1500
	.loc 1 1320 166 view .LVU1501
	.loc 1 1320 176 is_stmt 0 view .LVU1502
	movs	r3, #2
	str	r3, [sp, #32]
.LVL328:
	.loc 1 1320 176 view .LVU1503
.LBE781:
.LBE783:
	.loc 1 1320 26 is_stmt 1 view .LVU1504
	.loc 1 1320 7 view .LVU1505
	.loc 1 1320 147 view .LVU1506
	.loc 1 1320 149 view .LVU1507
.LBB784:
.LBI784:
	.loc 6 26 20 view .LVU1508
.LBB785:
	.loc 6 38 2 view .LVU1509
	.loc 6 38 7 view .LVU1510
	.loc 6 38 5 view .LVU1511
	.loc 6 39 2 view .LVU1512
	ldr	r0, .L249+12
.LVL329:
	.loc 6 39 2 is_stmt 0 view .LVU1513
	movs	r3, #0
	add	r2, sp, #32
.LVL330:
	.loc 6 39 2 view .LVU1514
	mov	r1, #4160
	bl	z_impl_z_log_msg_static_create
.LVL331:
	.loc 6 39 2 view .LVU1515
.LBE785:
.LBE784:
.LBE788:
	.loc 1 1320 107 is_stmt 1 view .LVU1516
	.loc 1 1320 5 view .LVU1517
.LVL332:
	.loc 1 1320 42 view .LVU1518
.LBE792:
	.loc 1 1320 6 view .LVU1519
	.loc 1 1320 278 view .LVU1520
	.loc 1 1320 5 view .LVU1521
	.loc 1 1320 18 view .LVU1522
.LBE796:
	.loc 1 1320 6 view .LVU1523
	.loc 1 1321 3 view .LVU1524
	.loc 1 1321 9 is_stmt 0 view .LVU1525
	ldr	r5, [sp, #12]
.LVL333:
	.loc 1 1321 6 view .LVU1526
	cmp	r5, #0
	beq	.L175
	.loc 1 1322 4 is_stmt 1 view .LVU1527
	mov	r0, r5
	movs	r1, #0
	bl	bt_conn_set_state
.LVL334:
	.loc 1 1323 4 view .LVU1528
	mov	r0, r5
	bl	bt_conn_unref
.LVL335:
	b	.L175
.LVL336:
.L199:
	.loc 1 1329 2 view .LVU1529
	.loc 1 1329 8 is_stmt 0 view .LVU1530
	ldr	r0, [sp, #12]
.LVL337:
	.loc 1 1329 5 view .LVU1531
	cbz	r0, .L201
	.loc 1 1335 3 is_stmt 1 view .LVU1532
	bl	bt_conn_unref
.LVL338:
.L201:
	.loc 1 1340 2 view .LVU1533
	.loc 1 1340 57 is_stmt 0 view .LVU1534
	ldr	r3, [sp]
	cmp	r3, #0
	bne	.L198
	b	.L202
.LVL339:
.L203:
	.loc 1 1273 10 view .LVU1535
	mvn	r4, #10
	b	.L175
.L250:
	.align	2
.L249:
	.word	bt_dev+212
	.word	bt_addr_le_any
	.word	.LC1
	.word	log_const_bt_adv
.LVL340:
.L204:
	.loc 1 1277 10 view .LVU1536
	mvn	r4, #21
	b	.L175
.L205:
	.loc 1 1281 10 view .LVU1537
	mvn	r4, #119
	b	.L175
	.cfi_endproc
.LFE609:
	.size	bt_le_adv_start_ext, .-bt_le_adv_start_ext
	.section	.text.bt_le_lim_adv_cancel_timeout,"ax",%progbits
	.align	1
	.global	bt_le_lim_adv_cancel_timeout
	.syntax unified
	.thumb
	.thumb_func
	.type	bt_le_lim_adv_cancel_timeout, %function
bt_le_lim_adv_cancel_timeout:
.LVL341:
.LFB610:
	.loc 1 1349 1 is_stmt 1 view -0
	.cfi_startproc
	@ args = 0, pretend = 0, frame = 0
	@ frame_needed = 0, uses_anonymous_args = 0
	@ link register save eliminated.
	.loc 1 1350 2 view .LVU1539
	.loc 1 1350 9 is_stmt 0 view .LVU1540
	adds	r0, r0, #24
.LVL342:
	.loc 1 1350 9 view .LVU1541
	b	k_work_cancel_delayable
.LVL343:
	.loc 1 1350 9 view .LVU1542
	.cfi_endproc
.LFE610:
	.size	bt_le_lim_adv_cancel_timeout, .-bt_le_lim_adv_cancel_timeout
	.section	.text.bt_le_adv_start,"ax",%progbits
	.align	1
	.global	bt_le_adv_start
	.syntax unified
	.thumb
	.thumb_func
	.type	bt_le_adv_start, %function
bt_le_adv_start:
.LVL344:
.LFB611:
	.loc 1 1356 1 is_stmt 1 view -0
	.cfi_startproc
	@ args = 4, pretend = 0, frame = 0
	@ frame_needed = 0, uses_anonymous_args = 0
	.loc 1 1357 2 view .LVU1544
.LBB801:
.LBI801:
	.loc 1 284 30 view .LVU1545
	.loc 1 294 2 view .LVU1546
	.loc 1 294 2 is_stmt 0 view .LVU1547
.LBE801:
	.loc 1 1358 2 is_stmt 1 view .LVU1548
	.loc 1 1360 2 view .LVU1549
	.loc 1 1364 2 view .LVU1550
	.loc 1 1368 3 view .LVU1551
	.loc 1 1356 1 is_stmt 0 view .LVU1552
	push	{r0, r1, r4, r5, r6, lr}
	.cfi_def_cfa_offset 24
	.cfi_offset 4, -16
	.cfi_offset 5, -12
	.cfi_offset 6, -8
	.cfi_offset 14, -4
	.loc 1 1356 1 view .LVU1553
	mov	r5, r2
	.loc 1 1368 9 view .LVU1554
	ldr	r2, [sp, #24]
.LVL345:
	.loc 1 1356 1 view .LVU1555
	mov	r4, r1
	.loc 1 1368 9 view .LVU1556
	strd	r3, r2, [sp]
	mov	r3, r5
.LVL346:
	.loc 1 1368 9 view .LVU1557
	mov	r2, r1
	mov	r1, r0
.LVL347:
	.loc 1 1368 9 view .LVU1558
	ldr	r0, .L261
.LVL348:
	.loc 1 1368 9 view .LVU1559
	bl	bt_le_adv_start_legacy
.LVL349:
	.loc 1 1368 9 view .LVU1560
	mov	r1, r4
	mov	r6, r0
.LVL350:
	.loc 1 1371 2 is_stmt 1 view .LVU1561
	.loc 1 1375 2 view .LVU1562
.LBB802:
.LBI802:
	.loc 1 767 12 view .LVU1563
.LBB803:
	.loc 1 769 2 view .LVU1564
	.loc 1 771 2 view .LVU1565
	.loc 1 771 9 is_stmt 0 view .LVU1566
	movs	r3, #0
	.loc 1 772 6 view .LVU1567
	movw	r0, #257
.LVL351:
.L253:
	.loc 1 771 16 is_stmt 1 view .LVU1568
	cmp	r5, r3
	bne	.L256
.LVL352:
.L252:
	.loc 1 771 16 is_stmt 0 view .LVU1569
.LBE803:
.LBE802:
	.loc 1 1382 1 view .LVU1570
	mov	r0, r6
	add	sp, sp, #8
	.cfi_remember_state
	.cfi_def_cfa_offset 16
	@ sp needed
	pop	{r4, r5, r6, pc}
.LVL353:
.L256:
	.cfi_restore_state
.LBB805:
.LBB804:
	.loc 1 772 3 is_stmt 1 view .LVU1571
	.loc 1 772 6 is_stmt 0 view .LVU1572
	ldrh	r2, [r1]
	cmp	r2, r0
	bne	.L254
	.loc 1 774 12 view .LVU1573
	ldr	r2, [r1, #4]
	.loc 1 773 41 view .LVU1574
	cbz	r2, .L254
	.loc 1 775 4 is_stmt 1 view .LVU1575
	.loc 1 775 7 is_stmt 0 view .LVU1576
	ldrb	r2, [r2]	@ zero_extendqisi2
	lsls	r2, r2, #31
	bmi	.L255
.L254:
	.loc 1 771 27 is_stmt 1 view .LVU1577
	adds	r3, r3, #1
.LVL354:
	.loc 1 771 27 is_stmt 0 view .LVU1578
	adds	r1, r1, #8
	b	.L253
.L255:
.LVL355:
	.loc 1 771 27 view .LVU1579
.LBE804:
.LBE805:
.LBB806:
	.loc 1 1376 3 is_stmt 1 view .LVU1580
	ldr	r1, .L261+4
	ldr	r0, .L261+8
	bl	k_work_init_delayable
.LVL356:
	.loc 1 1377 3 view .LVU1581
	mov	r2, #983040
	movs	r3, #0
	ldr	r0, .L261+8
	bl	k_work_reschedule
.LVL357:
	b	.L252
.L262:
	.align	2
.L261:
	.word	bt_dev+24
	.word	adv_timeout
	.word	bt_dev+48
.LBE806:
	.cfi_endproc
.LFE611:
	.size	bt_le_adv_start, .-bt_le_adv_start
	.section	.text.bt_le_adv_stop,"ax",%progbits
	.align	1
	.global	bt_le_adv_stop
	.syntax unified
	.thumb
	.thumb_func
	.type	bt_le_adv_stop, %function
bt_le_adv_stop:
.LFB612:
	.loc 1 1385 1 view -0
	.cfi_startproc
	@ args = 0, pretend = 0, frame = 0
	@ frame_needed = 0, uses_anonymous_args = 0
	.loc 1 1386 2 view .LVU1583
.LBB819:
.LBI819:
	.loc 1 308 23 view .LVU1584
	.loc 1 313 2 view .LVU1585
.LVL358:
	.loc 1 313 2 is_stmt 0 view .LVU1586
.LBE819:
	.loc 1 1387 2 is_stmt 1 view .LVU1587
	.loc 1 1389 2 view .LVU1588
	.loc 1 1394 2 view .LVU1589
	.loc 1 1385 1 is_stmt 0 view .LVU1590
	push	{r4, lr}
	.cfi_def_cfa_offset 8
	.cfi_offset 4, -8
	.cfi_offset 14, -4
	.loc 1 1394 8 view .LVU1591
	ldr	r0, .L274
.LVL359:
	.loc 1 1394 8 view .LVU1592
	bl	bt_le_lim_adv_cancel_timeout
.LVL360:
	.loc 1 1399 2 is_stmt 1 view .LVU1593
.LBB820:
.LBI820:
	.loc 7 198 20 view .LVU1594
.LBB821:
	.loc 7 200 2 view .LVU1595
	.loc 7 202 2 view .LVU1596
	.loc 7 202 8 is_stmt 0 view .LVU1597
	ldr	r0, .L274+4
.LVL361:
	.loc 7 202 8 view .LVU1598
	mvn	r1, #16384
	bl	atomic_and
.LVL362:
	.loc 7 202 8 view .LVU1599
.LBE821:
.LBE820:
	.loc 1 1401 2 is_stmt 1 view .LVU1600
.LBB822:
.LBI822:
	.loc 7 131 19 view .LVU1601
.LBB823:
	.loc 7 133 2 view .LVU1602
	.loc 7 133 21 is_stmt 0 view .LVU1603
	ldr	r0, .L274+4
.LVL363:
	.loc 7 133 21 view .LVU1604
	bl	atomic_get
.LVL364:
	.loc 7 135 2 is_stmt 1 view .LVU1605
	.loc 7 133 21 is_stmt 0 view .LVU1606
	mov	r3, r0
.LBE823:
.LBE822:
	.loc 1 1401 5 view .LVU1607
	lsls	r2, r3, #24
	ubfx	r0, r0, #7, #1
	bpl	.L264
	.loc 1 1410 2 is_stmt 1 view .LVU1608
.LVL365:
.LBB824:
.LBI824:
	.loc 7 131 19 view .LVU1609
.LBB825:
	.loc 7 133 2 view .LVU1610
	.loc 7 133 21 is_stmt 0 view .LVU1611
	ldr	r0, .L274+4
.LVL366:
	.loc 7 133 21 view .LVU1612
	bl	atomic_get
.LVL367:
	.loc 7 135 2 is_stmt 1 view .LVU1613
	.loc 7 135 2 is_stmt 0 view .LVU1614
.LBE825:
.LBE824:
	.loc 1 1410 5 view .LVU1615
	lsls	r3, r0, #21
	bpl	.L266
	.loc 1 1412 3 is_stmt 1 view .LVU1616
.LBB826:
.LBI826:
	.loc 1 943 13 view .LVU1617
.LVL368:
.LBB827:
	.loc 1 945 2 view .LVU1618
	.loc 1 947 2 view .LVU1619
	.loc 1 947 7 is_stmt 0 view .LVU1620
	ldr	r0, .L274
.LVL369:
	.loc 1 947 7 view .LVU1621
	bl	adv_is_directed
.LVL370:
	.loc 1 948 37 view .LVU1622
	ldr	r1, .L274+8
	.loc 1 947 7 view .LVU1623
	mov	r3, r0
	.loc 1 948 37 view .LVU1624
	ldrb	r0, [r1, #24]	@ zero_extendqisi2
	.loc 1 947 5 view .LVU1625
	cbnz	r3, .L267
	.loc 1 948 3 is_stmt 1 view .LVU1626
	.loc 1 948 10 is_stmt 0 view .LVU1627
	ldr	r1, .L274+12
	movs	r2, #4
.L273:
	.loc 1 951 10 view .LVU1628
	bl	bt_conn_lookup_state_le
.LVL371:
	mov	r4, r0
.LVL372:
	.loc 1 955 2 is_stmt 1 view .LVU1629
	.loc 1 955 5 is_stmt 0 view .LVU1630
	cbz	r0, .L266
	.loc 1 956 3 is_stmt 1 view .LVU1631
	.loc 1 956 13 is_stmt 0 view .LVU1632
	movs	r1, #0
	strb	r1, [r0, #12]
	.loc 1 957 3 is_stmt 1 view .LVU1633
	bl	bt_conn_set_state
.LVL373:
	.loc 1 958 3 view .LVU1634
	mov	r0, r4
	bl	bt_conn_unref
.LVL374:
.L266:
	.loc 1 958 3 is_stmt 0 view .LVU1635
.LBE827:
.LBE826:
	.loc 1 1415 2 is_stmt 1 view .LVU1636
	.loc 1 1422 3 view .LVU1637
	.loc 1 1445 1 is_stmt 0 view .LVU1638
	pop	{r4, lr}
	.cfi_remember_state
	.cfi_restore 14
	.cfi_restore 4
	.cfi_def_cfa_offset 0
	.loc 1 1422 9 view .LVU1639
	ldr	r0, .L274
.LVL375:
	.loc 1 1422 9 view .LVU1640
	movs	r1, #0
	b	bt_le_adv_set_enable_legacy
.LVL376:
.L267:
	.cfi_restore_state
.LBB829:
.LBB828:
	.loc 1 951 3 is_stmt 1 view .LVU1641
	.loc 1 951 10 is_stmt 0 view .LVU1642
	movs	r2, #5
	adds	r1, r1, #33
	b	.L273
.LVL377:
.L264:
	.loc 1 951 10 view .LVU1643
.LBE828:
.LBE829:
	.loc 1 1445 1 view .LVU1644
	pop	{r4, pc}
.L275:
	.align	2
.L274:
	.word	bt_dev+24
	.word	bt_dev+40
	.word	bt_dev
	.word	bt_addr_le_none
	.cfi_endproc
.LFE612:
	.size	bt_le_adv_stop, .-bt_le_adv_stop
	.section	.rodata.adv_timeout.str1.1,"aMS",%progbits,1
.LC2:
	.ascii	"Failed to stop advertising: %d\000"
	.section	.text.adv_timeout,"ax",%progbits
	.align	1
	.syntax unified
	.thumb
	.thumb_func
	.type	adv_timeout, %function
adv_timeout:
.LVL378:
.LFB615:
	.loc 1 1753 1 is_stmt 1 view -0
	.cfi_startproc
	@ args = 0, pretend = 0, frame = 0
	@ frame_needed = 1, uses_anonymous_args = 0
	.loc 1 1754 2 view .LVU1646
	.loc 1 1755 2 view .LVU1647
	.loc 1 1756 2 view .LVU1648
	.loc 1 1758 2 view .LVU1649
	.loc 1 1759 2 view .LVU1650
	.loc 1 1768 2 view .LVU1651
	.loc 1 1753 1 is_stmt 0 view .LVU1652
	push	{r3, r4, r7, lr}
	.cfi_def_cfa_offset 16
	.cfi_offset 3, -16
	.cfi_offset 4, -12
	.cfi_offset 7, -8
	.cfi_offset 14, -4
	add	r7, sp, #0
	.cfi_def_cfa_register 7
	.loc 1 1768 8 view .LVU1653
	bl	bt_le_adv_stop
.LVL379:
	.loc 1 1770 2 is_stmt 1 view .LVU1654
	.loc 1 1770 5 is_stmt 0 view .LVU1655
	cbz	r0, .L276
	.loc 1 1771 3 is_stmt 1 view .LVU1656
.LBB840:
	.loc 1 1771 8 view .LVU1657
	.loc 1 1771 57 view .LVU1658
	.loc 1 1771 14 view .LVU1659
	.loc 1 1771 2 view .LVU1660
.LVL380:
	.loc 1 1771 41 view .LVU1661
	.loc 1 1771 176 view .LVU1662
	.loc 1 1771 187 view .LVU1663
	.loc 1 1771 275 view .LVU1664
.LBB841:
	.loc 1 1771 3 view .LVU1665
	.loc 1 1771 5 view .LVU1666
	.loc 1 1771 3 view .LVU1667
.LBB842:
	.loc 1 1771 8 view .LVU1668
	.loc 1 1771 2 view .LVU1669
.LBE842:
.LBE841:
.LBE840:
	.loc 1 1771 3 view .LVU1670
	.loc 1 1771 12 view .LVU1671
	.loc 1 1771 107 view .LVU1672
	.loc 1 1771 3 view .LVU1673
.LBB859:
.LBB856:
.LBB853:
	.loc 1 1771 12 view .LVU1674
	.loc 1 1771 102 view .LVU1675
	.loc 1 1771 104 view .LVU1676
.LBB843:
	.loc 1 1771 107 is_stmt 0 view .LVU1677
	mov	r4, sp
	.loc 1 1771 109 is_stmt 1 view .LVU1678
	.loc 1 1771 120 view .LVU1679
.LVL381:
	.loc 1 1771 209 view .LVU1680
	.loc 1 1771 26 view .LVU1681
.LBE843:
.LBE853:
.LBE856:
.LBE859:
	.loc 1 1771 3 view .LVU1682
	.loc 1 1771 368 view .LVU1683
	.loc 1 1771 75 view .LVU1684
	.loc 1 1771 2 view .LVU1685
	.loc 1 1771 2 view .LVU1686
	.loc 1 1771 2 view .LVU1687
	.loc 1 1771 38 view .LVU1688
	.loc 1 1771 4 view .LVU1689
	.loc 1 1771 30 view .LVU1690
	.loc 1 1771 56 view .LVU1691
	.loc 1 1771 523 view .LVU1692
	.loc 1 1771 585 view .LVU1693
	.loc 1 1771 1106 view .LVU1694
	.loc 1 1771 1171 view .LVU1695
	.loc 1 1771 1196 view .LVU1696
	.loc 1 1771 1197 view .LVU1697
	.loc 1 1771 1199 view .LVU1698
	.loc 1 1771 1229 view .LVU1699
	.loc 1 1771 1259 view .LVU1700
	.loc 1 1771 1291 view .LVU1701
	.loc 1 1771 1323 view .LVU1702
	.loc 1 1771 1355 view .LVU1703
	.loc 1 1771 1552 view .LVU1704
	.loc 1 1771 1576 view .LVU1705
	.loc 1 1771 1577 view .LVU1706
	.loc 1 1771 1579 view .LVU1707
	.loc 1 1771 1608 view .LVU1708
	.loc 1 1771 1637 view .LVU1709
	.loc 1 1771 1668 view .LVU1710
	.loc 1 1771 1699 view .LVU1711
	.loc 1 1771 1730 view .LVU1712
	.loc 1 1771 1937 view .LVU1713
	.loc 1 1771 4 view .LVU1714
	.loc 1 1771 22 view .LVU1715
	.loc 1 1771 42 view .LVU1716
	.loc 1 1771 4 view .LVU1717
	.loc 1 1771 42 view .LVU1718
	.loc 1 1771 13 view .LVU1719
	.loc 1 1771 13 view .LVU1720
	.loc 1 1771 61 view .LVU1721
	.loc 1 1771 92 view .LVU1722
	.loc 1 1771 126 view .LVU1723
	.loc 1 1771 131 view .LVU1724
	.loc 1 1771 385 view .LVU1725
	.loc 1 1771 1454 view .LVU1726
	.loc 1 1771 1519 view .LVU1727
	.loc 1 1771 1543 view .LVU1728
	.loc 1 1771 1601 view .LVU1729
	.loc 1 1771 1612 view .LVU1730
	.loc 1 1771 1728 view .LVU1731
	.loc 1 1771 1744 view .LVU1732
	.loc 1 1771 1784 view .LVU1733
	.loc 1 1771 1809 view .LVU1734
	.loc 1 1771 3106 view .LVU1735
	.loc 1 1771 3147 view .LVU1736
	.loc 1 1771 7 view .LVU1737
	.loc 1 1771 30 view .LVU1738
	.loc 1 1771 129 view .LVU1739
	.loc 1 1771 6 view .LVU1740
	.loc 1 1771 11 view .LVU1741
	.loc 1 1771 236 view .LVU1742
	.loc 1 1771 1189 view .LVU1743
	.loc 1 1771 1254 view .LVU1744
	.loc 1 1771 1278 view .LVU1745
	.loc 1 1771 1307 view .LVU1746
	.loc 1 1771 1318 view .LVU1747
	.loc 1 1771 1405 view .LVU1748
	.loc 1 1771 1421 view .LVU1749
	.loc 1 1771 1461 view .LVU1750
	.loc 1 1771 2725 view .LVU1751
	.loc 1 1771 2766 view .LVU1752
	.loc 1 1771 7 view .LVU1753
	.loc 1 1771 30 view .LVU1754
	.loc 1 1771 9 view .LVU1755
	.loc 1 1771 5 view .LVU1756
	.loc 1 1771 28 view .LVU1757
	.loc 1 1771 52 view .LVU1758
	.loc 1 1771 80 view .LVU1759
	.loc 1 1771 256 view .LVU1760
	.loc 1 1771 16 view .LVU1761
.LBB860:
.LBB857:
.LBB854:
.LBB851:
	.loc 1 1771 29 view .LVU1762
	.loc 1 1771 3 view .LVU1763
	.loc 1 1771 3 view .LVU1764
	.loc 1 1771 70 view .LVU1765
	.loc 1 1771 82 is_stmt 0 view .LVU1766
	sub	sp, sp, #32
	mov	r2, sp
.LVL382:
	.loc 1 1771 74 is_stmt 1 view .LVU1767
	.loc 1 1771 484 view .LVU1768
	.loc 1 1771 5 view .LVU1769
	.loc 1 1771 7 view .LVU1770
	.loc 1 1771 12 view .LVU1771
	.loc 1 1771 10 view .LVU1772
	.loc 1 1771 5 view .LVU1773
	.loc 1 1771 23 view .LVU1774
.LBB844:
	.loc 1 1771 3 view .LVU1775
	.loc 1 1771 368 view .LVU1776
	.loc 1 1771 75 view .LVU1777
.LVL383:
	.loc 1 1771 2 view .LVU1778
	.loc 1 1771 2 view .LVU1779
	.loc 1 1771 2 view .LVU1780
	.loc 1 1771 38 view .LVU1781
	.loc 1 1771 67 view .LVU1782
	.loc 1 1771 93 view .LVU1783
	.loc 1 1771 119 view .LVU1784
	.loc 1 1771 586 view .LVU1785
	.loc 1 1771 648 view .LVU1786
	.loc 1 1771 1169 view .LVU1787
	.loc 1 1771 1234 view .LVU1788
	.loc 1 1771 1259 view .LVU1789
	.loc 1 1771 1260 view .LVU1790
	.loc 1 1771 1262 view .LVU1791
	.loc 1 1771 1292 view .LVU1792
	.loc 1 1771 1322 view .LVU1793
	.loc 1 1771 1354 view .LVU1794
	.loc 1 1771 1386 view .LVU1795
	.loc 1 1771 1418 view .LVU1796
	.loc 1 1771 1615 view .LVU1797
	.loc 1 1771 1639 view .LVU1798
	.loc 1 1771 1640 view .LVU1799
	.loc 1 1771 1642 view .LVU1800
	.loc 1 1771 1671 view .LVU1801
	.loc 1 1771 1700 view .LVU1802
	.loc 1 1771 1731 view .LVU1803
	.loc 1 1771 1762 view .LVU1804
	.loc 1 1771 1793 view .LVU1805
	.loc 1 1771 2000 view .LVU1806
.LBB845:
	.loc 1 1771 3144 view .LVU1807
	.loc 1 1771 3149 view .LVU1808
	.loc 1 1771 3767 view .LVU1809
	.loc 1 1771 0 is_stmt 0 view .LVU1810
	ldr	r3, .L281
.LBE845:
.LBB846:
	.loc 1 1771 3811 view .LVU1811
	strd	r3, r0, [r2, #20]
	.loc 1 1771 2766 is_stmt 1 view .LVU1812
	.loc 1 1771 7 view .LVU1813
.LVL384:
	.loc 1 1771 30 view .LVU1814
	.loc 1 1771 30 is_stmt 0 view .LVU1815
.LBE846:
	.loc 1 1771 9 is_stmt 1 view .LVU1816
	.loc 1 1771 5 view .LVU1817
	.loc 1 1771 28 view .LVU1818
	.loc 1 1771 52 view .LVU1819
	.loc 1 1771 80 view .LVU1820
.LBE844:
.LBE851:
.LBE854:
.LBE857:
.LBE860:
	.loc 1 1771 6 view .LVU1821
	.loc 1 1771 45 view .LVU1822
	.loc 1 1771 50 view .LVU1823
	.loc 1 1771 80 view .LVU1824
	.loc 1 1771 147 view .LVU1825
	.loc 1 1771 152 view .LVU1826
	.loc 1 1771 182 view .LVU1827
.LBB861:
.LBB858:
.LBB855:
.LBB852:
.LBB848:
	.loc 1 1771 256 view .LVU1828
	.loc 1 1771 16 view .LVU1829
.LBB847:
	.loc 1 1771 6 view .LVU1830
	.loc 1 1771 164 view .LVU1831
	.loc 1 1771 166 view .LVU1832
	.loc 1 1771 176 is_stmt 0 view .LVU1833
	movs	r3, #3
	str	r3, [r2, #16]!
.LVL385:
	.loc 1 1771 176 view .LVU1834
.LBE847:
.LBE848:
	.loc 1 1771 26 is_stmt 1 view .LVU1835
	.loc 1 1771 7 view .LVU1836
	.loc 1 1771 147 view .LVU1837
	.loc 1 1771 149 view .LVU1838
.LBB849:
.LBI849:
	.loc 6 26 20 view .LVU1839
.LBB850:
	.loc 6 38 2 view .LVU1840
	.loc 6 38 7 view .LVU1841
	.loc 6 38 5 view .LVU1842
	.loc 6 39 2 view .LVU1843
	ldr	r0, .L281+4
.LVL386:
	.loc 6 39 2 is_stmt 0 view .LVU1844
	movs	r3, #0
	mov	r1, #6272
	bl	z_impl_z_log_msg_static_create
.LVL387:
	.loc 6 39 2 view .LVU1845
.LBE850:
.LBE849:
	mov	sp, r4
.LVL388:
	.loc 6 39 2 view .LVU1846
.LBE852:
	.loc 1 1771 107 is_stmt 1 view .LVU1847
	.loc 1 1771 5 view .LVU1848
	.loc 1 1771 42 view .LVU1849
.LBE855:
	.loc 1 1771 6 view .LVU1850
.LBE858:
	.loc 1 1771 278 view .LVU1851
	.loc 1 1771 5 view .LVU1852
	.loc 1 1771 18 view .LVU1853
.LBE861:
	.loc 1 1771 6 view .LVU1854
.L276:
	.loc 1 1773 1 is_stmt 0 view .LVU1855
	mov	sp, r7
	.cfi_def_cfa_register 13
	@ sp needed
	pop	{r3, r4, r7, pc}
.L282:
	.align	2
.L281:
	.word	.LC2
	.word	log_const_bt_adv
	.cfi_endproc
.LFE615:
	.size	adv_timeout, .-adv_timeout
	.section	.rodata.bt_le_adv_resume.str1.1,"aMS",%progbits,1
.LC3:
	.ascii	"Controller cannot resume connectable advertising (%"
	.ascii	"d)\000"
	.section	.text.bt_le_adv_resume,"ax",%progbits
	.align	1
	.global	bt_le_adv_resume
	.syntax unified
	.thumb
	.thumb_func
	.type	bt_le_adv_resume, %function
bt_le_adv_resume:
.LFB614:
	.loc 1 1468 1 is_stmt 1 view -0
	.cfi_startproc
	@ args = 0, pretend = 0, frame = 8
	@ frame_needed = 1, uses_anonymous_args = 0
	.loc 1 1469 2 view .LVU1857
.LBB912:
.LBI912:
	.loc 1 308 23 view .LVU1858
	.loc 1 313 2 view .LVU1859
.LVL389:
	.loc 1 313 2 is_stmt 0 view .LVU1860
.LBE912:
	.loc 1 1470 2 is_stmt 1 view .LVU1861
	.loc 1 1471 1 view .LVU1862
	.loc 1 1472 2 view .LVU1863
	.loc 1 1474 2 view .LVU1864
	.loc 1 1479 2 view .LVU1865
.LBB913:
.LBI913:
	.loc 7 131 19 view .LVU1866
.LBB914:
	.loc 7 133 2 view .LVU1867
.LBE914:
.LBE913:
	.loc 1 1468 1 is_stmt 0 view .LVU1868
	push	{r4, r5, r6, r7, lr}
	.cfi_def_cfa_offset 20
	.cfi_offset 4, -20
	.cfi_offset 5, -16
	.cfi_offset 6, -12
	.cfi_offset 7, -8
	.cfi_offset 14, -4
	sub	sp, sp, #12
	.cfi_def_cfa_offset 32
.LBB917:
.LBB915:
	.loc 7 133 21 view .LVU1869
	ldr	r0, .L306
.LVL390:
	.loc 7 133 21 view .LVU1870
	ldr	r4, .L306
.LBE915:
.LBE917:
	.loc 1 1468 1 view .LVU1871
	add	r7, sp, #0
	.cfi_def_cfa_register 7
.LBB918:
.LBB916:
	.loc 7 133 21 view .LVU1872
	bl	atomic_get
.LVL391:
	.loc 7 135 2 is_stmt 1 view .LVU1873
	.loc 7 135 2 is_stmt 0 view .LVU1874
.LBE916:
.LBE918:
	.loc 1 1479 5 view .LVU1875
	tst	r0, #16384
	beq	.L283
.LVL392:
.LBB919:
.LBI919:
	.loc 7 131 19 is_stmt 1 view .LVU1876
.LBB920:
	.loc 7 133 2 view .LVU1877
	.loc 7 133 21 is_stmt 0 view .LVU1878
	mov	r0, r4
	bl	atomic_get
.LVL393:
	.loc 7 135 2 is_stmt 1 view .LVU1879
	.loc 7 135 2 is_stmt 0 view .LVU1880
.LBE920:
.LBE919:
	.loc 1 1479 6 view .LVU1881
	lsls	r3, r0, #24
	bmi	.L283
	.loc 1 1484 2 is_stmt 1 view .LVU1882
.LVL394:
.LBB921:
.LBI921:
	.loc 7 131 19 view .LVU1883
.LBB922:
	.loc 7 133 2 view .LVU1884
	.loc 7 133 21 is_stmt 0 view .LVU1885
	mov	r0, r4
	bl	atomic_get
.LVL395:
	.loc 7 135 2 is_stmt 1 view .LVU1886
	.loc 7 135 2 is_stmt 0 view .LVU1887
.LBE922:
.LBE921:
	.loc 1 1484 5 view .LVU1888
	lsls	r6, r0, #21
	bpl	.L283
	.loc 1 1488 2 is_stmt 1 view .LVU1889
	.loc 1 1488 8 is_stmt 0 view .LVU1890
	adds	r1, r7, #4
	sub	r0, r4, #16
	bl	le_adv_start_add_conn
.LVL396:
	.loc 1 1489 2 is_stmt 1 view .LVU1891
	.loc 1 1489 5 is_stmt 0 view .LVU1892
	cbnz	r0, .L283
	.loc 1 1494 2 is_stmt 1 view .LVU1893
.LBB923:
	.loc 1 1494 7 view .LVU1894
.LBE923:
	.loc 1 1494 5 view .LVU1895
	.loc 1 1496 2 view .LVU1896
.LBB924:
	.loc 1 1500 3 view .LVU1897
	.loc 1 1501 2 view .LVU1898
	.loc 1 1501 17 is_stmt 0 view .LVU1899
	sub	r0, r4, #16
.LVL397:
	.loc 1 1501 17 view .LVU1900
	bl	adv_is_directed
.LVL398:
	mov	r2, r0
.LVL399:
	.loc 1 1502 3 is_stmt 1 view .LVU1901
.LBB925:
.LBI925:
	.loc 1 1448 17 view .LVU1902
.LBB926:
	.loc 1 1450 2 view .LVU1903
	.loc 1 1452 2 view .LVU1904
.LBB927:
.LBI927:
	.loc 7 131 19 view .LVU1905
.LBB928:
	.loc 7 133 2 view .LVU1906
	.loc 7 133 21 is_stmt 0 view .LVU1907
	mov	r0, r4
	bl	atomic_get
.LVL400:
	.loc 7 135 2 is_stmt 1 view .LVU1908
	.loc 7 135 65 is_stmt 0 view .LVU1909
	ubfx	r1, r0, #14, #1
.LBE928:
.LBE927:
.LBB929:
.LBB930:
	.loc 7 133 21 view .LVU1910
	mov	r0, r4
	bl	atomic_get
.LVL401:
.LBE930:
.LBE929:
	.loc 1 1452 5 view .LVU1911
	eor	r1, r1, #1
	.loc 1 1456 5 view .LVU1912
	lsls	r5, r0, #21
	.loc 1 1452 5 view .LVU1913
	lsl	r1, r1, #1
.LVL402:
	.loc 1 1456 2 is_stmt 1 view .LVU1914
.LBB932:
.LBI929:
	.loc 7 131 19 view .LVU1915
.LBB931:
	.loc 7 133 2 view .LVU1916
	.loc 7 135 2 view .LVU1917
	.loc 7 135 2 is_stmt 0 view .LVU1918
.LBE931:
.LBE932:
	.loc 1 1457 3 is_stmt 1 view .LVU1919
.LBB933:
.LBB934:
	.loc 7 133 21 is_stmt 0 view .LVU1920
	ldr	r0, .L306
.LBE934:
.LBE933:
	.loc 1 1457 11 view .LVU1921
	it	mi
	orrmi	r1, r1, #1
.LVL403:
	.loc 1 1460 2 is_stmt 1 view .LVU1922
.LBB936:
.LBI933:
	.loc 7 131 19 view .LVU1923
.LBB935:
	.loc 7 133 2 view .LVU1924
	.loc 7 133 21 is_stmt 0 view .LVU1925
	bl	atomic_get
.LVL404:
	.loc 7 135 2 is_stmt 1 view .LVU1926
	.loc 7 135 2 is_stmt 0 view .LVU1927
.LBE935:
.LBE936:
	.loc 1 1460 5 view .LVU1928
	lsls	r0, r0, #18
	.loc 1 1461 3 is_stmt 1 view .LVU1929
	.loc 1 1461 11 is_stmt 0 view .LVU1930
	it	mi
	orrmi	r1, r1, #4
.LVL405:
	.loc 1 1464 2 is_stmt 1 view .LVU1931
	.loc 1 1464 2 is_stmt 0 view .LVU1932
.LBE926:
.LBE925:
	.loc 1 1505 3 is_stmt 1 view .LVU1933
	.loc 1 1505 9 is_stmt 0 view .LVU1934
	ldr	r0, .L306+4
.LVL406:
	.loc 1 1505 9 view .LVU1935
	adds	r3, r7, #3
	bl	bt_id_set_adv_own_addr
.LVL407:
	.loc 1 1506 3 is_stmt 1 view .LVU1936
	.loc 1 1506 6 is_stmt 0 view .LVU1937
	mov	r5, r0
	cbz	r0, .L287
	.loc 1 1507 4 is_stmt 1 view .LVU1938
.LBB937:
	.loc 1 1507 9 view .LVU1939
	.loc 1 1507 58 view .LVU1940
	.loc 1 1507 15 view .LVU1941
	.loc 1 1507 3 view .LVU1942
.LVL408:
	.loc 1 1507 42 view .LVU1943
	.loc 1 1507 177 view .LVU1944
	.loc 1 1507 188 view .LVU1945
	.loc 1 1507 276 view .LVU1946
.LBB938:
	.loc 1 1507 4 view .LVU1947
	.loc 1 1507 6 view .LVU1948
	.loc 1 1507 4 view .LVU1949
.LBB939:
	.loc 1 1507 9 view .LVU1950
	.loc 1 1507 3 view .LVU1951
.LBE939:
.LBE938:
.LBE937:
.LBE924:
	.loc 1 1507 4 view .LVU1952
	.loc 1 1507 13 view .LVU1953
	.loc 1 1507 108 view .LVU1954
	.loc 1 1507 4 view .LVU1955
.LBB959:
.LBB956:
.LBB953:
.LBB950:
	.loc 1 1507 13 view .LVU1956
	.loc 1 1507 103 view .LVU1957
	.loc 1 1507 105 view .LVU1958
.LBB940:
	.loc 1 1507 108 is_stmt 0 view .LVU1959
	mov	r4, sp
	.loc 1 1507 110 is_stmt 1 view .LVU1960
	.loc 1 1507 121 view .LVU1961
.LVL409:
	.loc 1 1507 210 view .LVU1962
	.loc 1 1507 27 view .LVU1963
.LBE940:
.LBE950:
.LBE953:
.LBE956:
.LBE959:
	.loc 1 1507 4 view .LVU1964
	.loc 1 1507 369 view .LVU1965
	.loc 1 1507 76 view .LVU1966
	.loc 1 1507 3 view .LVU1967
	.loc 1 1507 3 view .LVU1968
	.loc 1 1507 3 view .LVU1969
	.loc 1 1507 39 view .LVU1970
	.loc 1 1507 5 view .LVU1971
	.loc 1 1507 31 view .LVU1972
	.loc 1 1507 57 view .LVU1973
	.loc 1 1507 524 view .LVU1974
	.loc 1 1507 586 view .LVU1975
	.loc 1 1507 1107 view .LVU1976
	.loc 1 1507 1172 view .LVU1977
	.loc 1 1507 1197 view .LVU1978
	.loc 1 1507 1198 view .LVU1979
	.loc 1 1507 1200 view .LVU1980
	.loc 1 1507 1230 view .LVU1981
	.loc 1 1507 1260 view .LVU1982
	.loc 1 1507 1292 view .LVU1983
	.loc 1 1507 1324 view .LVU1984
	.loc 1 1507 1356 view .LVU1985
	.loc 1 1507 1553 view .LVU1986
	.loc 1 1507 1577 view .LVU1987
	.loc 1 1507 1578 view .LVU1988
	.loc 1 1507 1580 view .LVU1989
	.loc 1 1507 1609 view .LVU1990
	.loc 1 1507 1638 view .LVU1991
	.loc 1 1507 1669 view .LVU1992
	.loc 1 1507 1700 view .LVU1993
	.loc 1 1507 1731 view .LVU1994
	.loc 1 1507 1938 view .LVU1995
	.loc 1 1507 5 view .LVU1996
	.loc 1 1507 23 view .LVU1997
	.loc 1 1507 43 view .LVU1998
	.loc 1 1507 5 view .LVU1999
	.loc 1 1507 43 view .LVU2000
	.loc 1 1507 14 view .LVU2001
	.loc 1 1507 14 view .LVU2002
	.loc 1 1507 62 view .LVU2003
	.loc 1 1507 93 view .LVU2004
	.loc 1 1507 127 view .LVU2005
	.loc 1 1507 132 view .LVU2006
	.loc 1 1507 409 view .LVU2007
	.loc 1 1507 1570 view .LVU2008
	.loc 1 1507 1635 view .LVU2009
	.loc 1 1507 1659 view .LVU2010
	.loc 1 1507 1740 view .LVU2011
	.loc 1 1507 1751 view .LVU2012
	.loc 1 1507 1890 view .LVU2013
	.loc 1 1507 1906 view .LVU2014
	.loc 1 1507 1946 view .LVU2015
	.loc 1 1507 1971 view .LVU2016
	.loc 1 1507 3314 view .LVU2017
	.loc 1 1507 3355 view .LVU2018
	.loc 1 1507 8 view .LVU2019
	.loc 1 1507 31 view .LVU2020
	.loc 1 1507 130 view .LVU2021
	.loc 1 1507 7 view .LVU2022
	.loc 1 1507 12 view .LVU2023
	.loc 1 1507 237 view .LVU2024
	.loc 1 1507 1190 view .LVU2025
	.loc 1 1507 1255 view .LVU2026
	.loc 1 1507 1279 view .LVU2027
	.loc 1 1507 1308 view .LVU2028
	.loc 1 1507 1319 view .LVU2029
	.loc 1 1507 1406 view .LVU2030
	.loc 1 1507 1422 view .LVU2031
	.loc 1 1507 1462 view .LVU2032
	.loc 1 1507 2726 view .LVU2033
	.loc 1 1507 2767 view .LVU2034
	.loc 1 1507 8 view .LVU2035
	.loc 1 1507 31 view .LVU2036
	.loc 1 1507 10 view .LVU2037
	.loc 1 1507 6 view .LVU2038
	.loc 1 1507 29 view .LVU2039
	.loc 1 1507 53 view .LVU2040
	.loc 1 1507 81 view .LVU2041
	.loc 1 1507 257 view .LVU2042
	.loc 1 1507 17 view .LVU2043
.LBB960:
.LBB957:
.LBB954:
.LBB951:
.LBB948:
	.loc 1 1507 30 view .LVU2044
	.loc 1 1507 4 view .LVU2045
	.loc 1 1507 4 view .LVU2046
	.loc 1 1507 71 view .LVU2047
	.loc 1 1507 83 is_stmt 0 view .LVU2048
	sub	sp, sp, #32
	mov	r2, sp
.LVL410:
	.loc 1 1507 75 is_stmt 1 view .LVU2049
	.loc 1 1507 485 view .LVU2050
	.loc 1 1507 6 view .LVU2051
	.loc 1 1507 8 view .LVU2052
	.loc 1 1507 13 view .LVU2053
	.loc 1 1507 11 view .LVU2054
	.loc 1 1507 6 view .LVU2055
	.loc 1 1507 24 view .LVU2056
.LBB941:
	.loc 1 1507 4 view .LVU2057
	.loc 1 1507 369 view .LVU2058
	.loc 1 1507 76 view .LVU2059
.LVL411:
	.loc 1 1507 3 view .LVU2060
	.loc 1 1507 3 view .LVU2061
	.loc 1 1507 3 view .LVU2062
	.loc 1 1507 39 view .LVU2063
	.loc 1 1507 68 view .LVU2064
	.loc 1 1507 94 view .LVU2065
	.loc 1 1507 120 view .LVU2066
	.loc 1 1507 587 view .LVU2067
	.loc 1 1507 649 view .LVU2068
	.loc 1 1507 1170 view .LVU2069
	.loc 1 1507 1235 view .LVU2070
	.loc 1 1507 1260 view .LVU2071
	.loc 1 1507 1261 view .LVU2072
	.loc 1 1507 1263 view .LVU2073
	.loc 1 1507 1293 view .LVU2074
	.loc 1 1507 1323 view .LVU2075
	.loc 1 1507 1355 view .LVU2076
	.loc 1 1507 1387 view .LVU2077
	.loc 1 1507 1419 view .LVU2078
	.loc 1 1507 1616 view .LVU2079
	.loc 1 1507 1640 view .LVU2080
	.loc 1 1507 1641 view .LVU2081
	.loc 1 1507 1643 view .LVU2082
	.loc 1 1507 1672 view .LVU2083
	.loc 1 1507 1701 view .LVU2084
	.loc 1 1507 1732 view .LVU2085
	.loc 1 1507 1763 view .LVU2086
	.loc 1 1507 1794 view .LVU2087
	.loc 1 1507 2001 view .LVU2088
.LBB942:
	.loc 1 1507 3352 view .LVU2089
	.loc 1 1507 3357 view .LVU2090
	.loc 1 1507 0 view .LVU2091
	ldr	r3, .L306+8
.LBE942:
.LBB943:
	.loc 1 1507 3812 is_stmt 0 view .LVU2092
	strd	r3, r0, [r2, #20]
	.loc 1 1507 2767 is_stmt 1 view .LVU2093
	.loc 1 1507 8 view .LVU2094
.LVL412:
	.loc 1 1507 31 view .LVU2095
	.loc 1 1507 31 is_stmt 0 view .LVU2096
.LBE943:
	.loc 1 1507 10 is_stmt 1 view .LVU2097
	.loc 1 1507 6 view .LVU2098
	.loc 1 1507 29 view .LVU2099
	.loc 1 1507 53 view .LVU2100
	.loc 1 1507 81 view .LVU2101
.LBE941:
.LBE948:
.LBE951:
.LBE954:
.LBE957:
.LBE960:
	.loc 1 1507 7 view .LVU2102
	.loc 1 1507 46 view .LVU2103
	.loc 1 1507 51 view .LVU2104
	.loc 1 1507 81 view .LVU2105
	.loc 1 1507 148 view .LVU2106
	.loc 1 1507 153 view .LVU2107
	.loc 1 1507 183 view .LVU2108
.LBB961:
.LBB958:
.LBB955:
.LBB952:
.LBB949:
.LBB945:
	.loc 1 1507 257 view .LVU2109
	.loc 1 1507 17 view .LVU2110
.LBB944:
	.loc 1 1507 7 view .LVU2111
	.loc 1 1507 165 view .LVU2112
	.loc 1 1507 167 view .LVU2113
	.loc 1 1507 177 is_stmt 0 view .LVU2114
	movs	r3, #3
	str	r3, [r2, #16]!
.LVL413:
	.loc 1 1507 177 view .LVU2115
.LBE944:
.LBE945:
	.loc 1 1507 27 is_stmt 1 view .LVU2116
	.loc 1 1507 8 view .LVU2117
	.loc 1 1507 148 view .LVU2118
	.loc 1 1507 150 view .LVU2119
.LBB946:
.LBI946:
	.loc 6 26 20 view .LVU2120
.LBB947:
	.loc 6 38 2 view .LVU2121
	.loc 6 38 7 view .LVU2122
	.loc 6 38 5 view .LVU2123
	.loc 6 39 2 view .LVU2124
	ldr	r0, .L306+12
.LVL414:
	.loc 6 39 2 is_stmt 0 view .LVU2125
	movs	r3, #0
	mov	r1, #6208
	bl	z_impl_z_log_msg_static_create
.LVL415:
	.loc 6 39 2 view .LVU2126
.LBE947:
.LBE946:
	mov	sp, r4
.LVL416:
	.loc 6 39 2 view .LVU2127
.LBE949:
	.loc 1 1507 108 is_stmt 1 view .LVU2128
	.loc 1 1507 6 view .LVU2129
	.loc 1 1507 43 view .LVU2130
.LBE952:
	.loc 1 1507 7 view .LVU2131
.LBE955:
	.loc 1 1507 279 view .LVU2132
	.loc 1 1507 6 view .LVU2133
	.loc 1 1507 19 view .LVU2134
.LBE958:
	.loc 1 1507 7 view .LVU2135
	.loc 1 1508 4 view .LVU2136
.L283:
	.loc 1 1508 4 is_stmt 0 view .LVU2137
.LBE961:
	.loc 1 1531 1 view .LVU2138
	adds	r7, r7, #12
	.cfi_remember_state
	.cfi_def_cfa_offset 20
	mov	sp, r7
	.cfi_def_cfa_register 13
	@ sp needed
	pop	{r4, r5, r6, r7, pc}
.LVL417:
.L287:
	.cfi_restore_state
	.loc 1 1512 2 is_stmt 1 view .LVU2139
.LBB962:
.LBI962:
	.loc 1 379 5 view .LVU2140
.LBB963:
	.loc 1 381 2 view .LVU2141
	.loc 1 386 2 view .LVU2142
	.loc 1 386 9 is_stmt 0 view .LVU2143
	ldr	r0, .L306+4
.LVL418:
	.loc 1 386 9 view .LVU2144
	movs	r1, #1
	bl	bt_le_adv_set_enable_legacy
.LVL419:
	.loc 1 386 9 view .LVU2145
.LBE963:
.LBE962:
	.loc 1 1513 2 is_stmt 1 view .LVU2146
	.loc 1 1527 2 is_stmt 0 view .LVU2147
	ldr	r6, [r7, #4]
	.loc 1 1513 5 view .LVU2148
	cbnz	r0, .L289
	.loc 1 1527 2 is_stmt 1 view .LVU2149
	mov	r0, r6
.LVL420:
	.loc 1 1527 2 is_stmt 0 view .LVU2150
	bl	bt_conn_unref
.LVL421:
	.loc 1 1528 2 is_stmt 1 view .LVU2151
	b	.L283
.LVL422:
.L289:
	.loc 1 1514 3 discriminator 335 view .LVU2152
.LBB964:
	.loc 1 1514 8 discriminator 335 view .LVU2153
.LBE964:
	.loc 1 1514 6 discriminator 335 view .LVU2154
	.loc 1 1515 3 discriminator 335 view .LVU2155
	mov	r1, r5
	mov	r0, r6
.LVL423:
	.loc 1 1515 3 is_stmt 0 discriminator 335 view .LVU2156
	bl	bt_conn_set_state
.LVL424:
	.loc 1 1520 3 is_stmt 1 discriminator 335 view .LVU2157
.LBB965:
.LBI965:
	.loc 7 152 19 discriminator 335 view .LVU2158
.LBB966:
	.loc 7 154 2 discriminator 335 view .LVU2159
	.loc 7 155 2 discriminator 335 view .LVU2160
	.loc 7 157 2 discriminator 335 view .LVU2161
	.loc 7 157 8 is_stmt 0 discriminator 335 view .LVU2162
	mvn	r1, #16384
	ldr	r0, .L306
	bl	atomic_and
.LVL425:
	mov	r5, r0
.LVL426:
	.loc 7 159 2 is_stmt 1 discriminator 335 view .LVU2163
	.loc 7 159 2 is_stmt 0 discriminator 335 view .LVU2164
.LBE966:
.LBE965:
	.loc 1 1527 2 is_stmt 1 discriminator 335 view .LVU2165
	mov	r0, r6
.LVL427:
	.loc 1 1527 2 is_stmt 0 discriminator 335 view .LVU2166
	bl	bt_conn_unref
.LVL428:
	.loc 1 1528 2 is_stmt 1 discriminator 335 view .LVU2167
	.loc 1 1528 5 is_stmt 0 discriminator 335 view .LVU2168
	lsls	r3, r5, #17
	bpl	.L283
	.loc 1 1529 3 is_stmt 1 view .LVU2169
.LVL429:
.LBB967:
.LBI967:
	.loc 7 217 20 view .LVU2170
.LBB968:
	.loc 7 219 2 view .LVU2171
	.loc 7 221 2 view .LVU2172
.LBB969:
.LBI969:
	.loc 2 279 28 view .LVU2173
.LBB970:
	.loc 2 281 2 view .LVU2174
	.loc 2 281 9 is_stmt 0 view .LVU2175
	dmb	ish
.L305:
	ldrex	r3, [r4]
	orr	r3, r3, #16384
	strex	r2, r3, [r4]
	cmp	r2, #0
	bne	.L305
	dmb	ish
.LVL430:
	.loc 2 281 9 view .LVU2176
	b	.L283
.L307:
	.align	2
.L306:
	.word	bt_dev+40
	.word	bt_dev+24
	.word	.LC3
	.word	log_const_bt_adv
.LBE970:
.LBE969:
.LBE968:
.LBE967:
	.cfi_endproc
.LFE614:
	.size	bt_le_adv_resume, .-bt_le_adv_resume
	.global	log_const_bt_adv
	.section	.rodata.str1.1,"aMS",%progbits,1
.LC4:
	.ascii	"bt_adv\000"
	.section	._log_const.static.log_const_bt_adv_,"a"
	.align	2
	.type	log_const_bt_adv, %object
	.size	log_const_bt_adv, 8
log_const_bt_adv:
	.word	.LC4
	.byte	3
	.space	3
	.text
.Letext0:
	.file 9 "/home/g/zephyr-sdk-0.16.3/arm-zephyr-eabi/picolibc/include/machine/_default_types.h"
	.file 10 "/home/g/zephyr-sdk-0.16.3/arm-zephyr-eabi/lib/gcc/arm-zephyr-eabi/12.2.0/include/stddef.h"
	.file 11 "/home/g/zephyr-sdk-0.16.3/arm-zephyr-eabi/picolibc/include/sys/_types.h"
	.file 12 "/home/g/zephyr-sdk-0.16.3/arm-zephyr-eabi/picolibc/include/sys/_stdint.h"
	.file 13 "/home/g/zephyr-sdk-0.16.3/arm-zephyr-eabi/picolibc/include/sys/types.h"
	.file 14 "/home/g/mise-work/zmk-firmware/zmk/zephyr/include/zephyr/sys/dlist.h"
	.file 15 "/home/g/mise-work/zmk-firmware/zmk/zephyr/include/zephyr/sys/rb.h"
	.file 16 "/home/g/mise-work/zmk-firmware/zmk/zephyr/include/zephyr/sys/slist.h"
	.file 17 "/home/g/mise-work/zmk-firmware/zmk/zephyr/include/zephyr/sys/sflist.h"
	.file 18 "/home/g/mise-work/zmk-firmware/zmk/zephyr/include/zephyr/sys/sys_heap.h"
	.file 19 "/home/g/mise-work/zmk-firmware/zmk/zephyr/include/zephyr/kernel/thread.h"
	.file 20 "/home/g/mise-work/zmk-firmware/zmk/zephyr/include/zephyr/kernel_structs.h"
	.file 21 "/home/g/mise-work/zmk-firmware/zmk/zephyr/include/zephyr/arch/arm/thread.h"
	.file 22 "/home/g/mise-work/zmk-firmware/zmk/zephyr/include/zephyr/sys_clock.h"
	.file 23 "/home/g/mise-work/zmk-firmware/zmk/zephyr/include/zephyr/kernel.h"
	.file 24 "/home/g/mise-work/zmk-firmware/zmk/zephyr/include/zephyr/fatal_types.h"
	.file 25 "/home/g/mise-work/zmk-firmware/zmk/zephyr/subsys/bluetooth/host/conn_internal.h"
	.file 26 "/home/g/mise-work/zmk-firmware/zmk/zephyr/subsys/bluetooth/host/hci_core.h"
	.file 27 "/home/g/mise-work/zmk-firmware/zmk/zephyr/include/zephyr/bluetooth/bluetooth.h"
	.file 28 "/home/g/mise-work/zmk-firmware/zmk/zephyr/include/zephyr/bluetooth/hci_types.h"
	.file 29 "/home/g/mise-work/zmk-firmware/zmk/zephyr/include/zephyr/bluetooth/conn.h"
	.file 30 "/home/g/mise-work/zmk-firmware/zmk/zephyr/include/zephyr/logging/log_instance.h"
	.file 31 "/home/g/mise-work/zmk-firmware/zmk/zephyr/include/zephyr/sys/cbprintf.h"
	.file 32 "/home/g/mise-work/zmk-firmware/zmk/zephyr/include/zephyr/logging/log_msg.h"
	.file 33 "/home/g/mise-work/zmk-firmware/zmk/zephyr/subsys/bluetooth/host/id.h"
	.file 34 "/home/g/zephyr-sdk-0.16.3/arm-zephyr-eabi/picolibc/include/string.h"
	.file 35 "/home/g/mise-work/zmk-firmware/zmk/zephyr/include/zephyr/bluetooth/hci.h"
	.file 36 "/home/g/mise-work/zmk-firmware/zmk/zephyr/include/zephyr/sys/cbprintf_internal.h"
	.file 37 "/home/g/mise-work/zmk-firmware/zmk/zephyr/include/zephyr/syscall.h"
	.file 38 "<built-in>"
	.file 39 "/home/g/mise-work/zmk-firmware/zmk/zephyr/include/zephyr/spinlock.h"