	.cpu cortex-m4
	.arch armv7e-m
	.fpu fpv4-sp-d16
	.eabi_attribute 27, 1
	.eabi_attribute 28, 1
	.eabi_attribute 20, 1
	.eabi_attribute 21, 1
	.eabi_attribute 23, 3
	.eabi_attribute 24, 1
	.eabi_attribute 25, 1
	.eabi_attribute 26, 1
	.eabi_attribute 30, 4
	.eabi_attribute 34, 1
	.eabi_attribute 38, 1
	.eabi_attribute 18, 4
	.file	"att.c"
	.text
.Ltext0:
	.cfi_sections	.debug_frame
	.file 1 "/home/g/mise-work/zmk-firmware/zmk/zephyr/subsys/bluetooth/host/att.c"
	.section	.text.sys_slist_get,"ax",%progbits
	.align	1
	.syntax unified
	.thumb
	.thumb_func
	.type	sys_slist_get, %function
sys_slist_get:
.LVL0:
.LFB68:
	.file 2 "/home/g/mise-work/zmk-firmware/zmk/zephyr/include/zephyr/sys/slist.h"
	.loc 2 392 62 view -0
	.cfi_startproc
	@ args = 0, pretend = 0, frame = 0
	@ frame_needed = 0, uses_anonymous_args = 0
	@ link register save eliminated.
	.loc 2 392 64 view .LVU1
.LBB2049:
.LBI2049:
	.loc 2 268 1 view .LVU2
	.loc 2 268 41 view .LVU3
.LBB2050:
.LBI2050:
	.loc 2 238 28 view .LVU4
.LBB2051:
	.loc 2 240 2 view .LVU5
.LBE2051:
.LBE2050:
.LBE2049:
	.loc 2 392 62 is_stmt 0 view .LVU6
	mov	r3, r0
.LBB2054:
.LBB2053:
.LBB2052:
	.loc 2 240 13 view .LVU7
	ldr	r0, [r0]
.LVL1:
	.loc 2 240 13 view .LVU8
.LBE2052:
.LBE2053:
.LBE2054:
	.loc 2 392 1 view .LVU9
	cbz	r0, .L1
.LVL2:
.LBB2055:
.LBI2055:
	.loc 2 379 29 is_stmt 1 view .LVU10
.LBB2056:
	.loc 2 379 74 view .LVU11
	.loc 2 379 121 view .LVU12
.LBB2057:
.LBI2057:
	.loc 2 211 28 view .LVU13
.LBB2058:
	.loc 2 213 2 view .LVU14
.LBE2058:
.LBE2057:
	.loc 2 379 173 is_stmt 0 view .LVU15
	ldr	r1, [r3, #4]
.LBB2060:
.LBB2059:
	.loc 2 213 13 view .LVU16
	ldr	r2, [r0]
.LVL3:
	.loc 2 213 13 view .LVU17
.LBE2059:
.LBE2060:
.LBB2061:
.LBI2061:
	.loc 2 221 20 is_stmt 1 view .LVU18
.LBB2062:
	.loc 2 223 2 view .LVU19
	.loc 2 223 13 is_stmt 0 view .LVU20
	str	r2, [r3]
.LVL4:
	.loc 2 223 13 view .LVU21
.LBE2062:
.LBE2061:
	.loc 2 379 170 is_stmt 1 view .LVU22
.LBB2063:
.LBI2063:
	.loc 2 250 28 view .LVU23
.LBB2064:
	.loc 2 252 2 view .LVU24
	.loc 2 252 2 is_stmt 0 view .LVU25
.LBE2064:
.LBE2063:
	.loc 2 379 173 view .LVU26
	cmp	r0, r1
	.loc 2 379 211 is_stmt 1 view .LVU27
.LVL5:
.LBB2065:
.LBI2065:
	.loc 2 226 20 view .LVU28
.LBB2066:
	.loc 2 228 2 view .LVU29
	.loc 2 228 13 is_stmt 0 view .LVU30
	it	eq
	streq	r2, [r3, #4]
.LVL6:
.L1:
	.loc 2 228 13 view .LVU31
.LBE2066:
.LBE2065:
.LBE2056:
.LBE2055:
	.loc 2 392 34 view .LVU32
	bx	lr
	.cfi_endproc
.LFE68:
	.size	sys_slist_get, .-sys_slist_get
	.section	.text.net_buf_frags_len,"ax",%progbits
	.align	1
	.syntax unified
	.thumb
	.thumb_func
	.type	net_buf_frags_len, %function
net_buf_frags_len:
.LVL7:
.LFB531:
	.file 3 "/home/g/mise-work/zmk-firmware/zmk/zephyr/include/zephyr/net/buf.h"
	.loc 3 2455 1 is_stmt 1 view -0
	.cfi_startproc
	@ args = 0, pretend = 0, frame = 0
	@ frame_needed = 0, uses_anonymous_args = 0
	@ link register save eliminated.
	.loc 3 2456 2 view .LVU34
	.loc 3 2458 2 view .LVU35
	.loc 3 2455 1 is_stmt 0 view .LVU36
	mov	r3, r0
	.loc 3 2456 9 view .LVU37
	movs	r0, #0
.LVL8:
.L8:
	.loc 3 2458 9 is_stmt 1 view .LVU38
	cbnz	r3, .L9
	.loc 3 2463 2 view .LVU39
	.loc 3 2464 1 is_stmt 0 view .LVU40
	bx	lr
.L9:
	.loc 3 2459 3 is_stmt 1 view .LVU41
	.loc 3 2459 15 is_stmt 0 view .LVU42
	ldrh	r2, [r3, #16]
	.loc 3 2460 7 view .LVU43
	ldr	r3, [r3, #4]
.LVL9:
	.loc 3 2459 9 view .LVU44
	add	r0, r0, r2
.LVL10:
	.loc 3 2460 3 is_stmt 1 view .LVU45
	.loc 3 2460 3 is_stmt 0 view .LVU46
	b	.L8
	.cfi_endproc
.LFE531:
	.size	net_buf_frags_len, .-net_buf_frags_len
	.section	.text.attr_read_type_cb,"ax",%progbits
	.align	1
	.syntax unified
	.thumb
	.thumb_func
	.type	attr_read_type_cb, %function
attr_read_type_cb:
.LVL11:
.LFB635:
	.loc 1 1350 1 is_stmt 1 view -0
	.cfi_startproc
	@ args = 0, pretend = 0, frame = 0
	@ frame_needed = 0, uses_anonymous_args = 0
	.loc 1 1351 2 view .LVU48
	.loc 1 1353 2 view .LVU49
	.loc 1 1350 1 is_stmt 0 view .LVU50
	push	{r4, lr}
	.cfi_def_cfa_offset 8
	.cfi_offset 4, -8
	.cfi_offset 14, -4
	.loc 1 1353 11 view .LVU51
	ldr	r4, [r2, #12]
	.loc 1 1353 16 view .LVU52
	ldrb	r3, [r4]	@ zero_extendqisi2
	adds	r1, r1, #2
.LVL12:
	.loc 1 1353 5 view .LVU53
	cbnz	r3, .L11
	.loc 1 1355 3 is_stmt 1 view .LVU54
	.loc 1 1355 18 is_stmt 0 view .LVU55
	strb	r1, [r4]
.L13:
	.loc 1 1363 8 view .LVU56
	movs	r0, #1
.LVL13:
.L12:
	.loc 1 1364 1 view .LVU57
	pop	{r4, pc}
.LVL14:
.L11:
	.loc 1 1356 9 is_stmt 1 view .LVU58
	.loc 1 1356 12 is_stmt 0 view .LVU59
	cmp	r3, r1
	beq	.L13
	.loc 1 1358 3 is_stmt 1 view .LVU60
	.loc 1 1358 13 is_stmt 0 view .LVU61
	ldrh	r3, [r0, #16]
	subs	r3, r3, #2
	strh	r3, [r0, #16]	@ movhi
	.loc 1 1359 3 is_stmt 1 view .LVU62
	.loc 1 1359 14 is_stmt 0 view .LVU63
	movs	r0, #0
.LVL15:
	.loc 1 1359 14 view .LVU64
	str	r0, [r2, #16]
	.loc 1 1360 3 is_stmt 1 view .LVU65
	.loc 1 1360 9 is_stmt 0 view .LVU66
	b	.L12
	.cfi_endproc
.LFE635:
	.size	attr_read_type_cb, .-attr_read_type_cb
	.section	.text.att_prepare_write_req,"ax",%progbits
	.align	1
	.syntax unified
	.thumb
	.thumb_func
	.type	att_prepare_write_req, %function
att_prepare_write_req:
.LVL16:
.LFB654:
	.loc 1 2219 1 is_stmt 1 view -0
	.cfi_startproc
	@ args = 0, pretend = 0, frame = 0
	@ frame_needed = 0, uses_anonymous_args = 0
	@ link register save eliminated.
	.loc 1 2221 2 view .LVU68
	.loc 1 2235 1 is_stmt 0 view .LVU69
	movs	r0, #6
.LVL17:
	.loc 1 2235 1 view .LVU70
	bx	lr
	.cfi_endproc
.LFE654:
	.size	att_prepare_write_req, .-att_prepare_write_req
	.section	.text.att_op_get_type,"ax",%progbits
	.align	1
	.syntax unified
	.thumb
	.thumb_func
	.type	att_op_get_type, %function
att_op_get_type:
.LVL18:
.LFB658:
	.loc 1 2826 1 is_stmt 1 view -0
	.cfi_startproc
	@ args = 0, pretend = 0, frame = 0
	@ frame_needed = 0, uses_anonymous_args = 0
	@ link register save eliminated.
	.loc 1 2827 2 view .LVU72
	cmp	r0, #35
	bhi	.L16
	cmp	r0, #26
	bhi	.L17
	subs	r3, r0, #1
	cmp	r3, #24
	bls	.L32
	.loc 1 2871 9 is_stmt 0 view .LVU73
	movs	r0, #6
.LVL19:
	.loc 1 2871 9 view .LVU74
	bx	lr
.LVL20:
.L17:
	.loc 1 2827 2 view .LVU75
	sub	r3, r0, #27
	cmp	r3, #8
	bhi	.L20
	tbb	[pc, r3]
.L22:
	.byte	(.L21-.L22)/2
	.byte	(.L20-.L22)/2
	.byte	(.L25-.L22)/2
	.byte	(.L27-.L22)/2
	.byte	(.L20-.L22)/2
	.byte	(.L24-.L22)/2
	.byte	(.L28-.L22)/2
	.byte	(.L20-.L22)/2
	.byte	(.L21-.L22)/2
	.p2align 1
.L21:
	.loc 1 2862 10 view .LVU76
	movs	r0, #3
.LVL21:
	.loc 1 2862 10 view .LVU77
	bx	lr
.LVL22:
.L32:
	.loc 1 2827 2 view .LVU78
	ldr	r2, .L34
	movs	r3, #1
	lsls	r3, r3, r0
	ands	r2, r2, r3
	cbnz	r2, .L28
	ldr	r2, .L34+4
	ands	r2, r2, r3
	.loc 1 2871 9 view .LVU79
	cmp	r2, #0
	ite	ne
	movne	r0, #1
.LVL23:
	.loc 1 2871 9 view .LVU80
	moveq	r0, #6
	bx	lr
.LVL24:
.L16:
	.loc 1 2827 2 view .LVU81
	and	r3, r0, #127
	cmp	r3, #82
	bne	.L20
	.loc 1 2845 10 view .LVU82
	movs	r0, #0
.LVL25:
	.loc 1 2872 1 view .LVU83
	bx	lr
.LVL26:
.L24:
	.loc 1 2840 10 view .LVU84
	movs	r0, #1
.LVL27:
	.loc 1 2840 10 view .LVU85
	bx	lr
.LVL28:
.L25:
	.loc 1 2864 3 is_stmt 1 view .LVU86
	.loc 1 2864 10 is_stmt 0 view .LVU87
	movs	r0, #5
.LVL29:
	.loc 1 2864 10 view .LVU88
	bx	lr
.LVL30:
.L20:
	.loc 1 2867 2 is_stmt 1 view .LVU89
	.loc 1 2845 10 is_stmt 0 view .LVU90
	tst	r0, #64
	ite	eq
	moveq	r0, #6
.LVL31:
	.loc 1 2845 10 view .LVU91
	movne	r0, #0
	bx	lr
.LVL32:
.L27:
	.loc 1 2827 2 view .LVU92
	movs	r0, #4
.LVL33:
	.loc 1 2827 2 view .LVU93
	bx	lr
.LVL34:
.L28:
	.loc 1 2859 10 view .LVU94
	movs	r0, #2
.LVL35:
	.loc 1 2859 10 view .LVU95
	bx	lr
.L35:
	.align	2
.L34:
	.word	42642090
	.word	21321044
	.cfi_endproc
.LFE658:
	.size	att_op_get_type, .-att_op_get_type
	.section	.text.bt_att_released,"ax",%progbits
	.align	1
	.syntax unified
	.thumb
	.thumb_func
	.type	bt_att_released, %function
bt_att_released:
.LVL36:
.LFB674:
	.loc 1 3303 1 is_stmt 1 view -0
	.cfi_startproc
	@ args = 0, pretend = 0, frame = 0
	@ frame_needed = 0, uses_anonymous_args = 0
	@ link register save eliminated.
	.loc 1 3304 2 view .LVU97
	.loc 1 3306 2 view .LVU98
.LBB2067:
	.loc 1 3306 7 view .LVU99
.LBE2067:
	.loc 1 3306 5 view .LVU100
	.loc 1 3308 2 view .LVU101
	subs	r1, r0, #4
.LVL37:
	.loc 1 3308 2 is_stmt 0 view .LVU102
	ldr	r0, .L37
.LVL38:
	.loc 1 3308 2 view .LVU103
	b	k_mem_slab_free
.LVL39:
.L38:
	.loc 1 3308 2 view .LVU104
	.align	2
.L37:
	.word	chan_slab
	.cfi_endproc
.LFE674:
	.size	bt_att_released, .-bt_att_released
	.section	.text.write_cb,"ax",%progbits
	.align	1
	.syntax unified
	.thumb
	.thumb_func
	.type	write_cb, %function
write_cb:
.LVL40:
.LFB651:
	.loc 1 2001 1 is_stmt 1 view -0
	.cfi_startproc
	@ args = 0, pretend = 0, frame = 0
	@ frame_needed = 0, uses_anonymous_args = 0
	.loc 1 2002 2 view .LVU106
	.loc 1 2001 1 is_stmt 0 view .LVU107
	push	{r0, r1, r4, r5, r6, lr}
	.cfi_def_cfa_offset 24
	.cfi_offset 4, -16
	.cfi_offset 5, -12
	.cfi_offset 6, -8
	.cfi_offset 14, -4
	.loc 1 2001 1 view .LVU108
	mov	r4, r2
.LVL41:
	.loc 1 2003 2 is_stmt 1 view .LVU109
	.loc 1 2004 2 view .LVU110
	.loc 1 2006 2 view .LVU111
.LBB2078:
	.loc 1 2006 7 view .LVU112
.LBE2078:
	.loc 1 2006 5 view .LVU113
	.loc 1 2009 2 view .LVU114
	.loc 1 2009 14 is_stmt 0 view .LVU115
	mov	r1, r0
.LVL42:
	.loc 1 2001 1 view .LVU116
	mov	r5, r0
	.loc 1 2009 14 view .LVU117
	mov	r2, #298
.LVL43:
	.loc 1 2009 14 view .LVU118
	ldr	r0, [r4]
.LVL44:
	.loc 1 2009 14 view .LVU119
	bl	bt_gatt_check_perm
.LVL45:
	.loc 1 2009 12 view .LVU120
	strb	r0, [r4, #20]
	.loc 1 2011 2 is_stmt 1 view .LVU121
	.loc 1 2011 5 is_stmt 0 view .LVU122
	cbnz	r0, .L40
	.loc 1 2016 2 is_stmt 1 view .LVU123
	.loc 1 2016 11 is_stmt 0 view .LVU124
	ldrb	r3, [r4, #8]	@ zero_extendqisi2
	.loc 1 2016 5 view .LVU125
	cbz	r3, .L46
	.loc 1 2018 9 is_stmt 1 view .LVU126
	.loc 1 2018 12 is_stmt 0 view .LVU127
	sub	r2, r3, #24
	rsbs	r3, r2, #0
	adcs	r3, r3, r2
	lsls	r3, r3, #2
.L41:
.LVL46:
	.loc 1 2023 2 is_stmt 1 view .LVU128
	.loc 1 2023 10 is_stmt 0 view .LVU129
	str	r3, [sp, #4]
	ldrh	r3, [r4, #18]
.LVL47:
	.loc 1 2023 10 view .LVU130
	str	r3, [sp]
	ldr	r6, [r5, #8]
	ldrh	r3, [r4, #16]
	ldr	r2, [r4, #12]
	ldr	r0, [r4]
	mov	r1, r5
	blx	r6
.LVL48:
	.loc 1 2025 2 is_stmt 1 view .LVU131
	.loc 1 2025 5 is_stmt 0 view .LVU132
	cmp	r0, #0
	.loc 1 2025 5 view .LVU133
	blt	.L42
	.loc 1 2025 32 discriminator 1 view .LVU134
	ldrh	r3, [r4, #16]
	.loc 1 2025 16 discriminator 1 view .LVU135
	cmp	r0, r3
	bne	.L48
	.loc 1 2030 2 is_stmt 1 view .LVU136
	.loc 1 2030 12 is_stmt 0 view .LVU137
	movs	r3, #0
	strb	r3, [r4, #20]
	.loc 1 2032 2 is_stmt 1 view .LVU138
	.loc 1 2032 9 is_stmt 0 view .LVU139
	movs	r0, #1
.LVL49:
	.loc 1 2032 9 view .LVU140
	b	.L45
.LVL50:
.L46:
	.loc 1 2017 9 view .LVU141
	movs	r3, #2
	b	.L41
.LVL51:
.L42:
	.loc 1 2026 3 is_stmt 1 view .LVU142
.LBB2079:
.LBI2079:
	.loc 1 1325 16 view .LVU143
.LBB2080:
	.loc 1 1327 2 view .LVU144
.LBB2081:
	.loc 1 1327 7 view .LVU145
.LBE2081:
	.loc 1 1327 5 view .LVU146
	.loc 1 1329 2 view .LVU147
	.loc 1 1329 5 is_stmt 0 view .LVU148
	cmn	r0, #255
	bcc	.L48
	.loc 1 1330 3 is_stmt 1 view .LVU149
	.loc 1 1330 10 is_stmt 0 view .LVU150
	rsbs	r0, r0, #0
.LVL52:
	.loc 1 1330 10 view .LVU151
	uxtb	r0, r0
.LVL53:
.L43:
	.loc 1 1330 10 view .LVU152
.LBE2080:
.LBE2079:
	.loc 1 2026 13 view .LVU153
	strb	r0, [r4, #20]
	.loc 1 2027 3 is_stmt 1 view .LVU154
.LVL54:
.L40:
	.loc 1 2012 10 is_stmt 0 view .LVU155
	movs	r0, #0
.L45:
	.loc 1 2033 1 view .LVU156
	add	sp, sp, #8
	.cfi_remember_state
	.cfi_def_cfa_offset 16
	@ sp needed
	pop	{r4, r5, r6, pc}
.LVL55:
.L48:
	.cfi_restore_state
.LBB2083:
.LBB2082:
	.loc 1 1333 9 view .LVU157
	movs	r0, #14
.LVL56:
	.loc 1 1333 9 view .LVU158
	b	.L43
.LBE2082:
.LBE2083:
	.cfi_endproc
.LFE651:
	.size	write_cb, .-write_cb
	.section	.text.bt_gatt_foreach_attr,"ax",%progbits
	.align	1
	.syntax unified
	.thumb
	.thumb_func
	.type	bt_gatt_foreach_attr, %function
bt_gatt_foreach_attr:
.LVL57:
.LFB545:
	.file 4 "/home/g/mise-work/zmk-firmware/zmk/zephyr/include/zephyr/bluetooth/gatt.h"
	.loc 4 472 1 is_stmt 1 view -0
	.cfi_startproc
	@ args = 0, pretend = 0, frame = 0
	@ frame_needed = 0, uses_anonymous_args = 0
	.loc 4 473 2 view .LVU160
	.loc 4 472 1 is_stmt 0 view .LVU161
	push	{r0, r1, r2, r3, r4, lr}
	.cfi_def_cfa_offset 24
	.cfi_offset 14, -4
	.loc 4 473 2 view .LVU162
	strd	r2, r3, [sp, #4]
	movs	r3, #0
.LVL58:
	.loc 4 473 2 view .LVU163
	str	r3, [sp]
	mov	r2, r3
.LVL59:
	.loc 4 473 2 view .LVU164
	bl	bt_gatt_foreach_attr_type
.LVL60:
	.loc 4 475 1 view .LVU165
	add	sp, sp, #20
	.cfi_def_cfa_offset 4
	@ sp needed
	ldr	pc, [sp], #4
	.cfi_endproc
.LFE545:
	.size	bt_gatt_foreach_attr, .-bt_gatt_foreach_attr
	.section	.text.att_chan_mtu_updated,"ax",%progbits
	.align	1
	.syntax unified
	.thumb
	.thumb_func
	.type	att_chan_mtu_updated, %function
att_chan_mtu_updated:
.LVL61:
.LFB681:
	.loc 1 3826 1 is_stmt 1 view -0
	.cfi_startproc
	@ args = 0, pretend = 0, frame = 0
	@ frame_needed = 0, uses_anonymous_args = 0
	@ link register save eliminated.
	.loc 1 3827 2 view .LVU167
	.loc 1 3826 1 is_stmt 0 view .LVU168
	push	{r4, r5, r6}
	.cfi_def_cfa_offset 12
	.cfi_offset 4, -12
	.cfi_offset 5, -8
	.cfi_offset 6, -4
	.loc 1 3827 17 view .LVU169
	ldr	r5, [r0]
.LVL62:
	.loc 1 3828 2 is_stmt 1 view .LVU170
	.loc 1 3829 2 view .LVU171
	.loc 1 3832 2 view .LVU172
.LBB2084:
.LBI2084:
	.loc 2 238 28 view .LVU173
.LBB2085:
	.loc 2 240 2 view .LVU174
	.loc 2 240 13 is_stmt 0 view .LVU175
	ldr	r2, [r5, #36]
.LVL63:
	.loc 2 240 13 view .LVU176
.LBE2085:
.LBE2084:
	.loc 1 3832 8 view .LVU177
	cbz	r2, .L60
.LVL64:
.LBB2086:
.LBI2086:
	.loc 2 292 29 is_stmt 1 discriminator 1 view .LVU178
	.loc 2 292 70 discriminator 1 view .LVU179
.LBB2087:
.LBI2087:
	.loc 2 281 29 discriminator 1 view .LVU180
	.loc 2 281 79 discriminator 1 view .LVU181
.LBB2088:
.LBI2088:
	.loc 2 211 28 discriminator 1 view .LVU182
.LBB2089:
	.loc 2 213 2 discriminator 1 view .LVU183
	.loc 2 213 13 is_stmt 0 discriminator 1 view .LVU184
	ldr	r3, [r2]
.LVL65:
	.loc 2 213 13 discriminator 1 view .LVU185
.LBE2089:
.LBE2088:
.LBE2087:
.LBE2086:
	.loc 1 3832 8 discriminator 1 view .LVU186
	cbz	r3, .L53
	.loc 1 3832 8 view .LVU187
	subs	r3, r3, #160
.L53:
	.loc 1 3832 8 view .LVU188
	sub	r4, r2, #160
.LVL66:
	.loc 1 3832 9 is_stmt 1 view .LVU189
	.loc 1 3832 8 is_stmt 0 view .LVU190
	movs	r2, #0
.LVL67:
	.loc 1 3832 8 view .LVU191
	mov	r1, r2
	b	.L57
.LVL68:
.L55:
	.loc 1 3832 8 view .LVU192
	subs	r3, r3, #160
.LVL69:
	.loc 1 3832 9 is_stmt 1 view .LVU193
.L57:
	.loc 1 3833 3 view .LVU194
	.loc 1 3833 6 is_stmt 0 view .LVU195
	cmp	r4, r0
	beq	.L61
.LVL70:
.L56:
	.loc 1 3836 3 is_stmt 1 view .LVU196
	.loc 1 3836 10 is_stmt 0 view .LVU197
	ldrh	r6, [r4, #42]
	.loc 1 3837 10 view .LVU198
	ldrh	r4, [r4, #26]
.LVL71:
	.loc 1 3836 10 view .LVU199
	cmp	r1, r6
	it	cc
	movcc	r1, r6
.LVL72:
	.loc 1 3837 3 is_stmt 1 view .LVU200
	.loc 1 3837 10 is_stmt 0 view .LVU201
	cmp	r2, r4
	it	cc
	movcc	r2, r4
.LVL73:
.L61:
	.loc 1 3837 10 view .LVU202
	mov	r4, r3
	.loc 1 3832 13 is_stmt 1 view .LVU203
.LVL74:
	.loc 1 3832 3 is_stmt 0 view .LVU204
	cbz	r3, .L52
.LVL75:
.LBB2090:
.LBI2090:
	.loc 2 292 29 is_stmt 1 view .LVU205
	.loc 2 292 70 view .LVU206
.LBB2091:
.LBI2091:
	.loc 2 281 29 view .LVU207
	.loc 2 281 79 view .LVU208
.LBB2092:
.LBI2092:
	.loc 2 211 28 view .LVU209
.LBB2093:
	.loc 2 213 2 view .LVU210
	.loc 2 213 13 is_stmt 0 view .LVU211
	ldr	r3, [r3, #160]
.LVL76:
	.loc 2 213 13 view .LVU212
.LBE2093:
.LBE2092:
.LBE2091:
.LBE2090:
	.loc 1 3832 8 view .LVU213
	cmp	r3, #0
	bne	.L55
.LVL77:
	.loc 1 3832 9 is_stmt 1 view .LVU214
	.loc 1 3833 3 view .LVU215
	.loc 1 3833 6 is_stmt 0 view .LVU216
	cmp	r4, r0
	bne	.L56
.LVL78:
.L52:
	.loc 1 3841 2 is_stmt 1 view .LVU217
	.loc 1 3841 28 is_stmt 0 view .LVU218
	ldrh	r3, [r0, #42]
	.loc 1 3842 28 view .LVU219
	ldrh	r0, [r0, #26]
.LVL79:
	.loc 1 3841 5 view .LVU220
	cmp	r3, r1
	bhi	.L58
	.loc 1 3841 43 discriminator 1 view .LVU221
	cmp	r0, r2
	bls	.L51
.L58:
	.loc 1 3843 3 is_stmt 1 view .LVU222
.LVL80:
	.loc 1 3844 3 view .LVU223
	.loc 1 3845 3 view .LVU224
	cmp	r2, r0
	it	cc
	movcc	r2, r0
.LVL81:
	.loc 1 3845 3 is_stmt 0 view .LVU225
	cmp	r1, r3
	ldr	r0, [r5]
	.loc 1 3845 3 view .LVU226
	it	cc
	movcc	r1, r3
.LVL82:
	.loc 1 3847 1 view .LVU227
	pop	{r4, r5, r6}
	.cfi_remember_state
	.cfi_restore 6
	.cfi_restore 5
	.cfi_restore 4
	.cfi_def_cfa_offset 0
.LVL83:
	.loc 1 3845 3 view .LVU228
	b	bt_gatt_att_max_mtu_changed
.LVL84:
.L60:
	.cfi_restore_state
	.loc 1 3845 3 view .LVU229
	mov	r1, r2
	b	.L52
.LVL85:
.L51:
	.loc 1 3847 1 view .LVU230
	pop	{r4, r5, r6}
	.cfi_restore 6
	.cfi_restore 5
	.cfi_restore 4
	.cfi_def_cfa_offset 0
.LVL86:
	.loc 1 3847 1 view .LVU231
	bx	lr
	.cfi_endproc
.LFE681:
	.size	att_chan_mtu_updated, .-att_chan_mtu_updated
	.section	.text.attr_read_group_cb,"ax",%progbits
	.align	1
	.syntax unified
	.thumb
	.thumb_func
	.type	attr_read_group_cb, %function
attr_read_group_cb:
.LVL87:
.LFB647:
	.loc 1 1833 1 is_stmt 1 view -0
	.cfi_startproc
	@ args = 0, pretend = 0, frame = 0
	@ frame_needed = 0, uses_anonymous_args = 0
	@ link register save eliminated.
	.loc 1 1834 2 view .LVU233
	.loc 1 1836 2 view .LVU234
	.loc 1 1836 11 is_stmt 0 view .LVU235
	ldr	r0, [r2, #12]
.LVL88:
	.loc 1 1836 16 view .LVU236
	ldrb	r3, [r0]	@ zero_extendqisi2
	adds	r1, r1, #4
.LVL89:
	.loc 1 1836 5 view .LVU237
	cbnz	r3, .L69
	.loc 1 1838 3 is_stmt 1 view .LVU238
	.loc 1 1838 18 is_stmt 0 view .LVU239
	strb	r1, [r0]
.L71:
	.loc 1 1846 8 view .LVU240
	movs	r0, #1
	bx	lr
.L69:
	.loc 1 1839 9 is_stmt 1 view .LVU241
	.loc 1 1839 12 is_stmt 0 view .LVU242
	cmp	r3, r1
	beq	.L71
.LVL90:
.LBB2096:
.LBI2096:
	.loc 1 1831 12 is_stmt 1 view .LVU243
.LBB2097:
	.loc 1 1841 3 view .LVU244
	.loc 1 1841 7 is_stmt 0 view .LVU245
	ldr	r1, [r2, #8]
.LVL91:
	.loc 1 1841 18 view .LVU246
	ldrh	r3, [r1, #16]
	.loc 1 1842 15 view .LVU247
	movs	r0, #0
	.loc 1 1841 18 view .LVU248
	subs	r3, r3, #4
	strh	r3, [r1, #16]	@ movhi
	.loc 1 1842 3 is_stmt 1 view .LVU249
	.loc 1 1842 15 is_stmt 0 view .LVU250
	str	r0, [r2, #16]
	.loc 1 1843 3 is_stmt 1 view .LVU251
.LVL92:
	.loc 1 1843 3 is_stmt 0 view .LVU252
.LBE2097:
.LBE2096:
	.loc 1 1847 1 view .LVU253
	bx	lr
	.cfi_endproc
.LFE647:
	.size	attr_read_group_cb, .-attr_read_group_cb
	.section	.text.tx_meta_data_free,"ax",%progbits
	.align	1
	.syntax unified
	.thumb
	.thumb_func
	.type	tx_meta_data_free, %function
tx_meta_data_free:
.LVL93:
.LFB597:
	.loc 1 195 1 is_stmt 1 view -0
	.cfi_startproc
	@ args = 0, pretend = 0, frame = 0
	@ frame_needed = 0, uses_anonymous_args = 0
	.loc 1 196 4 view .LVU255
	.loc 1 196 5 view .LVU256
	.loc 1 197 1 view .LVU257
	.loc 1 195 1 is_stmt 0 view .LVU258
	push	{r4, lr}
	.cfi_def_cfa_offset 8
	.cfi_offset 4, -8
	.cfi_offset 14, -4
	.loc 1 197 90 view .LVU259
	mov	r4, r0
	cbz	r0, .L73
	.loc 1 197 34 discriminator 1 view .LVU260
	ldr	r3, .L77
	cmp	r0, r3
	bcc	.L73
	.loc 1 197 90 discriminator 3 view .LVU261
	adds	r3, r3, #60
	cmp	r0, r3
	bcs	.L73
.LVL94:
	.loc 1 199 2 is_stmt 1 view .LVU262
	.loc 1 205 5 view .LVU263
	.loc 1 205 6 view .LVU264
	.loc 1 208 2 view .LVU265
.LBB2105:
.LBI2105:
	.file 5 "/home/g/zephyr-sdk-0.16.3/arm-zephyr-eabi/picolibc/include/ssp/string.h"
	.loc 5 86 189 view .LVU266
.LBB2106:
	.loc 5 86 238 view .LVU267
	.loc 5 86 245 is_stmt 0 view .LVU268
	movs	r1, #0
	movs	r2, #20
	bl	memset
.LVL95:
	.loc 5 86 245 view .LVU269
.LBE2106:
.LBE2105:
	.loc 1 210 2 is_stmt 1 view .LVU270
.LBB2109:
.LBI2109:
	.loc 1 194 20 view .LVU271
.LBB2110:
	.loc 1 211 3 view .LVU272
.LBB2111:
	.loc 1 211 6 view .LVU273
	.loc 1 211 11 view .LVU274
	.loc 1 211 9 view .LVU275
	.loc 1 211 5 view .LVU276
	mov	r1, r4
	ldr	r0, .L77+4
.LBE2111:
.LBE2110:
.LBE2109:
	.loc 1 213 1 is_stmt 0 view .LVU277
	pop	{r4, lr}
	.cfi_remember_state
	.cfi_restore 14
	.cfi_restore 4
	.cfi_def_cfa_offset 0
.LVL96:
.LBB2114:
.LBB2113:
.LBB2112:
	.loc 1 211 5 view .LVU278
	b	k_queue_append
.LVL97:
.L73:
	.cfi_restore_state
	.loc 1 211 5 view .LVU279
.LBE2112:
.LBE2113:
.LBE2114:
	.loc 1 199 2 is_stmt 1 view .LVU280
	.loc 1 205 5 view .LVU281
	.loc 1 205 6 view .LVU282
	.loc 1 208 2 view .LVU283
.LBB2115:
	.loc 5 86 189 view .LVU284
.LBB2107:
	.loc 5 86 238 view .LVU285
	.loc 5 86 245 is_stmt 0 view .LVU286
	mov	r0, r4
.LVL98:
	.loc 5 86 245 view .LVU287
	movs	r2, #20
.LBE2107:
.LBE2115:
	.loc 1 213 1 view .LVU288
	pop	{r4, lr}
	.cfi_restore 14
	.cfi_restore 4
	.cfi_def_cfa_offset 0
.LVL99:
.LBB2116:
.LBB2108:
	.loc 5 86 245 view .LVU289
	movs	r1, #0
	b	memset
.LVL100:
.L78:
	.loc 5 86 245 view .LVU290
	.align	2
.L77:
	.word	tx_meta_data
	.word	free_att_tx_meta_data
.LBE2108:
.LBE2116:
	.cfi_endproc
.LFE597:
	.size	tx_meta_data_free, .-tx_meta_data_free
	.section	.text.find_info_cb,"ax",%progbits
	.align	1
	.syntax unified
	.thumb
	.thumb_func
	.type	find_info_cb, %function
find_info_cb:
.LVL101:
.LFB628:
	.loc 1 1047 1 is_stmt 1 view -0
	.cfi_startproc
	@ args = 0, pretend = 0, frame = 0
	@ frame_needed = 0, uses_anonymous_args = 0
	.loc 1 1048 2 view .LVU292
	.loc 1 1049 2 view .LVU293
	.loc 1 1047 1 is_stmt 0 view .LVU294
	push	{r3, r4, r5, r6, r7, lr}
	.cfi_def_cfa_offset 24
	.cfi_offset 3, -24
	.cfi_offset 4, -20
	.cfi_offset 5, -16
	.cfi_offset 6, -12
	.cfi_offset 7, -8
	.cfi_offset 14, -4
	.loc 1 1054 5 view .LVU295
	ldr	r3, [r2, #8]
	.loc 1 1049 22 view .LVU296
	ldr	r6, [r2]
.LVL102:
	.loc 1 1051 2 is_stmt 1 view .LVU297
.LBB2117:
	.loc 1 1051 7 view .LVU298
.LBE2117:
	.loc 1 1051 5 view .LVU299
	.loc 1 1054 2 view .LVU300
	.loc 1 1047 1 is_stmt 0 view .LVU301
	mov	r5, r0
	mov	r7, r1
	mov	r4, r2
	.loc 1 1054 5 view .LVU302
	cbnz	r3, .L80
	.loc 1 1055 3 is_stmt 1 view .LVU303
.LVL103:
.LBB2118:
.LBI2118:
	.loc 3 1493 21 view .LVU304
.LBB2119:
	.loc 3 1495 2 view .LVU305
	.loc 3 1495 9 is_stmt 0 view .LVU306
	ldr	r0, [r2, #4]
.LVL104:
	.loc 3 1495 9 view .LVU307
	movs	r1, #1
.LVL105:
	.loc 3 1495 9 view .LVU308
	adds	r0, r0, #12
	bl	net_buf_simple_add
.LVL106:
	.loc 3 1495 9 view .LVU309
.LBE2119:
.LBE2118:
	.loc 1 1055 13 view .LVU310
	str	r0, [r4, #8]
	.loc 1 1056 3 is_stmt 1 view .LVU311
	.loc 1 1056 34 is_stmt 0 view .LVU312
	ldr	r3, [r5]
	.loc 1 1056 21 view .LVU313
	ldrb	r3, [r3]	@ zero_extendqisi2
	cmp	r3, #0
	ite	ne
	movne	r3, #2
	moveq	r3, #1
	strb	r3, [r0]
.L80:
	.loc 1 1060 2 is_stmt 1 view .LVU314
	.loc 1 1060 19 is_stmt 0 view .LVU315
	ldr	r3, [r4, #8]
	ldrb	r3, [r3]	@ zero_extendqisi2
	.loc 1 1060 2 view .LVU316
	cmp	r3, #1
	beq	.L82
	cmp	r3, #2
	beq	.L83
.L88:
	movs	r0, #0
	b	.L84
.L82:
	.loc 1 1062 3 is_stmt 1 view .LVU317
	.loc 1 1062 17 is_stmt 0 view .LVU318
	ldr	r3, [r5]
	.loc 1 1062 6 view .LVU319
	ldrb	r3, [r3]	@ zero_extendqisi2
	cmp	r3, #0
	bne	.L88
	.loc 1 1067 3 is_stmt 1 view .LVU320
.LVL107:
.LBB2120:
.LBI2120:
	.loc 3 1493 21 view .LVU321
.LBB2121:
	.loc 3 1495 2 view .LVU322
	.loc 3 1495 9 is_stmt 0 view .LVU323
	ldr	r0, [r4, #4]
	movs	r1, #4
	adds	r0, r0, #12
	bl	net_buf_simple_add
.LVL108:
	.loc 3 1495 9 view .LVU324
.LBE2121:
.LBE2120:
	.loc 1 1067 16 view .LVU325
	str	r0, [r4, #12]
	.loc 1 1068 3 is_stmt 1 view .LVU326
	.loc 1 1068 24 is_stmt 0 view .LVU327
	strh	r7, [r0]	@ unaligned
	.loc 1 1069 3 is_stmt 1 view .LVU328
	.loc 1 1069 29 is_stmt 0 view .LVU329
	ldr	r2, [r5]
	.loc 1 1069 7 view .LVU330
	ldr	r3, [r4, #12]
	.loc 1 1069 29 view .LVU331
	ldrh	r2, [r2, #2]
	.loc 1 1069 22 view .LVU332
	strh	r2, [r3, #2]	@ unaligned
	.loc 1 1071 3 is_stmt 1 view .LVU333
.LVL109:
.LBB2122:
.LBI2122:
	.loc 1 122 17 view .LVU334
.LBB2123:
	.loc 1 129 2 view .LVU335
	.loc 1 129 2 is_stmt 0 view .LVU336
.LBE2123:
.LBE2122:
	.loc 1 1071 35 view .LVU337
	ldr	r1, [r4, #4]
.LBB2125:
.LBB2124:
	.loc 1 129 76 view .LVU338
	ldrh	r2, [r6, #42]
	ldrh	r3, [r6, #26]
.LBE2124:
.LBE2125:
	.loc 1 1071 35 view .LVU339
	ldrh	r0, [r1, #16]
	.loc 1 1071 24 view .LVU340
	cmp	r2, r3
	ite	ls
	rsbls	r0, r0, r2
	rsbhi	r0, r0, r3
	.loc 1 1071 6 view .LVU341
	cmp	r0, #4
.L90:
	.loc 1 1088 6 view .LVU342
	ite	ls
	movls	r0, #0
	movhi	r0, #1
.L84:
	.loc 1 1095 1 view .LVU343
	pop	{r3, r4, r5, r6, r7, pc}
.LVL110:
.L83:
	.loc 1 1078 3 is_stmt 1 view .LVU344
	.loc 1 1078 17 is_stmt 0 view .LVU345
	ldr	r3, [r5]
	.loc 1 1078 6 view .LVU346
	ldrb	r3, [r3]	@ zero_extendqisi2
	cmp	r3, #2
	bne	.L88
	.loc 1 1083 3 is_stmt 1 view .LVU347
.LVL111:
.LBB2126:
.LBI2126:
	.loc 3 1493 21 view .LVU348
.LBB2127:
	.loc 3 1495 2 view .LVU349
	.loc 3 1495 9 is_stmt 0 view .LVU350
	ldr	r0, [r4, #4]
	movs	r1, #18
	adds	r0, r0, #12
	bl	net_buf_simple_add
.LVL112:
	.loc 3 1495 9 view .LVU351
.LBE2127:
.LBE2126:
	.loc 1 1083 17 view .LVU352
	str	r0, [r4, #12]
	.loc 1 1084 3 is_stmt 1 view .LVU353
	.loc 1 1084 25 is_stmt 0 view .LVU354
	strh	r7, [r0]	@ unaligned
	.loc 1 1085 2 is_stmt 1 view .LVU355
.LVL113:
.LBB2128:
.LBI2128:
	.loc 5 83 216 view .LVU356
.LBB2129:
	.loc 5 83 292 view .LVU357
	.loc 5 83 299 is_stmt 0 view .LVU358
	ldr	r3, [r5]
	ldr	r2, [r4, #12]
	adds	r1, r3, #1
.LVL114:
	.loc 5 83 299 view .LVU359
	adds	r2, r2, #2
.LVL115:
	.loc 5 83 299 view .LVU360
	adds	r3, r3, #17
.LVL116:
.L85:
	.loc 5 83 299 view .LVU361
	ldr	r0, [r1], #4	@ unaligned
	str	r0, [r2], #4	@ unaligned
	cmp	r1, r3
	bne	.L85
.LVL117:
	.loc 5 83 299 view .LVU362
.LBE2129:
.LBE2128:
	.loc 1 1088 3 is_stmt 1 view .LVU363
.LBB2130:
.LBI2130:
	.loc 1 122 17 view .LVU364
.LBB2131:
	.loc 1 129 2 view .LVU365
	.loc 1 129 2 is_stmt 0 view .LVU366
.LBE2131:
.LBE2130:
	.loc 1 1088 35 view .LVU367
	ldr	r1, [r4, #4]
.LBB2133:
.LBB2132:
	.loc 1 129 76 view .LVU368
	ldrh	r2, [r6, #42]
	ldrh	r3, [r6, #26]
.LBE2132:
.LBE2133:
	.loc 1 1088 35 view .LVU369
	ldrh	r0, [r1, #16]
	.loc 1 1088 24 view .LVU370
	cmp	r2, r3
	ite	ls
	rsbls	r0, r0, r2
	rsbhi	r0, r0, r3
	.loc 1 1088 6 view .LVU371
	cmp	r0, #18
	b	.L90
	.cfi_endproc
.LFE628:
	.size	find_info_cb, .-find_info_cb
	.section	.text.z_log_msg_static_create.constprop.0,"ax",%progbits
	.align	1
	.syntax unified
	.thumb
	.thumb_func
	.type	z_log_msg_static_create.constprop.0, %function
z_log_msg_static_create.constprop.0:
.LVL118:
.LFB702:
	.file 6 "/home/g/mise-work/zmk-firmware/zmk/app/build/zephyr/include/generated/syscalls/log_msg.h"
	.loc 6 26 20 is_stmt 1 view -0
	.cfi_startproc
	@ args = 0, pretend = 0, frame = 0
	@ frame_needed = 0, uses_anonymous_args = 0
	@ link register save eliminated.
	.loc 6 38 2 view .LVU373
	.loc 6 38 7 view .LVU374
	.loc 6 38 5 view .LVU375
	.loc 6 39 2 view .LVU376
	movs	r3, #0
	b	z_impl_z_log_msg_static_create
.LVL119:
	.loc 6 39 2 is_stmt 0 view .LVU377
	.cfi_endproc
.LFE702:
	.size	z_log_msg_static_create.constprop.0, .-z_log_msg_static_create.constprop.0
	.section	.rodata.find_type_cb.str1.1,"aMS",%progbits,1
.LC0:
	.ascii	"Unable to create UUID: size %u\000"
.LC1:
	.ascii	"Unable to create UUID: size %d\000"
	.section	.text.find_type_cb,"ax",%progbits
	.align	1
	.syntax unified
	.thumb
	.thumb_func
	.type	find_type_cb, %function
find_type_cb:
.LVL120:
.LFB631:
	.loc 1 1158 1 is_stmt 1 view -0
	.cfi_startproc
	@ args = 0, pretend = 0, frame = 64
	@ frame_needed = 1, uses_anonymous_args = 0
	.loc 1 1159 2 view .LVU379
	.loc 1 1160 2 view .LVU380
	.loc 1 1158 1 is_stmt 0 view .LVU381
	push	{r4, r5, r6, r7, r8, r9, r10, fp, lr}
	.cfi_def_cfa_offset 36
	.cfi_offset 4, -36
	.cfi_offset 5, -32
	.cfi_offset 6, -28
	.cfi_offset 7, -24
	.cfi_offset 8, -20
	.cfi_offset 9, -16
	.cfi_offset 10, -12
	.cfi_offset 11, -8
	.cfi_offset 14, -4
	sub	sp, sp, #76
	.cfi_def_cfa_offset 112
	.loc 1 1160 22 view .LVU382
	ldr	r6, [r2]
.LVL121:
	.loc 1 1161 2 is_stmt 1 view .LVU383
	.loc 1 1158 1 is_stmt 0 view .LVU384
	add	r7, sp, #8
	.cfi_def_cfa 7, 104
	.loc 1 1161 18 view .LVU385
	ldr	r3, [r6, #4]
	str	r3, [r7, #4]
.LVL122:
	.loc 1 1162 2 is_stmt 1 view .LVU386
	.loc 1 1163 2 view .LVU387
	.loc 1 1164 2 view .LVU388
	.loc 1 1165 2 view .LVU389
	.loc 1 1168 2 view .LVU390
.LBB2134:
	.loc 1 1168 74 is_stmt 0 view .LVU391
	movs	r5, #0
	movw	r3, #10241
.LVL123:
	.loc 1 1168 74 view .LVU392
.LBE2134:
	.loc 1 1158 1 view .LVU393
	mov	r9, r0
	mov	r8, r1
.LBB2135:
	.loc 1 1168 7 view .LVU394
	ldr	r0, [r0]
.LVL124:
	.loc 1 1168 74 view .LVU395
	strb	r5, [r7, #44]
.LVL125:
	.loc 1 1168 74 view .LVU396
	strh	r3, [r7, #46]	@ movhi
	.loc 1 1168 7 view .LVU397
	add	r1, r7, #44
.LVL126:
	.loc 1 1168 7 view .LVU398
.LBE2135:
	.loc 1 1158 1 view .LVU399
	mov	r4, r2
.LBB2136:
	.loc 1 1168 7 view .LVU400
	bl	bt_uuid_cmp
.LVL127:
	.loc 1 1168 5 view .LVU401
	cmp	r0, #0
	beq	.L94
.LBE2136:
	.loc 1 1173 2 is_stmt 1 view .LVU402
.LBB2137:
	.loc 1 1173 73 is_stmt 0 view .LVU403
	mov	r3, #10240
	.loc 1 1173 6 view .LVU404
	ldr	r0, [r9]
	.loc 1 1173 73 view .LVU405
	strb	r5, [r7, #44]
	strh	r3, [r7, #46]	@ movhi
	.loc 1 1173 6 view .LVU406
	add	r1, r7, #44
	bl	bt_uuid_cmp
.LVL128:
	.loc 1 1173 5 view .LVU407
	cbz	r0, .L95
	.loc 1 1174 3 is_stmt 1 view .LVU408
	.loc 1 1174 11 is_stmt 0 view .LVU409
	ldr	r3, [r4, #8]
	.loc 1 1174 6 view .LVU410
	cbz	r3, .L97
	.loc 1 1174 19 discriminator 1 view .LVU411
	ldrh	r2, [r3, #2]	@ unaligned
	cmp	r2, r8
	bcs	.L97
.LVL129:
.L116:
	.loc 1 1174 19 discriminator 1 view .LVU412
.LBE2137:
	.loc 1 1241 26 view .LVU413
	strh	r8, [r3, #2]	@ unaligned
.LVL130:
	.loc 1 1244 2 is_stmt 1 view .LVU414
.L97:
.LBB2138:
	.loc 1 1178 10 is_stmt 0 view .LVU415
	movs	r0, #1
	b	.L99
.LVL131:
.L95:
	.loc 1 1178 10 view .LVU416
.LBE2138:
	.loc 1 1181 2 is_stmt 1 view .LVU417
.LBB2139:
	.loc 1 1181 7 view .LVU418
.LBE2139:
	.loc 1 1181 5 view .LVU419
	.loc 1 1184 2 view .LVU420
.LBB2140:
.LBI2140:
	.loc 1 122 17 view .LVU421
.LBB2141:
	.loc 1 129 2 view .LVU422
	.loc 1 129 2 is_stmt 0 view .LVU423
.LBE2141:
.LBE2140:
	.loc 1 1184 25 view .LVU424
	ldr	r1, [r4, #4]
	mov	r0, r1
	bl	net_buf_frags_len
.LVL132:
.LBB2143:
.LBB2142:
	.loc 1 129 76 view .LVU425
	ldrh	r2, [r6, #42]
	ldrh	r3, [r6, #26]
.LBE2142:
.LBE2143:
	.loc 1 1184 23 view .LVU426
	cmp	r2, r3
	ite	ls
	rsbls	r0, r0, r2
	rsbhi	r0, r0, r3
	.loc 1 1184 5 view .LVU427
	cmp	r0, #3
	bhi	.L98
.L103:
	.loc 1 1186 10 view .LVU428
	movs	r0, #0
.LVL133:
.L99:
	.loc 1 1249 1 view .LVU429
	adds	r7, r7, #68
	.cfi_remember_state
	.cfi_def_cfa_offset 36
	mov	sp, r7
	.cfi_def_cfa_register 13
	@ sp needed
	pop	{r4, r5, r6, r7, r8, r9, r10, fp, pc}
.LVL134:
.L98:
	.cfi_restore_state
	.loc 1 1189 2 is_stmt 1 view .LVU430
	.loc 1 1189 9 is_stmt 0 view .LVU431
	mov	r0, r1
	bl	net_buf_frag_last
.LVL135:
	mov	r5, r0
.LVL136:
	.loc 1 1191 2 is_stmt 1 view .LVU432
.LBB2144:
.LBI2144:
	.loc 1 122 17 view .LVU433
.LBB2145:
	.loc 1 129 2 view .LVU434
	.loc 1 129 2 is_stmt 0 view .LVU435
.LBE2145:
.LBE2144:
	.loc 1 1191 30 view .LVU436
	ldr	r0, [r4, #4]
.LVL137:
	.loc 1 1191 30 view .LVU437
	bl	net_buf_frags_len
.LVL138:
.LBB2147:
.LBB2146:
	.loc 1 129 76 view .LVU438
	ldrh	r2, [r6, #42]
	ldrh	r3, [r6, #26]
.LBE2146:
.LBE2147:
.LBB2148:
.LBB2149:
	.loc 3 2257 9 view .LVU439
	add	r10, r5, #12
.LBE2149:
.LBE2148:
	.loc 1 1191 28 view .LVU440
	cmp	r2, r3
	ite	ls
	rsbls	fp, r0, r2
	rsbhi	fp, r0, r3
.LVL139:
.LBB2151:
.LBI2148:
	.loc 3 2255 22 is_stmt 1 view .LVU441
.LBB2150:
	.loc 3 2257 2 view .LVU442
	.loc 3 2257 9 is_stmt 0 view .LVU443
	mov	r0, r10
	bl	net_buf_simple_tailroom
.LVL140:
	.loc 3 2257 9 view .LVU444
.LBE2150:
.LBE2151:
	.loc 1 1191 140 view .LVU445
	cmp	fp, r0
	bcs	.L100
.LVL141:
.LBB2152:
.LBI2152:
	.loc 1 122 17 is_stmt 1 view .LVU446
.LBB2153:
	.loc 1 129 2 view .LVU447
	.loc 1 129 2 is_stmt 0 view .LVU448
.LBE2153:
.LBE2152:
	.loc 1 1191 110 view .LVU449
	ldr	r0, [r4, #4]
	bl	net_buf_frags_len
.LVL142:
.LBB2155:
.LBB2154:
	.loc 1 129 76 view .LVU450
	ldrh	r2, [r6, #42]
	ldrh	r3, [r6, #26]
.LBE2154:
.LBE2155:
	.loc 1 1191 140 view .LVU451
	cmp	r2, r3
	ite	ls
	rsbls	r0, r0, r2
	rsbhi	r0, r0, r3
.L101:
.LVL143:
	.loc 1 1193 2 is_stmt 1 discriminator 4 view .LVU452
	.loc 1 1193 5 is_stmt 0 discriminator 4 view .LVU453
	cbnz	r0, .L102
.LBB2156:
	.loc 1 1194 3 is_stmt 1 view .LVU454
	.loc 1 1194 50 is_stmt 0 view .LVU455
	ldr	r3, [r4, #4]
	.loc 1 1194 10 view .LVU456
	ldrb	r0, [r3, #10]	@ zero_extendqisi2
.LVL144:
	.loc 1 1194 10 view .LVU457
	bl	net_buf_pool_get
.LVL145:
.LBB2157:
.LBI2157:
	.loc 3 1256 68 is_stmt 1 view .LVU458
.LBB2158:
	.loc 3 1259 2 view .LVU459
	.loc 3 1259 9 is_stmt 0 view .LVU460
	movs	r2, #0
	movs	r3, #0
	bl	net_buf_alloc_fixed
.LVL146:
	.loc 3 1259 9 view .LVU461
.LBE2158:
.LBE2157:
	.loc 1 1197 3 is_stmt 1 view .LVU462
	.loc 1 1197 6 is_stmt 0 view .LVU463
	mov	r5, r0
	cmp	r0, #0
	beq	.L103
	.loc 1 1201 3 is_stmt 1 view .LVU464
	mov	r1, r0
	ldr	r0, [r4, #4]
.LVL147:
	.loc 1 1201 3 is_stmt 0 view .LVU465
	bl	net_buf_frag_add
.LVL148:
.L102:
	.loc 1 1201 3 view .LVU466
.LBE2156:
	.loc 1 1205 2 is_stmt 1 view .LVU467
	.loc 1 1205 9 is_stmt 0 view .LVU468
	movs	r3, #0
	str	r3, [sp]
	ldr	r6, [r9, #4]
.LVL149:
	.loc 1 1205 9 view .LVU469
	ldr	r0, [r7, #4]
	movs	r3, #16
	add	r2, r7, #8
	mov	r1, r9
	blx	r6
.LVL150:
	.loc 1 1206 2 is_stmt 1 view .LVU470
	.loc 1 1206 5 is_stmt 0 view .LVU471
	subs	r6, r0, #0
	blt	.L94
	.loc 1 1215 2 is_stmt 1 view .LVU472
	.loc 1 1215 18 is_stmt 0 view .LVU473
	ldrb	r2, [r4, #16]	@ zero_extendqisi2
.LBB2159:
	.loc 1 1220 45 view .LVU474
	ldr	r0, [r4, #12]
.LVL151:
	.loc 1 1220 45 view .LVU475
.LBE2159:
	.loc 1 1215 5 view .LVU476
	cmp	r2, r6
	beq	.L104
.LBB2208:
	.loc 1 1217 3 is_stmt 1 view .LVU477
	.loc 1 1218 3 view .LVU478
	.loc 1 1220 3 view .LVU479
	.loc 1 1220 8 is_stmt 0 view .LVU480
	mov	r1, r0
	add	r0, r7, #44
	bl	bt_uuid_create
.LVL152:
	.loc 1 1220 6 view .LVU481
	cbnz	r0, .L105
	.loc 1 1221 4 is_stmt 1 view .LVU482
.LBB2160:
	.loc 1 1221 9 view .LVU483
	.loc 1 1221 58 view .LVU484
	.loc 1 1221 15 view .LVU485
	.loc 1 1221 3 view .LVU486
.LVL153:
	.loc 1 1221 42 view .LVU487
	.loc 1 1221 177 view .LVU488
	.loc 1 1221 188 view .LVU489
	.loc 1 1221 276 view .LVU490
.LBB2161:
	.loc 1 1221 4 view .LVU491
	.loc 1 1221 6 view .LVU492
.LBB2162:
.LBB2163:
	.loc 1 1221 108 is_stmt 0 view .LVU493
	mov	r5, sp
.LVL154:
	.loc 1 1221 83 view .LVU494
	sub	sp, sp, #32
.LBE2163:
.LBE2162:
	.loc 1 1221 18 view .LVU495
	ldrb	r3, [r4, #16]	@ zero_extendqisi2
.LVL155:
	.loc 1 1221 4 is_stmt 1 view .LVU496
.LBB2172:
	.loc 1 1221 9 view .LVU497
	.loc 1 1221 3 view .LVU498
.LBE2172:
.LBE2161:
.LBE2160:
.LBE2208:
	.loc 1 1221 4 view .LVU499
	.loc 1 1221 13 view .LVU500
	.loc 1 1221 108 view .LVU501
	.loc 1 1221 4 view .LVU502
.LBB2209:
.LBB2179:
.LBB2176:
.LBB2173:
	.loc 1 1221 13 view .LVU503
	.loc 1 1221 103 view .LVU504
	.loc 1 1221 105 view .LVU505
.LBB2169:
	.loc 1 1221 110 view .LVU506
	.loc 1 1221 121 view .LVU507
	.loc 1 1221 210 view .LVU508
	.loc 1 1221 27 view .LVU509
.LBE2169:
.LBE2173:
.LBE2176:
.LBE2179:
.LBE2209:
	.loc 1 1221 4 view .LVU510
	.loc 1 1221 369 view .LVU511
	.loc 1 1221 76 view .LVU512
	.loc 1 1221 3 view .LVU513
	.loc 1 1221 3 view .LVU514
	.loc 1 1221 3 view .LVU515
	.loc 1 1221 39 view .LVU516
	.loc 1 1221 5 view .LVU517
	.loc 1 1221 31 view .LVU518
	.loc 1 1221 57 view .LVU519
	.loc 1 1221 524 view .LVU520
	.loc 1 1221 586 view .LVU521
	.loc 1 1221 1107 view .LVU522
	.loc 1 1221 1172 view .LVU523
	.loc 1 1221 1197 view .LVU524
	.loc 1 1221 1198 view .LVU525
	.loc 1 1221 1200 view .LVU526
	.loc 1 1221 1230 view .LVU527
	.loc 1 1221 1260 view .LVU528
	.loc 1 1221 1292 view .LVU529
	.loc 1 1221 1324 view .LVU530
	.loc 1 1221 1356 view .LVU531
	.loc 1 1221 1553 view .LVU532
	.loc 1 1221 1577 view .LVU533
	.loc 1 1221 1578 view .LVU534
	.loc 1 1221 1580 view .LVU535
	.loc 1 1221 1609 view .LVU536
	.loc 1 1221 1638 view .LVU537
	.loc 1 1221 1669 view .LVU538
	.loc 1 1221 1700 view .LVU539
	.loc 1 1221 1731 view .LVU540
	.loc 1 1221 1938 view .LVU541
	.loc 1 1221 5 view .LVU542
	.loc 1 1221 23 view .LVU543
	.loc 1 1221 43 view .LVU544
	.loc 1 1221 5 view .LVU545
	.loc 1 1221 43 view .LVU546
	.loc 1 1221 14 view .LVU547
	.loc 1 1221 14 view .LVU548
	.loc 1 1221 62 view .LVU549
	.loc 1 1221 93 view .LVU550
	.loc 1 1221 127 view .LVU551
	.loc 1 1221 132 view .LVU552
	.loc 1 1221 386 view .LVU553
	.loc 1 1221 1455 view .LVU554
	.loc 1 1221 1520 view .LVU555
	.loc 1 1221 1544 view .LVU556
	.loc 1 1221 1602 view .LVU557
	.loc 1 1221 1613 view .LVU558
	.loc 1 1221 1729 view .LVU559
	.loc 1 1221 1745 view .LVU560
	.loc 1 1221 1785 view .LVU561
	.loc 1 1221 1810 view .LVU562
	.loc 1 1221 3107 view .LVU563
	.loc 1 1221 3148 view .LVU564
	.loc 1 1221 8 view .LVU565
	.loc 1 1221 31 view .LVU566
	.loc 1 1221 130 view .LVU567
	.loc 1 1221 7 view .LVU568
	.loc 1 1221 12 view .LVU569
	.loc 1 1221 237 view .LVU570
	.loc 1 1221 1190 view .LVU571
	.loc 1 1221 1255 view .LVU572
	.loc 1 1221 1279 view .LVU573
	.loc 1 1221 1308 view .LVU574
	.loc 1 1221 1319 view .LVU575
	.loc 1 1221 1406 view .LVU576
	.loc 1 1221 1422 view .LVU577
	.loc 1 1221 1462 view .LVU578
	.loc 1 1221 2726 view .LVU579
	.loc 1 1221 2767 view .LVU580
	.loc 1 1221 8 view .LVU581
	.loc 1 1221 31 view .LVU582
	.loc 1 1221 10 view .LVU583
	.loc 1 1221 6 view .LVU584
	.loc 1 1221 29 view .LVU585
	.loc 1 1221 53 view .LVU586
	.loc 1 1221 81 view .LVU587
	.loc 1 1221 257 view .LVU588
	.loc 1 1221 17 view .LVU589
.LBB2210:
.LBB2180:
.LBB2177:
.LBB2174:
.LBB2170:
	.loc 1 1221 30 view .LVU590
	.loc 1 1221 4 view .LVU591
	.loc 1 1221 4 view .LVU592
	.loc 1 1221 71 view .LVU593
	.loc 1 1221 83 is_stmt 0 view .LVU594
	add	r2, sp, #8
.LVL156:
	.loc 1 1221 75 is_stmt 1 view .LVU595
	.loc 1 1221 485 view .LVU596
	.loc 1 1221 6 view .LVU597
	.loc 1 1221 8 view .LVU598
	.loc 1 1221 13 view .LVU599
	.loc 1 1221 11 view .LVU600
	.loc 1 1221 6 view .LVU601
	.loc 1 1221 24 view .LVU602
.LBB2164:
	.loc 1 1221 4 view .LVU603
	.loc 1 1221 369 view .LVU604
	.loc 1 1221 76 view .LVU605
.LVL157:
	.loc 1 1221 3 view .LVU606
	.loc 1 1221 3 view .LVU607
	.loc 1 1221 3 view .LVU608
	.loc 1 1221 39 view .LVU609
	.loc 1 1221 68 view .LVU610
	.loc 1 1221 94 view .LVU611
	.loc 1 1221 120 view .LVU612
	.loc 1 1221 587 view .LVU613
	.loc 1 1221 649 view .LVU614
	.loc 1 1221 1170 view .LVU615
	.loc 1 1221 1235 view .LVU616
	.loc 1 1221 1260 view .LVU617
	.loc 1 1221 1261 view .LVU618
	.loc 1 1221 1263 view .LVU619
	.loc 1 1221 1293 view .LVU620
	.loc 1 1221 1323 view .LVU621
	.loc 1 1221 1355 view .LVU622
	.loc 1 1221 1387 view .LVU623
	.loc 1 1221 1419 view .LVU624
	.loc 1 1221 1616 view .LVU625
	.loc 1 1221 1640 view .LVU626
	.loc 1 1221 1641 view .LVU627
	.loc 1 1221 1643 view .LVU628
	.loc 1 1221 1672 view .LVU629
	.loc 1 1221 1701 view .LVU630
	.loc 1 1221 1732 view .LVU631
	.loc 1 1221 1763 view .LVU632
	.loc 1 1221 1794 view .LVU633
	.loc 1 1221 2001 view .LVU634
.LBB2165:
	.loc 1 1221 3145 view .LVU635
	.loc 1 1221 3150 view .LVU636
	.loc 1 1221 3768 view .LVU637
	.loc 1 1221 0 is_stmt 0 view .LVU638
	ldr	r1, .L118
.LBE2165:
.LBB2166:
	.loc 1 1221 3812 view .LVU639
	strd	r1, r3, [r2, #20]
	.loc 1 1221 2767 is_stmt 1 view .LVU640
	.loc 1 1221 8 view .LVU641
.LVL158:
	.loc 1 1221 31 view .LVU642
	.loc 1 1221 31 is_stmt 0 view .LVU643
.LBE2166:
	.loc 1 1221 10 is_stmt 1 view .LVU644
	.loc 1 1221 6 view .LVU645
	.loc 1 1221 29 view .LVU646
	.loc 1 1221 53 view .LVU647
	.loc 1 1221 81 view .LVU648
.LBE2164:
.LBE2170:
.LBE2174:
.LBE2177:
.LBE2180:
.LBE2210:
	.loc 1 1221 7 view .LVU649
	.loc 1 1221 46 view .LVU650
	.loc 1 1221 51 view .LVU651
	.loc 1 1221 81 view .LVU652
	.loc 1 1221 148 view .LVU653
	.loc 1 1221 153 view .LVU654
	.loc 1 1221 183 view .LVU655
.LBB2211:
.LBB2181:
.LBB2178:
.LBB2175:
.LBB2171:
.LBB2168:
	.loc 1 1221 257 view .LVU656
	.loc 1 1221 17 view .LVU657
.LBB2167:
	.loc 1 1221 7 view .LVU658
	.loc 1 1221 165 view .LVU659
	.loc 1 1221 167 view .LVU660
.L117:
	.loc 1 1221 167 is_stmt 0 view .LVU661
.LBE2167:
.LBE2168:
.LBE2171:
.LBE2175:
.LBE2178:
.LBE2181:
.LBB2182:
.LBB2183:
.LBB2184:
.LBB2185:
.LBB2186:
.LBB2187:
	.loc 1 1225 2767 is_stmt 1 view .LVU662
	.loc 1 1225 8 view .LVU663
	.loc 1 1225 31 view .LVU664
	.loc 1 1225 31 is_stmt 0 view .LVU665
.LBE2187:
	.loc 1 1225 10 is_stmt 1 view .LVU666
	.loc 1 1225 6 view .LVU667
	.loc 1 1225 29 view .LVU668
	.loc 1 1225 53 view .LVU669
	.loc 1 1225 81 view .LVU670
.LBE2186:
.LBE2185:
.LBE2184:
.LBE2183:
.LBE2182:
.LBE2211:
	.loc 1 1225 7 view .LVU671
	.loc 1 1225 46 view .LVU672
	.loc 1 1225 51 view .LVU673
	.loc 1 1225 81 view .LVU674
	.loc 1 1225 148 view .LVU675
	.loc 1 1225 153 view .LVU676
	.loc 1 1225 183 view .LVU677
.LBB2212:
.LBB2204:
.LBB2200:
.LBB2196:
.LBB2193:
.LBB2191:
	.loc 1 1225 257 view .LVU678
	.loc 1 1225 17 view .LVU679
.LBB2188:
	.loc 1 1225 7 view .LVU680
	.loc 1 1225 165 view .LVU681
	.loc 1 1225 167 view .LVU682
	.loc 1 1225 177 is_stmt 0 view .LVU683
	movs	r3, #3
	str	r3, [r2, #16]!
.LVL159:
	.loc 1 1225 177 view .LVU684
.LBE2188:
.LBE2191:
	.loc 1 1225 27 is_stmt 1 view .LVU685
	.loc 1 1225 8 view .LVU686
	.loc 1 1225 148 view .LVU687
	.loc 1 1225 150 view .LVU688
	ldr	r0, .L118+4
	mov	r1, #6272
	bl	z_log_msg_static_create.constprop.0
.LVL160:
	.loc 1 1225 150 is_stmt 0 view .LVU689
	mov	sp, r5
.LBE2193:
	.loc 1 1225 108 is_stmt 1 view .LVU690
	.loc 1 1225 6 view .LVU691
.LVL161:
	.loc 1 1225 43 view .LVU692
.LBE2196:
	.loc 1 1225 7 view .LVU693
.LBE2200:
	.loc 1 1225 279 view .LVU694
	.loc 1 1225 6 view .LVU695
	.loc 1 1225 19 view .LVU696
.LBE2204:
	.loc 1 1225 7 view .LVU697
	.loc 1 1226 4 view .LVU698
.L94:
	.loc 1 1226 4 is_stmt 0 view .LVU699
.LBE2212:
	.loc 1 1247 2 is_stmt 1 view .LVU700
	.loc 1 1247 14 is_stmt 0 view .LVU701
	movs	r3, #0
	str	r3, [r4, #8]
	.loc 1 1248 2 is_stmt 1 view .LVU702
	.loc 1 1248 9 is_stmt 0 view .LVU703
	b	.L97
.LVL162:
.L100:
.LBB2213:
.LBI2213:
	.loc 3 2255 22 is_stmt 1 view .LVU704
.LBB2214:
	.loc 3 2257 2 view .LVU705
	.loc 3 2257 9 is_stmt 0 view .LVU706
	mov	r0, r10
	bl	net_buf_simple_tailroom
.LVL163:
	.loc 3 2257 9 view .LVU707
	b	.L101
.LVL164:
.L105:
	.loc 3 2257 9 view .LVU708
.LBE2214:
.LBE2213:
.LBB2215:
	.loc 1 1224 3 is_stmt 1 view .LVU709
	.loc 1 1224 8 is_stmt 0 view .LVU710
	uxtb	r2, r6
	add	r1, r7, #8
	add	r0, r7, #24
	bl	bt_uuid_create
.LVL165:
	.loc 1 1224 6 view .LVU711
	cbnz	r0, .L107
	.loc 1 1225 4 is_stmt 1 view .LVU712
.LBB2205:
	.loc 1 1225 9 view .LVU713
	.loc 1 1225 58 view .LVU714
	.loc 1 1225 15 view .LVU715
	.loc 1 1225 3 view .LVU716
.LVL166:
	.loc 1 1225 42 view .LVU717
	.loc 1 1225 177 view .LVU718
	.loc 1 1225 188 view .LVU719
	.loc 1 1225 276 view .LVU720
.LBB2201:
	.loc 1 1225 4 view .LVU721
	.loc 1 1225 6 view .LVU722
	.loc 1 1225 4 view .LVU723
.LBB2197:
	.loc 1 1225 9 view .LVU724
	.loc 1 1225 3 view .LVU725
.LBE2197:
.LBE2201:
.LBE2205:
.LBE2215:
	.loc 1 1225 4 view .LVU726
	.loc 1 1225 13 view .LVU727
	.loc 1 1225 108 view .LVU728
	.loc 1 1225 4 view .LVU729
.LBB2216:
.LBB2206:
.LBB2202:
.LBB2198:
	.loc 1 1225 13 view .LVU730
	.loc 1 1225 103 view .LVU731
	.loc 1 1225 105 view .LVU732
.LBB2194:
	.loc 1 1225 108 is_stmt 0 view .LVU733
	mov	r5, sp
.LVL167:
	.loc 1 1225 110 is_stmt 1 view .LVU734
	.loc 1 1225 121 view .LVU735
	.loc 1 1225 210 view .LVU736
	.loc 1 1225 27 view .LVU737
.LBE2194:
.LBE2198:
.LBE2202:
.LBE2206:
.LBE2216:
	.loc 1 1225 4 view .LVU738
	.loc 1 1225 369 view .LVU739
	.loc 1 1225 76 view .LVU740
	.loc 1 1225 3 view .LVU741
	.loc 1 1225 3 view .LVU742
	.loc 1 1225 3 view .LVU743
	.loc 1 1225 39 view .LVU744
	.loc 1 1225 5 view .LVU745
	.loc 1 1225 31 view .LVU746
	.loc 1 1225 57 view .LVU747
	.loc 1 1225 524 view .LVU748
	.loc 1 1225 586 view .LVU749
	.loc 1 1225 1107 view .LVU750
	.loc 1 1225 1172 view .LVU751
	.loc 1 1225 1197 view .LVU752
	.loc 1 1225 1198 view .LVU753
	.loc 1 1225 1200 view .LVU754
	.loc 1 1225 1230 view .LVU755
	.loc 1 1225 1260 view .LVU756
	.loc 1 1225 1292 view .LVU757
	.loc 1 1225 1324 view .LVU758
	.loc 1 1225 1356 view .LVU759
	.loc 1 1225 1553 view .LVU760
	.loc 1 1225 1577 view .LVU761
	.loc 1 1225 1578 view .LVU762
	.loc 1 1225 1580 view .LVU763
	.loc 1 1225 1609 view .LVU764
	.loc 1 1225 1638 view .LVU765
	.loc 1 1225 1669 view .LVU766
	.loc 1 1225 1700 view .LVU767
	.loc 1 1225 1731 view .LVU768
	.loc 1 1225 1938 view .LVU769
	.loc 1 1225 5 view .LVU770
	.loc 1 1225 23 view .LVU771
	.loc 1 1225 43 view .LVU772
	.loc 1 1225 5 view .LVU773
	.loc 1 1225 43 view .LVU774
	.loc 1 1225 14 view .LVU775
	.loc 1 1225 14 view .LVU776
	.loc 1 1225 62 view .LVU777
	.loc 1 1225 93 view .LVU778
	.loc 1 1225 127 view .LVU779
	.loc 1 1225 132 view .LVU780
	.loc 1 1225 386 view .LVU781
	.loc 1 1225 1455 view .LVU782
	.loc 1 1225 1520 view .LVU783
	.loc 1 1225 1544 view .LVU784
	.loc 1 1225 1602 view .LVU785
	.loc 1 1225 1613 view .LVU786
	.loc 1 1225 1729 view .LVU787
	.loc 1 1225 1745 view .LVU788
	.loc 1 1225 1785 view .LVU789
	.loc 1 1225 1810 view .LVU790
	.loc 1 1225 3107 view .LVU791
	.loc 1 1225 3148 view .LVU792
	.loc 1 1225 8 view .LVU793
	.loc 1 1225 31 view .LVU794
	.loc 1 1225 130 view .LVU795
	.loc 1 1225 7 view .LVU796
	.loc 1 1225 12 view .LVU797
	.loc 1 1225 237 view .LVU798
	.loc 1 1225 1190 view .LVU799
	.loc 1 1225 1255 view .LVU800
	.loc 1 1225 1279 view .LVU801
	.loc 1 1225 1308 view .LVU802
	.loc 1 1225 1319 view .LVU803
	.loc 1 1225 1406 view .LVU804
	.loc 1 1225 1422 view .LVU805
	.loc 1 1225 1462 view .LVU806
	.loc 1 1225 2726 view .LVU807
	.loc 1 1225 2767 view .LVU808
	.loc 1 1225 8 view .LVU809
	.loc 1 1225 31 view .LVU810
	.loc 1 1225 10 view .LVU811
	.loc 1 1225 6 view .LVU812
	.loc 1 1225 29 view .LVU813
	.loc 1 1225 53 view .LVU814
	.loc 1 1225 81 view .LVU815
	.loc 1 1225 257 view .LVU816
	.loc 1 1225 17 view .LVU817
.LBB2217:
.LBB2207:
.LBB2203:
.LBB2199:
.LBB2195:
	.loc 1 1225 30 view .LVU818
	.loc 1 1225 4 view .LVU819
	.loc 1 1225 4 view .LVU820
	.loc 1 1225 71 view .LVU821
	.loc 1 1225 83 is_stmt 0 view .LVU822
	sub	sp, sp, #32
	add	r2, sp, #8
.LVL168:
	.loc 1 1225 75 is_stmt 1 view .LVU823
	.loc 1 1225 485 view .LVU824
	.loc 1 1225 6 view .LVU825
	.loc 1 1225 8 view .LVU826
	.loc 1 1225 13 view .LVU827
	.loc 1 1225 11 view .LVU828
	.loc 1 1225 6 view .LVU829
	.loc 1 1225 24 view .LVU830
.LBB2192:
	.loc 1 1225 4 view .LVU831
	.loc 1 1225 369 view .LVU832
	.loc 1 1225 76 view .LVU833
.LVL169:
	.loc 1 1225 3 view .LVU834
	.loc 1 1225 3 view .LVU835
	.loc 1 1225 3 view .LVU836
	.loc 1 1225 39 view .LVU837
	.loc 1 1225 68 view .LVU838
	.loc 1 1225 94 view .LVU839
	.loc 1 1225 120 view .LVU840
	.loc 1 1225 587 view .LVU841
	.loc 1 1225 649 view .LVU842
	.loc 1 1225 1170 view .LVU843
	.loc 1 1225 1235 view .LVU844
	.loc 1 1225 1260 view .LVU845
	.loc 1 1225 1261 view .LVU846
	.loc 1 1225 1263 view .LVU847
	.loc 1 1225 1293 view .LVU848
	.loc 1 1225 1323 view .LVU849
	.loc 1 1225 1355 view .LVU850
	.loc 1 1225 1387 view .LVU851
	.loc 1 1225 1419 view .LVU852
	.loc 1 1225 1616 view .LVU853
	.loc 1 1225 1640 view .LVU854
	.loc 1 1225 1641 view .LVU855
	.loc 1 1225 1643 view .LVU856
	.loc 1 1225 1672 view .LVU857
	.loc 1 1225 1701 view .LVU858
	.loc 1 1225 1732 view .LVU859
	.loc 1 1225 1763 view .LVU860
	.loc 1 1225 1794 view .LVU861
	.loc 1 1225 2001 view .LVU862
.LBB2189:
	.loc 1 1225 3145 view .LVU863
	.loc 1 1225 3150 view .LVU864
	.loc 1 1225 3768 view .LVU865
	.loc 1 1225 0 is_stmt 0 view .LVU866
	ldr	r3, .L118+8
.LBE2189:
.LBB2190:
	.loc 1 1225 3812 view .LVU867
	strd	r3, r6, [r2, #20]
	b	.L117
.LVL170:
.L107:
	.loc 1 1225 3812 view .LVU868
.LBE2190:
.LBE2192:
.LBE2195:
.LBE2199:
.LBE2203:
.LBE2207:
	.loc 1 1228 3 is_stmt 1 view .LVU869
	.loc 1 1228 7 is_stmt 0 view .LVU870
	add	r1, r7, #24
	add	r0, r7, #44
	bl	bt_uuid_cmp
.LVL171:
.L115:
.LBE2217:
	.loc 1 1231 12 view .LVU871
	cmp	r0, #0
	bne	.L94
	.loc 1 1236 2 is_stmt 1 view .LVU872
	.loc 1 1236 12 is_stmt 0 view .LVU873
	movs	r3, #0
	strb	r3, [r4, #17]
	.loc 1 1239 2 is_stmt 1 view .LVU874
.LVL172:
.LBB2218:
.LBI2218:
	.loc 3 1493 21 view .LVU875
.LBB2219:
	.loc 3 1495 2 view .LVU876
	.loc 3 1495 9 is_stmt 0 view .LVU877
	movs	r1, #4
	add	r0, r5, #12
	bl	net_buf_simple_add
.LVL173:
	.loc 3 1495 9 view .LVU878
.LBE2219:
.LBE2218:
	.loc 1 1239 14 view .LVU879
	str	r0, [r4, #8]
	.loc 1 1240 2 is_stmt 1 view .LVU880
	.loc 1 1240 28 is_stmt 0 view .LVU881
	strh	r8, [r0]	@ unaligned
	.loc 1 1241 2 is_stmt 1 view .LVU882
	.loc 1 1241 6 is_stmt 0 view .LVU883
	ldr	r3, [r4, #8]
	b	.L116
.L104:
	.loc 1 1231 9 is_stmt 1 view .LVU884
	.loc 1 1231 13 is_stmt 0 view .LVU885
	add	r1, r7, #8
	bl	memcmp
.LVL174:
	b	.L115
.L119:
	.align	2
.L118:
	.word	.LC0
	.word	log_const_bt_att
	.word	.LC1
	.cfi_endproc
.LFE631:
	.size	find_type_cb, .-find_type_cb
	.section	.rodata.send_err_rsp.part.0.str1.1,"aMS",%progbits,1
.LC2:
	.ascii	"unable to allocate buf for error response\000"
	.section	.text.send_err_rsp.part.0,"ax",%progbits
	.align	1
	.syntax unified
	.thumb
	.thumb_func
	.type	send_err_rsp.part.0, %function
send_err_rsp.part.0:
.LFB698:
	.loc 1 802 13 is_stmt 1 view -0
	.cfi_startproc
	@ args = 0, pretend = 0, frame = 24
	@ frame_needed = 0, uses_anonymous_args = 0
.LVL175:
	.loc 1 815 3 view .LVU887
.LBB2220:
	.loc 1 815 8 view .LVU888
	.loc 1 815 57 view .LVU889
	.loc 1 815 14 view .LVU890
	.loc 1 815 2 view .LVU891
	.loc 1 815 41 view .LVU892
	.loc 1 815 176 view .LVU893
	.loc 1 815 187 view .LVU894
	.loc 1 815 275 view .LVU895
	.loc 1 815 3 view .LVU896
	.loc 1 815 3 view .LVU897
.LBB2221:
	.loc 1 815 8 view .LVU898
	.loc 1 815 2 view .LVU899
.LBE2221:
.LBE2220:
	.loc 1 815 3 view .LVU900
	.loc 1 815 12 view .LVU901
	.loc 1 815 107 view .LVU902
	.loc 1 815 3 view .LVU903
.LBB2242:
.LBB2237:
	.loc 1 815 12 view .LVU904
	.loc 1 815 102 view .LVU905
	.loc 1 815 104 view .LVU906
.LBB2222:
	.loc 1 815 109 view .LVU907
	.loc 1 815 120 view .LVU908
	.loc 1 815 209 view .LVU909
	.loc 1 815 26 view .LVU910
.LBE2222:
.LBE2237:
.LBE2242:
	.loc 1 815 3 view .LVU911
	.loc 1 815 368 view .LVU912
	.loc 1 815 75 view .LVU913
	.loc 1 815 2 view .LVU914
	.loc 1 815 2 view .LVU915
	.loc 1 815 2 view .LVU916
	.loc 1 815 38 view .LVU917
	.loc 1 815 4 view .LVU918
	.loc 1 815 30 view .LVU919
	.loc 1 815 56 view .LVU920
	.loc 1 815 79 view .LVU921
	.loc 1 815 141 view .LVU922
	.loc 1 815 198 view .LVU923
	.loc 1 815 263 view .LVU924
	.loc 1 815 288 view .LVU925
	.loc 1 815 289 view .LVU926
	.loc 1 815 291 view .LVU927
	.loc 1 815 321 view .LVU928
	.loc 1 815 351 view .LVU929
	.loc 1 815 383 view .LVU930
	.loc 1 815 415 view .LVU931
	.loc 1 815 447 view .LVU932
	.loc 1 815 644 view .LVU933
	.loc 1 815 668 view .LVU934
	.loc 1 815 669 view .LVU935
	.loc 1 815 671 view .LVU936
	.loc 1 815 700 view .LVU937
	.loc 1 815 729 view .LVU938
	.loc 1 815 760 view .LVU939
	.loc 1 815 791 view .LVU940
	.loc 1 815 822 view .LVU941
	.loc 1 815 1029 view .LVU942
	.loc 1 815 4 view .LVU943
	.loc 1 815 22 view .LVU944
	.loc 1 815 42 view .LVU945
	.loc 1 815 4 view .LVU946
	.loc 1 815 42 view .LVU947
	.loc 1 815 13 view .LVU948
	.loc 1 815 13 view .LVU949
	.loc 1 815 61 view .LVU950
	.loc 1 815 92 view .LVU951
	.loc 1 815 126 view .LVU952
	.loc 1 815 131 view .LVU953
	.loc 1 815 396 view .LVU954
	.loc 1 815 1509 view .LVU955
	.loc 1 815 1574 view .LVU956
	.loc 1 815 1598 view .LVU957
	.loc 1 815 1667 view .LVU958
	.loc 1 815 1678 view .LVU959
	.loc 1 815 1805 view .LVU960
	.loc 1 815 1821 view .LVU961
	.loc 1 815 1861 view .LVU962
	.loc 1 815 1886 view .LVU963
	.loc 1 815 3205 view .LVU964
	.loc 1 815 3246 view .LVU965
	.loc 1 815 7 view .LVU966
	.loc 1 815 30 view .LVU967
	.loc 1 815 129 view .LVU968
	.loc 1 815 5 view .LVU969
	.loc 1 815 28 view .LVU970
	.loc 1 815 52 view .LVU971
	.loc 1 815 80 view .LVU972
	.loc 1 815 256 view .LVU973
	.loc 1 815 16 view .LVU974
.LBB2243:
.LBB2238:
.LBB2233:
	.loc 1 815 29 view .LVU975
	.loc 1 815 3 view .LVU976
	.loc 1 815 3 view .LVU977
	.loc 1 815 70 view .LVU978
	.loc 1 815 70 is_stmt 0 view .LVU979
.LBE2233:
.LBE2238:
.LBE2243:
	.loc 1 802 13 view .LVU980
	push	{r0, r1, r2, r3, r4, r5, r6, lr}
	.cfi_def_cfa_offset 32
	.cfi_offset 14, -4
.LVL176:
.LBB2244:
.LBB2239:
.LBB2234:
	.loc 1 815 74 is_stmt 1 view .LVU981
	.loc 1 815 484 view .LVU982
	.loc 1 815 5 view .LVU983
	.loc 1 815 7 view .LVU984
	.loc 1 815 12 view .LVU985
	.loc 1 815 10 view .LVU986
	.loc 1 815 5 view .LVU987
	.loc 1 815 23 view .LVU988
.LBB2223:
	.loc 1 815 3 view .LVU989
	.loc 1 815 368 view .LVU990
	.loc 1 815 75 view .LVU991
.LVL177:
	.loc 1 815 2 view .LVU992
	.loc 1 815 2 view .LVU993
	.loc 1 815 2 view .LVU994
	.loc 1 815 38 view .LVU995
	.loc 1 815 67 view .LVU996
	.loc 1 815 93 view .LVU997
	.loc 1 815 119 view .LVU998
	.loc 1 815 142 view .LVU999
	.loc 1 815 204 view .LVU1000
	.loc 1 815 261 view .LVU1001
	.loc 1 815 326 view .LVU1002
	.loc 1 815 351 view .LVU1003
	.loc 1 815 352 view .LVU1004
	.loc 1 815 354 view .LVU1005
	.loc 1 815 384 view .LVU1006
	.loc 1 815 414 view .LVU1007
	.loc 1 815 446 view .LVU1008
	.loc 1 815 478 view .LVU1009
	.loc 1 815 510 view .LVU1010
	.loc 1 815 707 view .LVU1011
	.loc 1 815 731 view .LVU1012
	.loc 1 815 732 view .LVU1013
	.loc 1 815 734 view .LVU1014
	.loc 1 815 763 view .LVU1015
	.loc 1 815 792 view .LVU1016
	.loc 1 815 823 view .LVU1017
	.loc 1 815 854 view .LVU1018
	.loc 1 815 885 view .LVU1019
	.loc 1 815 1092 view .LVU1020
	.loc 1 815 4 view .LVU1021
	.loc 1 815 22 view .LVU1022
	.loc 1 815 42 view .LVU1023
	.loc 1 815 4 view .LVU1024
	.loc 1 815 42 view .LVU1025
	.loc 1 815 13 view .LVU1026
	.loc 1 815 13 view .LVU1027
	.loc 1 815 61 view .LVU1028
	.loc 1 815 92 view .LVU1029
	.loc 1 815 126 view .LVU1030
.LBB2224:
	.loc 1 815 131 view .LVU1031
	.loc 1 815 396 view .LVU1032
	.loc 1 815 1509 view .LVU1033
	.loc 1 815 1574 view .LVU1034
.LBE2224:
.LBE2223:
.LBE2234:
.LBE2239:
.LBE2244:
	.loc 1 815 1598 view .LVU1035
	.loc 1 815 1667 view .LVU1036
	.loc 1 815 1678 view .LVU1037
	.loc 1 815 1805 view .LVU1038
.LBB2245:
.LBB2240:
.LBB2235:
.LBB2229:
.LBB2225:
	.loc 1 815 1821 view .LVU1039
	.loc 1 815 1861 view .LVU1040
	.loc 1 815 1886 view .LVU1041
	.loc 1 815 3205 view .LVU1042
	.loc 1 815 3243 view .LVU1043
	.loc 1 815 3248 view .LVU1044
	.loc 1 815 3932 view .LVU1045
	.loc 1 815 0 is_stmt 0 view .LVU1046
	ldr	r3, .L121
	str	r3, [sp, #20]
	.loc 1 815 3246 is_stmt 1 view .LVU1047
	.loc 1 815 7 view .LVU1048
.LVL178:
	.loc 1 815 30 view .LVU1049
	.loc 1 815 30 is_stmt 0 view .LVU1050
.LBE2225:
	.loc 1 815 129 is_stmt 1 view .LVU1051
	.loc 1 815 5 view .LVU1052
	.loc 1 815 28 view .LVU1053
	.loc 1 815 52 view .LVU1054
	.loc 1 815 80 view .LVU1055
.LBE2229:
.LBE2235:
.LBE2240:
.LBE2245:
	.loc 1 815 6 view .LVU1056
	.loc 1 815 45 view .LVU1057
	.loc 1 815 50 view .LVU1058
	.loc 1 815 80 view .LVU1059
	.loc 1 815 147 view .LVU1060
	.loc 1 815 152 view .LVU1061
	.loc 1 815 182 view .LVU1062
.LBB2246:
.LBB2241:
.LBB2236:
.LBB2230:
	.loc 1 815 256 view .LVU1063
	.loc 1 815 16 view .LVU1064
.LBB2226:
	.loc 1 815 6 view .LVU1065
	.loc 1 815 164 view .LVU1066
	.loc 1 815 166 view .LVU1067
.LBE2226:
.LBE2230:
	.loc 1 815 149 is_stmt 0 view .LVU1068
	ldr	r0, .L121+4
.LBB2231:
.LBB2227:
	.loc 1 815 176 view .LVU1069
	movs	r3, #2
.LBE2227:
.LBE2231:
	.loc 1 815 149 view .LVU1070
	add	r2, sp, #16
.LVL179:
	.loc 1 815 149 view .LVU1071
	mov	r1, #4160
.LBB2232:
.LBB2228:
	.loc 1 815 176 view .LVU1072
	str	r3, [sp, #16]
.LVL180:
	.loc 1 815 176 view .LVU1073
.LBE2228:
.LBE2232:
	.loc 1 815 26 is_stmt 1 view .LVU1074
	.loc 1 815 7 view .LVU1075
	.loc 1 815 147 view .LVU1076
	.loc 1 815 149 view .LVU1077
	bl	z_log_msg_static_create.constprop.0
.LVL181:
	.loc 1 815 149 is_stmt 0 view .LVU1078
.LBE2236:
	.loc 1 815 107 is_stmt 1 view .LVU1079
	.loc 1 815 5 view .LVU1080
	.loc 1 815 42 view .LVU1081
.LBE2241:
	.loc 1 815 6 view .LVU1082
	.loc 1 815 278 view .LVU1083
	.loc 1 815 5 view .LVU1084
	.loc 1 815 18 view .LVU1085
.LBE2246:
	.loc 1 815 6 view .LVU1086
	.loc 1 816 3 view .LVU1087
	.loc 1 825 1 is_stmt 0 view .LVU1088
	add	sp, sp, #28
	.cfi_def_cfa_offset 4
.LVL182:
	.loc 1 825 1 view .LVU1089
	@ sp needed
	ldr	pc, [sp], #4
.LVL183:
.L122:
	.loc 1 825 1 view .LVU1090
	.align	2
.L121:
	.word	.LC2
	.word	log_const_bt_att
	.cfi_endproc
.LFE698:
	.size	send_err_rsp.part.0, .-send_err_rsp.part.0
	.section	.rodata.att_get.str1.1,"aMS",%progbits,1
.LC3:
	.ascii	"Not connected\000"
.LC4:
	.ascii	"Unable to find ATT channel\000"
.LC5:
	.ascii	"ATT channel not connected\000"
	.section	.text.att_get,"ax",%progbits
	.align	1
	.syntax unified
	.thumb
	.thumb_func
	.type	att_get, %function
att_get:
.LVL184:
.LFB661:
	.loc 1 2971 1 is_stmt 1 view -0
	.cfi_startproc
	@ args = 0, pretend = 0, frame = 24
	@ frame_needed = 0, uses_anonymous_args = 0
	.loc 1 2972 2 view .LVU1092
	.loc 1 2973 2 view .LVU1093
	.loc 1 2975 2 view .LVU1094
	.loc 1 2971 1 is_stmt 0 view .LVU1095
	push	{r0, r1, r2, r3, r4, r5, r6, lr}
	.cfi_def_cfa_offset 32
	.cfi_offset 14, -4
	.loc 1 2975 5 view .LVU1096
	ldrb	r3, [r0, #13]	@ zero_extendqisi2
	cmp	r3, #7
	beq	.L124
	.loc 1 2976 3 is_stmt 1 view .LVU1097
.LBB2269:
	.loc 1 2976 8 view .LVU1098
	.loc 1 2976 57 view .LVU1099
	.loc 1 2976 14 view .LVU1100
	.loc 1 2976 2 view .LVU1101
.LVL185:
	.loc 1 2976 41 view .LVU1102
	.loc 1 2976 176 view .LVU1103
	.loc 1 2976 187 view .LVU1104
	.loc 1 2976 275 view .LVU1105
	.loc 1 2976 3 view .LVU1106
	.loc 1 2976 3 view .LVU1107
.LBB2270:
	.loc 1 2976 8 view .LVU1108
	.loc 1 2976 2 view .LVU1109
.LBE2270:
.LBE2269:
	.loc 1 2976 3 view .LVU1110
	.loc 1 2976 12 view .LVU1111
	.loc 1 2976 107 view .LVU1112
	.loc 1 2976 3 view .LVU1113
.LBB2285:
.LBB2281:
	.loc 1 2976 12 view .LVU1114
	.loc 1 2976 102 view .LVU1115
	.loc 1 2976 104 view .LVU1116
.LBB2271:
	.loc 1 2976 109 view .LVU1117
	.loc 1 2976 120 view .LVU1118
	.loc 1 2976 209 view .LVU1119
	.loc 1 2976 26 view .LVU1120
.LBE2271:
.LBE2281:
.LBE2285:
	.loc 1 2976 3 view .LVU1121
	.loc 1 2976 368 view .LVU1122
	.loc 1 2976 75 view .LVU1123
	.loc 1 2976 2 view .LVU1124
	.loc 1 2976 2 view .LVU1125
	.loc 1 2976 2 view .LVU1126
	.loc 1 2976 38 view .LVU1127
	.loc 1 2976 4 view .LVU1128
	.loc 1 2976 30 view .LVU1129
	.loc 1 2976 56 view .LVU1130
	.loc 1 2976 79 view .LVU1131
	.loc 1 2976 141 view .LVU1132
	.loc 1 2976 198 view .LVU1133
	.loc 1 2976 263 view .LVU1134
	.loc 1 2976 288 view .LVU1135
	.loc 1 2976 289 view .LVU1136
	.loc 1 2976 291 view .LVU1137
	.loc 1 2976 321 view .LVU1138
	.loc 1 2976 351 view .LVU1139
	.loc 1 2976 383 view .LVU1140
	.loc 1 2976 415 view .LVU1141
	.loc 1 2976 447 view .LVU1142
	.loc 1 2976 644 view .LVU1143
	.loc 1 2976 668 view .LVU1144
	.loc 1 2976 669 view .LVU1145
	.loc 1 2976 671 view .LVU1146
	.loc 1 2976 700 view .LVU1147
	.loc 1 2976 729 view .LVU1148
	.loc 1 2976 760 view .LVU1149
	.loc 1 2976 791 view .LVU1150
	.loc 1 2976 822 view .LVU1151
	.loc 1 2976 1029 view .LVU1152
	.loc 1 2976 4 view .LVU1153
	.loc 1 2976 22 view .LVU1154
	.loc 1 2976 42 view .LVU1155
	.loc 1 2976 4 view .LVU1156
	.loc 1 2976 42 view .LVU1157
	.loc 1 2976 13 view .LVU1158
	.loc 1 2976 13 view .LVU1159
	.loc 1 2976 61 view .LVU1160
	.loc 1 2976 92 view .LVU1161
	.loc 1 2976 126 view .LVU1162
	.loc 1 2976 131 view .LVU1163
	.loc 1 2976 368 view .LVU1164
	.loc 1 2976 1369 view .LVU1165
	.loc 1 2976 1434 view .LVU1166
	.loc 1 2976 1458 view .LVU1167
	.loc 1 2976 1499 view .LVU1168
	.loc 1 2976 1510 view .LVU1169
	.loc 1 2976 1609 view .LVU1170
	.loc 1 2976 1625 view .LVU1171
	.loc 1 2976 1665 view .LVU1172
	.loc 1 2976 1690 view .LVU1173
	.loc 1 2976 2953 view .LVU1174
	.loc 1 2976 2994 view .LVU1175
	.loc 1 2976 7 view .LVU1176
	.loc 1 2976 30 view .LVU1177
	.loc 1 2976 129 view .LVU1178
	.loc 1 2976 5 view .LVU1179
	.loc 1 2976 28 view .LVU1180
	.loc 1 2976 52 view .LVU1181
	.loc 1 2976 80 view .LVU1182
	.loc 1 2976 256 view .LVU1183
	.loc 1 2976 16 view .LVU1184
.LBB2286:
.LBB2282:
.LBB2278:
	.loc 1 2976 29 view .LVU1185
	.loc 1 2976 3 view .LVU1186
	.loc 1 2976 3 view .LVU1187
	.loc 1 2976 70 view .LVU1188
	.loc 1 2976 74 view .LVU1189
	.loc 1 2976 484 view .LVU1190
	.loc 1 2976 5 view .LVU1191
	.loc 1 2976 7 view .LVU1192
	.loc 1 2976 12 view .LVU1193
	.loc 1 2976 10 view .LVU1194
	.loc 1 2976 5 view .LVU1195
	.loc 1 2976 23 view .LVU1196
.LBB2272:
	.loc 1 2976 3 view .LVU1197
	.loc 1 2976 368 view .LVU1198
	.loc 1 2976 75 view .LVU1199
.LVL186:
	.loc 1 2976 2 view .LVU1200
	.loc 1 2976 2 view .LVU1201
	.loc 1 2976 2 view .LVU1202
	.loc 1 2976 38 view .LVU1203
	.loc 1 2976 67 view .LVU1204
	.loc 1 2976 93 view .LVU1205
	.loc 1 2976 119 view .LVU1206
	.loc 1 2976 142 view .LVU1207
	.loc 1 2976 204 view .LVU1208
	.loc 1 2976 261 view .LVU1209
	.loc 1 2976 326 view .LVU1210
	.loc 1 2976 351 view .LVU1211
	.loc 1 2976 352 view .LVU1212
	.loc 1 2976 354 view .LVU1213
	.loc 1 2976 384 view .LVU1214
	.loc 1 2976 414 view .LVU1215
	.loc 1 2976 446 view .LVU1216
	.loc 1 2976 478 view .LVU1217
	.loc 1 2976 510 view .LVU1218
	.loc 1 2976 707 view .LVU1219
	.loc 1 2976 731 view .LVU1220
	.loc 1 2976 732 view .LVU1221
	.loc 1 2976 734 view .LVU1222
	.loc 1 2976 763 view .LVU1223
	.loc 1 2976 792 view .LVU1224
	.loc 1 2976 823 view .LVU1225
	.loc 1 2976 854 view .LVU1226
	.loc 1 2976 885 view .LVU1227
	.loc 1 2976 1092 view .LVU1228
	.loc 1 2976 4 view .LVU1229
	.loc 1 2976 22 view .LVU1230
	.loc 1 2976 42 view .LVU1231
	.loc 1 2976 4 view .LVU1232
	.loc 1 2976 42 view .LVU1233
	.loc 1 2976 13 view .LVU1234
	.loc 1 2976 13 view .LVU1235
	.loc 1 2976 61 view .LVU1236
	.loc 1 2976 92 view .LVU1237
	.loc 1 2976 126 view .LVU1238
.LBB2273:
	.loc 1 2976 131 view .LVU1239
	.loc 1 2976 368 view .LVU1240
	.loc 1 2976 1369 view .LVU1241
	.loc 1 2976 1434 view .LVU1242
.LBE2273:
.LBE2272:
.LBE2278:
.LBE2282:
.LBE2286:
	.loc 1 2976 1458 view .LVU1243
	.loc 1 2976 1499 view .LVU1244
	.loc 1 2976 1510 view .LVU1245
	.loc 1 2976 1609 view .LVU1246
.LBB2287:
.LBB2283:
.LBB2279:
.LBB2276:
.LBB2274:
	.loc 1 2976 1625 view .LVU1247
	.loc 1 2976 1665 view .LVU1248
	.loc 1 2976 1690 view .LVU1249
	.loc 1 2976 2953 view .LVU1250
	.loc 1 2976 2991 view .LVU1251
	.loc 1 2976 2996 view .LVU1252
	.loc 1 2976 3512 view .LVU1253
	.loc 1 2976 0 is_stmt 0 view .LVU1254
	ldr	r3, .L131
	str	r3, [sp, #20]
	.loc 1 2976 2994 is_stmt 1 view .LVU1255
	.loc 1 2976 7 view .LVU1256
.LVL187:
	.loc 1 2976 30 view .LVU1257
	.loc 1 2976 30 is_stmt 0 view .LVU1258
.LBE2274:
	.loc 1 2976 129 is_stmt 1 view .LVU1259
	.loc 1 2976 5 view .LVU1260
	.loc 1 2976 28 view .LVU1261
	.loc 1 2976 52 view .LVU1262
	.loc 1 2976 80 view .LVU1263
.LBE2276:
.LBE2279:
.LBE2283:
.LBE2287:
	.loc 1 2976 6 view .LVU1264
	.loc 1 2976 45 view .LVU1265
	.loc 1 2976 50 view .LVU1266
	.loc 1 2976 80 view .LVU1267
	.loc 1 2976 147 view .LVU1268
	.loc 1 2976 152 view .LVU1269
	.loc 1 2976 182 view .LVU1270
.LBB2288:
.LBB2284:
.LBB2280:
.LBB2277:
	.loc 1 2976 256 view .LVU1271
	.loc 1 2976 16 view .LVU1272
.LBB2275:
	.loc 1 2976 6 view .LVU1273
	.loc 1 2976 164 view .LVU1274
	.loc 1 2976 166 view .LVU1275
	.loc 1 2976 176 is_stmt 0 view .LVU1276
	movs	r3, #2
	str	r3, [sp, #16]
.LVL188:
	.loc 1 2976 176 view .LVU1277
.LBE2275:
.LBE2277:
	.loc 1 2976 26 is_stmt 1 view .LVU1278
	.loc 1 2976 7 view .LVU1279
	.loc 1 2976 147 view .LVU1280
	.loc 1 2976 149 view .LVU1281
	add	r2, sp, #16
.LVL189:
	.loc 1 2976 149 is_stmt 0 view .LVU1282
	mov	r1, #4224
.LVL190:
.L129:
	.loc 1 2976 149 view .LVU1283
.LBE2280:
.LBE2284:
.LBE2288:
.LBB2289:
.LBB2290:
.LBB2291:
	.loc 1 2982 149 view .LVU1284
	ldr	r0, .L131+4
	bl	z_log_msg_static_create.constprop.0
.LVL191:
.LBE2291:
	.loc 1 2982 107 is_stmt 1 view .LVU1285
	.loc 1 2982 5 view .LVU1286
.LVL192:
	.loc 1 2982 42 view .LVU1287
.LBE2290:
	.loc 1 2982 6 view .LVU1288
	.loc 1 2982 278 view .LVU1289
	.loc 1 2982 5 view .LVU1290
	.loc 1 2982 18 view .LVU1291
.LBE2289:
	.loc 1 2982 6 view .LVU1292
	.loc 1 2983 3 view .LVU1293
	.loc 1 2977 9 is_stmt 0 view .LVU1294
	movs	r0, #0
.LVL193:
.L123:
	.loc 1 2993 1 view .LVU1295
	add	sp, sp, #28
	.cfi_remember_state
	.cfi_def_cfa_offset 4
	@ sp needed
	ldr	pc, [sp], #4
.LVL194:
.L124:
	.cfi_restore_state
	.loc 1 2980 2 is_stmt 1 view .LVU1296
	.loc 1 2980 9 is_stmt 0 view .LVU1297
	movs	r1, #4
	bl	bt_l2cap_le_lookup_rx_cid
.LVL195:
	.loc 1 2981 2 is_stmt 1 view .LVU1298
	.loc 1 2981 5 is_stmt 0 view .LVU1299
	cbnz	r0, .L126
	.loc 1 2982 3 is_stmt 1 view .LVU1300
.LBB2307:
	.loc 1 2982 8 view .LVU1301
	.loc 1 2982 57 view .LVU1302
	.loc 1 2982 14 view .LVU1303
	.loc 1 2982 2 view .LVU1304
.LVL196:
	.loc 1 2982 41 view .LVU1305
	.loc 1 2982 176 view .LVU1306
	.loc 1 2982 187 view .LVU1307
	.loc 1 2982 275 view .LVU1308
	.loc 1 2982 3 view .LVU1309
	.loc 1 2982 3 view .LVU1310
.LBB2302:
	.loc 1 2982 8 view .LVU1311
	.loc 1 2982 2 view .LVU1312
.LBE2302:
.LBE2307:
	.loc 1 2982 3 view .LVU1313
	.loc 1 2982 12 view .LVU1314
	.loc 1 2982 107 view .LVU1315
	.loc 1 2982 3 view .LVU1316
.LBB2308:
.LBB2303:
	.loc 1 2982 12 view .LVU1317
	.loc 1 2982 102 view .LVU1318
	.loc 1 2982 104 view .LVU1319
.LBB2298:
	.loc 1 2982 109 view .LVU1320
	.loc 1 2982 120 view .LVU1321
	.loc 1 2982 209 view .LVU1322
	.loc 1 2982 26 view .LVU1323
.LBE2298:
.LBE2303:
.LBE2308:
	.loc 1 2982 3 view .LVU1324
	.loc 1 2982 368 view .LVU1325
	.loc 1 2982 75 view .LVU1326
	.loc 1 2982 2 view .LVU1327
	.loc 1 2982 2 view .LVU1328
	.loc 1 2982 2 view .LVU1329
	.loc 1 2982 38 view .LVU1330
	.loc 1 2982 4 view .LVU1331
	.loc 1 2982 30 view .LVU1332
	.loc 1 2982 56 view .LVU1333
	.loc 1 2982 79 view .LVU1334
	.loc 1 2982 141 view .LVU1335
	.loc 1 2982 198 view .LVU1336
	.loc 1 2982 263 view .LVU1337
	.loc 1 2982 288 view .LVU1338
	.loc 1 2982 289 view .LVU1339
	.loc 1 2982 291 view .LVU1340
	.loc 1 2982 321 view .LVU1341
	.loc 1 2982 351 view .LVU1342
	.loc 1 2982 383 view .LVU1343
	.loc 1 2982 415 view .LVU1344
	.loc 1 2982 447 view .LVU1345
	.loc 1 2982 644 view .LVU1346
	.loc 1 2982 668 view .LVU1347
	.loc 1 2982 669 view .LVU1348
	.loc 1 2982 671 view .LVU1349
	.loc 1 2982 700 view .LVU1350
	.loc 1 2982 729 view .LVU1351
	.loc 1 2982 760 view .LVU1352
	.loc 1 2982 791 view .LVU1353
	.loc 1 2982 822 view .LVU1354
	.loc 1 2982 1029 view .LVU1355
	.loc 1 2982 4 view .LVU1356
	.loc 1 2982 22 view .LVU1357
	.loc 1 2982 42 view .LVU1358
	.loc 1 2982 4 view .LVU1359
	.loc 1 2982 42 view .LVU1360
	.loc 1 2982 13 view .LVU1361
	.loc 1 2982 13 view .LVU1362
	.loc 1 2982 61 view .LVU1363
	.loc 1 2982 92 view .LVU1364
	.loc 1 2982 126 view .LVU1365
	.loc 1 2982 131 view .LVU1366
	.loc 1 2982 381 view .LVU1367
	.loc 1 2982 1434 view .LVU1368
	.loc 1 2982 1499 view .LVU1369
	.loc 1 2982 1523 view .LVU1370
	.loc 1 2982 1577 view .LVU1371
	.loc 1 2982 1588 view .LVU1372
	.loc 1 2982 1700 view .LVU1373
	.loc 1 2982 1716 view .LVU1374
	.loc 1 2982 1756 view .LVU1375
	.loc 1 2982 1781 view .LVU1376
	.loc 1 2982 3070 view .LVU1377
	.loc 1 2982 3111 view .LVU1378
	.loc 1 2982 7 view .LVU1379
	.loc 1 2982 30 view .LVU1380
	.loc 1 2982 129 view .LVU1381
	.loc 1 2982 5 view .LVU1382
	.loc 1 2982 28 view .LVU1383
	.loc 1 2982 52 view .LVU1384
	.loc 1 2982 80 view .LVU1385
	.loc 1 2982 256 view .LVU1386
	.loc 1 2982 16 view .LVU1387
.LBB2309:
.LBB2304:
.LBB2299:
	.loc 1 2982 29 view .LVU1388
	.loc 1 2982 3 view .LVU1389
	.loc 1 2982 3 view .LVU1390
	.loc 1 2982 70 view .LVU1391
	.loc 1 2982 74 view .LVU1392
	.loc 1 2982 484 view .LVU1393
	.loc 1 2982 5 view .LVU1394
	.loc 1 2982 7 view .LVU1395
	.loc 1 2982 12 view .LVU1396
	.loc 1 2982 10 view .LVU1397
	.loc 1 2982 5 view .LVU1398
	.loc 1 2982 23 view .LVU1399
.LBB2292:
	.loc 1 2982 3 view .LVU1400
	.loc 1 2982 368 view .LVU1401
	.loc 1 2982 75 view .LVU1402
.LVL197:
	.loc 1 2982 2 view .LVU1403
	.loc 1 2982 2 view .LVU1404
	.loc 1 2982 2 view .LVU1405
	.loc 1 2982 38 view .LVU1406
	.loc 1 2982 67 view .LVU1407
	.loc 1 2982 93 view .LVU1408
	.loc 1 2982 119 view .LVU1409
	.loc 1 2982 142 view .LVU1410
	.loc 1 2982 204 view .LVU1411
	.loc 1 2982 261 view .LVU1412
	.loc 1 2982 326 view .LVU1413
	.loc 1 2982 351 view .LVU1414
	.loc 1 2982 352 view .LVU1415
	.loc 1 2982 354 view .LVU1416
	.loc 1 2982 384 view .LVU1417
	.loc 1 2982 414 view .LVU1418
	.loc 1 2982 446 view .LVU1419
	.loc 1 2982 478 view .LVU1420
	.loc 1 2982 510 view .LVU1421
	.loc 1 2982 707 view .LVU1422
	.loc 1 2982 731 view .LVU1423
	.loc 1 2982 732 view .LVU1424
	.loc 1 2982 734 view .LVU1425
	.loc 1 2982 763 view .LVU1426
	.loc 1 2982 792 view .LVU1427
	.loc 1 2982 823 view .LVU1428
	.loc 1 2982 854 view .LVU1429
	.loc 1 2982 885 view .LVU1430
	.loc 1 2982 1092 view .LVU1431
	.loc 1 2982 4 view .LVU1432
	.loc 1 2982 22 view .LVU1433
	.loc 1 2982 42 view .LVU1434
	.loc 1 2982 4 view .LVU1435
	.loc 1 2982 42 view .LVU1436
	.loc 1 2982 13 view .LVU1437
	.loc 1 2982 13 view .LVU1438
	.loc 1 2982 61 view .LVU1439
	.loc 1 2982 92 view .LVU1440
	.loc 1 2982 126 view .LVU1441
.LBB2293:
	.loc 1 2982 131 view .LVU1442
	.loc 1 2982 381 view .LVU1443
	.loc 1 2982 1434 view .LVU1444
	.loc 1 2982 1499 view .LVU1445
.LBE2293:
.LBE2292:
.LBE2299:
.LBE2304:
.LBE2309:
	.loc 1 2982 1523 view .LVU1446
	.loc 1 2982 1577 view .LVU1447
	.loc 1 2982 1588 view .LVU1448
	.loc 1 2982 1700 view .LVU1449
.LBB2310:
.LBB2305:
.LBB2300:
.LBB2296:
.LBB2294:
	.loc 1 2982 1716 view .LVU1450
	.loc 1 2982 1756 view .LVU1451
	.loc 1 2982 1781 view .LVU1452
	.loc 1 2982 3070 view .LVU1453
	.loc 1 2982 3108 view .LVU1454
	.loc 1 2982 3113 view .LVU1455
	.loc 1 2982 3707 view .LVU1456
	.loc 1 2982 0 is_stmt 0 view .LVU1457
	ldr	r3, .L131+8
.LVL198:
.L130:
	.loc 1 2982 0 view .LVU1458
	str	r3, [sp, #20]
	.loc 1 2982 3111 is_stmt 1 view .LVU1459
	.loc 1 2982 7 view .LVU1460
.LVL199:
	.loc 1 2982 30 view .LVU1461
	.loc 1 2982 30 is_stmt 0 view .LVU1462
.LBE2294:
	.loc 1 2982 129 is_stmt 1 view .LVU1463
	.loc 1 2982 5 view .LVU1464
	.loc 1 2982 28 view .LVU1465
	.loc 1 2982 52 view .LVU1466
	.loc 1 2982 80 view .LVU1467
.LBE2296:
.LBE2300:
.LBE2305:
.LBE2310:
	.loc 1 2982 6 view .LVU1468
	.loc 1 2982 45 view .LVU1469
	.loc 1 2982 50 view .LVU1470
	.loc 1 2982 80 view .LVU1471
	.loc 1 2982 147 view .LVU1472
	.loc 1 2982 152 view .LVU1473
	.loc 1 2982 182 view .LVU1474
.LBB2311:
.LBB2306:
.LBB2301:
.LBB2297:
	.loc 1 2982 256 view .LVU1475
	.loc 1 2982 16 view .LVU1476
.LBB2295:
	.loc 1 2982 6 view .LVU1477
	.loc 1 2982 164 view .LVU1478
	.loc 1 2982 166 view .LVU1479
	.loc 1 2982 176 is_stmt 0 view .LVU1480
	movs	r3, #2
	str	r3, [sp, #16]
.LVL200:
	.loc 1 2982 176 view .LVU1481
.LBE2295:
.LBE2297:
	.loc 1 2982 26 is_stmt 1 view .LVU1482
	.loc 1 2982 7 view .LVU1483
	.loc 1 2982 147 view .LVU1484
	.loc 1 2982 149 view .LVU1485
	add	r2, sp, #16
	mov	r1, #4160
	b	.L129
.LVL201:
.L126:
	.loc 1 2982 149 is_stmt 0 view .LVU1486
.LBE2301:
.LBE2306:
.LBE2311:
	.loc 1 2986 2 is_stmt 1 view .LVU1487
	.loc 1 2987 2 view .LVU1488
.LBB2312:
.LBI2312:
	.file 7 "/home/g/mise-work/zmk-firmware/zmk/zephyr/include/zephyr/sys/atomic.h"
	.loc 7 131 19 view .LVU1489
.LBB2313:
	.loc 7 133 2 view .LVU1490
.LBB2314:
.LBI2314:
	.file 8 "/home/g/mise-work/zmk-firmware/zmk/zephyr/include/zephyr/sys/atomic_builtin.h"
	.loc 8 159 28 view .LVU1491
.LBB2315:
	.loc 8 161 2 view .LVU1492
	.loc 8 161 9 is_stmt 0 view .LVU1493
	dmb	ish
	ldr	r3, [r0, #48]
	dmb	ish
.LVL202:
	.loc 8 161 9 view .LVU1494
.LBE2315:
.LBE2314:
	.loc 7 135 2 is_stmt 1 view .LVU1495
	.loc 7 135 2 is_stmt 0 view .LVU1496
.LBE2313:
.LBE2312:
	.loc 1 2987 5 view .LVU1497
	lsls	r3, r3, #29
	bmi	.L128
	.loc 1 2988 3 is_stmt 1 view .LVU1498
.LBB2316:
	.loc 1 2988 8 view .LVU1499
	.loc 1 2988 57 view .LVU1500
	.loc 1 2988 14 view .LVU1501
	.loc 1 2988 2 view .LVU1502
.LVL203:
	.loc 1 2988 41 view .LVU1503
	.loc 1 2988 176 view .LVU1504
	.loc 1 2988 187 view .LVU1505
	.loc 1 2988 275 view .LVU1506
	.loc 1 2988 3 view .LVU1507
	.loc 1 2988 3 view .LVU1508
.LBB2317:
	.loc 1 2988 8 view .LVU1509
	.loc 1 2988 2 view .LVU1510
.LBE2317:
.LBE2316:
	.loc 1 2988 3 view .LVU1511
	.loc 1 2988 12 view .LVU1512
	.loc 1 2988 107 view .LVU1513
	.loc 1 2988 3 view .LVU1514
.LBB2328:
.LBB2325:
	.loc 1 2988 12 view .LVU1515
	.loc 1 2988 102 view .LVU1516
	.loc 1 2988 104 view .LVU1517
.LBB2318:
	.loc 1 2988 109 view .LVU1518
	.loc 1 2988 120 view .LVU1519
	.loc 1 2988 209 view .LVU1520
	.loc 1 2988 26 view .LVU1521
.LBE2318:
.LBE2325:
.LBE2328:
	.loc 1 2988 3 view .LVU1522
	.loc 1 2988 368 view .LVU1523
	.loc 1 2988 75 view .LVU1524
	.loc 1 2988 2 view .LVU1525
	.loc 1 2988 2 view .LVU1526
	.loc 1 2988 2 view .LVU1527
	.loc 1 2988 38 view .LVU1528
	.loc 1 2988 4 view .LVU1529
	.loc 1 2988 30 view .LVU1530
	.loc 1 2988 56 view .LVU1531
	.loc 1 2988 79 view .LVU1532
	.loc 1 2988 141 view .LVU1533
	.loc 1 2988 198 view .LVU1534
	.loc 1 2988 263 view .LVU1535
	.loc 1 2988 288 view .LVU1536
	.loc 1 2988 289 view .LVU1537
	.loc 1 2988 291 view .LVU1538
	.loc 1 2988 321 view .LVU1539
	.loc 1 2988 351 view .LVU1540
	.loc 1 2988 383 view .LVU1541
	.loc 1 2988 415 view .LVU1542
	.loc 1 2988 447 view .LVU1543
	.loc 1 2988 644 view .LVU1544
	.loc 1 2988 668 view .LVU1545
	.loc 1 2988 669 view .LVU1546
	.loc 1 2988 671 view .LVU1547
	.loc 1 2988 700 view .LVU1548
	.loc 1 2988 729 view .LVU1549
	.loc 1 2988 760 view .LVU1550
	.loc 1 2988 791 view .LVU1551
	.loc 1 2988 822 view .LVU1552
	.loc 1 2988 1029 view .LVU1553
	.loc 1 2988 4 view .LVU1554
	.loc 1 2988 22 view .LVU1555
	.loc 1 2988 42 view .LVU1556
	.loc 1 2988 4 view .LVU1557
	.loc 1 2988 42 view .LVU1558
	.loc 1 2988 13 view .LVU1559
	.loc 1 2988 13 view .LVU1560
	.loc 1 2988 61 view .LVU1561
	.loc 1 2988 92 view .LVU1562
	.loc 1 2988 126 view .LVU1563
	.loc 1 2988 131 view .LVU1564
	.loc 1 2988 380 view .LVU1565
	.loc 1 2988 1429 view .LVU1566
	.loc 1 2988 1494 view .LVU1567
	.loc 1 2988 1518 view .LVU1568
	.loc 1 2988 1571 view .LVU1569
	.loc 1 2988 1582 view .LVU1570
	.loc 1 2988 1693 view .LVU1571
	.loc 1 2988 1709 view .LVU1572
	.loc 1 2988 1749 view .LVU1573
	.loc 1 2988 1774 view .LVU1574
	.loc 1 2988 3061 view .LVU1575
	.loc 1 2988 3102 view .LVU1576
	.loc 1 2988 7 view .LVU1577
	.loc 1 2988 30 view .LVU1578
	.loc 1 2988 129 view .LVU1579
	.loc 1 2988 5 view .LVU1580
	.loc 1 2988 28 view .LVU1581
	.loc 1 2988 52 view .LVU1582
	.loc 1 2988 80 view .LVU1583
	.loc 1 2988 256 view .LVU1584
	.loc 1 2988 16 view .LVU1585
.LBB2329:
.LBB2326:
.LBB2323:
	.loc 1 2988 29 view .LVU1586
	.loc 1 2988 3 view .LVU1587
	.loc 1 2988 3 view .LVU1588
	.loc 1 2988 70 view .LVU1589
	.loc 1 2988 74 view .LVU1590
	.loc 1 2988 484 view .LVU1591
	.loc 1 2988 5 view .LVU1592
	.loc 1 2988 7 view .LVU1593
	.loc 1 2988 12 view .LVU1594
	.loc 1 2988 10 view .LVU1595
	.loc 1 2988 5 view .LVU1596
	.loc 1 2988 23 view .LVU1597
.LBB2319:
	.loc 1 2988 3 view .LVU1598
	.loc 1 2988 368 view .LVU1599
	.loc 1 2988 75 view .LVU1600
.LVL204:
	.loc 1 2988 2 view .LVU1601
	.loc 1 2988 2 view .LVU1602
	.loc 1 2988 2 view .LVU1603
	.loc 1 2988 38 view .LVU1604
	.loc 1 2988 67 view .LVU1605
	.loc 1 2988 93 view .LVU1606
	.loc 1 2988 119 view .LVU1607
	.loc 1 2988 142 view .LVU1608
	.loc 1 2988 204 view .LVU1609
	.loc 1 2988 261 view .LVU1610
	.loc 1 2988 326 view .LVU1611
	.loc 1 2988 351 view .LVU1612
	.loc 1 2988 352 view .LVU1613
	.loc 1 2988 354 view .LVU1614
	.loc 1 2988 384 view .LVU1615
	.loc 1 2988 414 view .LVU1616
	.loc 1 2988 446 view .LVU1617
	.loc 1 2988 478 view .LVU1618
	.loc 1 2988 510 view .LVU1619
	.loc 1 2988 707 view .LVU1620
	.loc 1 2988 731 view .LVU1621
	.loc 1 2988 732 view .LVU1622
	.loc 1 2988 734 view .LVU1623
	.loc 1 2988 763 view .LVU1624
	.loc 1 2988 792 view .LVU1625
	.loc 1 2988 823 view .LVU1626
	.loc 1 2988 854 view .LVU1627
	.loc 1 2988 885 view .LVU1628
	.loc 1 2988 1092 view .LVU1629
	.loc 1 2988 4 view .LVU1630
	.loc 1 2988 22 view .LVU1631
	.loc 1 2988 42 view .LVU1632
	.loc 1 2988 4 view .LVU1633
	.loc 1 2988 42 view .LVU1634
	.loc 1 2988 13 view .LVU1635
	.loc 1 2988 13 view .LVU1636
	.loc 1 2988 61 view .LVU1637
	.loc 1 2988 92 view .LVU1638
	.loc 1 2988 126 view .LVU1639
.LBB2320:
	.loc 1 2988 131 view .LVU1640
	.loc 1 2988 380 view .LVU1641
	.loc 1 2988 1429 view .LVU1642
	.loc 1 2988 1494 view .LVU1643
.LBE2320:
.LBE2319:
.LBE2323:
.LBE2326:
.LBE2329:
	.loc 1 2988 1518 view .LVU1644
	.loc 1 2988 1571 view .LVU1645
	.loc 1 2988 1582 view .LVU1646
	.loc 1 2988 1693 view .LVU1647
.LBB2330:
.LBB2327:
.LBB2324:
.LBB2322:
.LBB2321:
	.loc 1 2988 1709 view .LVU1648
	.loc 1 2988 1749 view .LVU1649
	.loc 1 2988 1774 view .LVU1650
	.loc 1 2988 3061 view .LVU1651
	.loc 1 2988 3099 view .LVU1652
	.loc 1 2988 3104 view .LVU1653
	.loc 1 2988 3692 view .LVU1654
	.loc 1 2988 0 is_stmt 0 view .LVU1655
	ldr	r3, .L131+12
	b	.L130
.LVL205:
.L128:
	.loc 1 2988 0 view .LVU1656
.LBE2321:
.LBE2322:
.LBE2324:
.LBE2327:
.LBE2330:
	.loc 1 2992 2 is_stmt 1 view .LVU1657
	.loc 1 2992 17 is_stmt 0 view .LVU1658
	ldr	r0, [r0, #-4]
.LVL206:
	.loc 1 2992 17 view .LVU1659
	b	.L123
.L132:
	.align	2
.L131:
	.word	.LC3
	.word	log_const_bt_att
	.word	.LC4
	.word	.LC5
	.cfi_endproc
.LFE661:
	.size	att_get, .-att_get
	.section	.text.bt_att_connected,"ax",%progbits
	.align	1
	.syntax unified
	.thumb
	.thumb_func
	.type	bt_att_connected, %function
bt_att_connected:
.LVL207:
.LFB669:
	.loc 1 3145 1 is_stmt 1 view -0
	.cfi_startproc
	@ args = 0, pretend = 0, frame = 0
	@ frame_needed = 0, uses_anonymous_args = 0
	.loc 1 3146 2 view .LVU1661
	.loc 1 3147 2 view .LVU1662
	.loc 1 3149 2 view .LVU1663
.LBB2339:
	.loc 1 3149 7 view .LVU1664
.LBE2339:
	.loc 1 3149 5 view .LVU1665
	.loc 1 3151 2 view .LVU1666
.LBB2340:
.LBI2340:
	.loc 7 217 20 view .LVU1667
.LBB2341:
	.loc 7 219 2 view .LVU1668
	.loc 7 221 2 view .LVU1669
.LBB2342:
.LBI2342:
	.loc 8 279 28 view .LVU1670
.LBB2343:
	.loc 8 281 2 view .LVU1671
.LBE2343:
.LBE2342:
.LBE2341:
.LBE2340:
	.loc 1 3145 1 is_stmt 0 view .LVU1672
	push	{r4, lr}
	.cfi_def_cfa_offset 8
	.cfi_offset 4, -8
	.cfi_offset 14, -4
.LBB2350:
.LBB2348:
.LBB2346:
.LBB2344:
	.loc 8 281 9 view .LVU1673
	add	r3, r0, #48
.LVL208:
	.loc 8 281 9 view .LVU1674
.LBE2344:
.LBE2346:
.LBE2348:
.LBE2350:
	.loc 1 3145 1 view .LVU1675
	mov	r4, r0
.LBB2351:
.LBB2349:
.LBB2347:
.LBB2345:
	.loc 8 281 9 view .LVU1676
	dmb	ish
.L134:
	ldrex	r1, [r3]
	orr	r1, r1, #4
	strex	r2, r1, [r3]
	cmp	r2, #0
	bne	.L134
	dmb	ish
.LVL209:
	.loc 8 281 9 view .LVU1677
.LBE2345:
.LBE2347:
.LBE2349:
.LBE2351:
	.loc 1 3153 2 is_stmt 1 view .LVU1678
	subs	r0, r4, #4
.LVL210:
	.loc 1 3153 2 is_stmt 0 view .LVU1679
	bl	att_chan_mtu_updated
.LVL211:
	.loc 1 3155 2 is_stmt 1 view .LVU1680
	add	r0, r4, #108
	ldr	r1, .L135
	bl	k_work_init_delayable
.LVL212:
	.loc 1 3157 2 view .LVU1681
	ldr	r0, [r4]
	.loc 1 3158 1 is_stmt 0 view .LVU1682
	pop	{r4, lr}
	.cfi_restore 14
	.cfi_restore 4
	.cfi_def_cfa_offset 0
.LVL213:
	.loc 1 3157 2 view .LVU1683
	b	bt_gatt_connected
.LVL214:
.L136:
	.align	2
.L135:
	.word	att_timeout
	.cfi_endproc
.LFE669:
	.size	bt_att_connected, .-bt_att_connected
	.section	.text.att_chan_read,"ax",%progbits
	.align	1
	.syntax unified
	.thumb
	.thumb_func
	.type	att_chan_read, %function
att_chan_read:
.LVL215:
.LFB636:
	.loc 1 1370 1 is_stmt 1 view -0
	.cfi_startproc
	@ args = 8, pretend = 0, frame = 8
	@ frame_needed = 0, uses_anonymous_args = 0
	.loc 1 1371 2 view .LVU1685
	.loc 1 1370 1 is_stmt 0 view .LVU1686
	push	{r4, r5, r6, r7, r8, r9, r10, fp, lr}
	.cfi_def_cfa_offset 36
	.cfi_offset 4, -36
	.cfi_offset 5, -32
	.cfi_offset 6, -28
	.cfi_offset 7, -24
	.cfi_offset 8, -20
	.cfi_offset 9, -16
	.cfi_offset 10, -12
	.cfi_offset 11, -8
	.cfi_offset 14, -4
	mov	r4, r0
.LVL216:
	.loc 1 1372 2 is_stmt 1 view .LVU1687
	.loc 1 1373 2 view .LVU1688
	.loc 1 1374 2 view .LVU1689
	.loc 1 1376 2 view .LVU1690
.LBB2377:
.LBI2377:
	.loc 1 122 17 view .LVU1691
.LBB2378:
	.loc 1 129 2 view .LVU1692
	.loc 1 129 2 is_stmt 0 view .LVU1693
.LBE2378:
.LBE2377:
	.loc 1 1370 1 view .LVU1694
	sub	sp, sp, #20
	.cfi_def_cfa_offset 56
	.loc 1 1376 26 view .LVU1695
	mov	r0, r2
.LVL217:
	.loc 1 1370 1 view .LVU1696
	mov	r8, r2
	mov	r9, r3
	.loc 1 1376 26 view .LVU1697
	bl	net_buf_frags_len
.LVL218:
.LBB2380:
.LBB2379:
	.loc 1 129 76 view .LVU1698
	ldrh	r3, [r4, #26]
	ldrh	r2, [r4, #42]
.LBE2379:
.LBE2380:
	.loc 1 1376 6 view .LVU1699
	cmp	r3, r2
	it	cs
	movcs	r3, r2
	.loc 1 1376 5 view .LVU1700
	cmp	r3, r0
	.loc 1 1370 1 view .LVU1701
	mov	fp, r1
	.loc 1 1376 5 view .LVU1702
	bls	.L150
	.loc 1 1371 18 view .LVU1703
	ldr	r3, [r4, #4]
	str	r3, [sp, #12]
	.loc 1 1380 2 is_stmt 1 view .LVU1704
	.loc 1 1380 9 is_stmt 0 view .LVU1705
	mov	r0, r8
	bl	net_buf_frag_last
.LVL219:
	.loc 1 1374 14 view .LVU1706
	mov	r10, #0
	.loc 1 1380 9 view .LVU1707
	mov	r6, r0
.LVL220:
.L149:
	.loc 1 1385 2 is_stmt 1 view .LVU1708
	.loc 1 1386 3 view .LVU1709
.LBB2381:
.LBI2381:
	.loc 1 122 17 view .LVU1710
.LBB2382:
	.loc 1 129 2 view .LVU1711
	.loc 1 129 2 is_stmt 0 view .LVU1712
.LBE2382:
.LBE2381:
	.loc 1 1386 31 view .LVU1713
	mov	r0, r8
	bl	net_buf_frags_len
.LVL221:
.LBB2384:
.LBB2383:
	.loc 1 129 76 view .LVU1714
	ldrh	r2, [r4, #26]
	ldrh	r3, [r4, #42]
.LBE2383:
.LBE2384:
.LBB2385:
.LBB2386:
	.loc 3 2257 9 view .LVU1715
	add	r7, r6, #12
.LBE2386:
.LBE2385:
	.loc 1 1386 29 view .LVU1716
	cmp	r2, r3
	ite	ls
	rsbls	r5, r0, r2
	rsbhi	r5, r0, r3
.LVL222:
.LBB2388:
.LBI2385:
	.loc 3 2255 22 is_stmt 1 view .LVU1717
.LBB2387:
	.loc 3 2257 2 view .LVU1718
	.loc 3 2257 9 is_stmt 0 view .LVU1719
	mov	r0, r7
	bl	net_buf_simple_tailroom
.LVL223:
	.loc 3 2257 9 view .LVU1720
.LBE2387:
.LBE2388:
	.loc 1 1386 129 view .LVU1721
	cmp	r5, r0
	bcs	.L139
.LVL224:
.LBB2389:
.LBI2389:
	.loc 1 122 17 is_stmt 1 view .LVU1722
.LBB2390:
	.loc 1 129 2 view .LVU1723
	.loc 1 129 2 is_stmt 0 view .LVU1724
.LBE2390:
.LBE2389:
	.loc 1 1386 105 view .LVU1725
	mov	r0, r8
	bl	net_buf_frags_len
.LVL225:
.LBB2392:
.LBB2391:
	.loc 1 129 76 view .LVU1726
	ldrh	r2, [r4, #26]
	ldrh	r3, [r4, #42]
.LBE2391:
.LBE2392:
	.loc 1 1386 129 view .LVU1727
	cmp	r2, r3
	ite	ls
	rsbls	r5, r0, r2
	rsbhi	r5, r0, r3
.L140:
.LVL226:
	.loc 1 1388 3 is_stmt 1 discriminator 4 view .LVU1728
	.loc 1 1388 6 is_stmt 0 discriminator 4 view .LVU1729
	cbnz	r5, .L141
.LBB2393:
	.loc 1 1389 4 is_stmt 1 view .LVU1730
	.loc 1 1389 11 is_stmt 0 view .LVU1731
	ldrb	r0, [r8, #10]	@ zero_extendqisi2
	bl	net_buf_pool_get
.LVL227:
.LBB2394:
.LBI2394:
	.loc 3 1256 68 is_stmt 1 view .LVU1732
.LBB2395:
	.loc 3 1259 2 view .LVU1733
	.loc 3 1259 9 is_stmt 0 view .LVU1734
	movs	r2, #0
	movs	r3, #0
	bl	net_buf_alloc_fixed
.LVL228:
	.loc 3 1259 9 view .LVU1735
.LBE2395:
.LBE2394:
	.loc 1 1392 4 is_stmt 1 view .LVU1736
	.loc 1 1392 7 is_stmt 0 view .LVU1737
	mov	r6, r0
	cbnz	r0, .L142
.LVL229:
.L147:
	.loc 1 1392 7 view .LVU1738
.LBE2393:
	.loc 1 1421 2 is_stmt 1 view .LVU1739
	.loc 1 1421 9 is_stmt 0 view .LVU1740
	mov	r7, r10
	b	.L137
.LVL230:
.L139:
.LBB2410:
.LBI2410:
	.loc 3 2255 22 is_stmt 1 view .LVU1741
.LBB2411:
	.loc 3 2257 2 view .LVU1742
	.loc 3 2257 9 is_stmt 0 view .LVU1743
	mov	r0, r7
	bl	net_buf_simple_tailroom
.LVL231:
	mov	r5, r0
.LVL232:
	.loc 3 2257 9 view .LVU1744
	b	.L140
.LVL233:
.L142:
	.loc 3 2257 9 view .LVU1745
.LBE2411:
.LBE2410:
.LBB2412:
	.loc 1 1396 4 is_stmt 1 view .LVU1746
	mov	r1, r0
	mov	r0, r8
.LVL234:
	.loc 1 1396 4 is_stmt 0 view .LVU1747
	bl	net_buf_frag_add
.LVL235:
	.loc 1 1398 4 is_stmt 1 view .LVU1748
.LBB2396:
.LBI2396:
	.loc 1 122 17 view .LVU1749
.LBB2397:
	.loc 1 129 2 view .LVU1750
	.loc 1 129 2 is_stmt 0 view .LVU1751
.LBE2397:
.LBE2396:
	.loc 1 1398 32 view .LVU1752
	mov	r0, r8
	bl	net_buf_frags_len
.LVL236:
.LBB2399:
.LBB2398:
	.loc 1 129 76 view .LVU1753
	ldrh	r2, [r4, #42]
	ldrh	r3, [r4, #26]
.LBE2398:
.LBE2399:
.LBB2400:
.LBB2401:
	.loc 3 2257 9 view .LVU1754
	add	r7, r6, #12
.LBE2401:
.LBE2400:
	.loc 1 1398 30 view .LVU1755
	cmp	r2, r3
	ite	ls
	rsbls	r5, r0, r2
	rsbhi	r5, r0, r3
.LVL237:
.LBB2403:
.LBI2400:
	.loc 3 2255 22 is_stmt 1 view .LVU1756
.LBB2402:
	.loc 3 2257 2 view .LVU1757
	.loc 3 2257 9 is_stmt 0 view .LVU1758
	mov	r0, r7
	bl	net_buf_simple_tailroom
.LVL238:
	.loc 3 2257 9 view .LVU1759
.LBE2402:
.LBE2403:
	.loc 1 1398 130 view .LVU1760
	cmp	r5, r0
	bcs	.L143
.LVL239:
.LBB2404:
.LBI2404:
	.loc 1 122 17 is_stmt 1 view .LVU1761
.LBB2405:
	.loc 1 129 2 view .LVU1762
	.loc 1 129 2 is_stmt 0 view .LVU1763
.LBE2405:
.LBE2404:
	.loc 1 1398 106 view .LVU1764
	mov	r0, r8
	bl	net_buf_frags_len
.LVL240:
.LBB2407:
.LBB2406:
	.loc 1 129 76 view .LVU1765
	ldrh	r2, [r4, #42]
	ldrh	r3, [r4, #26]
.LBE2406:
.LBE2407:
	.loc 1 1398 130 view .LVU1766
	cmp	r2, r3
	ite	ls
	rsbls	r5, r0, r2
	rsbhi	r5, r0, r3
.L141:
.LVL241:
	.loc 1 1398 130 view .LVU1767
.LBE2412:
	.loc 1 1402 3 is_stmt 1 view .LVU1768
	.loc 1 1402 44 is_stmt 0 view .LVU1769
	ldr	r1, [r6, #12]
	.loc 1 1402 50 view .LVU1770
	ldrh	r2, [r6, #16]
	.loc 1 1402 10 view .LVU1771
	str	r9, [sp]
	ldr	r7, [fp, #4]
	ldr	r0, [sp, #12]
	add	r2, r2, r1
	uxth	r3, r5
	mov	r1, fp
	blx	r7
.LVL242:
	.loc 1 1404 3 is_stmt 1 view .LVU1772
	.loc 1 1404 6 is_stmt 0 view .LVU1773
	subs	r7, r0, #0
	bge	.L144
	.loc 1 1405 4 is_stmt 1 view .LVU1774
	.loc 1 1406 12 is_stmt 0 view .LVU1775
	cmp	r10, #0
	it	ne
	movne	r7, r10
.LVL243:
.L137:
	.loc 1 1422 1 view .LVU1776
	mov	r0, r7
	add	sp, sp, #20
	.cfi_remember_state
	.cfi_def_cfa_offset 36
	@ sp needed
	pop	{r4, r5, r6, r7, r8, r9, r10, fp, pc}
.LVL244:
.L143:
	.cfi_restore_state
.LBB2413:
.LBB2408:
.LBI2408:
	.loc 3 2255 22 is_stmt 1 view .LVU1777
.LBB2409:
	.loc 3 2257 2 view .LVU1778
	.loc 3 2257 9 is_stmt 0 view .LVU1779
	mov	r0, r7
	bl	net_buf_simple_tailroom
.LVL245:
	mov	r5, r0
.LVL246:
	.loc 3 2257 9 view .LVU1780
	b	.L141
.LVL247:
.L144:
	.loc 3 2257 9 view .LVU1781
.LBE2409:
.LBE2408:
.LBE2413:
	.loc 1 1412 3 is_stmt 1 view .LVU1782
	.loc 1 1412 6 is_stmt 0 view .LVU1783
	ldr	r3, [sp, #56]
	cbnz	r3, .L145
.LVL248:
.L148:
	.loc 1 1416 3 is_stmt 1 view .LVU1784
.LBB2414:
.LBI2414:
	.loc 3 1493 21 view .LVU1785
.LBB2415:
	.loc 3 1495 2 view .LVU1786
	.loc 3 1495 9 is_stmt 0 view .LVU1787
	mov	r1, r7
	add	r0, r6, #12
	bl	net_buf_simple_add
.LVL249:
	.loc 3 1495 9 view .LVU1788
.LBE2415:
.LBE2414:
	.loc 1 1417 3 is_stmt 1 view .LVU1789
	.loc 1 1419 30 is_stmt 0 view .LVU1790
	mov	r0, r8
	bl	net_buf_frags_len
.LVL250:
.LBB2416:
.LBB2417:
	.loc 1 129 76 view .LVU1791
	ldrh	r3, [r4, #42]
	ldrh	r2, [r4, #26]
.LBE2417:
.LBE2416:
	.loc 1 1419 11 view .LVU1792
	cmp	r3, r2
	it	cs
	movcs	r3, r2
	.loc 1 1418 10 view .LVU1793
	add	r9, r9, r7
.LVL251:
	.loc 1 1419 53 view .LVU1794
	cmp	r3, r0
	.loc 1 1417 9 view .LVU1795
	add	r10, r10, r7
.LVL252:
	.loc 1 1418 3 is_stmt 1 view .LVU1796
	.loc 1 1418 10 is_stmt 0 view .LVU1797
	uxth	r9, r9
.LVL253:
	.loc 1 1419 53 is_stmt 1 view .LVU1798
.LBB2419:
.LBI2416:
	.loc 1 122 17 view .LVU1799
.LBB2418:
	.loc 1 129 2 view .LVU1800
	.loc 1 129 2 is_stmt 0 view .LVU1801
.LBE2418:
.LBE2419:
	.loc 1 1419 53 view .LVU1802
	bls	.L147
	.loc 1 1419 53 discriminator 1 view .LVU1803
	cmp	r7, r5
	beq	.L149
	b	.L147
.LVL254:
.L145:
	.loc 1 1412 14 discriminator 1 view .LVU1804
	ldr	r2, [sp, #60]
	ldr	r3, [sp, #56]
	mov	r1, r7
	mov	r0, r6
.LVL255:
	.loc 1 1412 14 discriminator 1 view .LVU1805
	blx	r3
.LVL256:
	.loc 1 1412 10 discriminator 1 view .LVU1806
	cmp	r0, #0
	bne	.L148
	b	.L147
.LVL257:
.L150:
	.loc 1 1377 10 view .LVU1807
	movs	r7, #0
	b	.L137
	.cfi_endproc
.LFE636:
	.size	att_chan_read, .-att_chan_read
	.section	.text.read_group_cb,"ax",%progbits
	.align	1
	.syntax unified
	.thumb
	.thumb_func
	.type	read_group_cb, %function
read_group_cb:
.LVL258:
.LFB648:
	.loc 1 1851 1 is_stmt 1 view -0
	.cfi_startproc
	@ args = 0, pretend = 0, frame = 8
	@ frame_needed = 0, uses_anonymous_args = 0
	.loc 1 1852 2 view .LVU1809
	.loc 1 1853 2 view .LVU1810
	.loc 1 1851 1 is_stmt 0 view .LVU1811
	push	{r0, r1, r2, r3, r4, r5, r6, r7, r8, lr}
	.cfi_def_cfa_offset 40
	.cfi_offset 4, -24
	.cfi_offset 5, -20
	.cfi_offset 6, -16
	.cfi_offset 7, -12
	.cfi_offset 8, -8
	.cfi_offset 14, -4
	.loc 1 1851 1 view .LVU1812
	mov	r5, r0
	mov	r6, r1
.LBB2420:
	.loc 1 1857 73 view .LVU1813
	mov	r8, #0
	mov	r3, #10240
	.loc 1 1857 6 view .LVU1814
	ldr	r0, [r0]
.LVL259:
	.loc 1 1857 6 view .LVU1815
.LBE2420:
	.loc 1 1853 22 view .LVU1816
	ldr	r7, [r2]
.LVL260:
	.loc 1 1854 2 is_stmt 1 view .LVU1817
	.loc 1 1857 2 view .LVU1818
.LBB2421:
	.loc 1 1857 73 is_stmt 0 view .LVU1819
	strb	r8, [sp, #8]
	.loc 1 1857 6 view .LVU1820
	add	r1, sp, #8
.LVL261:
	.loc 1 1857 6 view .LVU1821
.LBE2421:
	.loc 1 1851 1 view .LVU1822
	mov	r4, r2
.LBB2422:
	.loc 1 1857 73 view .LVU1823
	strh	r3, [sp, #10]	@ movhi
	.loc 1 1857 6 view .LVU1824
	bl	bt_uuid_cmp
.LVL262:
	.loc 1 1857 5 view .LVU1825
	cbz	r0, .L155
	.loc 1 1858 73 discriminator 1 view .LVU1826
	movw	r3, #10241
	.loc 1 1858 6 discriminator 1 view .LVU1827
	ldr	r0, [r5]
	.loc 1 1858 73 discriminator 1 view .LVU1828
	strb	r8, [sp, #12]
	.loc 1 1858 6 discriminator 1 view .LVU1829
	add	r1, sp, #12
	.loc 1 1858 73 discriminator 1 view .LVU1830
	strh	r3, [sp, #14]	@ movhi
	.loc 1 1858 6 discriminator 1 view .LVU1831
	bl	bt_uuid_cmp
.LVL263:
	.loc 1 1857 128 discriminator 1 view .LVU1832
	cbz	r0, .L155
	.loc 1 1859 3 is_stmt 1 view .LVU1833
	.loc 1 1859 11 is_stmt 0 view .LVU1834
	ldr	r3, [r4, #16]
	.loc 1 1859 6 view .LVU1835
	cbz	r3, .L157
	.loc 1 1859 19 discriminator 1 view .LVU1836
	ldrh	r2, [r3, #2]	@ unaligned
	cmp	r2, r6
	bcs	.L157
	.loc 1 1861 4 is_stmt 1 view .LVU1837
	.loc 1 1861 28 is_stmt 0 view .LVU1838
	strh	r6, [r3, #2]	@ unaligned
	.loc 1 1863 3 is_stmt 1 view .LVU1839
.L157:
	.loc 1 1863 10 is_stmt 0 view .LVU1840
	movs	r0, #1
.L159:
.LBE2422:
	.loc 1 1901 1 view .LVU1841
	add	sp, sp, #16
	.cfi_remember_state
	.cfi_def_cfa_offset 24
	@ sp needed
	pop	{r4, r5, r6, r7, r8, pc}
.LVL264:
.L155:
	.cfi_restore_state
	.loc 1 1867 2 is_stmt 1 view .LVU1842
	.loc 1 1867 6 is_stmt 0 view .LVU1843
	ldr	r1, [r4, #4]
	ldr	r0, [r5]
	bl	bt_uuid_cmp
.LVL265:
	.loc 1 1867 5 view .LVU1844
	cbz	r0, .L158
	.loc 1 1868 3 is_stmt 1 view .LVU1845
	.loc 1 1868 15 is_stmt 0 view .LVU1846
	movs	r3, #0
	str	r3, [r4, #16]
	.loc 1 1869 3 is_stmt 1 view .LVU1847
	.loc 1 1869 10 is_stmt 0 view .LVU1848
	b	.L157
.L158:
	.loc 1 1872 2 is_stmt 1 discriminator 335 view .LVU1849
.LBB2423:
	.loc 1 1872 7 discriminator 335 view .LVU1850
.LBE2423:
	.loc 1 1872 5 discriminator 335 view .LVU1851
	.loc 1 1875 2 discriminator 335 view .LVU1852
	.loc 1 1875 15 is_stmt 0 discriminator 335 view .LVU1853
	ldr	r3, [r4, #12]
	.loc 1 1876 29 discriminator 335 view .LVU1854
	ldr	r0, [r4, #8]
	.loc 1 1875 15 discriminator 335 view .LVU1855
	ldrb	r2, [r3]	@ zero_extendqisi2
	.loc 1 1875 5 discriminator 335 view .LVU1856
	cbz	r2, .L160
.LVL266:
.LBB2424:
.LBI2424:
	.loc 1 122 17 is_stmt 1 view .LVU1857
.LBB2425:
	.loc 1 129 2 view .LVU1858
	.loc 1 129 76 is_stmt 0 view .LVU1859
	ldrh	ip, [r7, #26]
	ldrh	r1, [r7, #42]
.LBE2425:
.LBE2424:
	.loc 1 1876 34 view .LVU1860
	ldrh	r3, [r0, #16]
	.loc 1 1876 23 view .LVU1861
	cmp	ip, r1
	ite	ls
	rsbls	r3, r3, ip
	rsbhi	r3, r3, r1
	.loc 1 1875 21 view .LVU1862
	cmp	r3, r2
	bge	.L160
.L161:
	.loc 1 1877 10 view .LVU1863
	movs	r0, #0
	b	.L159
.L160:
	.loc 1 1881 2 is_stmt 1 view .LVU1864
.LVL267:
.LBB2426:
.LBI2426:
	.loc 3 1493 21 view .LVU1865
.LBB2427:
	.loc 3 1495 2 view .LVU1866
	.loc 3 1495 9 is_stmt 0 view .LVU1867
	movs	r1, #4
	adds	r0, r0, #12
	bl	net_buf_simple_add
.LVL268:
	.loc 3 1495 9 view .LVU1868
.LBE2427:
.LBE2426:
	.loc 1 1881 14 view .LVU1869
	str	r0, [r4, #16]
	.loc 1 1884 2 is_stmt 1 view .LVU1870
	.loc 1 1884 28 is_stmt 0 view .LVU1871
	strh	r6, [r0]	@ unaligned
	.loc 1 1885 2 is_stmt 1 view .LVU1872
	.loc 1 1885 6 is_stmt 0 view .LVU1873
	ldr	r3, [r4, #16]
	.loc 1 1885 26 view .LVU1874
	strh	r6, [r3, #2]	@ unaligned
	.loc 1 1888 2 is_stmt 1 view .LVU1875
	.loc 1 1888 9 is_stmt 0 view .LVU1876
	ldr	r3, .L174
	str	r3, [sp]
	str	r4, [sp, #4]
	ldr	r2, [r4, #8]
	movs	r3, #0
	mov	r1, r5
	mov	r0, r7
	bl	att_chan_read
.LVL269:
	.loc 1 1890 2 is_stmt 1 view .LVU1877
	.loc 1 1890 5 is_stmt 0 view .LVU1878
	cmp	r0, #0
	blt	.L161
	.loc 1 1895 2 is_stmt 1 view .LVU1879
	.loc 1 1895 5 is_stmt 0 view .LVU1880
	ldr	r0, [r4, #16]
.LVL270:
	.loc 1 1895 5 view .LVU1881
	subs	r0, r0, #0
	it	ne
	movne	r0, #1
	b	.L159
.L175:
	.align	2
.L174:
	.word	attr_read_group_cb
	.cfi_endproc
.LFE648:
	.size	read_group_cb, .-read_group_cb
	.section	.text.sys_slist_find_and_remove.isra.0,"ax",%progbits
	.align	1
	.syntax unified
	.thumb
	.thumb_func
	.type	sys_slist_find_and_remove.isra.0, %function
sys_slist_find_and_remove.isra.0:
.LVL271:
.LFB705:
	.loc 2 435 1 is_stmt 1 view -0
	.cfi_startproc
	@ args = 0, pretend = 0, frame = 0
	@ frame_needed = 0, uses_anonymous_args = 0
	@ link register save eliminated.
	.loc 2 435 67 view .LVU1883
	.loc 2 435 3 view .LVU1884
	.loc 2 435 22 view .LVU1885
.LBB2460:
.LBI2460:
	.loc 2 238 28 view .LVU1886
.LBB2461:
	.loc 2 240 2 view .LVU1887
	.loc 2 240 13 is_stmt 0 view .LVU1888
	ldr	r3, [r0]
.LVL272:
	.loc 2 240 13 view .LVU1889
.LBE2461:
.LBE2460:
	.loc 2 435 80 view .LVU1890
	movs	r2, #0
.LVL273:
.L177:
	.loc 2 435 66 is_stmt 1 view .LVU1891
	cbnz	r3, .L184
	.loc 2 435 3 is_stmt 0 view .LVU1892
	bx	lr
.L184:
	.loc 2 435 39 is_stmt 1 view .LVU1893
	.loc 2 435 42 is_stmt 0 view .LVU1894
	cmp	r3, r1
	bne	.L178
	.loc 2 435 59 is_stmt 1 view .LVU1895
.LVL274:
.LBB2462:
.LBI2462:
	.loc 2 408 20 view .LVU1896
.LBB2463:
	.loc 2 408 101 view .LVU1897
.LBB2464:
.LBB2465:
	.loc 2 213 13 is_stmt 0 view .LVU1898
	ldr	r3, [r1]
.LVL275:
	.loc 2 213 13 view .LVU1899
.LBE2465:
.LBE2464:
	.loc 2 408 104 view .LVU1900
	cbnz	r2, .L179
	.loc 2 408 5 is_stmt 1 view .LVU1901
.LVL276:
.LBB2467:
.LBI2464:
	.loc 2 211 28 view .LVU1902
.LBB2466:
	.loc 2 213 2 view .LVU1903
	.loc 2 213 2 is_stmt 0 view .LVU1904
.LBE2466:
.LBE2467:
.LBB2468:
.LBI2468:
	.loc 2 221 20 is_stmt 1 view .LVU1905
.LBB2469:
	.loc 2 223 2 view .LVU1906
.LBE2469:
.LBE2468:
	.loc 2 408 57 is_stmt 0 view .LVU1907
	ldr	r2, [r0, #4]
.LVL277:
.LBB2471:
.LBB2470:
	.loc 2 223 13 view .LVU1908
	str	r3, [r0]
.LVL278:
	.loc 2 223 13 view .LVU1909
.LBE2470:
.LBE2471:
	.loc 2 408 54 is_stmt 1 view .LVU1910
.LBB2472:
.LBI2472:
	.loc 2 250 28 view .LVU1911
.LBB2473:
	.loc 2 252 2 view .LVU1912
	.loc 2 252 2 is_stmt 0 view .LVU1913
.LBE2473:
.LBE2472:
	.loc 2 408 57 view .LVU1914
	cmp	r1, r2
	bne	.L181
	.loc 2 408 95 is_stmt 1 view .LVU1915
.LVL279:
.LBB2474:
.LBI2474:
	.loc 2 226 20 view .LVU1916
.LBB2475:
	.loc 2 228 2 view .LVU1917
	.loc 2 228 13 is_stmt 0 view .LVU1918
	str	r3, [r0, #4]
.LVL280:
.L181:
	.loc 2 228 13 view .LVU1919
.LBE2475:
.LBE2474:
	.loc 2 408 291 is_stmt 1 view .LVU1920
.LBB2476:
.LBI2476:
	.loc 2 216 20 view .LVU1921
.LBB2477:
	.loc 2 218 2 view .LVU1922
	.loc 2 218 15 is_stmt 0 view .LVU1923
	movs	r3, #0
	str	r3, [r1]
.LVL281:
	.loc 2 218 15 view .LVU1924
.LBE2477:
.LBE2476:
	.loc 2 408 4 view .LVU1925
	bx	lr
.LVL282:
.L179:
	.loc 2 408 157 is_stmt 1 view .LVU1926
.LBB2478:
.LBI2478:
	.loc 2 216 20 view .LVU1927
.LBB2479:
	.loc 2 218 2 view .LVU1928
	.loc 2 218 15 is_stmt 0 view .LVU1929
	str	r3, [r2]
.LVL283:
	.loc 2 218 15 view .LVU1930
.LBE2479:
.LBE2478:
	.loc 2 408 211 is_stmt 1 view .LVU1931
.LBB2480:
.LBI2480:
	.loc 2 250 28 view .LVU1932
.LBB2481:
	.loc 2 252 2 view .LVU1933
	.loc 2 252 2 is_stmt 0 view .LVU1934
.LBE2481:
.LBE2480:
	.loc 2 408 214 view .LVU1935
	ldr	r3, [r0, #4]
	cmp	r1, r3
	.loc 2 408 252 is_stmt 1 view .LVU1936
.LVL284:
.LBB2482:
.LBI2482:
	.loc 2 226 20 view .LVU1937
.LBB2483:
	.loc 2 228 2 view .LVU1938
	.loc 2 228 13 is_stmt 0 view .LVU1939
	it	eq
	streq	r2, [r0, #4]
	.loc 2 229 1 view .LVU1940
	b	.L181
.LVL285:
.L178:
	.loc 2 229 1 view .LVU1941
.LBE2483:
.LBE2482:
.LBE2463:
.LBE2462:
	.loc 2 435 5 is_stmt 1 view .LVU1942
	.loc 2 435 8 view .LVU1943
.LBB2484:
.LBI2484:
	.loc 2 292 29 view .LVU1944
	.loc 2 292 70 view .LVU1945
.LBB2485:
.LBI2485:
	.loc 2 281 29 view .LVU1946
	.loc 2 281 79 view .LVU1947
.LBB2486:
.LBI2486:
	.loc 2 211 28 view .LVU1948
.LBB2487:
	.loc 2 213 2 view .LVU1949
	.loc 2 213 13 is_stmt 0 view .LVU1950
	mov	r2, r3
.LBE2487:
.LBE2486:
.LBE2485:
.LBE2484:
	.loc 2 435 10 view .LVU1951
	ldr	r3, [r3]
.LVL286:
	.loc 2 435 10 view .LVU1952
	b	.L177
	.cfi_endproc
.LFE705:
	.size	sys_slist_find_and_remove.isra.0, .-sys_slist_find_and_remove.isra.0
	.section	.text.atomic_clear_bit,"ax",%progbits
	.align	1
	.syntax unified
	.thumb
	.thumb_func
	.type	atomic_clear_bit, %function
atomic_clear_bit:
.LVL287:
.LFB19:
	.loc 7 199 1 is_stmt 1 view -0
	.cfi_startproc
	@ args = 0, pretend = 0, frame = 0
	@ frame_needed = 0, uses_anonymous_args = 0
	@ link register save eliminated.
	.loc 7 200 2 view .LVU1954
	.loc 7 202 2 view .LVU1955
.LBB2490:
.LBI2490:
	.loc 8 319 28 view .LVU1956
.LBB2491:
	.loc 8 321 2 view .LVU1957
.LBE2491:
.LBE2490:
	.loc 7 200 27 is_stmt 0 view .LVU1958
	movs	r3, #1
	lsls	r3, r3, r1
.LVL288:
	.loc 7 202 8 view .LVU1959
	mvns	r3, r3
.LVL289:
.LBB2493:
.LBB2492:
	.loc 8 321 9 view .LVU1960
	dmb	ish
.LVL290:
.L186:
	.loc 8 321 9 view .LVU1961
	ldrex	r2, [r0]
	ands	r2, r2, r3
	strex	r1, r2, [r0]
	cmp	r1, #0
	bne	.L186
	dmb	ish
.LVL291:
	.loc 8 321 9 view .LVU1962
.LBE2492:
.LBE2493:
	.loc 7 203 1 view .LVU1963
	bx	lr
	.cfi_endproc
.LFE19:
	.size	atomic_clear_bit, .-atomic_clear_bit
	.section	.text.att_exec_write_req,"ax",%progbits
	.align	1
	.syntax unified
	.thumb
	.thumb_func
	.type	att_exec_write_req, %function
att_exec_write_req:
.LFB700:
	.cfi_startproc
	.loc 1 2360 16 is_stmt 1 view -0
	@ args = 0, pretend = 0, frame = 0
	@ frame_needed = 0, uses_anonymous_args = 0
	@ link register save eliminated.
	movs	r0, #6
	bx	lr
	.cfi_endproc
.LFE700:
	.size	att_exec_write_req, .-att_exec_write_req
	.section	.text.atomic_test_and_set_bit,"ax",%progbits
	.align	1
	.syntax unified
	.thumb
	.thumb_func
	.type	atomic_test_and_set_bit, %function
atomic_test_and_set_bit:
.LVL292:
.LFB18:
	.loc 7 177 1 view -0
	.cfi_startproc
	@ args = 0, pretend = 0, frame = 0
	@ frame_needed = 0, uses_anonymous_args = 0
	.loc 7 178 2 view .LVU1966
	.loc 7 177 1 is_stmt 0 view .LVU1967
	push	{r4, lr}
	.cfi_def_cfa_offset 8
	.cfi_offset 4, -8
	.cfi_offset 14, -4
	.loc 7 178 27 view .LVU1968
	movs	r3, #1
	lsl	r1, r3, r1
.LVL293:
	.loc 7 179 2 is_stmt 1 view .LVU1969
	.loc 7 181 2 view .LVU1970
.LBB2496:
.LBI2496:
	.loc 8 279 28 view .LVU1971
.LBB2497:
	.loc 8 281 2 view .LVU1972
	.loc 8 281 9 is_stmt 0 view .LVU1973
	dmb	ish
.L189:
	ldrex	r3, [r0]
	orr	r2, r3, r1
	strex	r4, r2, [r0]
	cmp	r4, #0
	bne	.L189
	dmb	ish
.LVL294:
	.loc 8 281 9 view .LVU1974
.LBE2497:
.LBE2496:
	.loc 7 183 2 is_stmt 1 view .LVU1975
	.loc 7 183 22 is_stmt 0 view .LVU1976
	tst	r1, r3
	.loc 7 184 1 view .LVU1977
	ite	ne
	movne	r0, #1
.LVL295:
	.loc 7 184 1 view .LVU1978
	moveq	r0, #0
	pop	{r4, pc}
	.cfi_endproc
.LFE18:
	.size	atomic_test_and_set_bit, .-atomic_test_and_set_bit
	.section	.rodata.bt_att_chan_create_pdu.str1.1,"aMS",%progbits,1
.LC6:
	.ascii	"ATT MTU exceeded, max %u, wanted %zu\000"
.LC7:
	.ascii	"already processing a REQ/RSP on chan %p\000"
.LC8:
	.ascii	"Unable to allocate buffer for op 0x%02x\000"
.LC9:
	.ascii	"Unable to allocate ATT TX meta\000"
	.section	.text.bt_att_chan_create_pdu,"ax",%progbits
	.align	1
	.syntax unified
	.thumb
	.thumb_func
	.type	bt_att_chan_create_pdu, %function
bt_att_chan_create_pdu:
.LVL296:
.LFB618:
	.loc 1 658 1 is_stmt 1 view -0
	.cfi_startproc
	@ args = 0, pretend = 0, frame = 24
	@ frame_needed = 1, uses_anonymous_args = 0
	.loc 1 659 2 view .LVU1980
	.loc 1 660 2 view .LVU1981
	.loc 1 661 2 view .LVU1982
	.loc 1 662 2 view .LVU1983
	.loc 1 663 1 view .LVU1984
	.loc 1 665 2 view .LVU1985
	.loc 1 658 1 is_stmt 0 view .LVU1986
	push	{r4, r5, r6, r7, r8, r9, r10, lr}
	.cfi_def_cfa_offset 32
	.cfi_offset 4, -32
	.cfi_offset 5, -28
	.cfi_offset 6, -24
	.cfi_offset 7, -20
	.cfi_offset 8, -16
	.cfi_offset 9, -12
	.cfi_offset 10, -8
	.cfi_offset 14, -4
	sub	sp, sp, #24
	.cfi_def_cfa_offset 56
	.loc 1 665 10 view .LVU1987
	adds	r3, r2, #1
.LVL297:
.LBB2554:
.LBI2554:
	.loc 1 122 17 is_stmt 1 view .LVU1988
.LBB2555:
	.loc 1 129 2 view .LVU1989
.LBE2555:
.LBE2554:
	.loc 1 658 1 is_stmt 0 view .LVU1990
	mov	r10, r1
.LBB2557:
.LBB2556:
	.loc 1 129 76 view .LVU1991
	ldrh	r2, [r0, #26]
.LVL298:
	.loc 1 129 76 view .LVU1992
	ldrh	r1, [r0, #42]
.LVL299:
	.loc 1 129 76 view .LVU1993
	cmp	r1, r2
	it	cs
	movcs	r1, r2
.LVL300:
	.loc 1 129 76 view .LVU1994
.LBE2556:
.LBE2557:
	.loc 1 665 5 view .LVU1995
	cmp	r3, r1
	.loc 1 658 1 view .LVU1996
	add	r7, sp, #0
	.cfi_def_cfa_register 7
	.loc 1 658 1 view .LVU1997
	mov	r6, r0
	.loc 1 665 5 view .LVU1998
	bls	.L191
	.loc 1 666 3 is_stmt 1 view .LVU1999
.LBB2558:
	.loc 1 666 8 view .LVU2000
	.loc 1 666 57 view .LVU2001
	.loc 1 666 14 view .LVU2002
	.loc 1 666 2 view .LVU2003
.LVL301:
	.loc 1 666 41 view .LVU2004
	.loc 1 666 176 view .LVU2005
	.loc 1 666 187 view .LVU2006
	.loc 1 666 275 view .LVU2007
.LBB2559:
	.loc 1 666 3 view .LVU2008
	.loc 1 666 5 view .LVU2009
	.loc 1 666 48 view .LVU2010
	.loc 1 666 3 view .LVU2011
.LBB2560:
	.loc 1 666 8 view .LVU2012
	.loc 1 666 2 view .LVU2013
.LBE2560:
.LBE2559:
.LBE2558:
	.loc 1 666 3 view .LVU2014
	.loc 1 666 12 view .LVU2015
	.loc 1 666 107 view .LVU2016
	.loc 1 666 3 view .LVU2017
.LBB2582:
.LBB2579:
.LBB2575:
	.loc 1 666 12 view .LVU2018
	.loc 1 666 102 view .LVU2019
	.loc 1 666 104 view .LVU2020
.LBB2561:
	.loc 1 666 107 is_stmt 0 view .LVU2021
	mov	r4, sp
	.loc 1 666 109 is_stmt 1 view .LVU2022
	.loc 1 666 120 view .LVU2023
.LVL302:
	.loc 1 666 209 view .LVU2024
	.loc 1 666 26 view .LVU2025
.LBE2561:
.LBE2575:
.LBE2579:
.LBE2582:
	.loc 1 666 3 view .LVU2026
	.loc 1 666 368 view .LVU2027
	.loc 1 666 75 view .LVU2028
	.loc 1 666 2 view .LVU2029
	.loc 1 666 2 view .LVU2030
	.loc 1 666 2 view .LVU2031
	.loc 1 666 38 view .LVU2032
	.loc 1 666 4 view .LVU2033
	.loc 1 666 30 view .LVU2034
	.loc 1 666 56 view .LVU2035
	.loc 1 666 969 view .LVU2036
	.loc 1 666 1031 view .LVU2037
	.loc 1 666 2018 view .LVU2038
	.loc 1 666 2083 view .LVU2039
	.loc 1 666 2108 view .LVU2040
	.loc 1 666 2109 view .LVU2041
	.loc 1 666 2111 view .LVU2042
	.loc 1 666 2141 view .LVU2043
	.loc 1 666 2171 view .LVU2044
	.loc 1 666 2203 view .LVU2045
	.loc 1 666 2235 view .LVU2046
	.loc 1 666 2267 view .LVU2047
	.loc 1 666 2464 view .LVU2048
	.loc 1 666 2488 view .LVU2049
	.loc 1 666 2489 view .LVU2050
	.loc 1 666 2491 view .LVU2051
	.loc 1 666 2520 view .LVU2052
	.loc 1 666 2549 view .LVU2053
	.loc 1 666 2580 view .LVU2054
	.loc 1 666 2611 view .LVU2055
	.loc 1 666 2642 view .LVU2056
	.loc 1 666 2849 view .LVU2057
	.loc 1 666 4 view .LVU2058
	.loc 1 666 22 view .LVU2059
	.loc 1 666 42 view .LVU2060
	.loc 1 666 4 view .LVU2061
	.loc 1 666 42 view .LVU2062
	.loc 1 666 13 view .LVU2063
	.loc 1 666 13 view .LVU2064
	.loc 1 666 61 view .LVU2065
	.loc 1 666 92 view .LVU2066
	.loc 1 666 126 view .LVU2067
	.loc 1 666 131 view .LVU2068
	.loc 1 666 391 view .LVU2069
	.loc 1 666 1484 view .LVU2070
	.loc 1 666 1549 view .LVU2071
	.loc 1 666 1573 view .LVU2072
	.loc 1 666 1637 view .LVU2073
	.loc 1 666 1648 view .LVU2074
	.loc 1 666 1770 view .LVU2075
	.loc 1 666 1786 view .LVU2076
	.loc 1 666 1826 view .LVU2077
	.loc 1 666 1851 view .LVU2078
	.loc 1 666 3160 view .LVU2079
	.loc 1 666 3201 view .LVU2080
	.loc 1 666 7 view .LVU2081
	.loc 1 666 30 view .LVU2082
	.loc 1 666 129 view .LVU2083
	.loc 1 666 6 view .LVU2084
	.loc 1 666 11 view .LVU2085
	.loc 1 666 236 view .LVU2086
	.loc 1 666 1189 view .LVU2087
	.loc 1 666 1254 view .LVU2088
	.loc 1 666 1278 view .LVU2089
	.loc 1 666 1307 view .LVU2090
	.loc 1 666 1318 view .LVU2091
	.loc 1 666 1405 view .LVU2092
	.loc 1 666 1421 view .LVU2093
	.loc 1 666 1461 view .LVU2094
	.loc 1 666 2725 view .LVU2095
	.loc 1 666 2766 view .LVU2096
	.loc 1 666 7 view .LVU2097
	.loc 1 666 30 view .LVU2098
	.loc 1 666 9 view .LVU2099
	.loc 1 666 6 view .LVU2100
	.loc 1 666 11 view .LVU2101
	.loc 1 666 236 view .LVU2102
	.loc 1 666 1189 view .LVU2103
	.loc 1 666 1254 view .LVU2104
	.loc 1 666 1278 view .LVU2105
	.loc 1 666 1307 view .LVU2106
	.loc 1 666 1318 view .LVU2107
	.loc 1 666 1405 view .LVU2108
	.loc 1 666 1421 view .LVU2109
	.loc 1 666 1461 view .LVU2110
	.loc 1 666 2725 view .LVU2111
	.loc 1 666 2766 view .LVU2112
	.loc 1 666 7 view .LVU2113
	.loc 1 666 30 view .LVU2114
	.loc 1 666 9 view .LVU2115
	.loc 1 666 5 view .LVU2116
	.loc 1 666 28 view .LVU2117
	.loc 1 666 52 view .LVU2118
	.loc 1 666 80 view .LVU2119
	.loc 1 666 256 view .LVU2120
	.loc 1 666 16 view .LVU2121
.LBB2583:
.LBB2580:
.LBB2576:
.LBB2572:
	.loc 1 666 29 view .LVU2122
	.loc 1 666 3 view .LVU2123
	.loc 1 666 3 view .LVU2124
	.loc 1 666 70 view .LVU2125
	.loc 1 666 82 is_stmt 0 view .LVU2126
	sub	sp, sp, #32
	mov	r2, sp
.LVL303:
	.loc 1 666 74 is_stmt 1 view .LVU2127
	.loc 1 666 484 view .LVU2128
	.loc 1 666 5 view .LVU2129
	.loc 1 666 7 view .LVU2130
	.loc 1 666 12 view .LVU2131
	.loc 1 666 10 view .LVU2132
	.loc 1 666 5 view .LVU2133
	.loc 1 666 23 view .LVU2134
.LBB2562:
	.loc 1 666 3 view .LVU2135
	.loc 1 666 368 view .LVU2136
	.loc 1 666 75 view .LVU2137
.LVL304:
	.loc 1 666 2 view .LVU2138
	.loc 1 666 2 view .LVU2139
	.loc 1 666 2 view .LVU2140
	.loc 1 666 38 view .LVU2141
	.loc 1 666 67 view .LVU2142
	.loc 1 666 93 view .LVU2143
	.loc 1 666 119 view .LVU2144
	.loc 1 666 1032 view .LVU2145
	.loc 1 666 1094 view .LVU2146
	.loc 1 666 2081 view .LVU2147
	.loc 1 666 2146 view .LVU2148
	.loc 1 666 2171 view .LVU2149
	.loc 1 666 2172 view .LVU2150
	.loc 1 666 2174 view .LVU2151
	.loc 1 666 2204 view .LVU2152
	.loc 1 666 2234 view .LVU2153
	.loc 1 666 2266 view .LVU2154
	.loc 1 666 2298 view .LVU2155
	.loc 1 666 2330 view .LVU2156
	.loc 1 666 2527 view .LVU2157
	.loc 1 666 2551 view .LVU2158
	.loc 1 666 2552 view .LVU2159
	.loc 1 666 2554 view .LVU2160
	.loc 1 666 2583 view .LVU2161
	.loc 1 666 2612 view .LVU2162
	.loc 1 666 2643 view .LVU2163
	.loc 1 666 2674 view .LVU2164
	.loc 1 666 2705 view .LVU2165
	.loc 1 666 2912 view .LVU2166
.LBB2563:
	.loc 1 666 3198 view .LVU2167
	.loc 1 666 3203 view .LVU2168
	.loc 1 666 3857 view .LVU2169
	.loc 1 666 0 is_stmt 0 view .LVU2170
	ldr	r0, .L207
.LVL305:
	.loc 1 666 0 view .LVU2171
.LBE2563:
.LBB2564:
	.loc 1 666 3811 view .LVU2172
	str	r3, [r2, #28]
.LBE2564:
.LBB2565:
	.loc 1 666 176 view .LVU2173
	movs	r3, #4
.LVL306:
	.loc 1 666 176 view .LVU2174
.LBE2565:
.LBE2562:
.LBE2572:
.LBE2576:
	.loc 1 666 17 view .LVU2175
	strd	r0, r1, [r2, #20]
.LBB2577:
.LBB2573:
.LBB2570:
.LBB2566:
	.loc 1 666 2766 is_stmt 1 view .LVU2176
	.loc 1 666 7 view .LVU2177
.LVL307:
	.loc 1 666 30 view .LVU2178
	.loc 1 666 30 is_stmt 0 view .LVU2179
.LBE2566:
	.loc 1 666 9 is_stmt 1 view .LVU2180
	.loc 1 666 6 view .LVU2181
.LBB2567:
	.loc 1 666 11 view .LVU2182
	.loc 1 666 236 view .LVU2183
	.loc 1 666 1189 view .LVU2184
	.loc 1 666 1254 view .LVU2185
.LBE2567:
.LBE2570:
.LBE2573:
.LBE2577:
.LBE2580:
.LBE2583:
	.loc 1 666 1278 view .LVU2186
	.loc 1 666 1307 view .LVU2187
	.loc 1 666 1318 view .LVU2188
	.loc 1 666 1405 view .LVU2189
.LBB2584:
.LBB2581:
.LBB2578:
.LBB2574:
.LBB2571:
.LBB2568:
	.loc 1 666 1421 view .LVU2190
	.loc 1 666 1461 view .LVU2191
	.loc 1 666 2725 view .LVU2192
	.loc 1 666 2763 view .LVU2193
	.loc 1 666 2768 view .LVU2194
	.loc 1 666 3212 view .LVU2195
	.loc 1 666 2766 view .LVU2196
	.loc 1 666 7 view .LVU2197
	.loc 1 666 30 view .LVU2198
	.loc 1 666 30 is_stmt 0 view .LVU2199
.LBE2568:
	.loc 1 666 9 is_stmt 1 view .LVU2200
	.loc 1 666 5 view .LVU2201
	.loc 1 666 28 view .LVU2202
	.loc 1 666 52 view .LVU2203
	.loc 1 666 80 view .LVU2204
	.loc 1 666 256 view .LVU2205
	.loc 1 666 16 view .LVU2206
.LBB2569:
	.loc 1 666 6 view .LVU2207
	.loc 1 666 164 view .LVU2208
	.loc 1 666 166 view .LVU2209
	.loc 1 666 176 is_stmt 0 view .LVU2210
	str	r3, [r2, #16]!
.LVL308:
	.loc 1 666 176 view .LVU2211
.LBE2569:
.LBE2571:
	.loc 1 666 26 is_stmt 1 view .LVU2212
	.loc 1 666 7 view .LVU2213
	.loc 1 666 147 view .LVU2214
	.loc 1 666 149 view .LVU2215
	mov	r1, #8320
.LVL309:
.L204:
	.loc 1 666 149 is_stmt 0 view .LVU2216
.LBE2574:
.LBE2578:
.LBE2581:
.LBE2584:
.LBB2585:
.LBB2586:
.LBB2587:
.LBB2588:
	.loc 1 706 150 view .LVU2217
	ldr	r0, .L207+4
	bl	z_log_msg_static_create.constprop.0
.LVL310:
	mov	sp, r4
.LBE2588:
	.loc 1 706 108 is_stmt 1 view .LVU2218
	.loc 1 706 6 view .LVU2219
.LVL311:
	.loc 1 706 43 view .LVU2220
.LBE2587:
	.loc 1 706 7 view .LVU2221
.LBE2586:
	.loc 1 706 279 view .LVU2222
	.loc 1 706 6 view .LVU2223
	.loc 1 706 19 view .LVU2224
.LBE2585:
	.loc 1 706 7 view .LVU2225
	.loc 1 708 4 view .LVU2226
.L192:
	.loc 1 668 9 is_stmt 0 view .LVU2227
	movs	r4, #0
.L190:
	.loc 1 751 1 view .LVU2228
	mov	r0, r4
	adds	r7, r7, #24
	.cfi_remember_state
	.cfi_def_cfa_offset 32
	mov	sp, r7
	.cfi_def_cfa_register 13
	@ sp needed
	pop	{r4, r5, r6, r7, r8, r9, r10, pc}
.LVL312:
.L191:
	.cfi_restore_state
	.loc 1 671 2 is_stmt 1 view .LVU2229
	.loc 1 671 10 is_stmt 0 view .LVU2230
	mov	r0, r10
.LVL313:
	.loc 1 671 10 view .LVU2231
	bl	att_op_get_type
.LVL314:
	.loc 1 671 2 view .LVU2232
	cmp	r0, #2
	beq	.L193
	cmp	r0, #4
	beq	.L203
	mov	r8, #-1
	mov	r9, #-1
.LVL315:
.L194:
	.loc 1 725 3 is_stmt 1 discriminator 285 view .LVU2233
.LBB2601:
	.loc 1 725 8 discriminator 285 view .LVU2234
.LBE2601:
	.loc 1 725 6 discriminator 285 view .LVU2235
	.loc 1 726 3 discriminator 285 view .LVU2236
	.loc 1 726 9 is_stmt 0 discriminator 285 view .LVU2237
	movs	r1, #0
	mov	r2, r8
	mov	r3, r9
	mov	r0, r1
	bl	bt_l2cap_create_pdu_timeout
.LVL316:
	.loc 1 727 3 is_stmt 1 discriminator 285 view .LVU2238
	.loc 1 727 6 is_stmt 0 discriminator 285 view .LVU2239
	mov	r4, r0
	cbnz	r0, .L198
	.loc 1 728 4 is_stmt 1 view .LVU2240
.LBB2602:
	.loc 1 728 9 view .LVU2241
	.loc 1 728 58 view .LVU2242
	.loc 1 728 15 view .LVU2243
	.loc 1 728 3 view .LVU2244
.LVL317:
	.loc 1 728 42 view .LVU2245
	.loc 1 728 177 view .LVU2246
	.loc 1 728 188 view .LVU2247
	.loc 1 728 276 view .LVU2248
.LBB2603:
	.loc 1 728 4 view .LVU2249
	.loc 1 728 6 view .LVU2250
	.loc 1 728 4 view .LVU2251
.LBB2604:
	.loc 1 728 9 view .LVU2252
	.loc 1 728 3 view .LVU2253
.LBE2604:
.LBE2603:
.LBE2602:
	.loc 1 728 4 view .LVU2254
	.loc 1 728 13 view .LVU2255
	.loc 1 728 108 view .LVU2256
	.loc 1 728 4 view .LVU2257
.LBB2618:
.LBB2616:
.LBB2613:
	.loc 1 728 13 view .LVU2258
	.loc 1 728 103 view .LVU2259
	.loc 1 728 105 view .LVU2260
.LBB2605:
	.loc 1 728 108 is_stmt 0 view .LVU2261
	mov	r4, sp
	.loc 1 728 110 is_stmt 1 view .LVU2262
	.loc 1 728 121 view .LVU2263
.LVL318:
	.loc 1 728 210 view .LVU2264
	.loc 1 728 27 view .LVU2265
.LBE2605:
.LBE2613:
.LBE2616:
.LBE2618:
	.loc 1 728 4 view .LVU2266
	.loc 1 728 369 view .LVU2267
	.loc 1 728 76 view .LVU2268
	.loc 1 728 3 view .LVU2269
	.loc 1 728 3 view .LVU2270
	.loc 1 728 3 view .LVU2271
	.loc 1 728 39 view .LVU2272
	.loc 1 728 5 view .LVU2273
	.loc 1 728 31 view .LVU2274
	.loc 1 728 57 view .LVU2275
	.loc 1 728 524 view .LVU2276
	.loc 1 728 586 view .LVU2277
	.loc 1 728 1107 view .LVU2278
	.loc 1 728 1172 view .LVU2279
	.loc 1 728 1197 view .LVU2280
	.loc 1 728 1198 view .LVU2281
	.loc 1 728 1200 view .LVU2282
	.loc 1 728 1230 view .LVU2283
	.loc 1 728 1260 view .LVU2284
	.loc 1 728 1292 view .LVU2285
	.loc 1 728 1324 view .LVU2286
	.loc 1 728 1356 view .LVU2287
	.loc 1 728 1553 view .LVU2288
	.loc 1 728 1577 view .LVU2289
	.loc 1 728 1578 view .LVU2290
	.loc 1 728 1580 view .LVU2291
	.loc 1 728 1609 view .LVU2292
	.loc 1 728 1638 view .LVU2293
	.loc 1 728 1669 view .LVU2294
	.loc 1 728 1700 view .LVU2295
	.loc 1 728 1731 view .LVU2296
	.loc 1 728 1938 view .LVU2297
	.loc 1 728 5 view .LVU2298
	.loc 1 728 23 view .LVU2299
	.loc 1 728 43 view .LVU2300
	.loc 1 728 5 view .LVU2301
	.loc 1 728 43 view .LVU2302
	.loc 1 728 14 view .LVU2303
	.loc 1 728 14 view .LVU2304
	.loc 1 728 62 view .LVU2305
	.loc 1 728 93 view .LVU2306
	.loc 1 728 127 view .LVU2307
	.loc 1 728 132 view .LVU2308
	.loc 1 728 395 view .LVU2309
	.loc 1 728 1500 view .LVU2310
	.loc 1 728 1565 view .LVU2311
	.loc 1 728 1589 view .LVU2312
	.loc 1 728 1656 view .LVU2313
	.loc 1 728 1667 view .LVU2314
	.loc 1 728 1792 view .LVU2315
	.loc 1 728 1808 view .LVU2316
	.loc 1 728 1848 view .LVU2317
	.loc 1 728 1873 view .LVU2318
	.loc 1 728 3188 view .LVU2319
	.loc 1 728 3229 view .LVU2320
	.loc 1 728 8 view .LVU2321
	.loc 1 728 31 view .LVU2322
	.loc 1 728 130 view .LVU2323
	.loc 1 728 7 view .LVU2324
	.loc 1 728 12 view .LVU2325
	.loc 1 728 237 view .LVU2326
	.loc 1 728 1190 view .LVU2327
	.loc 1 728 1255 view .LVU2328
	.loc 1 728 1279 view .LVU2329
	.loc 1 728 1308 view .LVU2330
	.loc 1 728 1319 view .LVU2331
	.loc 1 728 1406 view .LVU2332
	.loc 1 728 1422 view .LVU2333
	.loc 1 728 1462 view .LVU2334
	.loc 1 728 2726 view .LVU2335
	.loc 1 728 2767 view .LVU2336
	.loc 1 728 8 view .LVU2337
	.loc 1 728 31 view .LVU2338
	.loc 1 728 10 view .LVU2339
	.loc 1 728 6 view .LVU2340
	.loc 1 728 29 view .LVU2341
	.loc 1 728 53 view .LVU2342
	.loc 1 728 81 view .LVU2343
	.loc 1 728 257 view .LVU2344
	.loc 1 728 17 view .LVU2345
.LBB2619:
.LBB2617:
.LBB2614:
.LBB2611:
	.loc 1 728 30 view .LVU2346
	.loc 1 728 4 view .LVU2347
	.loc 1 728 4 view .LVU2348
	.loc 1 728 71 view .LVU2349
	.loc 1 728 83 is_stmt 0 view .LVU2350
	sub	sp, sp, #32
	mov	r2, sp
.LVL319:
	.loc 1 728 75 is_stmt 1 view .LVU2351
	.loc 1 728 485 view .LVU2352
	.loc 1 728 6 view .LVU2353
	.loc 1 728 8 view .LVU2354
	.loc 1 728 13 view .LVU2355
	.loc 1 728 11 view .LVU2356
	.loc 1 728 6 view .LVU2357
	.loc 1 728 24 view .LVU2358
.LBB2606:
	.loc 1 728 4 view .LVU2359
	.loc 1 728 369 view .LVU2360
	.loc 1 728 76 view .LVU2361
.LVL320:
	.loc 1 728 3 view .LVU2362
	.loc 1 728 3 view .LVU2363
	.loc 1 728 3 view .LVU2364
	.loc 1 728 39 view .LVU2365
	.loc 1 728 68 view .LVU2366
	.loc 1 728 94 view .LVU2367
	.loc 1 728 120 view .LVU2368
	.loc 1 728 587 view .LVU2369
	.loc 1 728 649 view .LVU2370
	.loc 1 728 1170 view .LVU2371
	.loc 1 728 1235 view .LVU2372
	.loc 1 728 1260 view .LVU2373
	.loc 1 728 1261 view .LVU2374
	.loc 1 728 1263 view .LVU2375
	.loc 1 728 1293 view .LVU2376
	.loc 1 728 1323 view .LVU2377
	.loc 1 728 1355 view .LVU2378
	.loc 1 728 1387 view .LVU2379
	.loc 1 728 1419 view .LVU2380
	.loc 1 728 1616 view .LVU2381
	.loc 1 728 1640 view .LVU2382
	.loc 1 728 1641 view .LVU2383
	.loc 1 728 1643 view .LVU2384
	.loc 1 728 1672 view .LVU2385
	.loc 1 728 1701 view .LVU2386
	.loc 1 728 1732 view .LVU2387
	.loc 1 728 1763 view .LVU2388
	.loc 1 728 1794 view .LVU2389
	.loc 1 728 2001 view .LVU2390
.LBB2607:
	.loc 1 728 3226 view .LVU2391
	.loc 1 728 3231 view .LVU2392
	.loc 1 728 3903 view .LVU2393
	.loc 1 728 0 is_stmt 0 view .LVU2394
	ldr	r3, .L207+8
.LBE2607:
.LBE2606:
.LBE2611:
.LBE2614:
	.loc 1 728 18 view .LVU2395
	strd	r3, r10, [r2, #20]
.LBB2615:
.LBB2612:
.LBB2610:
.LBB2608:
	.loc 1 728 2767 is_stmt 1 view .LVU2396
	.loc 1 728 8 view .LVU2397
.LVL321:
	.loc 1 728 31 view .LVU2398
	.loc 1 728 31 is_stmt 0 view .LVU2399
.LBE2608:
	.loc 1 728 10 is_stmt 1 view .LVU2400
	.loc 1 728 6 view .LVU2401
	.loc 1 728 29 view .LVU2402
	.loc 1 728 53 view .LVU2403
	.loc 1 728 81 view .LVU2404
	.loc 1 728 257 view .LVU2405
	.loc 1 728 17 view .LVU2406
.LBB2609:
	.loc 1 728 7 view .LVU2407
	.loc 1 728 165 view .LVU2408
	.loc 1 728 167 view .LVU2409
	b	.L205
.LVL322:
.L193:
	.loc 1 728 167 is_stmt 0 view .LVU2410
.LBE2609:
.LBE2610:
.LBE2612:
.LBE2615:
.LBE2617:
.LBE2619:
.LBB2620:
	.loc 1 674 3 is_stmt 1 view .LVU2411
	.loc 1 675 3 view .LVU2412
	.loc 1 676 3 view .LVU2413
	.loc 1 676 3 is_stmt 0 view .LVU2414
.LBE2620:
	.loc 1 684 2 is_stmt 1 view .LVU2415
	.loc 1 684 5 is_stmt 0 view .LVU2416
	cmp	r10, #15
	beq	.L203
	.loc 1 684 8 view .LVU2417
	cmp	r10, #33
	beq	.L203
	.loc 1 694 2 is_stmt 1 view .LVU2418
	.loc 1 701 3 view .LVU2419
	.loc 1 701 6 is_stmt 0 view .LVU2420
	ldr	r3, [r6, #88]
	cbz	r3, .L195
	.loc 1 706 4 is_stmt 1 view .LVU2421
.LBB2621:
	.loc 1 706 9 view .LVU2422
	.loc 1 706 58 view .LVU2423
	.loc 1 706 15 view .LVU2424
	.loc 1 706 3 view .LVU2425
.LVL323:
	.loc 1 706 42 view .LVU2426
	.loc 1 706 177 view .LVU2427
	.loc 1 706 188 view .LVU2428
	.loc 1 706 276 view .LVU2429
.LBB2598:
	.loc 1 706 4 view .LVU2430
	.loc 1 706 6 view .LVU2431
	.loc 1 706 4 view .LVU2432
.LBB2595:
	.loc 1 706 9 view .LVU2433
	.loc 1 706 3 view .LVU2434
.LBE2595:
.LBE2598:
.LBE2621:
	.loc 1 706 4 view .LVU2435
	.loc 1 706 13 view .LVU2436
	.loc 1 706 108 view .LVU2437
	.loc 1 706 4 view .LVU2438
.LBB2622:
.LBB2599:
.LBB2596:
	.loc 1 706 13 view .LVU2439
	.loc 1 706 103 view .LVU2440
	.loc 1 706 105 view .LVU2441
.LBB2593:
	.loc 1 706 108 is_stmt 0 view .LVU2442
	mov	r4, sp
	.loc 1 706 110 is_stmt 1 view .LVU2443
	.loc 1 706 121 view .LVU2444
.LVL324:
	.loc 1 706 210 view .LVU2445
	.loc 1 706 27 view .LVU2446
.LBE2593:
.LBE2596:
.LBE2599:
.LBE2622:
	.loc 1 706 4 view .LVU2447
	.loc 1 706 369 view .LVU2448
	.loc 1 706 76 view .LVU2449
	.loc 1 706 3 view .LVU2450
	.loc 1 706 3 view .LVU2451
	.loc 1 706 3 view .LVU2452
	.loc 1 706 39 view .LVU2453
	.loc 1 706 5 view .LVU2454
	.loc 1 706 31 view .LVU2455
	.loc 1 706 57 view .LVU2456
	.loc 1 706 524 view .LVU2457
	.loc 1 706 586 view .LVU2458
	.loc 1 706 1107 view .LVU2459
	.loc 1 706 1172 view .LVU2460
	.loc 1 706 1197 view .LVU2461
	.loc 1 706 1198 view .LVU2462
	.loc 1 706 1200 view .LVU2463
	.loc 1 706 1230 view .LVU2464
	.loc 1 706 1260 view .LVU2465
	.loc 1 706 1292 view .LVU2466
	.loc 1 706 1324 view .LVU2467
	.loc 1 706 1356 view .LVU2468
	.loc 1 706 1553 view .LVU2469
	.loc 1 706 1577 view .LVU2470
	.loc 1 706 1578 view .LVU2471
	.loc 1 706 1580 view .LVU2472
	.loc 1 706 1609 view .LVU2473
	.loc 1 706 1638 view .LVU2474
	.loc 1 706 1669 view .LVU2475
	.loc 1 706 1700 view .LVU2476
	.loc 1 706 1731 view .LVU2477
	.loc 1 706 1938 view .LVU2478
	.loc 1 706 5 view .LVU2479
	.loc 1 706 23 view .LVU2480
	.loc 1 706 43 view .LVU2481
	.loc 1 706 5 view .LVU2482
	.loc 1 706 43 view .LVU2483
	.loc 1 706 14 view .LVU2484
	.loc 1 706 14 view .LVU2485
	.loc 1 706 62 view .LVU2486
	.loc 1 706 93 view .LVU2487
	.loc 1 706 127 view .LVU2488
	.loc 1 706 132 view .LVU2489
	.loc 1 706 395 view .LVU2490
	.loc 1 706 1500 view .LVU2491
	.loc 1 706 1565 view .LVU2492
	.loc 1 706 1589 view .LVU2493
	.loc 1 706 1656 view .LVU2494
	.loc 1 706 1667 view .LVU2495
	.loc 1 706 1792 view .LVU2496
	.loc 1 706 1808 view .LVU2497
	.loc 1 706 1848 view .LVU2498
	.loc 1 706 1873 view .LVU2499
	.loc 1 706 3188 view .LVU2500
	.loc 1 706 3229 view .LVU2501
	.loc 1 706 8 view .LVU2502
	.loc 1 706 31 view .LVU2503
	.loc 1 706 130 view .LVU2504
	.loc 1 706 7 view .LVU2505
	.loc 1 706 12 view .LVU2506
	.loc 1 706 237 view .LVU2507
	.loc 1 706 1190 view .LVU2508
	.loc 1 706 1255 view .LVU2509
	.loc 1 706 1279 view .LVU2510
	.loc 1 706 1308 view .LVU2511
	.loc 1 706 1319 view .LVU2512
	.loc 1 706 1406 view .LVU2513
	.loc 1 706 1422 view .LVU2514
	.loc 1 706 1462 view .LVU2515
	.loc 1 706 2726 view .LVU2516
	.loc 1 706 2767 view .LVU2517
	.loc 1 706 8 view .LVU2518
	.loc 1 706 31 view .LVU2519
	.loc 1 706 10 view .LVU2520
	.loc 1 706 6 view .LVU2521
	.loc 1 706 29 view .LVU2522
	.loc 1 706 53 view .LVU2523
	.loc 1 706 81 view .LVU2524
	.loc 1 706 257 view .LVU2525
	.loc 1 706 17 view .LVU2526
.LBB2623:
.LBB2600:
.LBB2597:
.LBB2594:
	.loc 1 706 30 view .LVU2527
	.loc 1 706 4 view .LVU2528
	.loc 1 706 4 view .LVU2529
	.loc 1 706 71 view .LVU2530
	.loc 1 706 83 is_stmt 0 view .LVU2531
	sub	sp, sp, #32
	mov	r2, sp
.LVL325:
	.loc 1 706 75 is_stmt 1 view .LVU2532
	.loc 1 706 485 view .LVU2533
	.loc 1 706 6 view .LVU2534
	.loc 1 706 8 view .LVU2535
	.loc 1 706 13 view .LVU2536
	.loc 1 706 11 view .LVU2537
	.loc 1 706 6 view .LVU2538
	.loc 1 706 24 view .LVU2539
.LBB2589:
	.loc 1 706 4 view .LVU2540
	.loc 1 706 369 view .LVU2541
	.loc 1 706 76 view .LVU2542
.LVL326:
	.loc 1 706 3 view .LVU2543
	.loc 1 706 3 view .LVU2544
	.loc 1 706 3 view .LVU2545
	.loc 1 706 39 view .LVU2546
	.loc 1 706 68 view .LVU2547
	.loc 1 706 94 view .LVU2548
	.loc 1 706 120 view .LVU2549
	.loc 1 706 587 view .LVU2550
	.loc 1 706 649 view .LVU2551
	.loc 1 706 1170 view .LVU2552
	.loc 1 706 1235 view .LVU2553
	.loc 1 706 1260 view .LVU2554
	.loc 1 706 1261 view .LVU2555
	.loc 1 706 1263 view .LVU2556
	.loc 1 706 1293 view .LVU2557
	.loc 1 706 1323 view .LVU2558
	.loc 1 706 1355 view .LVU2559
	.loc 1 706 1387 view .LVU2560
	.loc 1 706 1419 view .LVU2561
	.loc 1 706 1616 view .LVU2562
	.loc 1 706 1640 view .LVU2563
	.loc 1 706 1641 view .LVU2564
	.loc 1 706 1643 view .LVU2565
	.loc 1 706 1672 view .LVU2566
	.loc 1 706 1701 view .LVU2567
	.loc 1 706 1732 view .LVU2568
	.loc 1 706 1763 view .LVU2569
	.loc 1 706 1794 view .LVU2570
	.loc 1 706 2001 view .LVU2571
.LBB2590:
	.loc 1 706 3226 view .LVU2572
	.loc 1 706 3231 view .LVU2573
	.loc 1 706 3903 view .LVU2574
	.loc 1 706 0 is_stmt 0 view .LVU2575
	ldr	r3, .L207+12
.LBE2590:
.LBB2591:
	.loc 1 706 3812 view .LVU2576
	strd	r3, r6, [r2, #20]
.LVL327:
.L205:
	.loc 1 706 2767 is_stmt 1 view .LVU2577
	.loc 1 706 8 view .LVU2578
	.loc 1 706 31 view .LVU2579
	.loc 1 706 31 is_stmt 0 view .LVU2580
.LBE2591:
	.loc 1 706 10 is_stmt 1 view .LVU2581
	.loc 1 706 6 view .LVU2582
	.loc 1 706 29 view .LVU2583
	.loc 1 706 53 view .LVU2584
	.loc 1 706 81 view .LVU2585
	.loc 1 706 257 view .LVU2586
	.loc 1 706 17 view .LVU2587
.LBB2592:
	.loc 1 706 7 view .LVU2588
	.loc 1 706 165 view .LVU2589
	.loc 1 706 167 view .LVU2590
	.loc 1 706 177 is_stmt 0 view .LVU2591
	movs	r3, #3
	str	r3, [r2, #16]!
.LVL328:
	.loc 1 706 177 view .LVU2592
.LBE2592:
.LBE2589:
	.loc 1 706 27 is_stmt 1 view .LVU2593
	.loc 1 706 8 view .LVU2594
	.loc 1 706 148 view .LVU2595
	.loc 1 706 150 view .LVU2596
	mov	r1, #6208
	b	.L204
.LVL329:
.L195:
	.loc 1 706 150 is_stmt 0 view .LVU2597
.LBE2594:
.LBE2597:
.LBE2600:
.LBE2623:
	.loc 1 710 3 is_stmt 1 view .LVU2598
	.loc 1 718 9 is_stmt 0 view .LVU2599
	ldr	r0, [r6, #84]
	bl	net_buf_ref
.LVL330:
	mov	r4, r0
	.loc 1 720 3 view .LVU2600
	bl	net_buf_reset
.LVL331:
.LBB2624:
.LBB2625:
	.loc 3 1479 2 view .LVU2601
	movs	r1, #8
	add	r0, r4, #12
.LBE2625:
.LBE2624:
	.loc 1 710 8 view .LVU2602
	add	r5, r6, #88
.LVL332:
	.loc 1 717 5 is_stmt 1 view .LVU2603
	.loc 1 717 6 view .LVU2604
	.loc 1 718 3 view .LVU2605
	.loc 1 720 3 view .LVU2606
	.loc 1 721 3 view .LVU2607
.LBB2627:
.LBI2624:
	.loc 3 1477 20 view .LVU2608
.LBB2626:
	.loc 3 1479 2 view .LVU2609
	bl	net_buf_simple_reserve
.LVL333:
.L197:
	.loc 3 1479 2 is_stmt 0 view .LVU2610
.LBE2626:
.LBE2627:
	.loc 1 740 2 is_stmt 1 view .LVU2611
	.loc 1 744 2 view .LVU2612
	.loc 1 744 17 is_stmt 0 view .LVU2613
	str	r6, [r5]
	.loc 1 745 2 is_stmt 1 view .LVU2614
.LBB2628:
.LBB2629:
	.loc 3 1495 9 is_stmt 0 view .LVU2615
	movs	r1, #1
.LBE2629:
.LBE2628:
	.loc 1 745 60 view .LVU2616
	str	r5, [r4, #24]
	.loc 1 747 2 is_stmt 1 view .LVU2617
.LVL334:
.LBB2631:
.LBI2628:
	.loc 3 1493 21 view .LVU2618
.LBB2630:
	.loc 3 1495 2 view .LVU2619
	.loc 3 1495 9 is_stmt 0 view .LVU2620
	add	r0, r4, #12
	bl	net_buf_simple_add
.LVL335:
	.loc 3 1495 9 view .LVU2621
.LBE2630:
.LBE2631:
	.loc 1 748 2 is_stmt 1 view .LVU2622
	.loc 1 748 12 is_stmt 0 view .LVU2623
	strb	r10, [r0]
	.loc 1 750 2 is_stmt 1 view .LVU2624
	.loc 1 750 9 is_stmt 0 view .LVU2625
	b	.L190
.LVL336:
.L203:
.LBB2632:
	.loc 1 678 11 view .LVU2626
	mov	r8, #983040
	mov	r9, #0
	b	.L194
.LVL337:
.L198:
	.loc 1 678 11 view .LVU2627
.LBE2632:
	.loc 1 732 3 is_stmt 1 view .LVU2628
.LBB2633:
.LBI2633:
	.loc 1 181 36 view .LVU2629
.LBB2634:
	.loc 1 187 2 view .LVU2630
.LBB2635:
.LBI2635:
	.file 9 "/home/g/mise-work/zmk-firmware/zmk/zephyr/include/zephyr/kernel.h"
	.loc 9 597 23 view .LVU2631
.LBB2636:
	.loc 9 601 2 view .LVU2632
	.loc 9 603 2 view .LVU2633
	.loc 9 603 9 is_stmt 0 view .LVU2634
	bl	__aeabi_read_tp	@ load_tp_soft
.LVL338:
	.loc 9 603 9 view .LVU2635
.LBE2636:
.LBE2635:
	.loc 1 187 5 view .LVU2636
	ldr	r3, .L207+16
	ldr	r2, [r3, r0]
	ldr	r3, .L207+20
	cmp	r2, r3
	.loc 1 188 3 is_stmt 1 view .LVU2637
.LBB2637:
	.loc 1 188 13 view .LVU2638
	.loc 1 188 18 view .LVU2639
	.loc 1 188 16 view .LVU2640
	.loc 1 188 12 view .LVU2641
.LBB2638:
.LBI2638:
	.file 10 "/home/g/mise-work/zmk-firmware/zmk/app/build/zephyr/include/generated/syscalls/kernel.h"
	.loc 10 684 22 view .LVU2642
.LVL339:
.LBB2639:
	.loc 10 693 2 view .LVU2643
	.loc 10 693 7 view .LVU2644
	.loc 10 693 5 view .LVU2645
	.loc 10 694 2 view .LVU2646
.LBE2639:
.LBE2638:
.LBE2637:
.LBB2642:
.LBB2643:
.LBB2644:
	.loc 10 694 9 is_stmt 0 view .LVU2647
	ldr	r0, .L207+24
.LBE2644:
.LBE2643:
.LBE2642:
.LBB2647:
.LBB2641:
.LBB2640:
	ittee	eq
	moveq	r2, #0
	moveq	r3, #0
.LBE2640:
.LBE2641:
.LBE2647:
	.loc 1 191 2 is_stmt 1 view .LVU2648
.LBB2648:
	.loc 1 191 12 view .LVU2649
	.loc 1 191 17 view .LVU2650
	.loc 1 191 15 view .LVU2651
	.loc 1 191 11 view .LVU2652
.LBB2646:
.LBI2643:
	.loc 10 684 22 view .LVU2653
.LVL340:
.LBB2645:
	.loc 10 693 2 view .LVU2654
	.loc 10 693 7 view .LVU2655
	.loc 10 693 5 view .LVU2656
	.loc 10 694 2 view .LVU2657
	.loc 10 694 9 is_stmt 0 view .LVU2658
	movne	r2, r8
	movne	r3, r9
	bl	z_impl_k_queue_get
.LVL341:
	mov	r5, r0
.LVL342:
	.loc 10 694 9 view .LVU2659
.LBE2645:
.LBE2646:
	.loc 1 191 83 is_stmt 1 view .LVU2660
	.loc 1 191 88 view .LVU2661
	.loc 1 191 86 view .LVU2662
	.loc 1 191 11 view .LVU2663
	.loc 1 191 11 is_stmt 0 view .LVU2664
.LBE2648:
.LBE2634:
.LBE2633:
	.loc 1 733 3 is_stmt 1 view .LVU2665
	.loc 1 733 6 is_stmt 0 view .LVU2666
	cmp	r0, #0
	bne	.L197
	.loc 1 734 4 is_stmt 1 view .LVU2667
.LBB2649:
	.loc 1 734 9 view .LVU2668
	.loc 1 734 58 view .LVU2669
	.loc 1 734 15 view .LVU2670
	.loc 1 734 3 view .LVU2671
.LVL343:
	.loc 1 734 42 view .LVU2672
	.loc 1 734 177 view .LVU2673
	.loc 1 734 188 view .LVU2674
	.loc 1 734 276 view .LVU2675
	.loc 1 734 4 view .LVU2676
	.loc 1 734 4 view .LVU2677
.LBB2650:
	.loc 1 734 9 view .LVU2678
	.loc 1 734 3 view .LVU2679
.LBE2650:
.LBE2649:
	.loc 1 734 4 view .LVU2680
	.loc 1 734 13 view .LVU2681
	.loc 1 734 108 view .LVU2682
	.loc 1 734 4 view .LVU2683
.LBB2669:
.LBB2665:
	.loc 1 734 13 view .LVU2684
	.loc 1 734 103 view .LVU2685
	.loc 1 734 105 view .LVU2686
.LBB2651:
	.loc 1 734 110 view .LVU2687
	.loc 1 734 121 view .LVU2688
	.loc 1 734 210 view .LVU2689
	.loc 1 734 27 view .LVU2690
.LBE2651:
.LBE2665:
.LBE2669:
	.loc 1 734 4 view .LVU2691
	.loc 1 734 369 view .LVU2692
	.loc 1 734 76 view .LVU2693
	.loc 1 734 3 view .LVU2694
	.loc 1 734 3 view .LVU2695
	.loc 1 734 3 view .LVU2696
	.loc 1 734 39 view .LVU2697
	.loc 1 734 5 view .LVU2698
	.loc 1 734 31 view .LVU2699
	.loc 1 734 57 view .LVU2700
	.loc 1 734 80 view .LVU2701
	.loc 1 734 142 view .LVU2702
	.loc 1 734 199 view .LVU2703
	.loc 1 734 264 view .LVU2704
	.loc 1 734 289 view .LVU2705
	.loc 1 734 290 view .LVU2706
	.loc 1 734 292 view .LVU2707
	.loc 1 734 322 view .LVU2708
	.loc 1 734 352 view .LVU2709
	.loc 1 734 384 view .LVU2710
	.loc 1 734 416 view .LVU2711
	.loc 1 734 448 view .LVU2712
	.loc 1 734 645 view .LVU2713
	.loc 1 734 669 view .LVU2714
	.loc 1 734 670 view .LVU2715
	.loc 1 734 672 view .LVU2716
	.loc 1 734 701 view .LVU2717
	.loc 1 734 730 view .LVU2718
	.loc 1 734 761 view .LVU2719
	.loc 1 734 792 view .LVU2720
	.loc 1 734 823 view .LVU2721
	.loc 1 734 1030 view .LVU2722
	.loc 1 734 5 view .LVU2723
	.loc 1 734 23 view .LVU2724
	.loc 1 734 43 view .LVU2725
	.loc 1 734 5 view .LVU2726
	.loc 1 734 43 view .LVU2727
	.loc 1 734 14 view .LVU2728
	.loc 1 734 14 view .LVU2729
	.loc 1 734 62 view .LVU2730
	.loc 1 734 93 view .LVU2731
	.loc 1 734 127 view .LVU2732
	.loc 1 734 132 view .LVU2733
	.loc 1 734 386 view .LVU2734
	.loc 1 734 1455 view .LVU2735
	.loc 1 734 1520 view .LVU2736
	.loc 1 734 1544 view .LVU2737
	.loc 1 734 1602 view .LVU2738
	.loc 1 734 1613 view .LVU2739
	.loc 1 734 1729 view .LVU2740
	.loc 1 734 1745 view .LVU2741
	.loc 1 734 1785 view .LVU2742
	.loc 1 734 1810 view .LVU2743
	.loc 1 734 3107 view .LVU2744
	.loc 1 734 3148 view .LVU2745
	.loc 1 734 8 view .LVU2746
	.loc 1 734 31 view .LVU2747
	.loc 1 734 130 view .LVU2748
	.loc 1 734 6 view .LVU2749
	.loc 1 734 29 view .LVU2750
	.loc 1 734 53 view .LVU2751
	.loc 1 734 81 view .LVU2752
	.loc 1 734 257 view .LVU2753
	.loc 1 734 17 view .LVU2754
.LBB2670:
.LBB2666:
.LBB2662:
	.loc 1 734 30 view .LVU2755
	.loc 1 734 4 view .LVU2756
	.loc 1 734 4 view .LVU2757
	.loc 1 734 71 view .LVU2758
	.loc 1 734 75 view .LVU2759
	.loc 1 734 485 view .LVU2760
	.loc 1 734 6 view .LVU2761
	.loc 1 734 8 view .LVU2762
	.loc 1 734 13 view .LVU2763
	.loc 1 734 11 view .LVU2764
	.loc 1 734 6 view .LVU2765
	.loc 1 734 24 view .LVU2766
.LBB2652:
	.loc 1 734 4 view .LVU2767
	.loc 1 734 369 view .LVU2768
	.loc 1 734 76 view .LVU2769
.LVL344:
	.loc 1 734 3 view .LVU2770
	.loc 1 734 3 view .LVU2771
	.loc 1 734 3 view .LVU2772
	.loc 1 734 39 view .LVU2773
	.loc 1 734 68 view .LVU2774
	.loc 1 734 94 view .LVU2775
	.loc 1 734 120 view .LVU2776
	.loc 1 734 143 view .LVU2777
	.loc 1 734 205 view .LVU2778
	.loc 1 734 262 view .LVU2779
	.loc 1 734 327 view .LVU2780
	.loc 1 734 352 view .LVU2781
	.loc 1 734 353 view .LVU2782
	.loc 1 734 355 view .LVU2783
	.loc 1 734 385 view .LVU2784
	.loc 1 734 415 view .LVU2785
	.loc 1 734 447 view .LVU2786
	.loc 1 734 479 view .LVU2787
	.loc 1 734 511 view .LVU2788
	.loc 1 734 708 view .LVU2789
	.loc 1 734 732 view .LVU2790
	.loc 1 734 733 view .LVU2791
	.loc 1 734 735 view .LVU2792
	.loc 1 734 764 view .LVU2793
	.loc 1 734 793 view .LVU2794
	.loc 1 734 824 view .LVU2795
	.loc 1 734 855 view .LVU2796
	.loc 1 734 886 view .LVU2797
	.loc 1 734 1093 view .LVU2798
	.loc 1 734 5 view .LVU2799
	.loc 1 734 23 view .LVU2800
	.loc 1 734 43 view .LVU2801
	.loc 1 734 5 view .LVU2802
	.loc 1 734 43 view .LVU2803
	.loc 1 734 14 view .LVU2804
	.loc 1 734 14 view .LVU2805
	.loc 1 734 62 view .LVU2806
	.loc 1 734 93 view .LVU2807
	.loc 1 734 127 view .LVU2808
.LBB2653:
	.loc 1 734 132 view .LVU2809
	.loc 1 734 386 view .LVU2810
	.loc 1 734 1455 view .LVU2811
	.loc 1 734 1520 view .LVU2812
.LBE2653:
.LBE2652:
.LBE2662:
.LBE2666:
.LBE2670:
	.loc 1 734 1544 view .LVU2813
	.loc 1 734 1602 view .LVU2814
	.loc 1 734 1613 view .LVU2815
	.loc 1 734 1729 view .LVU2816
.LBB2671:
.LBB2667:
.LBB2663:
.LBB2658:
.LBB2654:
	.loc 1 734 1745 view .LVU2817
	.loc 1 734 1785 view .LVU2818
	.loc 1 734 1810 view .LVU2819
	.loc 1 734 3107 view .LVU2820
	.loc 1 734 3145 view .LVU2821
	.loc 1 734 3150 view .LVU2822
	.loc 1 734 3768 view .LVU2823
	.loc 1 734 0 is_stmt 0 view .LVU2824
	ldr	r3, .L207+28
	str	r3, [r7, #20]
	.loc 1 734 3148 is_stmt 1 view .LVU2825
	.loc 1 734 8 view .LVU2826
.LVL345:
	.loc 1 734 31 view .LVU2827
	.loc 1 734 31 is_stmt 0 view .LVU2828
.LBE2654:
	.loc 1 734 130 is_stmt 1 view .LVU2829
	.loc 1 734 6 view .LVU2830
	.loc 1 734 29 view .LVU2831
	.loc 1 734 53 view .LVU2832
	.loc 1 734 81 view .LVU2833
.LBE2658:
.LBE2663:
.LBE2667:
.LBE2671:
	.loc 1 734 7 view .LVU2834
	.loc 1 734 46 view .LVU2835
	.loc 1 734 51 view .LVU2836
	.loc 1 734 81 view .LVU2837
	.loc 1 734 148 view .LVU2838
	.loc 1 734 153 view .LVU2839
	.loc 1 734 183 view .LVU2840
.LBB2672:
.LBB2668:
.LBB2664:
.LBB2659:
	.loc 1 734 257 view .LVU2841
	.loc 1 734 17 view .LVU2842
.LBB2655:
	.loc 1 734 7 view .LVU2843
	.loc 1 734 165 view .LVU2844
	.loc 1 734 167 view .LVU2845
.LBE2655:
.LBE2659:
	.loc 1 734 150 is_stmt 0 view .LVU2846
	ldr	r0, .L207+4
.LVL346:
.LBB2660:
.LBB2656:
	.loc 1 734 177 view .LVU2847
	movs	r3, #2
.LBE2656:
.LBE2660:
	.loc 1 734 150 view .LVU2848
	add	r2, r7, #16
.LVL347:
	.loc 1 734 150 view .LVU2849
	mov	r1, #4224
.LBB2661:
.LBB2657:
	.loc 1 734 177 view .LVU2850
	str	r3, [r7, #16]
.LVL348:
	.loc 1 734 177 view .LVU2851
.LBE2657:
.LBE2661:
	.loc 1 734 27 is_stmt 1 view .LVU2852
	.loc 1 734 8 view .LVU2853
	.loc 1 734 148 view .LVU2854
	.loc 1 734 150 view .LVU2855
	bl	z_log_msg_static_create.constprop.0
.LVL349:
	.loc 1 734 150 is_stmt 0 view .LVU2856
.LBE2664:
	.loc 1 734 108 is_stmt 1 view .LVU2857
	.loc 1 734 6 view .LVU2858
.LVL350:
	.loc 1 734 43 view .LVU2859
.LBE2668:
	.loc 1 734 7 view .LVU2860
	.loc 1 734 279 view .LVU2861
	.loc 1 734 6 view .LVU2862
	.loc 1 734 19 view .LVU2863
.LBE2672:
	.loc 1 734 7 view .LVU2864
	.loc 1 735 4 view .LVU2865
	mov	r0, r4
	bl	net_buf_unref
.LVL351:
	.loc 1 736 4 view .LVU2866
	.loc 1 736 10 is_stmt 0 view .LVU2867
	b	.L192
.L208:
	.align	2
.L207:
	.word	.LC6
	.word	log_const_bt_att
	.word	.LC8
	.word	.LC7
	.word	z_tls_current(tpoff)
	.word	k_sys_work_q
	.word	free_att_tx_meta_data
	.word	.LC9
	.cfi_endproc
.LFE618:
	.size	bt_att_chan_create_pdu, .-bt_att_chan_create_pdu
	.section	.text.read_type_cb,"ax",%progbits
	.align	1
	.syntax unified
	.thumb
	.thumb_func
	.type	read_type_cb, %function
read_type_cb:
.LVL352:
.LFB637:
	.loc 1 1426 1 is_stmt 1 view -0
	.cfi_startproc
	@ args = 0, pretend = 0, frame = 0
	@ frame_needed = 0, uses_anonymous_args = 0
	.loc 1 1427 2 view .LVU2869
	.loc 1 1428 2 view .LVU2870
	.loc 1 1426 1 is_stmt 0 view .LVU2871
	push	{r0, r1, r2, r4, r5, r6, r7, r8, r9, lr}
	.cfi_def_cfa_offset 40
	.cfi_offset 4, -28
	.cfi_offset 5, -24
	.cfi_offset 6, -20
	.cfi_offset 7, -16
	.cfi_offset 8, -12
	.cfi_offset 9, -8
	.cfi_offset 14, -4
	.loc 1 1428 22 view .LVU2872
	ldr	r7, [r2]
.LVL353:
	.loc 1 1429 2 is_stmt 1 view .LVU2873
	.loc 1 1426 1 is_stmt 0 view .LVU2874
	mov	r5, r0
	mov	r8, r1
	.loc 1 1433 6 view .LVU2875
	ldr	r0, [r0]
.LVL354:
	.loc 1 1433 6 view .LVU2876
	ldr	r1, [r2, #4]
.LVL355:
	.loc 1 1429 18 view .LVU2877
	ldr	r6, [r7, #4]
.LVL356:
	.loc 1 1430 2 is_stmt 1 view .LVU2878
	.loc 1 1433 2 view .LVU2879
	.loc 1 1426 1 is_stmt 0 view .LVU2880
	mov	r4, r2
	.loc 1 1433 6 view .LVU2881
	bl	bt_uuid_cmp
.LVL357:
	.loc 1 1433 5 view .LVU2882
	mov	r9, r0
	cmp	r0, #0
	bne	.L217
	.loc 1 1437 2 is_stmt 1 discriminator 335 view .LVU2883
.LBB2687:
	.loc 1 1437 7 discriminator 335 view .LVU2884
.LBE2687:
	.loc 1 1437 5 discriminator 335 view .LVU2885
	.loc 1 1449 2 discriminator 335 view .LVU2886
	.loc 1 1449 14 is_stmt 0 discriminator 335 view .LVU2887
	mov	r0, r6
	movs	r2, #149
	mov	r1, r5
	bl	bt_gatt_check_perm
.LVL358:
	mov	r6, r0
.LVL359:
	.loc 1 1449 12 discriminator 335 view .LVU2888
	strb	r0, [r4, #20]
	.loc 1 1450 2 is_stmt 1 discriminator 335 view .LVU2889
	.loc 1 1450 5 is_stmt 0 discriminator 335 view .LVU2890
	cbz	r0, .L211
	.loc 1 1451 3 is_stmt 1 view .LVU2891
	.loc 1 1451 16 is_stmt 0 view .LVU2892
	ldr	r3, [r4, #12]
	.loc 1 1451 6 view .LVU2893
	ldrb	r3, [r3]	@ zero_extendqisi2
	cbz	r3, .L213
	.loc 1 1452 4 is_stmt 1 view .LVU2894
	.loc 1 1452 14 is_stmt 0 view .LVU2895
	strb	r9, [r4, #20]
.L213:
	.loc 1 1454 10 view .LVU2896
	movs	r0, #0
.L210:
	.loc 1 1481 1 view .LVU2897
	add	sp, sp, #12
	.cfi_remember_state
	.cfi_def_cfa_offset 28
	@ sp needed
	pop	{r4, r5, r6, r7, r8, r9, pc}
.LVL360:
.L211:
	.cfi_restore_state
	.loc 1 1461 2 is_stmt 1 view .LVU2898
	.loc 1 1464 2 view .LVU2899
	.loc 1 1464 15 is_stmt 0 view .LVU2900
	ldr	r0, [r4, #8]
	bl	net_buf_frag_last
.LVL361:
.LBB2688:
.LBI2688:
	.loc 3 1493 21 is_stmt 1 view .LVU2901
.LBB2689:
	.loc 3 1495 2 view .LVU2902
	.loc 3 1495 9 is_stmt 0 view .LVU2903
	movs	r1, #2
	adds	r0, r0, #12
.LVL362:
	.loc 3 1495 9 view .LVU2904
	bl	net_buf_simple_add
.LVL363:
	.loc 3 1495 9 view .LVU2905
.LBE2689:
.LBE2688:
	.loc 1 1468 9 view .LVU2906
	ldr	r3, .L222
	.loc 1 1464 13 view .LVU2907
	str	r0, [r4, #16]
	.loc 1 1466 2 is_stmt 1 view .LVU2908
	.loc 1 1466 21 is_stmt 0 view .LVU2909
	strh	r8, [r0]	@ unaligned
	.loc 1 1468 2 is_stmt 1 view .LVU2910
	.loc 1 1468 9 is_stmt 0 view .LVU2911
	str	r3, [sp]
	str	r4, [sp, #4]
	ldr	r2, [r4, #8]
	mov	r3, r6
	mov	r1, r5
	mov	r0, r7
	bl	att_chan_read
.LVL364:
	.loc 1 1469 2 is_stmt 1 view .LVU2912
	.loc 1 1469 5 is_stmt 0 view .LVU2913
	cmp	r0, #0
	.loc 1 1469 5 view .LVU2914
	bge	.L214
	.loc 1 1470 3 is_stmt 1 view .LVU2915
.LVL365:
.LBB2690:
.LBI2690:
	.loc 1 1325 16 view .LVU2916
.LBB2691:
	.loc 1 1327 2 view .LVU2917
.LBB2692:
	.loc 1 1327 7 view .LVU2918
.LBE2692:
	.loc 1 1327 5 view .LVU2919
	.loc 1 1329 2 view .LVU2920
	.loc 1 1329 5 is_stmt 0 view .LVU2921
	cmn	r0, #255
	.loc 1 1330 3 is_stmt 1 view .LVU2922
	.loc 1 1330 10 is_stmt 0 view .LVU2923
	itte	cs
	rsbcs	r0, r0, #0
.LVL366:
	.loc 1 1330 10 view .LVU2924
	uxtbcs	r0, r0
	.loc 1 1333 9 view .LVU2925
	movcc	r0, #14
.LVL367:
	.loc 1 1333 9 view .LVU2926
.LBE2691:
.LBE2690:
	.loc 1 1470 13 view .LVU2927
	strb	r0, [r4, #20]
	.loc 1 1471 3 is_stmt 1 view .LVU2928
	.loc 1 1471 10 is_stmt 0 view .LVU2929
	b	.L213
.LVL368:
.L214:
	.loc 1 1474 2 is_stmt 1 view .LVU2930
	.loc 1 1474 5 is_stmt 0 view .LVU2931
	ldr	r3, [r4, #16]
	cmp	r3, #0
	beq	.L213
	.loc 1 1479 2 is_stmt 1 view .LVU2932
.LVL369:
.LBB2693:
.LBI2693:
	.loc 1 122 17 view .LVU2933
.LBB2694:
	.loc 1 129 2 view .LVU2934
	.loc 1 129 2 is_stmt 0 view .LVU2935
.LBE2694:
.LBE2693:
	.loc 1 1479 28 view .LVU2936
	ldr	r0, [r4, #8]
.LVL370:
	.loc 1 1479 28 view .LVU2937
	bl	net_buf_frags_len
.LVL371:
.LBB2696:
.LBB2695:
	.loc 1 129 76 view .LVU2938
	ldrh	r3, [r7, #42]
	ldrh	r2, [r7, #26]
.LBE2695:
.LBE2696:
	.loc 1 1479 26 view .LVU2939
	cmp	r2, r3
	ite	ls
	rsbls	r0, r0, r2
	rsbhi	r0, r0, r3
	.loc 1 1480 18 view .LVU2940
	ldr	r3, [r4, #12]
	ldrb	r3, [r3]	@ zero_extendqisi2
	.loc 1 1480 48 view .LVU2941
	cmp	r0, r3
	ite	ls
	movls	r0, #0
	movhi	r0, #1
	b	.L210
.LVL372:
.L217:
	.loc 1 1434 10 view .LVU2942
	movs	r0, #1
	b	.L210
.L223:
	.align	2
.L222:
	.word	attr_read_type_cb
	.cfi_endproc
.LFE637:
	.size	read_type_cb, .-read_type_cb
	.section	.text.read_cb,"ax",%progbits
	.align	1
	.syntax unified
	.thumb
	.thumb_func
	.type	read_cb, %function
read_cb:
.LVL373:
.LFB640:
	.loc 1 1565 1 is_stmt 1 view -0
	.cfi_startproc
	@ args = 0, pretend = 0, frame = 0
	@ frame_needed = 0, uses_anonymous_args = 0
	.loc 1 1566 2 view .LVU2944
	.loc 1 1567 2 view .LVU2945
	.loc 1 1565 1 is_stmt 0 view .LVU2946
	push	{r0, r1, r4, r5, r6, lr}
	.cfi_def_cfa_offset 24
	.cfi_offset 4, -16
	.cfi_offset 5, -12
	.cfi_offset 6, -8
	.cfi_offset 14, -4
	.loc 1 1567 22 view .LVU2947
	ldr	r6, [r2]
.LVL374:
	.loc 1 1568 2 is_stmt 1 view .LVU2948
	.loc 1 1565 1 is_stmt 0 view .LVU2949
	mov	r5, r0
	.loc 1 1577 12 view .LVU2950
	movs	r3, #0
	.loc 1 1568 18 view .LVU2951
	ldr	r0, [r6, #4]
.LVL375:
	.loc 1 1569 2 is_stmt 1 view .LVU2952
	.loc 1 1571 2 view .LVU2953
.LBB2707:
	.loc 1 1571 7 view .LVU2954
.LBE2707:
	.loc 1 1571 5 view .LVU2955
	.loc 1 1577 2 view .LVU2956
	.loc 1 1577 12 is_stmt 0 view .LVU2957
	strb	r3, [r2, #12]
	.loc 1 1580 2 is_stmt 1 view .LVU2958
	.loc 1 1565 1 is_stmt 0 view .LVU2959
	mov	r4, r2
	.loc 1 1580 14 view .LVU2960
	mov	r1, r5
.LVL376:
	.loc 1 1580 14 view .LVU2961
	movs	r2, #149
.LVL377:
	.loc 1 1580 14 view .LVU2962
	bl	bt_gatt_check_perm
.LVL378:
	.loc 1 1580 12 view .LVU2963
	strb	r0, [r4, #12]
	.loc 1 1581 2 is_stmt 1 view .LVU2964
	.loc 1 1581 5 is_stmt 0 view .LVU2965
	cbnz	r0, .L225
	.loc 1 1586 2 is_stmt 1 view .LVU2966
	.loc 1 1586 8 is_stmt 0 view .LVU2967
	strd	r0, r0, [sp]
	mov	r1, r5
	ldrh	r3, [r4, #4]
	ldr	r2, [r4, #8]
	mov	r0, r6
	bl	att_chan_read
.LVL379:
	.loc 1 1587 2 is_stmt 1 view .LVU2968
	.loc 1 1587 5 is_stmt 0 view .LVU2969
	cmp	r0, #0
	.loc 1 1587 5 view .LVU2970
	bge	.L228
	.loc 1 1588 3 is_stmt 1 view .LVU2971
.LVL380:
.LBB2708:
.LBI2708:
	.loc 1 1325 16 view .LVU2972
.LBB2709:
	.loc 1 1327 2 view .LVU2973
.LBB2710:
	.loc 1 1327 7 view .LVU2974
.LBE2710:
	.loc 1 1327 5 view .LVU2975
	.loc 1 1329 2 view .LVU2976
	.loc 1 1329 5 is_stmt 0 view .LVU2977
	cmn	r0, #255
	.loc 1 1330 3 is_stmt 1 view .LVU2978
	.loc 1 1330 10 is_stmt 0 view .LVU2979
	itte	cs
	rsbcs	r0, r0, #0
.LVL381:
	.loc 1 1330 10 view .LVU2980
	uxtbcs	r0, r0
	.loc 1 1333 9 view .LVU2981
	movcc	r0, #14
.LVL382:
	.loc 1 1333 9 view .LVU2982
.LBE2709:
.LBE2708:
	.loc 1 1588 13 view .LVU2983
	strb	r0, [r4, #12]
	.loc 1 1589 3 is_stmt 1 view .LVU2984
.LVL383:
.L225:
	.loc 1 1582 10 is_stmt 0 view .LVU2985
	movs	r0, #0
.L226:
	.loc 1 1593 1 view .LVU2986
	add	sp, sp, #8
	.cfi_remember_state
	.cfi_def_cfa_offset 16
	@ sp needed
	pop	{r4, r5, r6, pc}
.LVL384:
.L228:
	.cfi_restore_state
	.loc 1 1592 9 view .LVU2987
	movs	r0, #1
.LVL385:
	.loc 1 1592 9 view .LVU2988
	b	.L226
	.cfi_endproc
.LFE640:
	.size	read_cb, .-read_cb
	.section	.text.read_vl_cb,"ax",%progbits
	.align	1
	.syntax unified
	.thumb
	.thumb_func
	.type	read_vl_cb, %function
read_vl_cb:
.LVL386:
.LFB645:
	.loc 1 1731 1 is_stmt 1 view -0
	.cfi_startproc
	@ args = 0, pretend = 0, frame = 0
	@ frame_needed = 0, uses_anonymous_args = 0
	.loc 1 1732 2 view .LVU2990
	.loc 1 1733 2 view .LVU2991
	.loc 1 1731 1 is_stmt 0 view .LVU2992
	push	{r0, r1, r4, r5, r6, r7, r8, lr}
	.cfi_def_cfa_offset 32
	.cfi_offset 4, -24
	.cfi_offset 5, -20
	.cfi_offset 6, -16
	.cfi_offset 7, -12
	.cfi_offset 8, -8
	.cfi_offset 14, -4
	.loc 1 1733 22 view .LVU2993
	ldr	r6, [r2]
.LVL387:
	.loc 1 1734 2 is_stmt 1 view .LVU2994
	.loc 1 1731 1 is_stmt 0 view .LVU2995
	mov	r7, r0
	.loc 1 1744 12 view .LVU2996
	movs	r3, #0
	.loc 1 1734 18 view .LVU2997
	ldr	r0, [r6, #4]
.LVL388:
	.loc 1 1735 2 is_stmt 1 view .LVU2998
	.loc 1 1736 2 view .LVU2999
	.loc 1 1738 2 view .LVU3000
.LBB2725:
	.loc 1 1738 7 view .LVU3001
.LBE2725:
	.loc 1 1738 5 view .LVU3002
	.loc 1 1744 2 view .LVU3003
	.loc 1 1744 12 is_stmt 0 view .LVU3004
	strb	r3, [r2, #12]
	.loc 1 1747 2 is_stmt 1 view .LVU3005
	.loc 1 1731 1 is_stmt 0 view .LVU3006
	mov	r4, r2
	.loc 1 1747 14 view .LVU3007
	mov	r1, r7
.LVL389:
	.loc 1 1747 14 view .LVU3008
	movs	r2, #149
.LVL390:
	.loc 1 1747 14 view .LVU3009
	bl	bt_gatt_check_perm
.LVL391:
	.loc 1 1747 14 view .LVU3010
	mov	r5, r0
	.loc 1 1747 12 view .LVU3011
	strb	r0, [r4, #12]
	.loc 1 1748 2 is_stmt 1 view .LVU3012
	.loc 1 1748 5 is_stmt 0 view .LVU3013
	cbnz	r0, .L231
	.loc 1 1755 2 is_stmt 1 view .LVU3014
.LVL392:
.LBB2726:
.LBI2726:
	.loc 1 122 17 view .LVU3015
.LBB2727:
	.loc 1 129 2 view .LVU3016
	.loc 1 129 2 is_stmt 0 view .LVU3017
.LBE2727:
.LBE2726:
	.loc 1 1755 29 view .LVU3018
	ldr	r0, [r4, #8]
.LBB2729:
.LBB2728:
	.loc 1 129 76 view .LVU3019
	ldrh	r1, [r6, #42]
	ldrh	r2, [r6, #26]
.LBE2728:
.LBE2729:
	.loc 1 1755 34 view .LVU3020
	ldrh	r3, [r0, #16]
	.loc 1 1755 23 view .LVU3021
	cmp	r1, r2
	ite	ls
	rsbls	r3, r3, r1
	rsbhi	r3, r3, r2
	.loc 1 1755 5 view .LVU3022
	cmp	r3, #1
	ble	.L231
	.loc 1 1759 2 is_stmt 1 view .LVU3023
.LVL393:
.LBB2730:
.LBI2730:
	.loc 3 1493 21 view .LVU3024
.LBB2731:
	.loc 3 1495 2 view .LVU3025
	.loc 3 1495 9 is_stmt 0 view .LVU3026
	movs	r1, #2
	adds	r0, r0, #12
.LVL394:
	.loc 3 1495 9 view .LVU3027
	bl	net_buf_simple_add
.LVL395:
	.loc 3 1495 9 view .LVU3028
.LBE2731:
.LBE2730:
	.loc 1 1761 9 view .LVU3029
	strd	r5, r5, [sp]
.LBB2733:
.LBB2732:
	.loc 3 1495 9 view .LVU3030
	mov	r8, r0
.LVL396:
	.loc 3 1495 9 view .LVU3031
.LBE2732:
.LBE2733:
	.loc 1 1761 2 is_stmt 1 view .LVU3032
	.loc 1 1761 9 is_stmt 0 view .LVU3033
	ldrh	r3, [r4, #4]
	ldr	r2, [r4, #8]
	mov	r1, r7
	mov	r0, r6
.LVL397:
	.loc 1 1761 9 view .LVU3034
	bl	att_chan_read
.LVL398:
	.loc 1 1762 2 is_stmt 1 view .LVU3035
	.loc 1 1762 5 is_stmt 0 view .LVU3036
	subs	r3, r0, #0
	bge	.L232
	.loc 1 1763 3 is_stmt 1 view .LVU3037
.LVL399:
.LBB2734:
.LBI2734:
	.loc 1 1325 16 view .LVU3038
.LBB2735:
	.loc 1 1327 2 view .LVU3039
.LBB2736:
	.loc 1 1327 7 view .LVU3040
.LBE2736:
	.loc 1 1327 5 view .LVU3041
	.loc 1 1329 2 view .LVU3042
	.loc 1 1329 5 is_stmt 0 view .LVU3043
	cmn	r3, #255
	.loc 1 1330 3 is_stmt 1 view .LVU3044
	.loc 1 1330 10 is_stmt 0 view .LVU3045
	itte	cs
	rsbcs	r3, r3, #0
	uxtbcs	r3, r3
	.loc 1 1333 9 view .LVU3046
	movcc	r3, #14
.LVL400:
	.loc 1 1333 9 view .LVU3047
.LBE2735:
.LBE2734:
	.loc 1 1763 13 view .LVU3048
	strb	r3, [r4, #12]
	.loc 1 1764 3 is_stmt 1 view .LVU3049
.LVL401:
.L231:
	.loc 1 1749 10 is_stmt 0 view .LVU3050
	movs	r0, #0
.L234:
	.loc 1 1770 1 view .LVU3051
	add	sp, sp, #8
	.cfi_remember_state
	.cfi_def_cfa_offset 24
	@ sp needed
	pop	{r4, r5, r6, r7, r8, pc}
.LVL402:
.L232:
	.cfi_restore_state
	.loc 1 1767 2 is_stmt 1 view .LVU3052
	.loc 1 1767 11 is_stmt 0 view .LVU3053
	strh	r3, [r8]	@ unaligned
	.loc 1 1769 2 is_stmt 1 view .LVU3054
	.loc 1 1769 9 is_stmt 0 view .LVU3055
	movs	r0, #1
.LVL403:
	.loc 1 1769 9 view .LVU3056
	b	.L234
	.cfi_endproc
.LFE645:
	.size	read_vl_cb, .-read_vl_cb
	.section	.rodata.bt_att_accept.str1.1,"aMS",%progbits,1
.LC10:
	.ascii	"No available ATT context for conn %p\000"
.LC11:
	.ascii	"No available ATT channel for conn %p\000"
	.section	.text.bt_att_accept,"ax",%progbits
	.align	1
	.syntax unified
	.thumb
	.thumb_func
	.type	bt_att_accept, %function
bt_att_accept:
.LVL404:
.LFB676:
	.loc 1 3426 1 is_stmt 1 view -0
	.cfi_startproc
	@ args = 0, pretend = 0, frame = 8
	@ frame_needed = 1, uses_anonymous_args = 0
	.loc 1 3427 2 view .LVU3058
	.loc 1 3428 2 view .LVU3059
	.loc 1 3430 2 view .LVU3060
.LBB2832:
	.loc 1 3430 7 view .LVU3061
.LBE2832:
	.loc 1 3430 5 view .LVU3062
	.loc 1 3432 2 view .LVU3063
	.loc 1 3426 1 is_stmt 0 view .LVU3064
	push	{r4, r5, r6, r7, r8, lr}
	.cfi_def_cfa_offset 24
	.cfi_offset 4, -24
	.cfi_offset 5, -20
	.cfi_offset 6, -16
	.cfi_offset 7, -12
	.cfi_offset 8, -8
	.cfi_offset 14, -4
	sub	sp, sp, #8
	.cfi_def_cfa_offset 32
	add	r7, sp, #0
	.cfi_def_cfa_register 7
	.loc 1 3426 1 view .LVU3065
	mov	r4, r0
	mov	r6, r1
.LBB2833:
	.loc 1 3432 6 view .LVU3066
	ldr	r0, .L244
.LVL405:
	.loc 1 3432 6 view .LVU3067
	movs	r2, #0
	movs	r3, #0
	mov	r1, r7
.LVL406:
	.loc 1 3432 6 view .LVU3068
	bl	k_mem_slab_alloc
.LVL407:
	.loc 1 3432 5 view .LVU3069
	mov	r5, r0
	cbz	r0, .L237
	.loc 1 3433 3 is_stmt 1 view .LVU3070
.LBB2834:
	.loc 1 3433 8 view .LVU3071
	.loc 1 3433 57 view .LVU3072
	.loc 1 3433 14 view .LVU3073
	.loc 1 3433 2 view .LVU3074
.LVL408:
	.loc 1 3433 41 view .LVU3075
	.loc 1 3433 176 view .LVU3076
	.loc 1 3433 187 view .LVU3077
	.loc 1 3433 275 view .LVU3078
.LBB2835:
	.loc 1 3433 3 view .LVU3079
	.loc 1 3433 5 view .LVU3080
	.loc 1 3433 3 view .LVU3081
.LBB2836:
	.loc 1 3433 8 view .LVU3082
	.loc 1 3433 2 view .LVU3083
.LBE2836:
.LBE2835:
.LBE2834:
.LBE2833:
	.loc 1 3433 3 view .LVU3084
	.loc 1 3433 12 view .LVU3085
	.loc 1 3433 107 view .LVU3086
	.loc 1 3433 3 view .LVU3087
.LBB2855:
.LBB2852:
.LBB2849:
.LBB2846:
	.loc 1 3433 12 view .LVU3088
	.loc 1 3433 102 view .LVU3089
	.loc 1 3433 104 view .LVU3090
.LBB2837:
	.loc 1 3433 107 is_stmt 0 view .LVU3091
	mov	r5, sp
	.loc 1 3433 109 is_stmt 1 view .LVU3092
	.loc 1 3433 120 view .LVU3093
.LVL409:
	.loc 1 3433 209 view .LVU3094
	.loc 1 3433 26 view .LVU3095
.LBE2837:
.LBE2846:
.LBE2849:
.LBE2852:
.LBE2855:
	.loc 1 3433 3 view .LVU3096
	.loc 1 3433 368 view .LVU3097
	.loc 1 3433 75 view .LVU3098
	.loc 1 3433 2 view .LVU3099
	.loc 1 3433 2 view .LVU3100
	.loc 1 3433 2 view .LVU3101
	.loc 1 3433 38 view .LVU3102
	.loc 1 3433 4 view .LVU3103
	.loc 1 3433 30 view .LVU3104
	.loc 1 3433 56 view .LVU3105
	.loc 1 3433 523 view .LVU3106
	.loc 1 3433 585 view .LVU3107
	.loc 1 3433 1106 view .LVU3108
	.loc 1 3433 1171 view .LVU3109
	.loc 1 3433 1196 view .LVU3110
	.loc 1 3433 1197 view .LVU3111
	.loc 1 3433 1199 view .LVU3112
	.loc 1 3433 1229 view .LVU3113
	.loc 1 3433 1259 view .LVU3114
	.loc 1 3433 1291 view .LVU3115
	.loc 1 3433 1323 view .LVU3116
	.loc 1 3433 1355 view .LVU3117
	.loc 1 3433 1552 view .LVU3118
	.loc 1 3433 1576 view .LVU3119
	.loc 1 3433 1577 view .LVU3120
	.loc 1 3433 1579 view .LVU3121
	.loc 1 3433 1608 view .LVU3122
	.loc 1 3433 1637 view .LVU3123
	.loc 1 3433 1668 view .LVU3124
	.loc 1 3433 1699 view .LVU3125
	.loc 1 3433 1730 view .LVU3126
	.loc 1 3433 1937 view .LVU3127
	.loc 1 3433 4 view .LVU3128
	.loc 1 3433 22 view .LVU3129
	.loc 1 3433 42 view .LVU3130
	.loc 1 3433 4 view .LVU3131
	.loc 1 3433 42 view .LVU3132
	.loc 1 3433 13 view .LVU3133
	.loc 1 3433 13 view .LVU3134
	.loc 1 3433 61 view .LVU3135
	.loc 1 3433 92 view .LVU3136
	.loc 1 3433 126 view .LVU3137
	.loc 1 3433 131 view .LVU3138
	.loc 1 3433 391 view .LVU3139
	.loc 1 3433 1484 view .LVU3140
	.loc 1 3433 1549 view .LVU3141
	.loc 1 3433 1573 view .LVU3142
	.loc 1 3433 1637 view .LVU3143
	.loc 1 3433 1648 view .LVU3144
	.loc 1 3433 1770 view .LVU3145
	.loc 1 3433 1786 view .LVU3146
	.loc 1 3433 1826 view .LVU3147
	.loc 1 3433 1851 view .LVU3148
	.loc 1 3433 3160 view .LVU3149
	.loc 1 3433 3201 view .LVU3150
	.loc 1 3433 7 view .LVU3151
	.loc 1 3433 30 view .LVU3152
	.loc 1 3433 129 view .LVU3153
	.loc 1 3433 6 view .LVU3154
	.loc 1 3433 11 view .LVU3155
	.loc 1 3433 236 view .LVU3156
	.loc 1 3433 1189 view .LVU3157
	.loc 1 3433 1254 view .LVU3158
	.loc 1 3433 1278 view .LVU3159
	.loc 1 3433 1307 view .LVU3160
	.loc 1 3433 1318 view .LVU3161
	.loc 1 3433 1405 view .LVU3162
	.loc 1 3433 1421 view .LVU3163
	.loc 1 3433 1461 view .LVU3164
	.loc 1 3433 2725 view .LVU3165
	.loc 1 3433 2766 view .LVU3166
	.loc 1 3433 7 view .LVU3167
	.loc 1 3433 30 view .LVU3168
	.loc 1 3433 9 view .LVU3169
	.loc 1 3433 5 view .LVU3170
	.loc 1 3433 28 view .LVU3171
	.loc 1 3433 52 view .LVU3172
	.loc 1 3433 80 view .LVU3173
	.loc 1 3433 256 view .LVU3174
	.loc 1 3433 16 view .LVU3175
.LBB2856:
.LBB2853:
.LBB2850:
.LBB2847:
.LBB2844:
	.loc 1 3433 29 view .LVU3176
	.loc 1 3433 3 view .LVU3177
	.loc 1 3433 3 view .LVU3178
	.loc 1 3433 70 view .LVU3179
	.loc 1 3433 82 is_stmt 0 view .LVU3180
	sub	sp, sp, #32
	mov	r2, sp
.LVL410:
	.loc 1 3433 74 is_stmt 1 view .LVU3181
	.loc 1 3433 484 view .LVU3182
	.loc 1 3433 5 view .LVU3183
	.loc 1 3433 7 view .LVU3184
	.loc 1 3433 12 view .LVU3185
	.loc 1 3433 10 view .LVU3186
	.loc 1 3433 5 view .LVU3187
	.loc 1 3433 23 view .LVU3188
.LBB2838:
	.loc 1 3433 3 view .LVU3189
	.loc 1 3433 368 view .LVU3190
	.loc 1 3433 75 view .LVU3191
.LVL411:
	.loc 1 3433 2 view .LVU3192
	.loc 1 3433 2 view .LVU3193
	.loc 1 3433 2 view .LVU3194
	.loc 1 3433 38 view .LVU3195
	.loc 1 3433 67 view .LVU3196
	.loc 1 3433 93 view .LVU3197
	.loc 1 3433 119 view .LVU3198
	.loc 1 3433 586 view .LVU3199
	.loc 1 3433 648 view .LVU3200
	.loc 1 3433 1169 view .LVU3201
	.loc 1 3433 1234 view .LVU3202
	.loc 1 3433 1259 view .LVU3203
	.loc 1 3433 1260 view .LVU3204
	.loc 1 3433 1262 view .LVU3205
	.loc 1 3433 1292 view .LVU3206
	.loc 1 3433 1322 view .LVU3207
	.loc 1 3433 1354 view .LVU3208
	.loc 1 3433 1386 view .LVU3209
	.loc 1 3433 1418 view .LVU3210
	.loc 1 3433 1615 view .LVU3211
	.loc 1 3433 1639 view .LVU3212
	.loc 1 3433 1640 view .LVU3213
	.loc 1 3433 1642 view .LVU3214
	.loc 1 3433 1671 view .LVU3215
	.loc 1 3433 1700 view .LVU3216
	.loc 1 3433 1731 view .LVU3217
	.loc 1 3433 1762 view .LVU3218
	.loc 1 3433 1793 view .LVU3219
	.loc 1 3433 2000 view .LVU3220
.LBB2839:
	.loc 1 3433 3198 view .LVU3221
	.loc 1 3433 3203 view .LVU3222
	.loc 1 3433 3857 view .LVU3223
	.loc 1 3433 0 is_stmt 0 view .LVU3224
	ldr	r3, .L244+4
.LBE2839:
.LBE2838:
	.loc 1 3433 149 view .LVU3225
	ldr	r0, .L244+8
.LBB2842:
.LBB2840:
	.loc 1 3433 3811 view .LVU3226
	strd	r3, r4, [r2, #20]
	.loc 1 3433 2766 is_stmt 1 view .LVU3227
	.loc 1 3433 7 view .LVU3228
.LVL412:
	.loc 1 3433 30 view .LVU3229
	.loc 1 3433 30 is_stmt 0 view .LVU3230
.LBE2840:
	.loc 1 3433 9 is_stmt 1 view .LVU3231
	.loc 1 3433 5 view .LVU3232
	.loc 1 3433 28 view .LVU3233
	.loc 1 3433 52 view .LVU3234
	.loc 1 3433 80 view .LVU3235
.LBE2842:
.LBE2844:
.LBE2847:
.LBE2850:
.LBE2853:
.LBE2856:
	.loc 1 3433 6 view .LVU3236
	.loc 1 3433 45 view .LVU3237
	.loc 1 3433 50 view .LVU3238
	.loc 1 3433 80 view .LVU3239
	.loc 1 3433 147 view .LVU3240
	.loc 1 3433 152 view .LVU3241
	.loc 1 3433 182 view .LVU3242
.LBB2857:
.LBB2854:
.LBB2851:
.LBB2848:
.LBB2845:
.LBB2843:
	.loc 1 3433 256 view .LVU3243
	.loc 1 3433 16 view .LVU3244
.LBB2841:
	.loc 1 3433 6 view .LVU3245
	.loc 1 3433 164 view .LVU3246
	.loc 1 3433 166 view .LVU3247
	.loc 1 3433 176 is_stmt 0 view .LVU3248
	movs	r3, #3
	str	r3, [r2, #16]!
.LVL413:
	.loc 1 3433 176 view .LVU3249
.LBE2841:
.LBE2843:
	.loc 1 3433 26 is_stmt 1 view .LVU3250
	.loc 1 3433 7 view .LVU3251
	.loc 1 3433 147 view .LVU3252
	.loc 1 3433 149 view .LVU3253
	mov	r1, #6208
	bl	z_log_msg_static_create.constprop.0
.LVL414:
	.loc 1 3433 149 is_stmt 0 view .LVU3254
	mov	sp, r5
.LVL415:
	.loc 1 3433 149 view .LVU3255
.LBE2845:
	.loc 1 3433 107 is_stmt 1 view .LVU3256
	.loc 1 3433 5 view .LVU3257
	.loc 1 3433 42 view .LVU3258
.LBE2848:
	.loc 1 3433 6 view .LVU3259
.LBE2851:
	.loc 1 3433 278 view .LVU3260
	.loc 1 3433 5 view .LVU3261
	.loc 1 3433 18 view .LVU3262
.LBE2854:
	.loc 1 3433 6 view .LVU3263
	.loc 1 3434 3 view .LVU3264
.L238:
	.loc 1 3434 10 is_stmt 0 view .LVU3265
	mvn	r5, #11
.L236:
.LBE2857:
	.loc 1 3457 1 view .LVU3266
	mov	r0, r5
	adds	r7, r7, #8
	.cfi_remember_state
	.cfi_def_cfa_offset 24
	mov	sp, r7
	.cfi_def_cfa_register 13
	@ sp needed
	pop	{r4, r5, r6, r7, r8, pc}
.LVL416:
.L237:
	.cfi_restore_state
	.loc 1 3437 2 is_stmt 1 view .LVU3267
.LBB2858:
.LBI2858:
	.loc 9 597 23 view .LVU3268
.LBB2859:
	.loc 9 601 2 view .LVU3269
	.loc 9 603 2 view .LVU3270
	.loc 9 603 9 is_stmt 0 view .LVU3271
	bl	__aeabi_read_tp	@ load_tp_soft
	ldr	r3, .L244+12
.LBE2859:
.LBE2858:
	.loc 1 3439 9 view .LVU3272
	ldr	r8, [r7]
	.loc 1 3437 24 view .LVU3273
	ldr	r2, [r3, r0]
	ldr	r3, .L244+16
.LBB2860:
.LBB2861:
	.loc 5 86 245 view .LVU3274
	mov	r1, r5
.LBE2861:
.LBE2860:
	.loc 1 3437 24 view .LVU3275
	str	r2, [r3]
	.loc 1 3439 2 is_stmt 1 view .LVU3276
.LVL417:
.LBB2863:
.LBI2860:
	.loc 5 86 189 view .LVU3277
.LBB2862:
	.loc 5 86 238 view .LVU3278
	.loc 5 86 245 is_stmt 0 view .LVU3279
	add	r0, r8, #4
	movs	r2, #40
	bl	memset
.LVL418:
	.loc 5 86 245 view .LVU3280
.LBE2862:
.LBE2863:
	.loc 1 3440 2 is_stmt 1 view .LVU3281
	.loc 1 3440 12 is_stmt 0 view .LVU3282
	str	r4, [r8]
	.loc 1 3441 2 is_stmt 1 view .LVU3283
	.loc 1 3441 21 is_stmt 0 view .LVU3284
	ldr	r4, [r7]
.LVL419:
.LBB2864:
.LBI2864:
	.loc 2 199 20 is_stmt 1 view .LVU3285
.LBB2865:
	.loc 2 201 2 view .LVU3286
.LBE2865:
.LBE2864:
.LBB2867:
.LBB2868:
.LBB2869:
	.loc 1 3352 6 is_stmt 0 view .LVU3287
	ldr	r0, .L244+20
.LBE2869:
	.loc 1 3341 12 view .LVU3288
	str	r5, [r7, #4]
.LVL420:
	.loc 1 3341 12 view .LVU3289
.LBE2868:
.LBE2867:
.LBB2918:
.LBB2866:
	.loc 2 202 13 view .LVU3290
	strd	r5, r5, [r4, #4]
.LVL421:
	.loc 2 202 13 view .LVU3291
.LBE2866:
.LBE2918:
	.loc 1 3442 2 is_stmt 1 view .LVU3292
.LBB2919:
.LBI2919:
	.loc 2 199 20 view .LVU3293
.LBB2920:
	.loc 2 201 2 view .LVU3294
	.loc 2 202 13 is_stmt 0 view .LVU3295
	strd	r5, r5, [r4, #36]
.LVL422:
	.loc 2 202 13 view .LVU3296
.LBE2920:
.LBE2919:
	.loc 1 3449 2 is_stmt 1 view .LVU3297
.LBB2921:
.LBI2867:
	.loc 1 3322 28 view .LVU3298
.LBB2916:
	.loc 1 3324 2 view .LVU3299
	.loc 1 3325 2 view .LVU3300
	.loc 1 3339 2 view .LVU3301
	.loc 1 3341 2 view .LVU3302
	.loc 1 3341 9 view .LVU3303
	.loc 1 3352 2 view .LVU3304
.LBB2879:
	.loc 1 3352 6 is_stmt 0 view .LVU3305
	movs	r2, #0
	movs	r3, #0
	adds	r1, r7, #4
	bl	k_mem_slab_alloc
.LVL423:
	.loc 1 3352 5 view .LVU3306
	mov	r5, r0
	cbz	r0, .L239
	.loc 1 3353 3 is_stmt 1 view .LVU3307
.LBB2870:
	.loc 1 3353 8 view .LVU3308
	.loc 1 3353 57 view .LVU3309
	.loc 1 3353 14 view .LVU3310
	.loc 1 3353 2 view .LVU3311
.LVL424:
	.loc 1 3353 41 view .LVU3312
	.loc 1 3353 176 view .LVU3313
	.loc 1 3353 187 view .LVU3314
	.loc 1 3353 275 view .LVU3315
.LBB2871:
	.loc 1 3353 3 view .LVU3316
	.loc 1 3353 5 view .LVU3317
	.loc 1 3353 17 is_stmt 0 view .LVU3318
	ldr	r3, [r4]
.LVL425:
	.loc 1 3353 3 is_stmt 1 view .LVU3319
.LBB2872:
	.loc 1 3353 8 view .LVU3320
	.loc 1 3353 2 view .LVU3321
	.loc 1 3353 12 view .LVU3322
	.loc 1 3353 102 view .LVU3323
	.loc 1 3353 104 view .LVU3324
.LBB2873:
	.loc 1 3353 107 is_stmt 0 view .LVU3325
	mov	r4, sp
.LVL426:
	.loc 1 3353 109 is_stmt 1 view .LVU3326
	.loc 1 3353 120 view .LVU3327
	.loc 1 3353 209 view .LVU3328
	.loc 1 3353 26 view .LVU3329
	.loc 1 3353 29 view .LVU3330
	.loc 1 3353 3 view .LVU3331
	.loc 1 3353 3 view .LVU3332
	.loc 1 3353 70 view .LVU3333
	.loc 1 3353 82 is_stmt 0 view .LVU3334
	sub	sp, sp, #32
	mov	r2, sp
.LVL427:
	.loc 1 3353 74 is_stmt 1 view .LVU3335
	.loc 1 3353 484 view .LVU3336
	.loc 1 3353 5 view .LVU3337
	.loc 1 3353 7 view .LVU3338
	.loc 1 3353 12 view .LVU3339
	.loc 1 3353 10 view .LVU3340
	.loc 1 3353 5 view .LVU3341
	.loc 1 3353 23 view .LVU3342
.LBB2874:
	.loc 1 3353 3 view .LVU3343
	.loc 1 3353 368 view .LVU3344
	.loc 1 3353 75 view .LVU3345
.LVL428:
	.loc 1 3353 2 view .LVU3346
	.loc 1 3353 2 view .LVU3347
	.loc 1 3353 2 view .LVU3348
	.loc 1 3353 38 view .LVU3349
	.loc 1 3353 67 view .LVU3350
	.loc 1 3353 93 view .LVU3351
	.loc 1 3353 119 view .LVU3352
	.loc 1 3353 586 view .LVU3353
	.loc 1 3353 648 view .LVU3354
	.loc 1 3353 1169 view .LVU3355
	.loc 1 3353 1234 view .LVU3356
	.loc 1 3353 1259 view .LVU3357
	.loc 1 3353 1260 view .LVU3358
	.loc 1 3353 1262 view .LVU3359
	.loc 1 3353 1292 view .LVU3360
	.loc 1 3353 1322 view .LVU3361
	.loc 1 3353 1354 view .LVU3362
	.loc 1 3353 1386 view .LVU3363
	.loc 1 3353 1418 view .LVU3364
	.loc 1 3353 1615 view .LVU3365
	.loc 1 3353 1639 view .LVU3366
	.loc 1 3353 1640 view .LVU3367
	.loc 1 3353 1642 view .LVU3368
	.loc 1 3353 1671 view .LVU3369
	.loc 1 3353 1700 view .LVU3370
	.loc 1 3353 1731 view .LVU3371
	.loc 1 3353 1762 view .LVU3372
	.loc 1 3353 1793 view .LVU3373
	.loc 1 3353 2000 view .LVU3374
.LBB2875:
	.loc 1 3353 3198 view .LVU3375
	.loc 1 3353 3203 view .LVU3376
	.loc 1 3353 3857 view .LVU3377
	.loc 1 3353 0 is_stmt 0 view .LVU3378
	ldr	r1, .L244+24
.LBE2875:
.LBE2874:
	.loc 1 3353 149 view .LVU3379
	ldr	r0, .L244+8
.LBB2878:
.LBB2876:
	.loc 1 3353 3811 view .LVU3380
	strd	r1, r3, [r2, #20]
	.loc 1 3353 2766 is_stmt 1 view .LVU3381
	.loc 1 3353 7 view .LVU3382
.LVL429:
	.loc 1 3353 30 view .LVU3383
	.loc 1 3353 30 is_stmt 0 view .LVU3384
.LBE2876:
	.loc 1 3353 9 is_stmt 1 view .LVU3385
	.loc 1 3353 5 view .LVU3386
	.loc 1 3353 28 view .LVU3387
	.loc 1 3353 52 view .LVU3388
	.loc 1 3353 80 view .LVU3389
	.loc 1 3353 256 view .LVU3390
	.loc 1 3353 16 view .LVU3391
.LBB2877:
	.loc 1 3353 6 view .LVU3392
	.loc 1 3353 164 view .LVU3393
	.loc 1 3353 166 view .LVU3394
	.loc 1 3353 176 is_stmt 0 view .LVU3395
	movs	r3, #3
.LVL430:
	.loc 1 3353 176 view .LVU3396
	str	r3, [r2, #16]!
.LVL431:
	.loc 1 3353 176 view .LVU3397
.LBE2877:
.LBE2878:
	.loc 1 3353 26 is_stmt 1 view .LVU3398
	.loc 1 3353 7 view .LVU3399
	.loc 1 3353 147 view .LVU3400
	.loc 1 3353 149 view .LVU3401
	mov	r1, #6272
	bl	z_log_msg_static_create.constprop.0
.LVL432:
	.loc 1 3353 149 is_stmt 0 view .LVU3402
	mov	sp, r4
.LVL433:
	.loc 1 3353 149 view .LVU3403
.LBE2873:
	.loc 1 3353 107 is_stmt 1 view .LVU3404
	.loc 1 3353 5 view .LVU3405
	.loc 1 3353 42 view .LVU3406
.LBE2872:
	.loc 1 3353 6 view .LVU3407
.LBE2871:
	.loc 1 3353 278 view .LVU3408
	.loc 1 3353 5 view .LVU3409
	.loc 1 3353 18 view .LVU3410
.LBE2870:
	.loc 1 3353 6 view .LVU3411
	.loc 1 3354 3 view .LVU3412
	.loc 1 3354 3 is_stmt 0 view .LVU3413
.LBE2879:
.LBE2916:
.LBE2921:
	.loc 1 3450 2 is_stmt 1 view .LVU3414
	b	.L238
.LVL434:
.L239:
.LBB2922:
.LBB2917:
	.loc 1 3357 2 view .LVU3415
	.loc 1 3357 9 is_stmt 0 view .LVU3416
	ldr	r3, [r7, #4]
.LVL435:
.LBB2880:
.LBI2880:
	.loc 5 86 189 is_stmt 1 view .LVU3417
.LBB2881:
	.loc 5 86 238 view .LVU3418
	.loc 5 86 245 is_stmt 0 view .LVU3419
	mov	r1, r0
	movs	r2, #168
	mov	r0, r3
	bl	memset
.LVL436:
	.loc 5 86 245 view .LVU3420
.LBE2881:
.LBE2880:
	.loc 1 3358 2 is_stmt 1 view .LVU3421
	.loc 1 3358 22 is_stmt 0 view .LVU3422
	ldr	r2, .L244+28
	str	r2, [r0, #8]
	.loc 1 3359 2 is_stmt 1 view .LVU3423
.LBB2882:
	.loc 1 3359 5 view .LVU3424
	.loc 1 3359 10 view .LVU3425
	.loc 1 3359 8 view .LVU3426
	.loc 1 3359 4 view .LVU3427
.LVL437:
.LBB2883:
.LBI2883:
	.loc 10 616 20 view .LVU3428
.LBB2884:
	.loc 10 625 2 view .LVU3429
	.loc 10 625 7 view .LVU3430
	.loc 10 625 5 view .LVU3431
	.loc 10 626 2 view .LVU3432
	adds	r0, r0, #60
.LVL438:
	.loc 10 626 2 is_stmt 0 view .LVU3433
	bl	z_impl_k_queue_init
.LVL439:
	.loc 10 626 2 view .LVU3434
.LBE2884:
.LBE2883:
	.loc 1 3359 46 is_stmt 1 view .LVU3435
	.loc 1 3359 51 view .LVU3436
	.loc 1 3359 49 view .LVU3437
	.loc 1 3359 64 view .LVU3438
	.loc 1 3359 69 view .LVU3439
	.loc 1 3359 67 view .LVU3440
	.loc 1 3359 82 view .LVU3441
	.loc 1 3359 87 view .LVU3442
	.loc 1 3359 85 view .LVU3443
.LBE2882:
	.loc 1 3360 2 view .LVU3444
.LBB2885:
.LBI2885:
	.loc 8 197 28 view .LVU3445
.LBB2886:
	.loc 8 203 2 view .LVU3446
	.loc 8 203 9 is_stmt 0 view .LVU3447
	ldr	r3, [r7, #4]
	dmb	ish
	adds	r3, r3, #52
.LVL440:
.L243:
	.loc 8 203 9 view .LVU3448
	ldrex	r2, [r3]
	strex	r1, r5, [r3]
	cmp	r1, #0
	bne	.L243
	dmb	ish
.LVL441:
	.loc 8 203 9 view .LVU3449
.LBE2886:
.LBE2885:
	.loc 1 3361 2 is_stmt 1 view .LVU3450
	.loc 1 3361 6 is_stmt 0 view .LVU3451
	ldr	r3, [r7, #4]
	.loc 1 3361 12 view .LVU3452
	str	r4, [r3]
	.loc 1 3362 2 is_stmt 1 view .LVU3453
.LBB2887:
.LBB2888:
	.loc 1 3133 5 is_stmt 0 view .LVU3454
	ldr	r3, [r4, #36]
.LBE2888:
.LBE2887:
	.loc 1 3362 2 view .LVU3455
	ldr	r8, [r7, #4]
.LVL442:
.LBB2915:
.LBI2887:
	.loc 1 3129 13 is_stmt 1 view .LVU3456
.LBB2914:
	.loc 1 3131 2 view .LVU3457
.LBB2889:
	.loc 1 3131 7 view .LVU3458
.LBE2889:
	.loc 1 3131 5 view .LVU3459
	.loc 1 3133 2 view .LVU3460
.LBB2890:
.LBI2890:
	.loc 2 268 1 view .LVU3461
	.loc 2 268 41 view .LVU3462
.LBB2891:
.LBI2891:
	.loc 2 238 28 view .LVU3463
.LBB2892:
	.loc 2 240 2 view .LVU3464
	.loc 2 240 2 is_stmt 0 view .LVU3465
.LBE2892:
.LBE2891:
.LBE2890:
	.loc 1 3133 5 view .LVU3466
	cbnz	r3, .L241
	.loc 1 3135 3 is_stmt 1 view .LVU3467
.LBB2893:
	.loc 1 3135 6 view .LVU3468
	.loc 1 3135 11 view .LVU3469
	.loc 1 3135 9 view .LVU3470
	.loc 1 3135 5 view .LVU3471
.LVL443:
.LBB2894:
.LBI2894:
	.loc 10 616 20 view .LVU3472
.LBB2895:
	.loc 10 625 2 view .LVU3473
	.loc 10 625 7 view .LVU3474
	.loc 10 625 5 view .LVU3475
	.loc 10 626 2 view .LVU3476
	add	r0, r4, #12
.LVL444:
	.loc 10 626 2 is_stmt 0 view .LVU3477
	bl	z_impl_k_queue_init
.LVL445:
.L241:
	.loc 10 626 2 view .LVU3478
.LBE2895:
.LBE2894:
	.loc 1 3135 46 is_stmt 1 view .LVU3479
	.loc 1 3135 51 view .LVU3480
	.loc 1 3135 49 view .LVU3481
	.loc 1 3135 64 view .LVU3482
	.loc 1 3135 69 view .LVU3483
	.loc 1 3135 67 view .LVU3484
	.loc 1 3135 82 view .LVU3485
	.loc 1 3135 87 view .LVU3486
	.loc 1 3135 85 view .LVU3487
.LBE2893:
	.loc 1 3141 2 view .LVU3488
.LBB2896:
.LBB2897:
.LBB2898:
.LBB2899:
	.loc 2 240 13 is_stmt 0 view .LVU3489
	ldr	r2, [r4, #36]
.LBE2899:
.LBE2898:
.LBB2901:
.LBB2902:
	.loc 2 218 15 view .LVU3490
	str	r2, [r8, #160]
.LBE2902:
.LBE2901:
	.loc 2 305 162 view .LVU3491
	ldr	r2, [r4, #40]
.LBE2897:
.LBE2896:
	.loc 1 3141 2 view .LVU3492
	add	r3, r8, #160
.LVL446:
.LBB2913:
.LBI2896:
	.loc 2 305 20 is_stmt 1 view .LVU3493
.LBB2912:
	.loc 2 305 78 view .LVU3494
.LBB2904:
.LBI2898:
	.loc 2 238 28 view .LVU3495
.LBB2900:
	.loc 2 240 2 view .LVU3496
	.loc 2 240 2 is_stmt 0 view .LVU3497
.LBE2900:
.LBE2904:
.LBB2905:
.LBI2901:
	.loc 2 216 20 is_stmt 1 view .LVU3498
.LBB2903:
	.loc 2 218 2 view .LVU3499
	.loc 2 218 2 is_stmt 0 view .LVU3500
.LBE2903:
.LBE2905:
	.loc 2 305 129 is_stmt 1 view .LVU3501
.LBB2906:
.LBI2906:
	.loc 2 221 20 view .LVU3502
.LBB2907:
	.loc 2 223 2 view .LVU3503
	.loc 2 223 13 is_stmt 0 view .LVU3504
	str	r3, [r4, #36]
.LVL447:
	.loc 2 223 13 view .LVU3505
.LBE2907:
.LBE2906:
	.loc 2 305 159 is_stmt 1 view .LVU3506
.LBB2908:
.LBI2908:
	.loc 2 250 28 view .LVU3507
.LBB2909:
	.loc 2 252 2 view .LVU3508
	.loc 2 252 2 is_stmt 0 view .LVU3509
.LBE2909:
.LBE2908:
	.loc 2 305 162 view .LVU3510
	cbnz	r2, .L242
	.loc 2 305 5 is_stmt 1 view .LVU3511
.LVL448:
.LBB2910:
.LBI2910:
	.loc 2 226 20 view .LVU3512
.LBB2911:
	.loc 2 228 2 view .LVU3513
	.loc 2 228 13 is_stmt 0 view .LVU3514
	str	r3, [r4, #40]
.LVL449:
.L242:
	.loc 2 228 13 view .LVU3515
.LBE2911:
.LBE2910:
.LBE2912:
.LBE2913:
.LBE2914:
.LBE2915:
	.loc 1 3364 2 is_stmt 1 view .LVU3516
	.loc 1 3364 6 is_stmt 0 view .LVU3517
	ldr	r3, [r7, #4]
	.loc 1 3374 3 is_stmt 1 view .LVU3518
	.loc 1 3374 21 is_stmt 0 view .LVU3519
	movs	r2, #23
	strh	r2, [r3, #42]	@ movhi
	.loc 1 3375 3 is_stmt 1 view .LVU3520
	.loc 1 3375 21 is_stmt 0 view .LVU3521
	strh	r2, [r3, #26]	@ movhi
	.loc 1 3378 2 is_stmt 1 view .LVU3522
.LVL450:
	.loc 1 3378 2 is_stmt 0 view .LVU3523
.LBE2917:
.LBE2922:
	.loc 1 3450 2 is_stmt 1 view .LVU3524
	.loc 1 3454 2 view .LVU3525
	.loc 1 3454 8 is_stmt 0 view .LVU3526
	adds	r3, r3, #4
.LVL451:
	.loc 1 3454 6 view .LVU3527
	str	r3, [r6]
	.loc 1 3456 2 is_stmt 1 view .LVU3528
	.loc 1 3456 9 is_stmt 0 view .LVU3529
	b	.L236
.L245:
	.align	2
.L244:
	.word	att_slab
	.word	.LC10
	.word	log_const_bt_att
	.word	z_tls_current(tpoff)
	.word	att_handle_rsp_thread
	.word	chan_slab
	.word	.LC11
	.word	ops.0
	.cfi_endproc
.LFE676:
	.size	bt_att_accept, .-bt_att_accept
	.section	.rodata.chan_send.str1.1,"aMS",%progbits,1
.LC12:
	.ascii	"Error signing data\000"
.LC13:
	.ascii	"Ran out of TX buffers or contexts.\000"
	.section	.text.chan_send,"ax",%progbits
	.align	1
	.syntax unified
	.thumb
	.thumb_func
	.type	chan_send, %function
chan_send:
.LVL452:
.LFB599:
	.loc 1 246 1 is_stmt 1 view -0
	.cfi_startproc
	@ args = 0, pretend = 0, frame = 24
	@ frame_needed = 0, uses_anonymous_args = 0
	.loc 1 247 2 view .LVU3531
	.loc 1 248 2 view .LVU3532
	.loc 1 249 2 view .LVU3533
	.loc 1 250 2 view .LVU3534
	.loc 1 246 1 is_stmt 0 view .LVU3535
	push	{r4, r5, r6, r7, r8, r9, r10, lr}
	.cfi_def_cfa_offset 32
	.cfi_offset 4, -32
	.cfi_offset 5, -28
	.cfi_offset 6, -24
	.cfi_offset 7, -20
	.cfi_offset 8, -16
	.cfi_offset 9, -12
	.cfi_offset 10, -8
	.cfi_offset 14, -4
	.loc 1 250 30 view .LVU3536
	ldr	r8, [r1, #24]
.LVL453:
	.loc 1 251 2 is_stmt 1 view .LVU3537
	.loc 1 253 6 is_stmt 0 view .LVU3538
	ldr	r3, [r1, #12]
	.loc 1 251 22 view .LVU3539
	ldr	r9, [r8]
.LVL454:
	.loc 1 253 2 is_stmt 1 view .LVU3540
	.loc 1 255 2 view .LVU3541
.LBB2955:
	.loc 1 255 7 view .LVU3542
.LBE2955:
	.loc 1 255 5 view .LVU3543
	.loc 1 257 2 view .LVU3544
.LBB2956:
.LBI2956:
	.loc 7 131 19 view .LVU3545
.LBB2957:
	.loc 7 133 2 view .LVU3546
.LBB2958:
.LBI2958:
	.loc 8 159 28 view .LVU3547
.LBB2959:
	.loc 8 161 2 view .LVU3548
	.loc 8 161 9 is_stmt 0 view .LVU3549
	dmb	ish
	ldr	r2, [r0, #52]
	dmb	ish
.LVL455:
	.loc 8 161 9 view .LVU3550
.LBE2959:
.LBE2958:
	.loc 7 135 2 is_stmt 1 view .LVU3551
	.loc 7 135 2 is_stmt 0 view .LVU3552
.LBE2957:
.LBE2956:
	.loc 1 257 5 view .LVU3553
	lsls	r2, r2, #29
	.loc 1 246 1 view .LVU3554
	sub	sp, sp, #32
	.cfi_def_cfa_offset 64
	.loc 1 246 1 view .LVU3555
	mov	r6, r0
	mov	r4, r1
	.loc 1 257 5 view .LVU3556
	bmi	.L247
	.loc 1 258 3 is_stmt 1 view .LVU3557
.LBB2960:
	.loc 1 258 8 view .LVU3558
	.loc 1 258 57 view .LVU3559
	.loc 1 258 14 view .LVU3560
	.loc 1 258 2 view .LVU3561
.LVL456:
	.loc 1 258 41 view .LVU3562
	.loc 1 258 176 view .LVU3563
	.loc 1 258 187 view .LVU3564
	.loc 1 258 275 view .LVU3565
	.loc 1 258 3 view .LVU3566
	.loc 1 258 3 view .LVU3567
.LBB2961:
	.loc 1 258 8 view .LVU3568
	.loc 1 258 2 view .LVU3569
.LBE2961:
.LBE2960:
	.loc 1 258 3 view .LVU3570
	.loc 1 258 12 view .LVU3571
	.loc 1 258 107 view .LVU3572
	.loc 1 258 3 view .LVU3573
.LBB2982:
.LBB2977:
	.loc 1 258 12 view .LVU3574
	.loc 1 258 102 view .LVU3575
	.loc 1 258 104 view .LVU3576
.LBB2962:
	.loc 1 258 109 view .LVU3577
	.loc 1 258 120 view .LVU3578
	.loc 1 258 209 view .LVU3579
	.loc 1 258 26 view .LVU3580
.LBE2962:
.LBE2977:
.LBE2982:
	.loc 1 258 3 view .LVU3581
	.loc 1 258 368 view .LVU3582
	.loc 1 258 75 view .LVU3583
	.loc 1 258 2 view .LVU3584
	.loc 1 258 2 view .LVU3585
	.loc 1 258 2 view .LVU3586
	.loc 1 258 38 view .LVU3587
	.loc 1 258 4 view .LVU3588
	.loc 1 258 30 view .LVU3589
	.loc 1 258 56 view .LVU3590
	.loc 1 258 79 view .LVU3591
	.loc 1 258 141 view .LVU3592
	.loc 1 258 198 view .LVU3593
	.loc 1 258 263 view .LVU3594
	.loc 1 258 288 view .LVU3595
	.loc 1 258 289 view .LVU3596
	.loc 1 258 291 view .LVU3597
	.loc 1 258 321 view .LVU3598
	.loc 1 258 351 view .LVU3599
	.loc 1 258 383 view .LVU3600
	.loc 1 258 415 view .LVU3601
	.loc 1 258 447 view .LVU3602
	.loc 1 258 644 view .LVU3603
	.loc 1 258 668 view .LVU3604
	.loc 1 258 669 view .LVU3605
	.loc 1 258 671 view .LVU3606
	.loc 1 258 700 view .LVU3607
	.loc 1 258 729 view .LVU3608
	.loc 1 258 760 view .LVU3609
	.loc 1 258 791 view .LVU3610
	.loc 1 258 822 view .LVU3611
	.loc 1 258 1029 view .LVU3612
	.loc 1 258 4 view .LVU3613
	.loc 1 258 22 view .LVU3614
	.loc 1 258 42 view .LVU3615
	.loc 1 258 4 view .LVU3616
	.loc 1 258 42 view .LVU3617
	.loc 1 258 13 view .LVU3618
	.loc 1 258 13 view .LVU3619
	.loc 1 258 61 view .LVU3620
	.loc 1 258 92 view .LVU3621
	.loc 1 258 126 view .LVU3622
	.loc 1 258 131 view .LVU3623
	.loc 1 258 380 view .LVU3624
	.loc 1 258 1429 view .LVU3625
	.loc 1 258 1494 view .LVU3626
	.loc 1 258 1518 view .LVU3627
	.loc 1 258 1571 view .LVU3628
	.loc 1 258 1582 view .LVU3629
	.loc 1 258 1693 view .LVU3630
	.loc 1 258 1709 view .LVU3631
	.loc 1 258 1749 view .LVU3632
	.loc 1 258 1774 view .LVU3633
	.loc 1 258 3061 view .LVU3634
	.loc 1 258 3102 view .LVU3635
	.loc 1 258 7 view .LVU3636
	.loc 1 258 30 view .LVU3637
	.loc 1 258 129 view .LVU3638
	.loc 1 258 5 view .LVU3639
	.loc 1 258 28 view .LVU3640
	.loc 1 258 52 view .LVU3641
	.loc 1 258 80 view .LVU3642
	.loc 1 258 256 view .LVU3643
	.loc 1 258 16 view .LVU3644
.LBB2983:
.LBB2978:
.LBB2973:
	.loc 1 258 29 view .LVU3645
	.loc 1 258 3 view .LVU3646
	.loc 1 258 3 view .LVU3647
	.loc 1 258 70 view .LVU3648
	.loc 1 258 74 view .LVU3649
	.loc 1 258 484 view .LVU3650
	.loc 1 258 5 view .LVU3651
	.loc 1 258 7 view .LVU3652
	.loc 1 258 12 view .LVU3653
	.loc 1 258 10 view .LVU3654
	.loc 1 258 5 view .LVU3655
	.loc 1 258 23 view .LVU3656
.LBB2963:
	.loc 1 258 3 view .LVU3657
	.loc 1 258 368 view .LVU3658
	.loc 1 258 75 view .LVU3659
.LVL457:
	.loc 1 258 2 view .LVU3660
	.loc 1 258 2 view .LVU3661
	.loc 1 258 2 view .LVU3662
	.loc 1 258 38 view .LVU3663
	.loc 1 258 67 view .LVU3664
	.loc 1 258 93 view .LVU3665
	.loc 1 258 119 view .LVU3666
	.loc 1 258 142 view .LVU3667
	.loc 1 258 204 view .LVU3668
	.loc 1 258 261 view .LVU3669
	.loc 1 258 326 view .LVU3670
	.loc 1 258 351 view .LVU3671
	.loc 1 258 352 view .LVU3672
	.loc 1 258 354 view .LVU3673
	.loc 1 258 384 view .LVU3674
	.loc 1 258 414 view .LVU3675
	.loc 1 258 446 view .LVU3676
	.loc 1 258 478 view .LVU3677
	.loc 1 258 510 view .LVU3678
	.loc 1 258 707 view .LVU3679
	.loc 1 258 731 view .LVU3680
	.loc 1 258 732 view .LVU3681
	.loc 1 258 734 view .LVU3682
	.loc 1 258 763 view .LVU3683
	.loc 1 258 792 view .LVU3684
	.loc 1 258 823 view .LVU3685
	.loc 1 258 854 view .LVU3686
	.loc 1 258 885 view .LVU3687
	.loc 1 258 1092 view .LVU3688
	.loc 1 258 4 view .LVU3689
	.loc 1 258 22 view .LVU3690
	.loc 1 258 42 view .LVU3691
	.loc 1 258 4 view .LVU3692
	.loc 1 258 42 view .LVU3693
	.loc 1 258 13 view .LVU3694
	.loc 1 258 13 view .LVU3695
	.loc 1 258 61 view .LVU3696
	.loc 1 258 92 view .LVU3697
	.loc 1 258 126 view .LVU3698
.LBB2964:
	.loc 1 258 131 view .LVU3699
	.loc 1 258 380 view .LVU3700
	.loc 1 258 1429 view .LVU3701
	.loc 1 258 1494 view .LVU3702
.LBE2964:
.LBE2963:
.LBE2973:
.LBE2978:
.LBE2983:
	.loc 1 258 1518 view .LVU3703
	.loc 1 258 1571 view .LVU3704
	.loc 1 258 1582 view .LVU3705
	.loc 1 258 1693 view .LVU3706
.LBB2984:
.LBB2979:
.LBB2974:
.LBB2969:
.LBB2965:
	.loc 1 258 1709 view .LVU3707
	.loc 1 258 1749 view .LVU3708
	.loc 1 258 1774 view .LVU3709
	.loc 1 258 3061 view .LVU3710
	.loc 1 258 3099 view .LVU3711
	.loc 1 258 3104 view .LVU3712
	.loc 1 258 3692 view .LVU3713
	.loc 1 258 0 is_stmt 0 view .LVU3714
	ldr	r3, .L259
.LVL458:
	.loc 1 258 0 view .LVU3715
	str	r3, [sp, #28]
	.loc 1 258 3102 is_stmt 1 view .LVU3716
	.loc 1 258 7 view .LVU3717
.LVL459:
	.loc 1 258 30 view .LVU3718
	.loc 1 258 30 is_stmt 0 view .LVU3719
.LBE2965:
	.loc 1 258 129 is_stmt 1 view .LVU3720
	.loc 1 258 5 view .LVU3721
	.loc 1 258 28 view .LVU3722
	.loc 1 258 52 view .LVU3723
	.loc 1 258 80 view .LVU3724
.LBE2969:
.LBE2974:
.LBE2979:
.LBE2984:
	.loc 1 258 6 view .LVU3725
	.loc 1 258 45 view .LVU3726
	.loc 1 258 50 view .LVU3727
	.loc 1 258 80 view .LVU3728
	.loc 1 258 147 view .LVU3729
	.loc 1 258 152 view .LVU3730
	.loc 1 258 182 view .LVU3731
.LBB2985:
.LBB2980:
.LBB2975:
.LBB2970:
	.loc 1 258 256 view .LVU3732
	.loc 1 258 16 view .LVU3733
.LBB2966:
	.loc 1 258 6 view .LVU3734
	.loc 1 258 164 view .LVU3735
	.loc 1 258 166 view .LVU3736
.LBE2966:
.LBE2970:
	.loc 1 258 149 is_stmt 0 view .LVU3737
	ldr	r0, .L259+4
.LVL460:
.LBB2971:
.LBB2967:
	.loc 1 258 176 view .LVU3738
	movs	r3, #2
.LBE2967:
.LBE2971:
	.loc 1 258 149 view .LVU3739
	add	r2, sp, #24
.LVL461:
	.loc 1 258 149 view .LVU3740
	mov	r1, #4160
.LVL462:
	.loc 1 258 149 view .LVU3741
.LBE2975:
.LBE2980:
.LBE2985:
	.loc 1 259 10 view .LVU3742
	mvn	r5, #21
.LBB2986:
.LBB2981:
.LBB2976:
.LBB2972:
.LBB2968:
	.loc 1 258 176 view .LVU3743
	str	r3, [sp, #24]
.LVL463:
	.loc 1 258 176 view .LVU3744
.LBE2968:
.LBE2972:
	.loc 1 258 26 is_stmt 1 view .LVU3745
	.loc 1 258 7 view .LVU3746
	.loc 1 258 147 view .LVU3747
	.loc 1 258 149 view .LVU3748
	bl	z_log_msg_static_create.constprop.0
.LVL464:
	.loc 1 258 149 is_stmt 0 view .LVU3749
.LBE2976:
	.loc 1 258 107 is_stmt 1 view .LVU3750
	.loc 1 258 5 view .LVU3751
.LVL465:
	.loc 1 258 42 view .LVU3752
.LBE2981:
	.loc 1 258 6 view .LVU3753
	.loc 1 258 278 view .LVU3754
	.loc 1 258 5 view .LVU3755
	.loc 1 258 18 view .LVU3756
.LBE2986:
	.loc 1 258 6 view .LVU3757
	.loc 1 259 3 view .LVU3758
.L246:
	.loc 1 331 1 is_stmt 0 view .LVU3759
	mov	r0, r5
	add	sp, sp, #32
	.cfi_remember_state
	.cfi_def_cfa_offset 32
	@ sp needed
	pop	{r4, r5, r6, r7, r8, r9, r10, pc}
.LVL466:
.L247:
	.cfi_restore_state
	.loc 1 262 2 is_stmt 1 view .LVU3760
	.loc 1 270 2 view .LVU3761
	.loc 1 305 2 view .LVU3762
	.loc 1 305 5 is_stmt 0 view .LVU3763
	ldrb	r3, [r3]	@ zero_extendqisi2
.LVL467:
	.loc 1 305 5 view .LVU3764
	cmp	r3, #210
	bne	.L249
	.loc 1 306 3 is_stmt 1 view .LVU3765
	.loc 1 306 9 is_stmt 0 view .LVU3766
	ldr	r3, [r0]
	ldr	r0, [r3]
.LVL468:
	.loc 1 306 9 view .LVU3767
	bl	bt_smp_sign
.LVL469:
	.loc 1 307 3 is_stmt 1 view .LVU3768
	.loc 1 307 6 is_stmt 0 view .LVU3769
	mov	r5, r0
	cbz	r0, .L249
	.loc 1 308 4 is_stmt 1 view .LVU3770
.LBB2987:
	.loc 1 308 9 view .LVU3771
	.loc 1 308 58 view .LVU3772
	.loc 1 308 15 view .LVU3773
	.loc 1 308 3 view .LVU3774
.LVL470:
	.loc 1 308 42 view .LVU3775
	.loc 1 308 177 view .LVU3776
	.loc 1 308 188 view .LVU3777
	.loc 1 308 276 view .LVU3778
	.loc 1 308 4 view .LVU3779
	.loc 1 308 4 view .LVU3780
.LBB2988:
	.loc 1 308 9 view .LVU3781
	.loc 1 308 3 view .LVU3782
.LBE2988:
.LBE2987:
	.loc 1 308 4 view .LVU3783
	.loc 1 308 13 view .LVU3784
	.loc 1 308 108 view .LVU3785
	.loc 1 308 4 view .LVU3786
.LBB3007:
.LBB3003:
	.loc 1 308 13 view .LVU3787
	.loc 1 308 103 view .LVU3788
	.loc 1 308 105 view .LVU3789
.LBB2989:
	.loc 1 308 110 view .LVU3790
	.loc 1 308 121 view .LVU3791
	.loc 1 308 210 view .LVU3792
	.loc 1 308 27 view .LVU3793
.LBE2989:
.LBE3003:
.LBE3007:
	.loc 1 308 4 view .LVU3794
	.loc 1 308 369 view .LVU3795
	.loc 1 308 76 view .LVU3796
	.loc 1 308 3 view .LVU3797
	.loc 1 308 3 view .LVU3798
	.loc 1 308 3 view .LVU3799
	.loc 1 308 39 view .LVU3800
	.loc 1 308 5 view .LVU3801
	.loc 1 308 31 view .LVU3802
	.loc 1 308 57 view .LVU3803
	.loc 1 308 80 view .LVU3804
	.loc 1 308 142 view .LVU3805
	.loc 1 308 199 view .LVU3806
	.loc 1 308 264 view .LVU3807
	.loc 1 308 289 view .LVU3808
	.loc 1 308 290 view .LVU3809
	.loc 1 308 292 view .LVU3810
	.loc 1 308 322 view .LVU3811
	.loc 1 308 352 view .LVU3812
	.loc 1 308 384 view .LVU3813
	.loc 1 308 416 view .LVU3814
	.loc 1 308 448 view .LVU3815
	.loc 1 308 645 view .LVU3816
	.loc 1 308 669 view .LVU3817
	.loc 1 308 670 view .LVU3818
	.loc 1 308 672 view .LVU3819
	.loc 1 308 701 view .LVU3820
	.loc 1 308 730 view .LVU3821
	.loc 1 308 761 view .LVU3822
	.loc 1 308 792 view .LVU3823
	.loc 1 308 823 view .LVU3824
	.loc 1 308 1030 view .LVU3825
	.loc 1 308 5 view .LVU3826
	.loc 1 308 23 view .LVU3827
	.loc 1 308 43 view .LVU3828
	.loc 1 308 5 view .LVU3829
	.loc 1 308 43 view .LVU3830
	.loc 1 308 14 view .LVU3831
	.loc 1 308 14 view .LVU3832
	.loc 1 308 62 view .LVU3833
	.loc 1 308 93 view .LVU3834
	.loc 1 308 127 view .LVU3835
	.loc 1 308 132 view .LVU3836
	.loc 1 308 374 view .LVU3837
	.loc 1 308 1395 view .LVU3838
	.loc 1 308 1460 view .LVU3839
	.loc 1 308 1484 view .LVU3840
	.loc 1 308 1530 view .LVU3841
	.loc 1 308 1541 view .LVU3842
	.loc 1 308 1645 view .LVU3843
	.loc 1 308 1661 view .LVU3844
	.loc 1 308 1701 view .LVU3845
	.loc 1 308 1726 view .LVU3846
	.loc 1 308 2999 view .LVU3847
	.loc 1 308 3040 view .LVU3848
	.loc 1 308 8 view .LVU3849
	.loc 1 308 31 view .LVU3850
	.loc 1 308 130 view .LVU3851
	.loc 1 308 6 view .LVU3852
	.loc 1 308 29 view .LVU3853
	.loc 1 308 53 view .LVU3854
	.loc 1 308 81 view .LVU3855
	.loc 1 308 257 view .LVU3856
	.loc 1 308 17 view .LVU3857
.LBB3008:
.LBB3004:
.LBB3000:
	.loc 1 308 30 view .LVU3858
	.loc 1 308 4 view .LVU3859
	.loc 1 308 4 view .LVU3860
	.loc 1 308 71 view .LVU3861
	.loc 1 308 75 view .LVU3862
	.loc 1 308 485 view .LVU3863
	.loc 1 308 6 view .LVU3864
	.loc 1 308 8 view .LVU3865
	.loc 1 308 13 view .LVU3866
	.loc 1 308 11 view .LVU3867
	.loc 1 308 6 view .LVU3868
	.loc 1 308 24 view .LVU3869
.LBB2990:
	.loc 1 308 4 view .LVU3870
	.loc 1 308 369 view .LVU3871
	.loc 1 308 76 view .LVU3872
.LVL471:
	.loc 1 308 3 view .LVU3873
	.loc 1 308 3 view .LVU3874
	.loc 1 308 3 view .LVU3875
	.loc 1 308 39 view .LVU3876
	.loc 1 308 68 view .LVU3877
	.loc 1 308 94 view .LVU3878
	.loc 1 308 120 view .LVU3879
	.loc 1 308 143 view .LVU3880
	.loc 1 308 205 view .LVU3881
	.loc 1 308 262 view .LVU3882
	.loc 1 308 327 view .LVU3883
	.loc 1 308 352 view .LVU3884
	.loc 1 308 353 view .LVU3885
	.loc 1 308 355 view .LVU3886
	.loc 1 308 385 view .LVU3887
	.loc 1 308 415 view .LVU3888
	.loc 1 308 447 view .LVU3889
	.loc 1 308 479 view .LVU3890
	.loc 1 308 511 view .LVU3891
	.loc 1 308 708 view .LVU3892
	.loc 1 308 732 view .LVU3893
	.loc 1 308 733 view .LVU3894
	.loc 1 308 735 view .LVU3895
	.loc 1 308 764 view .LVU3896
	.loc 1 308 793 view .LVU3897
	.loc 1 308 824 view .LVU3898
	.loc 1 308 855 view .LVU3899
	.loc 1 308 886 view .LVU3900
	.loc 1 308 1093 view .LVU3901
	.loc 1 308 5 view .LVU3902
	.loc 1 308 23 view .LVU3903
	.loc 1 308 43 view .LVU3904
	.loc 1 308 5 view .LVU3905
	.loc 1 308 43 view .LVU3906
	.loc 1 308 14 view .LVU3907
	.loc 1 308 14 view .LVU3908
	.loc 1 308 62 view .LVU3909
	.loc 1 308 93 view .LVU3910
	.loc 1 308 127 view .LVU3911
.LBB2991:
	.loc 1 308 132 view .LVU3912
	.loc 1 308 374 view .LVU3913
	.loc 1 308 1395 view .LVU3914
	.loc 1 308 1460 view .LVU3915
.LBE2991:
.LBE2990:
.LBE3000:
.LBE3004:
.LBE3008:
	.loc 1 308 1484 view .LVU3916
	.loc 1 308 1530 view .LVU3917
	.loc 1 308 1541 view .LVU3918
	.loc 1 308 1645 view .LVU3919
.LBB3009:
.LBB3005:
.LBB3001:
.LBB2996:
.LBB2992:
	.loc 1 308 1661 view .LVU3920
	.loc 1 308 1701 view .LVU3921
	.loc 1 308 1726 view .LVU3922
	.loc 1 308 2999 view .LVU3923
	.loc 1 308 3037 view .LVU3924
	.loc 1 308 3042 view .LVU3925
	.loc 1 308 3588 view .LVU3926
	.loc 1 308 0 is_stmt 0 view .LVU3927
	ldr	r3, .L259+8
	str	r3, [sp, #28]
	.loc 1 308 3040 is_stmt 1 view .LVU3928
	.loc 1 308 8 view .LVU3929
.LVL472:
	.loc 1 308 31 view .LVU3930
	.loc 1 308 31 is_stmt 0 view .LVU3931
.LBE2992:
	.loc 1 308 130 is_stmt 1 view .LVU3932
	.loc 1 308 6 view .LVU3933
	.loc 1 308 29 view .LVU3934
	.loc 1 308 53 view .LVU3935
	.loc 1 308 81 view .LVU3936
.LBE2996:
.LBE3001:
.LBE3005:
.LBE3009:
	.loc 1 308 7 view .LVU3937
	.loc 1 308 46 view .LVU3938
	.loc 1 308 51 view .LVU3939
	.loc 1 308 81 view .LVU3940
	.loc 1 308 148 view .LVU3941
	.loc 1 308 153 view .LVU3942
	.loc 1 308 183 view .LVU3943
.LBB3010:
.LBB3006:
.LBB3002:
.LBB2997:
	.loc 1 308 257 view .LVU3944
	.loc 1 308 17 view .LVU3945
.LBB2993:
	.loc 1 308 7 view .LVU3946
	.loc 1 308 165 view .LVU3947
	.loc 1 308 167 view .LVU3948
.LBE2993:
.LBE2997:
	.loc 1 308 150 is_stmt 0 view .LVU3949
	add	r2, sp, #24
.LVL473:
.LBB2998:
.LBB2994:
	.loc 1 308 177 view .LVU3950
	movs	r3, #2
.LBE2994:
.LBE2998:
	.loc 1 308 150 view .LVU3951
	mov	r1, #4160
	ldr	r0, .L259+4
.LVL474:
.LBB2999:
.LBB2995:
	.loc 1 308 177 view .LVU3952
	str	r3, [sp, #24]
.LVL475:
	.loc 1 308 177 view .LVU3953
.LBE2995:
.LBE2999:
	.loc 1 308 27 is_stmt 1 view .LVU3954
	.loc 1 308 8 view .LVU3955
	.loc 1 308 148 view .LVU3956
	.loc 1 308 150 view .LVU3957
	bl	z_log_msg_static_create.constprop.0
.LVL476:
	.loc 1 308 150 is_stmt 0 view .LVU3958
.LBE3002:
	.loc 1 308 108 is_stmt 1 view .LVU3959
	.loc 1 308 6 view .LVU3960
.LVL477:
	.loc 1 308 43 view .LVU3961
.LBE3006:
	.loc 1 308 7 view .LVU3962
	.loc 1 308 279 view .LVU3963
	.loc 1 308 6 view .LVU3964
	.loc 1 308 19 view .LVU3965
.LBE3010:
	.loc 1 308 7 view .LVU3966
	.loc 1 309 4 view .LVU3967
	ldr	r0, [r4, #24]
	bl	tx_meta_data_free
.LVL478:
	.loc 1 310 4 view .LVU3968
	mov	r0, r4
	bl	net_buf_unref
.LVL479:
	.loc 1 311 4 view .LVU3969
	.loc 1 311 11 is_stmt 0 view .LVU3970
	b	.L246
.LVL480:
.L249:
	.loc 1 315 2 is_stmt 1 view .LVU3971
.LBB3011:
.LBI3011:
	.loc 3 865 20 view .LVU3972
.LBB3012:
	.loc 3 868 2 view .LVU3973
	.loc 3 868 18 is_stmt 0 view .LVU3974
	add	r0, r4, #12
.LVL481:
	.loc 3 868 18 view .LVU3975
	bl	net_buf_simple_headroom
.LVL482:
	.loc 3 869 18 view .LVU3976
	ldrh	r10, [r4, #16]
.LBE3012:
.LBE3011:
	.loc 1 317 17 view .LVU3977
	str	r6, [r8]
	.loc 1 319 8 view .LVU3978
	ldr	r3, [r6]
	ldr	r5, [r3]
.LBB3014:
.LBB3015:
	.loc 1 637 29 view .LVU3979
	ldr	r3, [r4, #12]
.LBE3015:
.LBE3014:
.LBB3017:
.LBB3013:
	.loc 3 868 18 view .LVU3980
	mov	r7, r0
.LVL483:
	.loc 3 869 2 is_stmt 1 view .LVU3981
	.loc 3 869 2 is_stmt 0 view .LVU3982
.LBE3013:
.LBE3017:
	.loc 1 317 2 is_stmt 1 view .LVU3983
	.loc 1 319 2 view .LVU3984
.LBB3018:
.LBI3014:
	.loc 1 635 24 view .LVU3985
.LBB3016:
	.loc 1 637 2 view .LVU3986
	.loc 1 637 29 is_stmt 0 view .LVU3987
	ldrb	r0, [r3]	@ zero_extendqisi2
	bl	att_op_get_type
.LVL484:
	.loc 1 639 2 is_stmt 1 view .LVU3988
	cmp	r0, #5
	itet	ls
	ldrls	r3, .L259+12
	.loc 1 637 29 is_stmt 0 view .LVU3989
	ldrhi	r3, .L259+16
.LVL485:
	.loc 1 637 29 view .LVU3990
	ldrls	r3, [r3, r0, lsl #2]
.LBE3016:
.LBE3018:
	.loc 1 319 8 view .LVU3991
	str	r8, [sp]
	mov	r0, r5
	mov	r2, r4
	movs	r1, #4
	bl	bt_l2cap_send_cb
.LVL486:
	.loc 1 321 2 is_stmt 1 view .LVU3992
	.loc 1 321 5 is_stmt 0 view .LVU3993
	mov	r5, r0
	cmp	r0, #0
	beq	.L246
	.loc 1 322 3 is_stmt 1 view .LVU3994
	.loc 1 322 6 is_stmt 0 view .LVU3995
	cmn	r0, #105
	bne	.L251
	.loc 1 323 4 is_stmt 1 view .LVU3996
.LBB3019:
	.loc 1 323 9 view .LVU3997
	.loc 1 323 58 view .LVU3998
	.loc 1 323 15 view .LVU3999
	.loc 1 323 3 view .LVU4000
.LVL487:
	.loc 1 323 42 view .LVU4001
	.loc 1 323 177 view .LVU4002
	.loc 1 323 188 view .LVU4003
	.loc 1 323 276 view .LVU4004
	.loc 1 323 4 view .LVU4005
	.loc 1 323 4 view .LVU4006
.LBB3020:
	.loc 1 323 9 view .LVU4007
	.loc 1 323 3 view .LVU4008
.LBE3020:
.LBE3019:
	.loc 1 323 4 view .LVU4009
	.loc 1 323 13 view .LVU4010
	.loc 1 323 108 view .LVU4011
	.loc 1 323 4 view .LVU4012
.LBB3039:
.LBB3035:
	.loc 1 323 13 view .LVU4013
	.loc 1 323 103 view .LVU4014
	.loc 1 323 105 view .LVU4015
.LBB3021:
	.loc 1 323 110 view .LVU4016
	.loc 1 323 121 view .LVU4017
	.loc 1 323 210 view .LVU4018
	.loc 1 323 27 view .LVU4019
.LBE3021:
.LBE3035:
.LBE3039:
	.loc 1 323 4 view .LVU4020
	.loc 1 323 369 view .LVU4021
	.loc 1 323 76 view .LVU4022
	.loc 1 323 3 view .LVU4023
	.loc 1 323 3 view .LVU4024
	.loc 1 323 3 view .LVU4025
	.loc 1 323 39 view .LVU4026
	.loc 1 323 5 view .LVU4027
	.loc 1 323 31 view .LVU4028
	.loc 1 323 57 view .LVU4029
	.loc 1 323 80 view .LVU4030
	.loc 1 323 142 view .LVU4031
	.loc 1 323 199 view .LVU4032
	.loc 1 323 264 view .LVU4033
	.loc 1 323 289 view .LVU4034
	.loc 1 323 290 view .LVU4035
	.loc 1 323 292 view .LVU4036
	.loc 1 323 322 view .LVU4037
	.loc 1 323 352 view .LVU4038
	.loc 1 323 384 view .LVU4039
	.loc 1 323 416 view .LVU4040
	.loc 1 323 448 view .LVU4041
	.loc 1 323 645 view .LVU4042
	.loc 1 323 669 view .LVU4043
	.loc 1 323 670 view .LVU4044
	.loc 1 323 672 view .LVU4045
	.loc 1 323 701 view .LVU4046
	.loc 1 323 730 view .LVU4047
	.loc 1 323 761 view .LVU4048
	.loc 1 323 792 view .LVU4049
	.loc 1 323 823 view .LVU4050
	.loc 1 323 1030 view .LVU4051
	.loc 1 323 5 view .LVU4052
	.loc 1 323 23 view .LVU4053
	.loc 1 323 43 view .LVU4054
	.loc 1 323 5 view .LVU4055
	.loc 1 323 43 view .LVU4056
	.loc 1 323 14 view .LVU4057
	.loc 1 323 14 view .LVU4058
	.loc 1 323 62 view .LVU4059
	.loc 1 323 93 view .LVU4060
	.loc 1 323 127 view .LVU4061
	.loc 1 323 132 view .LVU4062
	.loc 1 323 390 view .LVU4063
	.loc 1 323 1475 view .LVU4064
	.loc 1 323 1540 view .LVU4065
	.loc 1 323 1564 view .LVU4066
	.loc 1 323 1626 view .LVU4067
	.loc 1 323 1637 view .LVU4068
	.loc 1 323 1757 view .LVU4069
	.loc 1 323 1773 view .LVU4070
	.loc 1 323 1813 view .LVU4071
	.loc 1 323 1838 view .LVU4072
	.loc 1 323 3143 view .LVU4073
	.loc 1 323 3184 view .LVU4074
	.loc 1 323 8 view .LVU4075
	.loc 1 323 31 view .LVU4076
	.loc 1 323 130 view .LVU4077
	.loc 1 323 6 view .LVU4078
	.loc 1 323 29 view .LVU4079
	.loc 1 323 53 view .LVU4080
	.loc 1 323 81 view .LVU4081
	.loc 1 323 257 view .LVU4082
	.loc 1 323 17 view .LVU4083
.LBB3040:
.LBB3036:
.LBB3032:
	.loc 1 323 30 view .LVU4084
	.loc 1 323 4 view .LVU4085
	.loc 1 323 4 view .LVU4086
	.loc 1 323 71 view .LVU4087
	.loc 1 323 75 view .LVU4088
	.loc 1 323 485 view .LVU4089
	.loc 1 323 6 view .LVU4090
	.loc 1 323 8 view .LVU4091
	.loc 1 323 13 view .LVU4092
	.loc 1 323 11 view .LVU4093
	.loc 1 323 6 view .LVU4094
	.loc 1 323 24 view .LVU4095
.LBB3022:
	.loc 1 323 4 view .LVU4096
	.loc 1 323 369 view .LVU4097
	.loc 1 323 76 view .LVU4098
.LVL488:
	.loc 1 323 3 view .LVU4099
	.loc 1 323 3 view .LVU4100
	.loc 1 323 3 view .LVU4101
	.loc 1 323 39 view .LVU4102
	.loc 1 323 68 view .LVU4103
	.loc 1 323 94 view .LVU4104
	.loc 1 323 120 view .LVU4105
	.loc 1 323 143 view .LVU4106
	.loc 1 323 205 view .LVU4107
	.loc 1 323 262 view .LVU4108
	.loc 1 323 327 view .LVU4109
	.loc 1 323 352 view .LVU4110
	.loc 1 323 353 view .LVU4111
	.loc 1 323 355 view .LVU4112
	.loc 1 323 385 view .LVU4113
	.loc 1 323 415 view .LVU4114
	.loc 1 323 447 view .LVU4115
	.loc 1 323 479 view .LVU4116
	.loc 1 323 511 view .LVU4117
	.loc 1 323 708 view .LVU4118
	.loc 1 323 732 view .LVU4119
	.loc 1 323 733 view .LVU4120
	.loc 1 323 735 view .LVU4121
	.loc 1 323 764 view .LVU4122
	.loc 1 323 793 view .LVU4123
	.loc 1 323 824 view .LVU4124
	.loc 1 323 855 view .LVU4125
	.loc 1 323 886 view .LVU4126
	.loc 1 323 1093 view .LVU4127
	.loc 1 323 5 view .LVU4128
	.loc 1 323 23 view .LVU4129
	.loc 1 323 43 view .LVU4130
	.loc 1 323 5 view .LVU4131
	.loc 1 323 43 view .LVU4132
	.loc 1 323 14 view .LVU4133
	.loc 1 323 14 view .LVU4134
	.loc 1 323 62 view .LVU4135
	.loc 1 323 93 view .LVU4136
	.loc 1 323 127 view .LVU4137
.LBB3023:
	.loc 1 323 132 view .LVU4138
	.loc 1 323 390 view .LVU4139
	.loc 1 323 1475 view .LVU4140
	.loc 1 323 1540 view .LVU4141
.LBE3023:
.LBE3022:
.LBE3032:
.LBE3036:
.LBE3040:
	.loc 1 323 1564 view .LVU4142
	.loc 1 323 1626 view .LVU4143
	.loc 1 323 1637 view .LVU4144
	.loc 1 323 1757 view .LVU4145
.LBB3041:
.LBB3037:
.LBB3033:
.LBB3028:
.LBB3024:
	.loc 1 323 1773 view .LVU4146
	.loc 1 323 1813 view .LVU4147
	.loc 1 323 1838 view .LVU4148
	.loc 1 323 3143 view .LVU4149
	.loc 1 323 3181 view .LVU4150
	.loc 1 323 3186 view .LVU4151
	.loc 1 323 3828 view .LVU4152
	.loc 1 323 0 is_stmt 0 view .LVU4153
	ldr	r3, .L259+20
	str	r3, [sp, #28]
	.loc 1 323 3184 is_stmt 1 view .LVU4154
	.loc 1 323 8 view .LVU4155
.LVL489:
	.loc 1 323 31 view .LVU4156
	.loc 1 323 31 is_stmt 0 view .LVU4157
.LBE3024:
	.loc 1 323 130 is_stmt 1 view .LVU4158
	.loc 1 323 6 view .LVU4159
	.loc 1 323 29 view .LVU4160
	.loc 1 323 53 view .LVU4161
	.loc 1 323 81 view .LVU4162
.LBE3028:
.LBE3033:
.LBE3037:
.LBE3041:
	.loc 1 323 7 view .LVU4163
	.loc 1 323 46 view .LVU4164
	.loc 1 323 51 view .LVU4165
	.loc 1 323 81 view .LVU4166
	.loc 1 323 148 view .LVU4167
	.loc 1 323 153 view .LVU4168
	.loc 1 323 183 view .LVU4169
.LBB3042:
.LBB3038:
.LBB3034:
.LBB3029:
	.loc 1 323 257 view .LVU4170
	.loc 1 323 17 view .LVU4171
.LBB3025:
	.loc 1 323 7 view .LVU4172
	.loc 1 323 165 view .LVU4173
	.loc 1 323 167 view .LVU4174
.LBE3025:
.LBE3029:
	.loc 1 323 150 is_stmt 0 view .LVU4175
	ldr	r0, .L259+4
.LVL490:
.LBB3030:
.LBB3026:
	.loc 1 323 177 view .LVU4176
	movs	r3, #2
.LBE3026:
.LBE3030:
	.loc 1 323 150 view .LVU4177
	add	r2, sp, #24
.LVL491:
	.loc 1 323 150 view .LVU4178
	mov	r1, #4160
.LBB3031:
.LBB3027:
	.loc 1 323 177 view .LVU4179
	str	r3, [sp, #24]
.LVL492:
	.loc 1 323 177 view .LVU4180
.LBE3027:
.LBE3031:
	.loc 1 323 27 is_stmt 1 view .LVU4181
	.loc 1 323 8 view .LVU4182
	.loc 1 323 148 view .LVU4183
	.loc 1 323 150 view .LVU4184
	bl	z_log_msg_static_create.constprop.0
.LVL493:
	.loc 1 323 150 is_stmt 0 view .LVU4185
.LBE3034:
	.loc 1 323 108 is_stmt 1 view .LVU4186
	.loc 1 323 6 view .LVU4187
.LVL494:
	.loc 1 323 43 view .LVU4188
.LBE3038:
	.loc 1 323 7 view .LVU4189
	.loc 1 323 279 view .LVU4190
	.loc 1 323 6 view .LVU4191
	.loc 1 323 19 view .LVU4192
.L251:
	.loc 1 323 19 is_stmt 0 view .LVU4193
.LBE3042:
	.loc 1 323 7 is_stmt 1 discriminator 219 view .LVU4194
	.loc 1 326 3 discriminator 219 view .LVU4195
.LBB3043:
.LBI3043:
	.loc 3 881 20 discriminator 219 view .LVU4196
.LBB3044:
	.loc 3 884 2 discriminator 219 view .LVU4197
	.loc 3 884 25 is_stmt 0 discriminator 219 view .LVU4198
	ldr	r3, [r4, #20]
	.loc 3 885 11 discriminator 219 view .LVU4199
	strh	r10, [r4, #16]	@ movhi
	.loc 3 884 25 discriminator 219 view .LVU4200
	uxtah	r7, r3, r7
.LVL495:
	.loc 3 884 12 discriminator 219 view .LVU4201
	str	r7, [r4, #12]
	.loc 3 885 2 is_stmt 1 discriminator 219 view .LVU4202
.LVL496:
	.loc 3 885 2 is_stmt 0 discriminator 219 view .LVU4203
.LBE3044:
.LBE3043:
	.loc 1 327 3 is_stmt 1 discriminator 219 view .LVU4204
	.loc 1 327 18 is_stmt 0 discriminator 219 view .LVU4205
	str	r9, [r8]
	b	.L246
.L260:
	.align	2
.L259:
	.word	.LC5
	.word	log_const_bt_att
	.word	.LC12
	.word	CSWTCH.11897
	.word	att_unknown
	.word	.LC13
	.cfi_endproc
.LFE599:
	.size	chan_send, .-chan_send
	.section	.text.chan_req_send,"ax",%progbits
	.align	1
	.syntax unified
	.thumb
	.thumb_func
	.type	chan_req_send, %function
chan_req_send:
.LVL497:
.LFB604:
	.loc 1 434 1 is_stmt 1 view -0
	.cfi_startproc
	@ args = 0, pretend = 0, frame = 0
	@ frame_needed = 0, uses_anonymous_args = 0
	.loc 1 435 2 view .LVU4207
	.loc 1 436 2 view .LVU4208
	.loc 1 438 2 view .LVU4209
	.loc 1 434 1 is_stmt 0 view .LVU4210
	push	{r3, r4, r5, r6, r7, lr}
	.cfi_def_cfa_offset 24
	.cfi_offset 3, -24
	.cfi_offset 4, -20
	.cfi_offset 5, -16
	.cfi_offset 6, -12
	.cfi_offset 7, -8
	.cfi_offset 14, -4
	.loc 1 434 1 view .LVU4211
	mov	r4, r0
.LVL498:
.LBB3045:
.LBI3045:
	.loc 1 122 17 is_stmt 1 view .LVU4212
.LBB3046:
	.loc 1 129 2 view .LVU4213
	.loc 1 129 2 is_stmt 0 view .LVU4214
.LBE3046:
.LBE3045:
	.loc 1 438 25 view .LVU4215
	ldr	r0, [r1, #8]
.LVL499:
	.loc 1 438 25 view .LVU4216
	bl	net_buf_frags_len
.LVL500:
.LBB3048:
.LBB3047:
	.loc 1 129 76 view .LVU4217
	ldrh	r3, [r4, #42]
	ldrh	r2, [r4, #26]
.LBE3047:
.LBE3048:
	.loc 1 438 6 view .LVU4218
	cmp	r3, r2
	it	cs
	movcs	r3, r2
	.loc 1 438 5 view .LVU4219
	cmp	r3, r0
	.loc 1 434 1 view .LVU4220
	mov	r5, r1
	.loc 1 438 5 view .LVU4221
	bcc	.L263
	.loc 1 442 2 is_stmt 1 discriminator 435 view .LVU4222
.LBB3049:
	.loc 1 442 7 discriminator 435 view .LVU4223
.LBE3049:
	.loc 1 442 5 discriminator 435 view .LVU4224
	.loc 1 444 2 discriminator 435 view .LVU4225
	.loc 1 444 12 is_stmt 0 discriminator 435 view .LVU4226
	str	r1, [r4, #56]
	.loc 1 447 2 is_stmt 1 discriminator 435 view .LVU4227
	.loc 1 447 6 is_stmt 0 discriminator 435 view .LVU4228
	ldr	r7, [r1, #8]
.LVL501:
	.loc 1 448 2 is_stmt 1 discriminator 435 view .LVU4229
	.loc 1 448 11 is_stmt 0 discriminator 435 view .LVU4230
	movs	r6, #0
	str	r6, [r1, #8]
	.loc 1 450 2 is_stmt 1 discriminator 435 view .LVU4231
.LVL502:
.LBB3050:
.LBI3050:
	.loc 1 753 12 discriminator 435 view .LVU4232
.LBB3051:
	.loc 1 755 2 discriminator 435 view .LVU4233
.LBB3052:
	.loc 1 755 7 discriminator 435 view .LVU4234
.LBE3052:
	.loc 1 755 5 discriminator 435 view .LVU4235
	.loc 1 758 2 discriminator 435 view .LVU4236
	.loc 1 763 2 discriminator 435 view .LVU4237
	.loc 1 763 9 is_stmt 0 discriminator 435 view .LVU4238
	mov	r0, r4
	mov	r1, r7
.LVL503:
	.loc 1 763 9 discriminator 435 view .LVU4239
	bl	chan_send
.LVL504:
	.loc 1 763 9 discriminator 435 view .LVU4240
.LBE3051:
.LBE3050:
	.loc 1 451 2 is_stmt 1 discriminator 435 view .LVU4241
	.loc 1 451 5 is_stmt 0 discriminator 435 view .LVU4242
	cbz	r0, .L261
	.loc 1 453 3 is_stmt 1 view .LVU4243
	.loc 1 453 12 is_stmt 0 view .LVU4244
	str	r7, [r5, #8]
	.loc 1 454 3 is_stmt 1 view .LVU4245
	.loc 1 454 13 is_stmt 0 view .LVU4246
	str	r6, [r4, #56]
.LVL505:
.L261:
	.loc 1 458 1 view .LVU4247
	pop	{r3, r4, r5, r6, r7, pc}
.LVL506:
.L263:
	.loc 1 439 10 view .LVU4248
	mvn	r0, #121
	b	.L261
	.cfi_endproc
.LFE604:
	.size	chan_req_send, .-chan_req_send
	.section	.text.bt_att_status,"ax",%progbits
	.align	1
	.syntax unified
	.thumb
	.thumb_func
	.type	bt_att_status, %function
bt_att_status:
.LVL507:
.LFB673:
	.loc 1 3268 1 is_stmt 1 view -0
	.cfi_startproc
	@ args = 0, pretend = 0, frame = 0
	@ frame_needed = 0, uses_anonymous_args = 0
	.loc 1 3269 2 view .LVU4250
	.loc 1 3270 2 view .LVU4251
	.loc 1 3272 2 view .LVU4252
.LBB3083:
	.loc 1 3272 7 view .LVU4253
.LBE3083:
	.loc 1 3272 5 view .LVU4254
	.loc 1 3274 2 view .LVU4255
.LBB3084:
.LBI3084:
	.loc 7 131 19 view .LVU4256
.LBB3085:
	.loc 7 133 2 view .LVU4257
.LBB3086:
.LBI3086:
	.loc 8 159 28 view .LVU4258
.LBB3087:
	.loc 8 161 2 view .LVU4259
.LBE3087:
.LBE3086:
.LBE3085:
.LBE3084:
	.loc 1 3268 1 is_stmt 0 view .LVU4260
	push	{r3, r4, r5, lr}
	.cfi_def_cfa_offset 16
	.cfi_offset 3, -16
	.cfi_offset 4, -12
	.cfi_offset 5, -8
	.cfi_offset 14, -4
.LBB3091:
.LBB3090:
.LBB3089:
.LBB3088:
	.loc 8 161 9 view .LVU4261
	dmb	ish
	ldr	r3, [r1]
	dmb	ish
.LVL508:
	.loc 8 161 9 view .LVU4262
.LBE3088:
.LBE3089:
	.loc 7 135 2 is_stmt 1 view .LVU4263
	.loc 7 135 2 is_stmt 0 view .LVU4264
.LBE3090:
.LBE3091:
	.loc 1 3274 5 view .LVU4265
	lsls	r3, r3, #31
	.loc 1 3268 1 view .LVU4266
	mov	r5, r0
	.loc 1 3274 5 view .LVU4267
	bpl	.L267
	.loc 1 3278 2 is_stmt 1 view .LVU4268
	.loc 1 3278 11 is_stmt 0 view .LVU4269
	ldr	r0, [r0, #-4]
.LVL509:
	.loc 1 3278 5 view .LVU4270
	cbz	r0, .L267
	.loc 1 3284 2 is_stmt 1 view .LVU4271
	.loc 1 3284 5 is_stmt 0 view .LVU4272
	ldr	r3, [r5, #52]
	cbnz	r3, .L267
	.loc 1 3289 2 is_stmt 1 view .LVU4273
	.loc 1 3289 9 is_stmt 0 view .LVU4274
	adds	r0, r0, #4
	bl	sys_slist_get
.LVL510:
	.loc 1 3290 2 is_stmt 1 view .LVU4275
	.loc 1 3290 5 is_stmt 0 view .LVU4276
	mov	r4, r0
	cbz	r0, .L267
	.loc 1 3294 2 is_stmt 1 view .LVU4277
.LVL511:
.LBB3092:
.LBI3092:
	.loc 1 889 12 view .LVU4278
.LBB3093:
	.loc 1 892 4 view .LVU4279
	.loc 1 892 5 view .LVU4280
	.loc 1 893 4 view .LVU4281
	.loc 1 893 5 view .LVU4282
	.loc 1 894 4 view .LVU4283
	.loc 1 894 5 view .LVU4284
	.loc 1 895 4 view .LVU4285
	.loc 1 895 5 view .LVU4286
	.loc 1 897 2 view .LVU4287
.LBB3094:
	.loc 1 897 7 view .LVU4288
.LBE3094:
	.loc 1 897 5 view .LVU4289
	.loc 1 899 2 view .LVU4290
	.loc 1 899 9 is_stmt 0 view .LVU4291
	mov	r1, r0
	subs	r0, r5, #4
.LVL512:
	.loc 1 899 9 view .LVU4292
	bl	chan_req_send
.LVL513:
	.loc 1 899 9 view .LVU4293
.LBE3093:
.LBE3092:
	.loc 1 3294 5 view .LVU4294
	cmp	r0, #0
	bge	.L267
	.loc 1 3299 2 is_stmt 1 view .LVU4295
	.loc 1 3299 25 is_stmt 0 view .LVU4296
	ldr	r3, [r5, #-4]
.LVL514:
.LBB3095:
.LBI3095:
	.loc 2 305 20 is_stmt 1 view .LVU4297
.LBB3096:
	.loc 2 305 78 view .LVU4298
.LBB3097:
.LBI3097:
	.loc 2 238 28 view .LVU4299
.LBB3098:
	.loc 2 240 2 view .LVU4300
	.loc 2 240 13 is_stmt 0 view .LVU4301
	ldr	r2, [r3, #4]
.LVL515:
	.loc 2 240 13 view .LVU4302
.LBE3098:
.LBE3097:
.LBB3099:
.LBI3099:
	.loc 2 216 20 is_stmt 1 view .LVU4303
.LBB3100:
	.loc 2 218 2 view .LVU4304
	.loc 2 218 15 is_stmt 0 view .LVU4305
	str	r2, [r4]
.LVL516:
	.loc 2 218 15 view .LVU4306
.LBE3100:
.LBE3099:
	.loc 2 305 129 is_stmt 1 view .LVU4307
.LBB3101:
.LBI3101:
	.loc 2 221 20 view .LVU4308
.LBB3102:
	.loc 2 223 2 view .LVU4309
.LBE3102:
.LBE3101:
	.loc 2 305 162 is_stmt 0 view .LVU4310
	ldr	r2, [r3, #8]
.LBB3104:
.LBB3103:
	.loc 2 223 13 view .LVU4311
	str	r4, [r3, #4]
.LVL517:
	.loc 2 223 13 view .LVU4312
.LBE3103:
.LBE3104:
	.loc 2 305 159 is_stmt 1 view .LVU4313
.LBB3105:
.LBI3105:
	.loc 2 250 28 view .LVU4314
.LBB3106:
	.loc 2 252 2 view .LVU4315
	.loc 2 252 2 is_stmt 0 view .LVU4316
.LBE3106:
.LBE3105:
	.loc 2 305 162 view .LVU4317
	cbnz	r2, .L267
	.loc 2 305 5 is_stmt 1 view .LVU4318
.LVL518:
.LBB3107:
.LBI3107:
	.loc 2 226 20 view .LVU4319
.LBB3108:
	.loc 2 228 2 view .LVU4320
	.loc 2 228 13 is_stmt 0 view .LVU4321
	str	r4, [r3, #8]
.LVL519:
.L267:
	.loc 2 228 13 view .LVU4322
.LBE3108:
.LBE3107:
.LBE3096:
.LBE3095:
	.loc 1 3300 1 view .LVU4323
	pop	{r3, r4, r5, pc}
	.loc 1 3300 1 view .LVU4324
	.cfi_endproc
.LFE673:
	.size	bt_att_status, .-bt_att_status
	.section	.text.att_req_send_process,"ax",%progbits
	.align	1
	.syntax unified
	.thumb
	.thumb_func
	.type	att_req_send_process, %function
att_req_send_process:
.LVL520:
.LFB625:
	.loc 1 903 1 is_stmt 1 view -0
	.cfi_startproc
	@ args = 0, pretend = 0, frame = 0
	@ frame_needed = 0, uses_anonymous_args = 0
	.loc 1 904 2 view .LVU4326
	.loc 1 905 2 view .LVU4327
	.loc 1 907 2 view .LVU4328
.LBB3139:
.LBI3139:
	.loc 2 238 28 view .LVU4329
.LBB3140:
	.loc 2 240 2 view .LVU4330
.LBE3140:
.LBE3139:
	.loc 1 903 1 is_stmt 0 view .LVU4331
	push	{r4, r5, r6, r7, r8, lr}
	.cfi_def_cfa_offset 24
	.cfi_offset 4, -24
	.cfi_offset 5, -20
	.cfi_offset 6, -16
	.cfi_offset 7, -12
	.cfi_offset 8, -8
	.cfi_offset 14, -4
.LBB3142:
.LBB3141:
	.loc 2 240 13 view .LVU4332
	ldr	r4, [r0, #36]
.LVL521:
	.loc 2 240 13 view .LVU4333
.LBE3141:
.LBE3142:
	.loc 1 903 1 view .LVU4334
	mov	r7, r0
	.loc 1 907 8 view .LVU4335
	cbz	r4, .L277
.LVL522:
.LBB3143:
.LBI3143:
	.loc 2 292 29 is_stmt 1 discriminator 1 view .LVU4336
	.loc 2 292 70 discriminator 1 view .LVU4337
.LBB3144:
.LBI3144:
	.loc 2 281 29 discriminator 1 view .LVU4338
	.loc 2 281 79 discriminator 1 view .LVU4339
.LBB3145:
.LBI3145:
	.loc 2 211 28 discriminator 1 view .LVU4340
.LBB3146:
	.loc 2 213 2 discriminator 1 view .LVU4341
	.loc 2 213 13 is_stmt 0 discriminator 1 view .LVU4342
	ldr	r6, [r4], #-160
.LVL523:
	.loc 2 213 13 discriminator 1 view .LVU4343
.LBE3146:
.LBE3145:
.LBE3144:
.LBE3143:
	.loc 1 907 8 discriminator 1 view .LVU4344
	cbz	r6, .L279
	.loc 1 907 8 view .LVU4345
	subs	r6, r6, #160
.L279:
.LVL524:
	.loc 1 907 9 is_stmt 1 view .LVU4346
	.loc 1 903 1 is_stmt 0 view .LVU4347
	movs	r3, #0
	mov	r5, r3
	.loc 1 924 9 view .LVU4348
	add	r8, r7, #4
	b	.L285
.LVL525:
.L284:
	.loc 1 903 1 view .LVU4349
	mov	r4, r6
	mov	r6, r2
.L285:
.LVL526:
	.loc 1 909 3 is_stmt 1 view .LVU4350
	.loc 1 909 6 is_stmt 0 view .LVU4351
	ldr	r2, [r4, #56]
	cbnz	r2, .L280
	.loc 1 913 3 is_stmt 1 view .LVU4352
	.loc 1 913 6 is_stmt 0 view .LVU4353
	cbnz	r5, .L281
	.loc 1 913 12 discriminator 1 view .LVU4354
	cbnz	r3, .L280
.L281:
	.loc 1 921 3 is_stmt 1 view .LVU4355
.LVL527:
	.loc 1 924 3 view .LVU4356
.LBB3147:
.LBI3147:
	.loc 1 380 27 view .LVU4357
.LBB3148:
	.loc 1 382 2 view .LVU4358
	.loc 1 403 2 view .LVU4359
	.loc 1 403 22 is_stmt 0 view .LVU4360
	mov	r0, r8
	bl	sys_slist_get
.LVL528:
	.loc 1 405 2 is_stmt 1 view .LVU4361
	.loc 1 405 5 is_stmt 0 view .LVU4362
	mov	r5, r0
.LVL529:
	.loc 1 405 5 view .LVU4363
	cbz	r0, .L286
.LVL530:
	.loc 1 405 5 view .LVU4364
.LBE3148:
.LBE3147:
	.loc 1 925 3 is_stmt 1 view .LVU4365
	.loc 1 929 3 view .LVU4366
.LBB3150:
.LBI3150:
	.loc 1 889 12 view .LVU4367
.LBB3151:
	.loc 1 892 4 view .LVU4368
	.loc 1 892 5 view .LVU4369
	.loc 1 893 4 view .LVU4370
	.loc 1 893 5 view .LVU4371
	.loc 1 894 4 view .LVU4372
	.loc 1 894 5 view .LVU4373
	.loc 1 895 4 view .LVU4374
	.loc 1 895 5 view .LVU4375
	.loc 1 897 2 view .LVU4376
.LBB3152:
	.loc 1 897 7 view .LVU4377
.LBE3152:
	.loc 1 897 5 view .LVU4378
	.loc 1 899 2 view .LVU4379
	.loc 1 899 9 is_stmt 0 view .LVU4380
	mov	r1, r0
	mov	r0, r4
.LVL531:
	.loc 1 899 9 view .LVU4381
	bl	chan_req_send
.LVL532:
	.loc 1 899 9 view .LVU4382
.LBE3151:
.LBE3150:
	.loc 1 929 6 view .LVU4383
	cmp	r0, #0
	bge	.L277
	.loc 1 934 3 is_stmt 1 view .LVU4384
.LVL533:
.LBB3153:
.LBI3153:
	.loc 2 305 20 view .LVU4385
.LBB3154:
	.loc 2 305 78 view .LVU4386
.LBB3155:
.LBI3155:
	.loc 2 238 28 view .LVU4387
.LBB3156:
	.loc 2 240 2 view .LVU4388
	.loc 2 240 13 is_stmt 0 view .LVU4389
	ldr	r3, [r7, #4]
.LVL534:
	.loc 2 240 13 view .LVU4390
.LBE3156:
.LBE3155:
.LBB3157:
.LBI3157:
	.loc 2 216 20 is_stmt 1 view .LVU4391
.LBB3158:
	.loc 2 218 2 view .LVU4392
	.loc 2 218 15 is_stmt 0 view .LVU4393
	str	r3, [r5]
.LVL535:
	.loc 2 218 15 view .LVU4394
.LBE3158:
.LBE3157:
	.loc 2 305 129 is_stmt 1 view .LVU4395
.LBB3159:
.LBI3159:
	.loc 2 221 20 view .LVU4396
.LBB3160:
	.loc 2 223 2 view .LVU4397
.LBE3160:
.LBE3159:
	.loc 2 305 162 is_stmt 0 view .LVU4398
	ldr	r3, [r7, #8]
.LBB3162:
.LBB3161:
	.loc 2 223 13 view .LVU4399
	str	r5, [r7, #4]
.LVL536:
	.loc 2 223 13 view .LVU4400
.LBE3161:
.LBE3162:
	.loc 2 305 159 is_stmt 1 view .LVU4401
.LBB3163:
.LBI3163:
	.loc 2 250 28 view .LVU4402
.LBB3164:
	.loc 2 252 2 view .LVU4403
	.loc 2 252 2 is_stmt 0 view .LVU4404
.LBE3164:
.LBE3163:
	.loc 2 305 162 view .LVU4405
	cbnz	r3, .L286
	.loc 2 305 5 is_stmt 1 view .LVU4406
.LVL537:
.LBB3165:
.LBI3165:
	.loc 2 226 20 view .LVU4407
.LBB3166:
	.loc 2 228 2 view .LVU4408
	.loc 2 228 13 is_stmt 0 view .LVU4409
	str	r5, [r7, #8]
.LVL538:
.L286:
	.loc 2 228 13 view .LVU4410
.LBE3166:
.LBE3165:
.LBE3154:
.LBE3153:
.LBB3167:
.LBB3149:
	mov	r3, r4
.LVL539:
.L280:
	.loc 2 228 13 view .LVU4411
.LBE3149:
.LBE3167:
	.loc 1 907 13 is_stmt 1 view .LVU4412
	.loc 1 907 3 is_stmt 0 view .LVU4413
	cbz	r6, .L277
.LVL540:
.LBB3168:
.LBI3168:
	.loc 2 292 29 is_stmt 1 view .LVU4414
	.loc 2 292 70 view .LVU4415
.LBB3169:
.LBI3169:
	.loc 2 281 29 view .LVU4416
	.loc 2 281 79 view .LVU4417
.LBB3170:
.LBI3170:
	.loc 2 211 28 view .LVU4418
.LBB3171:
	.loc 2 213 2 view .LVU4419
	.loc 2 213 13 is_stmt 0 view .LVU4420
	ldr	r2, [r6, #160]
.LVL541:
	.loc 2 213 13 view .LVU4421
.LBE3171:
.LBE3170:
.LBE3169:
.LBE3168:
	.loc 1 907 8 view .LVU4422
	cmp	r2, #0
	beq	.L284
	subs	r2, r2, #160
.LVL542:
	.loc 1 907 9 is_stmt 1 view .LVU4423
	b	.L284
.LVL543:
.L277:
	.loc 1 936 1 is_stmt 0 view .LVU4424
	pop	{r4, r5, r6, r7, r8, pc}
	.loc 1 936 1 view .LVU4425
	.cfi_endproc
.LFE625:
	.size	att_req_send_process, .-att_req_send_process
	.section	.text.process_queue,"ax",%progbits
	.align	1
	.syntax unified
	.thumb
	.thumb_func
	.type	process_queue, %function
process_queue:
.LVL544:
.LFB603:
	.loc 1 413 1 is_stmt 1 view -0
	.cfi_startproc
	@ args = 0, pretend = 0, frame = 0
	@ frame_needed = 0, uses_anonymous_args = 0
	.loc 1 414 2 view .LVU4427
	.loc 1 415 2 view .LVU4428
	.loc 1 417 2 view .LVU4429
	.loc 1 413 1 is_stmt 0 view .LVU4430
	push	{r4, r5, r6, lr}
	.cfi_def_cfa_offset 16
	.cfi_offset 4, -16
	.cfi_offset 5, -12
	.cfi_offset 6, -8
	.cfi_offset 14, -4
.LBB3182:
.LBB3183:
	.loc 1 376 10 view .LVU4431
	movs	r2, #0
.LBE3183:
.LBE3182:
	.loc 1 413 1 view .LVU4432
	mov	r4, r0
.LVL545:
.LBB3186:
.LBI3182:
	.loc 1 348 24 is_stmt 1 view .LVU4433
	.loc 1 350 2 view .LVU4434
.LBB3184:
	.loc 1 376 3 view .LVU4435
	.loc 1 376 10 is_stmt 0 view .LVU4436
	movs	r3, #0
	mov	r0, r1
.LVL546:
	.loc 1 376 10 view .LVU4437
.LBE3184:
.LBE3186:
	.loc 1 413 1 view .LVU4438
	mov	r6, r1
.LBB3187:
.LBB3185:
	.loc 1 376 10 view .LVU4439
	bl	net_buf_get
.LVL547:
	.loc 1 376 10 view .LVU4440
.LBE3185:
.LBE3187:
	.loc 1 418 2 is_stmt 1 view .LVU4441
	.loc 1 418 5 is_stmt 0 view .LVU4442
	mov	r5, r0
	cbz	r0, .L301
	.loc 1 419 3 is_stmt 1 view .LVU4443
.LVL548:
.LBB3188:
.LBI3188:
	.loc 1 753 12 view .LVU4444
.LBB3189:
	.loc 1 755 2 view .LVU4445
.LBB3190:
	.loc 1 755 7 view .LVU4446
.LBE3190:
	.loc 1 755 5 view .LVU4447
	.loc 1 758 2 view .LVU4448
	.loc 1 763 2 view .LVU4449
	.loc 1 763 9 is_stmt 0 view .LVU4450
	mov	r1, r0
	mov	r0, r4
.LVL549:
	.loc 1 763 9 view .LVU4451
	bl	chan_send
.LVL550:
	.loc 1 763 9 view .LVU4452
.LBE3189:
.LBE3188:
	.loc 1 420 3 is_stmt 1 view .LVU4453
	.loc 1 420 6 is_stmt 0 view .LVU4454
	mov	r4, r0
.LVL551:
	.loc 1 420 6 view .LVU4455
	cbz	r0, .L299
	.loc 1 422 4 is_stmt 1 view .LVU4456
	mov	r1, r5
	mov	r0, r6
.LVL552:
	.loc 1 422 4 is_stmt 0 view .LVU4457
	bl	k_queue_prepend
.LVL553:
	.loc 1 423 4 is_stmt 1 view .LVU4458
.L299:
	.loc 1 430 1 is_stmt 0 view .LVU4459
	mov	r0, r4
	pop	{r4, r5, r6, pc}
.LVL554:
.L301:
	.loc 1 429 9 view .LVU4460
	mvn	r4, #1
.LVL555:
	.loc 1 429 9 view .LVU4461
	b	.L299
	.cfi_endproc
.LFE603:
	.size	process_queue, .-process_queue
	.section	.text.bt_att_sent,"ax",%progbits
	.align	1
	.syntax unified
	.thumb
	.thumb_func
	.type	bt_att_sent, %function
bt_att_sent:
.LVL556:
.LFB605:
	.loc 1 461 1 is_stmt 1 view -0
	.cfi_startproc
	@ args = 0, pretend = 0, frame = 0
	@ frame_needed = 0, uses_anonymous_args = 0
	.loc 1 462 2 view .LVU4463
	.loc 1 461 1 is_stmt 0 view .LVU4464
	push	{r3, r4, r5, r6, r7, lr}
	.cfi_def_cfa_offset 24
	.cfi_offset 3, -24
	.cfi_offset 4, -20
	.cfi_offset 5, -16
	.cfi_offset 6, -12
	.cfi_offset 7, -8
	.cfi_offset 14, -4
	.loc 1 463 17 view .LVU4465
	ldr	r4, [r0, #-4]
	.loc 1 461 1 view .LVU4466
	mov	r5, r0
	.loc 1 462 22 view .LVU4467
	subs	r7, r0, #4
.LVL557:
	.loc 1 463 2 is_stmt 1 view .LVU4468
	.loc 1 464 2 view .LVU4469
	.loc 1 466 2 view .LVU4470
.LBB3215:
	.loc 1 466 7 view .LVU4471
.LBE3215:
	.loc 1 466 5 view .LVU4472
	.loc 1 468 2 view .LVU4473
	movs	r1, #4
	adds	r0, r0, #48
.LVL558:
	.loc 1 468 2 is_stmt 0 view .LVU4474
	bl	atomic_clear_bit
.LVL559:
	.loc 1 470 2 is_stmt 1 view .LVU4475
	.loc 1 470 5 is_stmt 0 view .LVU4476
	cbz	r4, .L305
	.loc 1 480 2 is_stmt 1 view .LVU4477
	.loc 1 480 5 is_stmt 0 view .LVU4478
	ldr	r3, [r5, #52]
	cbnz	r3, .L309
.LVL560:
.LBB3216:
.LBI3216:
	.loc 2 268 1 is_stmt 1 discriminator 1 view .LVU4479
	.loc 2 268 41 discriminator 1 view .LVU4480
.LBB3217:
.LBI3217:
	.loc 2 238 28 discriminator 1 view .LVU4481
.LBB3218:
	.loc 2 240 2 discriminator 1 view .LVU4482
	.loc 2 240 2 is_stmt 0 discriminator 1 view .LVU4483
.LBE3218:
.LBE3217:
.LBE3216:
	.loc 1 480 17 discriminator 1 view .LVU4484
	ldr	r3, [r4, #4]
	cbz	r3, .L309
.LBB3219:
	.loc 1 481 3 is_stmt 1 view .LVU4485
	.loc 1 481 23 is_stmt 0 view .LVU4486
	adds	r0, r4, #4
	bl	sys_slist_get
.LVL561:
	.loc 1 483 7 view .LVU4487
	mov	r1, r0
	.loc 1 481 23 view .LVU4488
	mov	r6, r0
.LVL562:
	.loc 1 483 3 is_stmt 1 view .LVU4489
	.loc 1 483 7 is_stmt 0 view .LVU4490
	mov	r0, r7
.LVL563:
	.loc 1 483 7 view .LVU4491
	bl	chan_req_send
.LVL564:
	.loc 1 483 6 view .LVU4492
	cmp	r0, #0
	bge	.L305
	.loc 1 488 3 is_stmt 1 view .LVU4493
.LVL565:
.LBB3220:
.LBI3220:
	.loc 2 305 20 view .LVU4494
.LBB3221:
	.loc 2 305 78 view .LVU4495
.LBB3222:
.LBI3222:
	.loc 2 238 28 view .LVU4496
.LBB3223:
	.loc 2 240 2 view .LVU4497
	.loc 2 240 13 is_stmt 0 view .LVU4498
	ldr	r3, [r4, #4]
.LVL566:
	.loc 2 240 13 view .LVU4499
.LBE3223:
.LBE3222:
.LBB3224:
.LBI3224:
	.loc 2 216 20 is_stmt 1 view .LVU4500
.LBB3225:
	.loc 2 218 2 view .LVU4501
	.loc 2 218 15 is_stmt 0 view .LVU4502
	str	r3, [r6]
.LVL567:
	.loc 2 218 15 view .LVU4503
.LBE3225:
.LBE3224:
	.loc 2 305 129 is_stmt 1 view .LVU4504
.LBB3226:
.LBI3226:
	.loc 2 221 20 view .LVU4505
.LBB3227:
	.loc 2 223 2 view .LVU4506
.LBE3227:
.LBE3226:
	.loc 2 305 162 is_stmt 0 view .LVU4507
	ldr	r3, [r4, #8]
.LBB3229:
.LBB3228:
	.loc 2 223 13 view .LVU4508
	str	r6, [r4, #4]
.LVL568:
	.loc 2 223 13 view .LVU4509
.LBE3228:
.LBE3229:
	.loc 2 305 159 is_stmt 1 view .LVU4510
.LBB3230:
.LBI3230:
	.loc 2 250 28 view .LVU4511
.LBB3231:
	.loc 2 252 2 view .LVU4512
	.loc 2 252 2 is_stmt 0 view .LVU4513
.LBE3231:
.LBE3230:
	.loc 2 305 162 view .LVU4514
	cbnz	r3, .L309
	.loc 2 305 5 is_stmt 1 view .LVU4515
.LVL569:
.LBB3232:
.LBI3232:
	.loc 2 226 20 view .LVU4516
.LBB3233:
	.loc 2 228 2 view .LVU4517
	.loc 2 228 13 is_stmt 0 view .LVU4518
	str	r6, [r4, #8]
.LVL570:
.L309:
	.loc 2 228 13 view .LVU4519
.LBE3233:
.LBE3232:
.LBE3221:
.LBE3220:
.LBE3219:
	.loc 1 492 2 is_stmt 1 view .LVU4520
	.loc 1 492 8 is_stmt 0 view .LVU4521
	add	r1, r5, #56
	mov	r0, r7
	bl	process_queue
.LVL571:
	.loc 1 493 2 is_stmt 1 view .LVU4522
	.loc 1 493 5 is_stmt 0 view .LVU4523
	cbz	r0, .L305
	.loc 1 498 2 is_stmt 1 view .LVU4524
	.loc 1 498 8 is_stmt 0 view .LVU4525
	add	r1, r4, #12
	mov	r0, r7
.LVL572:
	.loc 1 499 1 view .LVU4526
	pop	{r3, r4, r5, r6, r7, lr}
	.cfi_remember_state
	.cfi_restore 14
	.cfi_restore 7
	.cfi_restore 6
	.cfi_restore 5
	.cfi_restore 4
	.cfi_restore 3
	.cfi_def_cfa_offset 0
.LVL573:
	.loc 1 498 8 view .LVU4527
	b	process_queue
.LVL574:
.L305:
	.cfi_restore_state
	.loc 1 499 1 view .LVU4528
	pop	{r3, r4, r5, r6, r7, pc}
	.loc 1 499 1 view .LVU4529
	.cfi_endproc
.LFE605:
	.size	bt_att_sent, .-bt_att_sent
	.section	.text.bt_att_chan_send_rsp,"ax",%progbits
	.align	1
	.syntax unified
	.thumb
	.thumb_func
	.type	bt_att_chan_send_rsp, %function
bt_att_chan_send_rsp:
.LVL575:
.LFB621:
	.loc 1 792 1 is_stmt 1 view -0
	.cfi_startproc
	@ args = 0, pretend = 0, frame = 0
	@ frame_needed = 0, uses_anonymous_args = 0
	.loc 1 793 2 view .LVU4531
	.loc 1 795 2 view .LVU4532
	.loc 1 792 1 is_stmt 0 view .LVU4533
	push	{r3, r4, r5, lr}
	.cfi_def_cfa_offset 16
	.cfi_offset 3, -16
	.cfi_offset 4, -12
	.cfi_offset 5, -8
	.cfi_offset 14, -4
	.loc 1 792 1 view .LVU4534
	mov	r4, r0
	mov	r5, r1
	.loc 1 795 8 view .LVU4535
	bl	chan_send
.LVL576:
	.loc 1 796 2 is_stmt 1 view .LVU4536
	.loc 1 796 5 is_stmt 0 view .LVU4537
	cbz	r0, .L318
	.loc 1 798 3 is_stmt 1 view .LVU4538
	mov	r1, r5
	add	r0, r4, #60
.LVL577:
	.loc 1 800 1 is_stmt 0 view .LVU4539
	pop	{r3, r4, r5, lr}
	.cfi_remember_state
	.cfi_restore 14
	.cfi_restore 5
	.cfi_restore 4
	.cfi_restore 3
	.cfi_def_cfa_offset 0
.LVL578:
	.loc 1 798 3 view .LVU4540
	b	net_buf_put
.LVL579:
.L318:
	.cfi_restore_state
	.loc 1 800 1 view .LVU4541
	pop	{r3, r4, r5, pc}
	.loc 1 800 1 view .LVU4542
	.cfi_endproc
.LFE621:
	.size	bt_att_chan_send_rsp, .-bt_att_chan_send_rsp
	.section	.text.send_err_rsp,"ax",%progbits
	.align	1
	.syntax unified
	.thumb
	.thumb_func
	.type	send_err_rsp, %function
send_err_rsp:
.LVL580:
.LFB622:
	.loc 1 804 1 is_stmt 1 view -0
	.cfi_startproc
	@ args = 0, pretend = 0, frame = 0
	@ frame_needed = 0, uses_anonymous_args = 0
	.loc 1 804 1 is_stmt 0 view .LVU4544
	push	{r4, r5, r6, r7, r8, lr}
	.cfi_def_cfa_offset 24
	.cfi_offset 4, -24
	.cfi_offset 5, -20
	.cfi_offset 6, -16
	.cfi_offset 7, -12
	.cfi_offset 8, -8
	.cfi_offset 14, -4
	.loc 1 804 1 view .LVU4545
	mov	r6, r0
	mov	r8, r2
	.loc 1 805 2 is_stmt 1 view .LVU4546
	.loc 1 806 2 view .LVU4547
	.loc 1 809 2 view .LVU4548
	.loc 1 804 1 is_stmt 0 view .LVU4549
	mov	r7, r3
	.loc 1 809 5 view .LVU4550
	mov	r5, r1
	cbz	r1, .L320
	.loc 1 813 2 is_stmt 1 view .LVU4551
	.loc 1 813 8 is_stmt 0 view .LVU4552
	movs	r2, #4
.LVL581:
	.loc 1 813 8 view .LVU4553
	movs	r1, #1
.LVL582:
	.loc 1 813 8 view .LVU4554
	bl	bt_att_chan_create_pdu
.LVL583:
	.loc 1 814 2 is_stmt 1 view .LVU4555
	.loc 1 814 5 is_stmt 0 view .LVU4556
	mov	r4, r0
	cbnz	r0, .L322
	.loc 1 825 1 view .LVU4557
	pop	{r4, r5, r6, r7, r8, lr}
	.cfi_remember_state
	.cfi_restore 14
	.cfi_restore 8
	.cfi_restore 7
	.cfi_restore 6
	.cfi_restore 5
	.cfi_restore 4
	.cfi_def_cfa_offset 0
.LVL584:
	.loc 1 825 1 view .LVU4558
	b	send_err_rsp.part.0
.LVL585:
.L322:
	.cfi_restore_state
	.loc 1 819 2 is_stmt 1 view .LVU4559
.LBB3234:
.LBI3234:
	.loc 3 1493 21 view .LVU4560
.LBB3235:
	.loc 3 1495 2 view .LVU4561
	.loc 3 1495 9 is_stmt 0 view .LVU4562
	movs	r1, #4
	adds	r0, r0, #12
.LVL586:
	.loc 3 1495 9 view .LVU4563
	bl	net_buf_simple_add
.LVL587:
	.loc 3 1495 9 view .LVU4564
.LBE3235:
.LBE3234:
	.loc 1 820 2 is_stmt 1 view .LVU4565
	.loc 1 820 15 is_stmt 0 view .LVU4566
	strb	r5, [r0]
	.loc 1 821 2 is_stmt 1 view .LVU4567
	.loc 1 821 14 is_stmt 0 view .LVU4568
	strh	r8, [r0, #1]	@ unaligned
	.loc 1 822 2 is_stmt 1 view .LVU4569
	.loc 1 822 13 is_stmt 0 view .LVU4570
	strb	r7, [r0, #3]
	.loc 1 824 2 is_stmt 1 view .LVU4571
	mov	r1, r4
	mov	r0, r6
.LVL588:
	.loc 1 825 1 is_stmt 0 view .LVU4572
	pop	{r4, r5, r6, r7, r8, lr}
	.cfi_remember_state
	.cfi_restore 14
	.cfi_restore 8
	.cfi_restore 7
	.cfi_restore 6
	.cfi_restore 5
	.cfi_restore 4
	.cfi_def_cfa_offset 0
.LVL589:
	.loc 1 824 2 view .LVU4573
	b	bt_att_chan_send_rsp
.LVL590:
.L320:
	.cfi_restore_state
	.loc 1 825 1 view .LVU4574
	pop	{r4, r5, r6, r7, r8, pc}
	.cfi_endproc
.LFE622:
	.size	send_err_rsp, .-send_err_rsp
	.section	.rodata.bt_att_recv.str1.1,"aMS",%progbits,1
.LC14:
	.ascii	"Too small ATT PDU received\000"
.LC15:
	.ascii	"Unhandled ATT code 0x%02x\000"
.LC16:
	.ascii	"Ignoring unexpected request\000"
.LC17:
	.ascii	"Ignoring unexpected indication\000"
.LC18:
	.ascii	"Invalid len %u for code 0x%02x\000"
	.section	.text.bt_att_recv,"ax",%progbits
	.align	1
	.syntax unified
	.thumb
	.thumb_func
	.type	bt_att_recv, %function
bt_att_recv:
.LVL591:
.LFB660:
	.loc 1 2880 1 is_stmt 1 view -0
	.cfi_startproc
	@ args = 0, pretend = 0, frame = 24
	@ frame_needed = 1, uses_anonymous_args = 0
	.loc 1 2881 2 view .LVU4576
	.loc 1 2882 2 view .LVU4577
.LBB3236:
.LBI3236:
	.loc 1 2874 24 view .LVU4578
.LBB3237:
	.loc 1 2876 2 view .LVU4579
.LBE3237:
.LBE3236:
	.loc 1 2880 1 is_stmt 0 view .LVU4580
	push	{r4, r5, r6, r7, r8, r9, r10, fp, lr}
	.cfi_def_cfa_offset 36
	.cfi_offset 4, -36
	.cfi_offset 5, -32
	.cfi_offset 6, -28
	.cfi_offset 7, -24
	.cfi_offset 8, -20
	.cfi_offset 9, -16
	.cfi_offset 10, -12
	.cfi_offset 11, -8
	.cfi_offset 14, -4
	sub	sp, sp, #28
	.cfi_def_cfa_offset 64
	.loc 1 2888 5 view .LVU4581
	ldrh	r3, [r1, #16]
.LBB3239:
.LBB3238:
	.loc 1 2876 28 view .LVU4582
	ldr	r8, [r0]
.LVL592:
	.loc 1 2876 28 view .LVU4583
.LBE3238:
.LBE3239:
	.loc 1 2883 2 is_stmt 1 view .LVU4584
	.loc 1 2884 2 view .LVU4585
	.loc 1 2885 2 view .LVU4586
	.loc 1 2886 2 view .LVU4587
	.loc 1 2888 2 view .LVU4588
	.loc 1 2880 1 is_stmt 0 view .LVU4589
	add	r7, sp, #0
	.cfi_def_cfa_register 7
	.loc 1 2880 1 view .LVU4590
	mov	r4, r0
	mov	r5, r1
	.loc 1 2888 5 view .LVU4591
	cbnz	r3, .L324
	.loc 1 2889 3 is_stmt 1 view .LVU4592
.LBB3240:
	.loc 1 2889 8 view .LVU4593
	.loc 1 2889 57 view .LVU4594
	.loc 1 2889 14 view .LVU4595
	.loc 1 2889 2 view .LVU4596
.LVL593:
	.loc 1 2889 41 view .LVU4597
	.loc 1 2889 176 view .LVU4598
	.loc 1 2889 187 view .LVU4599
	.loc 1 2889 275 view .LVU4600
	.loc 1 2889 3 view .LVU4601
	.loc 1 2889 3 view .LVU4602
.LBB3241:
	.loc 1 2889 8 view .LVU4603
	.loc 1 2889 2 view .LVU4604
.LBE3241:
.LBE3240:
	.loc 1 2889 3 view .LVU4605
	.loc 1 2889 12 view .LVU4606
	.loc 1 2889 107 view .LVU4607
	.loc 1 2889 3 view .LVU4608
.LBB3258:
.LBB3254:
	.loc 1 2889 12 view .LVU4609
	.loc 1 2889 102 view .LVU4610
	.loc 1 2889 104 view .LVU4611
.LBB3242:
	.loc 1 2889 109 view .LVU4612
	.loc 1 2889 120 view .LVU4613
	.loc 1 2889 209 view .LVU4614
	.loc 1 2889 26 view .LVU4615
.LBE3242:
.LBE3254:
.LBE3258:
	.loc 1 2889 3 view .LVU4616
	.loc 1 2889 368 view .LVU4617
	.loc 1 2889 75 view .LVU4618
	.loc 1 2889 2 view .LVU4619
	.loc 1 2889 2 view .LVU4620
	.loc 1 2889 2 view .LVU4621
	.loc 1 2889 38 view .LVU4622
	.loc 1 2889 4 view .LVU4623
	.loc 1 2889 30 view .LVU4624
	.loc 1 2889 56 view .LVU4625
	.loc 1 2889 79 view .LVU4626
	.loc 1 2889 141 view .LVU4627
	.loc 1 2889 198 view .LVU4628
	.loc 1 2889 263 view .LVU4629
	.loc 1 2889 288 view .LVU4630
	.loc 1 2889 289 view .LVU4631
	.loc 1 2889 291 view .LVU4632
	.loc 1 2889 321 view .LVU4633
	.loc 1 2889 351 view .LVU4634
	.loc 1 2889 383 view .LVU4635
	.loc 1 2889 415 view .LVU4636
	.loc 1 2889 447 view .LVU4637
	.loc 1 2889 644 view .LVU4638
	.loc 1 2889 668 view .LVU4639
	.loc 1 2889 669 view .LVU4640
	.loc 1 2889 671 view .LVU4641
	.loc 1 2889 700 view .LVU4642
	.loc 1 2889 729 view .LVU4643
	.loc 1 2889 760 view .LVU4644
	.loc 1 2889 791 view .LVU4645
	.loc 1 2889 822 view .LVU4646
	.loc 1 2889 1029 view .LVU4647
	.loc 1 2889 4 view .LVU4648
	.loc 1 2889 22 view .LVU4649
	.loc 1 2889 42 view .LVU4650
	.loc 1 2889 4 view .LVU4651
	.loc 1 2889 42 view .LVU4652
	.loc 1 2889 13 view .LVU4653
	.loc 1 2889 13 view .LVU4654
	.loc 1 2889 61 view .LVU4655
	.loc 1 2889 92 view .LVU4656
	.loc 1 2889 126 view .LVU4657
	.loc 1 2889 131 view .LVU4658
	.loc 1 2889 381 view .LVU4659
	.loc 1 2889 1434 view .LVU4660
	.loc 1 2889 1499 view .LVU4661
	.loc 1 2889 1523 view .LVU4662
	.loc 1 2889 1577 view .LVU4663
	.loc 1 2889 1588 view .LVU4664
	.loc 1 2889 1700 view .LVU4665
	.loc 1 2889 1716 view .LVU4666
	.loc 1 2889 1756 view .LVU4667
	.loc 1 2889 1781 view .LVU4668
	.loc 1 2889 3070 view .LVU4669
	.loc 1 2889 3111 view .LVU4670
	.loc 1 2889 7 view .LVU4671
	.loc 1 2889 30 view .LVU4672
	.loc 1 2889 129 view .LVU4673
	.loc 1 2889 5 view .LVU4674
	.loc 1 2889 28 view .LVU4675
	.loc 1 2889 52 view .LVU4676
	.loc 1 2889 80 view .LVU4677
	.loc 1 2889 256 view .LVU4678
	.loc 1 2889 16 view .LVU4679
.LBB3259:
.LBB3255:
.LBB3251:
	.loc 1 2889 29 view .LVU4680
	.loc 1 2889 3 view .LVU4681
	.loc 1 2889 3 view .LVU4682
	.loc 1 2889 70 view .LVU4683
	.loc 1 2889 74 view .LVU4684
	.loc 1 2889 484 view .LVU4685
	.loc 1 2889 5 view .LVU4686
	.loc 1 2889 7 view .LVU4687
	.loc 1 2889 12 view .LVU4688
	.loc 1 2889 10 view .LVU4689
	.loc 1 2889 5 view .LVU4690
	.loc 1 2889 23 view .LVU4691
.LBB3243:
	.loc 1 2889 3 view .LVU4692
	.loc 1 2889 368 view .LVU4693
	.loc 1 2889 75 view .LVU4694
.LVL594:
	.loc 1 2889 2 view .LVU4695
	.loc 1 2889 2 view .LVU4696
	.loc 1 2889 2 view .LVU4697
	.loc 1 2889 38 view .LVU4698
	.loc 1 2889 67 view .LVU4699
	.loc 1 2889 93 view .LVU4700
	.loc 1 2889 119 view .LVU4701
	.loc 1 2889 142 view .LVU4702
	.loc 1 2889 204 view .LVU4703
	.loc 1 2889 261 view .LVU4704
	.loc 1 2889 326 view .LVU4705
	.loc 1 2889 351 view .LVU4706
	.loc 1 2889 352 view .LVU4707
	.loc 1 2889 354 view .LVU4708
	.loc 1 2889 384 view .LVU4709
	.loc 1 2889 414 view .LVU4710
	.loc 1 2889 446 view .LVU4711
	.loc 1 2889 478 view .LVU4712
	.loc 1 2889 510 view .LVU4713
	.loc 1 2889 707 view .LVU4714
	.loc 1 2889 731 view .LVU4715
	.loc 1 2889 732 view .LVU4716
	.loc 1 2889 734 view .LVU4717
	.loc 1 2889 763 view .LVU4718
	.loc 1 2889 792 view .LVU4719
	.loc 1 2889 823 view .LVU4720
	.loc 1 2889 854 view .LVU4721
	.loc 1 2889 885 view .LVU4722
	.loc 1 2889 1092 view .LVU4723
	.loc 1 2889 4 view .LVU4724
	.loc 1 2889 22 view .LVU4725
	.loc 1 2889 42 view .LVU4726
	.loc 1 2889 4 view .LVU4727
	.loc 1 2889 42 view .LVU4728
	.loc 1 2889 13 view .LVU4729
	.loc 1 2889 13 view .LVU4730
	.loc 1 2889 61 view .LVU4731
	.loc 1 2889 92 view .LVU4732
	.loc 1 2889 126 view .LVU4733
.LBB3244:
	.loc 1 2889 131 view .LVU4734
	.loc 1 2889 381 view .LVU4735
	.loc 1 2889 1434 view .LVU4736
	.loc 1 2889 1499 view .LVU4737
.LBE3244:
.LBE3243:
.LBE3251:
.LBE3255:
.LBE3259:
	.loc 1 2889 1523 view .LVU4738
	.loc 1 2889 1577 view .LVU4739
	.loc 1 2889 1588 view .LVU4740
	.loc 1 2889 1700 view .LVU4741
.LBB3260:
.LBB3256:
.LBB3252:
.LBB3248:
.LBB3245:
	.loc 1 2889 1716 view .LVU4742
	.loc 1 2889 1756 view .LVU4743
	.loc 1 2889 1781 view .LVU4744
	.loc 1 2889 3070 view .LVU4745
	.loc 1 2889 3108 view .LVU4746
	.loc 1 2889 3113 view .LVU4747
	.loc 1 2889 3707 view .LVU4748
	.loc 1 2889 0 is_stmt 0 view .LVU4749
	ldr	r3, .L356
	str	r3, [r7, #20]
	.loc 1 2889 3111 is_stmt 1 view .LVU4750
	.loc 1 2889 7 view .LVU4751
.LVL595:
	.loc 1 2889 30 view .LVU4752
	.loc 1 2889 30 is_stmt 0 view .LVU4753
.LBE3245:
	.loc 1 2889 129 is_stmt 1 view .LVU4754
	.loc 1 2889 5 view .LVU4755
	.loc 1 2889 28 view .LVU4756
	.loc 1 2889 52 view .LVU4757
	.loc 1 2889 80 view .LVU4758
.LBE3248:
.LBE3252:
.LBE3256:
.LBE3260:
	.loc 1 2889 6 view .LVU4759
	.loc 1 2889 45 view .LVU4760
	.loc 1 2889 50 view .LVU4761
	.loc 1 2889 80 view .LVU4762
	.loc 1 2889 147 view .LVU4763
	.loc 1 2889 152 view .LVU4764
	.loc 1 2889 182 view .LVU4765
.LBB3261:
.LBB3257:
.LBB3253:
.LBB3249:
	.loc 1 2889 256 view .LVU4766
	.loc 1 2889 16 view .LVU4767
.LBB3246:
	.loc 1 2889 6 view .LVU4768
	.loc 1 2889 164 view .LVU4769
	.loc 1 2889 166 view .LVU4770
	.loc 1 2889 176 is_stmt 0 view .LVU4771
	movs	r3, #2
.LBE3246:
.LBE3249:
	.loc 1 2889 149 view .LVU4772
	ldr	r0, .L356+4
.LVL596:
.LBB3250:
.LBB3247:
	.loc 1 2889 176 view .LVU4773
	str	r3, [r7, #16]
.LVL597:
	.loc 1 2889 176 view .LVU4774
.LBE3247:
.LBE3250:
	.loc 1 2889 26 is_stmt 1 view .LVU4775
	.loc 1 2889 7 view .LVU4776
	.loc 1 2889 147 view .LVU4777
	.loc 1 2889 149 view .LVU4778
	add	r2, r7, #16
.LVL598:
	.loc 1 2889 149 is_stmt 0 view .LVU4779
	mov	r1, #4160
.LVL599:
	.loc 1 2889 149 view .LVU4780
	bl	z_log_msg_static_create.constprop.0
.LVL600:
	.loc 1 2889 149 view .LVU4781
.LBE3253:
	.loc 1 2889 107 is_stmt 1 view .LVU4782
	.loc 1 2889 5 view .LVU4783
.LVL601:
	.loc 1 2889 42 view .LVU4784
.LBE3257:
	.loc 1 2889 6 view .LVU4785
	.loc 1 2889 278 view .LVU4786
	.loc 1 2889 5 view .LVU4787
	.loc 1 2889 18 view .LVU4788
.LBE3261:
	.loc 1 2889 6 view .LVU4789
	.loc 1 2890 3 view .LVU4790
.L325:
	.loc 1 2968 1 is_stmt 0 view .LVU4791
	movs	r0, #0
	adds	r7, r7, #28
	.cfi_remember_state
	.cfi_def_cfa_offset 36
	mov	sp, r7
	.cfi_def_cfa_register 13
	@ sp needed
	pop	{r4, r5, r6, r7, r8, r9, r10, fp, pc}
.LVL602:
.L324:
	.cfi_restore_state
	.loc 1 2893 2 is_stmt 1 view .LVU4792
.LBB3262:
.LBI3262:
	.loc 3 2076 21 view .LVU4793
.LBB3263:
	.loc 3 2078 2 view .LVU4794
	.loc 3 2078 9 is_stmt 0 view .LVU4795
	movs	r1, #1
.LVL603:
	.loc 3 2078 9 view .LVU4796
	add	r0, r5, #12
.LVL604:
	.loc 3 2078 9 view .LVU4797
	bl	net_buf_simple_pull_mem
.LVL605:
.LBE3263:
.LBE3262:
	.loc 1 2897 5 view .LVU4798
	ldrb	r3, [r8, #13]	@ zero_extendqisi2
	cmp	r3, #7
.LBB3265:
.LBB3264:
	.loc 3 2078 9 view .LVU4799
	mov	r6, r0
.LVL606:
	.loc 3 2078 9 view .LVU4800
.LBE3264:
.LBE3265:
	.loc 1 2894 2 is_stmt 1 view .LVU4801
.LBB3266:
	.loc 1 2894 7 view .LVU4802
.LBE3266:
	.loc 1 2894 5 view .LVU4803
	.loc 1 2897 2 view .LVU4804
	.loc 1 2897 5 is_stmt 0 view .LVU4805
	bne	.L325
	.loc 1 2902 2 is_stmt 1 view .LVU4806
	.loc 1 2902 5 is_stmt 0 view .LVU4807
	ldr	r3, [r4, #-4]
	cmp	r3, #0
	beq	.L325
	.loc 1 2908 10 view .LVU4808
	ldrb	r2, [r0]	@ zero_extendqisi2
	.loc 1 2908 31 view .LVU4809
	ldr	r10, .L356+24
	.loc 1 2881 22 view .LVU4810
	sub	r8, r4, #4
.LVL607:
	.loc 1 2907 9 view .LVU4811
	movs	r3, #0
.L329:
.LVL608:
	.loc 1 2908 3 is_stmt 1 view .LVU4812
	.loc 1 2908 6 is_stmt 0 view .LVU4813
	ldrb	r1, [r10, r3, lsl #3]	@ zero_extendqisi2
	cmp	r1, r2
	.loc 1 2908 31 view .LVU4814
	lsl	fp, r3, #3
	add	r9, r10, r3, lsl #3
	.loc 1 2908 6 view .LVU4815
	bne	.L326
	.loc 1 2909 4 is_stmt 1 view .LVU4816
.LVL609:
	.loc 1 2910 4 view .LVU4817
	.loc 1 2915 4 view .LVU4818
	.loc 1 2915 5 view .LVU4819
	.loc 1 2926 2 view .LVU4820
	.loc 1 2926 22 is_stmt 0 view .LVU4821
	mov	r0, r5
.LVL610:
	.loc 1 2926 22 view .LVU4822
	bl	net_buf_ref
.LVL611:
	.loc 1 2939 14 view .LVU4823
	ldrb	r9, [r9, #2]	@ zero_extendqisi2
	.loc 1 2926 20 view .LVU4824
	str	r0, [r4, #80]
	.loc 1 2928 2 is_stmt 1 view .LVU4825
	.loc 1 2938 2 view .LVU4826
	.loc 1 2939 3 view .LVU4827
	.loc 1 2939 6 is_stmt 0 view .LVU4828
	cmp	r9, #1
	bne	.L353
	.loc 1 2940 7 view .LVU4829
	movs	r1, #0
	add	r0, r4, #48
	bl	atomic_test_and_set_bit
.LVL612:
	.loc 1 2939 36 view .LVU4830
	cmp	r0, #0
	beq	.L333
	.loc 1 2941 4 is_stmt 1 view .LVU4831
.LBB3267:
	.loc 1 2941 9 view .LVU4832
	.loc 1 2941 58 view .LVU4833
	.loc 1 2941 15 view .LVU4834
	.loc 1 2941 3 view .LVU4835
.LVL613:
	.loc 1 2941 42 view .LVU4836
	.loc 1 2941 177 view .LVU4837
	.loc 1 2941 188 view .LVU4838
	.loc 1 2941 276 view .LVU4839
	.loc 1 2941 4 view .LVU4840
	.loc 1 2941 4 view .LVU4841
.LBB3268:
	.loc 1 2941 9 view .LVU4842
	.loc 1 2941 3 view .LVU4843
.LBE3268:
.LBE3267:
	.loc 1 2941 4 view .LVU4844
	.loc 1 2941 13 view .LVU4845
	.loc 1 2941 108 view .LVU4846
	.loc 1 2941 4 view .LVU4847
.LBB3279:
.LBB3276:
	.loc 1 2941 13 view .LVU4848
	.loc 1 2941 103 view .LVU4849
	.loc 1 2941 105 view .LVU4850
.LBB3269:
	.loc 1 2941 110 view .LVU4851
	.loc 1 2941 121 view .LVU4852
	.loc 1 2941 210 view .LVU4853
	.loc 1 2941 27 view .LVU4854
.LBE3269:
.LBE3276:
.LBE3279:
	.loc 1 2941 4 view .LVU4855
	.loc 1 2941 369 view .LVU4856
	.loc 1 2941 76 view .LVU4857
	.loc 1 2941 3 view .LVU4858
	.loc 1 2941 3 view .LVU4859
	.loc 1 2941 3 view .LVU4860
	.loc 1 2941 39 view .LVU4861
	.loc 1 2941 5 view .LVU4862
	.loc 1 2941 31 view .LVU4863
	.loc 1 2941 57 view .LVU4864
	.loc 1 2941 80 view .LVU4865
	.loc 1 2941 142 view .LVU4866
	.loc 1 2941 199 view .LVU4867
	.loc 1 2941 264 view .LVU4868
	.loc 1 2941 289 view .LVU4869
	.loc 1 2941 290 view .LVU4870
	.loc 1 2941 292 view .LVU4871
	.loc 1 2941 322 view .LVU4872
	.loc 1 2941 352 view .LVU4873
	.loc 1 2941 384 view .LVU4874
	.loc 1 2941 416 view .LVU4875
	.loc 1 2941 448 view .LVU4876
	.loc 1 2941 645 view .LVU4877
	.loc 1 2941 669 view .LVU4878
	.loc 1 2941 670 view .LVU4879
	.loc 1 2941 672 view .LVU4880
	.loc 1 2941 701 view .LVU4881
	.loc 1 2941 730 view .LVU4882
	.loc 1 2941 761 view .LVU4883
	.loc 1 2941 792 view .LVU4884
	.loc 1 2941 823 view .LVU4885
	.loc 1 2941 1030 view .LVU4886
	.loc 1 2941 5 view .LVU4887
	.loc 1 2941 23 view .LVU4888
	.loc 1 2941 43 view .LVU4889
	.loc 1 2941 5 view .LVU4890
	.loc 1 2941 43 view .LVU4891
	.loc 1 2941 14 view .LVU4892
	.loc 1 2941 14 view .LVU4893
	.loc 1 2941 62 view .LVU4894
	.loc 1 2941 93 view .LVU4895
	.loc 1 2941 127 view .LVU4896
	.loc 1 2941 132 view .LVU4897
	.loc 1 2941 383 view .LVU4898
	.loc 1 2941 1440 view .LVU4899
	.loc 1 2941 1505 view .LVU4900
	.loc 1 2941 1529 view .LVU4901
	.loc 1 2941 1584 view .LVU4902
	.loc 1 2941 1595 view .LVU4903
	.loc 1 2941 1708 view .LVU4904
	.loc 1 2941 1724 view .LVU4905
	.loc 1 2941 1764 view .LVU4906
	.loc 1 2941 1789 view .LVU4907
	.loc 1 2941 3080 view .LVU4908
	.loc 1 2941 3121 view .LVU4909
	.loc 1 2941 8 view .LVU4910
	.loc 1 2941 31 view .LVU4911
	.loc 1 2941 130 view .LVU4912
	.loc 1 2941 6 view .LVU4913
	.loc 1 2941 29 view .LVU4914
	.loc 1 2941 53 view .LVU4915
	.loc 1 2941 81 view .LVU4916
	.loc 1 2941 257 view .LVU4917
	.loc 1 2941 17 view .LVU4918
.LBB3280:
.LBB3277:
.LBB3274:
	.loc 1 2941 30 view .LVU4919
	.loc 1 2941 4 view .LVU4920
	.loc 1 2941 4 view .LVU4921
	.loc 1 2941 71 view .LVU4922
	.loc 1 2941 75 view .LVU4923
	.loc 1 2941 485 view .LVU4924
	.loc 1 2941 6 view .LVU4925
	.loc 1 2941 8 view .LVU4926
	.loc 1 2941 13 view .LVU4927
	.loc 1 2941 11 view .LVU4928
	.loc 1 2941 6 view .LVU4929
	.loc 1 2941 24 view .LVU4930
.LBB3270:
	.loc 1 2941 4 view .LVU4931
	.loc 1 2941 369 view .LVU4932
	.loc 1 2941 76 view .LVU4933
.LVL614:
	.loc 1 2941 3 view .LVU4934
	.loc 1 2941 3 view .LVU4935
	.loc 1 2941 3 view .LVU4936
	.loc 1 2941 39 view .LVU4937
	.loc 1 2941 68 view .LVU4938
	.loc 1 2941 94 view .LVU4939
	.loc 1 2941 120 view .LVU4940
	.loc 1 2941 143 view .LVU4941
	.loc 1 2941 205 view .LVU4942
	.loc 1 2941 262 view .LVU4943
	.loc 1 2941 327 view .LVU4944
	.loc 1 2941 352 view .LVU4945
	.loc 1 2941 353 view .LVU4946
	.loc 1 2941 355 view .LVU4947
	.loc 1 2941 385 view .LVU4948
	.loc 1 2941 415 view .LVU4949
	.loc 1 2941 447 view .LVU4950
	.loc 1 2941 479 view .LVU4951
	.loc 1 2941 511 view .LVU4952
	.loc 1 2941 708 view .LVU4953
	.loc 1 2941 732 view .LVU4954
	.loc 1 2941 733 view .LVU4955
	.loc 1 2941 735 view .LVU4956
	.loc 1 2941 764 view .LVU4957
	.loc 1 2941 793 view .LVU4958
	.loc 1 2941 824 view .LVU4959
	.loc 1 2941 855 view .LVU4960
	.loc 1 2941 886 view .LVU4961
	.loc 1 2941 1093 view .LVU4962
	.loc 1 2941 5 view .LVU4963
	.loc 1 2941 23 view .LVU4964
	.loc 1 2941 43 view .LVU4965
	.loc 1 2941 5 view .LVU4966
	.loc 1 2941 43 view .LVU4967
	.loc 1 2941 14 view .LVU4968
	.loc 1 2941 14 view .LVU4969
	.loc 1 2941 62 view .LVU4970
	.loc 1 2941 93 view .LVU4971
	.loc 1 2941 127 view .LVU4972
.LBB3271:
	.loc 1 2941 132 view .LVU4973
	.loc 1 2941 383 view .LVU4974
	.loc 1 2941 1440 view .LVU4975
	.loc 1 2941 1505 view .LVU4976
.LBE3271:
.LBE3270:
.LBE3274:
.LBE3277:
.LBE3280:
	.loc 1 2941 1529 view .LVU4977
	.loc 1 2941 1584 view .LVU4978
	.loc 1 2941 1595 view .LVU4979
	.loc 1 2941 1708 view .LVU4980
.LBB3281:
.LBB3278:
.LBB3275:
.LBB3273:
.LBB3272:
	.loc 1 2941 1724 view .LVU4981
	.loc 1 2941 1764 view .LVU4982
	.loc 1 2941 1789 view .LVU4983
	.loc 1 2941 3080 view .LVU4984
	.loc 1 2941 3118 view .LVU4985
	.loc 1 2941 3123 view .LVU4986
	.loc 1 2941 3723 view .LVU4987
	.loc 1 2941 0 is_stmt 0 view .LVU4988
	ldr	r3, .L356+8
.LVL615:
.L355:
	.loc 1 2941 0 view .LVU4989
.LBE3272:
.LBE3273:
.LBE3275:
.LBE3278:
.LBE3281:
.LBB3282:
.LBB3283:
.LBB3284:
.LBB3285:
.LBB3286:
	.loc 1 2946 0 view .LVU4990
	str	r3, [r7, #20]
	.loc 1 2946 3148 is_stmt 1 view .LVU4991
	.loc 1 2946 8 view .LVU4992
.LVL616:
	.loc 1 2946 31 view .LVU4993
	.loc 1 2946 31 is_stmt 0 view .LVU4994
.LBE3286:
	.loc 1 2946 130 is_stmt 1 view .LVU4995
	.loc 1 2946 6 view .LVU4996
	.loc 1 2946 29 view .LVU4997
	.loc 1 2946 53 view .LVU4998
	.loc 1 2946 81 view .LVU4999
.LBE3285:
.LBE3284:
.LBE3283:
.LBE3282:
	.loc 1 2946 7 view .LVU5000
	.loc 1 2946 46 view .LVU5001
	.loc 1 2946 51 view .LVU5002
	.loc 1 2946 81 view .LVU5003
	.loc 1 2946 148 view .LVU5004
	.loc 1 2946 153 view .LVU5005
	.loc 1 2946 183 view .LVU5006
.LBB3304:
.LBB3299:
.LBB3295:
.LBB3291:
	.loc 1 2946 257 view .LVU5007
	.loc 1 2946 17 view .LVU5008
.LBB3287:
	.loc 1 2946 7 view .LVU5009
	.loc 1 2946 165 view .LVU5010
	.loc 1 2946 167 view .LVU5011
	.loc 1 2946 177 is_stmt 0 view .LVU5012
	movs	r3, #2
.LBE3287:
.LBE3291:
	.loc 1 2946 150 view .LVU5013
	ldr	r0, .L356+4
.LBB3292:
.LBB3288:
	.loc 1 2946 177 view .LVU5014
	str	r3, [r7, #16]
.LVL617:
	.loc 1 2946 177 view .LVU5015
.LBE3288:
.LBE3292:
	.loc 1 2946 27 is_stmt 1 view .LVU5016
	.loc 1 2946 8 view .LVU5017
	.loc 1 2946 148 view .LVU5018
	.loc 1 2946 150 view .LVU5019
	add	r2, r7, #16
	mov	r1, #4224
	bl	z_log_msg_static_create.constprop.0
.LVL618:
.LBE3295:
	.loc 1 2946 108 view .LVU5020
	.loc 1 2946 6 view .LVU5021
.LVL619:
	.loc 1 2946 43 view .LVU5022
.LBE3299:
	.loc 1 2946 7 view .LVU5023
	.loc 1 2946 279 view .LVU5024
	.loc 1 2946 6 view .LVU5025
	.loc 1 2946 19 view .LVU5026
.LBE3304:
	.loc 1 2946 7 view .LVU5027
	.loc 1 2947 4 view .LVU5028
.L331:
	.loc 1 2964 2 view .LVU5029
	ldr	r0, [r4, #80]
	bl	net_buf_unref
.LVL620:
	.loc 1 2965 2 view .LVU5030
	.loc 1 2965 20 is_stmt 0 view .LVU5031
	movs	r3, #0
	str	r3, [r4, #80]
	.loc 1 2967 2 is_stmt 1 view .LVU5032
	.loc 1 2967 9 is_stmt 0 view .LVU5033
	b	.L325
.LVL621:
.L326:
	.loc 1 2907 210 is_stmt 1 discriminator 2 view .LVU5034
	.loc 1 2907 210 is_stmt 0 discriminator 2 view .LVU5035
	adds	r3, r3, #1
.LVL622:
	.loc 1 2907 31 is_stmt 1 discriminator 2 view .LVU5036
	cmp	r3, #14
	bne	.L329
.LVL623:
	.loc 1 2915 4 view .LVU5037
	.loc 1 2915 5 view .LVU5038
	.loc 1 2926 2 view .LVU5039
	.loc 1 2926 22 is_stmt 0 view .LVU5040
	mov	r0, r5
.LVL624:
	.loc 1 2926 22 view .LVU5041
	bl	net_buf_ref
.LVL625:
.LBB3305:
.LBB3306:
.LBB3307:
.LBB3308:
	.loc 1 2929 107 view .LVU5042
	mov	r5, sp
.LVL626:
	.loc 1 2929 107 view .LVU5043
.LBE3308:
.LBE3307:
.LBE3306:
.LBE3305:
	.loc 1 2926 20 view .LVU5044
	str	r0, [r4, #80]
	.loc 1 2928 2 is_stmt 1 view .LVU5045
	.loc 1 2929 3 view .LVU5046
.LBB3329:
	.loc 1 2929 8 view .LVU5047
	.loc 1 2929 57 view .LVU5048
	.loc 1 2929 14 view .LVU5049
	.loc 1 2929 2 view .LVU5050
.LVL627:
	.loc 1 2929 41 view .LVU5051
	.loc 1 2929 176 view .LVU5052
	.loc 1 2929 187 view .LVU5053
	.loc 1 2929 275 view .LVU5054
.LBB3325:
	.loc 1 2929 3 view .LVU5055
	.loc 1 2929 5 view .LVU5056
.LBB3320:
.LBB3316:
	.loc 1 2929 82 is_stmt 0 view .LVU5057
	sub	sp, sp, #32
.LBE3316:
.LBE3320:
	.loc 1 2929 17 view .LVU5058
	ldrb	r3, [r6]	@ zero_extendqisi2
.LVL628:
	.loc 1 2929 3 is_stmt 1 view .LVU5059
.LBB3321:
	.loc 1 2929 8 view .LVU5060
	.loc 1 2929 2 view .LVU5061
.LBE3321:
.LBE3325:
.LBE3329:
	.loc 1 2929 3 view .LVU5062
	.loc 1 2929 12 view .LVU5063
	.loc 1 2929 107 view .LVU5064
	.loc 1 2929 3 view .LVU5065
.LBB3330:
.LBB3326:
.LBB3322:
	.loc 1 2929 12 view .LVU5066
	.loc 1 2929 102 view .LVU5067
	.loc 1 2929 104 view .LVU5068
.LBB3317:
	.loc 1 2929 109 view .LVU5069
	.loc 1 2929 120 view .LVU5070
	.loc 1 2929 209 view .LVU5071
	.loc 1 2929 26 view .LVU5072
.LBE3317:
.LBE3322:
.LBE3326:
.LBE3330:
	.loc 1 2929 3 view .LVU5073
	.loc 1 2929 368 view .LVU5074
	.loc 1 2929 75 view .LVU5075
	.loc 1 2929 2 view .LVU5076
	.loc 1 2929 2 view .LVU5077
	.loc 1 2929 2 view .LVU5078
	.loc 1 2929 38 view .LVU5079
	.loc 1 2929 4 view .LVU5080
	.loc 1 2929 30 view .LVU5081
	.loc 1 2929 56 view .LVU5082
	.loc 1 2929 523 view .LVU5083
	.loc 1 2929 585 view .LVU5084
	.loc 1 2929 1106 view .LVU5085
	.loc 1 2929 1171 view .LVU5086
	.loc 1 2929 1196 view .LVU5087
	.loc 1 2929 1197 view .LVU5088
	.loc 1 2929 1199 view .LVU5089
	.loc 1 2929 1229 view .LVU5090
	.loc 1 2929 1259 view .LVU5091
	.loc 1 2929 1291 view .LVU5092
	.loc 1 2929 1323 view .LVU5093
	.loc 1 2929 1355 view .LVU5094
	.loc 1 2929 1552 view .LVU5095
	.loc 1 2929 1576 view .LVU5096
	.loc 1 2929 1577 view .LVU5097
	.loc 1 2929 1579 view .LVU5098
	.loc 1 2929 1608 view .LVU5099
	.loc 1 2929 1637 view .LVU5100
	.loc 1 2929 1668 view .LVU5101
	.loc 1 2929 1699 view .LVU5102
	.loc 1 2929 1730 view .LVU5103
	.loc 1 2929 1937 view .LVU5104
	.loc 1 2929 4 view .LVU5105
	.loc 1 2929 22 view .LVU5106
	.loc 1 2929 42 view .LVU5107
	.loc 1 2929 4 view .LVU5108
	.loc 1 2929 42 view .LVU5109
	.loc 1 2929 13 view .LVU5110
	.loc 1 2929 13 view .LVU5111
	.loc 1 2929 61 view .LVU5112
	.loc 1 2929 92 view .LVU5113
	.loc 1 2929 126 view .LVU5114
	.loc 1 2929 131 view .LVU5115
	.loc 1 2929 380 view .LVU5116
	.loc 1 2929 1429 view .LVU5117
	.loc 1 2929 1494 view .LVU5118
	.loc 1 2929 1518 view .LVU5119
	.loc 1 2929 1571 view .LVU5120
	.loc 1 2929 1582 view .LVU5121
	.loc 1 2929 1693 view .LVU5122
	.loc 1 2929 1709 view .LVU5123
	.loc 1 2929 1749 view .LVU5124
	.loc 1 2929 1774 view .LVU5125
	.loc 1 2929 3061 view .LVU5126
	.loc 1 2929 3102 view .LVU5127
	.loc 1 2929 7 view .LVU5128
	.loc 1 2929 30 view .LVU5129
	.loc 1 2929 129 view .LVU5130
	.loc 1 2929 6 view .LVU5131
	.loc 1 2929 11 view .LVU5132
	.loc 1 2929 236 view .LVU5133
	.loc 1 2929 1189 view .LVU5134
	.loc 1 2929 1254 view .LVU5135
	.loc 1 2929 1278 view .LVU5136
	.loc 1 2929 1307 view .LVU5137
	.loc 1 2929 1318 view .LVU5138
	.loc 1 2929 1405 view .LVU5139
	.loc 1 2929 1421 view .LVU5140
	.loc 1 2929 1461 view .LVU5141
	.loc 1 2929 2725 view .LVU5142
	.loc 1 2929 2766 view .LVU5143
	.loc 1 2929 7 view .LVU5144
	.loc 1 2929 30 view .LVU5145
	.loc 1 2929 9 view .LVU5146
	.loc 1 2929 5 view .LVU5147
	.loc 1 2929 28 view .LVU5148
	.loc 1 2929 52 view .LVU5149
	.loc 1 2929 80 view .LVU5150
	.loc 1 2929 256 view .LVU5151
	.loc 1 2929 16 view .LVU5152
.LBB3331:
.LBB3327:
.LBB3323:
.LBB3318:
	.loc 1 2929 29 view .LVU5153
	.loc 1 2929 3 view .LVU5154
	.loc 1 2929 3 view .LVU5155
	.loc 1 2929 70 view .LVU5156
	.loc 1 2929 82 is_stmt 0 view .LVU5157
	mov	r2, sp
.LVL629:
	.loc 1 2929 74 is_stmt 1 view .LVU5158
	.loc 1 2929 484 view .LVU5159
	.loc 1 2929 5 view .LVU5160
	.loc 1 2929 7 view .LVU5161
	.loc 1 2929 12 view .LVU5162
	.loc 1 2929 10 view .LVU5163
	.loc 1 2929 5 view .LVU5164
	.loc 1 2929 23 view .LVU5165
.LBB3309:
	.loc 1 2929 3 view .LVU5166
	.loc 1 2929 368 view .LVU5167
	.loc 1 2929 75 view .LVU5168
.LVL630:
	.loc 1 2929 2 view .LVU5169
	.loc 1 2929 2 view .LVU5170
	.loc 1 2929 2 view .LVU5171
	.loc 1 2929 38 view .LVU5172
	.loc 1 2929 67 view .LVU5173
	.loc 1 2929 93 view .LVU5174
	.loc 1 2929 119 view .LVU5175
	.loc 1 2929 586 view .LVU5176
	.loc 1 2929 648 view .LVU5177
	.loc 1 2929 1169 view .LVU5178
	.loc 1 2929 1234 view .LVU5179
	.loc 1 2929 1259 view .LVU5180
	.loc 1 2929 1260 view .LVU5181
	.loc 1 2929 1262 view .LVU5182
	.loc 1 2929 1292 view .LVU5183
	.loc 1 2929 1322 view .LVU5184
	.loc 1 2929 1354 view .LVU5185
	.loc 1 2929 1386 view .LVU5186
	.loc 1 2929 1418 view .LVU5187
	.loc 1 2929 1615 view .LVU5188
	.loc 1 2929 1639 view .LVU5189
	.loc 1 2929 1640 view .LVU5190
	.loc 1 2929 1642 view .LVU5191
	.loc 1 2929 1671 view .LVU5192
	.loc 1 2929 1700 view .LVU5193
	.loc 1 2929 1731 view .LVU5194
	.loc 1 2929 1762 view .LVU5195
	.loc 1 2929 1793 view .LVU5196
	.loc 1 2929 2000 view .LVU5197
.LBB3310:
	.loc 1 2929 3099 view .LVU5198
	.loc 1 2929 3104 view .LVU5199
	.loc 1 2929 3692 view .LVU5200
	.loc 1 2929 0 is_stmt 0 view .LVU5201
	ldr	r1, .L356+12
.LBE3310:
.LBE3309:
	.loc 1 2929 149 view .LVU5202
	ldr	r0, .L356+4
.LBB3314:
.LBB3311:
	.loc 1 2929 3811 view .LVU5203
	strd	r1, r3, [r2, #20]
	.loc 1 2929 2766 is_stmt 1 view .LVU5204
	.loc 1 2929 7 view .LVU5205
.LVL631:
	.loc 1 2929 30 view .LVU5206
	.loc 1 2929 30 is_stmt 0 view .LVU5207
.LBE3311:
	.loc 1 2929 9 is_stmt 1 view .LVU5208
	.loc 1 2929 5 view .LVU5209
	.loc 1 2929 28 view .LVU5210
	.loc 1 2929 52 view .LVU5211
	.loc 1 2929 80 view .LVU5212
	.loc 1 2929 256 view .LVU5213
	.loc 1 2929 16 view .LVU5214
.LBB3312:
	.loc 1 2929 6 view .LVU5215
	.loc 1 2929 164 view .LVU5216
	.loc 1 2929 166 view .LVU5217
	.loc 1 2929 176 is_stmt 0 view .LVU5218
	movs	r3, #3
.LVL632:
	.loc 1 2929 176 view .LVU5219
.LBE3312:
.LBE3314:
	.loc 1 2929 149 view .LVU5220
	mov	r1, #6272
.LBB3315:
.LBB3313:
	.loc 1 2929 176 view .LVU5221
	str	r3, [r2, #16]!
.LVL633:
	.loc 1 2929 176 view .LVU5222
.LBE3313:
.LBE3315:
	.loc 1 2929 26 is_stmt 1 view .LVU5223
	.loc 1 2929 7 view .LVU5224
	.loc 1 2929 147 view .LVU5225
	.loc 1 2929 149 view .LVU5226
	bl	z_log_msg_static_create.constprop.0
.LVL634:
	.loc 1 2929 149 is_stmt 0 view .LVU5227
.LBE3318:
.LBE3323:
.LBE3327:
.LBE3331:
	.loc 1 2930 7 view .LVU5228
	ldrb	r1, [r6]	@ zero_extendqisi2
.LBB3332:
.LBB3328:
.LBB3324:
.LBB3319:
	mov	sp, r5
.LVL635:
	.loc 1 2930 7 view .LVU5229
.LBE3319:
	.loc 1 2929 107 is_stmt 1 view .LVU5230
	.loc 1 2929 5 view .LVU5231
	.loc 1 2929 42 view .LVU5232
.LBE3324:
	.loc 1 2929 6 view .LVU5233
.LBE3328:
	.loc 1 2929 278 view .LVU5234
	.loc 1 2929 5 view .LVU5235
	.loc 1 2929 18 view .LVU5236
.LBE3332:
	.loc 1 2929 6 view .LVU5237
	.loc 1 2930 3 view .LVU5238
	.loc 1 2930 7 is_stmt 0 view .LVU5239
	mov	r0, r1
	bl	att_op_get_type
.LVL636:
	.loc 1 2930 6 view .LVU5240
	cmp	r0, #0
	beq	.L331
	.loc 1 2930 49 discriminator 1 view .LVU5241
	cmp	r0, #5
	beq	.L331
	.loc 1 2932 4 is_stmt 1 view .LVU5242
	movs	r3, #6
	movs	r2, #0
.LVL637:
.L354:
	.loc 1 2960 3 is_stmt 0 discriminator 335 view .LVU5243
	mov	r0, r8
	bl	send_err_rsp
.LVL638:
	b	.L331
.LVL639:
.L353:
	.loc 1 2943 10 is_stmt 1 view .LVU5244
	.loc 1 2943 13 is_stmt 0 view .LVU5245
	cmp	r9, #5
	bne	.L333
	.loc 1 2944 7 discriminator 1 view .LVU5246
	movs	r1, #1
	add	r0, r4, #48
	bl	atomic_test_and_set_bit
.LVL640:
	.loc 1 2943 46 discriminator 1 view .LVU5247
	cbz	r0, .L333
	.loc 1 2946 4 is_stmt 1 view .LVU5248
.LBB3333:
	.loc 1 2946 9 view .LVU5249
	.loc 1 2946 58 view .LVU5250
	.loc 1 2946 15 view .LVU5251
	.loc 1 2946 3 view .LVU5252
.LVL641:
	.loc 1 2946 42 view .LVU5253
	.loc 1 2946 177 view .LVU5254
	.loc 1 2946 188 view .LVU5255
	.loc 1 2946 276 view .LVU5256
	.loc 1 2946 4 view .LVU5257
	.loc 1 2946 4 view .LVU5258
.LBB3300:
	.loc 1 2946 9 view .LVU5259
	.loc 1 2946 3 view .LVU5260
.LBE3300:
.LBE3333:
	.loc 1 2946 4 view .LVU5261
	.loc 1 2946 13 view .LVU5262
	.loc 1 2946 108 view .LVU5263
	.loc 1 2946 4 view .LVU5264
.LBB3334:
.LBB3301:
	.loc 1 2946 13 view .LVU5265
	.loc 1 2946 103 view .LVU5266
	.loc 1 2946 105 view .LVU5267
.LBB3296:
	.loc 1 2946 110 view .LVU5268
	.loc 1 2946 121 view .LVU5269
	.loc 1 2946 210 view .LVU5270
	.loc 1 2946 27 view .LVU5271
.LBE3296:
.LBE3301:
.LBE3334:
	.loc 1 2946 4 view .LVU5272
	.loc 1 2946 369 view .LVU5273
	.loc 1 2946 76 view .LVU5274
	.loc 1 2946 3 view .LVU5275
	.loc 1 2946 3 view .LVU5276
	.loc 1 2946 3 view .LVU5277
	.loc 1 2946 39 view .LVU5278
	.loc 1 2946 5 view .LVU5279
	.loc 1 2946 31 view .LVU5280
	.loc 1 2946 57 view .LVU5281
	.loc 1 2946 80 view .LVU5282
	.loc 1 2946 142 view .LVU5283
	.loc 1 2946 199 view .LVU5284
	.loc 1 2946 264 view .LVU5285
	.loc 1 2946 289 view .LVU5286
	.loc 1 2946 290 view .LVU5287
	.loc 1 2946 292 view .LVU5288
	.loc 1 2946 322 view .LVU5289
	.loc 1 2946 352 view .LVU5290
	.loc 1 2946 384 view .LVU5291
	.loc 1 2946 416 view .LVU5292
	.loc 1 2946 448 view .LVU5293
	.loc 1 2946 645 view .LVU5294
	.loc 1 2946 669 view .LVU5295
	.loc 1 2946 670 view .LVU5296
	.loc 1 2946 672 view .LVU5297
	.loc 1 2946 701 view .LVU5298
	.loc 1 2946 730 view .LVU5299
	.loc 1 2946 761 view .LVU5300
	.loc 1 2946 792 view .LVU5301
	.loc 1 2946 823 view .LVU5302
	.loc 1 2946 1030 view .LVU5303
	.loc 1 2946 5 view .LVU5304
	.loc 1 2946 23 view .LVU5305
	.loc 1 2946 43 view .LVU5306
	.loc 1 2946 5 view .LVU5307
	.loc 1 2946 43 view .LVU5308
	.loc 1 2946 14 view .LVU5309
	.loc 1 2946 14 view .LVU5310
	.loc 1 2946 62 view .LVU5311
	.loc 1 2946 93 view .LVU5312
	.loc 1 2946 127 view .LVU5313
	.loc 1 2946 132 view .LVU5314
	.loc 1 2946 386 view .LVU5315
	.loc 1 2946 1455 view .LVU5316
	.loc 1 2946 1520 view .LVU5317
	.loc 1 2946 1544 view .LVU5318
	.loc 1 2946 1602 view .LVU5319
	.loc 1 2946 1613 view .LVU5320
	.loc 1 2946 1729 view .LVU5321
	.loc 1 2946 1745 view .LVU5322
	.loc 1 2946 1785 view .LVU5323
	.loc 1 2946 1810 view .LVU5324
	.loc 1 2946 3107 view .LVU5325
	.loc 1 2946 3148 view .LVU5326
	.loc 1 2946 8 view .LVU5327
	.loc 1 2946 31 view .LVU5328
	.loc 1 2946 130 view .LVU5329
	.loc 1 2946 6 view .LVU5330
	.loc 1 2946 29 view .LVU5331
	.loc 1 2946 53 view .LVU5332
	.loc 1 2946 81 view .LVU5333
	.loc 1 2946 257 view .LVU5334
	.loc 1 2946 17 view .LVU5335
.LBB3335:
.LBB3302:
.LBB3297:
	.loc 1 2946 30 view .LVU5336
	.loc 1 2946 4 view .LVU5337
	.loc 1 2946 4 view .LVU5338
	.loc 1 2946 71 view .LVU5339
	.loc 1 2946 75 view .LVU5340
	.loc 1 2946 485 view .LVU5341
	.loc 1 2946 6 view .LVU5342
	.loc 1 2946 8 view .LVU5343
	.loc 1 2946 13 view .LVU5344
	.loc 1 2946 11 view .LVU5345
	.loc 1 2946 6 view .LVU5346
	.loc 1 2946 24 view .LVU5347
.LBB3293:
	.loc 1 2946 4 view .LVU5348
	.loc 1 2946 369 view .LVU5349
	.loc 1 2946 76 view .LVU5350
.LVL642:
	.loc 1 2946 3 view .LVU5351
	.loc 1 2946 3 view .LVU5352
	.loc 1 2946 3 view .LVU5353
	.loc 1 2946 39 view .LVU5354
	.loc 1 2946 68 view .LVU5355
	.loc 1 2946 94 view .LVU5356
	.loc 1 2946 120 view .LVU5357
	.loc 1 2946 143 view .LVU5358
	.loc 1 2946 205 view .LVU5359
	.loc 1 2946 262 view .LVU5360
	.loc 1 2946 327 view .LVU5361
	.loc 1 2946 352 view .LVU5362
	.loc 1 2946 353 view .LVU5363
	.loc 1 2946 355 view .LVU5364
	.loc 1 2946 385 view .LVU5365
	.loc 1 2946 415 view .LVU5366
	.loc 1 2946 447 view .LVU5367
	.loc 1 2946 479 view .LVU5368
	.loc 1 2946 511 view .LVU5369
	.loc 1 2946 708 view .LVU5370
	.loc 1 2946 732 view .LVU5371
	.loc 1 2946 733 view .LVU5372
	.loc 1 2946 735 view .LVU5373
	.loc 1 2946 764 view .LVU5374
	.loc 1 2946 793 view .LVU5375
	.loc 1 2946 824 view .LVU5376
	.loc 1 2946 855 view .LVU5377
	.loc 1 2946 886 view .LVU5378
	.loc 1 2946 1093 view .LVU5379
	.loc 1 2946 5 view .LVU5380
	.loc 1 2946 23 view .LVU5381
	.loc 1 2946 43 view .LVU5382
	.loc 1 2946 5 view .LVU5383
	.loc 1 2946 43 view .LVU5384
	.loc 1 2946 14 view .LVU5385
	.loc 1 2946 14 view .LVU5386
	.loc 1 2946 62 view .LVU5387
	.loc 1 2946 93 view .LVU5388
	.loc 1 2946 127 view .LVU5389
.LBB3289:
	.loc 1 2946 132 view .LVU5390
	.loc 1 2946 386 view .LVU5391
	.loc 1 2946 1455 view .LVU5392
	.loc 1 2946 1520 view .LVU5393
.LBE3289:
.LBE3293:
.LBE3297:
.LBE3302:
.LBE3335:
	.loc 1 2946 1544 view .LVU5394
	.loc 1 2946 1602 view .LVU5395
	.loc 1 2946 1613 view .LVU5396
	.loc 1 2946 1729 view .LVU5397
.LBB3336:
.LBB3303:
.LBB3298:
.LBB3294:
.LBB3290:
	.loc 1 2946 1745 view .LVU5398
	.loc 1 2946 1785 view .LVU5399
	.loc 1 2946 1810 view .LVU5400
	.loc 1 2946 3107 view .LVU5401
	.loc 1 2946 3145 view .LVU5402
	.loc 1 2946 3150 view .LVU5403
	.loc 1 2946 3768 view .LVU5404
	.loc 1 2946 0 is_stmt 0 view .LVU5405
	ldr	r3, .L356+16
	b	.L355
.LVL643:
.L333:
	.loc 1 2946 0 view .LVU5406
.LBE3290:
.LBE3294:
.LBE3298:
.LBE3303:
.LBE3336:
	.loc 1 2951 2 is_stmt 1 view .LVU5407
	.loc 1 2951 24 is_stmt 0 view .LVU5408
	add	r10, r10, fp
	.loc 1 2951 9 view .LVU5409
	ldrh	r3, [r5, #16]
	.loc 1 2951 5 view .LVU5410
	ldrb	r2, [r10, #1]	@ zero_extendqisi2
	cmp	r2, r3
	bls	.L334
	.loc 1 2952 3 is_stmt 1 view .LVU5411
.LBB3337:
	.loc 1 2952 8 view .LVU5412
	.loc 1 2952 57 view .LVU5413
	.loc 1 2952 14 view .LVU5414
	.loc 1 2952 2 view .LVU5415
.LVL644:
	.loc 1 2952 41 view .LVU5416
	.loc 1 2952 176 view .LVU5417
	.loc 1 2952 187 view .LVU5418
	.loc 1 2952 275 view .LVU5419
.LBB3338:
	.loc 1 2952 3 view .LVU5420
	.loc 1 2952 5 view .LVU5421
	.loc 1 2952 40 view .LVU5422
.LBB3339:
.LBB3340:
	.loc 1 2952 107 is_stmt 0 view .LVU5423
	mov	r9, sp
	.loc 1 2952 82 view .LVU5424
	sub	sp, sp, #32
.LBE3340:
.LBE3339:
	.loc 1 2952 52 view .LVU5425
	ldrb	r1, [r6]	@ zero_extendqisi2
.LVL645:
	.loc 1 2952 3 is_stmt 1 view .LVU5426
.LBB3358:
	.loc 1 2952 8 view .LVU5427
	.loc 1 2952 2 view .LVU5428
.LBE3358:
.LBE3338:
.LBE3337:
	.loc 1 2952 3 view .LVU5429
	.loc 1 2952 12 view .LVU5430
	.loc 1 2952 107 view .LVU5431
	.loc 1 2952 3 view .LVU5432
.LBB3368:
.LBB3364:
.LBB3359:
	.loc 1 2952 12 view .LVU5433
	.loc 1 2952 102 view .LVU5434
	.loc 1 2952 104 view .LVU5435
.LBB3353:
	.loc 1 2952 109 view .LVU5436
	.loc 1 2952 120 view .LVU5437
	.loc 1 2952 209 view .LVU5438
	.loc 1 2952 26 view .LVU5439
.LBE3353:
.LBE3359:
.LBE3364:
.LBE3368:
	.loc 1 2952 3 view .LVU5440
	.loc 1 2952 368 view .LVU5441
	.loc 1 2952 75 view .LVU5442
	.loc 1 2952 2 view .LVU5443
	.loc 1 2952 2 view .LVU5444
	.loc 1 2952 2 view .LVU5445
	.loc 1 2952 38 view .LVU5446
	.loc 1 2952 4 view .LVU5447
	.loc 1 2952 30 view .LVU5448
	.loc 1 2952 56 view .LVU5449
	.loc 1 2952 969 view .LVU5450
	.loc 1 2952 1031 view .LVU5451
	.loc 1 2952 2018 view .LVU5452
	.loc 1 2952 2083 view .LVU5453
	.loc 1 2952 2108 view .LVU5454
	.loc 1 2952 2109 view .LVU5455
	.loc 1 2952 2111 view .LVU5456
	.loc 1 2952 2141 view .LVU5457
	.loc 1 2952 2171 view .LVU5458
	.loc 1 2952 2203 view .LVU5459
	.loc 1 2952 2235 view .LVU5460
	.loc 1 2952 2267 view .LVU5461
	.loc 1 2952 2464 view .LVU5462
	.loc 1 2952 2488 view .LVU5463
	.loc 1 2952 2489 view .LVU5464
	.loc 1 2952 2491 view .LVU5465
	.loc 1 2952 2520 view .LVU5466
	.loc 1 2952 2549 view .LVU5467
	.loc 1 2952 2580 view .LVU5468
	.loc 1 2952 2611 view .LVU5469
	.loc 1 2952 2642 view .LVU5470
	.loc 1 2952 2849 view .LVU5471
	.loc 1 2952 4 view .LVU5472
	.loc 1 2952 22 view .LVU5473
	.loc 1 2952 42 view .LVU5474
	.loc 1 2952 4 view .LVU5475
	.loc 1 2952 42 view .LVU5476
	.loc 1 2952 13 view .LVU5477
	.loc 1 2952 13 view .LVU5478
	.loc 1 2952 61 view .LVU5479
	.loc 1 2952 92 view .LVU5480
	.loc 1 2952 126 view .LVU5481
	.loc 1 2952 131 view .LVU5482
	.loc 1 2952 385 view .LVU5483
	.loc 1 2952 1454 view .LVU5484
	.loc 1 2952 1519 view .LVU5485
	.loc 1 2952 1543 view .LVU5486
	.loc 1 2952 1601 view .LVU5487
	.loc 1 2952 1612 view .LVU5488
	.loc 1 2952 1728 view .LVU5489
	.loc 1 2952 1744 view .LVU5490
	.loc 1 2952 1784 view .LVU5491
	.loc 1 2952 1809 view .LVU5492
	.loc 1 2952 3106 view .LVU5493
	.loc 1 2952 3147 view .LVU5494
	.loc 1 2952 7 view .LVU5495
	.loc 1 2952 30 view .LVU5496
	.loc 1 2952 129 view .LVU5497
	.loc 1 2952 6 view .LVU5498
	.loc 1 2952 11 view .LVU5499
	.loc 1 2952 236 view .LVU5500
	.loc 1 2952 1189 view .LVU5501
	.loc 1 2952 1254 view .LVU5502
	.loc 1 2952 1278 view .LVU5503
	.loc 1 2952 1307 view .LVU5504
	.loc 1 2952 1318 view .LVU5505
	.loc 1 2952 1405 view .LVU5506
	.loc 1 2952 1421 view .LVU5507
	.loc 1 2952 1461 view .LVU5508
	.loc 1 2952 2725 view .LVU5509
	.loc 1 2952 2766 view .LVU5510
	.loc 1 2952 7 view .LVU5511
	.loc 1 2952 30 view .LVU5512
	.loc 1 2952 9 view .LVU5513
	.loc 1 2952 6 view .LVU5514
	.loc 1 2952 11 view .LVU5515
	.loc 1 2952 236 view .LVU5516
	.loc 1 2952 1189 view .LVU5517
	.loc 1 2952 1254 view .LVU5518
	.loc 1 2952 1278 view .LVU5519
	.loc 1 2952 1307 view .LVU5520
	.loc 1 2952 1318 view .LVU5521
	.loc 1 2952 1405 view .LVU5522
	.loc 1 2952 1421 view .LVU5523
	.loc 1 2952 1461 view .LVU5524
	.loc 1 2952 2725 view .LVU5525
	.loc 1 2952 2766 view .LVU5526
	.loc 1 2952 7 view .LVU5527
	.loc 1 2952 30 view .LVU5528
	.loc 1 2952 9 view .LVU5529
	.loc 1 2952 5 view .LVU5530
	.loc 1 2952 28 view .LVU5531
	.loc 1 2952 52 view .LVU5532
	.loc 1 2952 80 view .LVU5533
	.loc 1 2952 256 view .LVU5534
	.loc 1 2952 16 view .LVU5535
.LBB3369:
.LBB3365:
.LBB3360:
.LBB3354:
	.loc 1 2952 29 view .LVU5536
	.loc 1 2952 3 view .LVU5537
	.loc 1 2952 3 view .LVU5538
	.loc 1 2952 70 view .LVU5539
	.loc 1 2952 82 is_stmt 0 view .LVU5540
	mov	r2, sp
.LVL646:
	.loc 1 2952 74 is_stmt 1 view .LVU5541
	.loc 1 2952 484 view .LVU5542
	.loc 1 2952 5 view .LVU5543
	.loc 1 2952 7 view .LVU5544
	.loc 1 2952 12 view .LVU5545
	.loc 1 2952 10 view .LVU5546
	.loc 1 2952 5 view .LVU5547
	.loc 1 2952 23 view .LVU5548
.LBB3341:
	.loc 1 2952 3 view .LVU5549
	.loc 1 2952 368 view .LVU5550
	.loc 1 2952 75 view .LVU5551
.LVL647:
	.loc 1 2952 2 view .LVU5552
	.loc 1 2952 2 view .LVU5553
	.loc 1 2952 2 view .LVU5554
	.loc 1 2952 38 view .LVU5555
	.loc 1 2952 67 view .LVU5556
	.loc 1 2952 93 view .LVU5557
	.loc 1 2952 119 view .LVU5558
	.loc 1 2952 1032 view .LVU5559
	.loc 1 2952 1094 view .LVU5560
	.loc 1 2952 2081 view .LVU5561
	.loc 1 2952 2146 view .LVU5562
	.loc 1 2952 2171 view .LVU5563
	.loc 1 2952 2172 view .LVU5564
	.loc 1 2952 2174 view .LVU5565
	.loc 1 2952 2204 view .LVU5566
	.loc 1 2952 2234 view .LVU5567
	.loc 1 2952 2266 view .LVU5568
	.loc 1 2952 2298 view .LVU5569
	.loc 1 2952 2330 view .LVU5570
	.loc 1 2952 2527 view .LVU5571
	.loc 1 2952 2551 view .LVU5572
	.loc 1 2952 2552 view .LVU5573
	.loc 1 2952 2554 view .LVU5574
	.loc 1 2952 2583 view .LVU5575
	.loc 1 2952 2612 view .LVU5576
	.loc 1 2952 2643 view .LVU5577
	.loc 1 2952 2674 view .LVU5578
	.loc 1 2952 2705 view .LVU5579
	.loc 1 2952 2912 view .LVU5580
.LBB3342:
	.loc 1 2952 3144 view .LVU5581
	.loc 1 2952 3149 view .LVU5582
	.loc 1 2952 3767 view .LVU5583
	.loc 1 2952 0 is_stmt 0 view .LVU5584
	ldr	r0, .L356+20
.LBE3342:
.LBB3343:
	.loc 1 2952 3811 view .LVU5585
	str	r1, [r2, #28]
.LBE3343:
.LBB3344:
	.loc 1 2952 176 view .LVU5586
	movs	r5, #4
.LVL648:
	.loc 1 2952 176 view .LVU5587
.LBE3344:
.LBE3341:
.LBE3354:
.LBE3360:
	.loc 1 2952 17 view .LVU5588
	strd	r0, r3, [r2, #20]
.LBB3361:
.LBB3355:
.LBB3350:
.LBB3345:
	.loc 1 2952 2766 is_stmt 1 view .LVU5589
	.loc 1 2952 7 view .LVU5590
.LVL649:
	.loc 1 2952 30 view .LVU5591
	.loc 1 2952 30 is_stmt 0 view .LVU5592
.LBE3345:
	.loc 1 2952 9 is_stmt 1 view .LVU5593
	.loc 1 2952 6 view .LVU5594
.LBB3346:
	.loc 1 2952 11 view .LVU5595
	.loc 1 2952 236 view .LVU5596
	.loc 1 2952 1189 view .LVU5597
	.loc 1 2952 1254 view .LVU5598
.LBE3346:
.LBE3350:
.LBE3355:
.LBE3361:
.LBE3365:
.LBE3369:
	.loc 1 2952 1278 view .LVU5599
	.loc 1 2952 1307 view .LVU5600
	.loc 1 2952 1318 view .LVU5601
	.loc 1 2952 1405 view .LVU5602
.LBB3370:
.LBB3366:
.LBB3362:
.LBB3356:
.LBB3351:
.LBB3347:
	.loc 1 2952 1421 view .LVU5603
	.loc 1 2952 1461 view .LVU5604
	.loc 1 2952 2725 view .LVU5605
	.loc 1 2952 2763 view .LVU5606
	.loc 1 2952 2768 view .LVU5607
	.loc 1 2952 3212 view .LVU5608
	.loc 1 2952 2766 view .LVU5609
	.loc 1 2952 7 view .LVU5610
	.loc 1 2952 30 view .LVU5611
	.loc 1 2952 30 is_stmt 0 view .LVU5612
.LBE3347:
	.loc 1 2952 9 is_stmt 1 view .LVU5613
	.loc 1 2952 5 view .LVU5614
	.loc 1 2952 28 view .LVU5615
	.loc 1 2952 52 view .LVU5616
	.loc 1 2952 80 view .LVU5617
	.loc 1 2952 256 view .LVU5618
	.loc 1 2952 16 view .LVU5619
.LBB3348:
	.loc 1 2952 6 view .LVU5620
	.loc 1 2952 164 view .LVU5621
	.loc 1 2952 166 view .LVU5622
.LBE3348:
.LBE3351:
	.loc 1 2952 149 is_stmt 0 view .LVU5623
	mov	r1, #8256
.LVL650:
.LBB3352:
.LBB3349:
	.loc 1 2952 176 view .LVU5624
	str	r5, [r2, #16]!
.LVL651:
	.loc 1 2952 176 view .LVU5625
.LBE3349:
.LBE3352:
	.loc 1 2952 26 is_stmt 1 view .LVU5626
	.loc 1 2952 7 view .LVU5627
	.loc 1 2952 147 view .LVU5628
	.loc 1 2952 149 view .LVU5629
	ldr	r0, .L356+4
	bl	z_log_msg_static_create.constprop.0
.LVL652:
	.loc 1 2952 149 is_stmt 0 view .LVU5630
.LBE3356:
.LBE3362:
.LBE3366:
.LBE3370:
	.loc 1 2958 5 view .LVU5631
	ldrb	r3, [r10, #2]	@ zero_extendqisi2
	cmp	r3, #1
.LBB3371:
.LBB3367:
.LBB3363:
.LBB3357:
	mov	sp, r9
.LVL653:
	.loc 1 2958 5 view .LVU5632
.LBE3357:
