	.cpu cortex-m4
	.arch armv7e-m
	.fpu fpv4-sp-d16
	.eabi_attribute 27, 1
	.eabi_attribute 28, 1
	.eabi_attribute 20, 1
	.eabi_attribute 21, 1
	.eabi_attribute 23, 3
	.eabi_attribute 24, 1
	.eabi_attribute 25, 1
	.eabi_attribute 26, 1
	.eabi_attribute 30, 4
	.eabi_attribute 34, 1
	.eabi_attribute 38, 1
	.eabi_attribute 18, 4
	.file	"conn.c"
	.text
.Ltext0:
	.cfi_sections	.debug_frame
	.file 1 "/home/g/mise-work/zmk-firmware/zmk/zephyr/subsys/bluetooth/host/conn.c"
	.section	.text.sys_slist_find_and_remove,"ax",%progbits
	.align	1
	.syntax unified
	.thumb
	.thumb_func
	.type	sys_slist_find_and_remove, %function
sys_slist_find_and_remove:
.LVL0:
.LFB71:
	.file 2 "/home/g/mise-work/zmk-firmware/zmk/zephyr/include/zephyr/sys/slist.h"
	.loc 2 435 65 view -0
	.cfi_startproc
	@ args = 0, pretend = 0, frame = 0
	@ frame_needed = 0, uses_anonymous_args = 0
	@ link register save eliminated.
	.loc 2 435 67 view .LVU1
	.loc 2 435 3 view .LVU2
	.loc 2 435 22 view .LVU3
.LBB1471:
.LBI1471:
	.loc 2 238 28 view .LVU4
.LBB1472:
	.loc 2 240 2 view .LVU5
	.loc 2 240 13 is_stmt 0 view .LVU6
	ldr	r3, [r0]
.LVL1:
	.loc 2 240 13 view .LVU7
.LBE1472:
.LBE1471:
	.loc 2 435 80 view .LVU8
	movs	r2, #0
.LVL2:
.L2:
	.loc 2 435 66 is_stmt 1 discriminator 4 view .LVU9
	cbnz	r3, .L9
	.loc 2 435 1 is_stmt 0 view .LVU10
	mov	r0, r3
.LVL3:
	.loc 2 435 3 view .LVU11
	bx	lr
.LVL4:
.L9:
	.loc 2 435 39 is_stmt 1 discriminator 5 view .LVU12
	.loc 2 435 42 is_stmt 0 discriminator 5 view .LVU13
	cmp	r3, r1
	bne	.L3
	.loc 2 435 59 is_stmt 1 discriminator 2 view .LVU14
.LVL5:
.LBB1473:
.LBI1473:
	.loc 2 408 20 discriminator 2 view .LVU15
.LBB1474:
	.loc 2 408 101 discriminator 2 view .LVU16
.LBB1475:
.LBB1476:
	.loc 2 213 13 is_stmt 0 discriminator 2 view .LVU17
	ldr	r3, [r1]
.LVL6:
	.loc 2 213 13 discriminator 2 view .LVU18
.LBE1476:
.LBE1475:
	.loc 2 408 104 discriminator 2 view .LVU19
	cbnz	r2, .L4
	.loc 2 408 5 is_stmt 1 view .LVU20
.LVL7:
.LBB1478:
.LBI1475:
	.loc 2 211 28 view .LVU21
.LBB1477:
	.loc 2 213 2 view .LVU22
	.loc 2 213 2 is_stmt 0 view .LVU23
.LBE1477:
.LBE1478:
.LBB1479:
.LBI1479:
	.loc 2 221 20 is_stmt 1 view .LVU24
.LBB1480:
	.loc 2 223 2 view .LVU25
.LBE1480:
.LBE1479:
	.loc 2 408 57 is_stmt 0 view .LVU26
	ldr	r2, [r0, #4]
.LVL8:
.LBB1482:
.LBB1481:
	.loc 2 223 13 view .LVU27
	str	r3, [r0]
.LVL9:
	.loc 2 223 13 view .LVU28
.LBE1481:
.LBE1482:
	.loc 2 408 54 is_stmt 1 view .LVU29
.LBB1483:
.LBI1483:
	.loc 2 250 28 view .LVU30
.LBB1484:
	.loc 2 252 2 view .LVU31
	.loc 2 252 2 is_stmt 0 view .LVU32
.LBE1484:
.LBE1483:
	.loc 2 408 57 view .LVU33
	cmp	r1, r2
	bne	.L6
	.loc 2 408 95 is_stmt 1 view .LVU34
.LVL10:
.LBB1485:
.LBI1485:
	.loc 2 226 20 view .LVU35
.LBB1486:
	.loc 2 228 2 view .LVU36
	.loc 2 228 13 is_stmt 0 view .LVU37
	str	r3, [r0, #4]
.LVL11:
.L6:
	.loc 2 228 13 view .LVU38
.LBE1486:
.LBE1485:
	.loc 2 408 291 is_stmt 1 view .LVU39
.LBB1487:
.LBI1487:
	.loc 2 216 20 view .LVU40
.LBB1488:
	.loc 2 218 2 view .LVU41
	.loc 2 218 15 is_stmt 0 view .LVU42
	movs	r3, #0
	str	r3, [r1]
.LVL12:
	.loc 2 218 15 view .LVU43
.LBE1488:
.LBE1487:
.LBE1474:
.LBE1473:
	.loc 2 435 1 view .LVU44
	movs	r0, #1
.LVL13:
.LBB1496:
.LBB1495:
	.loc 2 408 4 view .LVU45
	bx	lr
.LVL14:
.L4:
	.loc 2 408 157 is_stmt 1 view .LVU46
.LBB1489:
.LBI1489:
	.loc 2 216 20 view .LVU47
.LBB1490:
	.loc 2 218 2 view .LVU48
	.loc 2 218 15 is_stmt 0 view .LVU49
	str	r3, [r2]
.LVL15:
	.loc 2 218 15 view .LVU50
.LBE1490:
.LBE1489:
	.loc 2 408 211 is_stmt 1 view .LVU51
.LBB1491:
.LBI1491:
	.loc 2 250 28 view .LVU52
.LBB1492:
	.loc 2 252 2 view .LVU53
	.loc 2 252 2 is_stmt 0 view .LVU54
.LBE1492:
.LBE1491:
	.loc 2 408 214 view .LVU55
	ldr	r3, [r0, #4]
	cmp	r1, r3
	.loc 2 408 252 is_stmt 1 view .LVU56
.LVL16:
.LBB1493:
.LBI1493:
	.loc 2 226 20 view .LVU57
.LBB1494:
	.loc 2 228 2 view .LVU58
	.loc 2 228 13 is_stmt 0 view .LVU59
	it	eq
	streq	r2, [r0, #4]
	.loc 2 229 1 view .LVU60
	b	.L6
.LVL17:
.L3:
	.loc 2 229 1 view .LVU61
.LBE1494:
.LBE1493:
.LBE1495:
.LBE1496:
	.loc 2 435 5 is_stmt 1 view .LVU62
	.loc 2 435 8 view .LVU63
.LBB1497:
.LBI1497:
	.loc 2 292 29 view .LVU64
	.loc 2 292 70 view .LVU65
.LBB1498:
.LBI1498:
	.loc 2 281 29 view .LVU66
	.loc 2 281 79 view .LVU67
.LBB1499:
.LBI1499:
	.loc 2 211 28 view .LVU68
.LBB1500:
	.loc 2 213 2 view .LVU69
	.loc 2 213 13 is_stmt 0 view .LVU70
	mov	r2, r3
.LBE1500:
.LBE1499:
.LBE1498:
.LBE1497:
	.loc 2 435 10 view .LVU71
	ldr	r3, [r3]
.LVL18:
	.loc 2 435 10 view .LVU72
	b	.L2
	.cfi_endproc
.LFE71:
	.size	sys_slist_find_and_remove, .-sys_slist_find_and_remove
	.section	.text.notify_connected,"ax",%progbits
	.align	1
	.syntax unified
	.thumb
	.thumb_func
	.type	notify_connected, %function
notify_connected:
.LVL19:
.LFB629:
	.loc 1 1513 1 is_stmt 1 view -0
	.cfi_startproc
	@ args = 0, pretend = 0, frame = 0
	@ frame_needed = 0, uses_anonymous_args = 0
	.loc 1 1514 2 view .LVU74
.LBB1501:
	.loc 1 1514 7 view .LVU75
.LBE1501:
	.loc 1 1513 1 is_stmt 0 view .LVU76
	push	{r4, r5, r6, lr}
	.cfi_def_cfa_offset 16
	.cfi_offset 4, -16
	.cfi_offset 5, -12
	.cfi_offset 6, -8
	.cfi_offset 14, -4
.LBB1502:
	.loc 1 1514 26 view .LVU77
	ldr	r3, .L23
	ldr	r5, [r3]
.LVL20:
	.loc 1 1514 26 view .LVU78
.LBE1502:
	.loc 1 1513 1 view .LVU79
	mov	r4, r0
.LVL21:
.L11:
.LBB1503:
	.loc 1 1514 46 is_stmt 1 discriminator 1 view .LVU80
	cbnz	r5, .L13
	.loc 1 1514 46 is_stmt 0 discriminator 1 view .LVU81
.LBE1503:
.LBB1504:
	.loc 1 1520 127 view .LVU82
	ldr	r5, .L23+4
.LVL22:
	.loc 1 1520 156 view .LVU83
	ldr	r6, .L23+8
.L14:
.LVL23:
	.loc 1 1520 156 is_stmt 1 discriminator 1 view .LVU84
.LBE1504:
	.loc 1 1520 161 discriminator 1 view .LVU85
	.loc 1 1520 162 discriminator 1 view .LVU86
	.loc 1 1520 164 discriminator 1 view .LVU87
.LBB1505:
	.loc 1 1520 156 is_stmt 0 discriminator 1 view .LVU88
	cmp	r5, r6
	bcc	.L16
.LBE1505:
	.loc 1 1525 1 view .LVU89
	pop	{r4, r5, r6, pc}
.LVL24:
.L13:
.LBB1506:
	.loc 1 1515 3 is_stmt 1 view .LVU90
	.loc 1 1515 9 is_stmt 0 view .LVU91
	ldr	r3, [r5]
	.loc 1 1515 6 view .LVU92
	cbz	r3, .L12
	.loc 1 1516 4 is_stmt 1 view .LVU93
	ldrb	r1, [r4, #12]	@ zero_extendqisi2
	mov	r0, r4
	blx	r3
.LVL25:
.L12:
	.loc 1 1514 53 discriminator 2 view .LVU94
	ldr	r5, [r5, #24]
.LVL26:
	.loc 1 1514 53 is_stmt 0 discriminator 2 view .LVU95
	b	.L11
.LVL27:
.L16:
	.loc 1 1514 53 discriminator 2 view .LVU96
.LBE1506:
.LBB1507:
	.loc 1 1521 3 is_stmt 1 view .LVU97
	.loc 1 1521 9 is_stmt 0 view .LVU98
	ldr	r3, [r5]
	.loc 1 1521 6 view .LVU99
	cbz	r3, .L15
	.loc 1 1522 4 is_stmt 1 view .LVU100
	ldrb	r1, [r4, #12]	@ zero_extendqisi2
	mov	r0, r4
	blx	r3
.LVL28:
.L15:
	.loc 1 1520 197 discriminator 2 view .LVU101
	adds	r5, r5, #28
.LVL29:
	.loc 1 1520 197 is_stmt 0 discriminator 2 view .LVU102
	b	.L14
.L24:
	.align	2
.L23:
	.word	callback_list
	.word	_bt_conn_cb_list_start
	.word	_bt_conn_cb_list_end
.LBE1507:
	.cfi_endproc
.LFE629:
	.size	notify_connected, .-notify_connected
	.section	.text.atomic_and,"ax",%progbits
	.align	1
	.syntax unified
	.thumb
	.thumb_func
	.type	atomic_and, %function
atomic_and:
.LVL30:
.LFB14:
	.file 3 "/home/g/mise-work/zmk-firmware/zmk/zephyr/include/zephyr/sys/atomic_builtin.h"
	.loc 3 320 1 is_stmt 1 view -0
	.cfi_startproc
	@ args = 0, pretend = 0, frame = 0
	@ frame_needed = 0, uses_anonymous_args = 0
	.loc 3 321 2 view .LVU104
	.loc 3 320 1 is_stmt 0 view .LVU105
	push	{r4, lr}
	.cfi_def_cfa_offset 8
	.cfi_offset 4, -8
	.cfi_offset 14, -4
	.loc 3 320 1 view .LVU106
	mov	r3, r0
	.loc 3 322 1 view .LVU107
	dmb	ish
.LVL31:
.L26:
	.loc 3 322 1 view .LVU108
	ldrex	r0, [r3]
	and	r2, r0, r1
	strex	r4, r2, [r3]
	cmp	r4, #0
	bne	.L26
	dmb	ish
	pop	{r4, pc}
	.cfi_endproc
.LFE14:
	.size	atomic_and, .-atomic_and
	.section	.text.bt_conn_get_tx_power_level,"ax",%progbits
	.align	1
	.syntax unified
	.thumb
	.thumb_func
	.type	bt_conn_get_tx_power_level, %function
bt_conn_get_tx_power_level:
.LVL32:
.LFB655:
	.loc 1 2594 1 is_stmt 1 view -0
	.cfi_startproc
	@ args = 0, pretend = 0, frame = 8
	@ frame_needed = 0, uses_anonymous_args = 0
	.loc 1 2595 2 view .LVU110
	.loc 1 2596 2 view .LVU111
	.loc 1 2597 2 view .LVU112
	.loc 1 2598 2 view .LVU113
	.loc 1 2599 2 view .LVU114
	.loc 1 2601 2 view .LVU115
	.loc 1 2594 1 is_stmt 0 view .LVU116
	push	{r0, r1, r2, r4, r5, r6, r7, lr}
	.cfi_def_cfa_offset 32
	.cfi_offset 4, -20
	.cfi_offset 5, -16
	.cfi_offset 6, -12
	.cfi_offset 7, -8
	.cfi_offset 14, -4
	.loc 1 2594 1 view .LVU117
	mov	r6, r0
	mov	r7, r1
	.loc 1 2601 8 view .LVU118
	movw	r0, #3117
.LVL33:
	.loc 1 2601 8 view .LVU119
	movs	r1, #3
.LVL34:
	.loc 1 2594 1 view .LVU120
	mov	r5, r2
	.loc 1 2601 8 view .LVU121
	bl	bt_hci_cmd_create
.LVL35:
	.loc 1 2602 2 is_stmt 1 view .LVU122
	.loc 1 2602 5 is_stmt 0 view .LVU123
	mov	r4, r0
	cbz	r0, .L29
	.loc 1 2606 2 is_stmt 1 view .LVU124
.LVL36:
.LBB1508:
.LBI1508:
	.file 4 "/home/g/mise-work/zmk-firmware/zmk/zephyr/include/zephyr/net/buf.h"
	.loc 4 1493 21 view .LVU125
.LBB1509:
	.loc 4 1495 2 view .LVU126
	.loc 4 1495 9 is_stmt 0 view .LVU127
	movs	r1, #3
	adds	r0, r0, #12
.LVL37:
	.loc 4 1495 9 view .LVU128
	bl	net_buf_simple_add
.LVL38:
	.loc 4 1495 9 view .LVU129
.LBE1509:
.LBE1508:
	.loc 1 2607 2 is_stmt 1 view .LVU130
	.loc 1 2607 11 is_stmt 0 view .LVU131
	strb	r7, [r0, #2]
	.loc 1 2608 2 is_stmt 1 view .LVU132
	.loc 1 2608 20 is_stmt 0 view .LVU133
	ldrh	r3, [r6]
	.loc 1 2608 13 view .LVU134
	strh	r3, [r0]	@ unaligned
	.loc 1 2610 2 is_stmt 1 view .LVU135
	.loc 1 2610 8 is_stmt 0 view .LVU136
	mov	r1, r4
	add	r2, sp, #4
	movw	r0, #3117
.LVL39:
	.loc 1 2610 8 view .LVU137
	bl	bt_hci_cmd_send_sync
.LVL40:
	.loc 1 2611 2 is_stmt 1 view .LVU138
	.loc 1 2611 5 is_stmt 0 view .LVU139
	mov	r4, r0
.LVL41:
	.loc 1 2611 5 view .LVU140
	cbnz	r0, .L27
	.loc 1 2615 2 is_stmt 1 view .LVU141
	.loc 1 2615 19 is_stmt 0 view .LVU142
	ldr	r0, [sp, #4]
.LVL42:
	.loc 1 2616 2 is_stmt 1 view .LVU143
	.loc 1 2616 22 is_stmt 0 view .LVU144
	ldr	r3, [r0, #12]
	ldrsb	r3, [r3, #3]
	.loc 1 2616 18 view .LVU145
	strb	r3, [r5]
.LVL43:
	.loc 1 2617 2 is_stmt 1 view .LVU146
	bl	net_buf_unref
.LVL44:
	.loc 1 2619 2 view .LVU147
.L27:
	.loc 1 2620 1 is_stmt 0 view .LVU148
	mov	r0, r4
	add	sp, sp, #12
	.cfi_remember_state
	.cfi_def_cfa_offset 20
	@ sp needed
	pop	{r4, r5, r6, r7, pc}
.LVL45:
.L29:
	.cfi_restore_state
	.loc 1 2603 10 view .LVU149
	mvn	r4, #104
	b	.L27
	.cfi_endproc
.LFE655:
	.size	bt_conn_get_tx_power_level, .-bt_conn_get_tx_power_level
	.section	.text.z_log_msg_static_create.constprop.0,"ax",%progbits
	.align	1
	.syntax unified
	.thumb
	.thumb_func
	.type	z_log_msg_static_create.constprop.0, %function
z_log_msg_static_create.constprop.0:
.LVL46:
.LFB673:
	.file 5 "/home/g/mise-work/zmk-firmware/zmk/app/build/zephyr/include/generated/syscalls/log_msg.h"
	.loc 5 26 20 is_stmt 1 view -0
	.cfi_startproc
	@ args = 0, pretend = 0, frame = 0
	@ frame_needed = 0, uses_anonymous_args = 0
	@ link register save eliminated.
	.loc 5 38 2 view .LVU151
	.loc 5 38 7 view .LVU152
	.loc 5 38 5 view .LVU153
	.loc 5 39 2 view .LVU154
	movs	r3, #0
	b	z_impl_z_log_msg_static_create
.LVL47:
	.loc 5 39 2 is_stmt 0 view .LVU155
	.cfi_endproc
.LFE673:
	.size	z_log_msg_static_create.constprop.0, .-z_log_msg_static_create.constprop.0
	.section	.rodata.bt_conn_create_pdu_timeout.part.0.str1.1,"aMS",%progbits,1
.LC1:
	.ascii	"Unable to allocate buffer within timeout\000"
	.section	.text.bt_conn_create_pdu_timeout.part.0,"ax",%progbits
	.align	1
	.syntax unified
	.thumb
	.thumb_func
	.type	bt_conn_create_pdu_timeout.part.0, %function
bt_conn_create_pdu_timeout.part.0:
.LFB670:
	.loc 1 1366 17 is_stmt 1 view -0
	.cfi_startproc
	@ args = 0, pretend = 0, frame = 24
	@ frame_needed = 0, uses_anonymous_args = 0
.LVL48:
	.loc 1 1411 3 view .LVU157
.LBB1510:
	.loc 1 1411 8 view .LVU158
	.loc 1 1411 57 view .LVU159
	.loc 1 1411 14 view .LVU160
	.loc 1 1411 2 view .LVU161
	.loc 1 1411 41 view .LVU162
	.loc 1 1411 176 view .LVU163
	.loc 1 1411 187 view .LVU164
	.loc 1 1411 275 view .LVU165
	.loc 1 1411 3 view .LVU166
	.loc 1 1411 3 view .LVU167
.LBB1511:
	.loc 1 1411 8 view .LVU168
	.loc 1 1411 2 view .LVU169
.LBE1511:
.LBE1510:
	.loc 1 1411 3 view .LVU170
	.loc 1 1411 12 view .LVU171
	.loc 1 1411 107 view .LVU172
	.loc 1 1411 3 view .LVU173
.LBB1532:
.LBB1527:
	.loc 1 1411 12 view .LVU174
	.loc 1 1411 102 view .LVU175
	.loc 1 1411 104 view .LVU176
.LBB1512:
	.loc 1 1411 109 view .LVU177
	.loc 1 1411 120 view .LVU178
	.loc 1 1411 209 view .LVU179
	.loc 1 1411 26 view .LVU180
.LBE1512:
.LBE1527:
.LBE1532:
	.loc 1 1411 3 view .LVU181
	.loc 1 1411 368 view .LVU182
	.loc 1 1411 75 view .LVU183
	.loc 1 1411 2 view .LVU184
	.loc 1 1411 2 view .LVU185
	.loc 1 1411 2 view .LVU186
	.loc 1 1411 38 view .LVU187
	.loc 1 1411 4 view .LVU188
	.loc 1 1411 30 view .LVU189
	.loc 1 1411 56 view .LVU190
	.loc 1 1411 79 view .LVU191
	.loc 1 1411 141 view .LVU192
	.loc 1 1411 198 view .LVU193
	.loc 1 1411 263 view .LVU194
	.loc 1 1411 288 view .LVU195
	.loc 1 1411 289 view .LVU196
	.loc 1 1411 291 view .LVU197
	.loc 1 1411 321 view .LVU198
	.loc 1 1411 351 view .LVU199
	.loc 1 1411 383 view .LVU200
	.loc 1 1411 415 view .LVU201
	.loc 1 1411 447 view .LVU202
	.loc 1 1411 644 view .LVU203
	.loc 1 1411 668 view .LVU204
	.loc 1 1411 669 view .LVU205
	.loc 1 1411 671 view .LVU206
	.loc 1 1411 700 view .LVU207
	.loc 1 1411 729 view .LVU208
	.loc 1 1411 760 view .LVU209
	.loc 1 1411 791 view .LVU210
	.loc 1 1411 822 view .LVU211
	.loc 1 1411 1029 view .LVU212
	.loc 1 1411 4 view .LVU213
	.loc 1 1411 22 view .LVU214
	.loc 1 1411 42 view .LVU215
	.loc 1 1411 4 view .LVU216
	.loc 1 1411 42 view .LVU217
	.loc 1 1411 13 view .LVU218
	.loc 1 1411 13 view .LVU219
	.loc 1 1411 61 view .LVU220
	.loc 1 1411 92 view .LVU221
	.loc 1 1411 126 view .LVU222
	.loc 1 1411 131 view .LVU223
	.loc 1 1411 395 view .LVU224
	.loc 1 1411 1504 view .LVU225
	.loc 1 1411 1569 view .LVU226
	.loc 1 1411 1593 view .LVU227
	.loc 1 1411 1661 view .LVU228
	.loc 1 1411 1672 view .LVU229
	.loc 1 1411 1798 view .LVU230
	.loc 1 1411 1814 view .LVU231
	.loc 1 1411 1854 view .LVU232
	.loc 1 1411 1879 view .LVU233
	.loc 1 1411 3196 view .LVU234
	.loc 1 1411 3237 view .LVU235
	.loc 1 1411 7 view .LVU236
	.loc 1 1411 30 view .LVU237
	.loc 1 1411 129 view .LVU238
	.loc 1 1411 5 view .LVU239
	.loc 1 1411 28 view .LVU240
	.loc 1 1411 52 view .LVU241
	.loc 1 1411 80 view .LVU242
	.loc 1 1411 256 view .LVU243
	.loc 1 1411 16 view .LVU244
.LBB1533:
.LBB1528:
.LBB1523:
	.loc 1 1411 29 view .LVU245
	.loc 1 1411 3 view .LVU246
	.loc 1 1411 3 view .LVU247
	.loc 1 1411 70 view .LVU248
	.loc 1 1411 70 is_stmt 0 view .LVU249
.LBE1523:
.LBE1528:
.LBE1533:
	.loc 1 1366 17 view .LVU250
	push	{r0, r1, r2, r3, r4, r5, r6, lr}
	.cfi_def_cfa_offset 32
	.cfi_offset 14, -4
.LVL49:
.LBB1534:
.LBB1529:
.LBB1524:
	.loc 1 1411 74 is_stmt 1 view .LVU251
	.loc 1 1411 484 view .LVU252
	.loc 1 1411 5 view .LVU253
	.loc 1 1411 7 view .LVU254
	.loc 1 1411 12 view .LVU255
	.loc 1 1411 10 view .LVU256
	.loc 1 1411 5 view .LVU257
	.loc 1 1411 23 view .LVU258
.LBB1513:
	.loc 1 1411 3 view .LVU259
	.loc 1 1411 368 view .LVU260
	.loc 1 1411 75 view .LVU261
.LVL50:
	.loc 1 1411 2 view .LVU262
	.loc 1 1411 2 view .LVU263
	.loc 1 1411 2 view .LVU264
	.loc 1 1411 38 view .LVU265
	.loc 1 1411 67 view .LVU266
	.loc 1 1411 93 view .LVU267
	.loc 1 1411 119 view .LVU268
	.loc 1 1411 142 view .LVU269
	.loc 1 1411 204 view .LVU270
	.loc 1 1411 261 view .LVU271
	.loc 1 1411 326 view .LVU272
	.loc 1 1411 351 view .LVU273
	.loc 1 1411 352 view .LVU274
	.loc 1 1411 354 view .LVU275
	.loc 1 1411 384 view .LVU276
	.loc 1 1411 414 view .LVU277
	.loc 1 1411 446 view .LVU278
	.loc 1 1411 478 view .LVU279
	.loc 1 1411 510 view .LVU280
	.loc 1 1411 707 view .LVU281
	.loc 1 1411 731 view .LVU282
	.loc 1 1411 732 view .LVU283
	.loc 1 1411 734 view .LVU284
	.loc 1 1411 763 view .LVU285
	.loc 1 1411 792 view .LVU286
	.loc 1 1411 823 view .LVU287
	.loc 1 1411 854 view .LVU288
	.loc 1 1411 885 view .LVU289
	.loc 1 1411 1092 view .LVU290
	.loc 1 1411 4 view .LVU291
	.loc 1 1411 22 view .LVU292
	.loc 1 1411 42 view .LVU293
	.loc 1 1411 4 view .LVU294
	.loc 1 1411 42 view .LVU295
	.loc 1 1411 13 view .LVU296
	.loc 1 1411 13 view .LVU297
	.loc 1 1411 61 view .LVU298
	.loc 1 1411 92 view .LVU299
	.loc 1 1411 126 view .LVU300
.LBB1514:
	.loc 1 1411 131 view .LVU301
	.loc 1 1411 395 view .LVU302
	.loc 1 1411 1504 view .LVU303
	.loc 1 1411 1569 view .LVU304
.LBE1514:
.LBE1513:
.LBE1524:
.LBE1529:
.LBE1534:
	.loc 1 1411 1593 view .LVU305
	.loc 1 1411 1661 view .LVU306
	.loc 1 1411 1672 view .LVU307
	.loc 1 1411 1798 view .LVU308
.LBB1535:
.LBB1530:
.LBB1525:
.LBB1519:
.LBB1515:
	.loc 1 1411 1814 view .LVU309
	.loc 1 1411 1854 view .LVU310
	.loc 1 1411 1879 view .LVU311
	.loc 1 1411 3196 view .LVU312
	.loc 1 1411 3234 view .LVU313
	.loc 1 1411 3239 view .LVU314
	.loc 1 1411 3917 view .LVU315
	.loc 1 1411 0 is_stmt 0 view .LVU316
	ldr	r3, .L32
	str	r3, [sp, #20]
	.loc 1 1411 3237 is_stmt 1 view .LVU317
	.loc 1 1411 7 view .LVU318
.LVL51:
	.loc 1 1411 30 view .LVU319
	.loc 1 1411 30 is_stmt 0 view .LVU320
.LBE1515:
	.loc 1 1411 129 is_stmt 1 view .LVU321
	.loc 1 1411 5 view .LVU322
	.loc 1 1411 28 view .LVU323
	.loc 1 1411 52 view .LVU324
	.loc 1 1411 80 view .LVU325
.LBE1519:
.LBE1525:
.LBE1530:
.LBE1535:
	.loc 1 1411 6 view .LVU326
	.loc 1 1411 45 view .LVU327
	.loc 1 1411 50 view .LVU328
	.loc 1 1411 80 view .LVU329
	.loc 1 1411 147 view .LVU330
	.loc 1 1411 152 view .LVU331
	.loc 1 1411 182 view .LVU332
.LBB1536:
.LBB1531:
.LBB1526:
.LBB1520:
	.loc 1 1411 256 view .LVU333
	.loc 1 1411 16 view .LVU334
.LBB1516:
	.loc 1 1411 6 view .LVU335
	.loc 1 1411 164 view .LVU336
	.loc 1 1411 166 view .LVU337
.LBE1516:
.LBE1520:
	.loc 1 1411 149 is_stmt 0 view .LVU338
	ldr	r0, .L32+4
.LBB1521:
.LBB1517:
	.loc 1 1411 176 view .LVU339
	movs	r3, #2
.LBE1517:
.LBE1521:
	.loc 1 1411 149 view .LVU340
	add	r2, sp, #16
.LVL52:
	.loc 1 1411 149 view .LVU341
	mov	r1, #4224
.LBB1522:
.LBB1518:
	.loc 1 1411 176 view .LVU342
	str	r3, [sp, #16]
.LVL53:
	.loc 1 1411 176 view .LVU343
.LBE1518:
.LBE1522:
	.loc 1 1411 26 is_stmt 1 view .LVU344
	.loc 1 1411 7 view .LVU345
	.loc 1 1411 147 view .LVU346
	.loc 1 1411 149 view .LVU347
	bl	z_log_msg_static_create.constprop.0
.LVL54:
	.loc 1 1411 149 is_stmt 0 view .LVU348
.LBE1526:
	.loc 1 1411 107 is_stmt 1 view .LVU349
	.loc 1 1411 5 view .LVU350
	.loc 1 1411 42 view .LVU351
.LBE1531:
	.loc 1 1411 6 view .LVU352
	.loc 1 1411 278 view .LVU353
	.loc 1 1411 5 view .LVU354
	.loc 1 1411 18 view .LVU355
.LBE1536:
	.loc 1 1411 6 view .LVU356
	.loc 1 1412 3 view .LVU357
	.loc 1 1419 1 is_stmt 0 view .LVU358
	movs	r0, #0
	add	sp, sp, #28
	.cfi_def_cfa_offset 4
.LVL55:
	.loc 1 1419 1 view .LVU359
	@ sp needed
	ldr	pc, [sp], #4
.LVL56:
.L33:
	.loc 1 1419 1 view .LVU360
	.align	2
.L32:
	.word	.LC1
	.word	log_const_bt_conn
	.cfi_endproc
.LFE670:
	.size	bt_conn_create_pdu_timeout.part.0, .-bt_conn_create_pdu_timeout.part.0
	.section	.text.tx_notify,"ax",%progbits
	.align	1
	.syntax unified
	.thumb
	.thumb_func
	.type	tx_notify, %function
tx_notify:
.LVL57:
.LFB595:
	.loc 1 211 1 is_stmt 1 view -0
	.cfi_startproc
	@ args = 0, pretend = 0, frame = 0
	@ frame_needed = 0, uses_anonymous_args = 0
	.loc 1 212 2 view .LVU362
.LBB1568:
	.loc 1 212 7 view .LVU363
.LBE1568:
	.loc 1 211 1 is_stmt 0 view .LVU364
	push	{r4, r5, r6, r7, r8, lr}
	.cfi_def_cfa_offset 24
	.cfi_offset 4, -24
	.cfi_offset 5, -20
	.cfi_offset 6, -16
	.cfi_offset 7, -12
	.cfi_offset 8, -8
	.cfi_offset 14, -4
.LBB1569:
.LBB1570:
.LBB1571:
.LBB1572:
	.loc 1 207 4 view .LVU365
	ldr	r7, .L41
.LBE1572:
.LBE1571:
.LBE1570:
.LBE1569:
	.loc 1 211 1 view .LVU366
	mov	r4, r0
.LBB1604:
.LBB1576:
.LBB1574:
	.loc 1 204 9 view .LVU367
	mov	r8, #0
.LVL58:
.L38:
	.loc 1 204 9 view .LVU368
.LBE1574:
.LBE1576:
.LBE1604:
	.loc 1 212 5 is_stmt 1 discriminator 335 view .LVU369
	.loc 1 214 2 discriminator 335 view .LVU370
.LBB1605:
	.loc 1 215 3 discriminator 335 view .LVU371
	.loc 1 216 3 discriminator 335 view .LVU372
	.loc 1 217 3 discriminator 335 view .LVU373
	.loc 1 218 3 discriminator 335 view .LVU374
	.loc 1 220 3 discriminator 335 view .LVU375
.LBB1577:
.LBI1577:
	.file 6 "/home/g/mise-work/zmk-firmware/zmk/zephyr/include/zephyr/arch/arm/asm_inline_gcc.h"
	.loc 6 42 59 discriminator 335 view .LVU376
.LBB1578:
	.loc 6 44 2 discriminator 335 view .LVU377
	.loc 6 57 2 discriminator 335 view .LVU378
	.loc 6 59 2 discriminator 335 view .LVU379
	.syntax unified
@ 59 "/home/g/mise-work/zmk-firmware/zmk/zephyr/include/zephyr/arch/arm/asm_inline_gcc.h" 1
	mov r2, #32;mrs r3, BASEPRI;msr BASEPRI_MAX, r2;isb;
@ 0 "" 2
.LVL59:
	.loc 6 88 2 discriminator 335 view .LVU380
	.loc 6 88 2 is_stmt 0 discriminator 335 view .LVU381
	.thumb
	.syntax unified
.LBE1578:
.LBE1577:
	.loc 1 221 3 is_stmt 1 discriminator 335 view .LVU382
.LBB1579:
.LBI1579:
	.loc 2 268 1 discriminator 335 view .LVU383
	.loc 2 268 41 discriminator 335 view .LVU384
.LBB1580:
.LBI1580:
	.loc 2 238 28 discriminator 335 view .LVU385
.LBB1581:
	.loc 2 240 2 discriminator 335 view .LVU386
	.loc 2 240 13 is_stmt 0 discriminator 335 view .LVU387
	ldr	r1, [r4, #32]
.LVL60:
	.loc 2 240 13 discriminator 335 view .LVU388
.LBE1581:
.LBE1580:
.LBE1579:
	.loc 1 221 6 discriminator 335 view .LVU389
	cbnz	r1, .L35
	.loc 1 225 3 is_stmt 1 view .LVU390
.LVL61:
.LBB1582:
.LBI1582:
	.loc 6 96 51 view .LVU391
.LBB1583:
	.loc 6 107 2 view .LVU392
	.syntax unified
@ 107 "/home/g/mise-work/zmk-firmware/zmk/zephyr/include/zephyr/arch/arm/asm_inline_gcc.h" 1
	msr BASEPRI, r3;isb;
@ 0 "" 2
.LVL62:
	.loc 6 107 2 is_stmt 0 view .LVU393
	.thumb
	.syntax unified
.LBE1583:
.LBE1582:
	.loc 1 227 3 is_stmt 1 view .LVU394
	.loc 1 228 4 view .LVU395
.LBE1605:
	.loc 1 246 1 is_stmt 0 view .LVU396
	pop	{r4, r5, r6, r7, r8, pc}
.LVL63:
.L35:
.LBB1606:
	.loc 1 222 4 is_stmt 1 view .LVU397
.LBB1586:
.LBI1586:
	.loc 2 379 29 view .LVU398
.LBB1587:
	.loc 2 379 74 view .LVU399
	.loc 2 379 121 view .LVU400
.LBB1588:
.LBI1588:
	.loc 2 211 28 view .LVU401
.LBB1589:
	.loc 2 213 2 view .LVU402
.LBE1589:
.LBE1588:
	.loc 2 379 173 is_stmt 0 view .LVU403
	ldr	r0, [r4, #36]
.LBB1591:
.LBB1590:
	.loc 2 213 13 view .LVU404
	ldr	r2, [r1]
.LVL64:
	.loc 2 213 13 view .LVU405
.LBE1590:
.LBE1591:
.LBB1592:
.LBI1592:
	.loc 2 221 20 is_stmt 1 view .LVU406
.LBB1593:
	.loc 2 223 2 view .LVU407
	.loc 2 223 13 is_stmt 0 view .LVU408
	str	r2, [r4, #32]
.LVL65:
	.loc 2 223 13 view .LVU409
.LBE1593:
.LBE1592:
	.loc 2 379 170 is_stmt 1 view .LVU410
.LBB1594:
.LBI1594:
	.loc 2 250 28 view .LVU411
.LBB1595:
	.loc 2 252 2 view .LVU412
	.loc 2 252 2 is_stmt 0 view .LVU413
.LBE1595:
.LBE1594:
	.loc 2 379 173 view .LVU414
	cmp	r1, r0
.LVL66:
	.loc 2 379 173 view .LVU415
.LBE1587:
.LBE1586:
	.loc 1 225 3 is_stmt 1 view .LVU416
.LBB1599:
	.loc 6 96 51 view .LVU417
.LBB1584:
	.loc 6 107 2 view .LVU418
.LBE1584:
.LBE1599:
.LBB1600:
.LBB1598:
	.loc 2 379 211 view .LVU419
.LBB1596:
.LBI1596:
	.loc 2 226 20 view .LVU420
.LBB1597:
	.loc 2 228 2 view .LVU421
	.loc 2 228 13 is_stmt 0 view .LVU422
	it	eq
	streq	r2, [r4, #36]
.LVL67:
	.loc 2 228 13 view .LVU423
.LBE1597:
.LBE1596:
.LBE1598:
.LBE1600:
	.loc 1 225 3 is_stmt 1 view .LVU424
.LBB1601:
	.loc 6 96 51 view .LVU425
.LBB1585:
	.loc 6 107 2 view .LVU426
	.syntax unified
@ 107 "/home/g/mise-work/zmk-firmware/zmk/zephyr/include/zephyr/arch/arm/asm_inline_gcc.h" 1
	msr BASEPRI, r3;isb;
@ 0 "" 2
.LVL68:
	.loc 6 107 2 is_stmt 0 view .LVU427
	.thumb
	.syntax unified
.LBE1585:
.LBE1601:
	.loc 1 227 3 is_stmt 1 view .LVU428
	.loc 1 231 3 view .LVU429
.LBB1602:
	.loc 1 231 8 view .LVU430
.LBE1602:
	.loc 1 231 6 view .LVU431
	.loc 1 234 3 view .LVU432
	.loc 1 235 13 is_stmt 0 view .LVU433
	ldrd	r5, r6, [r1, #4]
.LVL69:
	.loc 1 238 3 is_stmt 1 view .LVU434
.LBB1603:
.LBI1570:
	.loc 1 202 13 view .LVU435
.LBB1575:
	.loc 1 204 2 view .LVU436
	.loc 1 206 20 is_stmt 0 view .LVU437
	str	r8, [r1, #12]
	.loc 1 205 16 view .LVU438
	strd	r8, r8, [r1, #4]
	.loc 1 206 2 is_stmt 1 view .LVU439
	.loc 1 207 2 view .LVU440
.LBB1573:
	.loc 1 207 5 view .LVU441
	.loc 1 207 10 view .LVU442
	.loc 1 207 8 view .LVU443
	.loc 1 207 4 view .LVU444
	mov	r0, r7
	bl	k_queue_append
.LVL70:
	.loc 1 207 45 view .LVU445
	.loc 1 207 50 view .LVU446
	.loc 1 207 48 view .LVU447
	.loc 1 207 48 is_stmt 0 view .LVU448
.LBE1573:
.LBE1575:
.LBE1603:
	.loc 1 244 3 is_stmt 1 view .LVU449
	movs	r2, #0
	mov	r1, r6
	mov	r0, r4
	blx	r5
.LVL71:
.LBE1606:
	.loc 1 214 8 view .LVU450
	.loc 1 214 12 is_stmt 0 view .LVU451
	b	.L38
.L42:
	.align	2
.L41:
	.word	free_tx
	.cfi_endproc
.LFE595:
	.size	tx_notify, .-tx_notify
	.section	.text.tx_complete_work,"ax",%progbits
	.align	1
	.syntax unified
	.thumb
	.thumb_func
	.type	tx_complete_work, %function
tx_complete_work:
.LVL72:
.LFB625:
	.loc 1 1423 1 is_stmt 1 view -0
	.cfi_startproc
	@ args = 0, pretend = 0, frame = 0
	@ frame_needed = 0, uses_anonymous_args = 0
	@ link register save eliminated.
	.loc 1 1424 2 view .LVU453
	.loc 1 1427 2 view .LVU454
.LBB1607:
	.loc 1 1427 7 view .LVU455
.LBE1607:
	.loc 1 1427 5 view .LVU456
	.loc 1 1429 2 view .LVU457
	subs	r0, r0, #40
.LVL73:
	.loc 1 1429 2 is_stmt 0 view .LVU458
	b	tx_notify
.LVL74:
	.loc 1 1429 2 view .LVU459
	.cfi_endproc
.LFE625:
	.size	tx_complete_work, .-tx_complete_work
	.section	.text.conn_tx_destroy,"ax",%progbits
	.align	1
	.syntax unified
	.thumb
	.thumb_func
	.type	conn_tx_destroy, %function
conn_tx_destroy:
.LVL75:
.LFB591:
	.loc 1 70 1 is_stmt 1 view -0
	.cfi_startproc
	@ args = 0, pretend = 0, frame = 0
	@ frame_needed = 0, uses_anonymous_args = 0
	.loc 1 71 4 view .LVU461
	.loc 1 71 5 view .LVU462
	.loc 1 73 2 view .LVU463
	.loc 1 70 1 is_stmt 0 view .LVU464
	push	{r4, r5, r6, lr}
	.cfi_def_cfa_offset 16
	.cfi_offset 4, -16
	.cfi_offset 5, -12
	.cfi_offset 6, -8
	.cfi_offset 14, -4
	.loc 1 74 8 view .LVU465
	ldrd	r5, r6, [r1, #4]
.LVL76:
	.loc 1 79 2 is_stmt 1 view .LVU466
.LBB1611:
.LBI1611:
	.loc 1 202 13 view .LVU467
.LBB1612:
	.loc 1 204 2 view .LVU468
	.loc 1 204 9 is_stmt 0 view .LVU469
	movs	r2, #0
	.loc 1 205 16 view .LVU470
	strd	r2, r2, [r1, #4]
	.loc 1 206 2 is_stmt 1 view .LVU471
.LBE1612:
.LBE1611:
	.loc 1 70 1 is_stmt 0 view .LVU472
	mov	r4, r0
.LBB1615:
.LBB1614:
	.loc 1 206 20 view .LVU473
	str	r2, [r1, #12]
	.loc 1 207 2 is_stmt 1 view .LVU474
.LBB1613:
	.loc 1 207 5 view .LVU475
	.loc 1 207 10 view .LVU476
	.loc 1 207 8 view .LVU477
	.loc 1 207 4 view .LVU478
	ldr	r0, .L45
.LVL77:
	.loc 1 207 4 is_stmt 0 view .LVU479
	bl	k_queue_append
.LVL78:
	.loc 1 207 45 is_stmt 1 view .LVU480
	.loc 1 207 50 view .LVU481
	.loc 1 207 48 view .LVU482
	.loc 1 207 48 is_stmt 0 view .LVU483
.LBE1613:
.LBE1614:
.LBE1615:
	.loc 1 81 2 is_stmt 1 view .LVU484
	mov	r1, r6
	mov	r0, r4
	mov	r3, r5
	mvn	r2, #109
	.loc 1 82 1 is_stmt 0 view .LVU485
	pop	{r4, r5, r6, lr}
	.cfi_restore 14
	.cfi_restore 6
	.cfi_restore 5
	.cfi_restore 4
	.cfi_def_cfa_offset 0
.LVL79:
	.loc 1 81 2 view .LVU486
	bx	r3	@ indirect register sibling call
.LVL80:
.L46:
	.loc 1 81 2 view .LVU487
	.align	2
.L45:
	.word	free_tx
	.cfi_endproc
.LFE591:
	.size	conn_tx_destroy, .-conn_tx_destroy
	.section	.rodata.send_frag.str1.1,"aMS",%progbits,1
.LC2:
	.ascii	"Unable to send to driver (err %d)\000"
	.section	.text.send_frag,"ax",%progbits
	.align	1
	.syntax unified
	.thumb
	.thumb_func
	.type	send_frag, %function
send_frag:
.LVL81:
.LFB607:
	.loc 1 662 1 is_stmt 1 view -0
	.cfi_startproc
	@ args = 0, pretend = 0, frame = 0
	@ frame_needed = 1, uses_anonymous_args = 0
	.loc 1 664 2 view .LVU489
	.loc 1 662 1 is_stmt 0 view .LVU490
	push	{r3, r4, r5, r6, r7, r8, r9, r10, fp, lr}
	.cfi_def_cfa_offset 40
	.cfi_offset 3, -40
	.cfi_offset 4, -36
	.cfi_offset 5, -32
	.cfi_offset 6, -28
	.cfi_offset 7, -24
	.cfi_offset 8, -20
	.cfi_offset 9, -16
	.cfi_offset 10, -12
	.cfi_offset 11, -8
	.cfi_offset 14, -4
.LBB1688:
.LBB1689:
.LBB1690:
	.loc 1 168 15 view .LVU491
	ldr	r9, .L75+12
.LBE1690:
.LBE1689:
.LBE1688:
	.loc 1 662 1 view .LVU492
	mov	r8, r3
.LBB1701:
.LBB1695:
.LBB1691:
	.loc 1 168 5 view .LVU493
	ldrh	r3, [r9, #260]
.LVL82:
	.loc 1 173 8 view .LVU494
	cmp	r3, #0
.LBE1691:
.LBE1695:
.LBE1701:
	.loc 1 662 1 view .LVU495
	add	r7, sp, #0
	.cfi_def_cfa_register 7
	.loc 1 662 1 view .LVU496
	mov	r4, r0
.LVL83:
.LBB1702:
.LBB1696:
.LBI1689:
	.loc 1 146 15 is_stmt 1 view .LVU497
.LBB1692:
	.loc 1 168 2 view .LVU498
.LBE1692:
.LBE1696:
.LBE1702:
	.loc 1 662 1 is_stmt 0 view .LVU499
	mov	r6, r1
.LBB1703:
.LBB1697:
.LBB1693:
	.loc 1 173 8 view .LVU500
	add	r0, r9, #264
.LVL84:
	.loc 1 173 8 view .LVU501
.LBE1693:
.LBE1697:
.LBE1703:
	.loc 1 662 1 view .LVU502
	mov	r5, r2
.LBB1704:
.LBB1698:
.LBB1694:
	.loc 1 173 8 view .LVU503
	it	eq
	moveq	r0, #0
.LVL85:
	.loc 1 173 8 view .LVU504
.LBE1694:
.LBE1698:
.LBB1699:
.LBI1699:
	.file 7 "/home/g/mise-work/zmk-firmware/zmk/app/build/zephyr/include/generated/syscalls/kernel.h"
	.loc 7 1093 19 is_stmt 1 view .LVU505
.LBB1700:
	.loc 7 1102 2 view .LVU506
	.loc 7 1102 7 view .LVU507
	.loc 7 1102 5 view .LVU508
	.loc 7 1103 2 view .LVU509
	.loc 7 1103 9 is_stmt 0 view .LVU510
	movs	r2, #0
.LVL86:
	.loc 7 1103 9 view .LVU511
	movs	r3, #0
	bl	z_impl_k_sem_take
.LVL87:
	.loc 7 1103 9 view .LVU512
.LBE1700:
.LBE1699:
	.loc 1 664 5 view .LVU513
	cmp	r0, #0
	bne	.L66
.LBE1704:
	.loc 1 670 2 is_stmt 1 view .LVU514
	.loc 1 670 5 is_stmt 0 view .LVU515
	cmp	r5, #0
	beq	.L50
.LBB1705:
	.loc 1 671 3 is_stmt 1 view .LVU516
.LVL88:
.LBB1706:
.LBI1706:
	.loc 1 559 24 view .LVU517
.LBB1707:
	.loc 1 573 2 view .LVU518
	.loc 1 573 2 is_stmt 0 view .LVU519
.LBE1707:
.LBE1706:
.LBB1708:
.LBB1709:
	.loc 4 2257 9 view .LVU520
	add	r10, r5, #12
	mov	r0, r10
.LBE1709:
.LBE1708:
	.loc 1 671 26 view .LVU521
	ldrh	fp, [r9, #260]
.LVL89:
.LBB1711:
.LBI1708:
	.loc 4 2255 22 is_stmt 1 view .LVU522
.LBB1710:
	.loc 4 2257 2 view .LVU523
	.loc 4 2257 9 is_stmt 0 view .LVU524
	bl	net_buf_simple_tailroom
.LVL90:
	.loc 4 2257 9 view .LVU525
.LBE1710:
.LBE1711:
	.loc 1 671 12 view .LVU526
	cmp	r0, fp
	bls	.L51
.LVL91:
.LBB1712:
.LBI1712:
	.loc 1 559 24 is_stmt 1 view .LVU527
.LBB1713:
	.loc 1 573 2 view .LVU528
	.loc 1 573 18 is_stmt 0 view .LVU529
	ldrh	fp, [r9, #260]
.LVL92:
.L52:
	.loc 1 573 18 view .LVU530
.LBE1713:
.LBE1712:
	.loc 1 673 3 is_stmt 1 discriminator 4 view .LVU531
.LBB1714:
.LBI1714:
	.loc 4 1510 21 discriminator 4 view .LVU532
.LBB1715:
	.loc 4 1513 2 discriminator 4 view .LVU533
	.loc 4 1513 9 is_stmt 0 discriminator 4 view .LVU534
	ldr	r1, [r6, #12]!
.LVL93:
	.loc 4 1513 9 discriminator 4 view .LVU535
	mov	r2, fp
	mov	r0, r10
	bl	net_buf_simple_add_mem
.LVL94:
	.loc 4 1513 9 discriminator 4 view .LVU536
.LBE1715:
.LBE1714:
	.loc 1 674 3 is_stmt 1 discriminator 4 view .LVU537
.LBB1716:
.LBI1716:
	.loc 4 2060 21 discriminator 4 view .LVU538
.LBB1717:
	.loc 4 2062 2 discriminator 4 view .LVU539
	.loc 4 2062 9 is_stmt 0 discriminator 4 view .LVU540
	mov	r1, fp
	mov	r0, r6
	bl	net_buf_simple_pull
.LVL95:
.L53:
	.loc 4 2062 9 discriminator 4 view .LVU541
.LBE1717:
.LBE1716:
.LBE1705:
	.loc 1 685 2 is_stmt 1 view .LVU542
.LBB1720:
.LBI1720:
	.loc 1 579 12 view .LVU543
.LBB1721:
	.loc 1 581 2 view .LVU544
	.loc 1 587 5 is_stmt 0 view .LVU545
	ldrb	r3, [r4, #13]	@ zero_extendqisi2
	.loc 1 581 21 view .LVU546
	ldr	r6, [r5, #24]
.LVL96:
	.loc 1 582 2 is_stmt 1 view .LVU547
	.loc 1 583 2 view .LVU548
	.loc 1 584 2 view .LVU549
	.loc 1 587 2 view .LVU550
	.loc 1 587 5 is_stmt 0 view .LVU551
	cmp	r3, #7
	bne	.L67
	.loc 1 592 2 is_stmt 1 view .LVU552
.LBB1722:
	.loc 1 592 7 view .LVU553
.LBE1722:
	.loc 1 592 5 view .LVU554
	.loc 1 596 2 view .LVU555
.LBB1723:
.LBI1723:
	.loc 6 42 59 view .LVU556
.LBB1724:
	.loc 6 44 2 view .LVU557
	.loc 6 57 2 view .LVU558
	.loc 6 59 2 view .LVU559
	.syntax unified
@ 59 "/home/g/mise-work/zmk-firmware/zmk/zephyr/include/zephyr/arch/arm/asm_inline_gcc.h" 1
	mov r3, #32;mrs r2, BASEPRI;msr BASEPRI_MAX, r3;isb;
@ 0 "" 2
.LVL97:
	.loc 6 88 2 view .LVU560
	.loc 6 88 2 is_stmt 0 view .LVU561
	.thumb
	.syntax unified
.LBE1724:
.LBE1723:
	.loc 1 597 2 is_stmt 1 view .LVU562
	.loc 1 597 5 is_stmt 0 view .LVU563
	cmp	r6, #0
	beq	.L55
	.loc 1 598 3 is_stmt 1 view .LVU564
.LVL98:
.LBB1725:
.LBI1725:
	.loc 2 318 20 view .LVU565
.LBB1726:
	.loc 2 318 77 view .LVU566
.LBB1727:
.LBI1727:
	.loc 2 216 20 view .LVU567
.LBB1728:
	.loc 2 218 2 view .LVU568
	.loc 2 218 15 is_stmt 0 view .LVU569
	movs	r3, #0
	str	r3, [r6]
.LVL99:
	.loc 2 218 15 view .LVU570
.LBE1728:
.LBE1727:
	.loc 2 318 4 is_stmt 1 view .LVU571
.LBB1729:
.LBI1729:
	.loc 2 250 28 view .LVU572
.LBB1730:
	.loc 2 252 2 view .LVU573
	.loc 2 252 13 is_stmt 0 view .LVU574
	ldr	r3, [r4, #24]
.LVL100:
	.loc 2 252 13 view .LVU575
.LBE1730:
.LBE1729:
	.loc 2 318 7 view .LVU576
	cmp	r3, #0
	bne	.L56
	.loc 2 318 5 is_stmt 1 view .LVU577
.LVL101:
.LBB1731:
.LBI1731:
	.loc 2 226 20 view .LVU578
.LBB1732:
	.loc 2 228 2 view .LVU579
.LBE1732:
.LBE1731:
.LBB1733:
.LBB1734:
	.loc 2 223 13 is_stmt 0 view .LVU580
	strd	r6, r6, [r4, #20]
.LVL102:
.L57:
	.loc 2 223 13 view .LVU581
.LBE1734:
.LBE1733:
.LBE1726:
.LBE1725:
	.loc 1 582 12 view .LVU582
	mov	fp, #0
.LVL103:
.L58:
	.loc 1 611 2 is_stmt 1 view .LVU583
.LBB1740:
.LBI1740:
	.loc 6 96 51 view .LVU584
.LBB1741:
	.loc 6 107 2 view .LVU585
	.syntax unified
@ 107 "/home/g/mise-work/zmk-firmware/zmk/zephyr/include/zephyr/arch/arm/asm_inline_gcc.h" 1
	msr BASEPRI, r2;isb;
@ 0 "" 2
.LVL104:
	.loc 6 107 2 is_stmt 0 view .LVU586
	.thumb
	.syntax unified
.LBE1741:
.LBE1740:
	.loc 1 613 2 is_stmt 1 view .LVU587
	.loc 1 615 9 view .LVU588
	.loc 1 616 3 view .LVU589
.LBB1742:
.LBI1742:
	.loc 1 497 12 view .LVU590
.LBB1743:
	.loc 1 499 2 view .LVU591
	.loc 1 501 2 view .LVU592
	.loc 1 514 2 view .LVU593
.LBB1744:
.LBI1744:
	.loc 4 1873 21 view .LVU594
.LBB1745:
	.loc 4 1875 2 view .LVU595
	.loc 4 1875 9 is_stmt 0 view .LVU596
	movs	r1, #4
	add	r0, r5, #12
	bl	net_buf_simple_push
.LVL105:
	.loc 4 1875 9 view .LVU597
.LBE1745:
.LBE1744:
	.loc 1 515 2 is_stmt 1 view .LVU598
	.loc 1 515 33 is_stmt 0 view .LVU599
	ldrh	r3, [r4]
	.loc 1 515 44 view .LVU600
	and	r8, r8, #253
.LVL106:
	.loc 1 515 33 view .LVU601
	orr	r8, r3, r8, lsl #12
	.loc 1 515 14 view .LVU602
	strh	r8, [r0]	@ unaligned
	.loc 1 516 2 is_stmt 1 view .LVU603
	.loc 1 516 23 is_stmt 0 view .LVU604
	ldrh	r3, [r5, #16]
	subs	r3, r3, #4
	.loc 1 516 11 view .LVU605
	strh	r3, [r0, #2]	@ unaligned
	.loc 1 518 2 is_stmt 1 view .LVU606
.LVL107:
.LBB1746:
.LBI1746:
	.file 8 "/home/g/mise-work/zmk-firmware/zmk/zephyr/include/zephyr/bluetooth/buf.h"
	.loc 8 161 20 view .LVU607
.LBB1747:
	.loc 8 163 2 view .LVU608
	.loc 8 163 55 is_stmt 0 view .LVU609
	movs	r3, #2
	strb	r3, [r5, #24]
.LVL108:
	.loc 8 163 55 view .LVU610
.LBE1747:
.LBE1746:
	.loc 1 520 2 is_stmt 1 view .LVU611
	.loc 1 520 9 is_stmt 0 view .LVU612
	mov	r0, r5
.LVL109:
	.loc 1 520 9 view .LVU613
	bl	bt_send
.LVL110:
	.loc 1 520 9 view .LVU614
.LBE1743:
.LBE1742:
	.loc 1 618 5 is_stmt 1 view .LVU615
	.loc 1 618 6 view .LVU616
	.loc 1 621 2 view .LVU617
	.loc 1 621 5 is_stmt 0 view .LVU618
	mov	r8, r0
	cbz	r0, .L47
	.loc 1 622 3 is_stmt 1 view .LVU619
.LBB1748:
	.loc 1 622 8 view .LVU620
	.loc 1 622 57 view .LVU621
	.loc 1 622 14 view .LVU622
	.loc 1 622 2 view .LVU623
.LVL111:
	.loc 1 622 41 view .LVU624
	.loc 1 622 176 view .LVU625
	.loc 1 622 187 view .LVU626
	.loc 1 622 275 view .LVU627
.LBB1749:
	.loc 1 622 3 view .LVU628
	.loc 1 622 5 view .LVU629
	.loc 1 622 3 view .LVU630
.LBB1750:
	.loc 1 622 8 view .LVU631
	.loc 1 622 2 view .LVU632
	.loc 1 622 12 view .LVU633
	.loc 1 622 102 view .LVU634
	.loc 1 622 104 view .LVU635
.LBB1751:
	.loc 1 622 107 is_stmt 0 view .LVU636
	mov	r10, sp
	.loc 1 622 109 is_stmt 1 view .LVU637
	.loc 1 622 120 view .LVU638
.LVL112:
	.loc 1 622 209 view .LVU639
	.loc 1 622 26 view .LVU640
	.loc 1 622 29 view .LVU641
	.loc 1 622 3 view .LVU642
	.loc 1 622 3 view .LVU643
	.loc 1 622 70 view .LVU644
	.loc 1 622 82 is_stmt 0 view .LVU645
	sub	sp, sp, #32
	mov	r2, sp
.LVL113:
	.loc 1 622 74 is_stmt 1 view .LVU646
	.loc 1 622 484 view .LVU647
	.loc 1 622 5 view .LVU648
	.loc 1 622 7 view .LVU649
	.loc 1 622 12 view .LVU650
	.loc 1 622 10 view .LVU651
	.loc 1 622 5 view .LVU652
	.loc 1 622 23 view .LVU653
.LBB1752:
	.loc 1 622 3 view .LVU654
	.loc 1 622 368 view .LVU655
	.loc 1 622 75 view .LVU656
.LVL114:
	.loc 1 622 2 view .LVU657
	.loc 1 622 2 view .LVU658
	.loc 1 622 2 view .LVU659
	.loc 1 622 38 view .LVU660
	.loc 1 622 67 view .LVU661
	.loc 1 622 93 view .LVU662
	.loc 1 622 119 view .LVU663
	.loc 1 622 586 view .LVU664
	.loc 1 622 648 view .LVU665
	.loc 1 622 1169 view .LVU666
	.loc 1 622 1234 view .LVU667
	.loc 1 622 1259 view .LVU668
	.loc 1 622 1260 view .LVU669
	.loc 1 622 1262 view .LVU670
	.loc 1 622 1292 view .LVU671
	.loc 1 622 1322 view .LVU672
	.loc 1 622 1354 view .LVU673
	.loc 1 622 1386 view .LVU674
	.loc 1 622 1418 view .LVU675
	.loc 1 622 1615 view .LVU676
	.loc 1 622 1639 view .LVU677
	.loc 1 622 1640 view .LVU678
	.loc 1 622 1642 view .LVU679
	.loc 1 622 1671 view .LVU680
	.loc 1 622 1700 view .LVU681
	.loc 1 622 1731 view .LVU682
	.loc 1 622 1762 view .LVU683
	.loc 1 622 1793 view .LVU684
	.loc 1 622 2000 view .LVU685
.LBB1753:
	.loc 1 622 3171 view .LVU686
	.loc 1 622 3176 view .LVU687
	.loc 1 622 3812 view .LVU688
	.loc 1 622 0 is_stmt 0 view .LVU689
	ldr	r3, .L75
.LBE1753:
.LBB1754:
	.loc 1 622 3811 view .LVU690
	strd	r3, r0, [r2, #20]
	.loc 1 622 2766 is_stmt 1 view .LVU691
	.loc 1 622 7 view .LVU692
.LVL115:
	.loc 1 622 30 view .LVU693
	.loc 1 622 30 is_stmt 0 view .LVU694
.LBE1754:
	.loc 1 622 9 is_stmt 1 view .LVU695
	.loc 1 622 5 view .LVU696
	.loc 1 622 28 view .LVU697
	.loc 1 622 52 view .LVU698
	.loc 1 622 80 view .LVU699
	.loc 1 622 256 view .LVU700
	.loc 1 622 16 view .LVU701
.LBB1755:
	.loc 1 622 6 view .LVU702
	.loc 1 622 164 view .LVU703
	.loc 1 622 166 view .LVU704
	.loc 1 622 176 is_stmt 0 view .LVU705
	movs	r3, #3
	str	r3, [r2, #16]!
.LVL116:
	.loc 1 622 176 view .LVU706
.LBE1755:
.LBE1752:
	.loc 1 622 26 is_stmt 1 view .LVU707
	.loc 1 622 7 view .LVU708
	.loc 1 622 147 view .LVU709
	.loc 1 622 149 view .LVU710
	ldr	r0, .L75+4
.LVL117:
	.loc 1 622 149 is_stmt 0 view .LVU711
	mov	r1, #6208
	bl	z_log_msg_static_create.constprop.0
.LVL118:
	.loc 1 622 149 view .LVU712
	mov	sp, r10
.LVL119:
	.loc 1 622 149 view .LVU713
.LBE1751:
	.loc 1 622 107 is_stmt 1 view .LVU714
	.loc 1 622 5 view .LVU715
	.loc 1 622 42 view .LVU716
.LBE1750:
	.loc 1 622 6 view .LVU717
.LBE1749:
	.loc 1 622 278 view .LVU718
	.loc 1 622 5 view .LVU719
	.loc 1 622 18 view .LVU720
.LBE1748:
	.loc 1 622 6 view .LVU721
	.loc 1 623 3 view .LVU722
.LBB1756:
.LBI1756:
	.loc 6 42 59 view .LVU723
.LBB1757:
	.loc 6 44 2 view .LVU724
	.loc 6 57 2 view .LVU725
	.loc 6 59 2 view .LVU726
	.syntax unified
@ 59 "/home/g/mise-work/zmk-firmware/zmk/zephyr/include/zephyr/arch/arm/asm_inline_gcc.h" 1
	mov r3, #32;mrs r8, BASEPRI;msr BASEPRI_MAX, r3;isb;
@ 0 "" 2
.LVL120:
	.loc 6 88 2 view .LVU727
	.loc 6 88 2 is_stmt 0 view .LVU728
	.thumb
	.syntax unified
.LBE1757:
.LBE1756:
	.loc 1 625 3 is_stmt 1 view .LVU729
	.loc 1 625 6 is_stmt 0 view .LVU730
	cmp	r6, #0
	beq	.L61
.LVL121:
	.loc 1 626 4 is_stmt 1 view .LVU731
	mov	r1, r6
	add	r0, r4, #20
	bl	sys_slist_find_and_remove
.LVL122:
.L62:
	.loc 1 631 3 view .LVU732
.LBB1758:
.LBI1758:
	.loc 6 96 51 view .LVU733
.LBB1759:
	.loc 6 107 2 view .LVU734
	.syntax unified
@ 107 "/home/g/mise-work/zmk-firmware/zmk/zephyr/include/zephyr/arch/arm/asm_inline_gcc.h" 1
	msr BASEPRI, r8;isb;
@ 0 "" 2
.LVL123:
	.loc 6 107 2 is_stmt 0 view .LVU735
	.thumb
	.syntax unified
.LBE1759:
.LBE1758:
	.loc 1 637 3 is_stmt 1 view .LVU736
	.loc 1 638 3 view .LVU737
	.loc 1 637 7 is_stmt 0 view .LVU738
	mvn	r8, #4
.LVL124:
.L54:
	.loc 1 647 2 is_stmt 1 view .LVU739
.LBB1760:
.LBI1760:
	.loc 1 146 15 view .LVU740
.LBB1761:
	.loc 1 168 2 view .LVU741
	.loc 1 168 5 is_stmt 0 view .LVU742
	ldrh	r3, [r9, #260]
	.loc 1 173 8 view .LVU743
	ldr	r0, .L75+8
	cmp	r3, #0
	it	eq
	moveq	r0, #0
.LVL125:
	.loc 1 173 8 view .LVU744
.LBE1761:
.LBE1760:
.LBB1762:
.LBI1762:
	.loc 7 1110 20 is_stmt 1 view .LVU745
.LBB1763:
	.loc 7 1119 2 view .LVU746
	.loc 7 1119 7 view .LVU747
	.loc 7 1119 5 view .LVU748
	.loc 7 1120 2 view .LVU749
	bl	z_impl_k_sem_give
.LVL126:
	.loc 7 1120 2 is_stmt 0 view .LVU750
.LBE1763:
.LBE1762:
	.loc 1 648 2 is_stmt 1 view .LVU751
	.loc 1 648 5 is_stmt 0 view .LVU752
	cbz	r6, .L47
	.loc 1 652 3 is_stmt 1 view .LVU753
	.loc 1 652 50 is_stmt 0 view .LVU754
	movs	r3, #0
	str	r3, [r5, #24]
	.loc 1 653 3 is_stmt 1 view .LVU755
	mov	r1, r6
	mov	r0, r4
	bl	conn_tx_destroy
.LVL127:
.L47:
	.loc 1 653 3 is_stmt 0 view .LVU756
.LBE1721:
.LBE1720:
	.loc 1 686 1 view .LVU757
	mov	r0, r8
	mov	sp, r7
	.cfi_remember_state
	.cfi_def_cfa_register 13
	@ sp needed
	pop	{r3, r4, r5, r6, r7, r8, r9, r10, fp, pc}
.LVL128:
.L51:
	.cfi_restore_state
.LBB1769:
.LBB1718:
.LBI1718:
	.loc 4 2255 22 is_stmt 1 view .LVU758
.LBB1719:
	.loc 4 2257 2 view .LVU759
	.loc 4 2257 9 is_stmt 0 view .LVU760
	mov	r0, r10
	bl	net_buf_simple_tailroom
.LVL129:
	.loc 4 2257 9 view .LVU761
.LBE1719:
.LBE1718:
	.loc 1 671 12 view .LVU762
	uxth	fp, r0
	b	.L52
.L50:
	.loc 1 671 12 view .LVU763
.LBE1769:
.LBB1770:
	.loc 1 681 3 is_stmt 1 view .LVU764
	.loc 1 681 9 is_stmt 0 view .LVU765
	movs	r2, #0
	movs	r3, #0
	add	r0, r4, #56
	bl	net_buf_get
.LVL130:
	mov	r5, r0
.LVL131:
	.loc 1 682 3 is_stmt 1 view .LVU766
	.loc 1 682 3 is_stmt 0 view .LVU767
	b	.L53
.LVL132:
.L56:
	.loc 1 682 3 view .LVU768
.LBE1770:
.LBB1771:
.LBB1768:
.LBB1764:
.LBB1739:
	.loc 2 318 74 is_stmt 1 view .LVU769
.LBB1735:
.LBI1735:
	.loc 2 216 20 view .LVU770
.LBB1736:
	.loc 2 218 2 view .LVU771
	.loc 2 218 15 is_stmt 0 view .LVU772
	str	r6, [r3]
.LVL133:
	.loc 2 218 15 view .LVU773
.LBE1736:
.LBE1735:
	.loc 2 318 126 is_stmt 1 view .LVU774
.LBB1737:
.LBI1737:
	.loc 2 226 20 view .LVU775
.LBB1738:
	.loc 2 228 2 view .LVU776
	.loc 2 228 13 is_stmt 0 view .LVU777
	str	r6, [r4, #24]
	.loc 2 229 1 view .LVU778
	b	.L57
.LVL134:
.L55:
	.loc 2 229 1 view .LVU779
.LBE1738:
.LBE1737:
.LBE1739:
.LBE1764:
.LBB1765:
	.loc 1 600 3 is_stmt 1 view .LVU780
	.loc 1 602 3 view .LVU781
.LBB1766:
.LBI1766:
	.loc 2 250 28 view .LVU782
.LBB1767:
	.loc 2 252 2 view .LVU783
	.loc 2 252 13 is_stmt 0 view .LVU784
	ldr	r3, [r4, #24]
.LVL135:
	.loc 2 252 13 view .LVU785
.LBE1767:
.LBE1766:
	.loc 1 603 3 is_stmt 1 view .LVU786
	.loc 1 603 6 is_stmt 0 view .LVU787
	cbz	r3, .L59
	.loc 1 604 4 is_stmt 1 view .LVU788
	.loc 1 604 18 is_stmt 0 view .LVU789
	add	fp, r3, #12
.LVL136:
	.loc 1 604 18 view .LVU790
	ldr	r3, [r3, #12]
.LVL137:
.L60:
	.loc 1 609 3 is_stmt 1 view .LVU791
	.loc 1 609 19 is_stmt 0 view .LVU792
	adds	r3, r3, #1
	str	r3, [fp]
.LVL138:
	.loc 1 609 19 view .LVU793
	b	.L58
.LVL139:
.L59:
	.loc 1 606 4 is_stmt 1 view .LVU794
	.loc 1 606 18 is_stmt 0 view .LVU795
	ldr	r3, [r4, #28]
.LVL140:
	.loc 1 606 18 view .LVU796
	add	fp, r4, #28
.LVL141:
	.loc 1 606 18 view .LVU797
	b	.L60
.LVL142:
.L61:
	.loc 1 606 18 view .LVU798
.LBE1765:
	.loc 1 628 6 is_stmt 1 view .LVU799
	.loc 1 628 7 view .LVU800
	.loc 1 629 4 view .LVU801
	.loc 1 629 20 is_stmt 0 view .LVU802
	ldr	r3, [fp]
	subs	r3, r3, #1
	str	r3, [fp]
	b	.L62
.LVL143:
.L67:
	.loc 1 588 7 view .LVU803
	mvn	r8, #127
.LVL144:
	.loc 1 588 7 view .LVU804
	b	.L54
.LVL145:
.L66:
	.loc 1 588 7 view .LVU805
.LBE1768:
.LBE1771:
.LBB1772:
	.loc 1 666 10 view .LVU806
	mvn	r8, #104
	b	.L47
.L76:
	.align	2
.L75:
	.word	.LC2
	.word	log_const_bt_conn
	.word	bt_dev+264
	.word	bt_dev
.LBE1772:
	.cfi_endproc
.LFE607:
	.size	send_frag, .-send_frag
	.section	.text.bt_conn_get_pkts,"ax",%progbits
	.align	1
	.global	bt_conn_get_pkts
	.syntax unified
	.thumb
	.thumb_func
	.type	bt_conn_get_pkts, %function
bt_conn_get_pkts:
.LVL146:
.LFB592:
	.loc 1 147 1 is_stmt 1 view -0
	.cfi_startproc
	@ args = 0, pretend = 0, frame = 0
	@ frame_needed = 0, uses_anonymous_args = 0
	@ link register save eliminated.
	.loc 1 168 2 view .LVU808
	.loc 1 168 15 is_stmt 0 view .LVU809
	ldr	r0, .L80
.LVL147:
	.loc 1 168 5 view .LVU810
	ldrh	r3, [r0, #260]
	.loc 1 173 8 view .LVU811
	cmp	r3, #0
	add	r0, r0, #264
	.loc 1 174 1 view .LVU812
	it	eq
	moveq	r0, #0
	bx	lr
.L81:
	.align	2
.L80:
	.word	bt_dev
	.cfi_endproc
.LFE592:
	.size	bt_conn_get_pkts, .-bt_conn_get_pkts
	.section	.text.bt_conn_new,"ax",%progbits
	.align	1
	.global	bt_conn_new
	.syntax unified
	.thumb
	.thumb_func
	.type	bt_conn_new, %function
bt_conn_new:
.LVL148:
.LFB596:
	.loc 1 249 1 is_stmt 1 view -0
	.cfi_startproc
	@ args = 0, pretend = 0, frame = 0
	@ frame_needed = 0, uses_anonymous_args = 0
	.loc 1 250 2 view .LVU814
	.loc 1 251 2 view .LVU815
	.loc 1 253 2 view .LVU816
	.loc 1 249 1 is_stmt 0 view .LVU817
	push	{r3, r4, r5, lr}
	.cfi_def_cfa_offset 16
	.cfi_offset 3, -16
	.cfi_offset 4, -12
	.cfi_offset 5, -8
	.cfi_offset 14, -4
	.loc 1 253 9 view .LVU818
	movs	r2, #0
	mov	r4, r0
.LVL149:
.L83:
	.loc 1 253 16 is_stmt 1 discriminator 1 view .LVU819
	cmp	r2, r1
	bne	.L85
.LVL150:
.L86:
	.loc 1 254 24 is_stmt 0 view .LVU820
	movs	r4, #0
.LVL151:
.L82:
	.loc 1 274 1 view .LVU821
	mov	r0, r4
	pop	{r3, r4, r5, pc}
.LVL152:
.L85:
	.loc 1 254 3 is_stmt 1 view .LVU822
.LBB1773:
.LBI1773:
	.loc 3 40 19 view .LVU823
.LBB1774:
	.loc 3 43 2 view .LVU824
	.loc 3 43 9 is_stmt 0 view .LVU825
	add	r3, r4, #188
.LVL153:
	.loc 3 43 9 view .LVU826
	movs	r0, #1
	dmb	ish
.L89:
	ldrex	r5, [r3]
	cmp	r5, #0
	bne	.L90
	strex	ip, r0, [r3]
	cmp	ip, #0
	bne	.L89
.L90:
.LVL154:
	.loc 3 43 9 view .LVU827
	dmb	ish
.LBE1774:
.LBE1773:
	.loc 1 254 6 view .LVU828
	beq	.L84
	.loc 1 254 6 discriminator 2 view .LVU829
	adds	r4, r4, #192
	.loc 1 253 25 is_stmt 1 discriminator 2 view .LVU830
	add	r2, r2, r0
.LVL155:
	.loc 1 253 25 is_stmt 0 discriminator 2 view .LVU831
	b	.L83
.L84:
.LVL156:
	.loc 1 260 2 is_stmt 1 view .LVU832
	.loc 1 260 5 is_stmt 0 view .LVU833
	cmp	r4, #0
	beq	.L86
	.loc 1 264 2 is_stmt 1 view .LVU834
.LVL157:
.LBB1775:
.LBI1775:
	.file 9 "/home/g/zephyr-sdk-0.16.3/arm-zephyr-eabi/picolibc/include/ssp/string.h"
	.loc 9 86 189 view .LVU835
.LBB1776:
	.loc 9 86 238 view .LVU836
	.loc 9 86 245 is_stmt 0 view .LVU837
	movs	r2, #188
.LVL158:
	.loc 9 86 245 view .LVU838
	movs	r1, #0
.LVL159:
	.loc 9 86 245 view .LVU839
	mov	r0, r4
	bl	memset
.LVL160:
	.loc 9 86 245 view .LVU840
.LBE1776:
.LBE1775:
	.loc 1 267 2 is_stmt 1 view .LVU841
	add	r0, r4, #88
	ldr	r1, .L91
	bl	k_work_init_delayable
.LVL161:
	.loc 1 270 2 view .LVU842
	ldr	r1, .L91+4
	add	r0, r4, #40
	bl	k_work_init
.LVL162:
	.loc 1 273 2 view .LVU843
	.loc 1 273 9 is_stmt 0 view .LVU844
	b	.L82
.L92:
	.align	2
.L91:
	.word	deferred_work
	.word	tx_complete_work
	.cfi_endproc
.LFE596:
	.size	bt_conn_new, .-bt_conn_new
	.section	.text.bt_conn_reset_rx_state,"ax",%progbits
	.align	1
	.global	bt_conn_reset_rx_state
	.syntax unified
	.thumb
	.thumb_func
	.type	bt_conn_reset_rx_state, %function
bt_conn_reset_rx_state:
.LVL163:
.LFB597:
	.loc 1 277 1 is_stmt 1 view -0
	.cfi_startproc
	@ args = 0, pretend = 0, frame = 0
	@ frame_needed = 0, uses_anonymous_args = 0
	.loc 1 278 2 view .LVU846
	.loc 1 277 1 is_stmt 0 view .LVU847
	push	{r4, lr}
	.cfi_def_cfa_offset 8
	.cfi_offset 4, -8
	.cfi_offset 14, -4
	.loc 1 277 1 view .LVU848
	mov	r4, r0
	.loc 1 278 11 view .LVU849
	ldr	r0, [r0, #16]
.LVL164:
	.loc 1 278 5 view .LVU850
	cbz	r0, .L93
	.loc 1 282 2 is_stmt 1 view .LVU851
	bl	net_buf_unref
.LVL165:
	.loc 1 283 2 view .LVU852
	.loc 1 283 11 is_stmt 0 view .LVU853
	movs	r3, #0
	str	r3, [r4, #16]
.L93:
	.loc 1 284 1 view .LVU854
	pop	{r4, pc}
	.loc 1 284 1 view .LVU855
	.cfi_endproc
.LFE597:
	.size	bt_conn_reset_rx_state, .-bt_conn_reset_rx_state
	.section	.text.conn_cleanup,"ax",%progbits
	.align	1
	.syntax unified
	.thumb
	.thumb_func
	.type	conn_cleanup, %function
conn_cleanup:
.LVL166:
.LFB610:
	.loc 1 770 1 is_stmt 1 view -0
	.cfi_startproc
	@ args = 0, pretend = 0, frame = 0
	@ frame_needed = 0, uses_anonymous_args = 0
	.loc 1 771 2 view .LVU857
	.loc 1 774 2 view .LVU858
	.loc 1 770 1 is_stmt 0 view .LVU859
	push	{r4, r5, r6, r7, r8, lr}
	.cfi_def_cfa_offset 24
	.cfi_offset 4, -24
	.cfi_offset 5, -20
	.cfi_offset 6, -16
	.cfi_offset 7, -12
	.cfi_offset 8, -8
	.cfi_offset 14, -4
	.loc 1 770 1 view .LVU860
	mov	r4, r0
.LBB1777:
.LBB1778:
	.loc 1 777 50 view .LVU861
	movs	r7, #0
.LVL167:
.L99:
	.loc 1 777 50 view .LVU862
.LBE1778:
	.loc 1 774 16 view .LVU863
	add	r6, r4, #56
.L100:
	.loc 1 774 9 is_stmt 1 view .LVU864
	.loc 1 774 16 is_stmt 0 view .LVU865
	movs	r3, #0
	movs	r2, #0
	mov	r0, r6
	bl	net_buf_get
.LVL168:
	.loc 1 774 9 view .LVU866
	mov	r3, r0
	cbnz	r0, .L101
.LBE1777:
	.loc 1 788 4 is_stmt 1 view .LVU867
	.loc 1 788 5 view .LVU868
	.loc 1 789 4 view .LVU869
	.loc 1 789 5 view .LVU870
	.loc 1 791 2 view .LVU871
	mov	r0, r4
.LVL169:
	.loc 1 791 2 is_stmt 0 view .LVU872
	bl	bt_conn_reset_rx_state
.LVL170:
	.loc 1 793 2 is_stmt 1 view .LVU873
	add	r0, r4, #88
	movs	r2, #0
	.loc 1 794 1 is_stmt 0 view .LVU874
	pop	{r4, r5, r6, r7, r8, lr}
	.cfi_remember_state
	.cfi_restore 14
	.cfi_restore 8
	.cfi_restore 7
	.cfi_restore 6
	.cfi_restore 5
	.cfi_restore 4
	.cfi_def_cfa_offset 0
.LVL171:
	.loc 1 793 2 view .LVU875
	movs	r3, #0
	b	k_work_reschedule
.LVL172:
.L101:
	.cfi_restore_state
.LBB1780:
.LBB1779:
	.loc 1 775 3 is_stmt 1 view .LVU876
	.loc 1 775 22 is_stmt 0 view .LVU877
	ldr	r5, [r3, #24]
.LVL173:
	.loc 1 777 3 is_stmt 1 view .LVU878
	.loc 1 777 50 is_stmt 0 view .LVU879
	str	r7, [r3, #24]
	.loc 1 780 3 is_stmt 1 view .LVU880
	bl	net_buf_unref
.LVL174:
	.loc 1 783 3 view .LVU881
	.loc 1 783 6 is_stmt 0 view .LVU882
	cmp	r5, #0
	beq	.L100
	.loc 1 784 4 is_stmt 1 view .LVU883
	mov	r1, r5
	mov	r0, r4
	bl	conn_tx_destroy
.LVL175:
	b	.L99
.LBE1779:
.LBE1780:
	.cfi_endproc
.LFE610:
	.size	conn_cleanup, .-conn_cleanup
	.section	.rodata.bt_conn_recv.str1.1,"aMS",%progbits,1
.LC3:
	.ascii	"Unexpected first L2CAP frame\000"
.LC4:
	.ascii	"Unexpected L2CAP continuation\000"
.LC5:
	.ascii	"Not enough buffer space for L2CAP data\000"
.LC6:
	.ascii	"Unexpected ACL flags (0x%02x)\000"
.LC7:
	.ascii	"ACL len mismatch (%u > %u)\000"
	.section	.text.bt_conn_recv,"ax",%progbits
	.align	1
	.global	bt_conn_recv
	.syntax unified
	.thumb
	.thumb_func
	.type	bt_conn_recv, %function
bt_conn_recv:
.LVL176:
.LFB599:
	.loc 1 374 1 view -0
	.cfi_startproc
	@ args = 0, pretend = 0, frame = 24
	@ frame_needed = 1, uses_anonymous_args = 0
	.loc 1 378 2 view .LVU885
	.loc 1 374 1 is_stmt 0 view .LVU886
	push	{r4, r5, r6, r7, r8, lr}
	.cfi_def_cfa_offset 24
	.cfi_offset 4, -24
	.cfi_offset 5, -20
	.cfi_offset 6, -16
	.cfi_offset 7, -12
	.cfi_offset 8, -8
	.cfi_offset 14, -4
	sub	sp, sp, #24
	.cfi_def_cfa_offset 48
	mov	r6, r2
	add	r7, sp, #0
	.cfi_def_cfa_register 7
	.loc 1 374 1 view .LVU887
	mov	r4, r0
	mov	r5, r1
	.loc 1 378 2 view .LVU888
	bl	tx_notify
.LVL177:
	.loc 1 380 2 is_stmt 1 view .LVU889
.LBB1840:
	.loc 1 380 7 view .LVU890
.LBE1840:
	.loc 1 380 5 view .LVU891
	.loc 1 382 2 view .LVU892
	.loc 1 387 9 view .LVU893
	.loc 1 388 3 view .LVU894
.LBB1841:
.LBI1841:
	.loc 1 286 13 view .LVU895
.LBB1842:
	.loc 1 289 2 view .LVU896
	.loc 1 292 2 view .LVU897
	cmp	r6, #1
	beq	.L105
	cmp	r6, #2
	bne	.L106
	.loc 1 294 3 view .LVU898
	.loc 1 294 6 is_stmt 0 view .LVU899
	ldr	r3, [r4, #16]
	cbz	r3, .L107
	.loc 1 295 4 is_stmt 1 view .LVU900
.LBB1843:
	.loc 1 295 9 view .LVU901
	.loc 1 295 58 view .LVU902
	.loc 1 295 15 view .LVU903
	.loc 1 295 3 view .LVU904
.LVL178:
	.loc 1 295 42 view .LVU905
	.loc 1 295 177 view .LVU906
	.loc 1 295 188 view .LVU907
	.loc 1 295 276 view .LVU908
	.loc 1 295 4 view .LVU909
	.loc 1 295 4 view .LVU910
.LBB1844:
	.loc 1 295 9 view .LVU911
	.loc 1 295 3 view .LVU912
	.loc 1 295 13 view .LVU913
	.loc 1 295 103 view .LVU914
	.loc 1 295 105 view .LVU915
.LBB1845:
	.loc 1 295 110 view .LVU916
	.loc 1 295 121 view .LVU917
	.loc 1 295 210 view .LVU918
	.loc 1 295 27 view .LVU919
	.loc 1 295 30 view .LVU920
	.loc 1 295 4 view .LVU921
	.loc 1 295 4 view .LVU922
	.loc 1 295 71 view .LVU923
	.loc 1 295 75 view .LVU924
	.loc 1 295 485 view .LVU925
	.loc 1 295 6 view .LVU926
	.loc 1 295 8 view .LVU927
	.loc 1 295 13 view .LVU928
	.loc 1 295 11 view .LVU929
	.loc 1 295 6 view .LVU930
	.loc 1 295 24 view .LVU931
.LBB1846:
	.loc 1 295 4 view .LVU932
	.loc 1 295 369 view .LVU933
	.loc 1 295 76 view .LVU934
.LVL179:
	.loc 1 295 3 view .LVU935
	.loc 1 295 3 view .LVU936
	.loc 1 295 3 view .LVU937
	.loc 1 295 39 view .LVU938
	.loc 1 295 68 view .LVU939
	.loc 1 295 94 view .LVU940
	.loc 1 295 120 view .LVU941
	.loc 1 295 143 view .LVU942
	.loc 1 295 205 view .LVU943
	.loc 1 295 262 view .LVU944
	.loc 1 295 327 view .LVU945
	.loc 1 295 352 view .LVU946
	.loc 1 295 353 view .LVU947
	.loc 1 295 355 view .LVU948
	.loc 1 295 385 view .LVU949
	.loc 1 295 415 view .LVU950
	.loc 1 295 447 view .LVU951
	.loc 1 295 479 view .LVU952
	.loc 1 295 511 view .LVU953
	.loc 1 295 708 view .LVU954
	.loc 1 295 732 view .LVU955
	.loc 1 295 733 view .LVU956
	.loc 1 295 735 view .LVU957
	.loc 1 295 764 view .LVU958
	.loc 1 295 793 view .LVU959
	.loc 1 295 824 view .LVU960
	.loc 1 295 855 view .LVU961
	.loc 1 295 886 view .LVU962
	.loc 1 295 1093 view .LVU963
	.loc 1 295 5 view .LVU964
	.loc 1 295 23 view .LVU965
	.loc 1 295 43 view .LVU966
	.loc 1 295 5 view .LVU967
	.loc 1 295 43 view .LVU968
	.loc 1 295 14 view .LVU969
	.loc 1 295 14 view .LVU970
	.loc 1 295 62 view .LVU971
	.loc 1 295 93 view .LVU972
	.loc 1 295 127 view .LVU973
.LBB1847:
	.loc 1 295 132 view .LVU974
	.loc 1 295 384 view .LVU975
	.loc 1 295 1445 view .LVU976
	.loc 1 295 1510 view .LVU977
	.loc 1 295 1731 view .LVU978
	.loc 1 295 1771 view .LVU979
	.loc 1 295 1796 view .LVU980
	.loc 1 295 3089 view .LVU981
	.loc 1 295 3127 view .LVU982
	.loc 1 295 3132 view .LVU983
	.loc 1 295 3738 view .LVU984
	.loc 1 295 0 is_stmt 0 view .LVU985
	ldr	r3, .L119
.LBE1847:
.LBE1846:
	.loc 1 295 150 view .LVU986
	ldr	r0, .L119+4
.LBB1849:
.LBB1848:
	.loc 1 295 177 view .LVU987
	strd	r6, r3, [r7, #16]
	.loc 1 295 177 view .LVU988
.LBE1848:
.LBE1849:
	.loc 1 295 27 is_stmt 1 view .LVU989
	.loc 1 295 8 view .LVU990
	.loc 1 295 148 view .LVU991
	.loc 1 295 150 view .LVU992
	add	r2, r7, #16
.LVL180:
	.loc 1 295 150 is_stmt 0 view .LVU993
	mov	r1, #4160
	bl	z_log_msg_static_create.constprop.0
.LVL181:
	.loc 1 295 150 view .LVU994
.LBE1845:
	.loc 1 295 108 is_stmt 1 view .LVU995
	.loc 1 295 6 view .LVU996
.LVL182:
	.loc 1 295 43 view .LVU997
.LBE1844:
	.loc 1 295 7 view .LVU998
	.loc 1 295 279 view .LVU999
	.loc 1 295 6 view .LVU1000
	.loc 1 295 19 view .LVU1001
.LBE1843:
	.loc 1 295 7 view .LVU1002
	.loc 1 296 4 view .LVU1003
	mov	r0, r4
	bl	bt_conn_reset_rx_state
.LVL183:
.L107:
	.loc 1 299 3 view .LVU1004
.LBB1850:
	.loc 1 299 8 view .LVU1005
.LBE1850:
	.loc 1 299 6 view .LVU1006
	.loc 1 302 3 view .LVU1007
	.loc 1 302 12 is_stmt 0 view .LVU1008
	str	r5, [r4, #16]
	.loc 1 303 3 is_stmt 1 view .LVU1009
.LVL184:
.L108:
	.loc 1 345 2 view .LVU1010
	.loc 1 345 10 is_stmt 0 view .LVU1011
	ldr	r1, [r4, #16]
	.loc 1 345 14 view .LVU1012
	ldrh	r0, [r1, #16]
	.loc 1 345 5 view .LVU1013
	cmp	r0, #1
	bls	.L104
	.loc 1 352 2 is_stmt 1 view .LVU1014
	.loc 1 352 16 is_stmt 0 view .LVU1015
	ldr	r3, [r1, #12]
	ldrh	r3, [r3]	@ unaligned
	adds	r3, r3, #4
	uxth	r3, r3
.LVL185:
	.loc 1 354 2 is_stmt 1 view .LVU1016
	.loc 1 354 5 is_stmt 0 view .LVU1017
	cmp	r0, r3
	bcc	.L104
	.loc 1 359 2 is_stmt 1 view .LVU1018
	.loc 1 359 5 is_stmt 0 view .LVU1019
	bls	.L113
	.loc 1 360 3 is_stmt 1 view .LVU1020
.LBB1851:
	.loc 1 360 8 view .LVU1021
	.loc 1 360 57 view .LVU1022
	.loc 1 360 14 view .LVU1023
	.loc 1 360 2 view .LVU1024
.LVL186:
	.loc 1 360 41 view .LVU1025
	.loc 1 360 176 view .LVU1026
	.loc 1 360 187 view .LVU1027
	.loc 1 360 275 view .LVU1028
.LBB1852:
	.loc 1 360 3 view .LVU1029
	.loc 1 360 5 view .LVU1030
	.loc 1 360 45 view .LVU1031
	.loc 1 360 3 view .LVU1032
.LBB1853:
	.loc 1 360 8 view .LVU1033
	.loc 1 360 2 view .LVU1034
	.loc 1 360 12 view .LVU1035
	.loc 1 360 102 view .LVU1036
	.loc 1 360 104 view .LVU1037
.LBB1854:
	.loc 1 360 107 is_stmt 0 view .LVU1038
	mov	r5, sp
.LVL187:
	.loc 1 360 109 is_stmt 1 view .LVU1039
	.loc 1 360 120 view .LVU1040
	.loc 1 360 209 view .LVU1041
	.loc 1 360 26 view .LVU1042
	.loc 1 360 29 view .LVU1043
	.loc 1 360 3 view .LVU1044
	.loc 1 360 3 view .LVU1045
	.loc 1 360 70 view .LVU1046
	.loc 1 360 82 is_stmt 0 view .LVU1047
	sub	sp, sp, #32
	mov	r2, sp
.LVL188:
	.loc 1 360 74 is_stmt 1 view .LVU1048
	.loc 1 360 484 view .LVU1049
	.loc 1 360 5 view .LVU1050
	.loc 1 360 7 view .LVU1051
	.loc 1 360 12 view .LVU1052
	.loc 1 360 10 view .LVU1053
	.loc 1 360 5 view .LVU1054
	.loc 1 360 23 view .LVU1055
.LBB1855:
	.loc 1 360 3 view .LVU1056
	.loc 1 360 368 view .LVU1057
	.loc 1 360 75 view .LVU1058
.LVL189:
	.loc 1 360 2 view .LVU1059
	.loc 1 360 2 view .LVU1060
	.loc 1 360 2 view .LVU1061
	.loc 1 360 38 view .LVU1062
	.loc 1 360 67 view .LVU1063
	.loc 1 360 93 view .LVU1064
	.loc 1 360 119 view .LVU1065
	.loc 1 360 1032 view .LVU1066
	.loc 1 360 1094 view .LVU1067
	.loc 1 360 2081 view .LVU1068
	.loc 1 360 2146 view .LVU1069
	.loc 1 360 2171 view .LVU1070
	.loc 1 360 2172 view .LVU1071
	.loc 1 360 2174 view .LVU1072
	.loc 1 360 2204 view .LVU1073
	.loc 1 360 2234 view .LVU1074
	.loc 1 360 2266 view .LVU1075
	.loc 1 360 2298 view .LVU1076
	.loc 1 360 2330 view .LVU1077
	.loc 1 360 2527 view .LVU1078
	.loc 1 360 2551 view .LVU1079
	.loc 1 360 2552 view .LVU1080
	.loc 1 360 2554 view .LVU1081
	.loc 1 360 2583 view .LVU1082
	.loc 1 360 2612 view .LVU1083
	.loc 1 360 2643 view .LVU1084
	.loc 1 360 2674 view .LVU1085
	.loc 1 360 2705 view .LVU1086
	.loc 1 360 2912 view .LVU1087
.LBB1856:
	.loc 1 360 3108 view .LVU1088
	.loc 1 360 3113 view .LVU1089
	.loc 1 360 3707 view .LVU1090
	.loc 1 360 0 is_stmt 0 view .LVU1091
	ldr	r1, .L119+8
.LBE1856:
.LBE1855:
.LBE1854:
.LBE1853:
	.loc 1 360 57 view .LVU1092
	str	r3, [r2, #28]
.LBB1866:
.LBB1863:
.LBB1861:
.LBB1857:
	.loc 1 360 176 view .LVU1093
	movs	r3, #4
.LVL190:
	.loc 1 360 176 view .LVU1094
.LBE1857:
.LBE1861:
.LBE1863:
.LBE1866:
	.loc 1 360 17 view .LVU1095
	strd	r1, r0, [r2, #20]
.LBB1867:
.LBB1864:
.LBB1862:
.LBB1858:
	.loc 1 360 2766 is_stmt 1 view .LVU1096
	.loc 1 360 7 view .LVU1097
.LVL191:
	.loc 1 360 30 view .LVU1098
	.loc 1 360 30 is_stmt 0 view .LVU1099
.LBE1858:
	.loc 1 360 9 is_stmt 1 view .LVU1100
	.loc 1 360 6 view .LVU1101
.LBB1859:
	.loc 1 360 11 view .LVU1102
	.loc 1 360 236 view .LVU1103
	.loc 1 360 1189 view .LVU1104
	.loc 1 360 1254 view .LVU1105
	.loc 1 360 1421 view .LVU1106
	.loc 1 360 1461 view .LVU1107
	.loc 1 360 2725 view .LVU1108
	.loc 1 360 2763 view .LVU1109
	.loc 1 360 2768 view .LVU1110
	.loc 1 360 3212 view .LVU1111
	.loc 1 360 2766 view .LVU1112
	.loc 1 360 7 view .LVU1113
	.loc 1 360 30 view .LVU1114
	.loc 1 360 30 is_stmt 0 view .LVU1115
.LBE1859:
	.loc 1 360 9 is_stmt 1 view .LVU1116
	.loc 1 360 5 view .LVU1117
	.loc 1 360 28 view .LVU1118
	.loc 1 360 52 view .LVU1119
	.loc 1 360 80 view .LVU1120
	.loc 1 360 256 view .LVU1121
	.loc 1 360 16 view .LVU1122
.LBB1860:
	.loc 1 360 6 view .LVU1123
	.loc 1 360 164 view .LVU1124
	.loc 1 360 166 view .LVU1125
	.loc 1 360 176 is_stmt 0 view .LVU1126
	str	r3, [r2, #16]!
.LVL192:
	.loc 1 360 176 view .LVU1127
.LBE1860:
.LBE1862:
	.loc 1 360 26 is_stmt 1 view .LVU1128
	.loc 1 360 7 view .LVU1129
	.loc 1 360 147 view .LVU1130
	.loc 1 360 149 view .LVU1131
	ldr	r0, .L119+4
.LVL193:
	.loc 1 360 149 is_stmt 0 view .LVU1132
	mov	r1, #8256
	bl	z_log_msg_static_create.constprop.0
.LVL194:
	.loc 1 360 149 view .LVU1133
.LBE1864:
.LBE1867:
.LBE1852:
.LBE1851:
	.loc 1 361 3 view .LVU1134
	mov	r0, r4
.LBB1870:
.LBB1869:
.LBB1868:
.LBB1865:
	mov	sp, r5
.LVL195:
	.loc 1 361 3 view .LVU1135
.LBE1865:
	.loc 1 360 107 is_stmt 1 view .LVU1136
	.loc 1 360 5 view .LVU1137
	.loc 1 360 42 view .LVU1138
.LBE1868:
	.loc 1 360 6 view .LVU1139
.LBE1869:
	.loc 1 360 278 view .LVU1140
	.loc 1 360 5 view .LVU1141
	.loc 1 360 18 view .LVU1142
.LBE1870:
	.loc 1 360 6 view .LVU1143
	.loc 1 361 3 view .LVU1144
	bl	bt_conn_reset_rx_state
.LVL196:
	.loc 1 362 3 view .LVU1145
	b	.L104
.LVL197:
.L105:
	.loc 1 305 3 view .LVU1146
	.loc 1 305 12 is_stmt 0 view .LVU1147
	ldr	r0, [r4, #16]
	.loc 1 305 6 view .LVU1148
	cbnz	r0, .L109
	.loc 1 306 4 is_stmt 1 view .LVU1149
.LBB1871:
	.loc 1 306 9 view .LVU1150
	.loc 1 306 58 view .LVU1151
	.loc 1 306 15 view .LVU1152
	.loc 1 306 3 view .LVU1153
.LVL198:
	.loc 1 306 42 view .LVU1154
	.loc 1 306 177 view .LVU1155
	.loc 1 306 188 view .LVU1156
	.loc 1 306 276 view .LVU1157
	.loc 1 306 4 view .LVU1158
	.loc 1 306 4 view .LVU1159
.LBB1872:
	.loc 1 306 9 view .LVU1160
	.loc 1 306 3 view .LVU1161
	.loc 1 306 13 view .LVU1162
	.loc 1 306 103 view .LVU1163
	.loc 1 306 105 view .LVU1164
.LBB1873:
	.loc 1 306 110 view .LVU1165
	.loc 1 306 121 view .LVU1166
	.loc 1 306 210 view .LVU1167
	.loc 1 306 27 view .LVU1168
	.loc 1 306 30 view .LVU1169
	.loc 1 306 4 view .LVU1170
	.loc 1 306 4 view .LVU1171
	.loc 1 306 71 view .LVU1172
	.loc 1 306 75 view .LVU1173
	.loc 1 306 485 view .LVU1174
	.loc 1 306 6 view .LVU1175
	.loc 1 306 8 view .LVU1176
	.loc 1 306 13 view .LVU1177
	.loc 1 306 11 view .LVU1178
	.loc 1 306 6 view .LVU1179
	.loc 1 306 24 view .LVU1180
.LBB1874:
	.loc 1 306 4 view .LVU1181
	.loc 1 306 369 view .LVU1182
	.loc 1 306 76 view .LVU1183
.LVL199:
	.loc 1 306 3 view .LVU1184
	.loc 1 306 3 view .LVU1185
	.loc 1 306 3 view .LVU1186
	.loc 1 306 39 view .LVU1187
	.loc 1 306 68 view .LVU1188
	.loc 1 306 94 view .LVU1189
	.loc 1 306 120 view .LVU1190
	.loc 1 306 143 view .LVU1191
	.loc 1 306 205 view .LVU1192
	.loc 1 306 262 view .LVU1193
	.loc 1 306 327 view .LVU1194
	.loc 1 306 352 view .LVU1195
	.loc 1 306 353 view .LVU1196
	.loc 1 306 355 view .LVU1197
	.loc 1 306 385 view .LVU1198
	.loc 1 306 415 view .LVU1199
	.loc 1 306 447 view .LVU1200
	.loc 1 306 479 view .LVU1201
	.loc 1 306 511 view .LVU1202
	.loc 1 306 708 view .LVU1203
	.loc 1 306 732 view .LVU1204
	.loc 1 306 733 view .LVU1205
	.loc 1 306 735 view .LVU1206
	.loc 1 306 764 view .LVU1207
	.loc 1 306 793 view .LVU1208
	.loc 1 306 824 view .LVU1209
	.loc 1 306 855 view .LVU1210
	.loc 1 306 886 view .LVU1211
	.loc 1 306 1093 view .LVU1212
	.loc 1 306 5 view .LVU1213
	.loc 1 306 23 view .LVU1214
	.loc 1 306 43 view .LVU1215
	.loc 1 306 5 view .LVU1216
	.loc 1 306 43 view .LVU1217
	.loc 1 306 14 view .LVU1218
	.loc 1 306 14 view .LVU1219
	.loc 1 306 62 view .LVU1220
	.loc 1 306 93 view .LVU1221
	.loc 1 306 127 view .LVU1222
.LBB1875:
	.loc 1 306 132 view .LVU1223
	.loc 1 306 385 view .LVU1224
	.loc 1 306 1450 view .LVU1225
	.loc 1 306 1515 view .LVU1226
	.loc 1 306 1738 view .LVU1227
	.loc 1 306 1778 view .LVU1228
	.loc 1 306 1803 view .LVU1229
	.loc 1 306 3098 view .LVU1230
	.loc 1 306 3136 view .LVU1231
	.loc 1 306 3141 view .LVU1232
	.loc 1 306 3753 view .LVU1233
	.loc 1 306 0 is_stmt 0 view .LVU1234
	ldr	r3, .L119+12
	str	r3, [r7, #20]
	.loc 1 306 3139 is_stmt 1 view .LVU1235
	.loc 1 306 8 view .LVU1236
.LVL200:
	.loc 1 306 31 view .LVU1237
	.loc 1 306 31 is_stmt 0 view .LVU1238
.LBE1875:
	.loc 1 306 130 is_stmt 1 view .LVU1239
	.loc 1 306 6 view .LVU1240
	.loc 1 306 29 view .LVU1241
	.loc 1 306 53 view .LVU1242
	.loc 1 306 81 view .LVU1243
	.loc 1 306 257 view .LVU1244
	.loc 1 306 17 view .LVU1245
.LBB1876:
	.loc 1 306 7 view .LVU1246
	.loc 1 306 165 view .LVU1247
	.loc 1 306 167 view .LVU1248
	.loc 1 306 177 is_stmt 0 view .LVU1249
	movs	r3, #2
.LBE1876:
.LBE1874:
	.loc 1 306 150 view .LVU1250
	ldr	r0, .L119+4
.LBB1878:
.LBB1877:
	.loc 1 306 177 view .LVU1251
	str	r3, [r7, #16]
.LVL201:
	.loc 1 306 177 view .LVU1252
.LBE1877:
.LBE1878:
	.loc 1 306 27 is_stmt 1 view .LVU1253
	.loc 1 306 8 view .LVU1254
	.loc 1 306 148 view .LVU1255
	.loc 1 306 150 view .LVU1256
	add	r2, r7, #16
.LVL202:
	.loc 1 306 150 is_stmt 0 view .LVU1257
	mov	r1, #4160
	bl	z_log_msg_static_create.constprop.0
.LVL203:
	.loc 1 306 150 view .LVU1258
.LBE1873:
	.loc 1 306 108 is_stmt 1 view .LVU1259
	.loc 1 306 6 view .LVU1260
.LVL204:
	.loc 1 306 43 view .LVU1261
.LBE1872:
	.loc 1 306 7 view .LVU1262
	.loc 1 306 279 view .LVU1263
	.loc 1 306 6 view .LVU1264
	.loc 1 306 19 view .LVU1265
.LBE1871:
	.loc 1 306 7 view .LVU1266
	.loc 1 307 4 view .LVU1267
.L117:
.LBB1879:
.LBB1880:
.LBB1881:
	.loc 1 339 107 view .LVU1268
	.loc 1 339 5 view .LVU1269
	.loc 1 339 42 view .LVU1270
.LBE1881:
	.loc 1 339 6 view .LVU1271
.LBE1880:
	.loc 1 339 278 view .LVU1272
	.loc 1 339 5 view .LVU1273
	.loc 1 339 18 view .LVU1274
.LBE1879:
	.loc 1 339 6 view .LVU1275
	.loc 1 340 3 view .LVU1276
	mov	r0, r4
	bl	bt_conn_reset_rx_state
.LVL205:
	b	.L118
.LVL206:
.L109:
	.loc 1 312 3 view .LVU1277
	.loc 1 312 11 is_stmt 0 view .LVU1278
	ldrh	r6, [r5, #16]
.LVL207:
	.loc 1 312 6 view .LVU1279
	cbnz	r6, .L111
.L118:
	.loc 1 341 3 is_stmt 1 view .LVU1280
	mov	r0, r5
	bl	net_buf_unref
.LVL208:
	.loc 1 342 3 view .LVU1281
.L104:
	.loc 1 342 3 is_stmt 0 view .LVU1282
.LBE1842:
.LBE1841:
	.loc 1 392 1 view .LVU1283
	adds	r7, r7, #24
	.cfi_remember_state
	.cfi_def_cfa_offset 24
	mov	sp, r7
	.cfi_def_cfa_register 13
	@ sp needed
	pop	{r4, r5, r6, r7, r8, pc}
.LVL209:
.L111:
	.cfi_restore_state
.LBB1907:
.LBB1906:
	.loc 1 318 3 is_stmt 1 view .LVU1284
.LBB1893:
.LBI1893:
	.loc 4 2255 22 view .LVU1285
.LBB1894:
	.loc 4 2257 2 view .LVU1286
	.loc 4 2257 9 is_stmt 0 view .LVU1287
	adds	r0, r0, #12
.LVL210:
	.loc 4 2257 9 view .LVU1288
	bl	net_buf_simple_tailroom
.LVL211:
	.loc 4 2257 9 view .LVU1289
.LBE1894:
.LBE1893:
	.loc 1 318 6 view .LVU1290
	cmp	r6, r0
	bls	.L112
	.loc 1 319 4 is_stmt 1 view .LVU1291
.LBB1895:
	.loc 1 319 9 view .LVU1292
	.loc 1 319 58 view .LVU1293
	.loc 1 319 15 view .LVU1294
	.loc 1 319 3 view .LVU1295
.LVL212:
	.loc 1 319 42 view .LVU1296
	.loc 1 319 177 view .LVU1297
	.loc 1 319 188 view .LVU1298
	.loc 1 319 276 view .LVU1299
	.loc 1 319 4 view .LVU1300
	.loc 1 319 4 view .LVU1301
.LBB1896:
	.loc 1 319 9 view .LVU1302
	.loc 1 319 3 view .LVU1303
	.loc 1 319 13 view .LVU1304
	.loc 1 319 103 view .LVU1305
	.loc 1 319 105 view .LVU1306
.LBB1897:
	.loc 1 319 110 view .LVU1307
	.loc 1 319 121 view .LVU1308
	.loc 1 319 210 view .LVU1309
	.loc 1 319 27 view .LVU1310
	.loc 1 319 30 view .LVU1311
	.loc 1 319 4 view .LVU1312
	.loc 1 319 4 view .LVU1313
	.loc 1 319 71 view .LVU1314
	.loc 1 319 75 view .LVU1315
	.loc 1 319 485 view .LVU1316
	.loc 1 319 6 view .LVU1317
	.loc 1 319 8 view .LVU1318
	.loc 1 319 13 view .LVU1319
	.loc 1 319 11 view .LVU1320
	.loc 1 319 6 view .LVU1321
	.loc 1 319 24 view .LVU1322
.LBB1898:
	.loc 1 319 4 view .LVU1323
	.loc 1 319 369 view .LVU1324
	.loc 1 319 76 view .LVU1325
.LVL213:
	.loc 1 319 3 view .LVU1326
	.loc 1 319 3 view .LVU1327
	.loc 1 319 3 view .LVU1328
	.loc 1 319 39 view .LVU1329
	.loc 1 319 68 view .LVU1330
	.loc 1 319 94 view .LVU1331
	.loc 1 319 120 view .LVU1332
	.loc 1 319 143 view .LVU1333
	.loc 1 319 205 view .LVU1334
	.loc 1 319 262 view .LVU1335
	.loc 1 319 327 view .LVU1336
	.loc 1 319 352 view .LVU1337
	.loc 1 319 353 view .LVU1338
	.loc 1 319 355 view .LVU1339
	.loc 1 319 385 view .LVU1340
	.loc 1 319 415 view .LVU1341
	.loc 1 319 447 view .LVU1342
	.loc 1 319 479 view .LVU1343
	.loc 1 319 511 view .LVU1344
	.loc 1 319 708 view .LVU1345
	.loc 1 319 732 view .LVU1346
	.loc 1 319 733 view .LVU1347
	.loc 1 319 735 view .LVU1348
	.loc 1 319 764 view .LVU1349
	.loc 1 319 793 view .LVU1350
	.loc 1 319 824 view .LVU1351
	.loc 1 319 855 view .LVU1352
	.loc 1 319 886 view .LVU1353
	.loc 1 319 1093 view .LVU1354
	.loc 1 319 5 view .LVU1355
	.loc 1 319 23 view .LVU1356
	.loc 1 319 43 view .LVU1357
	.loc 1 319 5 view .LVU1358
	.loc 1 319 43 view .LVU1359
	.loc 1 319 14 view .LVU1360
	.loc 1 319 14 view .LVU1361
	.loc 1 319 62 view .LVU1362
	.loc 1 319 93 view .LVU1363
	.loc 1 319 127 view .LVU1364
.LBB1899:
	.loc 1 319 132 view .LVU1365
	.loc 1 319 394 view .LVU1366
	.loc 1 319 1495 view .LVU1367
	.loc 1 319 1560 view .LVU1368
	.loc 1 319 1801 view .LVU1369
	.loc 1 319 1841 view .LVU1370
	.loc 1 319 1866 view .LVU1371
	.loc 1 319 3179 view .LVU1372
	.loc 1 319 3217 view .LVU1373
	.loc 1 319 3222 view .LVU1374
	.loc 1 319 3888 view .LVU1375
	.loc 1 319 0 is_stmt 0 view .LVU1376
	ldr	r3, .L119+16
	str	r3, [r7, #20]
	.loc 1 319 3220 is_stmt 1 view .LVU1377
	.loc 1 319 8 view .LVU1378
.LVL214:
	.loc 1 319 31 view .LVU1379
	.loc 1 319 31 is_stmt 0 view .LVU1380
.LBE1899:
	.loc 1 319 130 is_stmt 1 view .LVU1381
	.loc 1 319 6 view .LVU1382
	.loc 1 319 29 view .LVU1383
	.loc 1 319 53 view .LVU1384
	.loc 1 319 81 view .LVU1385
	.loc 1 319 257 view .LVU1386
	.loc 1 319 17 view .LVU1387
.LBB1900:
	.loc 1 319 7 view .LVU1388
	.loc 1 319 165 view .LVU1389
	.loc 1 319 167 view .LVU1390
	.loc 1 319 177 is_stmt 0 view .LVU1391
	movs	r3, #2
	str	r3, [r7, #16]
.LVL215:
	.loc 1 319 177 view .LVU1392
.LBE1900:
.LBE1898:
	.loc 1 319 27 is_stmt 1 view .LVU1393
	.loc 1 319 8 view .LVU1394
	.loc 1 319 148 view .LVU1395
	.loc 1 319 150 view .LVU1396
	ldr	r0, .L119+4
	add	r2, r7, #16
.LVL216:
	.loc 1 319 150 is_stmt 0 view .LVU1397
	mov	r1, #4160
	bl	z_log_msg_static_create.constprop.0
.LVL217:
	.loc 1 319 150 view .LVU1398
.LBE1897:
	.loc 1 319 108 is_stmt 1 view .LVU1399
	.loc 1 319 6 view .LVU1400
.LVL218:
	.loc 1 319 43 view .LVU1401
.LBE1896:
	.loc 1 319 7 view .LVU1402
	.loc 1 319 279 view .LVU1403
	.loc 1 319 6 view .LVU1404
	.loc 1 319 19 view .LVU1405
.LBE1895:
	.loc 1 319 7 view .LVU1406
	.loc 1 325 4 view .LVU1407
	movs	r2, #0
	ldr	r1, [r4, #16]
	mov	r0, r4
	bl	bt_l2cap_recv
.LVL219:
	.loc 1 326 4 view .LVU1408
	.loc 1 326 13 is_stmt 0 view .LVU1409
	movs	r3, #0
	str	r3, [r4, #16]
	.loc 1 327 4 is_stmt 1 view .LVU1410
	b	.L118
.LVL220:
.L112:
	.loc 1 331 3 view .LVU1411
.LBB1901:
.LBI1901:
	.loc 4 1510 21 view .LVU1412
.LBB1902:
	.loc 4 1513 2 view .LVU1413
	.loc 4 1513 9 is_stmt 0 view .LVU1414
	ldr	r0, [r4, #16]
	ldrh	r2, [r5, #16]
.LVL221:
	.loc 4 1513 9 view .LVU1415
	ldr	r1, [r5, #12]
	adds	r0, r0, #12
	bl	net_buf_simple_add_mem
.LVL222:
	.loc 4 1513 9 view .LVU1416
.LBE1902:
.LBE1901:
	.loc 1 332 3 is_stmt 1 view .LVU1417
	mov	r0, r5
	bl	net_buf_unref
.LVL223:
	.loc 1 333 3 view .LVU1418
	b	.L108
.LVL224:
.L106:
	.loc 1 339 3 view .LVU1419
.LBB1903:
	.loc 1 339 8 view .LVU1420
	.loc 1 339 57 view .LVU1421
	.loc 1 339 14 view .LVU1422
	.loc 1 339 2 view .LVU1423
	.loc 1 339 41 view .LVU1424
	.loc 1 339 176 view .LVU1425
	.loc 1 339 187 view .LVU1426
	.loc 1 339 275 view .LVU1427
.LBB1891:
	.loc 1 339 3 view .LVU1428
	.loc 1 339 5 view .LVU1429
	.loc 1 339 3 view .LVU1430
.LBB1889:
	.loc 1 339 8 view .LVU1431
	.loc 1 339 2 view .LVU1432
	.loc 1 339 12 view .LVU1433
	.loc 1 339 102 view .LVU1434
	.loc 1 339 104 view .LVU1435
.LBB1882:
	.loc 1 339 107 is_stmt 0 view .LVU1436
	mov	r8, sp
	.loc 1 339 109 is_stmt 1 view .LVU1437
	.loc 1 339 120 view .LVU1438
.LVL225:
	.loc 1 339 209 view .LVU1439
	.loc 1 339 26 view .LVU1440
	.loc 1 339 29 view .LVU1441
	.loc 1 339 3 view .LVU1442
	.loc 1 339 3 view .LVU1443
	.loc 1 339 70 view .LVU1444
	.loc 1 339 82 is_stmt 0 view .LVU1445
	sub	sp, sp, #32
	mov	r2, sp
.LVL226:
	.loc 1 339 74 is_stmt 1 view .LVU1446
	.loc 1 339 484 view .LVU1447
	.loc 1 339 5 view .LVU1448
	.loc 1 339 7 view .LVU1449
	.loc 1 339 12 view .LVU1450
	.loc 1 339 10 view .LVU1451
	.loc 1 339 5 view .LVU1452
	.loc 1 339 23 view .LVU1453
.LBB1883:
	.loc 1 339 3 view .LVU1454
	.loc 1 339 368 view .LVU1455
	.loc 1 339 75 view .LVU1456
.LVL227:
	.loc 1 339 2 view .LVU1457
	.loc 1 339 2 view .LVU1458
	.loc 1 339 2 view .LVU1459
	.loc 1 339 38 view .LVU1460
	.loc 1 339 67 view .LVU1461
	.loc 1 339 93 view .LVU1462
	.loc 1 339 119 view .LVU1463
	.loc 1 339 586 view .LVU1464
	.loc 1 339 648 view .LVU1465
	.loc 1 339 1169 view .LVU1466
	.loc 1 339 1234 view .LVU1467
	.loc 1 339 1259 view .LVU1468
	.loc 1 339 1260 view .LVU1469
	.loc 1 339 1262 view .LVU1470
	.loc 1 339 1292 view .LVU1471
	.loc 1 339 1322 view .LVU1472
	.loc 1 339 1354 view .LVU1473
	.loc 1 339 1386 view .LVU1474
	.loc 1 339 1418 view .LVU1475
	.loc 1 339 1615 view .LVU1476
	.loc 1 339 1639 view .LVU1477
	.loc 1 339 1640 view .LVU1478
	.loc 1 339 1642 view .LVU1479
	.loc 1 339 1671 view .LVU1480
	.loc 1 339 1700 view .LVU1481
	.loc 1 339 1731 view .LVU1482
	.loc 1 339 1762 view .LVU1483
	.loc 1 339 1793 view .LVU1484
	.loc 1 339 2000 view .LVU1485
.LBB1884:
	.loc 1 339 3135 view .LVU1486
	.loc 1 339 3140 view .LVU1487
	.loc 1 339 3752 view .LVU1488
	.loc 1 339 0 is_stmt 0 view .LVU1489
	ldr	r3, .L119+20
.LBE1884:
.LBE1883:
	.loc 1 339 149 view .LVU1490
	ldr	r0, .L119+4
.LBE1882:
.LBE1889:
.LBE1891:
.LBE1903:
	.loc 1 292 2 view .LVU1491
	strd	r3, r6, [r2, #20]
.LBB1904:
.LBB1892:
.LBB1890:
.LBB1888:
.LBB1887:
.LBB1885:
	.loc 1 339 2766 is_stmt 1 view .LVU1492
	.loc 1 339 7 view .LVU1493
.LVL228:
	.loc 1 339 30 view .LVU1494
	.loc 1 339 30 is_stmt 0 view .LVU1495
.LBE1885:
	.loc 1 339 9 is_stmt 1 view .LVU1496
	.loc 1 339 5 view .LVU1497
	.loc 1 339 28 view .LVU1498
	.loc 1 339 52 view .LVU1499
	.loc 1 339 80 view .LVU1500
	.loc 1 339 256 view .LVU1501
	.loc 1 339 16 view .LVU1502
.LBB1886:
	.loc 1 339 6 view .LVU1503
	.loc 1 339 164 view .LVU1504
	.loc 1 339 166 view .LVU1505
	.loc 1 339 176 is_stmt 0 view .LVU1506
	movs	r3, #3
	str	r3, [r2, #16]!
.LVL229:
	.loc 1 339 176 view .LVU1507
.LBE1886:
.LBE1887:
	.loc 1 339 26 is_stmt 1 view .LVU1508
	.loc 1 339 7 view .LVU1509
	.loc 1 339 147 view .LVU1510
	.loc 1 339 149 view .LVU1511
	mov	r1, #6208
	bl	z_log_msg_static_create.constprop.0
.LVL230:
	.loc 1 339 149 is_stmt 0 view .LVU1512
	mov	sp, r8
.LVL231:
	.loc 1 339 149 view .LVU1513
	b	.L117
.LVL232:
.L113:
	.loc 1 339 149 view .LVU1514
.LBE1888:
.LBE1890:
.LBE1892:
.LBE1904:
	.loc 1 366 2 is_stmt 1 view .LVU1515
	.loc 1 367 2 view .LVU1516
	.loc 1 367 11 is_stmt 0 view .LVU1517
	movs	r3, #0
.LVL233:
	.loc 1 367 11 view .LVU1518
	str	r3, [r4, #16]
.LVL234:
	.loc 1 369 2 is_stmt 1 view .LVU1519
.LBB1905:
	.loc 1 369 7 view .LVU1520
.LBE1905:
	.loc 1 369 5 view .LVU1521
	.loc 1 370 2 view .LVU1522
	movs	r2, #1
	mov	r0, r4
	bl	bt_l2cap_recv
.LVL235:
	.loc 1 370 2 is_stmt 0 view .LVU1523
.LBE1906:
.LBE1907:
	.loc 1 390 5 is_stmt 1 view .LVU1524
	.loc 1 390 6 view .LVU1525
	b	.L104
.L120:
	.align	2
.L119:
	.word	.LC3
	.word	log_const_bt_conn
	.word	.LC7
	.word	.LC4
	.word	.LC5
	.word	.LC6
	.cfi_endproc
.LFE599:
	.size	bt_conn_recv, .-bt_conn_recv
	.section	.rodata.bt_conn_send_cb.str1.1,"aMS",%progbits,1
.LC8:
	.ascii	"not enough room in user_data %d < %d\000"
.LC9:
	.ascii	"not connected!\000"
.LC10:
	.ascii	"Disconnected while allocating context\000"
	.section	.text.bt_conn_send_cb,"ax",%progbits
	.align	1
	.global	bt_conn_send_cb
	.syntax unified
	.thumb
	.thumb_func
	.type	bt_conn_send_cb, %function
bt_conn_send_cb:
.LVL236:
.LFB602:
	.loc 1 443 1 view -0
	.cfi_startproc
	@ args = 0, pretend = 0, frame = 24
	@ frame_needed = 1, uses_anonymous_args = 0
	.loc 1 444 2 view .LVU1527
	.loc 1 446 2 view .LVU1528
.LBB1954:
	.loc 1 446 7 view .LVU1529
.LBE1954:
	.loc 1 446 5 view .LVU1530
	.loc 1 449 2 view .LVU1531
	.loc 1 443 1 is_stmt 0 view .LVU1532
	push	{r4, r5, r6, r7, r8, r9, lr}
	.cfi_def_cfa_offset 28
	.cfi_offset 4, -28
	.cfi_offset 5, -24
	.cfi_offset 6, -20
	.cfi_offset 7, -16
	.cfi_offset 8, -12
	.cfi_offset 9, -8
	.cfi_offset 14, -4
	sub	sp, sp, #28
	.cfi_def_cfa_offset 56
	mov	r9, r3
	.loc 1 449 9 view .LVU1533
	ldrb	r3, [r1, #11]	@ zero_extendqisi2
.LVL237:
	.loc 1 449 5 view .LVU1534
	cmp	r3, #7
	.loc 1 443 1 view .LVU1535
	add	r7, sp, #0
	.cfi_def_cfa_register 7
	.loc 1 443 1 view .LVU1536
	mov	r6, r0
	mov	r5, r1
	mov	r8, r2
	.loc 1 449 5 view .LVU1537
	bhi	.L122
	.loc 1 450 3 is_stmt 1 view .LVU1538
.LBB1955:
	.loc 1 450 8 view .LVU1539
	.loc 1 450 57 view .LVU1540
	.loc 1 450 14 view .LVU1541
	.loc 1 450 2 view .LVU1542
.LVL238:
	.loc 1 450 41 view .LVU1543
	.loc 1 450 176 view .LVU1544
	.loc 1 450 187 view .LVU1545
	.loc 1 450 275 view .LVU1546
.LBB1956:
	.loc 1 450 3 view .LVU1547
	.loc 1 450 5 view .LVU1548
	.loc 1 450 51 view .LVU1549
	.loc 1 450 3 view .LVU1550
.LBB1957:
	.loc 1 450 8 view .LVU1551
	.loc 1 450 2 view .LVU1552
.LBE1957:
.LBE1956:
.LBE1955:
	.loc 1 450 3 view .LVU1553
	.loc 1 450 12 view .LVU1554
	.loc 1 450 107 view .LVU1555
	.loc 1 450 3 view .LVU1556
.LBB1980:
.LBB1976:
.LBB1971:
	.loc 1 450 12 view .LVU1557
	.loc 1 450 102 view .LVU1558
	.loc 1 450 104 view .LVU1559
.LBB1958:
	.loc 1 450 107 is_stmt 0 view .LVU1560
	mov	r4, sp
	.loc 1 450 109 is_stmt 1 view .LVU1561
	.loc 1 450 120 view .LVU1562
.LVL239:
	.loc 1 450 209 view .LVU1563
	.loc 1 450 26 view .LVU1564
.LBE1958:
.LBE1971:
.LBE1976:
.LBE1980:
	.loc 1 450 3 view .LVU1565
	.loc 1 450 368 view .LVU1566
	.loc 1 450 75 view .LVU1567
	.loc 1 450 2 view .LVU1568
	.loc 1 450 2 view .LVU1569
	.loc 1 450 2 view .LVU1570
	.loc 1 450 38 view .LVU1571
	.loc 1 450 4 view .LVU1572
	.loc 1 450 30 view .LVU1573
	.loc 1 450 56 view .LVU1574
	.loc 1 450 969 view .LVU1575
	.loc 1 450 1031 view .LVU1576
	.loc 1 450 2018 view .LVU1577
	.loc 1 450 2083 view .LVU1578
	.loc 1 450 2108 view .LVU1579
	.loc 1 450 2109 view .LVU1580
	.loc 1 450 2111 view .LVU1581
	.loc 1 450 2141 view .LVU1582
	.loc 1 450 2171 view .LVU1583
	.loc 1 450 2203 view .LVU1584
	.loc 1 450 2235 view .LVU1585
	.loc 1 450 2267 view .LVU1586
	.loc 1 450 2464 view .LVU1587
	.loc 1 450 2488 view .LVU1588
	.loc 1 450 2489 view .LVU1589
	.loc 1 450 2491 view .LVU1590
	.loc 1 450 2520 view .LVU1591
	.loc 1 450 2549 view .LVU1592
	.loc 1 450 2580 view .LVU1593
	.loc 1 450 2611 view .LVU1594
	.loc 1 450 2642 view .LVU1595
	.loc 1 450 2849 view .LVU1596
	.loc 1 450 4 view .LVU1597
	.loc 1 450 22 view .LVU1598
	.loc 1 450 42 view .LVU1599
	.loc 1 450 4 view .LVU1600
	.loc 1 450 42 view .LVU1601
	.loc 1 450 13 view .LVU1602
	.loc 1 450 13 view .LVU1603
	.loc 1 450 61 view .LVU1604
	.loc 1 450 92 view .LVU1605
	.loc 1 450 126 view .LVU1606
	.loc 1 450 131 view .LVU1607
	.loc 1 450 391 view .LVU1608
	.loc 1 450 1484 view .LVU1609
	.loc 1 450 1549 view .LVU1610
	.loc 1 450 1573 view .LVU1611
	.loc 1 450 1637 view .LVU1612
	.loc 1 450 1648 view .LVU1613
	.loc 1 450 1770 view .LVU1614
	.loc 1 450 1786 view .LVU1615
	.loc 1 450 1826 view .LVU1616
	.loc 1 450 1851 view .LVU1617
	.loc 1 450 3160 view .LVU1618
	.loc 1 450 3201 view .LVU1619
	.loc 1 450 7 view .LVU1620
	.loc 1 450 30 view .LVU1621
	.loc 1 450 129 view .LVU1622
	.loc 1 450 6 view .LVU1623
	.loc 1 450 11 view .LVU1624
	.loc 1 450 236 view .LVU1625
	.loc 1 450 1189 view .LVU1626
	.loc 1 450 1254 view .LVU1627
	.loc 1 450 1278 view .LVU1628
	.loc 1 450 1307 view .LVU1629
	.loc 1 450 1318 view .LVU1630
	.loc 1 450 1405 view .LVU1631
	.loc 1 450 1421 view .LVU1632
	.loc 1 450 1461 view .LVU1633
	.loc 1 450 2725 view .LVU1634
	.loc 1 450 2766 view .LVU1635
	.loc 1 450 7 view .LVU1636
	.loc 1 450 30 view .LVU1637
	.loc 1 450 9 view .LVU1638
	.loc 1 450 6 view .LVU1639
	.loc 1 450 11 view .LVU1640
	.loc 1 450 236 view .LVU1641
	.loc 1 450 1189 view .LVU1642
	.loc 1 450 1254 view .LVU1643
	.loc 1 450 1278 view .LVU1644
	.loc 1 450 1307 view .LVU1645
	.loc 1 450 1318 view .LVU1646
	.loc 1 450 1405 view .LVU1647
	.loc 1 450 1421 view .LVU1648
	.loc 1 450 1461 view .LVU1649
	.loc 1 450 2725 view .LVU1650
	.loc 1 450 2766 view .LVU1651
	.loc 1 450 7 view .LVU1652
	.loc 1 450 30 view .LVU1653
	.loc 1 450 9 view .LVU1654
	.loc 1 450 5 view .LVU1655
	.loc 1 450 28 view .LVU1656
	.loc 1 450 52 view .LVU1657
	.loc 1 450 80 view .LVU1658
	.loc 1 450 256 view .LVU1659
	.loc 1 450 16 view .LVU1660
.LBB1981:
.LBB1977:
.LBB1972:
.LBB1967:
	.loc 1 450 29 view .LVU1661
	.loc 1 450 3 view .LVU1662
	.loc 1 450 3 view .LVU1663
	.loc 1 450 70 view .LVU1664
	.loc 1 450 82 is_stmt 0 view .LVU1665
	sub	sp, sp, #32
	mov	r2, sp
.LVL240:
	.loc 1 450 74 is_stmt 1 view .LVU1666
	.loc 1 450 484 view .LVU1667
	.loc 1 450 5 view .LVU1668
	.loc 1 450 7 view .LVU1669
	.loc 1 450 12 view .LVU1670
	.loc 1 450 10 view .LVU1671
	.loc 1 450 5 view .LVU1672
	.loc 1 450 23 view .LVU1673
.LBB1959:
	.loc 1 450 3 view .LVU1674
	.loc 1 450 368 view .LVU1675
	.loc 1 450 75 view .LVU1676
.LVL241:
	.loc 1 450 2 view .LVU1677
	.loc 1 450 2 view .LVU1678
	.loc 1 450 2 view .LVU1679
	.loc 1 450 38 view .LVU1680
	.loc 1 450 67 view .LVU1681
	.loc 1 450 93 view .LVU1682
	.loc 1 450 119 view .LVU1683
	.loc 1 450 1032 view .LVU1684
	.loc 1 450 1094 view .LVU1685
	.loc 1 450 2081 view .LVU1686
	.loc 1 450 2146 view .LVU1687
	.loc 1 450 2171 view .LVU1688
	.loc 1 450 2172 view .LVU1689
	.loc 1 450 2174 view .LVU1690
	.loc 1 450 2204 view .LVU1691
	.loc 1 450 2234 view .LVU1692
	.loc 1 450 2266 view .LVU1693
	.loc 1 450 2298 view .LVU1694
	.loc 1 450 2330 view .LVU1695
	.loc 1 450 2527 view .LVU1696
	.loc 1 450 2551 view .LVU1697
	.loc 1 450 2552 view .LVU1698
	.loc 1 450 2554 view .LVU1699
	.loc 1 450 2583 view .LVU1700
	.loc 1 450 2612 view .LVU1701
	.loc 1 450 2643 view .LVU1702
	.loc 1 450 2674 view .LVU1703
	.loc 1 450 2705 view .LVU1704
	.loc 1 450 2912 view .LVU1705
.LBB1960:
	.loc 1 450 3198 view .LVU1706
	.loc 1 450 3203 view .LVU1707
	.loc 1 450 3857 view .LVU1708
	.loc 1 450 0 is_stmt 0 view .LVU1709
	ldr	r1, .L133
.LVL242:
	.loc 1 450 0 view .LVU1710
.LBE1960:
.LBE1959:
	.loc 1 450 149 view .LVU1711
	ldr	r0, .L133+4
.LVL243:
	.loc 1 450 149 view .LVU1712
.LBE1967:
.LBE1972:
	.loc 1 450 17 view .LVU1713
	strd	r1, r3, [r2, #20]
.LBB1973:
.LBB1968:
.LBB1965:
.LBB1961:
	.loc 1 450 2766 is_stmt 1 view .LVU1714
	.loc 1 450 7 view .LVU1715
.LVL244:
	.loc 1 450 30 view .LVU1716
	.loc 1 450 30 is_stmt 0 view .LVU1717
.LBE1961:
	.loc 1 450 9 is_stmt 1 view .LVU1718
	.loc 1 450 6 view .LVU1719
.LBB1962:
	.loc 1 450 11 view .LVU1720
	.loc 1 450 236 view .LVU1721
	.loc 1 450 1189 view .LVU1722
	.loc 1 450 1254 view .LVU1723
.LBE1962:
.LBE1965:
.LBE1968:
.LBE1973:
.LBE1977:
.LBE1981:
	.loc 1 450 1278 view .LVU1724
	.loc 1 450 1307 view .LVU1725
	.loc 1 450 1318 view .LVU1726
	.loc 1 450 1405 view .LVU1727
.LBB1982:
.LBB1978:
.LBB1974:
.LBB1969:
.LBB1966:
.LBB1963:
	.loc 1 450 1421 view .LVU1728
	.loc 1 450 1461 view .LVU1729
	.loc 1 450 2725 view .LVU1730
	.loc 1 450 2763 view .LVU1731
	.loc 1 450 2768 view .LVU1732
	.loc 1 450 3212 view .LVU1733
	.loc 1 450 3811 is_stmt 0 view .LVU1734
	movs	r3, #8
.LVL245:
	.loc 1 450 3811 view .LVU1735
	str	r3, [r2, #28]
	.loc 1 450 2766 is_stmt 1 view .LVU1736
	.loc 1 450 7 view .LVU1737
.LVL246:
	.loc 1 450 30 view .LVU1738
	.loc 1 450 30 is_stmt 0 view .LVU1739
.LBE1963:
	.loc 1 450 9 is_stmt 1 view .LVU1740
	.loc 1 450 5 view .LVU1741
	.loc 1 450 28 view .LVU1742
	.loc 1 450 52 view .LVU1743
	.loc 1 450 80 view .LVU1744
	.loc 1 450 256 view .LVU1745
	.loc 1 450 16 view .LVU1746
.LBB1964:
	.loc 1 450 6 view .LVU1747
	.loc 1 450 164 view .LVU1748
	.loc 1 450 166 view .LVU1749
	.loc 1 450 176 is_stmt 0 view .LVU1750
	movs	r3, #4
	str	r3, [r2, #16]!
.LVL247:
	.loc 1 450 176 view .LVU1751
.LBE1964:
.LBE1966:
	.loc 1 450 26 is_stmt 1 view .LVU1752
	.loc 1 450 7 view .LVU1753
	.loc 1 450 147 view .LVU1754
	.loc 1 450 149 view .LVU1755
	mov	r1, #8256
	bl	z_log_msg_static_create.constprop.0
.LVL248:
	.loc 1 450 149 is_stmt 0 view .LVU1756
.LBE1969:
.LBE1974:
.LBE1978:
.LBE1982:
	.loc 1 453 10 view .LVU1757
	mvn	r0, #21
.LBB1983:
.LBB1979:
.LBB1975:
.LBB1970:
	mov	sp, r4
.LVL249:
	.loc 1 453 10 view .LVU1758
.LBE1970:
	.loc 1 450 107 is_stmt 1 view .LVU1759
	.loc 1 450 5 view .LVU1760
	.loc 1 450 42 view .LVU1761
.LBE1975:
	.loc 1 450 6 view .LVU1762
.LBE1979:
	.loc 1 450 278 view .LVU1763
	.loc 1 450 5 view .LVU1764
	.loc 1 450 18 view .LVU1765
.LBE1983:
	.loc 1 450 6 view .LVU1766
	.loc 1 453 3 view .LVU1767
.L121:
	.loc 1 488 1 is_stmt 0 view .LVU1768
	adds	r7, r7, #28
	.cfi_remember_state
	.cfi_def_cfa_offset 28
	mov	sp, r7
	.cfi_def_cfa_register 13
	@ sp needed
	pop	{r4, r5, r6, r7, r8, r9, pc}
.LVL250:
.L122:
	.cfi_restore_state
	.loc 1 456 2 is_stmt 1 view .LVU1769
	.loc 1 456 5 is_stmt 0 view .LVU1770
	ldrb	r3, [r0, #13]	@ zero_extendqisi2
	cmp	r3, #7
	beq	.L124
	.loc 1 457 3 is_stmt 1 view .LVU1771
.LBB1984:
	.loc 1 457 8 view .LVU1772
	.loc 1 457 57 view .LVU1773
	.loc 1 457 14 view .LVU1774
	.loc 1 457 2 view .LVU1775
.LVL251:
	.loc 1 457 41 view .LVU1776
	.loc 1 457 176 view .LVU1777
	.loc 1 457 187 view .LVU1778
	.loc 1 457 275 view .LVU1779
	.loc 1 457 3 view .LVU1780
	.loc 1 457 3 view .LVU1781
.LBB1985:
	.loc 1 457 8 view .LVU1782
	.loc 1 457 2 view .LVU1783
.LBE1985:
.LBE1984:
	.loc 1 457 3 view .LVU1784
	.loc 1 457 12 view .LVU1785
	.loc 1 457 107 view .LVU1786
	.loc 1 457 3 view .LVU1787
.LBB2002:
.LBB1998:
	.loc 1 457 12 view .LVU1788
	.loc 1 457 102 view .LVU1789
	.loc 1 457 104 view .LVU1790
.LBB1986:
	.loc 1 457 109 view .LVU1791
	.loc 1 457 120 view .LVU1792
	.loc 1 457 209 view .LVU1793
	.loc 1 457 26 view .LVU1794
.LBE1986:
.LBE1998:
.LBE2002:
	.loc 1 457 3 view .LVU1795
	.loc 1 457 368 view .LVU1796
	.loc 1 457 75 view .LVU1797
	.loc 1 457 2 view .LVU1798
	.loc 1 457 2 view .LVU1799
	.loc 1 457 2 view .LVU1800
	.loc 1 457 38 view .LVU1801
	.loc 1 457 4 view .LVU1802
	.loc 1 457 30 view .LVU1803
	.loc 1 457 56 view .LVU1804
	.loc 1 457 79 view .LVU1805
	.loc 1 457 141 view .LVU1806
	.loc 1 457 198 view .LVU1807
	.loc 1 457 263 view .LVU1808
	.loc 1 457 288 view .LVU1809
	.loc 1 457 289 view .LVU1810
	.loc 1 457 291 view .LVU1811
	.loc 1 457 321 view .LVU1812
	.loc 1 457 351 view .LVU1813
	.loc 1 457 383 view .LVU1814
	.loc 1 457 415 view .LVU1815
	.loc 1 457 447 view .LVU1816
	.loc 1 457 644 view .LVU1817
	.loc 1 457 668 view .LVU1818
	.loc 1 457 669 view .LVU1819
	.loc 1 457 671 view .LVU1820
	.loc 1 457 700 view .LVU1821
	.loc 1 457 729 view .LVU1822
	.loc 1 457 760 view .LVU1823
	.loc 1 457 791 view .LVU1824
	.loc 1 457 822 view .LVU1825
	.loc 1 457 1029 view .LVU1826
	.loc 1 457 4 view .LVU1827
	.loc 1 457 22 view .LVU1828
	.loc 1 457 42 view .LVU1829
	.loc 1 457 4 view .LVU1830
	.loc 1 457 42 view .LVU1831
	.loc 1 457 13 view .LVU1832
	.loc 1 457 13 view .LVU1833
	.loc 1 457 61 view .LVU1834
	.loc 1 457 92 view .LVU1835
	.loc 1 457 126 view .LVU1836
	.loc 1 457 131 view .LVU1837
	.loc 1 457 369 view .LVU1838
	.loc 1 457 1374 view .LVU1839
	.loc 1 457 1439 view .LVU1840
	.loc 1 457 1463 view .LVU1841
	.loc 1 457 1505 view .LVU1842
	.loc 1 457 1516 view .LVU1843
	.loc 1 457 1616 view .LVU1844
	.loc 1 457 1632 view .LVU1845
	.loc 1 457 1672 view .LVU1846
	.loc 1 457 1697 view .LVU1847
	.loc 1 457 2962 view .LVU1848
	.loc 1 457 3003 view .LVU1849
	.loc 1 457 7 view .LVU1850
	.loc 1 457 30 view .LVU1851
	.loc 1 457 129 view .LVU1852
	.loc 1 457 5 view .LVU1853
	.loc 1 457 28 view .LVU1854
	.loc 1 457 52 view .LVU1855
	.loc 1 457 80 view .LVU1856
	.loc 1 457 256 view .LVU1857
	.loc 1 457 16 view .LVU1858
.LBB2003:
.LBB1999:
.LBB1995:
	.loc 1 457 29 view .LVU1859
	.loc 1 457 3 view .LVU1860
	.loc 1 457 3 view .LVU1861
	.loc 1 457 70 view .LVU1862
	.loc 1 457 74 view .LVU1863
	.loc 1 457 484 view .LVU1864
	.loc 1 457 5 view .LVU1865
	.loc 1 457 7 view .LVU1866
	.loc 1 457 12 view .LVU1867
	.loc 1 457 10 view .LVU1868
	.loc 1 457 5 view .LVU1869
	.loc 1 457 23 view .LVU1870
.LBB1987:
	.loc 1 457 3 view .LVU1871
	.loc 1 457 368 view .LVU1872
	.loc 1 457 75 view .LVU1873
.LVL252:
	.loc 1 457 2 view .LVU1874
	.loc 1 457 2 view .LVU1875
	.loc 1 457 2 view .LVU1876
	.loc 1 457 38 view .LVU1877
	.loc 1 457 67 view .LVU1878
	.loc 1 457 93 view .LVU1879
	.loc 1 457 119 view .LVU1880
	.loc 1 457 142 view .LVU1881
	.loc 1 457 204 view .LVU1882
	.loc 1 457 261 view .LVU1883
	.loc 1 457 326 view .LVU1884
	.loc 1 457 351 view .LVU1885
	.loc 1 457 352 view .LVU1886
	.loc 1 457 354 view .LVU1887
	.loc 1 457 384 view .LVU1888
	.loc 1 457 414 view .LVU1889
	.loc 1 457 446 view .LVU1890
	.loc 1 457 478 view .LVU1891
	.loc 1 457 510 view .LVU1892
	.loc 1 457 707 view .LVU1893
	.loc 1 457 731 view .LVU1894
	.loc 1 457 732 view .LVU1895
	.loc 1 457 734 view .LVU1896
	.loc 1 457 763 view .LVU1897
	.loc 1 457 792 view .LVU1898
	.loc 1 457 823 view .LVU1899
	.loc 1 457 854 view .LVU1900
	.loc 1 457 885 view .LVU1901
	.loc 1 457 1092 view .LVU1902
	.loc 1 457 4 view .LVU1903
	.loc 1 457 22 view .LVU1904
	.loc 1 457 42 view .LVU1905
	.loc 1 457 4 view .LVU1906
	.loc 1 457 42 view .LVU1907
	.loc 1 457 13 view .LVU1908
	.loc 1 457 13 view .LVU1909
	.loc 1 457 61 view .LVU1910
	.loc 1 457 92 view .LVU1911
	.loc 1 457 126 view .LVU1912
.LBB1988:
	.loc 1 457 131 view .LVU1913
	.loc 1 457 369 view .LVU1914
	.loc 1 457 1374 view .LVU1915
	.loc 1 457 1439 view .LVU1916
.LBE1988:
.LBE1987:
.LBE1995:
.LBE1999:
.LBE2003:
	.loc 1 457 1463 view .LVU1917
	.loc 1 457 1505 view .LVU1918
	.loc 1 457 1516 view .LVU1919
	.loc 1 457 1616 view .LVU1920
.LBB2004:
.LBB2000:
.LBB1996:
.LBB1992:
.LBB1989:
	.loc 1 457 1632 view .LVU1921
	.loc 1 457 1672 view .LVU1922
	.loc 1 457 1697 view .LVU1923
	.loc 1 457 2962 view .LVU1924
	.loc 1 457 3000 view .LVU1925
	.loc 1 457 3005 view .LVU1926
	.loc 1 457 3527 view .LVU1927
	.loc 1 457 0 is_stmt 0 view .LVU1928
	ldr	r3, .L133+8
	str	r3, [r7, #20]
	.loc 1 457 3003 is_stmt 1 view .LVU1929
	.loc 1 457 7 view .LVU1930
.LVL253:
	.loc 1 457 30 view .LVU1931
	.loc 1 457 30 is_stmt 0 view .LVU1932
.LBE1989:
	.loc 1 457 129 is_stmt 1 view .LVU1933
	.loc 1 457 5 view .LVU1934
	.loc 1 457 28 view .LVU1935
	.loc 1 457 52 view .LVU1936
	.loc 1 457 80 view .LVU1937
.LBE1992:
.LBE1996:
.LBE2000:
.LBE2004:
	.loc 1 457 6 view .LVU1938
	.loc 1 457 45 view .LVU1939
	.loc 1 457 50 view .LVU1940
	.loc 1 457 80 view .LVU1941
	.loc 1 457 147 view .LVU1942
	.loc 1 457 152 view .LVU1943
	.loc 1 457 182 view .LVU1944
.LBB2005:
.LBB2001:
.LBB1997:
.LBB1993:
	.loc 1 457 256 view .LVU1945
	.loc 1 457 16 view .LVU1946
.LBB1990:
	.loc 1 457 6 view .LVU1947
	.loc 1 457 164 view .LVU1948
	.loc 1 457 166 view .LVU1949
	.loc 1 457 176 is_stmt 0 view .LVU1950
	movs	r3, #2
.LBE1990:
.LBE1993:
	.loc 1 457 149 view .LVU1951
	ldr	r0, .L133+4
.LVL254:
.LBB1994:
.LBB1991:
	.loc 1 457 176 view .LVU1952
	str	r3, [r7, #16]
.LVL255:
	.loc 1 457 176 view .LVU1953
.LBE1991:
.LBE1994:
	.loc 1 457 26 is_stmt 1 view .LVU1954
	.loc 1 457 7 view .LVU1955
	.loc 1 457 147 view .LVU1956
	.loc 1 457 149 view .LVU1957
	add	r2, r7, #16
.LVL256:
	.loc 1 457 149 is_stmt 0 view .LVU1958
	mov	r1, #4160
.LVL257:
	.loc 1 457 149 view .LVU1959
	bl	z_log_msg_static_create.constprop.0
.LVL258:
	.loc 1 457 149 view .LVU1960
.LBE1997:
	.loc 1 457 107 is_stmt 1 view .LVU1961
	.loc 1 457 5 view .LVU1962
.LVL259:
	.loc 1 457 42 view .LVU1963
.LBE2001:
	.loc 1 457 6 view .LVU1964
	.loc 1 457 278 view .LVU1965
	.loc 1 457 5 view .LVU1966
	.loc 1 457 18 view .LVU1967
.LBE2005:
	.loc 1 457 6 view .LVU1968
	.loc 1 458 3 view .LVU1969
.L125:
	.loc 1 458 10 is_stmt 0 view .LVU1970
	mvn	r0, #127
	b	.L121
.LVL260:
.L124:
	.loc 1 461 2 is_stmt 1 view .LVU1971
	.loc 1 461 5 is_stmt 0 view .LVU1972
	cmp	r2, #0
	beq	.L130
	.loc 1 462 3 is_stmt 1 view .LVU1973
.LBB2006:
.LBI2006:
	.loc 1 394 27 view .LVU1974
.LBB2007:
	.loc 1 400 2 view .LVU1975
.LBB2008:
.LBI2008:
	.file 10 "/home/g/mise-work/zmk-firmware/zmk/zephyr/include/zephyr/kernel.h"
	.loc 10 597 23 view .LVU1976
.LBB2009:
	.loc 10 601 2 view .LVU1977
	.loc 10 603 2 view .LVU1978
	.loc 10 603 9 is_stmt 0 view .LVU1979
	bl	__aeabi_read_tp	@ load_tp_soft
.LVL261:
	.loc 10 603 9 view .LVU1980
.LBE2009:
.LBE2008:
	.loc 1 400 5 view .LVU1981
	ldr	r3, .L133+12
	ldr	r2, [r3, r0]
.LVL262:
	.loc 1 400 5 view .LVU1982
	ldr	r3, .L133+16
	cmp	r2, r3
	.loc 1 401 3 is_stmt 1 view .LVU1983
.LBB2010:
	.loc 1 401 13 view .LVU1984
	.loc 1 401 18 view .LVU1985
	.loc 1 401 16 view .LVU1986
	.loc 1 401 12 view .LVU1987
.LBB2011:
.LBI2011:
	.loc 7 684 22 view .LVU1988
.LVL263:
.LBB2012:
	.loc 7 693 2 view .LVU1989
	.loc 7 693 7 view .LVU1990
	.loc 7 693 5 view .LVU1991
	.loc 7 694 2 view .LVU1992
.LBE2012:
.LBE2011:
.LBE2010:
.LBB2015:
.LBB2016:
.LBB2017:
	.loc 7 694 9 is_stmt 0 view .LVU1993
	ldr	r0, .L133+20
.LBE2017:
.LBE2016:
.LBE2015:
.LBB2020:
.LBB2014:
.LBB2013:
	ittee	eq
	moveq	r2, #0
	moveq	r3, #0
.LBE2013:
.LBE2014:
.LBE2020:
	.loc 1 404 2 is_stmt 1 view .LVU1994
.LBB2021:
	.loc 1 411 6 view .LVU1995
.LBE2021:
	.loc 1 414 2 view .LVU1996
.LBB2022:
	.loc 1 414 12 view .LVU1997
	.loc 1 414 17 view .LVU1998
	.loc 1 414 15 view .LVU1999
	.loc 1 414 11 view .LVU2000
.LBB2019:
.LBI2016:
	.loc 7 684 22 view .LVU2001
.LVL264:
.LBB2018:
	.loc 7 693 2 view .LVU2002
	.loc 7 693 7 view .LVU2003
	.loc 7 693 5 view .LVU2004
	.loc 7 694 2 view .LVU2005
	.loc 7 694 9 is_stmt 0 view .LVU2006
	movne	r2, #-1
	movne	r3, #-1
	bl	z_impl_k_queue_get
.LVL265:
	.loc 7 694 9 view .LVU2007
	mov	r4, r0
.LVL266:
	.loc 7 694 9 view .LVU2008
.LBE2018:
.LBE2019:
	.loc 1 414 109 is_stmt 1 view .LVU2009
	.loc 1 414 114 view .LVU2010
	.loc 1 414 112 view .LVU2011
	.loc 1 414 11 view .LVU2012
	.loc 1 414 11 is_stmt 0 view .LVU2013
.LBE2022:
.LBE2007:
.LBE2006:
	.loc 1 463 3 is_stmt 1 view .LVU2014
	.loc 1 463 6 is_stmt 0 view .LVU2015
	cbz	r0, .L131
	.loc 1 469 3 is_stmt 1 view .LVU2016
	.loc 1 469 6 is_stmt 0 view .LVU2017
	ldrb	r3, [r6, #13]	@ zero_extendqisi2
	cmp	r3, #7
	beq	.L129
	.loc 1 470 4 is_stmt 1 view .LVU2018
.LBB2023:
	.loc 1 470 9 view .LVU2019
	.loc 1 470 58 view .LVU2020
	.loc 1 470 15 view .LVU2021
	.loc 1 470 3 view .LVU2022
.LVL267:
	.loc 1 470 42 view .LVU2023
	.loc 1 470 177 view .LVU2024
	.loc 1 470 188 view .LVU2025
	.loc 1 470 276 view .LVU2026
	.loc 1 470 4 view .LVU2027
	.loc 1 470 4 view .LVU2028
.LBB2024:
	.loc 1 470 9 view .LVU2029
	.loc 1 470 3 view .LVU2030
.LBE2024:
.LBE2023:
	.loc 1 470 4 view .LVU2031
	.loc 1 470 13 view .LVU2032
	.loc 1 470 108 view .LVU2033
	.loc 1 470 4 view .LVU2034
.LBB2039:
.LBB2035:
	.loc 1 470 13 view .LVU2035
	.loc 1 470 103 view .LVU2036
	.loc 1 470 105 view .LVU2037
.LBB2025:
	.loc 1 470 110 view .LVU2038
	.loc 1 470 121 view .LVU2039
	.loc 1 470 210 view .LVU2040
	.loc 1 470 27 view .LVU2041
.LBE2025:
.LBE2035:
.LBE2039:
	.loc 1 470 4 view .LVU2042
	.loc 1 470 369 view .LVU2043
	.loc 1 470 76 view .LVU2044
	.loc 1 470 3 view .LVU2045
	.loc 1 470 3 view .LVU2046
	.loc 1 470 3 view .LVU2047
	.loc 1 470 39 view .LVU2048
	.loc 1 470 5 view .LVU2049
	.loc 1 470 31 view .LVU2050
	.loc 1 470 57 view .LVU2051
	.loc 1 470 80 view .LVU2052
	.loc 1 470 142 view .LVU2053
	.loc 1 470 199 view .LVU2054
	.loc 1 470 264 view .LVU2055
	.loc 1 470 289 view .LVU2056
	.loc 1 470 290 view .LVU2057
	.loc 1 470 292 view .LVU2058
	.loc 1 470 322 view .LVU2059
	.loc 1 470 352 view .LVU2060
	.loc 1 470 384 view .LVU2061
	.loc 1 470 416 view .LVU2062
	.loc 1 470 448 view .LVU2063
	.loc 1 470 645 view .LVU2064
	.loc 1 470 669 view .LVU2065
	.loc 1 470 670 view .LVU2066
	.loc 1 470 672 view .LVU2067
	.loc 1 470 701 view .LVU2068
	.loc 1 470 730 view .LVU2069
	.loc 1 470 761 view .LVU2070
	.loc 1 470 792 view .LVU2071
	.loc 1 470 823 view .LVU2072
	.loc 1 470 1030 view .LVU2073
	.loc 1 470 5 view .LVU2074
	.loc 1 470 23 view .LVU2075
	.loc 1 470 43 view .LVU2076
	.loc 1 470 5 view .LVU2077
	.loc 1 470 43 view .LVU2078
	.loc 1 470 14 view .LVU2079
	.loc 1 470 14 view .LVU2080
	.loc 1 470 62 view .LVU2081
	.loc 1 470 93 view .LVU2082
	.loc 1 470 127 view .LVU2083
	.loc 1 470 132 view .LVU2084
	.loc 1 470 393 view .LVU2085
	.loc 1 470 1490 view .LVU2086
	.loc 1 470 1555 view .LVU2087
	.loc 1 470 1579 view .LVU2088
	.loc 1 470 1644 view .LVU2089
	.loc 1 470 1655 view .LVU2090
	.loc 1 470 1778 view .LVU2091
	.loc 1 470 1794 view .LVU2092
	.loc 1 470 1834 view .LVU2093
	.loc 1 470 1859 view .LVU2094
	.loc 1 470 3170 view .LVU2095
	.loc 1 470 3211 view .LVU2096
	.loc 1 470 8 view .LVU2097
	.loc 1 470 31 view .LVU2098
	.loc 1 470 130 view .LVU2099
	.loc 1 470 6 view .LVU2100
	.loc 1 470 29 view .LVU2101
	.loc 1 470 53 view .LVU2102
	.loc 1 470 81 view .LVU2103
	.loc 1 470 257 view .LVU2104
	.loc 1 470 17 view .LVU2105
.LBB2040:
.LBB2036:
.LBB2032:
	.loc 1 470 30 view .LVU2106
	.loc 1 470 4 view .LVU2107
	.loc 1 470 4 view .LVU2108
	.loc 1 470 71 view .LVU2109
	.loc 1 470 75 view .LVU2110
	.loc 1 470 485 view .LVU2111
	.loc 1 470 6 view .LVU2112
	.loc 1 470 8 view .LVU2113
	.loc 1 470 13 view .LVU2114
	.loc 1 470 11 view .LVU2115
	.loc 1 470 6 view .LVU2116
	.loc 1 470 24 view .LVU2117
.LBB2026:
	.loc 1 470 4 view .LVU2118
	.loc 1 470 369 view .LVU2119
	.loc 1 470 76 view .LVU2120
.LVL268:
	.loc 1 470 3 view .LVU2121
	.loc 1 470 3 view .LVU2122
	.loc 1 470 3 view .LVU2123
	.loc 1 470 39 view .LVU2124
	.loc 1 470 68 view .LVU2125
	.loc 1 470 94 view .LVU2126
	.loc 1 470 120 view .LVU2127
	.loc 1 470 143 view .LVU2128
	.loc 1 470 205 view .LVU2129
	.loc 1 470 262 view .LVU2130
	.loc 1 470 327 view .LVU2131
	.loc 1 470 352 view .LVU2132
	.loc 1 470 353 view .LVU2133
	.loc 1 470 355 view .LVU2134
	.loc 1 470 385 view .LVU2135
	.loc 1 470 415 view .LVU2136
	.loc 1 470 447 view .LVU2137
	.loc 1 470 479 view .LVU2138
	.loc 1 470 511 view .LVU2139
	.loc 1 470 708 view .LVU2140
	.loc 1 470 732 view .LVU2141
	.loc 1 470 733 view .LVU2142
	.loc 1 470 735 view .LVU2143
	.loc 1 470 764 view .LVU2144
	.loc 1 470 793 view .LVU2145
	.loc 1 470 824 view .LVU2146
	.loc 1 470 855 view .LVU2147
	.loc 1 470 886 view .LVU2148
	.loc 1 470 1093 view .LVU2149
	.loc 1 470 5 view .LVU2150
	.loc 1 470 23 view .LVU2151
	.loc 1 470 43 view .LVU2152
	.loc 1 470 5 view .LVU2153
	.loc 1 470 43 view .LVU2154
	.loc 1 470 14 view .LVU2155
	.loc 1 470 14 view .LVU2156
	.loc 1 470 62 view .LVU2157
	.loc 1 470 93 view .LVU2158
	.loc 1 470 127 view .LVU2159
.LBB2027:
	.loc 1 470 132 view .LVU2160
	.loc 1 470 393 view .LVU2161
	.loc 1 470 1490 view .LVU2162
	.loc 1 470 1555 view .LVU2163
.LBE2027:
.LBE2026:
.LBE2032:
.LBE2036:
.LBE2040:
	.loc 1 470 1579 view .LVU2164
	.loc 1 470 1644 view .LVU2165
	.loc 1 470 1655 view .LVU2166
	.loc 1 470 1778 view .LVU2167
.LBB2041:
.LBB2037:
.LBB2033:
.LBB2030:
.LBB2028:
	.loc 1 470 1794 view .LVU2168
	.loc 1 470 1834 view .LVU2169
	.loc 1 470 1859 view .LVU2170
	.loc 1 470 3170 view .LVU2171
	.loc 1 470 3208 view .LVU2172
	.loc 1 470 3213 view .LVU2173
	.loc 1 470 3873 view .LVU2174
	.loc 1 470 0 is_stmt 0 view .LVU2175
	ldr	r3, .L133+24
	str	r3, [r7, #20]
	.loc 1 470 3211 is_stmt 1 view .LVU2176
	.loc 1 470 8 view .LVU2177
.LVL269:
	.loc 1 470 31 view .LVU2178
	.loc 1 470 31 is_stmt 0 view .LVU2179
.LBE2028:
	.loc 1 470 130 is_stmt 1 view .LVU2180
	.loc 1 470 6 view .LVU2181
	.loc 1 470 29 view .LVU2182
	.loc 1 470 53 view .LVU2183
	.loc 1 470 81 view .LVU2184
.LBE2030:
.LBE2033:
.LBE2037:
.LBE2041:
	.loc 1 470 7 view .LVU2185
	.loc 1 470 46 view .LVU2186
	.loc 1 470 51 view .LVU2187
	.loc 1 470 81 view .LVU2188
	.loc 1 470 148 view .LVU2189
	.loc 1 470 153 view .LVU2190
	.loc 1 470 183 view .LVU2191
.LBB2042:
.LBB2038:
.LBB2034:
.LBB2031:
	.loc 1 470 257 view .LVU2192
	.loc 1 470 17 view .LVU2193
.LBB2029:
	.loc 1 470 7 view .LVU2194
	.loc 1 470 165 view .LVU2195
	.loc 1 470 167 view .LVU2196
	.loc 1 470 177 is_stmt 0 view .LVU2197
	movs	r3, #2
	str	r3, [r7, #16]
.LVL270:
	.loc 1 470 177 view .LVU2198
.LBE2029:
.LBE2031:
	.loc 1 470 27 is_stmt 1 view .LVU2199
	.loc 1 470 8 view .LVU2200
	.loc 1 470 148 view .LVU2201
	.loc 1 470 150 view .LVU2202
	ldr	r0, .L133+4
.LVL271:
	.loc 1 470 150 is_stmt 0 view .LVU2203
	add	r2, r7, #16
.LVL272:
	.loc 1 470 150 view .LVU2204
	mov	r1, #4224
	bl	z_log_msg_static_create.constprop.0
.LVL273:
	.loc 1 470 150 view .LVU2205
.LBE2034:
	.loc 1 470 108 is_stmt 1 view .LVU2206
	.loc 1 470 6 view .LVU2207
.LVL274:
	.loc 1 470 43 view .LVU2208
.LBE2038:
	.loc 1 470 7 view .LVU2209
	.loc 1 470 279 view .LVU2210
	.loc 1 470 6 view .LVU2211
	.loc 1 470 19 view .LVU2212
.LBE2042:
	.loc 1 470 7 view .LVU2213
	.loc 1 471 4 view .LVU2214
.LBB2043:
.LBI2043:
	.loc 1 202 13 view .LVU2215
.LBB2044:
	.loc 1 204 2 view .LVU2216
	.loc 1 204 9 is_stmt 0 view .LVU2217
	movs	r3, #0
	.loc 1 205 16 view .LVU2218
	strd	r3, r3, [r4, #4]
	.loc 1 206 2 is_stmt 1 view .LVU2219
.LBB2045:
	.loc 1 207 4 is_stmt 0 view .LVU2220
	ldr	r0, .L133+20
.LBE2045:
	.loc 1 206 20 view .LVU2221
	str	r3, [r4, #12]
	.loc 1 207 2 is_stmt 1 view .LVU2222
.LBB2046:
	.loc 1 207 5 view .LVU2223
	.loc 1 207 10 view .LVU2224
	.loc 1 207 8 view .LVU2225
	.loc 1 207 4 view .LVU2226
	mov	r1, r4
	bl	k_queue_append
.LVL275:
	.loc 1 207 45 view .LVU2227
	.loc 1 207 50 view .LVU2228
	.loc 1 207 48 view .LVU2229
.LBE2046:
	.loc 1 208 1 is_stmt 0 view .LVU2230
	b	.L125
.LVL276:
.L129:
	.loc 1 208 1 view .LVU2231
.LBE2044:
.LBE2043:
	.loc 1 475 3 is_stmt 1 view .LVU2232
	.loc 1 476 17 is_stmt 0 view .LVU2233
	strd	r8, r9, [r0, #4]
	.loc 1 477 3 is_stmt 1 view .LVU2234
	.loc 1 477 21 is_stmt 0 view .LVU2235
	movs	r3, #0
	str	r3, [r0, #12]
	.loc 1 479 3 is_stmt 1 view .LVU2236
.LVL277:
.L126:
	.loc 1 479 50 is_stmt 0 view .LVU2237
	str	r4, [r5, #24]
	.loc 1 484 2 is_stmt 1 view .LVU2238
	.loc 1 484 54 is_stmt 0 view .LVU2239
	movs	r4, #0
	.loc 1 486 2 view .LVU2240
	add	r0, r6, #56
	.loc 1 484 54 view .LVU2241
	strb	r4, [r5, #28]
	.loc 1 486 2 is_stmt 1 view .LVU2242
	mov	r1, r5
	bl	net_buf_put
.LVL278:
	.loc 1 487 2 view .LVU2243
	.loc 1 487 9 is_stmt 0 view .LVU2244
	mov	r0, r4
	b	.L121
.LVL279:
.L130:
	.loc 1 487 9 view .LVU2245
	mov	r4, r2
	b	.L126
.LVL280:
.L131:
	.loc 1 465 11 view .LVU2246
	mvn	r0, #104
.LVL281:
	.loc 1 465 11 view .LVU2247
	b	.L121
.L134:
	.align	2
.L133:
	.word	.LC8
	.word	log_const_bt_conn
	.word	.LC9
	.word	z_tls_current(tpoff)
	.word	k_sys_work_q
	.word	free_tx
	.word	.LC10
	.cfi_endproc
.LFE602:
	.size	bt_conn_send_cb, .-bt_conn_send_cb
	.section	.text.bt_conn_send_iso_cb,"ax",%progbits
	.align	1
	.global	bt_conn_send_iso_cb
	.syntax unified
	.thumb
	.thumb_func
	.type	bt_conn_send_iso_cb, %function
bt_conn_send_iso_cb:
.LVL282:
.LFB601:
	.loc 1 419 1 is_stmt 1 view -0
	.cfi_startproc
	@ args = 0, pretend = 0, frame = 0
	@ frame_needed = 1, uses_anonymous_args = 0
	.loc 1 420 2 view .LVU2249
	.loc 1 419 1 is_stmt 0 view .LVU2250
	push	{r4, r5, r7, lr}
	.cfi_def_cfa_offset 16
	.cfi_offset 4, -16
	.cfi_offset 5, -12
	.cfi_offset 7, -8
	.cfi_offset 14, -4
	.loc 1 420 9 view .LVU2251
	ldrb	r5, [r1, #11]	@ zero_extendqisi2
	.loc 1 420 5 view .LVU2252
	cmp	r5, #7
	.loc 1 419 1 view .LVU2253
	add	r7, sp, #0
	.cfi_def_cfa_register 7
	.loc 1 420 5 view .LVU2254
	bhi	.L136
	.loc 1 421 3 is_stmt 1 view .LVU2255
.LBB2047:
	.loc 1 421 8 view .LVU2256
	.loc 1 421 57 view .LVU2257
	.loc 1 421 14 view .LVU2258
	.loc 1 421 2 view .LVU2259
.LVL283:
	.loc 1 421 41 view .LVU2260
	.loc 1 421 176 view .LVU2261
	.loc 1 421 187 view .LVU2262
	.loc 1 421 275 view .LVU2263
.LBB2048:
	.loc 1 421 3 view .LVU2264
	.loc 1 421 5 view .LVU2265
	.loc 1 421 51 view .LVU2266
	.loc 1 421 3 view .LVU2267
.LBB2049:
	.loc 1 421 8 view .LVU2268
	.loc 1 421 2 view .LVU2269
.LBE2049:
.LBE2048:
.LBE2047:
	.loc 1 421 3 view .LVU2270
	.loc 1 421 12 view .LVU2271
	.loc 1 421 107 view .LVU2272
	.loc 1 421 3 view .LVU2273
.LBB2076:
.LBB2071:
.LBB2065:
	.loc 1 421 12 view .LVU2274
	.loc 1 421 102 view .LVU2275
	.loc 1 421 104 view .LVU2276
.LBB2050:
	.loc 1 421 107 is_stmt 0 view .LVU2277
	mov	r4, sp
	.loc 1 421 109 is_stmt 1 view .LVU2278
	.loc 1 421 120 view .LVU2279
.LVL284:
	.loc 1 421 209 view .LVU2280
	.loc 1 421 26 view .LVU2281
.LBE2050:
.LBE2065:
.LBE2071:
.LBE2076:
	.loc 1 421 3 view .LVU2282
	.loc 1 421 368 view .LVU2283
	.loc 1 421 75 view .LVU2284
	.loc 1 421 2 view .LVU2285
	.loc 1 421 2 view .LVU2286
	.loc 1 421 2 view .LVU2287
	.loc 1 421 38 view .LVU2288
	.loc 1 421 4 view .LVU2289
	.loc 1 421 30 view .LVU2290
	.loc 1 421 56 view .LVU2291
	.loc 1 421 969 view .LVU2292
	.loc 1 421 1031 view .LVU2293
	.loc 1 421 2018 view .LVU2294
	.loc 1 421 2083 view .LVU2295
	.loc 1 421 2108 view .LVU2296
	.loc 1 421 2109 view .LVU2297
	.loc 1 421 2111 view .LVU2298
	.loc 1 421 2141 view .LVU2299
	.loc 1 421 2171 view .LVU2300
	.loc 1 421 2203 view .LVU2301
	.loc 1 421 2235 view .LVU2302
	.loc 1 421 2267 view .LVU2303
	.loc 1 421 2464 view .LVU2304
	.loc 1 421 2488 view .LVU2305
	.loc 1 421 2489 view .LVU2306
	.loc 1 421 2491 view .LVU2307
	.loc 1 421 2520 view .LVU2308
	.loc 1 421 2549 view .LVU2309
	.loc 1 421 2580 view .LVU2310
	.loc 1 421 2611 view .LVU2311
	.loc 1 421 2642 view .LVU2312
	.loc 1 421 2849 view .LVU2313
	.loc 1 421 4 view .LVU2314
	.loc 1 421 22 view .LVU2315
	.loc 1 421 42 view .LVU2316
	.loc 1 421 4 view .LVU2317
	.loc 1 421 42 view .LVU2318
	.loc 1 421 13 view .LVU2319
	.loc 1 421 13 view .LVU2320
	.loc 1 421 61 view .LVU2321
	.loc 1 421 92 view .LVU2322
	.loc 1 421 126 view .LVU2323
	.loc 1 421 131 view .LVU2324
	.loc 1 421 391 view .LVU2325
	.loc 1 421 1484 view .LVU2326
	.loc 1 421 1549 view .LVU2327
	.loc 1 421 1573 view .LVU2328
	.loc 1 421 1637 view .LVU2329
	.loc 1 421 1648 view .LVU2330
	.loc 1 421 1770 view .LVU2331
	.loc 1 421 1786 view .LVU2332
	.loc 1 421 1826 view .LVU2333
	.loc 1 421 1851 view .LVU2334
	.loc 1 421 3160 view .LVU2335
	.loc 1 421 3201 view .LVU2336
	.loc 1 421 7 view .LVU2337
	.loc 1 421 30 view .LVU2338
	.loc 1 421 129 view .LVU2339
	.loc 1 421 6 view .LVU2340
	.loc 1 421 11 view .LVU2341
	.loc 1 421 236 view .LVU2342
	.loc 1 421 1189 view .LVU2343
	.loc 1 421 1254 view .LVU2344
	.loc 1 421 1278 view .LVU2345
	.loc 1 421 1307 view .LVU2346
	.loc 1 421 1318 view .LVU2347
	.loc 1 421 1405 view .LVU2348
	.loc 1 421 1421 view .LVU2349
	.loc 1 421 1461 view .LVU2350
	.loc 1 421 2725 view .LVU2351
	.loc 1 421 2766 view .LVU2352
	.loc 1 421 7 view .LVU2353
	.loc 1 421 30 view .LVU2354
	.loc 1 421 9 view .LVU2355
	.loc 1 421 6 view .LVU2356
	.loc 1 421 11 view .LVU2357
	.loc 1 421 236 view .LVU2358
	.loc 1 421 1189 view .LVU2359
	.loc 1 421 1254 view .LVU2360
	.loc 1 421 1278 view .LVU2361
	.loc 1 421 1307 view .LVU2362
	.loc 1 421 1318 view .LVU2363
	.loc 1 421 1405 view .LVU2364
	.loc 1 421 1421 view .LVU2365
	.loc 1 421 1461 view .LVU2366
	.loc 1 421 2725 view .LVU2367
	.loc 1 421 2766 view .LVU2368
	.loc 1 421 7 view .LVU2369
	.loc 1 421 30 view .LVU2370
	.loc 1 421 9 view .LVU2371
	.loc 1 421 5 view .LVU2372
	.loc 1 421 28 view .LVU2373
	.loc 1 421 52 view .LVU2374
	.loc 1 421 80 view .LVU2375
	.loc 1 421 256 view .LVU2376
	.loc 1 421 16 view .LVU2377
.LBB2077:
.LBB2072:
.LBB2066:
.LBB2060:
	.loc 1 421 29 view .LVU2378
	.loc 1 421 3 view .LVU2379
	.loc 1 421 3 view .LVU2380
	.loc 1 421 70 view .LVU2381
	.loc 1 421 82 is_stmt 0 view .LVU2382
	sub	sp, sp, #32
	mov	r2, sp
.LVL285:
	.loc 1 421 74 is_stmt 1 view .LVU2383
	.loc 1 421 484 view .LVU2384
	.loc 1 421 5 view .LVU2385
	.loc 1 421 7 view .LVU2386
	.loc 1 421 12 view .LVU2387
	.loc 1 421 10 view .LVU2388
	.loc 1 421 5 view .LVU2389
	.loc 1 421 23 view .LVU2390
.LBB2051:
	.loc 1 421 3 view .LVU2391
	.loc 1 421 368 view .LVU2392
	.loc 1 421 75 view .LVU2393
.LVL286:
	.loc 1 421 2 view .LVU2394
	.loc 1 421 2 view .LVU2395
	.loc 1 421 2 view .LVU2396
	.loc 1 421 38 view .LVU2397
	.loc 1 421 67 view .LVU2398
	.loc 1 421 93 view .LVU2399
	.loc 1 421 119 view .LVU2400
	.loc 1 421 1032 view .LVU2401
	.loc 1 421 1094 view .LVU2402
	.loc 1 421 2081 view .LVU2403
	.loc 1 421 2146 view .LVU2404
	.loc 1 421 2171 view .LVU2405
	.loc 1 421 2172 view .LVU2406
	.loc 1 421 2174 view .LVU2407
	.loc 1 421 2204 view .LVU2408
	.loc 1 421 2234 view .LVU2409
	.loc 1 421 2266 view .LVU2410
	.loc 1 421 2298 view .LVU2411
	.loc 1 421 2330 view .LVU2412
	.loc 1 421 2527 view .LVU2413
	.loc 1 421 2551 view .LVU2414
	.loc 1 421 2552 view .LVU2415
	.loc 1 421 2554 view .LVU2416
	.loc 1 421 2583 view .LVU2417
	.loc 1 421 2612 view .LVU2418
	.loc 1 421 2643 view .LVU2419
	.loc 1 421 2674 view .LVU2420
	.loc 1 421 2705 view .LVU2421
	.loc 1 421 2912 view .LVU2422
.LBB2052:
	.loc 1 421 3198 view .LVU2423
	.loc 1 421 3203 view .LVU2424
	.loc 1 421 3857 view .LVU2425
	.loc 1 421 0 is_stmt 0 view .LVU2426
	ldr	r3, .L138
.LVL287:
	.loc 1 421 0 view .LVU2427
.LBE2052:
.LBE2051:
	.loc 1 421 149 view .LVU2428
	ldr	r0, .L138+4
.LVL288:
	.loc 1 421 149 view .LVU2429
.LBE2060:
.LBE2066:
	.loc 1 421 17 view .LVU2430
	strd	r3, r5, [r2, #20]
.LBB2067:
.LBB2061:
.LBB2057:
.LBB2053:
	.loc 1 421 2766 is_stmt 1 view .LVU2431
	.loc 1 421 7 view .LVU2432
.LVL289:
	.loc 1 421 30 view .LVU2433
	.loc 1 421 30 is_stmt 0 view .LVU2434
.LBE2053:
	.loc 1 421 9 is_stmt 1 view .LVU2435
	.loc 1 421 6 view .LVU2436
.LBB2054:
	.loc 1 421 11 view .LVU2437
	.loc 1 421 236 view .LVU2438
	.loc 1 421 1189 view .LVU2439
	.loc 1 421 1254 view .LVU2440
.LBE2054:
.LBE2057:
.LBE2061:
.LBE2067:
.LBE2072:
.LBE2077:
	.loc 1 421 1278 view .LVU2441
	.loc 1 421 1307 view .LVU2442
	.loc 1 421 1318 view .LVU2443
	.loc 1 421 1405 view .LVU2444
.LBB2078:
.LBB2073:
.LBB2068:
.LBB2062:
.LBB2058:
.LBB2055:
	.loc 1 421 1421 view .LVU2445
	.loc 1 421 1461 view .LVU2446
	.loc 1 421 2725 view .LVU2447
	.loc 1 421 2763 view .LVU2448
	.loc 1 421 2768 view .LVU2449
	.loc 1 421 3212 view .LVU2450
	.loc 1 421 3811 is_stmt 0 view .LVU2451
	movs	r3, #8
	str	r3, [r2, #28]
	.loc 1 421 2766 is_stmt 1 view .LVU2452
	.loc 1 421 7 view .LVU2453
.LVL290:
	.loc 1 421 30 view .LVU2454
	.loc 1 421 30 is_stmt 0 view .LVU2455
.LBE2055:
	.loc 1 421 9 is_stmt 1 view .LVU2456
	.loc 1 421 5 view .LVU2457
	.loc 1 421 28 view .LVU2458
	.loc 1 421 52 view .LVU2459
	.loc 1 421 80 view .LVU2460
.LBE2058:
.LBE2062:
.LBE2068:
.LBE2073:
.LBE2078:
	.loc 1 421 6 view .LVU2461
	.loc 1 421 45 view .LVU2462
	.loc 1 421 50 view .LVU2463
	.loc 1 421 80 view .LVU2464
	.loc 1 421 147 view .LVU2465
	.loc 1 421 152 view .LVU2466
	.loc 1 421 182 view .LVU2467
.LBB2079:
.LBB2074:
.LBB2069:
.LBB2063:
.LBB2059:
	.loc 1 421 256 view .LVU2468
	.loc 1 421 16 view .LVU2469
.LBB2056:
	.loc 1 421 6 view .LVU2470
	.loc 1 421 164 view .LVU2471
	.loc 1 421 166 view .LVU2472
	.loc 1 421 176 is_stmt 0 view .LVU2473
	movs	r3, #4
	str	r3, [r2, #16]!
.LVL291:
	.loc 1 421 176 view .LVU2474
.LBE2056:
.LBE2059:
	.loc 1 421 26 is_stmt 1 view .LVU2475
	.loc 1 421 7 view .LVU2476
	.loc 1 421 147 view .LVU2477
	.loc 1 421 149 view .LVU2478
	mov	r1, #8256
.LVL292:
	.loc 1 421 149 is_stmt 0 view .LVU2479
	bl	z_log_msg_static_create.constprop.0
.LVL293:
	.loc 1 421 149 view .LVU2480
.LBE2063:
.LBE2069:
.LBE2074:
.LBE2079:
	.loc 1 424 10 view .LVU2481
	mvn	r0, #21
.LBB2080:
.LBB2075:
.LBB2070:
.LBB2064:
	mov	sp, r4
.LVL294:
	.loc 1 424 10 view .LVU2482
.LBE2064:
	.loc 1 421 107 is_stmt 1 view .LVU2483
	.loc 1 421 5 view .LVU2484
	.loc 1 421 42 view .LVU2485
.LBE2070:
	.loc 1 421 6 view .LVU2486
.LBE2075:
	.loc 1 421 278 view .LVU2487
	.loc 1 421 5 view .LVU2488
	.loc 1 421 18 view .LVU2489
.LBE2080:
	.loc 1 421 6 view .LVU2490
	.loc 1 424 3 view .LVU2491
.L135:
	.loc 1 439 1 is_stmt 0 view .LVU2492
	mov	sp, r7
	.cfi_remember_state
	.cfi_def_cfa_register 13
	@ sp needed
	pop	{r4, r5, r7, pc}
.LVL295:
.L136:
	.cfi_restore_state
	.loc 1 430 2 is_stmt 1 view .LVU2493
	.loc 1 430 57 is_stmt 0 view .LVU2494
	strb	r3, [r1, #29]
	.loc 1 432 2 is_stmt 1 view .LVU2495
	.loc 1 432 12 is_stmt 0 view .LVU2496
	movs	r3, #0
.LVL296:
	.loc 1 432 12 view .LVU2497
	bl	bt_conn_send_cb
.LVL297:
	.loc 1 434 2 is_stmt 1 view .LVU2498
	b	.L135
.L139:
	.align	2
.L138:
	.word	.LC8
	.word	log_const_bt_conn
	.cfi_endproc
.LFE601:
	.size	bt_conn_send_iso_cb, .-bt_conn_send_iso_cb
	.section	.text.bt_conn_prepare_events,"ax",%progbits
	.align	1
	.global	bt_conn_prepare_events
	.syntax unified
	.thumb
	.thumb_func
	.type	bt_conn_prepare_events, %function
bt_conn_prepare_events:
.LVL298:
.LFB614:
	.loc 1 865 1 view -0
	.cfi_startproc
	@ args = 0, pretend = 0, frame = 0
	@ frame_needed = 0, uses_anonymous_args = 0
	.loc 1 866 2 view .LVU2500
	.loc 1 867 2 view .LVU2501
	.loc 1 869 2 view .LVU2502
.LBB2117:
	.loc 1 869 7 view .LVU2503
.LBE2117:
	.loc 1 869 5 view .LVU2504
	.loc 1 871 2 view .LVU2505
.LBB2118:
.LBI2118:
	.loc 7 1467 20 view .LVU2506
.LBB2119:
	.loc 7 1476 2 view .LVU2507
	.loc 7 1476 7 view .LVU2508
.LBE2119:
.LBE2118:
	.loc 1 865 1 is_stmt 0 view .LVU2509
	push	{r3, r4, r5, r6, r7, r8, r9, r10, fp, lr}
	.cfi_def_cfa_offset 40
	.cfi_offset 3, -40
	.cfi_offset 4, -36
	.cfi_offset 5, -32
	.cfi_offset 6, -28
	.cfi_offset 7, -24
	.cfi_offset 8, -20
	.cfi_offset 9, -16
	.cfi_offset 10, -12
	.cfi_offset 11, -8
	.cfi_offset 14, -4
	.loc 1 865 1 view .LVU2510
	mov	r6, r0
.LBB2122:
.LBB2120:
	.loc 7 1476 7 view .LVU2511
	.loc 7 1476 5 is_stmt 1 view .LVU2512
	.loc 7 1477 2 view .LVU2513
	ldr	r0, .L159
.LVL299:
	.loc 7 1477 2 is_stmt 0 view .LVU2514
	ldr	r4, .L159+4
.LBE2120:
.LBE2122:
.LBB2123:
.LBB2124:
.LBB2125:
.LBB2126:
	.loc 1 168 15 view .LVU2515
	ldr	r9, .L159+12
.LBE2126:
.LBE2125:
.LBE2124:
.LBE2123:
.LBB2154:
.LBB2121:
	.loc 7 1477 2 view .LVU2516
	bl	z_impl_k_poll_signal_init
.LVL300:
	.loc 7 1477 2 view .LVU2517
.LBE2121:
.LBE2154:
	.loc 1 873 2 is_stmt 1 view .LVU2518
	.loc 1 873 2 is_stmt 0 view .LVU2519
	ldr	r3, .L159
	movs	r2, #0
	movs	r1, #1
	mov	r0, r6
	bl	k_poll_event_init
.LVL301:
	.loc 1 877 2 is_stmt 1 view .LVU2520
	.loc 1 877 16 view .LVU2521
	.loc 1 873 36 is_stmt 0 view .LVU2522
	movs	r5, #1
	.loc 1 877 9 view .LVU2523
	movs	r7, #0
	.loc 1 880 41 view .LVU2524
	mov	r10, #20
.LBB2155:
.LBB2148:
	.loc 1 859 16 view .LVU2525
	mov	fp, r5
.LVL302:
.L147:
	.loc 1 859 16 view .LVU2526
.LBE2148:
.LBE2155:
	.loc 1 878 3 is_stmt 1 view .LVU2527
	.loc 1 880 3 view .LVU2528
.LBB2156:
.LBI2123:
	.loc 1 811 12 view .LVU2529
.LBB2149:
	.loc 1 814 2 view .LVU2530
.LBB2129:
.LBI2129:
	.loc 3 159 28 view .LVU2531
.LBB2130:
	.loc 3 161 2 view .LVU2532
	.loc 3 161 9 is_stmt 0 view .LVU2533
	dmb	ish
	ldr	r3, [r4, #188]
	dmb	ish
.LVL303:
	.loc 3 161 9 view .LVU2534
.LBE2130:
.LBE2129:
	.loc 1 814 5 view .LVU2535
	cbz	r3, .L142
	.loc 1 818 2 is_stmt 1 view .LVU2536
	.loc 1 818 5 is_stmt 0 view .LVU2537
	ldrb	r3, [r4, #13]	@ zero_extendqisi2
	cbnz	r3, .L143
.LVL304:
.LBB2131:
.LBI2131:
	.file 11 "/home/g/mise-work/zmk-firmware/zmk/zephyr/include/zephyr/sys/atomic.h"
	.loc 11 152 19 is_stmt 1 view .LVU2538
.LBB2132:
	.loc 11 154 2 view .LVU2539
	.loc 11 155 2 view .LVU2540
	.loc 11 157 2 view .LVU2541
	.loc 11 157 8 is_stmt 0 view .LVU2542
	mvn	r1, #64
	adds	r0, r4, #4
.LVL305:
	.loc 11 157 8 view .LVU2543
	bl	atomic_and
.LVL306:
	.loc 11 159 2 is_stmt 1 view .LVU2544
	.loc 11 159 2 is_stmt 0 view .LVU2545
.LBE2132:
.LBE2131:
	.loc 1 818 42 view .LVU2546
	lsls	r3, r0, #25
	bpl	.L143
	.loc 1 820 3 is_stmt 1 view .LVU2547
	mov	r0, r4
	bl	conn_cleanup
.LVL307:
	.loc 1 821 3 view .LVU2548
.L142:
	.loc 1 821 3 is_stmt 0 view .LVU2549
.LBE2149:
.LBE2156:
	.loc 1 877 199 is_stmt 1 discriminator 2 view .LVU2550
	adds	r7, r7, #1
.LVL308:
	.loc 1 877 16 discriminator 2 view .LVU2551
	cmp	r7, #5
	add	r4, r4, #192
.LVL309:
	.loc 1 877 16 is_stmt 0 discriminator 2 view .LVU2552
	bne	.L147
	.loc 1 896 2 is_stmt 1 view .LVU2553
	.loc 1 897 1 is_stmt 0 view .LVU2554
	mov	r0, r5
	pop	{r3, r4, r5, r6, r7, r8, r9, r10, fp, pc}
.LVL310:
.L143:
.LBB2157:
.LBB2150:
	.loc 1 824 2 is_stmt 1 view .LVU2555
	.loc 1 824 5 is_stmt 0 view .LVU2556
	ldrb	r3, [r4, #13]	@ zero_extendqisi2
	cmp	r3, #7
	bne	.L142
	.loc 1 828 2 is_stmt 1 view .LVU2557
.LBB2133:
	.loc 1 828 7 view .LVU2558
.LBE2133:
	.loc 1 828 5 view .LVU2559
	.loc 1 833 2 view .LVU2560
.LVL311:
.LBB2134:
.LBI2125:
	.loc 1 146 15 view .LVU2561
.LBB2127:
	.loc 1 168 2 view .LVU2562
	.loc 1 168 5 is_stmt 0 view .LVU2563
	ldrh	r3, [r9, #260]
	cmp	r3, #0
	beq	.L142
.LBE2127:
.LBE2134:
.LBE2150:
.LBE2157:
	.loc 1 880 8 view .LVU2564
	mla	r8, r10, r5, r6
.LBB2158:
.LBB2151:
.LBB2135:
.LBB2128:
	.loc 1 169 3 is_stmt 1 view .LVU2565
.LVL312:
	.loc 1 169 3 is_stmt 0 view .LVU2566
.LBE2128:
.LBE2135:
	.loc 1 835 2 is_stmt 1 view .LVU2567
	.loc 1 839 1 view .LVU2568
.LBB2136:
.LBI2136:
	.loc 7 1144 28 view .LVU2569
.LBB2137:
	.loc 7 1152 2 view .LVU2570
	.loc 7 1152 7 view .LVU2571
	.loc 7 1152 5 view .LVU2572
	.loc 7 1153 2 view .LVU2573
.LVL313:
.LBB2138:
.LBI2138:
	.loc 10 3225 28 view .LVU2574
.LBB2139:
	.loc 10 3227 2 view .LVU2575
	.loc 10 3227 12 is_stmt 0 view .LVU2576
	ldr	r2, [r9, #272]
.LVL314:
	.loc 10 3227 12 view .LVU2577
.LBE2139:
.LBE2138:
.LBE2137:
.LBE2136:
	.loc 1 840 1 is_stmt 1 view .LVU2578
.LBB2140:
.LBI2140:
	.loc 7 701 19 view .LVU2579
.LBB2141:
	.loc 7 709 2 view .LVU2580
	.loc 7 709 7 view .LVU2581
	.loc 7 709 5 view .LVU2582
	.loc 7 710 2 view .LVU2583
.LVL315:
.LBB2142:
.LBI2142:
	.loc 10 2087 19 view .LVU2584
	.loc 10 2089 2 view .LVU2585
.LBB2143:
.LBI2143:
	.file 12 "/home/g/mise-work/zmk-firmware/zmk/zephyr/include/zephyr/sys/sflist.h"
	.loc 12 335 1 view .LVU2586
	.loc 12 335 43 view .LVU2587
.LBB2144:
.LBI2144:
	.loc 12 255 29 view .LVU2588
.LBB2145:
	.loc 12 257 2 view .LVU2589
	.loc 12 257 2 is_stmt 0 view .LVU2590
.LBE2145:
.LBE2144:
.LBE2143:
.LBE2142:
.LBE2141:
.LBE2140:
	.loc 1 842 2 is_stmt 1 view .LVU2591
	.loc 1 842 5 is_stmt 0 view .LVU2592
	ldr	r3, [r4, #56]
	cbz	r3, .L145
	.loc 1 842 22 view .LVU2593
	cbnz	r2, .L145
	.loc 1 846 3 is_stmt 1 view .LVU2594
.LBB2146:
	.loc 1 846 8 view .LVU2595
.LBE2146:
	.loc 1 846 6 view .LVU2596
	.loc 1 847 3 view .LVU2597
	ldr	r3, .L159+8
.LVL316:
	.loc 1 847 3 is_stmt 0 view .LVU2598
	movs	r1, #2
.LVL317:
.L158:
	.loc 1 854 3 view .LVU2599
	mov	r0, r8
	bl	k_poll_event_init
.LVL318:
	.loc 1 859 2 is_stmt 1 view .LVU2600
.LBE2151:
.LBE2158:
	.loc 1 881 12 is_stmt 0 view .LVU2601
	adds	r5, r5, #1
.LVL319:
.LBB2159:
.LBB2152:
	.loc 1 859 16 view .LVU2602
	strb	fp, [r8, #12]
	.loc 1 861 2 is_stmt 1 view .LVU2603
.LVL320:
	.loc 1 861 2 is_stmt 0 view .LVU2604
.LBE2152:
.LBE2159:
	.loc 1 881 4 is_stmt 1 view .LVU2605
	.loc 1 881 4 is_stmt 0 view .LVU2606
	b	.L142
.LVL321:
.L145:
.LBB2160:
.LBB2153:
	.loc 1 853 3 is_stmt 1 view .LVU2607
.LBB2147:
	.loc 1 853 8 view .LVU2608
.LBE2147:
	.loc 1 853 6 view .LVU2609
	.loc 1 854 3 view .LVU2610
	add	r3, r4, #56
.LVL322:
	.loc 1 854 3 is_stmt 0 view .LVU2611
	movs	r2, #0
.LVL323:
	.loc 1 854 3 view .LVU2612
	movs	r1, #4
	b	.L158
.L160:
	.align	2
.L159:
	.word	conn_change
	.word	acl_conns
	.word	bt_dev+264
	.word	bt_dev
.LBE2153:
.LBE2160:
	.cfi_endproc
.LFE614:
	.size	bt_conn_prepare_events, .-bt_conn_prepare_events
	.section	.text.bt_conn_ref,"ax",%progbits
	.align	1
	.global	bt_conn_ref
	.syntax unified
	.thumb
	.thumb_func
	.type	bt_conn_ref, %function
bt_conn_ref:
.LFB621:
	.loc 1 1287 1 is_stmt 1 view -0
	.cfi_startproc
	@ args = 0, pretend = 0, frame = 0
	@ frame_needed = 0, uses_anonymous_args = 0
.LVL324:
	.loc 1 1287 1 is_stmt 0 view .LVU2614
	push	{r4, lr}
	.cfi_def_cfa_offset 8
	.cfi_offset 4, -8
	.cfi_offset 14, -4
.L163:
	.loc 1 1288 2 is_stmt 1 view .LVU2615
	.loc 1 1290 4 view .LVU2616
	.loc 1 1290 5 view .LVU2617
	.loc 1 1297 2 view .LVU2618
	.loc 1 1298 3 view .LVU2619
.LBB2169:
.LBB2170:
	.loc 3 161 9 is_stmt 0 view .LVU2620
	dmb	ish
	ldr	r3, [r0, #188]
	dmb	ish
.LBE2170:
.LBE2169:
	.loc 1 1298 20 view .LVU2621
	add	r2, r0, #188
.LVL325:
.LBB2172:
.LBI2169:
	.loc 3 159 28 is_stmt 1 view .LVU2622
.LBB2171:
	.loc 3 161 2 view .LVU2623
	.loc 3 161 2 is_stmt 0 view .LVU2624
.LBE2171:
.LBE2172:
	.loc 1 1300 3 is_stmt 1 view .LVU2625
	.loc 1 1300 6 is_stmt 0 view .LVU2626
	cbz	r3, .L164
	.loc 1 1303 11 is_stmt 1 view .LVU2627
.LVL326:
.LBB2173:
.LBI2173:
	.loc 3 40 19 view .LVU2628
.LBB2174:
	.loc 3 43 2 view .LVU2629
	.loc 3 43 9 is_stmt 0 view .LVU2630
	dmb	ish
.LBE2174:
.LBE2173:
	.loc 1 1303 12 view .LVU2631
	adds	r1, r3, #1
.LVL327:
.L167:
.LBB2176:
.LBB2175:
	.loc 3 43 9 view .LVU2632
	ldrex	r4, [r2]
	cmp	r4, r3
	bne	.L168
	strex	ip, r1, [r2]
	cmp	ip, #0
	bne	.L167
.L168:
.LVL328:
	.loc 3 43 9 view .LVU2633
	dmb	ish
.LBE2175:
.LBE2176:
	.loc 1 1303 11 view .LVU2634
	bne	.L163
.LVL329:
.L162:
	.loc 1 1308 1 view .LVU2635
	pop	{r4, pc}
.LVL330:
.L164:
	.loc 1 1301 10 view .LVU2636
	mov	r0, r3
.LVL331:
	.loc 1 1301 10 view .LVU2637
	b	.L162
	.cfi_endproc
.LFE621:
	.size	bt_conn_ref, .-bt_conn_ref
	.section	.text.bt_conn_unref,"ax",%progbits
	.align	1
	.global	bt_conn_unref
	.syntax unified
	.thumb
	.thumb_func
	.type	bt_conn_unref, %function
bt_conn_unref:
.LVL332:
.LFB622:
	.loc 1 1311 1 is_stmt 1 view -0
	.cfi_startproc
	@ args = 0, pretend = 0, frame = 0
	@ frame_needed = 0, uses_anonymous_args = 0
	@ link register save eliminated.
	.loc 1 1312 2 view .LVU2639
	.loc 1 1314 2 view .LVU2640
	.loc 1 1314 8 is_stmt 0 view .LVU2641
	add	r3, r0, #188
.LVL333:
.LBB2187:
.LBI2187:
	.loc 3 141 28 is_stmt 1 view .LVU2642
	.loc 3 143 2 view .LVU2643
.LBB2188:
.LBI2188:
	.loc 3 105 28 view .LVU2644
.LBB2189:
	.loc 3 107 2 view .LVU2645
	.loc 3 107 9 is_stmt 0 view .LVU2646
	dmb	ish
.L173:
	ldrex	r1, [r3]
	subs	r1, r1, #1
	strex	r2, r1, [r3]
	cmp	r2, #0
	bne	.L173
	dmb	ish
.LVL334:
	.loc 3 107 9 view .LVU2647
.LBE2189:
.LBE2188:
.LBE2187:
	.loc 1 1316 2 is_stmt 1 view .LVU2648
.LBB2190:
	.loc 1 1316 7 view .LVU2649
.LBE2190:
	.loc 1 1316 5 view .LVU2650
	.loc 1 1318 4 view .LVU2651
	.loc 1 1318 5 view .LVU2652
	.loc 1 1320 2 view .LVU2653
	.loc 1 1320 5 is_stmt 0 view .LVU2654
	ldrh	r2, [r0, #2]
	movw	r3, #257
	cmp	r2, r3
	bne	.L169
.LVL335:
.LBB2191:
.LBI2191:
	.loc 3 159 28 is_stmt 1 view .LVU2655
.LBB2192:
	.loc 3 161 2 view .LVU2656
	.loc 3 161 9 is_stmt 0 view .LVU2657
	dmb	ish
	ldr	r3, [r0, #188]
	dmb	ish
.LVL336:
	.loc 3 161 9 view .LVU2658
.LBE2192:
.LBE2191:
	.loc 1 1321 44 view .LVU2659
	cbnz	r3, .L169
	.loc 1 1322 3 is_stmt 1 view .LVU2660
	b	bt_le_adv_resume
.LVL337:
.L169:
	.loc 1 1324 1 is_stmt 0 view .LVU2661
	bx	lr
	.cfi_endproc
.LFE622:
	.size	bt_conn_unref, .-bt_conn_unref
	.section	.text.conn_lookup_handle,"ax",%progbits
	.align	1
	.global	conn_lookup_handle
	.syntax unified
	.thumb
	.thumb_func
	.type	conn_lookup_handle, %function
conn_lookup_handle:
.LVL338:
.LFB617:
	.loc 1 983 1 is_stmt 1 view -0
	.cfi_startproc
	@ args = 0, pretend = 0, frame = 0
	@ frame_needed = 0, uses_anonymous_args = 0
	.loc 1 984 2 view .LVU2663
	.loc 1 986 2 view .LVU2664
	.loc 1 983 1 is_stmt 0 view .LVU2665
	push	{r3, r4, r5, r6, r7, r8, r9, lr}
	.cfi_def_cfa_offset 32
	.cfi_offset 3, -32
	.cfi_offset 4, -28
	.cfi_offset 5, -24
	.cfi_offset 6, -20
	.cfi_offset 7, -16
	.cfi_offset 8, -12
	.cfi_offset 9, -8
	.cfi_offset 14, -4
	.loc 1 983 1 view .LVU2666
	mov	r7, r0
	mov	r6, r1
	mov	r8, r2
	.loc 1 986 9 view .LVU2667
	movs	r4, #0
.LBB2196:
	.loc 1 987 26 view .LVU2668
	mov	r9, #192
.LVL339:
.L175:
	.loc 1 987 26 view .LVU2669
.LBE2196:
	.loc 1 986 16 is_stmt 1 discriminator 1 view .LVU2670
	cmp	r4, r6
	bne	.L181
	.loc 1 1007 8 is_stmt 0 view .LVU2671
	movs	r3, #0
.L174:
	.loc 1 1008 1 view .LVU2672
	mov	r0, r3
	pop	{r3, r4, r5, r6, r7, r8, r9, pc}
.LVL340:
.L181:
.LBB2199:
	.loc 1 987 3 is_stmt 1 view .LVU2673
	.loc 1 987 26 is_stmt 0 view .LVU2674
	mla	r0, r9, r4, r7
	bl	bt_conn_ref
.LVL341:
	.loc 1 989 3 is_stmt 1 view .LVU2675
	.loc 1 987 26 is_stmt 0 view .LVU2676
	mov	r3, r0
	.loc 1 989 6 view .LVU2677
	cbz	r0, .L176
	.loc 1 994 3 is_stmt 1 view .LVU2678
	ldrb	r5, [r0, #13]	@ zero_extendqisi2
.LBB2197:
.LBI2197:
	.file 13 "/home/g/mise-work/zmk-firmware/zmk/zephyr/subsys/bluetooth/host/conn_internal.h"
	.loc 13 302 19 view .LVU2679
.LVL342:
.LBB2198:
	.loc 13 304 2 view .LVU2680
	cmp	r5, #1
	beq	.L177
	subs	r5, r5, #7
	cmp	r5, #1
	bhi	.L188
.L177:
.LVL343:
	.loc 13 304 2 is_stmt 0 view .LVU2681
.LBE2198:
.LBE2197:
	.loc 1 999 3 is_stmt 1 view .LVU2682
	.loc 1 999 6 is_stmt 0 view .LVU2683
	ldrh	r2, [r3]
	cmp	r2, r8
	beq	.L174
	.loc 1 1000 4 is_stmt 1 discriminator 1 view .LVU2684
	mov	r0, r3
.LVL344:
.L188:
	.loc 1 1000 4 is_stmt 0 discriminator 1 view .LVU2685
	bl	bt_conn_unref
.LVL345:
	.loc 1 1001 4 is_stmt 1 discriminator 1 view .LVU2686
.L176:
.LBE2199:
	.loc 1 986 25 discriminator 2 view .LVU2687
	adds	r4, r4, #1
.LVL346:
	.loc 1 986 25 is_stmt 0 discriminator 2 view .LVU2688
	b	.L175
	.cfi_endproc
.LFE617:
	.size	conn_lookup_handle, .-conn_lookup_handle
	.section	.rodata.bt_conn_set_state.str1.1,"aMS",%progbits,1
.LC11:
	.ascii	"(unknown)\000"
.LC12:
	.ascii	"no transition %s\000"
.LC13:
	.ascii	"Invalid (%u) old state\000"
.LC14:
	.ascii	"no valid (%u) state was set\000"
	.section	.text.bt_conn_set_state,"ax",%progbits
	.align	1
	.global	bt_conn_set_state
	.syntax unified
	.thumb
	.thumb_func
	.type	bt_conn_set_state, %function
bt_conn_set_state:
.LVL347:
.LFB618:
	.loc 1 1011 1 is_stmt 1 view -0
	.cfi_startproc
	@ args = 0, pretend = 0, frame = 0
	@ frame_needed = 1, uses_anonymous_args = 0
	.loc 1 1012 2 view .LVU2690
	.loc 1 1014 2 view .LVU2691
.LBB2285:
	.loc 1 1014 7 view .LVU2692
.LBE2285:
	.loc 1 1014 5 view .LVU2693
	.loc 1 1016 2 view .LVU2694
	.loc 1 1011 1 is_stmt 0 view .LVU2695
	push	{r4, r5, r6, r7, r8, lr}
	.cfi_def_cfa_offset 24
	.cfi_offset 4, -24
	.cfi_offset 5, -20
	.cfi_offset 6, -16
	.cfi_offset 7, -12
	.cfi_offset 8, -8
	.cfi_offset 14, -4
	.loc 1 1016 10 view .LVU2696
	ldrb	r6, [r0, #13]	@ zero_extendqisi2
	.loc 1 1016 5 view .LVU2697
	cmp	r6, r1
	.loc 1 1011 1 view .LVU2698
	add	r7, sp, #0
	.cfi_def_cfa_register 7
	.loc 1 1011 1 view .LVU2699
	mov	r4, r0
	mov	r5, r1
	.loc 1 1016 5 view .LVU2700
	bne	.L190
	.loc 1 1017 3 is_stmt 1 view .LVU2701
.LBB2286:
	.loc 1 1017 8 view .LVU2702
	.loc 1 1017 57 view .LVU2703
	.loc 1 1017 14 view .LVU2704
	.loc 1 1017 2 view .LVU2705
.LVL348:
	.loc 1 1017 41 view .LVU2706
	.loc 1 1017 176 view .LVU2707
	.loc 1 1017 187 view .LVU2708
	.loc 1 1017 275 view .LVU2709
.LBB2287:
	.loc 1 1017 3 view .LVU2710
	.loc 1 1017 5 view .LVU2711
.LBB2288:
.LBI2288:
	.loc 1 176 27 view .LVU2712
	.loc 1 178 2 view .LVU2713
	cmp	r6, #8
	itet	ls
	ldrls	r3, .L244
.LBE2288:
.LBE2287:
.LBE2286:
	.loc 1 1016 5 is_stmt 0 view .LVU2714
	ldrhi	r3, .L244+4
.LVL349:
	.loc 1 1016 5 view .LVU2715
	ldrls	r3, [r3, r6, lsl #2]
.LVL350:
.LBB2308:
.LBB2304:
	.loc 1 1017 3 is_stmt 1 view .LVU2716
.LBB2289:
	.loc 1 1017 8 view .LVU2717
	.loc 1 1017 2 view .LVU2718
.LBE2289:
.LBE2304:
.LBE2308:
	.loc 1 1017 3 view .LVU2719
	.loc 1 1017 12 view .LVU2720
	.loc 1 1017 107 view .LVU2721
	.loc 1 1017 3 view .LVU2722
.LBB2309:
.LBB2305:
.LBB2301:
	.loc 1 1017 12 view .LVU2723
	.loc 1 1017 102 view .LVU2724
	.loc 1 1017 104 view .LVU2725
.LBB2290:
	.loc 1 1017 107 is_stmt 0 view .LVU2726
	mov	r4, sp
	.loc 1 1017 109 is_stmt 1 view .LVU2727
	.loc 1 1017 120 view .LVU2728
.LVL351:
	.loc 1 1017 209 view .LVU2729
	.loc 1 1017 26 view .LVU2730
.LBE2290:
.LBE2301:
.LBE2305:
.LBE2309:
	.loc 1 1017 3 view .LVU2731
	.loc 1 1017 368 view .LVU2732
	.loc 1 1017 75 view .LVU2733
	.loc 1 1017 2 view .LVU2734
	.loc 1 1017 2 view .LVU2735
	.loc 1 1017 2 view .LVU2736
	.loc 1 1017 38 view .LVU2737
	.loc 1 1017 4 view .LVU2738
	.loc 1 1017 30 view .LVU2739
	.loc 1 1017 56 view .LVU2740
	.loc 1 1017 523 view .LVU2741
	.loc 1 1017 585 view .LVU2742
	.loc 1 1017 1106 view .LVU2743
	.loc 1 1017 1171 view .LVU2744
	.loc 1 1017 1196 view .LVU2745
	.loc 1 1017 1197 view .LVU2746
	.loc 1 1017 1199 view .LVU2747
	.loc 1 1017 1229 view .LVU2748
	.loc 1 1017 1259 view .LVU2749
	.loc 1 1017 1291 view .LVU2750
	.loc 1 1017 1323 view .LVU2751
	.loc 1 1017 1355 view .LVU2752
	.loc 1 1017 1552 view .LVU2753
	.loc 1 1017 1576 view .LVU2754
	.loc 1 1017 1577 view .LVU2755
	.loc 1 1017 1579 view .LVU2756
	.loc 1 1017 1608 view .LVU2757
	.loc 1 1017 1637 view .LVU2758
	.loc 1 1017 1668 view .LVU2759
	.loc 1 1017 1699 view .LVU2760
	.loc 1 1017 1730 view .LVU2761
	.loc 1 1017 1937 view .LVU2762
	.loc 1 1017 4 view .LVU2763
	.loc 1 1017 22 view .LVU2764
	.loc 1 1017 42 view .LVU2765
	.loc 1 1017 4 view .LVU2766
	.loc 1 1017 42 view .LVU2767
	.loc 1 1017 13 view .LVU2768
	.loc 1 1017 13 view .LVU2769
	.loc 1 1017 61 view .LVU2770
	.loc 1 1017 92 view .LVU2771
	.loc 1 1017 126 view .LVU2772
	.loc 1 1017 131 view .LVU2773
	.loc 1 1017 371 view .LVU2774
	.loc 1 1017 1384 view .LVU2775
	.loc 1 1017 1449 view .LVU2776
	.loc 1 1017 1473 view .LVU2777
	.loc 1 1017 1517 view .LVU2778
	.loc 1 1017 1528 view .LVU2779
	.loc 1 1017 1630 view .LVU2780
	.loc 1 1017 1646 view .LVU2781
	.loc 1 1017 1686 view .LVU2782
	.loc 1 1017 1711 view .LVU2783
	.loc 1 1017 2980 view .LVU2784
	.loc 1 1017 3021 view .LVU2785
	.loc 1 1017 7 view .LVU2786
	.loc 1 1017 30 view .LVU2787
	.loc 1 1017 129 view .LVU2788
	.loc 1 1017 6 view .LVU2789
	.loc 1 1017 11 view .LVU2790
	.loc 1 1017 236 view .LVU2791
	.loc 1 1017 1189 view .LVU2792
	.loc 1 1017 1254 view .LVU2793
	.loc 1 1017 1278 view .LVU2794
	.loc 1 1017 1307 view .LVU2795
	.loc 1 1017 1318 view .LVU2796
	.loc 1 1017 1405 view .LVU2797
	.loc 1 1017 1421 view .LVU2798
	.loc 1 1017 1461 view .LVU2799
	.loc 1 1017 1551 view .LVU2800
	.loc 1 1017 1954 view .LVU2801
	.loc 1 1017 2611 view .LVU2802
	.loc 1 1017 2630 view .LVU2803
	.loc 1 1017 2667 view .LVU2804
	.loc 1 1017 2725 view .LVU2805
	.loc 1 1017 2766 view .LVU2806
	.loc 1 1017 7 view .LVU2807
	.loc 1 1017 30 view .LVU2808
	.loc 1 1017 9 view .LVU2809
	.loc 1 1017 5 view .LVU2810
	.loc 1 1017 28 view .LVU2811
	.loc 1 1017 52 view .LVU2812
	.loc 1 1017 80 view .LVU2813
	.loc 1 1017 256 view .LVU2814
	.loc 1 1017 16 view .LVU2815
.LBB2310:
.LBB2306:
.LBB2302:
.LBB2299:
	.loc 1 1017 29 view .LVU2816
	.loc 1 1017 3 view .LVU2817
	.loc 1 1017 3 view .LVU2818
	.loc 1 1017 70 view .LVU2819
	.loc 1 1017 82 is_stmt 0 view .LVU2820
	sub	sp, sp, #32
	mov	r2, sp
.LVL352:
	.loc 1 1017 74 is_stmt 1 view .LVU2821
	.loc 1 1017 484 view .LVU2822
	.loc 1 1017 5 view .LVU2823
	.loc 1 1017 7 view .LVU2824
	.loc 1 1017 12 view .LVU2825
	.loc 1 1017 10 view .LVU2826
	.loc 1 1017 5 view .LVU2827
	.loc 1 1017 23 view .LVU2828
.LBB2291:
	.loc 1 1017 3 view .LVU2829
	.loc 1 1017 368 view .LVU2830
	.loc 1 1017 75 view .LVU2831
.LVL353:
	.loc 1 1017 2 view .LVU2832
	.loc 1 1017 2 view .LVU2833
	.loc 1 1017 2 view .LVU2834
	.loc 1 1017 38 view .LVU2835
	.loc 1 1017 67 view .LVU2836
	.loc 1 1017 93 view .LVU2837
	.loc 1 1017 119 view .LVU2838
	.loc 1 1017 586 view .LVU2839
	.loc 1 1017 648 view .LVU2840
	.loc 1 1017 1169 view .LVU2841
	.loc 1 1017 1234 view .LVU2842
	.loc 1 1017 1259 view .LVU2843
	.loc 1 1017 1260 view .LVU2844
	.loc 1 1017 1262 view .LVU2845
	.loc 1 1017 1292 view .LVU2846
	.loc 1 1017 1322 view .LVU2847
	.loc 1 1017 1354 view .LVU2848
	.loc 1 1017 1386 view .LVU2849
	.loc 1 1017 1418 view .LVU2850
	.loc 1 1017 1615 view .LVU2851
	.loc 1 1017 1639 view .LVU2852
	.loc 1 1017 1640 view .LVU2853
	.loc 1 1017 1642 view .LVU2854
	.loc 1 1017 1671 view .LVU2855
	.loc 1 1017 1700 view .LVU2856
	.loc 1 1017 1731 view .LVU2857
	.loc 1 1017 1762 view .LVU2858
	.loc 1 1017 1793 view .LVU2859
	.loc 1 1017 2000 view .LVU2860
.LBB2292:
	.loc 1 1017 3018 view .LVU2861
	.loc 1 1017 3023 view .LVU2862
	.loc 1 1017 3557 view .LVU2863
	.loc 1 1017 0 is_stmt 0 view .LVU2864
	ldr	r1, .L244+8
.LVL354:
	.loc 1 1017 0 view .LVU2865
.LBE2292:
.LBB2293:
	.loc 1 1017 3811 view .LVU2866
	strd	r1, r3, [r2, #20]
	.loc 1 1017 2766 is_stmt 1 view .LVU2867
	.loc 1 1017 7 view .LVU2868
.LVL355:
	.loc 1 1017 30 view .LVU2869
	.loc 1 1017 30 is_stmt 0 view .LVU2870
.LBE2293:
	.loc 1 1017 9 is_stmt 1 view .LVU2871
	.loc 1 1017 5 view .LVU2872
	.loc 1 1017 28 view .LVU2873
	.loc 1 1017 52 view .LVU2874
	.loc 1 1017 80 view .LVU2875
.LBB2294:
	.loc 1 1017 6 view .LVU2876
	.loc 1 1017 45 view .LVU2877
.LBE2294:
.LBE2291:
.LBE2299:
.LBE2302:
.LBE2306:
.LBE2310:
	.loc 1 1017 50 view .LVU2878
	.loc 1 1017 80 view .LVU2879
.LBB2311:
.LBB2307:
.LBB2303:
.LBB2300:
.LBB2298:
.LBB2296:
.LBB2295:
	.loc 1 1017 182 view .LVU2880
	.loc 1 1017 214 view .LVU2881
	.loc 1 1017 208 view .LVU2882
	.loc 1 1017 182 view .LVU2883
	.loc 1 1017 214 view .LVU2884
	.loc 1 1017 227 is_stmt 0 view .LVU2885
	mov	r3, #512
.LVL356:
	.loc 1 1017 227 view .LVU2886
	strh	r3, [r2, #28]	@ movhi
	.loc 1 1017 208 is_stmt 1 view .LVU2887
.LVL357:
	.loc 1 1017 182 view .LVU2888
.LBE2295:
.LBE2296:
	.loc 1 1017 256 view .LVU2889
	.loc 1 1017 16 view .LVU2890
.LBB2297:
	.loc 1 1017 6 view .LVU2891
	.loc 1 1017 164 view .LVU2892
	.loc 1 1017 166 view .LVU2893
	.loc 1 1017 176 is_stmt 0 view .LVU2894
	ldr	r3, .L244+12
	str	r3, [r2, #16]!
.LVL358:
	.loc 1 1017 176 view .LVU2895
.LBE2297:
.LBE2298:
	.loc 1 1017 26 is_stmt 1 view .LVU2896
	.loc 1 1017 7 view .LVU2897
	.loc 1 1017 147 view .LVU2898
	.loc 1 1017 149 view .LVU2899
	mov	r1, #7296
.LVL359:
.L243:
	.loc 1 1017 149 is_stmt 0 view .LVU2900
.LBE2300:
.LBE2303:
.LBE2307:
.LBE2311:
.LBB2312:
.LBB2313:
.LBB2314:
.LBB2315:
	.loc 1 1190 149 view .LVU2901
	ldr	r0, .L244+16
	bl	z_log_msg_static_create.constprop.0
.LVL360:
	mov	sp, r4
.LBE2315:
	.loc 1 1190 107 is_stmt 1 view .LVU2902
	.loc 1 1190 5 view .LVU2903
.LVL361:
	.loc 1 1190 42 view .LVU2904
.LBE2314:
	.loc 1 1190 6 view .LVU2905
.LBE2313:
	.loc 1 1190 278 view .LVU2906
	.loc 1 1190 5 view .LVU2907
	.loc 1 1190 18 view .LVU2908
	b	.L189
.LVL362:
.L190:
	.loc 1 1190 18 is_stmt 0 view .LVU2909
.LBE2312:
	.loc 1 1021 2 is_stmt 1 view .LVU2910
	.loc 1 1022 2 view .LVU2911
	.loc 1 1022 14 is_stmt 0 view .LVU2912
	strb	r1, [r0, #13]
	.loc 1 1025 2 is_stmt 1 view .LVU2913
	cbnz	r6, .L193
	.loc 1 1031 3 view .LVU2914
	.loc 1 1031 6 is_stmt 0 view .LVU2915
	ldrb	r3, [r0, #2]	@ zero_extendqisi2
	cmp	r3, #8
	beq	.L193
	.loc 1 1032 4 is_stmt 1 view .LVU2916
	bl	bt_conn_ref
.LVL363:
.L193:
	.loc 1 1046 2 view .LVU2917
	ldrb	r3, [r4, #13]	@ zero_extendqisi2
	cmp	r3, #8
	bhi	.L194
	tbb	[pc, r3]
.L195:
	.byte	(.L198-.L195)/2
	.byte	(.L231-.L195)/2
	.byte	(.L189-.L195)/2
	.byte	(.L189-.L195)/2
	.byte	(.L189-.L195)/2
	.byte	(.L189-.L195)/2
	.byte	(.L189-.L195)/2
	.byte	(.L196-.L195)/2
	.byte	(.L189-.L195)/2
	.p2align 1
.L231:
.LBB2336:
.LBB2337:
.LBB2338:
.LBB2339:
	.loc 1 168 15 is_stmt 0 view .LVU2918
	ldr	r5, .L244+20
.LBE2339:
.LBE2338:
	.loc 1 972 21 view .LVU2919
	mov	r8, #0
.LBB2342:
.LBB2340:
	.loc 1 173 8 view .LVU2920
	add	r6, r5, #264
.LVL364:
.L197:
	.loc 1 173 8 view .LVU2921
.LBE2340:
.LBE2342:
.LBE2337:
	.loc 1 947 2 is_stmt 1 view .LVU2922
.LBB2385:
	.loc 1 948 3 view .LVU2923
	.loc 1 949 3 view .LVU2924
	.loc 1 950 3 view .LVU2925
	.loc 1 952 3 view .LVU2926
.LBB2343:
.LBI2343:
	.loc 6 42 59 view .LVU2927
.LBB2344:
	.loc 6 44 2 view .LVU2928
	.loc 6 57 2 view .LVU2929
	.loc 6 59 2 view .LVU2930
	.syntax unified
@ 59 "/home/g/mise-work/zmk-firmware/zmk/zephyr/include/zephyr/arch/arm/asm_inline_gcc.h" 1
	mov r2, #32;mrs r3, BASEPRI;msr BASEPRI_MAX, r2;isb;
@ 0 "" 2
.LVL365:
	.loc 6 88 2 view .LVU2931
	.loc 6 88 2 is_stmt 0 view .LVU2932
	.thumb
	.syntax unified
.LBE2344:
.LBE2343:
	.loc 1 954 3 is_stmt 1 view .LVU2933
	.loc 1 954 11 is_stmt 0 view .LVU2934
	ldr	r2, [r4, #28]
	.loc 1 954 6 view .LVU2935
	cmp	r2, #0
	beq	.L215
	.loc 1 955 4 is_stmt 1 view .LVU2936
	.loc 1 955 23 is_stmt 0 view .LVU2937
	subs	r2, r2, #1
	str	r2, [r4, #28]
	.loc 1 956 4 is_stmt 1 view .LVU2938
.LVL366:
.LBB2345:
.LBI2345:
	.loc 6 96 51 view .LVU2939
.LBB2346:
	.loc 6 107 2 view .LVU2940
	.syntax unified
@ 107 "/home/g/mise-work/zmk-firmware/zmk/zephyr/include/zephyr/arch/arm/asm_inline_gcc.h" 1
	msr BASEPRI, r3;isb;
@ 0 "" 2
.LVL367:
	.loc 6 107 2 is_stmt 0 view .LVU2941
	.thumb
	.syntax unified
.LBE2346:
.LBE2345:
	.loc 1 957 4 is_stmt 1 view .LVU2942
.LBB2347:
.LBI2347:
	.loc 1 146 15 view .LVU2943
.LBB2348:
	.loc 1 168 2 view .LVU2944
.L240:
	.loc 1 168 2 is_stmt 0 view .LVU2945
.LBE2348:
.LBE2347:
	.loc 1 977 3 is_stmt 1 view .LVU2946
.LBB2349:
.LBI2338:
	.loc 1 146 15 view .LVU2947
.LBB2341:
	.loc 1 168 2 view .LVU2948
	.loc 1 168 5 is_stmt 0 view .LVU2949
	ldrh	r3, [r5, #260]
	.loc 1 173 8 view .LVU2950
	cmp	r3, #0
	ite	ne
	movne	r0, r6
	moveq	r0, #0
.LVL368:
	.loc 1 173 8 view .LVU2951
.LBE2341:
.LBE2349:
.LBB2350:
.LBI2350:
	.loc 7 1110 20 is_stmt 1 view .LVU2952
.LBB2351:
	.loc 7 1119 2 view .LVU2953
	.loc 7 1119 7 view .LVU2954
	.loc 7 1119 5 view .LVU2955
	.loc 7 1120 2 view .LVU2956
	bl	z_impl_k_sem_give
.LVL369:
	.loc 7 1121 1 is_stmt 0 view .LVU2957
	b	.L197
.LVL370:
.L196:
	.loc 7 1121 1 view .LVU2958
.LBE2351:
.LBE2350:
.LBE2385:
.LBE2336:
	.loc 1 1048 3 is_stmt 1 view .LVU2959
	.loc 1 1048 6 is_stmt 0 view .LVU2960
	ldrb	r3, [r4, #2]	@ zero_extendqisi2
	cmp	r3, #4
	beq	.L189
	.loc 1 1052 3 is_stmt 1 view .LVU2961
.LBB2387:
	.loc 1 1052 6 view .LVU2962
	.loc 1 1052 11 view .LVU2963
	.loc 1 1052 9 view .LVU2964
	.loc 1 1052 5 view .LVU2965
.LVL371:
.LBB2388:
.LBI2388:
	.loc 7 616 20 view .LVU2966
.LBB2389:
	.loc 7 625 2 view .LVU2967
	.loc 7 625 7 view .LVU2968
	.loc 7 625 5 view .LVU2969
	.loc 7 626 2 view .LVU2970
	add	r0, r4, #56
.LVL372:
	.loc 7 626 2 is_stmt 0 view .LVU2971
	bl	z_impl_k_queue_init
.LVL373:
	.loc 7 626 2 view .LVU2972
.LBE2389:
.LBE2388:
	.loc 1 1052 47 is_stmt 1 view .LVU2973
	.loc 1 1052 52 view .LVU2974
	.loc 1 1052 50 view .LVU2975
	.loc 1 1052 65 view .LVU2976
	.loc 1 1052 70 view .LVU2977
	.loc 1 1052 68 view .LVU2978
	.loc 1 1052 83 view .LVU2979
	.loc 1 1052 88 view .LVU2980
	.loc 1 1052 86 view .LVU2981
.LBE2387:
	.loc 1 1053 3 view .LVU2982
.LBB2390:
.LBI2390:
	.loc 7 1520 19 view .LVU2983
.LBB2391:
	.loc 7 1529 2 view .LVU2984
	.loc 7 1529 7 view .LVU2985
	.loc 7 1529 5 view .LVU2986
	.loc 7 1530 2 view .LVU2987
	.loc 7 1530 9 is_stmt 0 view .LVU2988
	ldr	r0, .L244+24
	movs	r1, #0
	bl	z_impl_k_poll_signal_raise
.LVL374:
	.loc 7 1530 9 view .LVU2989
.LBE2391:
.LBE2390:
	.loc 1 1055 3 is_stmt 1 view .LVU2990
	.loc 1 1062 3 view .LVU2991
.LBB2392:
.LBI2392:
	.loc 2 199 20 view .LVU2992
.LBB2393:
	.loc 2 201 2 view .LVU2993
	.loc 2 201 13 is_stmt 0 view .LVU2994
	movs	r3, #0
	.loc 2 202 13 view .LVU2995
	strd	r3, r3, [r4, #80]
.LVL375:
	.loc 2 202 13 view .LVU2996
.LBE2393:
.LBE2392:
	.loc 1 1064 3 is_stmt 1 view .LVU2997
	.loc 1 1064 6 is_stmt 0 view .LVU2998
	ldrb	r3, [r4, #3]	@ zero_extendqisi2
	cmp	r3, #1
	bne	.L189
.LBB2394:
	.loc 1 1068 4 is_stmt 1 view .LVU2999
	.loc 1 1068 7 is_stmt 0 view .LVU3000
	ldrb	r3, [r4, #2]	@ zero_extendqisi2
	cmp	r3, #1
	.loc 1 1069 5 is_stmt 1 view .LVU3001
	.loc 1 1069 41 is_stmt 0 view .LVU3002
	itt	eq
	moveq	r3, #3
	strbeq	r3, [r4, #172]
	.loc 1 1074 4 is_stmt 1 view .LVU3003
	mov	r2, #163840
	movs	r3, #0
	add	r0, r4, #88
	bl	k_work_schedule
.LVL376:
.L189:
	.loc 1 1074 4 is_stmt 0 view .LVU3004
.LBE2394:
	.loc 1 1194 1 view .LVU3005
	mov	sp, r7
	.cfi_remember_state
	.cfi_def_cfa_register 13
	@ sp needed
	pop	{r4, r5, r6, r7, r8, pc}
.LVL377:
.L198:
	.cfi_restore_state
	.loc 1 1082 3 is_stmt 1 view .LVU3006
	.loc 1 1082 6 is_stmt 0 view .LVU3007
	ldrb	r3, [r4, #2]	@ zero_extendqisi2
	cmp	r3, #4
	bne	.L202
.L207:
	.loc 1 1143 4 is_stmt 1 view .LVU3008
	mov	r0, r4
	bl	bt_conn_unref
.LVL378:
	.loc 1 1144 4 view .LVU3009
	b	.L189
.L202:
	.loc 1 1092 3 view .LVU3010
	cmp	r6, #8
	bhi	.L189
	adr	r3, .L204
	ldr	pc, [r3, r6, lsl #2]
	.p2align 2
.L204:
	.word	.L203+1
	.word	.L209+1
	.word	.L205+1
	.word	.L207+1
	.word	.L207+1
	.word	.L205+1
	.word	.L205+1
	.word	.L203+1
	.word	.L203+1
	.p2align 1
.L209:
	.loc 1 1094 4 view .LVU3011
	mov	r0, r4
	bl	tx_notify
.LVL379:
	.loc 1 1097 4 view .LVU3012
	.loc 1 1097 7 is_stmt 0 view .LVU3013
	ldrb	r3, [r4, #2]	@ zero_extendqisi2
	cmp	r3, #1
	bne	.L211
	.loc 1 1098 35 discriminator 1 view .LVU3014
	add	r5, r4, #88
	.loc 1 1098 9 discriminator 1 view .LVU3015
	mov	r0, r5
	bl	k_work_delayable_busy_get
.LVL380:
	.loc 1 1097 40 discriminator 1 view .LVU3016
	tst	r0, #12
	beq	.L211
	.loc 1 1100 5 is_stmt 1 view .LVU3017
	mov	r0, r5
	bl	k_work_cancel_delayable
.LVL381:
.L211:
	.loc 1 1103 4 view .LVU3018
.LBB2395:
.LBI2395:
	.loc 11 217 20 view .LVU3019
.LBB2396:
	.loc 11 219 2 view .LVU3020
	.loc 11 221 2 view .LVU3021
.LBB2397:
.LBI2397:
	.loc 3 279 28 view .LVU3022
.LBB2398:
	.loc 3 281 2 view .LVU3023
	.loc 3 281 9 is_stmt 0 view .LVU3024
	dmb	ish
	adds	r4, r4, #4
.LVL382:
.L237:
	.loc 3 281 9 view .LVU3025
	ldrex	r3, [r4]
	orr	r3, r3, #64
	strex	r2, r3, [r4]
	cmp	r2, #0
	bne	.L237
	dmb	ish
.LVL383:
	.loc 3 281 9 view .LVU3026
.LBE2398:
.LBE2397:
.LBE2396:
.LBE2395:
	.loc 1 1104 4 is_stmt 1 view .LVU3027
.LBB2399:
.LBI2399:
	.loc 7 1520 19 view .LVU3028
.LBB2400:
	.loc 7 1529 2 view .LVU3029
	.loc 7 1529 7 view .LVU3030
	.loc 7 1529 5 view .LVU3031
	.loc 7 1530 2 view .LVU3032
	.loc 7 1530 9 is_stmt 0 view .LVU3033
	movs	r1, #0
	ldr	r0, .L244+24
	bl	z_impl_k_poll_signal_raise
.LVL384:
	b	.L189
.LVL385:
.L205:
	.loc 7 1530 9 view .LVU3034
.LBE2400:
.LBE2399:
	.loc 1 1112 4 is_stmt 1 view .LVU3035
	.loc 1 1112 7 is_stmt 0 view .LVU3036
	ldrb	r3, [r4, #12]	@ zero_extendqisi2
	cmp	r3, #0
	beq	.L207
	.loc 1 1113 5 is_stmt 1 view .LVU3037
	mov	r0, r4
	bl	notify_connected
.LVL386:
	b	.L207
.L203:
	.loc 1 1155 4 view .LVU3038
.LBB2401:
	.loc 1 1155 9 view .LVU3039
	.loc 1 1155 58 view .LVU3040
	.loc 1 1155 15 view .LVU3041
	.loc 1 1155 3 view .LVU3042
.LVL387:
	.loc 1 1155 42 view .LVU3043
	.loc 1 1155 177 view .LVU3044
	.loc 1 1155 188 view .LVU3045
	.loc 1 1155 276 view .LVU3046
.LBB2402:
	.loc 1 1155 4 view .LVU3047
	.loc 1 1155 6 view .LVU3048
	.loc 1 1155 4 view .LVU3049
.LBB2403:
	.loc 1 1155 9 view .LVU3050
	.loc 1 1155 3 view .LVU3051
.LBE2403:
.LBE2402:
.LBE2401:
	.loc 1 1155 4 view .LVU3052
	.loc 1 1155 13 view .LVU3053
	.loc 1 1155 108 view .LVU3054
	.loc 1 1155 4 view .LVU3055
.LBB2412:
.LBB2410:
.LBB2408:
	.loc 1 1155 13 view .LVU3056
	.loc 1 1155 103 view .LVU3057
	.loc 1 1155 105 view .LVU3058
.LBB2404:
	.loc 1 1155 108 is_stmt 0 view .LVU3059
	mov	r4, sp
.LVL388:
	.loc 1 1155 110 is_stmt 1 view .LVU3060
	.loc 1 1155 121 view .LVU3061
	.loc 1 1155 210 view .LVU3062
	.loc 1 1155 27 view .LVU3063
.LBE2404:
.LBE2408:
.LBE2410:
.LBE2412:
	.loc 1 1155 4 view .LVU3064
	.loc 1 1155 369 view .LVU3065
	.loc 1 1155 76 view .LVU3066
	.loc 1 1155 3 view .LVU3067
	.loc 1 1155 3 view .LVU3068
	.loc 1 1155 3 view .LVU3069
	.loc 1 1155 39 view .LVU3070
	.loc 1 1155 5 view .LVU3071
	.loc 1 1155 31 view .LVU3072
	.loc 1 1155 57 view .LVU3073
	.loc 1 1155 524 view .LVU3074
	.loc 1 1155 586 view .LVU3075
	.loc 1 1155 1107 view .LVU3076
	.loc 1 1155 1172 view .LVU3077
	.loc 1 1155 1197 view .LVU3078
	.loc 1 1155 1198 view .LVU3079
	.loc 1 1155 1200 view .LVU3080
	.loc 1 1155 1230 view .LVU3081
	.loc 1 1155 1260 view .LVU3082
	.loc 1 1155 1292 view .LVU3083
	.loc 1 1155 1324 view .LVU3084
	.loc 1 1155 1356 view .LVU3085
	.loc 1 1155 1553 view .LVU3086
	.loc 1 1155 1577 view .LVU3087
	.loc 1 1155 1578 view .LVU3088
	.loc 1 1155 1580 view .LVU3089
	.loc 1 1155 1609 view .LVU3090
	.loc 1 1155 1638 view .LVU3091
	.loc 1 1155 1669 view .LVU3092
	.loc 1 1155 1700 view .LVU3093
	.loc 1 1155 1731 view .LVU3094
	.loc 1 1155 1938 view .LVU3095
	.loc 1 1155 5 view .LVU3096
	.loc 1 1155 23 view .LVU3097
	.loc 1 1155 43 view .LVU3098
	.loc 1 1155 5 view .LVU3099
	.loc 1 1155 43 view .LVU3100
	.loc 1 1155 14 view .LVU3101
	.loc 1 1155 14 view .LVU3102
	.loc 1 1155 62 view .LVU3103
	.loc 1 1155 93 view .LVU3104
	.loc 1 1155 127 view .LVU3105
	.loc 1 1155 132 view .LVU3106
	.loc 1 1155 378 view .LVU3107
	.loc 1 1155 1415 view .LVU3108
	.loc 1 1155 1480 view .LVU3109
	.loc 1 1155 1504 view .LVU3110
	.loc 1 1155 1554 view .LVU3111
	.loc 1 1155 1565 view .LVU3112
	.loc 1 1155 1673 view .LVU3113
	.loc 1 1155 1689 view .LVU3114
	.loc 1 1155 1729 view .LVU3115
	.loc 1 1155 1754 view .LVU3116
	.loc 1 1155 3035 view .LVU3117
	.loc 1 1155 3076 view .LVU3118
	.loc 1 1155 8 view .LVU3119
	.loc 1 1155 31 view .LVU3120
	.loc 1 1155 130 view .LVU3121
	.loc 1 1155 7 view .LVU3122
	.loc 1 1155 12 view .LVU3123
	.loc 1 1155 237 view .LVU3124
	.loc 1 1155 1190 view .LVU3125
	.loc 1 1155 1255 view .LVU3126
	.loc 1 1155 1279 view .LVU3127
	.loc 1 1155 1308 view .LVU3128
	.loc 1 1155 1319 view .LVU3129
	.loc 1 1155 1406 view .LVU3130
	.loc 1 1155 1422 view .LVU3131
	.loc 1 1155 1462 view .LVU3132
	.loc 1 1155 2726 view .LVU3133
	.loc 1 1155 2767 view .LVU3134
	.loc 1 1155 8 view .LVU3135
	.loc 1 1155 31 view .LVU3136
	.loc 1 1155 10 view .LVU3137
	.loc 1 1155 6 view .LVU3138
	.loc 1 1155 29 view .LVU3139
	.loc 1 1155 53 view .LVU3140
	.loc 1 1155 81 view .LVU3141
	.loc 1 1155 257 view .LVU3142
	.loc 1 1155 17 view .LVU3143
.LBB2413:
.LBB2411:
.LBB2409:
.LBB2407:
	.loc 1 1155 30 view .LVU3144
	.loc 1 1155 4 view .LVU3145
	.loc 1 1155 4 view .LVU3146
	.loc 1 1155 71 view .LVU3147
	.loc 1 1155 83 is_stmt 0 view .LVU3148
	sub	sp, sp, #32
	mov	r2, sp
.LVL389:
	.loc 1 1155 75 is_stmt 1 view .LVU3149
	.loc 1 1155 485 view .LVU3150
	.loc 1 1155 6 view .LVU3151
	.loc 1 1155 8 view .LVU3152
	.loc 1 1155 13 view .LVU3153
	.loc 1 1155 11 view .LVU3154
	.loc 1 1155 6 view .LVU3155
	.loc 1 1155 24 view .LVU3156
.LBB2405:
	.loc 1 1155 4 view .LVU3157
	.loc 1 1155 369 view .LVU3158
	.loc 1 1155 76 view .LVU3159
.LVL390:
	.loc 1 1155 3 view .LVU3160
	.loc 1 1155 3 view .LVU3161
	.loc 1 1155 3 view .LVU3162
	.loc 1 1155 39 view .LVU3163
	.loc 1 1155 68 view .LVU3164
	.loc 1 1155 94 view .LVU3165
	.loc 1 1155 120 view .LVU3166
	.loc 1 1155 587 view .LVU3167
	.loc 1 1155 649 view .LVU3168
	.loc 1 1155 1170 view .LVU3169
	.loc 1 1155 1235 view .LVU3170
	.loc 1 1155 1260 view .LVU3171
	.loc 1 1155 1261 view .LVU3172
	.loc 1 1155 1263 view .LVU3173
	.loc 1 1155 1293 view .LVU3174
	.loc 1 1155 1323 view .LVU3175
	.loc 1 1155 1355 view .LVU3176
	.loc 1 1155 1387 view .LVU3177
	.loc 1 1155 1419 view .LVU3178
	.loc 1 1155 1616 view .LVU3179
	.loc 1 1155 1640 view .LVU3180
	.loc 1 1155 1641 view .LVU3181
	.loc 1 1155 1643 view .LVU3182
	.loc 1 1155 1672 view .LVU3183
	.loc 1 1155 1701 view .LVU3184
	.loc 1 1155 1732 view .LVU3185
	.loc 1 1155 1763 view .LVU3186
	.loc 1 1155 1794 view .LVU3187
	.loc 1 1155 2001 view .LVU3188
.LBB2406:
	.loc 1 1155 3073 view .LVU3189
	.loc 1 1155 3078 view .LVU3190
	.loc 1 1155 3648 view .LVU3191
	.loc 1 1155 0 is_stmt 0 view .LVU3192
	ldr	r3, .L244+28
.LVL391:
.L242:
	.loc 1 1155 0 view .LVU3193
.LBE2406:
.LBE2405:
.LBE2407:
.LBE2409:
.LBE2411:
.LBE2413:
.LBB2414:
.LBB2331:
	.loc 1 1190 17 view .LVU3194
	strd	r3, r5, [r2, #20]
.LBB2326:
.LBB2322:
.LBB2316:
.LBB2317:
	.loc 1 1190 2766 is_stmt 1 view .LVU3195
	.loc 1 1190 7 view .LVU3196
.LVL392:
	.loc 1 1190 30 view .LVU3197
	.loc 1 1190 30 is_stmt 0 view .LVU3198
.LBE2317:
	.loc 1 1190 9 is_stmt 1 view .LVU3199
	.loc 1 1190 5 view .LVU3200
	.loc 1 1190 28 view .LVU3201
	.loc 1 1190 52 view .LVU3202
	.loc 1 1190 80 view .LVU3203
.LBE2316:
.LBE2322:
.LBE2326:
.LBE2331:
.LBE2414:
	.loc 1 1190 6 view .LVU3204
	.loc 1 1190 45 view .LVU3205
	.loc 1 1190 50 view .LVU3206
	.loc 1 1190 80 view .LVU3207
	.loc 1 1190 147 view .LVU3208
	.loc 1 1190 152 view .LVU3209
	.loc 1 1190 182 view .LVU3210
.LBB2415:
.LBB2332:
.LBB2327:
.LBB2323:
.LBB2320:
	.loc 1 1190 256 view .LVU3211
	.loc 1 1190 16 view .LVU3212
.LBB2318:
	.loc 1 1190 6 view .LVU3213
	.loc 1 1190 164 view .LVU3214
	.loc 1 1190 166 view .LVU3215
	.loc 1 1190 176 is_stmt 0 view .LVU3216
	movs	r3, #3
	str	r3, [r2, #16]!
.LVL393:
	.loc 1 1190 176 view .LVU3217
.LBE2318:
.LBE2320:
	.loc 1 1190 26 is_stmt 1 view .LVU3218
	.loc 1 1190 7 view .LVU3219
	.loc 1 1190 147 view .LVU3220
	.loc 1 1190 149 view .LVU3221
	mov	r1, #6272
	b	.L243
.LVL394:
.L215:
	.loc 1 1190 149 is_stmt 0 view .LVU3222
.LBE2323:
.LBE2327:
.LBE2332:
.LBE2415:
.LBB2416:
.LBB2386:
	.loc 1 961 3 is_stmt 1 view .LVU3223
.LBB2352:
.LBI2352:
	.loc 2 392 29 view .LVU3224
.LBB2353:
	.loc 2 392 64 view .LVU3225
.LBB2354:
.LBI2354:
	.loc 2 268 1 view .LVU3226
	.loc 2 268 41 view .LVU3227
.LBB2355:
.LBI2355:
	.loc 2 238 28 view .LVU3228
.LBB2356:
	.loc 2 240 2 view .LVU3229
	.loc 2 240 13 is_stmt 0 view .LVU3230
	ldr	r1, [r4, #20]
.LVL395:
	.loc 2 240 13 view .LVU3231
.LBE2356:
.LBE2355:
.LBE2354:
	.loc 2 392 1 view .LVU3232
	cbnz	r1, .L218
.LVL396:
	.loc 2 392 1 view .LVU3233
.LBE2353:
.LBE2352:
	.loc 1 962 3 is_stmt 1 view .LVU3234
.LBB2373:
.LBI2373:
	.loc 6 96 51 view .LVU3235
.LBB2374:
	.loc 6 107 2 view .LVU3236
	.syntax unified
@ 107 "/home/g/mise-work/zmk-firmware/zmk/zephyr/include/zephyr/arch/arm/asm_inline_gcc.h" 1
	msr BASEPRI, r3;isb;
@ 0 "" 2
.LVL397:
	.loc 6 107 2 is_stmt 0 view .LVU3237
	.thumb
	.syntax unified
.LBE2374:
.LBE2373:
	.loc 1 964 3 is_stmt 1 view .LVU3238
	b	.L189
.LVL398:
.L218:
.LBB2377:
.LBB2371:
.LBB2357:
.LBI2357:
	.loc 2 379 29 view .LVU3239
.LBB2358:
	.loc 2 379 74 view .LVU3240
	.loc 2 379 121 view .LVU3241
.LBB2359:
.LBI2359:
	.loc 2 211 28 view .LVU3242
.LBB2360:
	.loc 2 213 2 view .LVU3243
.LBE2360:
.LBE2359:
	.loc 2 379 173 is_stmt 0 view .LVU3244
	ldr	r0, [r4, #24]
.LBB2362:
.LBB2361:
	.loc 2 213 13 view .LVU3245
	ldr	r2, [r1]
.LVL399:
	.loc 2 213 13 view .LVU3246
.LBE2361:
.LBE2362:
.LBB2363:
.LBI2363:
	.loc 2 221 20 is_stmt 1 view .LVU3247
.LBB2364:
	.loc 2 223 2 view .LVU3248
	.loc 2 223 13 is_stmt 0 view .LVU3249
	str	r2, [r4, #20]
.LVL400:
	.loc 2 223 13 view .LVU3250
.LBE2364:
.LBE2363:
	.loc 2 379 170 is_stmt 1 view .LVU3251
.LBB2365:
.LBI2365:
	.loc 2 250 28 view .LVU3252
.LBB2366:
	.loc 2 252 2 view .LVU3253
	.loc 2 252 2 is_stmt 0 view .LVU3254
.LBE2366:
.LBE2365:
	.loc 2 379 173 view .LVU3255
	cmp	r1, r0
.LVL401:
	.loc 2 379 173 view .LVU3256
.LBE2358:
.LBE2357:
.LBE2371:
.LBE2377:
	.loc 1 962 3 is_stmt 1 view .LVU3257
.LBB2378:
	.loc 6 96 51 view .LVU3258
.LBB2375:
	.loc 6 107 2 view .LVU3259
.LBE2375:
.LBE2378:
.LBB2379:
.LBB2372:
.LBB2370:
.LBB2369:
	.loc 2 379 211 view .LVU3260
.LBB2367:
.LBI2367:
	.loc 2 226 20 view .LVU3261
.LBB2368:
	.loc 2 228 2 view .LVU3262
	.loc 2 228 13 is_stmt 0 view .LVU3263
	it	eq
	streq	r2, [r4, #24]
.LVL402:
	.loc 2 228 13 view .LVU3264
.LBE2368:
.LBE2367:
.LBE2369:
.LBE2370:
.LBE2372:
.LBE2379:
	.loc 1 962 3 is_stmt 1 view .LVU3265
.LBB2380:
	.loc 6 96 51 view .LVU3266
.LBB2376:
	.loc 6 107 2 view .LVU3267
	.syntax unified
@ 107 "/home/g/mise-work/zmk-firmware/zmk/zephyr/include/zephyr/arch/arm/asm_inline_gcc.h" 1
	msr BASEPRI, r3;isb;
@ 0 "" 2
.LVL403:
	.loc 6 107 2 is_stmt 0 view .LVU3268
	.thumb
	.syntax unified
.LBE2376:
.LBE2380:
	.loc 1 964 3 is_stmt 1 view .LVU3269
	.loc 1 968 3 view .LVU3270
	.loc 1 970 3 view .LVU3271
.LBB2381:
.LBI2381:
	.loc 6 42 59 view .LVU3272
.LBB2382:
	.loc 6 44 2 view .LVU3273
	.loc 6 57 2 view .LVU3274
	.loc 6 59 2 view .LVU3275
	.syntax unified
@ 59 "/home/g/mise-work/zmk-firmware/zmk/zephyr/include/zephyr/arch/arm/asm_inline_gcc.h" 1
	mov r2, #32;mrs r3, BASEPRI;msr BASEPRI_MAX, r2;isb;
@ 0 "" 2
.LVL404:
	.loc 6 88 2 view .LVU3276
	.loc 6 88 2 is_stmt 0 view .LVU3277
	.thumb
	.syntax unified
.LBE2382:
.LBE2381:
	.loc 1 971 3 is_stmt 1 view .LVU3278
	.loc 1 971 27 is_stmt 0 view .LVU3279
	ldr	r2, [r1, #12]
	.loc 1 971 23 view .LVU3280
	str	r2, [r4, #28]
	.loc 1 972 3 is_stmt 1 view .LVU3281
	.loc 1 972 21 is_stmt 0 view .LVU3282
	str	r8, [r1, #12]
	.loc 1 973 3 is_stmt 1 view .LVU3283
.LVL405:
.LBB2383:
.LBI2383:
	.loc 6 96 51 view .LVU3284
.LBB2384:
	.loc 6 107 2 view .LVU3285
	.syntax unified
@ 107 "/home/g/mise-work/zmk-firmware/zmk/zephyr/include/zephyr/arch/arm/asm_inline_gcc.h" 1
	msr BASEPRI, r3;isb;
@ 0 "" 2
.LVL406:
	.loc 6 107 2 is_stmt 0 view .LVU3286
	.thumb
	.syntax unified
.LBE2384:
.LBE2383:
	.loc 1 975 3 is_stmt 1 view .LVU3287
	mov	r0, r4
	bl	conn_tx_destroy
.LVL407:
	.loc 1 975 3 is_stmt 0 view .LVU3288
	b	.L240
.LVL408:
.L194:
	.loc 1 975 3 view .LVU3289
.LBE2386:
.LBE2416:
	.loc 1 1190 3 is_stmt 1 view .LVU3290
.LBB2417:
	.loc 1 1190 8 view .LVU3291
	.loc 1 1190 57 view .LVU3292
	.loc 1 1190 14 view .LVU3293
	.loc 1 1190 2 view .LVU3294
	.loc 1 1190 41 view .LVU3295
	.loc 1 1190 176 view .LVU3296
	.loc 1 1190 187 view .LVU3297
	.loc 1 1190 275 view .LVU3298
.LBB2333:
	.loc 1 1190 3 view .LVU3299
	.loc 1 1190 5 view .LVU3300
	.loc 1 1190 3 view .LVU3301
.LBB2328:
	.loc 1 1190 8 view .LVU3302
	.loc 1 1190 2 view .LVU3303
.LBE2328:
.LBE2333:
.LBE2417:
	.loc 1 1190 3 view .LVU3304
	.loc 1 1190 12 view .LVU3305
	.loc 1 1190 107 view .LVU3306
	.loc 1 1190 3 view .LVU3307
.LBB2418:
.LBB2334:
.LBB2329:
	.loc 1 1190 12 view .LVU3308
	.loc 1 1190 102 view .LVU3309
	.loc 1 1190 104 view .LVU3310
.LBB2324:
	.loc 1 1190 107 is_stmt 0 view .LVU3311
	mov	r4, sp
.LVL409:
	.loc 1 1190 109 is_stmt 1 view .LVU3312
	.loc 1 1190 120 view .LVU3313
	.loc 1 1190 209 view .LVU3314
	.loc 1 1190 26 view .LVU3315
.LBE2324:
.LBE2329:
.LBE2334:
.LBE2418:
	.loc 1 1190 3 view .LVU3316
	.loc 1 1190 368 view .LVU3317
	.loc 1 1190 75 view .LVU3318
	.loc 1 1190 2 view .LVU3319
	.loc 1 1190 2 view .LVU3320
	.loc 1 1190 2 view .LVU3321
	.loc 1 1190 38 view .LVU3322
	.loc 1 1190 4 view .LVU3323
	.loc 1 1190 30 view .LVU3324
	.loc 1 1190 56 view .LVU3325
	.loc 1 1190 523 view .LVU3326
	.loc 1 1190 585 view .LVU3327
	.loc 1 1190 1106 view .LVU3328
	.loc 1 1190 1171 view .LVU3329
	.loc 1 1190 1196 view .LVU3330
	.loc 1 1190 1197 view .LVU3331
	.loc 1 1190 1199 view .LVU3332
	.loc 1 1190 1229 view .LVU3333
	.loc 1 1190 1259 view .LVU3334
	.loc 1 1190 1291 view .LVU3335
	.loc 1 1190 1323 view .LVU3336
	.loc 1 1190 1355 view .LVU3337
	.loc 1 1190 1552 view .LVU3338
	.loc 1 1190 1576 view .LVU3339
	.loc 1 1190 1577 view .LVU3340
	.loc 1 1190 1579 view .LVU3341
	.loc 1 1190 1608 view .LVU3342
	.loc 1 1190 1637 view .LVU3343
	.loc 1 1190 1668 view .LVU3344
	.loc 1 1190 1699 view .LVU3345
	.loc 1 1190 1730 view .LVU3346
	.loc 1 1190 1937 view .LVU3347
	.loc 1 1190 4 view .LVU3348
	.loc 1 1190 22 view .LVU3349
	.loc 1 1190 42 view .LVU3350
	.loc 1 1190 4 view .LVU3351
	.loc 1 1190 42 view .LVU3352
	.loc 1 1190 13 view .LVU3353
	.loc 1 1190 13 view .LVU3354
	.loc 1 1190 61 view .LVU3355
	.loc 1 1190 92 view .LVU3356
	.loc 1 1190 126 view .LVU3357
	.loc 1 1190 131 view .LVU3358
	.loc 1 1190 382 view .LVU3359
	.loc 1 1190 1439 view .LVU3360
	.loc 1 1190 1504 view .LVU3361
	.loc 1 1190 1528 view .LVU3362
	.loc 1 1190 1583 view .LVU3363
	.loc 1 1190 1594 view .LVU3364
	.loc 1 1190 1707 view .LVU3365
	.loc 1 1190 1723 view .LVU3366
	.loc 1 1190 1763 view .LVU3367
	.loc 1 1190 1788 view .LVU3368
	.loc 1 1190 3079 view .LVU3369
	.loc 1 1190 3120 view .LVU3370
	.loc 1 1190 7 view .LVU3371
	.loc 1 1190 30 view .LVU3372
	.loc 1 1190 129 view .LVU3373
	.loc 1 1190 6 view .LVU3374
	.loc 1 1190 11 view .LVU3375
	.loc 1 1190 236 view .LVU3376
	.loc 1 1190 1189 view .LVU3377
	.loc 1 1190 1254 view .LVU3378
	.loc 1 1190 1278 view .LVU3379
	.loc 1 1190 1307 view .LVU3380
	.loc 1 1190 1318 view .LVU3381
	.loc 1 1190 1405 view .LVU3382
	.loc 1 1190 1421 view .LVU3383
	.loc 1 1190 1461 view .LVU3384
	.loc 1 1190 2725 view .LVU3385
	.loc 1 1190 2766 view .LVU3386
	.loc 1 1190 7 view .LVU3387
	.loc 1 1190 30 view .LVU3388
	.loc 1 1190 9 view .LVU3389
	.loc 1 1190 5 view .LVU3390
	.loc 1 1190 28 view .LVU3391
	.loc 1 1190 52 view .LVU3392
	.loc 1 1190 80 view .LVU3393
	.loc 1 1190 256 view .LVU3394
	.loc 1 1190 16 view .LVU3395
.LBB2419:
.LBB2335:
.LBB2330:
.LBB2325:
	.loc 1 1190 29 view .LVU3396
	.loc 1 1190 3 view .LVU3397
	.loc 1 1190 3 view .LVU3398
	.loc 1 1190 70 view .LVU3399
	.loc 1 1190 82 is_stmt 0 view .LVU3400
	sub	sp, sp, #32
	mov	r2, sp
.LVL410:
	.loc 1 1190 74 is_stmt 1 view .LVU3401
	.loc 1 1190 484 view .LVU3402
	.loc 1 1190 5 view .LVU3403
	.loc 1 1190 7 view .LVU3404
	.loc 1 1190 12 view .LVU3405
	.loc 1 1190 10 view .LVU3406
	.loc 1 1190 5 view .LVU3407
	.loc 1 1190 23 view .LVU3408
.LBB2321:
	.loc 1 1190 3 view .LVU3409
	.loc 1 1190 368 view .LVU3410
	.loc 1 1190 75 view .LVU3411
.LVL411:
	.loc 1 1190 2 view .LVU3412
	.loc 1 1190 2 view .LVU3413
	.loc 1 1190 2 view .LVU3414
	.loc 1 1190 38 view .LVU3415
	.loc 1 1190 67 view .LVU3416
	.loc 1 1190 93 view .LVU3417
	.loc 1 1190 119 view .LVU3418
	.loc 1 1190 586 view .LVU3419
	.loc 1 1190 648 view .LVU3420
	.loc 1 1190 1169 view .LVU3421
	.loc 1 1190 1234 view .LVU3422
	.loc 1 1190 1259 view .LVU3423
	.loc 1 1190 1260 view .LVU3424
	.loc 1 1190 1262 view .LVU3425
	.loc 1 1190 1292 view .LVU3426
	.loc 1 1190 1322 view .LVU3427
	.loc 1 1190 1354 view .LVU3428
	.loc 1 1190 1386 view .LVU3429
	.loc 1 1190 1418 view .LVU3430
	.loc 1 1190 1615 view .LVU3431
	.loc 1 1190 1639 view .LVU3432
	.loc 1 1190 1640 view .LVU3433
	.loc 1 1190 1642 view .LVU3434
	.loc 1 1190 1671 view .LVU3435
	.loc 1 1190 1700 view .LVU3436
	.loc 1 1190 1731 view .LVU3437
	.loc 1 1190 1762 view .LVU3438
	.loc 1 1190 1793 view .LVU3439
	.loc 1 1190 2000 view .LVU3440
.LBB2319:
	.loc 1 1190 3117 view .LVU3441
	.loc 1 1190 3122 view .LVU3442
	.loc 1 1190 3722 view .LVU3443
	.loc 1 1190 0 is_stmt 0 view .LVU3444
	ldr	r3, .L244+32
	b	.L242
.L245:
	.align	2
.L244:
	.word	CSWTCH.6891
	.word	.LC11
	.word	.LC12
	.word	16777219
	.word	log_const_bt_conn
	.word	bt_dev
	.word	conn_change
	.word	.LC13
	.word	.LC14
.LBE2319:
.LBE2321:
.LBE2325:
.LBE2330:
.LBE2335:
.LBE2419:
	.cfi_endproc
.LFE618:
	.size	bt_conn_set_state, .-bt_conn_set_state
	.section	.text.conn_destroy,"ax",%progbits
	.align	1
	.syntax unified
	.thumb
	.thumb_func
	.type	conn_destroy, %function
conn_destroy:
.LVL412:
.LFB611:
	.loc 1 797 1 is_stmt 1 view -0
	.cfi_startproc
	@ args = 0, pretend = 0, frame = 0
	@ frame_needed = 0, uses_anonymous_args = 0
	.loc 1 798 2 view .LVU3446
	.loc 1 797 1 is_stmt 0 view .LVU3447
	push	{r4, lr}
	.cfi_def_cfa_offset 8
	.cfi_offset 4, -8
	.cfi_offset 14, -4
	.loc 1 798 39 view .LVU3448
	ldrb	r3, [r0, #13]	@ zero_extendqisi2
	.loc 1 798 5 view .LVU3449
	subs	r3, r3, #7
	cmp	r3, #1
	.loc 1 797 1 view .LVU3450
	mov	r4, r0
	.loc 1 798 5 view .LVU3451
	bhi	.L247
	.loc 1 800 3 is_stmt 1 view .LVU3452
	movs	r1, #1
.LVL413:
	.loc 1 800 3 is_stmt 0 view .LVU3453
	bl	bt_conn_set_state
.LVL414:
.L247:
	.loc 1 803 2 is_stmt 1 view .LVU3454
	mov	r0, r4
	movs	r1, #0
	.loc 1 804 1 is_stmt 0 view .LVU3455
	pop	{r4, lr}
	.cfi_restore 14
	.cfi_restore 4
	.cfi_def_cfa_offset 0
.LVL415:
	.loc 1 803 2 view .LVU3456
	b	bt_conn_set_state
.LVL416:
	.loc 1 803 2 view .LVU3457
	.cfi_endproc
.LFE611:
	.size	conn_destroy, .-conn_destroy
	.section	.rodata.bt_conn_lookup_handle.str1.1,"aMS",%progbits,1
.LC15:
	.ascii	"incompatible handle %u\000"
	.section	.text.bt_conn_lookup_handle,"ax",%progbits
	.align	1
	.global	bt_conn_lookup_handle
	.syntax unified
	.thumb
	.thumb_func
	.type	bt_conn_lookup_handle, %function
bt_conn_lookup_handle:
.LVL417:
.LFB619:
	.loc 1 1197 1 is_stmt 1 view -0
	.cfi_startproc
	@ args = 0, pretend = 0, frame = 0
	@ frame_needed = 1, uses_anonymous_args = 0
	.loc 1 1198 2 view .LVU3459
	.loc 1 1201 2 view .LVU3460
	.loc 1 1197 1 is_stmt 0 view .LVU3461
	push	{r3, r4, r5, r6, r7, lr}
	.cfi_def_cfa_offset 24
	.cfi_offset 3, -24
	.cfi_offset 4, -20
	.cfi_offset 5, -16
	.cfi_offset 6, -12
	.cfi_offset 7, -8
	.cfi_offset 14, -4
	.loc 1 1201 9 view .LVU3462
	mov	r2, r0
	.loc 1 1197 1 view .LVU3463
	add	r7, sp, #0
	.cfi_def_cfa_register 7
	.loc 1 1197 1 view .LVU3464
	mov	r5, r0
	mov	r6, r1
	.loc 1 1201 9 view .LVU3465
	ldr	r0, .L252
.LVL418:
	.loc 1 1201 9 view .LVU3466
	movs	r1, #5
.LVL419:
	.loc 1 1201 9 view .LVU3467
	bl	conn_lookup_handle
.LVL420:
	.loc 1 1202 2 is_stmt 1 view .LVU3468
	.loc 1 1202 5 is_stmt 0 view .LVU3469
	mov	r4, r0
	cbnz	r0, .L249
.LVL421:
.L251:
	.loc 1 1229 8 view .LVU3470
	movs	r4, #0
.LVL422:
.L248:
	.loc 1 1230 1 view .LVU3471
	mov	r0, r4
	mov	sp, r7
	.cfi_remember_state
	.cfi_def_cfa_register 13
	@ sp needed
	pop	{r3, r4, r5, r6, r7, pc}
.LVL423:
.L249:
	.cfi_restore_state
	.loc 1 1203 3 is_stmt 1 view .LVU3472
	.loc 1 1222 2 view .LVU3473
	.loc 1 1223 3 view .LVU3474
	.loc 1 1223 7 is_stmt 0 view .LVU3475
	ldrb	r3, [r0, #2]	@ zero_extendqisi2
	.loc 1 1223 6 view .LVU3476
	tst	r6, r3
	bne	.L248
	.loc 1 1226 3 is_stmt 1 view .LVU3477
.LBB2420:
	.loc 1 1226 8 view .LVU3478
	.loc 1 1226 57 view .LVU3479
	.loc 1 1226 14 view .LVU3480
	.loc 1 1226 2 view .LVU3481
.LVL424:
	.loc 1 1226 41 view .LVU3482
	.loc 1 1226 176 view .LVU3483
	.loc 1 1226 187 view .LVU3484
	.loc 1 1226 275 view .LVU3485
.LBB2421:
	.loc 1 1226 3 view .LVU3486
	.loc 1 1226 5 view .LVU3487
	.loc 1 1226 3 view .LVU3488
.LBB2422:
	.loc 1 1226 8 view .LVU3489
	.loc 1 1226 2 view .LVU3490
.LBE2422:
.LBE2421:
.LBE2420:
	.loc 1 1226 3 view .LVU3491
	.loc 1 1226 12 view .LVU3492
	.loc 1 1226 107 view .LVU3493
	.loc 1 1226 3 view .LVU3494
.LBB2443:
.LBB2439:
.LBB2434:
	.loc 1 1226 12 view .LVU3495
	.loc 1 1226 102 view .LVU3496
	.loc 1 1226 104 view .LVU3497
.LBB2423:
	.loc 1 1226 107 is_stmt 0 view .LVU3498
	mov	r6, sp
	.loc 1 1226 109 is_stmt 1 view .LVU3499
	.loc 1 1226 120 view .LVU3500
.LVL425:
	.loc 1 1226 209 view .LVU3501
	.loc 1 1226 26 view .LVU3502
.LBE2423:
.LBE2434:
.LBE2439:
.LBE2443:
	.loc 1 1226 3 view .LVU3503
	.loc 1 1226 368 view .LVU3504
	.loc 1 1226 75 view .LVU3505
	.loc 1 1226 2 view .LVU3506
	.loc 1 1226 2 view .LVU3507
	.loc 1 1226 2 view .LVU3508
	.loc 1 1226 38 view .LVU3509
	.loc 1 1226 4 view .LVU3510
	.loc 1 1226 30 view .LVU3511
	.loc 1 1226 56 view .LVU3512
	.loc 1 1226 523 view .LVU3513
	.loc 1 1226 585 view .LVU3514
	.loc 1 1226 1106 view .LVU3515
	.loc 1 1226 1171 view .LVU3516
	.loc 1 1226 1196 view .LVU3517
	.loc 1 1226 1197 view .LVU3518
	.loc 1 1226 1199 view .LVU3519
	.loc 1 1226 1229 view .LVU3520
	.loc 1 1226 1259 view .LVU3521
	.loc 1 1226 1291 view .LVU3522
	.loc 1 1226 1323 view .LVU3523
	.loc 1 1226 1355 view .LVU3524
	.loc 1 1226 1552 view .LVU3525
	.loc 1 1226 1576 view .LVU3526
	.loc 1 1226 1577 view .LVU3527
	.loc 1 1226 1579 view .LVU3528
	.loc 1 1226 1608 view .LVU3529
	.loc 1 1226 1637 view .LVU3530
	.loc 1 1226 1668 view .LVU3531
	.loc 1 1226 1699 view .LVU3532
	.loc 1 1226 1730 view .LVU3533
	.loc 1 1226 1937 view .LVU3534
	.loc 1 1226 4 view .LVU3535
	.loc 1 1226 22 view .LVU3536
	.loc 1 1226 42 view .LVU3537
	.loc 1 1226 4 view .LVU3538
	.loc 1 1226 42 view .LVU3539
	.loc 1 1226 13 view .LVU3540
	.loc 1 1226 13 view .LVU3541
	.loc 1 1226 61 view .LVU3542
	.loc 1 1226 92 view .LVU3543
	.loc 1 1226 126 view .LVU3544
	.loc 1 1226 131 view .LVU3545
	.loc 1 1226 377 view .LVU3546
	.loc 1 1226 1414 view .LVU3547
	.loc 1 1226 1479 view .LVU3548
	.loc 1 1226 1503 view .LVU3549
	.loc 1 1226 1553 view .LVU3550
	.loc 1 1226 1564 view .LVU3551
	.loc 1 1226 1672 view .LVU3552
	.loc 1 1226 1688 view .LVU3553
	.loc 1 1226 1728 view .LVU3554
	.loc 1 1226 1753 view .LVU3555
	.loc 1 1226 3034 view .LVU3556
	.loc 1 1226 3075 view .LVU3557
	.loc 1 1226 7 view .LVU3558
	.loc 1 1226 30 view .LVU3559
	.loc 1 1226 129 view .LVU3560
	.loc 1 1226 6 view .LVU3561
	.loc 1 1226 11 view .LVU3562
	.loc 1 1226 236 view .LVU3563
	.loc 1 1226 1189 view .LVU3564
	.loc 1 1226 1254 view .LVU3565
	.loc 1 1226 1278 view .LVU3566
	.loc 1 1226 1307 view .LVU3567
	.loc 1 1226 1318 view .LVU3568
	.loc 1 1226 1405 view .LVU3569
	.loc 1 1226 1421 view .LVU3570
	.loc 1 1226 1461 view .LVU3571
	.loc 1 1226 2725 view .LVU3572
	.loc 1 1226 2766 view .LVU3573
	.loc 1 1226 7 view .LVU3574
	.loc 1 1226 30 view .LVU3575
	.loc 1 1226 9 view .LVU3576
	.loc 1 1226 5 view .LVU3577
	.loc 1 1226 28 view .LVU3578
	.loc 1 1226 52 view .LVU3579
	.loc 1 1226 80 view .LVU3580
	.loc 1 1226 256 view .LVU3581
	.loc 1 1226 16 view .LVU3582
.LBB2444:
.LBB2440:
.LBB2435:
.LBB2430:
	.loc 1 1226 29 view .LVU3583
	.loc 1 1226 3 view .LVU3584
	.loc 1 1226 3 view .LVU3585
	.loc 1 1226 70 view .LVU3586
	.loc 1 1226 82 is_stmt 0 view .LVU3587
	sub	sp, sp, #32
	mov	r3, sp
.LVL426:
	.loc 1 1226 74 is_stmt 1 view .LVU3588
	.loc 1 1226 484 view .LVU3589
	.loc 1 1226 5 view .LVU3590
	.loc 1 1226 7 view .LVU3591
	.loc 1 1226 12 view .LVU3592
	.loc 1 1226 10 view .LVU3593
	.loc 1 1226 5 view .LVU3594
	.loc 1 1226 23 view .LVU3595
.LBB2424:
	.loc 1 1226 3 view .LVU3596
	.loc 1 1226 368 view .LVU3597
	.loc 1 1226 75 view .LVU3598
.LVL427:
	.loc 1 1226 2 view .LVU3599
	.loc 1 1226 2 view .LVU3600
	.loc 1 1226 2 view .LVU3601
	.loc 1 1226 38 view .LVU3602
	.loc 1 1226 67 view .LVU3603
	.loc 1 1226 93 view .LVU3604
	.loc 1 1226 119 view .LVU3605
	.loc 1 1226 586 view .LVU3606
	.loc 1 1226 648 view .LVU3607
	.loc 1 1226 1169 view .LVU3608
	.loc 1 1226 1234 view .LVU3609
	.loc 1 1226 1259 view .LVU3610
	.loc 1 1226 1260 view .LVU3611
	.loc 1 1226 1262 view .LVU3612
	.loc 1 1226 1292 view .LVU3613
	.loc 1 1226 1322 view .LVU3614
	.loc 1 1226 1354 view .LVU3615
	.loc 1 1226 1386 view .LVU3616
	.loc 1 1226 1418 view .LVU3617
	.loc 1 1226 1615 view .LVU3618
	.loc 1 1226 1639 view .LVU3619
	.loc 1 1226 1640 view .LVU3620
	.loc 1 1226 1642 view .LVU3621
	.loc 1 1226 1671 view .LVU3622
	.loc 1 1226 1700 view .LVU3623
	.loc 1 1226 1731 view .LVU3624
	.loc 1 1226 1762 view .LVU3625
	.loc 1 1226 1793 view .LVU3626
	.loc 1 1226 2000 view .LVU3627
.LBB2425:
	.loc 1 1226 3072 view .LVU3628
	.loc 1 1226 3077 view .LVU3629
	.loc 1 1226 3647 view .LVU3630
	.loc 1 1226 0 is_stmt 0 view .LVU3631
	ldr	r2, .L252+4
.LBE2425:
.LBE2424:
	.loc 1 1226 149 view .LVU3632
	ldr	r0, .L252+8
.LVL428:
	.loc 1 1226 149 view .LVU3633
.LBE2430:
.LBE2435:
	.loc 1 1226 17 view .LVU3634
	strd	r2, r5, [r3, #20]
.LBB2436:
.LBB2431:
.LBB2428:
.LBB2426:
	.loc 1 1226 2766 is_stmt 1 view .LVU3635
	.loc 1 1226 7 view .LVU3636
.LVL429:
	.loc 1 1226 30 view .LVU3637
	.loc 1 1226 30 is_stmt 0 view .LVU3638
.LBE2426:
	.loc 1 1226 9 is_stmt 1 view .LVU3639
	.loc 1 1226 5 view .LVU3640
	.loc 1 1226 28 view .LVU3641
	.loc 1 1226 52 view .LVU3642
	.loc 1 1226 80 view .LVU3643
.LBE2428:
.LBE2431:
.LBE2436:
.LBE2440:
.LBE2444:
	.loc 1 1226 6 view .LVU3644
	.loc 1 1226 45 view .LVU3645
	.loc 1 1226 50 view .LVU3646
	.loc 1 1226 80 view .LVU3647
	.loc 1 1226 147 view .LVU3648
	.loc 1 1226 152 view .LVU3649
	.loc 1 1226 182 view .LVU3650
.LBB2445:
.LBB2441:
.LBB2437:
.LBB2432:
.LBB2429:
	.loc 1 1226 256 view .LVU3651
	.loc 1 1226 16 view .LVU3652
.LBB2427:
	.loc 1 1226 6 view .LVU3653
	.loc 1 1226 164 view .LVU3654
	.loc 1 1226 166 view .LVU3655
	.loc 1 1226 176 is_stmt 0 view .LVU3656
	mov	r2, r3
	movs	r3, #3
.LVL430:
	.loc 1 1226 176 view .LVU3657
	str	r3, [r2, #16]!
.LVL431:
	.loc 1 1226 176 view .LVU3658
.LBE2427:
.LBE2429:
	.loc 1 1226 26 is_stmt 1 view .LVU3659
	.loc 1 1226 7 view .LVU3660
	.loc 1 1226 147 view .LVU3661
	.loc 1 1226 149 view .LVU3662
	mov	r1, #6272
	bl	z_log_msg_static_create.constprop.0
.LVL432:
	.loc 1 1226 149 is_stmt 0 view .LVU3663
.LBE2432:
.LBE2437:
.LBE2441:
.LBE2445:
	.loc 1 1227 3 view .LVU3664
	mov	r0, r4
.LBB2446:
.LBB2442:
.LBB2438:
.LBB2433:
	mov	sp, r6
.LVL433:
	.loc 1 1227 3 view .LVU3665
.LBE2433:
	.loc 1 1226 107 is_stmt 1 view .LVU3666
	.loc 1 1226 5 view .LVU3667
	.loc 1 1226 42 view .LVU3668
.LBE2438:
	.loc 1 1226 6 view .LVU3669
.LBE2442:
	.loc 1 1226 278 view .LVU3670
	.loc 1 1226 5 view .LVU3671
	.loc 1 1226 18 view .LVU3672
.LBE2446:
	.loc 1 1226 6 view .LVU3673
	.loc 1 1227 3 view .LVU3674
	bl	bt_conn_unref
.LVL434:
	b	.L251
.L253:
	.align	2
.L252:
	.word	acl_conns
	.word	.LC15
	.word	log_const_bt_conn
	.cfi_endproc
.LFE619:
	.size	bt_conn_lookup_handle, .-bt_conn_lookup_handle
	.section	.text.bt_conn_foreach,"ax",%progbits
	.align	1
	.global	bt_conn_foreach
	.syntax unified
	.thumb
	.thumb_func
	.type	bt_conn_foreach, %function
bt_conn_foreach:
.LVL435:
.LFB620:
	.loc 1 1235 1 view -0
	.cfi_startproc
	@ args = 0, pretend = 0, frame = 0
	@ frame_needed = 0, uses_anonymous_args = 0
	.loc 1 1236 2 view .LVU3676
	.loc 1 1239 2 view .LVU3677
	.loc 1 1239 16 view .LVU3678
	.loc 1 1235 1 is_stmt 0 view .LVU3679
	push	{r4, r5, r6, r7, r8, r9, r10, lr}
	.cfi_def_cfa_offset 32
	.cfi_offset 4, -32
	.cfi_offset 5, -28
	.cfi_offset 6, -24
	.cfi_offset 7, -20
	.cfi_offset 8, -16
	.cfi_offset 9, -12
	.cfi_offset 10, -8
	.cfi_offset 14, -4
.LBB2447:
	.loc 1 1240 26 view .LVU3680
	ldr	r10, .L263
.LBE2447:
	.loc 1 1235 1 view .LVU3681
	mov	r6, r0
	mov	r7, r1
	mov	r8, r2
	.loc 1 1239 9 view .LVU3682
	movs	r5, #0
.LBB2448:
	.loc 1 1240 26 view .LVU3683
	mov	r9, #192
.LVL436:
.L257:
	.loc 1 1240 3 is_stmt 1 view .LVU3684
	.loc 1 1240 26 is_stmt 0 view .LVU3685
	mla	r0, r9, r5, r10
	bl	bt_conn_ref
.LVL437:
	.loc 1 1242 3 is_stmt 1 view .LVU3686
	.loc 1 1242 6 is_stmt 0 view .LVU3687
	mov	r4, r0
	cbz	r0, .L255
	.loc 1 1246 3 is_stmt 1 view .LVU3688
	.loc 1 1246 7 is_stmt 0 view .LVU3689
	ldrb	r3, [r0, #2]	@ zero_extendqisi2
	.loc 1 1246 6 view .LVU3690
	tst	r6, r3
	bne	.L256
.L262:
	.loc 1 1252 3 view .LVU3691
	bl	bt_conn_unref
.LVL438:
.L255:
	.loc 1 1252 3 view .LVU3692
.LBE2448:
	.loc 1 1239 199 is_stmt 1 discriminator 2 view .LVU3693
	adds	r5, r5, #1
.LVL439:
	.loc 1 1239 16 discriminator 2 view .LVU3694
	cmp	r5, #5
	bne	.L257
	.loc 1 1284 1 is_stmt 0 view .LVU3695
	pop	{r4, r5, r6, r7, r8, r9, r10, pc}
.LVL440:
.L256:
.LBB2449:
	.loc 1 1251 3 is_stmt 1 view .LVU3696
	mov	r1, r8
	blx	r7
.LVL441:
	.loc 1 1252 3 view .LVU3697
	mov	r0, r4
	b	.L262
.L264:
	.align	2
.L263:
	.word	acl_conns
.LBE2449:
	.cfi_endproc
.LFE620:
	.size	bt_conn_foreach, .-bt_conn_foreach
	.section	.text.bt_conn_cleanup_all,"ax",%progbits
	.align	1
	.global	bt_conn_cleanup_all
	.syntax unified
	.thumb
	.thumb_func
	.type	bt_conn_cleanup_all, %function
bt_conn_cleanup_all:
.LFB612:
	.loc 1 807 1 view -0
	.cfi_startproc
	@ args = 0, pretend = 0, frame = 0
	@ frame_needed = 0, uses_anonymous_args = 0
	@ link register save eliminated.
	.loc 1 808 2 view .LVU3699
	ldr	r1, .L266
	movs	r2, #0
	movs	r0, #15
	b	bt_conn_foreach
.LVL442:
.L267:
	.align	2
.L266:
	.word	conn_destroy
	.cfi_endproc
.LFE612:
	.size	bt_conn_cleanup_all, .-bt_conn_cleanup_all
	.section	.text.bt_conn_index,"ax",%progbits
	.align	1
	.global	bt_conn_index
	.syntax unified
	.thumb
	.thumb_func
	.type	bt_conn_index, %function
bt_conn_index:
.LVL443:
.LFB623:
	.loc 1 1327 1 view -0
	.cfi_startproc
	@ args = 0, pretend = 0, frame = 0
	@ frame_needed = 0, uses_anonymous_args = 0
	@ link register save eliminated.
	.loc 1 1328 2 view .LVU3701
	.loc 1 1330 2 view .LVU3702
	.loc 1 1347 3 view .LVU3703
	.loc 1 1348 5 view .LVU3704
	.loc 1 1349 31 view .LVU3705
	.loc 1 1353 3 view .LVU3706
	.loc 1 1356 2 view .LVU3707
	.loc 1 1347 16 is_stmt 0 view .LVU3708
	ldr	r3, .L269
	subs	r0, r0, r3
.LVL444:
	.loc 1 1347 9 view .LVU3709
	ldr	r3, .L269+4
	asrs	r0, r0, #6
.LVL445:
	.loc 1 1347 9 view .LVU3710
	muls	r0, r3, r0
	.loc 1 1357 1 view .LVU3711
	uxtb	r0, r0
	bx	lr
.L270:
	.align	2
.L269:
	.word	acl_conns
	.word	-1431655765
	.cfi_endproc
.LFE623:
	.size	bt_conn_index, .-bt_conn_index
	.section	.text.bt_conn_create_pdu_timeout,"ax",%progbits
	.align	1
	.global	bt_conn_create_pdu_timeout
	.syntax unified
	.thumb
	.thumb_func
	.type	bt_conn_create_pdu_timeout, %function
bt_conn_create_pdu_timeout:
.LVL446:
.LFB624:
	.loc 1 1369 1 is_stmt 1 view -0
	.cfi_startproc
	@ args = 0, pretend = 0, frame = 0
	@ frame_needed = 0, uses_anonymous_args = 0
	.loc 1 1370 2 view .LVU3713
	.loc 1 1376 4 view .LVU3714
	.loc 1 1376 5 view .LVU3715
	.loc 1 1378 2 view .LVU3716
	.loc 1 1386 2 view .LVU3717
	.loc 1 1406 3 view .LVU3718
.LBB2450:
.LBI2450:
	.loc 4 1256 68 view .LVU3719
.LBB2451:
	.loc 4 1259 2 view .LVU3720
.LBE2451:
.LBE2450:
	.loc 1 1369 1 is_stmt 0 view .LVU3721
	push	{r3, r4, r5, lr}
	.cfi_def_cfa_offset 16
	.cfi_offset 3, -16
	.cfi_offset 4, -12
	.cfi_offset 5, -8
	.cfi_offset 14, -4
	.loc 1 1369 1 view .LVU3722
	mov	r5, r1
.LBB2453:
.LBB2452:
	.loc 4 1259 9 view .LVU3723
	ldr	r1, .L274
.LVL447:
	.loc 4 1259 9 view .LVU3724
	cmp	r0, #0
	it	eq
	moveq	r0, r1
.LVL448:
	.loc 4 1259 9 view .LVU3725
	bl	net_buf_alloc_fixed
.LVL449:
	.loc 4 1259 9 view .LVU3726
.LBE2452:
.LBE2453:
	.loc 1 1410 2 is_stmt 1 view .LVU3727
	.loc 1 1410 5 is_stmt 0 view .LVU3728
	mov	r4, r0
	cbnz	r0, .L273
	.loc 1 1419 1 view .LVU3729
	pop	{r3, r4, r5, lr}
	.cfi_remember_state
	.cfi_restore 14
	.cfi_restore 5
	.cfi_restore 4
	.cfi_restore 3
	.cfi_def_cfa_offset 0
.LVL450:
	.loc 1 1419 1 view .LVU3730
	b	bt_conn_create_pdu_timeout.part.0
.LVL451:
.L273:
	.cfi_restore_state
	.loc 1 1415 2 is_stmt 1 view .LVU3731
	.loc 1 1416 2 view .LVU3732
.LBB2454:
.LBI2454:
	.loc 4 1477 20 view .LVU3733
.LBB2455:
	.loc 4 1479 2 view .LVU3734
	adds	r1, r5, #4
	adds	r0, r0, #12
.LVL452:
	.loc 4 1479 2 is_stmt 0 view .LVU3735
	bl	net_buf_simple_reserve
.LVL453:
	.loc 4 1479 2 view .LVU3736
.LBE2455:
.LBE2454:
	.loc 1 1418 2 is_stmt 1 view .LVU3737
	.loc 1 1419 1 is_stmt 0 view .LVU3738
	mov	r0, r4
	pop	{r3, r4, r5, pc}
.LVL454:
.L275:
	.loc 1 1419 1 view .LVU3739
	.align	2
.L274:
	.word	acl_tx_pool
	.cfi_endproc
.LFE624:
	.size	bt_conn_create_pdu_timeout, .-bt_conn_create_pdu_timeout
	.section	.text.bt_conn_connected,"ax",%progbits
	.align	1
	.global	bt_conn_connected
	.syntax unified
	.thumb
	.thumb_func
	.type	bt_conn_connected, %function
bt_conn_connected:
.LVL455:
.LFB626:
	.loc 1 1437 1 is_stmt 1 view -0
	.cfi_startproc
	@ args = 0, pretend = 0, frame = 0
	@ frame_needed = 0, uses_anonymous_args = 0
	.loc 1 1438 2 view .LVU3741
	.loc 1 1437 1 is_stmt 0 view .LVU3742
	push	{r4, lr}
	.cfi_def_cfa_offset 8
	.cfi_offset 4, -8
	.cfi_offset 14, -4
	.loc 1 1437 1 view .LVU3743
	mov	r4, r0
	.loc 1 1438 2 view .LVU3744
	bl	bt_l2cap_connected
.LVL456:
	.loc 1 1439 2 is_stmt 1 view .LVU3745
	mov	r0, r4
	.loc 1 1440 1 is_stmt 0 view .LVU3746
	pop	{r4, lr}
	.cfi_restore 14
	.cfi_restore 4
	.cfi_def_cfa_offset 0
.LVL457:
	.loc 1 1439 2 view .LVU3747
	b	notify_connected
.LVL458:
	.loc 1 1439 2 view .LVU3748
	.cfi_endproc
.LFE626:
	.size	bt_conn_connected, .-bt_conn_connected
	.section	.text.bt_conn_disconnect,"ax",%progbits
	.align	1
	.global	bt_conn_disconnect
	.syntax unified
	.thumb
	.thumb_func
	.type	bt_conn_disconnect, %function
bt_conn_disconnect:
.LVL459:
.LFB628:
	.loc 1 1459 1 is_stmt 1 view -0
	.cfi_startproc
	@ args = 0, pretend = 0, frame = 0
	@ frame_needed = 0, uses_anonymous_args = 0
	.loc 1 1466 2 view .LVU3750
	.loc 1 1472 2 view .LVU3751
	.loc 1 1459 1 is_stmt 0 view .LVU3752
	push	{r4, lr}
	.cfi_def_cfa_offset 8
	.cfi_offset 4, -8
	.cfi_offset 14, -4
	.loc 1 1472 2 view .LVU3753
	ldrb	r3, [r0, #13]	@ zero_extendqisi2
	subs	r3, r3, #2
	.loc 1 1459 1 view .LVU3754
	mov	r4, r0
	.loc 1 1472 2 view .LVU3755
	cmp	r3, #6
	bhi	.L283
	tbb	[pc, r3]
.L280:
	.byte	(.L282-.L280)/2
	.byte	(.L283-.L280)/2
	.byte	(.L283-.L280)/2
	.byte	(.L283-.L280)/2
	.byte	(.L279-.L280)/2
	.byte	(.L281-.L280)/2
	.byte	(.L279-.L280)/2
	.p2align 1
.L282:
	.loc 1 1474 3 is_stmt 1 view .LVU3756
	.loc 1 1474 13 is_stmt 0 view .LVU3757
	strb	r1, [r0, #12]
	.loc 1 1475 3 is_stmt 1 view .LVU3758
	movs	r1, #0
.LVL460:
.L285:
.LBB2458:
.LBB2459:
	.loc 1 1452 3 is_stmt 0 view .LVU3759
	mov	r0, r4
	bl	bt_conn_set_state
.LVL461:
.L279:
	.loc 1 1452 3 view .LVU3760
.LBE2459:
.LBE2458:
	.loc 1 1459 1 view .LVU3761
	movs	r0, #0
.L277:
	.loc 1 1510 1 view .LVU3762
	pop	{r4, pc}
.LVL462:
.L281:
	.loc 1 1503 3 is_stmt 1 view .LVU3763
.LBB2461:
.LBI2458:
	.loc 1 1442 12 view .LVU3764
.LBB2460:
	.loc 1 1444 2 view .LVU3765
	.loc 1 1446 2 view .LVU3766
	.loc 1 1446 8 is_stmt 0 view .LVU3767
	ldrh	r0, [r0]
.LVL463:
	.loc 1 1446 8 view .LVU3768
	bl	bt_hci_disconnect
.LVL464:
	.loc 1 1447 2 is_stmt 1 view .LVU3769
	.loc 1 1447 5 is_stmt 0 view .LVU3770
	cmp	r0, #0
	bne	.L277
	.loc 1 1451 2 is_stmt 1 view .LVU3771
	.loc 1 1451 5 is_stmt 0 view .LVU3772
	ldrb	r3, [r4, #13]	@ zero_extendqisi2
	cmp	r3, #7
	bne	.L279
	.loc 1 1452 3 is_stmt 1 view .LVU3773
	movs	r1, #8
	b	.L285
.LVL465:
.L283:
	.loc 1 1452 3 is_stmt 0 view .LVU3774
.LBE2460:
.LBE2461:
	.loc 1 1508 10 view .LVU3775
	mvn	r0, #127
.LVL466:
	.loc 1 1508 10 view .LVU3776
	b	.L277
	.cfi_endproc
.LFE628:
	.size	bt_conn_disconnect, .-bt_conn_disconnect
	.section	.text.notify_le_param_updated,"ax",%progbits
	.align	1
	.global	notify_le_param_updated
	.syntax unified
	.thumb
	.thumb_func
	.type	notify_le_param_updated, %function
notify_le_param_updated:
.LVL467:
.LFB631:
	.loc 1 1569 1 is_stmt 1 view -0
	.cfi_startproc
	@ args = 0, pretend = 0, frame = 0
	@ frame_needed = 0, uses_anonymous_args = 0
	.loc 1 1573 2 view .LVU3778
	.loc 1 1569 1 is_stmt 0 view .LVU3779
	push	{r3, r4, r5, r6, r7, lr}
	.cfi_def_cfa_offset 24
	.cfi_offset 3, -24
	.cfi_offset 4, -20
	.cfi_offset 5, -16
	.cfi_offset 6, -12
	.cfi_offset 7, -8
	.cfi_offset 14, -4
	.loc 1 1569 1 view .LVU3780
	mov	r4, r0
.LBB2470:
.LBB2471:
.LBB2472:
.LBB2473:
	.loc 3 161 9 view .LVU3781
	dmb	ish
	ldr	r3, [r4, #4]
	dmb	ish
.LBE2473:
.LBE2472:
.LBE2471:
.LBE2470:
	.loc 1 1573 5 view .LVU3782
	lsls	r3, r3, #22
	.loc 1 1573 26 view .LVU3783
	add	r0, r0, #4
.LVL468:
.LBB2477:
.LBI2470:
	.loc 11 131 19 is_stmt 1 view .LVU3784
.LBB2476:
	.loc 11 133 2 view .LVU3785
.LBB2475:
.LBI2472:
	.loc 3 159 28 view .LVU3786
.LBB2474:
	.loc 3 161 2 view .LVU3787
	.loc 3 161 2 is_stmt 0 view .LVU3788
.LBE2474:
.LBE2475:
	.loc 11 135 2 is_stmt 1 view .LVU3789
	.loc 11 135 2 is_stmt 0 view .LVU3790
.LBE2476:
.LBE2477:
	.loc 1 1573 5 view .LVU3791
	bpl	.L287
	.loc 1 1574 14 discriminator 1 view .LVU3792
	ldrh	r3, [r4, #158]
	.loc 1 1573 65 discriminator 1 view .LVU3793
	ldrh	r2, [r4, #160]
	cmp	r2, r3
	bhi	.L287
	.loc 1 1574 49 view .LVU3794
	ldrh	r2, [r4, #162]
	cmp	r2, r3
	bcc	.L287
	.loc 1 1576 51 view .LVU3795
	ldrd	r2, r3, [r4, #164]
	cmp	r2, r3
	bne	.L287
	.loc 1 1578 3 is_stmt 1 view .LVU3796
.LVL469:
.LBB2478:
.LBI2478:
	.loc 11 198 20 view .LVU3797
.LBB2479:
	.loc 11 200 2 view .LVU3798
	.loc 11 202 2 view .LVU3799
	.loc 11 202 8 is_stmt 0 view .LVU3800
	mvn	r1, #512
	bl	atomic_and
.LVL470:
.L287:
	.loc 11 202 8 view .LVU3801
.LBE2479:
.LBE2478:
	.loc 1 1581 2 is_stmt 1 view .LVU3802
.LBB2480:
	.loc 1 1581 7 view .LVU3803
	.loc 1 1581 26 is_stmt 0 view .LVU3804
	ldr	r3, .L303
	ldr	r5, [r3]
.LVL471:
.L288:
	.loc 1 1581 46 is_stmt 1 discriminator 1 view .LVU3805
	cbnz	r5, .L290
	.loc 1 1581 46 is_stmt 0 discriminator 1 view .LVU3806
.LBE2480:
.LBB2481:
	.loc 1 1589 127 view .LVU3807
	ldr	r5, .L303+4
.LVL472:
	.loc 1 1589 156 view .LVU3808
	ldr	r7, .L303+8
.L291:
.LVL473:
	.loc 1 1589 156 is_stmt 1 discriminator 1 view .LVU3809
.LBE2481:
	.loc 1 1589 161 discriminator 1 view .LVU3810
	.loc 1 1589 162 discriminator 1 view .LVU3811
	.loc 1 1589 164 discriminator 1 view .LVU3812
.LBB2482:
	.loc 1 1589 156 is_stmt 0 discriminator 1 view .LVU3813
	cmp	r5, r7
	bcc	.L293
.LBE2482:
	.loc 1 1596 1 view .LVU3814
	pop	{r3, r4, r5, r6, r7, pc}
.LVL474:
.L290:
.LBB2483:
	.loc 1 1582 3 is_stmt 1 view .LVU3815
	.loc 1 1582 9 is_stmt 0 view .LVU3816
	ldr	r6, [r5, #12]
	.loc 1 1582 6 view .LVU3817
	cbz	r6, .L289
	.loc 1 1583 4 is_stmt 1 view .LVU3818
	ldrh	r3, [r4, #166]
	ldrh	r2, [r4, #164]
	ldrh	r1, [r4, #158]
	mov	r0, r4
	blx	r6
.LVL475:
.L289:
	.loc 1 1581 53 discriminator 2 view .LVU3819
	ldr	r5, [r5, #24]
.LVL476:
	.loc 1 1581 53 is_stmt 0 discriminator 2 view .LVU3820
	b	.L288
.LVL477:
.L293:
	.loc 1 1581 53 discriminator 2 view .LVU3821
.LBE2483:
.LBB2484:
	.loc 1 1590 3 is_stmt 1 view .LVU3822
	.loc 1 1590 9 is_stmt 0 view .LVU3823
	ldr	r6, [r5, #12]
	.loc 1 1590 6 view .LVU3824
	cbz	r6, .L292
	.loc 1 1591 4 is_stmt 1 view .LVU3825
	ldrh	r3, [r4, #166]
	ldrh	r2, [r4, #164]
	ldrh	r1, [r4, #158]
	mov	r0, r4
	blx	r6
.LVL478:
.L292:
	.loc 1 1589 197 discriminator 2 view .LVU3826
	adds	r5, r5, #28
.LVL479:
	.loc 1 1589 197 is_stmt 0 discriminator 2 view .LVU3827
	b	.L291
.L304:
	.align	2
.L303:
	.word	callback_list
	.word	_bt_conn_cb_list_start
	.word	_bt_conn_cb_list_end
.LBE2484:
	.cfi_endproc
.LFE631:
	.size	notify_le_param_updated, .-notify_le_param_updated
	.section	.text.le_param_req,"ax",%progbits
	.align	1
	.global	le_param_req
	.syntax unified
	.thumb
	.thumb_func
	.type	le_param_req, %function
le_param_req:
.LVL480:
.LFB632:
	.loc 1 1633 1 is_stmt 1 view -0
	.cfi_startproc
	@ args = 0, pretend = 0, frame = 0
	@ frame_needed = 0, uses_anonymous_args = 0
	.loc 1 1634 2 view .LVU3829
	.loc 1 1633 1 is_stmt 0 view .LVU3830
	push	{r4, r5, r6, r7, r8, lr}
	.cfi_def_cfa_offset 24
	.cfi_offset 4, -24
	.cfi_offset 5, -20
	.cfi_offset 6, -16
	.cfi_offset 7, -12
	.cfi_offset 8, -8
	.cfi_offset 14, -4
	.loc 1 1633 1 view .LVU3831
	mov	r7, r0
	.loc 1 1634 7 view .LVU3832
	mov	r0, r1
.LVL481:
	.loc 1 1633 1 view .LVU3833
	mov	r4, r1
	.loc 1 1634 7 view .LVU3834
	bl	bt_le_conn_params_valid
.LVL482:
	.loc 1 1634 5 view .LVU3835
	mov	r5, r0
	cbnz	r0, .L306
.L310:
	.loc 1 1635 9 view .LVU3836
	movs	r5, #0
.L307:
	.loc 1 1674 1 view .LVU3837
	mov	r0, r5
	pop	{r4, r5, r6, r7, r8, pc}
.LVL483:
.L306:
	.loc 1 1638 2 is_stmt 1 view .LVU3838
.LBB2485:
	.loc 1 1638 7 view .LVU3839
	.loc 1 1638 26 is_stmt 0 view .LVU3840
	ldr	r3, .L323
	ldr	r6, [r3]
.LVL484:
.L308:
	.loc 1 1638 46 is_stmt 1 discriminator 1 view .LVU3841
	cbnz	r6, .L312
	.loc 1 1638 46 is_stmt 0 discriminator 1 view .LVU3842
.LBE2485:
.LBB2486:
	.loc 1 1655 127 view .LVU3843
	ldr	r6, .L323+4
.LVL485:
	.loc 1 1655 156 view .LVU3844
	ldr	r8, .L323+8
.L313:
.LVL486:
	.loc 1 1655 156 is_stmt 1 discriminator 1 view .LVU3845
.LBE2486:
	.loc 1 1655 161 discriminator 1 view .LVU3846
	.loc 1 1655 162 discriminator 1 view .LVU3847
	.loc 1 1655 164 discriminator 1 view .LVU3848
.LBB2487:
	.loc 1 1655 156 is_stmt 0 discriminator 1 view .LVU3849
	cmp	r6, r8
	bcs	.L307
	.loc 1 1656 3 is_stmt 1 view .LVU3850
	.loc 1 1656 10 is_stmt 0 view .LVU3851
	ldr	r3, [r6, #8]
	.loc 1 1656 6 view .LVU3852
	cbnz	r3, .L314
.L315:
	.loc 1 1655 197 is_stmt 1 view .LVU3853
	adds	r6, r6, #28
.LVL487:
	.loc 1 1655 197 is_stmt 0 view .LVU3854
	b	.L313
.LVL488:
.L312:
	.loc 1 1655 197 view .LVU3855
.LBE2487:
.LBB2488:
	.loc 1 1639 3 is_stmt 1 view .LVU3856
	.loc 1 1639 10 is_stmt 0 view .LVU3857
	ldr	r3, [r6, #8]
	.loc 1 1639 6 view .LVU3858
	cbnz	r3, .L309
.L311:
	.loc 1 1638 53 is_stmt 1 view .LVU3859
	ldr	r6, [r6, #24]
.LVL489:
	.loc 1 1638 53 is_stmt 0 view .LVU3860
	b	.L308
.L309:
	.loc 1 1643 3 is_stmt 1 view .LVU3861
	.loc 1 1643 8 is_stmt 0 view .LVU3862
	mov	r1, r4
	mov	r0, r7
	blx	r3
.LVL490:
	.loc 1 1643 6 view .LVU3863
	cmp	r0, #0
	beq	.L310
	.loc 1 1650 3 is_stmt 1 view .LVU3864
	.loc 1 1650 8 is_stmt 0 view .LVU3865
	mov	r0, r4
	bl	bt_le_conn_params_valid
.LVL491:
	.loc 1 1650 6 view .LVU3866
	cmp	r0, #0
	bne	.L311
	b	.L310
.LVL492:
.L314:
	.loc 1 1650 6 view .LVU3867
.LBE2488:
.LBB2489:
	.loc 1 1660 3 is_stmt 1 view .LVU3868
	.loc 1 1660 8 is_stmt 0 view .LVU3869
	mov	r1, r4
	mov	r0, r7
	blx	r3
.LVL493:
	.loc 1 1660 6 view .LVU3870
	cmp	r0, #0
	beq	.L310
	.loc 1 1667 3 is_stmt 1 view .LVU3871
	.loc 1 1667 8 is_stmt 0 view .LVU3872
	mov	r0, r4
	bl	bt_le_conn_params_valid
.LVL494:
	.loc 1 1667 6 view .LVU3873
	cmp	r0, #0
	bne	.L315
	b	.L310
.L324:
	.align	2
.L323:
	.word	callback_list
	.word	_bt_conn_cb_list_start
	.word	_bt_conn_cb_list_end
.LBE2489:
	.cfi_endproc
.LFE632:
	.size	le_param_req, .-le_param_req
	.section	.text.bt_conn_ltk_present,"ax",%progbits
	.align	1
	.global	bt_conn_ltk_present
	.syntax unified
	.thumb
	.thumb_func
	.type	bt_conn_ltk_present, %function
bt_conn_ltk_present:
.LVL495:
.LFB636:
	.loc 1 2107 1 is_stmt 1 view -0
	.cfi_startproc
	@ args = 0, pretend = 0, frame = 0
	@ frame_needed = 0, uses_anonymous_args = 0
	.loc 1 2108 2 view .LVU3875
	.loc 1 2107 1 is_stmt 0 view .LVU3876
	push	{r4, lr}
	.cfi_def_cfa_offset 8
	.cfi_offset 4, -8
	.cfi_offset 14, -4
	.loc 1 2107 1 view .LVU3877
	mov	r4, r0
	.loc 1 2108 24 view .LVU3878
	ldr	r0, [r0, #184]
.LVL496:
	.loc 1 2110 2 is_stmt 1 view .LVU3879
	.loc 1 2110 5 is_stmt 0 view .LVU3880
	cbnz	r0, .L326
	.loc 1 2111 3 is_stmt 1 view .LVU3881
	.loc 1 2111 10 is_stmt 0 view .LVU3882
	ldrb	r0, [r4, #8]	@ zero_extendqisi2
.LVL497:
	.loc 1 2111 10 view .LVU3883
	add	r1, r4, #136
	bl	bt_keys_find_addr
.LVL498:
	.loc 1 2114 2 is_stmt 1 view .LVU3884
	.loc 1 2114 5 is_stmt 0 view .LVU3885
	cbz	r0, .L327
.L326:
.LVL499:
	.loc 1 2115 3 is_stmt 1 view .LVU3886
	.loc 1 2115 6 is_stmt 0 view .LVU3887
	ldrb	r2, [r4, #3]	@ zero_extendqisi2
	.loc 1 2116 15 view .LVU3888
	ldrh	r3, [r0, #14]
	.loc 1 2115 6 view .LVU3889
	cbnz	r2, .L328
	.loc 1 2116 4 is_stmt 1 view .LVU3890
	.loc 1 2116 22 is_stmt 0 view .LVU3891
	tst	r3, #33
.L330:
	.loc 1 2118 22 view .LVU3892
	ite	ne
	movne	r0, #1
	moveq	r0, #0
.L327:
	.loc 1 2123 1 view .LVU3893
	pop	{r4, pc}
.LVL500:
.L328:
	.loc 1 2118 4 is_stmt 1 view .LVU3894
	.loc 1 2118 22 is_stmt 0 view .LVU3895
	tst	r3, #36
	b	.L330
	.cfi_endproc
.LFE636:
	.size	bt_conn_ltk_present, .-bt_conn_ltk_present
	.section	.text.bt_conn_identity_resolved,"ax",%progbits
	.align	1
	.global	bt_conn_identity_resolved
	.syntax unified
	.thumb
	.thumb_func
	.type	bt_conn_identity_resolved, %function
bt_conn_identity_resolved:
.LVL501:
.LFB637:
	.loc 1 2126 1 is_stmt 1 view -0
	.cfi_startproc
	@ args = 0, pretend = 0, frame = 0
	@ frame_needed = 0, uses_anonymous_args = 0
	.loc 1 2127 2 view .LVU3897
	.loc 1 2129 2 view .LVU3898
	.loc 1 2126 1 is_stmt 0 view .LVU3899
	push	{r4, r5, r6, r7, r8, lr}
	.cfi_def_cfa_offset 24
	.cfi_offset 4, -24
	.cfi_offset 5, -20
	.cfi_offset 6, -16
	.cfi_offset 7, -12
	.cfi_offset 8, -8
	.cfi_offset 14, -4
	.loc 1 2129 5 view .LVU3900
	ldrb	r3, [r0, #3]	@ zero_extendqisi2
	.loc 1 2126 1 view .LVU3901
	mov	r4, r0
	.loc 1 2129 5 view .LVU3902
	cbnz	r3, .L332
	.loc 1 2130 3 is_stmt 1 view .LVU3903
	.loc 1 2130 7 is_stmt 0 view .LVU3904
	add	r6, r0, #150
.LVL502:
.L333:
	.loc 1 2135 2 is_stmt 1 view .LVU3905
.LBB2490:
	.loc 1 2135 7 view .LVU3906
	.loc 1 2135 26 is_stmt 0 view .LVU3907
	ldr	r3, .L346
	ldr	r5, [r3]
.LVL503:
	.loc 1 2137 37 view .LVU3908
	add	r7, r4, #136
.LVL504:
.L334:
	.loc 1 2135 46 is_stmt 1 discriminator 1 view .LVU3909
	cbnz	r5, .L336
	.loc 1 2135 46 is_stmt 0 discriminator 1 view .LVU3910
.LBE2490:
.LBB2491:
	.loc 1 2141 127 view .LVU3911
	ldr	r5, .L346+4
.LVL505:
	.loc 1 2141 156 view .LVU3912
	ldr	r7, .L346+8
	.loc 1 2143 37 view .LVU3913
	add	r8, r4, #136
.L337:
.LVL506:
	.loc 1 2141 156 is_stmt 1 discriminator 1 view .LVU3914
.LBE2491:
	.loc 1 2141 161 discriminator 1 view .LVU3915
	.loc 1 2141 162 discriminator 1 view .LVU3916
	.loc 1 2141 164 discriminator 1 view .LVU3917
.LBB2492:
	.loc 1 2141 156 is_stmt 0 discriminator 1 view .LVU3918
	cmp	r5, r7
	bcc	.L339
.LBE2492:
	.loc 1 2146 1 view .LVU3919
	pop	{r4, r5, r6, r7, r8, pc}
.LVL507:
.L332:
	.loc 1 2132 3 is_stmt 1 view .LVU3920
	.loc 1 2132 7 is_stmt 0 view .LVU3921
	add	r6, r0, #143
.LVL508:
	.loc 1 2132 7 view .LVU3922
	b	.L333
.LVL509:
.L336:
.LBB2493:
	.loc 1 2136 3 is_stmt 1 view .LVU3923
	.loc 1 2136 9 is_stmt 0 view .LVU3924
	ldr	r3, [r5, #16]
	.loc 1 2136 6 view .LVU3925
	cbz	r3, .L335
	.loc 1 2137 4 is_stmt 1 view .LVU3926
	mov	r2, r7
	mov	r1, r6
	mov	r0, r4
	blx	r3
.LVL510:
.L335:
	.loc 1 2135 53 discriminator 2 view .LVU3927
	ldr	r5, [r5, #24]
.LVL511:
	.loc 1 2135 53 is_stmt 0 discriminator 2 view .LVU3928
	b	.L334
.LVL512:
.L339:
	.loc 1 2135 53 discriminator 2 view .LVU3929
.LBE2493:
.LBB2494:
	.loc 1 2142 3 is_stmt 1 view .LVU3930
	.loc 1 2142 9 is_stmt 0 view .LVU3931
	ldr	r3, [r5, #16]
	.loc 1 2142 6 view .LVU3932
	cbz	r3, .L338
	.loc 1 2143 4 is_stmt 1 view .LVU3933
	mov	r2, r8
	mov	r1, r6
	mov	r0, r4
	blx	r3
.LVL513:
.L338:
	.loc 1 2141 197 discriminator 2 view .LVU3934
	adds	r5, r5, #28
.LVL514:
	.loc 1 2141 197 is_stmt 0 discriminator 2 view .LVU3935
	b	.L337
.L347:
	.align	2
.L346:
	.word	callback_list
	.word	_bt_conn_cb_list_start
	.word	_bt_conn_cb_list_end
.LBE2494:
	.cfi_endproc
.LFE637:
	.size	bt_conn_identity_resolved, .-bt_conn_identity_resolved
	.section	.text.bt_conn_le_start_encryption,"ax",%progbits
	.align	1
	.global	bt_conn_le_start_encryption
	.syntax unified
	.thumb
	.thumb_func
	.type	bt_conn_le_start_encryption, %function
bt_conn_le_start_encryption:
.LVL515:
.LFB638:
	.loc 1 2150 1 is_stmt 1 view -0
	.cfi_startproc
	@ args = 4, pretend = 0, frame = 0
	@ frame_needed = 0, uses_anonymous_args = 0
	.loc 1 2151 2 view .LVU3937
	.loc 1 2152 2 view .LVU3938
	.loc 1 2154 2 view .LVU3939
	.loc 1 2150 1 is_stmt 0 view .LVU3940
	push	{r3, r4, r5, r6, r7, r8, r9, lr}
	.cfi_def_cfa_offset 32
	.cfi_offset 3, -32
	.cfi_offset 4, -28
	.cfi_offset 5, -24
	.cfi_offset 6, -20
	.cfi_offset 7, -16
	.cfi_offset 8, -12
	.cfi_offset 9, -8
	.cfi_offset 14, -4
	.loc 1 2150 1 view .LVU3941
	ldr	r6, [sp, #32]
	.loc 1 2154 5 view .LVU3942
	cmp	r6, #16
	.loc 1 2150 1 view .LVU3943
	mov	r9, r0
	mov	r4, r1
	mov	r8, r2
	mov	r7, r3
	.loc 1 2154 5 view .LVU3944
	bhi	.L351
	.loc 1 2158 2 is_stmt 1 view .LVU3945
	.loc 1 2158 8 is_stmt 0 view .LVU3946
	movs	r1, #28
.LVL516:
	.loc 1 2158 8 view .LVU3947
	movw	r0, #8217
.LVL517:
	.loc 1 2158 8 view .LVU3948
	bl	bt_hci_cmd_create
.LVL518:
	.loc 1 2159 2 is_stmt 1 view .LVU3949
	.loc 1 2159 5 is_stmt 0 view .LVU3950
	mov	r5, r0
	cbz	r0, .L352
	.loc 1 2163 2 is_stmt 1 view .LVU3951
.LVL519:
.LBB2495:
.LBI2495:
	.loc 4 1493 21 view .LVU3952
.LBB2496:
	.loc 4 1495 2 view .LVU3953
	.loc 4 1495 9 is_stmt 0 view .LVU3954
	movs	r1, #28
	adds	r0, r0, #12
.LVL520:
	.loc 4 1495 9 view .LVU3955
	bl	net_buf_simple_add
.LVL521:
	.loc 4 1495 9 view .LVU3956
.LBE2496:
.LBE2495:
	.loc 1 2164 2 is_stmt 1 view .LVU3957
	.loc 1 2164 13 is_stmt 0 view .LVU3958
	mov	r3, r0
	.loc 1 2164 20 view .LVU3959
	ldrh	r2, [r9]
	.loc 1 2164 13 view .LVU3960
	strh	r2, [r3], #2	@ unaligned
	.loc 1 2165 1 is_stmt 1 view .LVU3961
.LVL522:
.LBB2497:
.LBI2497:
	.loc 9 83 216 view .LVU3962
.LBB2498:
	.loc 9 83 292 view .LVU3963
	.loc 9 83 299 is_stmt 0 view .LVU3964
	ldr	r2, [r4]	@ unaligned
	str	r2, [r0, #2]	@ unaligned
	ldr	r2, [r4, #4]	@ unaligned
	str	r2, [r3, #4]	@ unaligned
.LVL523:
	.loc 9 83 299 view .LVU3965
.LBE2498:
.LBE2497:
	.loc 1 2166 1 is_stmt 1 view .LVU3966
.LBB2499:
.LBI2499:
	.loc 9 83 216 view .LVU3967
.LBB2500:
	.loc 9 83 292 view .LVU3968
	.loc 9 83 299 is_stmt 0 view .LVU3969
	ldrh	r3, [r8]	@ unaligned
	strh	r3, [r0, #10]	@ unaligned
.LVL524:
	.loc 9 83 299 view .LVU3970
.LBE2500:
.LBE2499:
	.loc 1 2168 1 is_stmt 1 view .LVU3971
	.loc 1 2168 3 is_stmt 0 view .LVU3972
	add	r4, r0, #12
.LVL525:
.LBB2501:
.LBI2501:
	.loc 9 83 216 is_stmt 1 view .LVU3973
.LBB2502:
	.loc 9 83 292 view .LVU3974
	.loc 9 83 299 is_stmt 0 view .LVU3975
	mov	r2, r6
	mov	r1, r7
	mov	r0, r4
.LVL526:
	.loc 9 83 299 view .LVU3976
	bl	memcpy
.LVL527:
	.loc 9 83 299 view .LVU3977
.LBE2502:
.LBE2501:
	.loc 1 2169 2 is_stmt 1 view .LVU3978
	.loc 1 2169 5 is_stmt 0 view .LVU3979
	cmp	r6, #16
	beq	.L350
	.loc 1 2170 3 is_stmt 1 view .LVU3980
.LVL528:
.LBB2503:
.LBI2503:
	.loc 9 86 189 view .LVU3981
.LBB2504:
	.loc 9 86 238 view .LVU3982
	.loc 9 86 245 is_stmt 0 view .LVU3983
	rsb	r2, r6, #16
.LVL529:
	.loc 9 86 245 view .LVU3984
	movs	r1, #0
	adds	r0, r4, r6
.LVL530:
	.loc 9 86 245 view .LVU3985
	bl	memset
.LVL531:
.L350:
	.loc 9 86 245 view .LVU3986
.LBE2504:
.LBE2503:
	.loc 1 2173 2 is_stmt 1 view .LVU3987
	.loc 1 2173 9 is_stmt 0 view .LVU3988
	mov	r1, r5
	movs	r2, #0
	.loc 1 2174 1 view .LVU3989
	pop	{r3, r4, r5, r6, r7, r8, r9, lr}
	.cfi_remember_state
	.cfi_restore 14
	.cfi_restore 9
	.cfi_restore 8
	.cfi_restore 7
	.cfi_restore 6
	.cfi_restore 5
	.cfi_restore 4
	.cfi_restore 3
	.cfi_def_cfa_offset 0
.LVL532:
	.loc 1 2173 9 view .LVU3990
	movw	r0, #8217
	b	bt_hci_cmd_send_sync
.LVL533:
.L351:
	.cfi_restore_state
	.loc 1 2155 10 view .LVU3991
	mvn	r0, #21
.LVL534:
.L348:
	.loc 1 2174 1 view .LVU3992
	pop	{r3, r4, r5, r6, r7, r8, r9, pc}
.LVL535:
.L352:
	.loc 1 2160 10 view .LVU3993
	mvn	r0, #104
.LVL536:
	.loc 1 2160 10 view .LVU3994
	b	.L348
	.cfi_endproc
.LFE638:
	.size	bt_conn_le_start_encryption, .-bt_conn_le_start_encryption
	.section	.text.bt_conn_enc_key_size,"ax",%progbits
	.align	1
	.global	bt_conn_enc_key_size
	.syntax unified
	.thumb
	.thumb_func
	.type	bt_conn_enc_key_size, %function
bt_conn_enc_key_size:
.LVL537:
.LFB639:
	.loc 1 2179 1 is_stmt 1 view -0
	.cfi_startproc
	@ args = 0, pretend = 0, frame = 0
	@ frame_needed = 0, uses_anonymous_args = 0
	@ link register save eliminated.
	.loc 1 2180 2 view .LVU3996
	.loc 1 2179 1 is_stmt 0 view .LVU3997
	mov	r3, r0
	.loc 1 2180 11 view .LVU3998
	ldrb	r0, [r0, #11]	@ zero_extendqisi2
.LVL538:
	.loc 1 2180 5 view .LVU3999
	cbz	r0, .L357
	ldr	r0, [r3, #184]
.LBB2507:
.LBI2507:
	.loc 1 2178 9 is_stmt 1 view .LVU4000
.LVL539:
.LBB2508:
	.loc 1 2184 2 view .LVU4001
	.loc 1 2215 2 view .LVU4002
	.loc 1 2216 3 view .LVU4003
	.loc 1 2216 50 is_stmt 0 view .LVU4004
	cbz	r0, .L357
	ldrb	r0, [r0, #12]	@ zero_extendqisi2
.LVL540:
.L357:
	.loc 1 2216 50 view .LVU4005
.LBE2508:
.LBE2507:
	.loc 1 2220 1 discriminator 1 view .LVU4006
	bx	lr
	.cfi_endproc
.LFE639:
	.size	bt_conn_enc_key_size, .-bt_conn_enc_key_size
	.section	.text.bt_conn_security_changed,"ax",%progbits
	.align	1
	.global	bt_conn_security_changed
	.syntax unified
	.thumb
	.thumb_func
	.type	bt_conn_security_changed, %function
bt_conn_security_changed:
.LVL541:
.LFB641:
	.loc 1 2238 1 is_stmt 1 view -0
	.cfi_startproc
	@ args = 0, pretend = 0, frame = 0
	@ frame_needed = 0, uses_anonymous_args = 0
	.loc 1 2239 2 view .LVU4008
.LBB2509:
.LBI2509:
	.loc 1 2222 13 view .LVU4009
.LBB2510:
	.loc 1 2233 2 view .LVU4010
.LBE2510:
.LBE2509:
	.loc 1 2238 1 is_stmt 0 view .LVU4011
	push	{r3, r4, r5, r6, r7, lr}
	.cfi_def_cfa_offset 24
	.cfi_offset 3, -24
	.cfi_offset 4, -20
	.cfi_offset 5, -16
	.cfi_offset 6, -12
	.cfi_offset 7, -8
	.cfi_offset 14, -4
.LBB2512:
.LBB2511:
	.loc 1 2233 27 view .LVU4012
	ldrb	r3, [r0, #9]	@ zero_extendqisi2
	strb	r3, [r0, #10]
.LVL542:
	.loc 1 2233 27 view .LVU4013
.LBE2511:
.LBE2512:
	.loc 1 2240 2 is_stmt 1 view .LVU4014
	.loc 1 2238 1 is_stmt 0 view .LVU4015
	mov	r4, r0
	mov	r6, r2
	.loc 1 2240 2 view .LVU4016
	bl	bt_l2cap_security_changed
.LVL543:
	.loc 1 2241 2 is_stmt 1 view .LVU4017
	.loc 1 2245 2 view .LVU4018
.LBB2513:
	.loc 1 2245 7 view .LVU4019
	.loc 1 2245 26 is_stmt 0 view .LVU4020
	ldr	r3, .L375
	ldr	r5, [r3]
.LVL544:
.L363:
	.loc 1 2245 46 is_stmt 1 discriminator 1 view .LVU4021
	cbnz	r5, .L365
	.loc 1 2245 46 is_stmt 0 discriminator 1 view .LVU4022
.LBE2513:
.LBB2514:
	.loc 1 2251 127 view .LVU4023
	ldr	r5, .L375+4
.LVL545:
	.loc 1 2251 156 view .LVU4024
	ldr	r7, .L375+8
.L366:
.LVL546:
	.loc 1 2251 156 is_stmt 1 discriminator 1 view .LVU4025
.LBE2514:
	.loc 1 2251 161 discriminator 1 view .LVU4026
	.loc 1 2251 162 discriminator 1 view .LVU4027
	.loc 1 2251 164 discriminator 1 view .LVU4028
.LBB2515:
	.loc 1 2251 156 is_stmt 0 discriminator 1 view .LVU4029
	cmp	r5, r7
	bcc	.L368
.LBE2515:
	.loc 1 2271 1 view .LVU4030
	pop	{r3, r4, r5, r6, r7, pc}
.LVL547:
.L365:
.LBB2516:
	.loc 1 2246 3 is_stmt 1 view .LVU4031
	.loc 1 2246 9 is_stmt 0 view .LVU4032
	ldr	r3, [r5, #20]
	.loc 1 2246 6 view .LVU4033
	cbz	r3, .L364
	.loc 1 2247 4 is_stmt 1 view .LVU4034
	ldrb	r1, [r4, #9]	@ zero_extendqisi2
	mov	r2, r6
	mov	r0, r4
	blx	r3
.LVL548:
.L364:
	.loc 1 2245 53 discriminator 2 view .LVU4035
	ldr	r5, [r5, #24]
.LVL549:
	.loc 1 2245 53 is_stmt 0 discriminator 2 view .LVU4036
	b	.L363
.LVL550:
.L368:
	.loc 1 2245 53 discriminator 2 view .LVU4037
.LBE2516:
.LBB2517:
	.loc 1 2252 3 is_stmt 1 view .LVU4038
	.loc 1 2252 9 is_stmt 0 view .LVU4039
	ldr	r3, [r5, #20]
	.loc 1 2252 6 view .LVU4040
	cbz	r3, .L367
	.loc 1 2253 4 is_stmt 1 view .LVU4041
	ldrb	r1, [r4, #9]	@ zero_extendqisi2
	mov	r2, r6
	mov	r0, r4
	blx	r3
.LVL551:
.L367:
	.loc 1 2251 197 discriminator 2 view .LVU4042
	adds	r5, r5, #28
.LVL552:
	.loc 1 2251 197 is_stmt 0 discriminator 2 view .LVU4043
	b	.L366
.L376:
	.align	2
.L375:
	.word	callback_list
	.word	_bt_conn_cb_list_start
	.word	_bt_conn_cb_list_end
.LBE2517:
	.cfi_endproc
.LFE641:
	.size	bt_conn_security_changed, .-bt_conn_security_changed
	.section	.text.bt_conn_set_security,"ax",%progbits
	.align	1
	.global	bt_conn_set_security
	.syntax unified
	.thumb
	.thumb_func
	.type	bt_conn_set_security, %function
bt_conn_set_security:
.LVL553:
.LFB643:
	.loc 1 2287 1 is_stmt 1 view -0
	.cfi_startproc
	@ args = 0, pretend = 0, frame = 0
	@ frame_needed = 0, uses_anonymous_args = 0
	.loc 1 2288 1 view .LVU4045
	.loc 1 2289 2 view .LVU4046
	.loc 1 2291 2 view .LVU4047
	.loc 1 2287 1 is_stmt 0 view .LVU4048
	push	{r3, r4, r5, lr}
	.cfi_def_cfa_offset 16
	.cfi_offset 3, -16
	.cfi_offset 4, -12
	.cfi_offset 5, -8
	.cfi_offset 14, -4
	.loc 1 2291 5 view .LVU4049
	ldrb	r3, [r0, #13]	@ zero_extendqisi2
	cmp	r3, #7
	.loc 1 2287 1 view .LVU4050
	mov	r4, r0
	.loc 1 2291 5 view .LVU4051
	bne	.L383
	.loc 1 2295 2 is_stmt 1 view .LVU4052
.LVL554:
	.loc 1 2296 2 view .LVU4053
	.loc 1 2307 5 is_stmt 0 view .LVU4054
	lsls	r3, r1, #24
	.loc 1 2296 6 view .LVU4055
	and	r5, r1, #127
.LVL555:
	.loc 1 2298 2 is_stmt 1 view .LVU4056
	.loc 1 2302 2 view .LVU4057
	.loc 1 2307 2 view .LVU4058
	.loc 1 2307 5 is_stmt 0 view .LVU4059
	bpl	.L379
	.loc 1 2311 2 is_stmt 1 view .LVU4060
.LVL556:
.LBB2524:
.LBI2524:
	.loc 11 237 20 view .LVU4061
.LBB2525:
	.loc 11 239 2 view .LVU4062
	.loc 11 241 2 view .LVU4063
	.loc 11 242 3 view .LVU4064
.LBB2526:
.LBI2526:
	.loc 3 279 28 view .LVU4065
.LBB2527:
	.loc 3 281 2 view .LVU4066
	.loc 3 281 9 is_stmt 0 view .LVU4067
	dmb	ish
	adds	r3, r0, #4
.LVL557:
.L384:
	.loc 3 281 9 view .LVU4068
	ldrex	r1, [r3]
	orr	r1, r1, #2048
	strex	r2, r1, [r3]
	cmp	r2, #0
	bne	.L384
	dmb	ish
.LVL558:
.L380:
	.loc 3 281 9 view .LVU4069
.LBE2527:
.LBE2526:
.LBE2525:
.LBE2524:
	.loc 1 2312 2 is_stmt 1 view .LVU4070
	.loc 1 2312 27 is_stmt 0 view .LVU4071
	strb	r5, [r4, #10]
	.loc 1 2314 2 is_stmt 1 view .LVU4072
.LVL559:
.LBB2529:
.LBI2529:
	.loc 1 2273 12 view .LVU4073
.LBB2530:
	.loc 1 2275 2 view .LVU4074
	.loc 1 2279 2 view .LVU4075
	.loc 1 2280 3 view .LVU4076
	.loc 1 2280 10 is_stmt 0 view .LVU4077
	mov	r0, r4
	bl	bt_smp_start_security
.LVL560:
	.loc 1 2280 10 view .LVU4078
.LBE2530:
.LBE2529:
	.loc 1 2317 2 is_stmt 1 view .LVU4079
	.loc 1 2317 5 is_stmt 0 view .LVU4080
	cbnz	r0, .L382
.LVL561:
.L381:
	.loc 1 2292 10 view .LVU4081
	movs	r0, #0
.LVL562:
.L377:
	.loc 1 2322 1 view .LVU4082
	pop	{r3, r4, r5, pc}
.LVL563:
.L379:
	.loc 1 2307 18 discriminator 1 view .LVU4083
	ldrb	r3, [r0, #9]	@ zero_extendqisi2
	cmp	r3, r5
	bcs	.L381
	.loc 1 2307 45 discriminator 2 view .LVU4084
	ldrb	r3, [r0, #10]	@ zero_extendqisi2
	cmp	r3, r5
	bcs	.L381
	.loc 1 2311 2 is_stmt 1 view .LVU4085
.LVL564:
.LBB2531:
	.loc 11 237 20 view .LVU4086
.LBB2528:
	.loc 11 239 2 view .LVU4087
	.loc 11 241 2 view .LVU4088
	.loc 11 244 3 view .LVU4089
	.loc 11 244 9 is_stmt 0 view .LVU4090
	mvn	r1, #2048
.LVL565:
	.loc 11 244 9 view .LVU4091
	adds	r0, r0, #4
.LVL566:
	.loc 11 244 9 view .LVU4092
	bl	atomic_and
.LVL567:
	.loc 11 244 9 view .LVU4093
	b	.L380
.LVL568:
.L382:
	.loc 11 244 9 view .LVU4094
.LBE2528:
.LBE2531:
	.loc 1 2318 3 is_stmt 1 view .LVU4095
	.loc 1 2318 28 is_stmt 0 view .LVU4096
	ldrb	r3, [r4, #9]	@ zero_extendqisi2
	strb	r3, [r4, #10]
	b	.L377
.LVL569:
.L383:
	.loc 1 2292 10 view .LVU4097
	mvn	r0, #127
.LVL570:
	.loc 1 2292 10 view .LVU4098
	b	.L377
	.cfi_endproc
.LFE643:
	.size	bt_conn_set_security, .-bt_conn_set_security
	.section	.text.bt_conn_get_security,"ax",%progbits
	.align	1
	.global	bt_conn_get_security
	.syntax unified
	.thumb
	.thumb_func
	.type	bt_conn_get_security, %function
bt_conn_get_security:
.LVL571:
.LFB644:
	.loc 1 2325 1 is_stmt 1 view -0
	.cfi_startproc
	@ args = 0, pretend = 0, frame = 0
	@ frame_needed = 0, uses_anonymous_args = 0
	@ link register save eliminated.
	.loc 1 2326 2 view .LVU4100
	.loc 1 2327 1 is_stmt 0 view .LVU4101
	ldrb	r0, [r0, #9]	@ zero_extendqisi2
.LVL572:
	.loc 1 2327 1 view .LVU4102
	bx	lr
	.cfi_endproc
.LFE644:
	.size	bt_conn_get_security, .-bt_conn_get_security
	.section	.text.bt_conn_cb_register,"ax",%progbits
	.align	1
	.global	bt_conn_cb_register
	.syntax unified
	.thumb
	.thumb_func
	.type	bt_conn_cb_register, %function
bt_conn_cb_register:
.LVL573:
.LFB645:
	.loc 1 2336 1 is_stmt 1 view -0
	.cfi_startproc
	@ args = 0, pretend = 0, frame = 0
	@ frame_needed = 0, uses_anonymous_args = 0
	@ link register save eliminated.
	.loc 1 2337 2 view .LVU4104
	.loc 1 2337 12 is_stmt 0 view .LVU4105
	ldr	r3, .L387
	ldr	r2, [r3]
	str	r2, [r0, #24]
	.loc 1 2338 2 is_stmt 1 view .LVU4106
	.loc 1 2338 16 is_stmt 0 view .LVU4107
	str	r0, [r3]
	.loc 1 2339 1 view .LVU4108
	bx	lr
.L388:
	.align	2
.L387:
	.word	callback_list
	.cfi_endproc
.LFE645:
	.size	bt_conn_cb_register, .-bt_conn_cb_register
	.section	.text.bt_conn_add_le,"ax",%progbits
	.align	1
	.global	bt_conn_add_le
	.syntax unified
	.thumb
	.thumb_func
	.type	bt_conn_add_le, %function
bt_conn_add_le:
.LVL574:
.LFB647:
	.loc 1 2363 1 is_stmt 1 view -0
	.cfi_startproc
	@ args = 0, pretend = 0, frame = 0
	@ frame_needed = 0, uses_anonymous_args = 0
	.loc 1 2364 2 view .LVU4110
.LBB2538:
.LBI2538:
	.loc 1 1844 24 view .LVU4111
.LBB2539:
	.loc 1 1846 2 view .LVU4112
.LBE2539:
.LBE2538:
	.loc 1 2363 1 is_stmt 0 view .LVU4113
	push	{r3, r4, r5, lr}
	.cfi_def_cfa_offset 16
	.cfi_offset 3, -16
	.cfi_offset 4, -12
	.cfi_offset 5, -8
	.cfi_offset 14, -4
	.loc 1 2363 1 view .LVU4114
	mov	r5, r0
	mov	r4, r1
.LBB2541:
.LBB2540:
	.loc 1 1846 9 view .LVU4115
	ldr	r0, .L394
.LVL575:
	.loc 1 1846 9 view .LVU4116
	movs	r1, #5
.LVL576:
	.loc 1 1846 9 view .LVU4117
	bl	bt_conn_new
.LVL577:
	.loc 1 1846 9 view .LVU4118
.LBE2540:
.LBE2541:
	.loc 1 2366 2 is_stmt 1 view .LVU4119
	.loc 1 2366 5 is_stmt 0 view .LVU4120
	cbz	r0, .L389
	.loc 1 2370 2 is_stmt 1 view .LVU4121
	.loc 1 2370 11 is_stmt 0 view .LVU4122
	strb	r5, [r0, #8]
	.loc 1 2371 2 is_stmt 1 view .LVU4123
.LVL578:
.LBB2542:
.LBI2542:
	.file 14 "/home/g/mise-work/zmk-firmware/zmk/zephyr/include/zephyr/bluetooth/addr.h"
	.loc 14 137 20 view .LVU4124
	.loc 14 139 1 view .LVU4125
.LBB2543:
.LBI2543:
	.loc 9 83 216 view .LVU4126
.LBB2544:
	.loc 9 83 292 view .LVU4127
	.loc 9 83 299 is_stmt 0 view .LVU4128
	ldr	r3, [r4]	@ unaligned
	str	r3, [r0, #136]	@ unaligned
	ldrh	r3, [r4, #4]	@ unaligned
	strh	r3, [r0, #140]	@ unaligned
	ldrb	r3, [r4, #6]	@ zero_extendqisi2
	strb	r3, [r0, #142]
.LVL579:
	.loc 9 83 299 view .LVU4129
.LBE2544:
.LBE2543:
.LBE2542:
	.loc 1 2373 2 is_stmt 1 view .LVU4130
	.loc 1 2373 18 is_stmt 0 view .LVU4131
	movs	r3, #1
	strb	r3, [r0, #9]
	.loc 1 2374 2 is_stmt 1 view .LVU4132
	.loc 1 2374 27 is_stmt 0 view .LVU4133
	strb	r3, [r0, #10]
	.loc 1 2376 2 is_stmt 1 view .LVU4134
	.loc 1 2376 13 is_stmt 0 view .LVU4135
	strb	r3, [r0, #2]
	.loc 1 2377 2 is_stmt 1 view .LVU4136
	.loc 1 2378 2 view .LVU4137
	.loc 1 2377 24 is_stmt 0 view .LVU4138
	ldr	r3, .L394+4
	str	r3, [r0, #160]
	.loc 1 2380 2 is_stmt 1 view .LVU4139
.L389:
	.loc 1 2381 1 is_stmt 0 view .LVU4140
	pop	{r3, r4, r5, pc}
.LVL580:
.L395:
	.loc 1 2381 1 view .LVU4141
	.align	2
.L394:
	.word	acl_conns
	.word	2621464
	.cfi_endproc
.LFE647:
	.size	bt_conn_add_le, .-bt_conn_add_le
	.section	.text.bt_conn_is_peer_addr_le,"ax",%progbits
	.align	1
	.global	bt_conn_is_peer_addr_le
	.syntax unified
	.thumb
	.thumb_func
	.type	bt_conn_is_peer_addr_le, %function
bt_conn_is_peer_addr_le:
.LVL581:
.LFB648:
	.loc 1 2385 1 is_stmt 1 view -0
	.cfi_startproc
	@ args = 0, pretend = 0, frame = 0
	@ frame_needed = 0, uses_anonymous_args = 0
	.loc 1 2385 1 is_stmt 0 view .LVU4143
	push	{r3, r4, r5, lr}
	.cfi_def_cfa_offset 16
	.cfi_offset 3, -16
	.cfi_offset 4, -12
	.cfi_offset 5, -8
	.cfi_offset 14, -4
	.loc 1 2386 5 view .LVU4144
	ldrb	r3, [r0, #8]	@ zero_extendqisi2
	cmp	r3, r1
	.loc 1 2385 1 view .LVU4145
	mov	r4, r0
	.loc 1 2386 2 is_stmt 1 view .LVU4146
	.loc 1 2385 1 is_stmt 0 view .LVU4147
	mov	r5, r2
	.loc 1 2386 5 view .LVU4148
	bne	.L399
	.loc 1 2391 2 is_stmt 1 view .LVU4149
.LVL582:
.LBB2559:
.LBI2559:
	.loc 14 117 19 view .LVU4150
	.loc 14 119 2 view .LVU4151
.LBB2560:
.LBI2560:
	.loc 14 104 19 view .LVU4152
.LBB2561:
	.loc 14 106 2 view .LVU4153
	.loc 14 106 9 is_stmt 0 view .LVU4154
	add	r1, r0, #136
.LVL583:
	.loc 14 106 9 view .LVU4155
	movs	r2, #7
.LVL584:
	.loc 14 106 9 view .LVU4156
	mov	r0, r5
.LVL585:
	.loc 14 106 9 view .LVU4157
	bl	memcmp
.LVL586:
	.loc 14 106 9 view .LVU4158
.LBE2561:
.LBE2560:
.LBE2559:
	.loc 1 2391 5 view .LVU4159
	cbz	r0, .L400
.LVL587:
.LBB2562:
.LBI2562:
	.loc 1 2383 5 is_stmt 1 view .LVU4160
.LBB2563:
	.loc 1 2396 2 view .LVU4161
	.loc 1 2396 5 is_stmt 0 view .LVU4162
	ldrb	r3, [r4, #3]	@ zero_extendqisi2
.LBB2564:
.LBB2565:
.LBB2566:
.LBB2567:
	.loc 14 106 9 view .LVU4163
	movs	r2, #7
.LBE2567:
.LBE2566:
.LBE2565:
.LBE2564:
	.loc 1 2396 5 view .LVU4164
	cbnz	r3, .L398
	.loc 1 2397 3 is_stmt 1 view .LVU4165
.LVL588:
.LBB2571:
.LBI2564:
	.loc 14 117 19 view .LVU4166
.LBB2570:
	.loc 14 119 2 view .LVU4167
.LBB2569:
.LBI2566:
	.loc 14 104 19 view .LVU4168
.LBB2568:
	.loc 14 106 2 view .LVU4169
	.loc 14 106 9 is_stmt 0 view .LVU4170
	add	r1, r4, #150
.LVL589:
.L401:
	.loc 14 106 9 view .LVU4171
.LBE2568:
.LBE2569:
.LBE2570:
.LBE2571:
.LBB2572:
.LBB2573:
.LBB2574:
.LBB2575:
	mov	r0, r5
	bl	memcmp
.LVL590:
.LBE2575:
.LBE2574:
	.loc 14 119 30 view .LVU4172
	clz	r0, r0
	lsrs	r0, r0, #5
.LVL591:
.L397:
	.loc 14 119 30 view .LVU4173
.LBE2573:
.LBE2572:
.LBE2563:
.LBE2562:
	.loc 1 2401 1 view .LVU4174
	pop	{r3, r4, r5, pc}
.LVL592:
.L398:
.LBB2581:
.LBB2580:
	.loc 1 2400 2 is_stmt 1 view .LVU4175
.LBB2579:
.LBI2572:
	.loc 14 117 19 view .LVU4176
.LBB2578:
	.loc 14 119 2 view .LVU4177
.LBB2577:
.LBI2574:
	.loc 14 104 19 view .LVU4178
.LBB2576:
	.loc 14 106 2 view .LVU4179
	.loc 14 106 9 is_stmt 0 view .LVU4180
	add	r1, r4, #143
.LVL593:
	.loc 14 106 9 view .LVU4181
	b	.L401
.LVL594:
.L399:
	.loc 14 106 9 view .LVU4182
.LBE2576:
.LBE2577:
.LBE2578:
.LBE2579:
.LBE2580:
.LBE2581:
	.loc 1 2387 9 view .LVU4183
	movs	r0, #0
.LVL595:
	.loc 1 2387 9 view .LVU4184
	b	.L397
.LVL596:
.L400:
	.loc 1 2392 9 view .LVU4185
	movs	r0, #1
	b	.L397
	.cfi_endproc
.LFE648:
	.size	bt_conn_is_peer_addr_le, .-bt_conn_is_peer_addr_le
	.section	.text.bt_conn_lookup_addr_le,"ax",%progbits
	.align	1
	.global	bt_conn_lookup_addr_le
	.syntax unified
	.thumb
	.thumb_func
	.type	bt_conn_lookup_addr_le, %function
bt_conn_lookup_addr_le:
.LVL597:
.LFB649:
	.loc 1 2404 1 is_stmt 1 view -0
	.cfi_startproc
	@ args = 0, pretend = 0, frame = 0
	@ frame_needed = 0, uses_anonymous_args = 0
	.loc 1 2405 2 view .LVU4187
	.loc 1 2407 2 view .LVU4188
	.loc 1 2407 16 view .LVU4189
	.loc 1 2404 1 is_stmt 0 view .LVU4190
	push	{r4, r5, r6, r7, r8, lr}
	.cfi_def_cfa_offset 24
	.cfi_offset 4, -24
	.cfi_offset 5, -20
	.cfi_offset 6, -16
	.cfi_offset 7, -12
	.cfi_offset 8, -8
	.cfi_offset 14, -4
	ldr	r6, .L412
	.loc 1 2404 1 view .LVU4191
	mov	r7, r0
	mov	r8, r1
	.loc 1 2407 9 view .LVU4192
	movs	r5, #0
.LVL598:
.L406:
.LBB2582:
	.loc 1 2408 3 is_stmt 1 view .LVU4193
	.loc 1 2408 26 is_stmt 0 view .LVU4194
	mov	r0, r6
	bl	bt_conn_ref
.LVL599:
	.loc 1 2410 3 is_stmt 1 view .LVU4195
	.loc 1 2410 6 is_stmt 0 view .LVU4196
	mov	r4, r0
	cbz	r0, .L403
	.loc 1 2414 3 is_stmt 1 view .LVU4197
	.loc 1 2414 6 is_stmt 0 view .LVU4198
	ldrb	r3, [r0, #2]	@ zero_extendqisi2
	cmp	r3, #1
	beq	.L404
.L411:
	.loc 1 2420 4 discriminator 1 view .LVU4199
	bl	bt_conn_unref
.LVL600:
	.loc 1 2421 4 is_stmt 1 discriminator 1 view .LVU4200
.L403:
.LBE2582:
	.loc 1 2407 199 discriminator 2 view .LVU4201
	adds	r5, r5, #1
.LVL601:
	.loc 1 2407 16 discriminator 2 view .LVU4202
	cmp	r5, #5
	add	r6, r6, #192
	bne	.L406
	.loc 1 2427 8 is_stmt 0 view .LVU4203
	movs	r4, #0
.LVL602:
.L402:
	.loc 1 2428 1 view .LVU4204
	mov	r0, r4
	pop	{r4, r5, r6, r7, r8, pc}
.LVL603:
.L404:
.LBB2583:
	.loc 1 2419 3 is_stmt 1 view .LVU4205
	.loc 1 2419 8 is_stmt 0 view .LVU4206
	mov	r2, r8
	mov	r1, r7
	bl	bt_conn_is_peer_addr_le
.LVL604:
	.loc 1 2419 6 view .LVU4207
	cmp	r0, #0
	bne	.L402
	.loc 1 2420 4 is_stmt 1 discriminator 1 view .LVU4208
	mov	r0, r4
	b	.L411
.L413:
	.align	2
.L412:
	.word	acl_conns
.LBE2583:
	.cfi_endproc
.LFE649:
	.size	bt_conn_lookup_addr_le, .-bt_conn_lookup_addr_le
	.section	.rodata.bt_conn_exists_le.str1.1,"aMS",%progbits,1
.LC16:
	.ascii	"Found valid connection (%p) with address %s in %s s"
	.ascii	"tate \000"
	.section	.text.bt_conn_exists_le,"ax",%progbits
	.align	1
	.global	bt_conn_exists_le
	.syntax unified
	.thumb
	.thumb_func
	.type	bt_conn_exists_le, %function
bt_conn_exists_le:
.LVL605:
.LFB646:
	.loc 1 2342 1 view -0
	.cfi_startproc
	@ args = 0, pretend = 0, frame = 0
	@ frame_needed = 1, uses_anonymous_args = 0
	.loc 1 2343 2 view .LVU4210
	.loc 1 2342 1 is_stmt 0 view .LVU4211
	push	{r4, r5, r7, lr}
	.cfi_def_cfa_offset 16
	.cfi_offset 4, -16
	.cfi_offset 5, -12
	.cfi_offset 7, -8
	.cfi_offset 14, -4
	add	r7, sp, #0
	.cfi_def_cfa_register 7
	.loc 1 2342 1 view .LVU4212
	mov	r5, r1
	.loc 1 2343 25 view .LVU4213
	bl	bt_conn_lookup_addr_le
.LVL606:
	.loc 1 2345 2 is_stmt 1 view .LVU4214
	.loc 1 2345 5 is_stmt 0 view .LVU4215
	mov	r4, r0
	cbz	r0, .L415
	.loc 1 2353 3 is_stmt 1 view .LVU4216
.LBB2599:
	.loc 1 2353 8 view .LVU4217
	.loc 1 2353 57 view .LVU4218
	.loc 1 2353 14 view .LVU4219
	.loc 1 2353 2 view .LVU4220
.LVL607:
	.loc 1 2353 41 view .LVU4221
	.loc 1 2353 176 view .LVU4222
	.loc 1 2353 187 view .LVU4223
	.loc 1 2353 275 view .LVU4224
.LBB2600:
	.loc 1 2353 3 view .LVU4225
	.loc 1 2353 5 view .LVU4226
	.loc 1 2353 36 view .LVU4227
	.loc 1 2353 77 is_stmt 0 view .LVU4228
	mov	r0, r5
.LVL608:
	.loc 1 2353 77 view .LVU4229
	bl	bt_addr_le_str
.LVL609:
	.loc 1 2353 83 is_stmt 1 view .LVU4230
	.loc 1 2353 126 is_stmt 0 view .LVU4231
	ldrb	r3, [r4, #13]	@ zero_extendqisi2
.LVL610:
.LBB2601:
.LBI2601:
	.loc 1 176 27 is_stmt 1 view .LVU4232
	.loc 1 178 2 view .LVU4233
	cmp	r3, #8
	itet	ls
	ldrls	r2, .L419
.LBE2601:
	.loc 1 2353 126 is_stmt 0 view .LVU4234
	ldrhi	r3, .L419+4
.LVL611:
	.loc 1 2353 126 view .LVU4235
	ldrls	r3, [r2, r3, lsl #2]
.LVL612:
	.loc 1 2353 3 is_stmt 1 view .LVU4236
.LBB2602:
	.loc 1 2353 8 view .LVU4237
	.loc 1 2353 2 view .LVU4238
.LBE2602:
.LBE2600:
.LBE2599:
	.loc 1 2353 3 view .LVU4239
	.loc 1 2353 12 view .LVU4240
	.loc 1 2353 107 view .LVU4241
	.loc 1 2353 3 view .LVU4242
.LBB2635:
.LBB2630:
.LBB2625:
	.loc 1 2353 12 view .LVU4243
	.loc 1 2353 102 view .LVU4244
	.loc 1 2353 104 view .LVU4245
.LBB2603:
	.loc 1 2353 107 is_stmt 0 view .LVU4246
	mov	r5, sp
.LVL613:
	.loc 1 2353 109 is_stmt 1 view .LVU4247
	.loc 1 2353 120 view .LVU4248
	.loc 1 2353 209 view .LVU4249
	.loc 1 2353 26 view .LVU4250
.LBE2603:
.LBE2625:
.LBE2630:
.LBE2635:
	.loc 1 2353 3 view .LVU4251
	.loc 1 2353 368 view .LVU4252
	.loc 1 2353 75 view .LVU4253
	.loc 1 2353 2 view .LVU4254
	.loc 1 2353 2 view .LVU4255
	.loc 1 2353 2 view .LVU4256
	.loc 1 2353 38 view .LVU4257
	.loc 1 2353 4 view .LVU4258
	.loc 1 2353 30 view .LVU4259
	.loc 1 2353 56 view .LVU4260
	.loc 1 2353 1415 view .LVU4261
	.loc 1 2353 1477 view .LVU4262
	.loc 1 2353 2930 view .LVU4263
	.loc 1 2353 2995 view .LVU4264
	.loc 1 2353 3020 view .LVU4265
	.loc 1 2353 3021 view .LVU4266
	.loc 1 2353 3023 view .LVU4267
	.loc 1 2353 3053 view .LVU4268
	.loc 1 2353 3083 view .LVU4269
	.loc 1 2353 3115 view .LVU4270
	.loc 1 2353 3147 view .LVU4271
	.loc 1 2353 3179 view .LVU4272
	.loc 1 2353 3376 view .LVU4273
	.loc 1 2353 3400 view .LVU4274
	.loc 1 2353 3401 view .LVU4275
	.loc 1 2353 3403 view .LVU4276
	.loc 1 2353 3432 view .LVU4277
	.loc 1 2353 3461 view .LVU4278
	.loc 1 2353 3492 view .LVU4279
	.loc 1 2353 3523 view .LVU4280
	.loc 1 2353 3554 view .LVU4281
	.loc 1 2353 3761 view .LVU4282
	.loc 1 2353 4 view .LVU4283
	.loc 1 2353 22 view .LVU4284
	.loc 1 2353 42 view .LVU4285
	.loc 1 2353 4 view .LVU4286
	.loc 1 2353 42 view .LVU4287
	.loc 1 2353 13 view .LVU4288
	.loc 1 2353 13 view .LVU4289
	.loc 1 2353 61 view .LVU4290
	.loc 1 2353 92 view .LVU4291
	.loc 1 2353 126 view .LVU4292
	.loc 1 2353 131 view .LVU4293
	.loc 1 2353 411 view .LVU4294
	.loc 1 2353 1584 view .LVU4295
	.loc 1 2353 1649 view .LVU4296
	.loc 1 2353 1673 view .LVU4297
	.loc 1 2353 1757 view .LVU4298
	.loc 1 2353 1768 view .LVU4299
	.loc 1 2353 1910 view .LVU4300
	.loc 1 2353 1926 view .LVU4301
	.loc 1 2353 1966 view .LVU4302
	.loc 1 2353 1991 view .LVU4303
	.loc 1 2353 3340 view .LVU4304
	.loc 1 2353 3381 view .LVU4305
	.loc 1 2353 7 view .LVU4306
	.loc 1 2353 30 view .LVU4307
	.loc 1 2353 129 view .LVU4308
	.loc 1 2353 6 view .LVU4309
	.loc 1 2353 11 view .LVU4310
	.loc 1 2353 236 view .LVU4311
	.loc 1 2353 1189 view .LVU4312
	.loc 1 2353 1254 view .LVU4313
	.loc 1 2353 1278 view .LVU4314
	.loc 1 2353 1307 view .LVU4315
	.loc 1 2353 1318 view .LVU4316
	.loc 1 2353 1405 view .LVU4317
	.loc 1 2353 1421 view .LVU4318
	.loc 1 2353 1461 view .LVU4319
	.loc 1 2353 2725 view .LVU4320
	.loc 1 2353 2766 view .LVU4321
	.loc 1 2353 7 view .LVU4322
	.loc 1 2353 30 view .LVU4323
	.loc 1 2353 9 view .LVU4324
	.loc 1 2353 6 view .LVU4325
	.loc 1 2353 11 view .LVU4326
	.loc 1 2353 236 view .LVU4327
	.loc 1 2353 1189 view .LVU4328
	.loc 1 2353 1254 view .LVU4329
	.loc 1 2353 1278 view .LVU4330
	.loc 1 2353 1307 view .LVU4331
	.loc 1 2353 1318 view .LVU4332
	.loc 1 2353 1405 view .LVU4333
	.loc 1 2353 1421 view .LVU4334
	.loc 1 2353 1461 view .LVU4335
	.loc 1 2353 1551 view .LVU4336
	.loc 1 2353 1954 view .LVU4337
	.loc 1 2353 2611 view .LVU4338
	.loc 1 2353 2630 view .LVU4339
	.loc 1 2353 2667 view .LVU4340
	.loc 1 2353 2725 view .LVU4341
	.loc 1 2353 2766 view .LVU4342
	.loc 1 2353 7 view .LVU4343
	.loc 1 2353 30 view .LVU4344
	.loc 1 2353 9 view .LVU4345
	.loc 1 2353 6 view .LVU4346
	.loc 1 2353 11 view .LVU4347
	.loc 1 2353 236 view .LVU4348
	.loc 1 2353 1189 view .LVU4349
	.loc 1 2353 1254 view .LVU4350
	.loc 1 2353 1278 view .LVU4351
	.loc 1 2353 1307 view .LVU4352
	.loc 1 2353 1318 view .LVU4353
	.loc 1 2353 1405 view .LVU4354
	.loc 1 2353 1421 view .LVU4355
	.loc 1 2353 1461 view .LVU4356
	.loc 1 2353 1551 view .LVU4357
	.loc 1 2353 1954 view .LVU4358
	.loc 1 2353 2611 view .LVU4359
	.loc 1 2353 2630 view .LVU4360
	.loc 1 2353 2667 view .LVU4361
	.loc 1 2353 2725 view .LVU4362
	.loc 1 2353 2766 view .LVU4363
	.loc 1 2353 7 view .LVU4364
	.loc 1 2353 30 view .LVU4365
	.loc 1 2353 9 view .LVU4366
	.loc 1 2353 5 view .LVU4367
	.loc 1 2353 28 view .LVU4368
	.loc 1 2353 52 view .LVU4369
	.loc 1 2353 80 view .LVU4370
	.loc 1 2353 256 view .LVU4371
	.loc 1 2353 16 view .LVU4372
.LBB2636:
.LBB2631:
.LBB2626:
.LBB2621:
	.loc 1 2353 29 view .LVU4373
	.loc 1 2353 3 view .LVU4374
	.loc 1 2353 3 view .LVU4375
	.loc 1 2353 70 view .LVU4376
	.loc 1 2353 82 is_stmt 0 view .LVU4377
	sub	sp, sp, #40
	mov	r2, sp
.LVL614:
	.loc 1 2353 74 is_stmt 1 view .LVU4378
	.loc 1 2353 484 view .LVU4379
	.loc 1 2353 5 view .LVU4380
	.loc 1 2353 7 view .LVU4381
	.loc 1 2353 12 view .LVU4382
	.loc 1 2353 10 view .LVU4383
	.loc 1 2353 5 view .LVU4384
	.loc 1 2353 23 view .LVU4385
.LBB2604:
	.loc 1 2353 3 view .LVU4386
	.loc 1 2353 368 view .LVU4387
	.loc 1 2353 75 view .LVU4388
.LVL615:
	.loc 1 2353 2 view .LVU4389
	.loc 1 2353 2 view .LVU4390
	.loc 1 2353 2 view .LVU4391
	.loc 1 2353 38 view .LVU4392
	.loc 1 2353 67 view .LVU4393
	.loc 1 2353 93 view .LVU4394
	.loc 1 2353 119 view .LVU4395
	.loc 1 2353 1478 view .LVU4396
	.loc 1 2353 1540 view .LVU4397
	.loc 1 2353 2993 view .LVU4398
	.loc 1 2353 3058 view .LVU4399
	.loc 1 2353 3083 view .LVU4400
	.loc 1 2353 3084 view .LVU4401
	.loc 1 2353 3086 view .LVU4402
	.loc 1 2353 3116 view .LVU4403
	.loc 1 2353 3146 view .LVU4404
	.loc 1 2353 3178 view .LVU4405
	.loc 1 2353 3210 view .LVU4406
	.loc 1 2353 3242 view .LVU4407
	.loc 1 2353 3439 view .LVU4408
	.loc 1 2353 3463 view .LVU4409
	.loc 1 2353 3464 view .LVU4410
	.loc 1 2353 3466 view .LVU4411
	.loc 1 2353 3495 view .LVU4412
	.loc 1 2353 3524 view .LVU4413
	.loc 1 2353 3555 view .LVU4414
	.loc 1 2353 3586 view .LVU4415
	.loc 1 2353 3617 view .LVU4416
	.loc 1 2353 3824 view .LVU4417
.LBB2605:
	.loc 1 2353 3378 view .LVU4418
	.loc 1 2353 3383 view .LVU4419
	.loc 1 2353 0 view .LVU4420
	ldr	r1, .L419+8
.LBE2605:
.LBB2606:
	.loc 1 2353 3811 is_stmt 0 view .LVU4421
	strd	r0, r3, [r2, #28]
.LBE2606:
.LBB2607:
.LBB2608:
	.loc 1 2353 227 view .LVU4422
	ldr	r3, .L419+12
.LVL616:
	.loc 1 2353 227 view .LVU4423
	str	r3, [r2, #36]
.LBE2608:
.LBE2607:
.LBB2610:
	.loc 1 2353 176 view .LVU4424
	ldr	r3, .L419+16
.LBE2610:
.LBE2604:
	.loc 1 2353 149 view .LVU4425
	ldr	r0, .L419+20
.LVL617:
.LBB2618:
.LBB2611:
	.loc 1 2353 3811 view .LVU4426
	strd	r1, r4, [r2, #20]
	.loc 1 2353 2766 is_stmt 1 view .LVU4427
	.loc 1 2353 7 view .LVU4428
.LVL618:
	.loc 1 2353 30 view .LVU4429
	.loc 1 2353 30 is_stmt 0 view .LVU4430
.LBE2611:
	.loc 1 2353 9 is_stmt 1 view .LVU4431
	.loc 1 2353 6 view .LVU4432
.LBB2612:
	.loc 1 2353 11 view .LVU4433
	.loc 1 2353 236 view .LVU4434
	.loc 1 2353 1189 view .LVU4435
	.loc 1 2353 1254 view .LVU4436
.LBE2612:
.LBE2618:
.LBE2621:
.LBE2626:
.LBE2631:
.LBE2636:
	.loc 1 2353 1278 view .LVU4437
	.loc 1 2353 1307 view .LVU4438
	.loc 1 2353 1318 view .LVU4439
	.loc 1 2353 1405 view .LVU4440
.LBB2637:
.LBB2632:
.LBB2627:
.LBB2622:
.LBB2619:
.LBB2613:
	.loc 1 2353 1421 view .LVU4441
	.loc 1 2353 1461 view .LVU4442
	.loc 1 2353 1551 view .LVU4443
	.loc 1 2353 1954 view .LVU4444
	.loc 1 2353 2611 view .LVU4445
	.loc 1 2353 2630 view .LVU4446
	.loc 1 2353 2667 view .LVU4447
	.loc 1 2353 2725 view .LVU4448
	.loc 1 2353 2763 view .LVU4449
	.loc 1 2353 2768 view .LVU4450
	.loc 1 2353 3212 view .LVU4451
.LBE2613:
.LBB2614:
	.loc 1 2353 2766 view .LVU4452
	.loc 1 2353 7 view .LVU4453
	.loc 1 2353 30 view .LVU4454
	.loc 1 2353 30 is_stmt 0 view .LVU4455
.LBE2614:
	.loc 1 2353 9 is_stmt 1 view .LVU4456
	.loc 1 2353 5 view .LVU4457
	.loc 1 2353 28 view .LVU4458
	.loc 1 2353 52 view .LVU4459
	.loc 1 2353 80 view .LVU4460
.LBB2615:
	.loc 1 2353 6 view .LVU4461
	.loc 1 2353 45 view .LVU4462
.LBE2615:
.LBE2619:
.LBE2622:
.LBE2627:
.LBE2632:
.LBE2637:
	.loc 1 2353 50 view .LVU4463
	.loc 1 2353 80 view .LVU4464
.LBB2638:
.LBB2633:
.LBB2628:
.LBB2623:
.LBB2620:
.LBB2616:
.LBB2609:
	.loc 1 2353 182 view .LVU4465
	.loc 1 2353 182 is_stmt 0 view .LVU4466
.LBE2609:
.LBE2616:
	.loc 1 2353 256 is_stmt 1 view .LVU4467
	.loc 1 2353 16 view .LVU4468
.LBB2617:
	.loc 1 2353 6 view .LVU4469
	.loc 1 2353 164 view .LVU4470
	.loc 1 2353 166 view .LVU4471
	.loc 1 2353 176 is_stmt 0 view .LVU4472
	str	r3, [r2, #16]!
.LVL619:
	.loc 1 2353 176 view .LVU4473
.LBE2617:
.LBE2620:
	.loc 1 2353 26 is_stmt 1 view .LVU4474
	.loc 1 2353 7 view .LVU4475
	.loc 1 2353 147 view .LVU4476
	.loc 1 2353 149 view .LVU4477
	mov	r1, #12416
	bl	z_log_msg_static_create.constprop.0
.LVL620:
	.loc 1 2353 149 is_stmt 0 view .LVU4478
.LBE2623:
.LBE2628:
.LBE2633:
.LBE2638:
	.loc 1 2355 3 view .LVU4479
	mov	r0, r4
.LBB2639:
.LBB2634:
.LBB2629:
.LBB2624:
	mov	sp, r5
.LVL621:
	.loc 1 2355 3 view .LVU4480
.LBE2624:
	.loc 1 2353 107 is_stmt 1 view .LVU4481
	.loc 1 2353 5 view .LVU4482
	.loc 1 2353 42 view .LVU4483
.LBE2629:
	.loc 1 2353 6 view .LVU4484
.LBE2634:
	.loc 1 2353 278 view .LVU4485
	.loc 1 2353 5 view .LVU4486
	.loc 1 2353 18 view .LVU4487
.LBE2639:
	.loc 1 2353 6 view .LVU4488
	.loc 1 2355 3 view .LVU4489
	bl	bt_conn_unref
.LVL622:
	.loc 1 2356 3 view .LVU4490
	.loc 1 2356 9 is_stmt 0 view .LVU4491
	movs	r0, #1
.LVL623:
.L415:
	.loc 1 2360 1 view .LVU4492
	mov	sp, r7
	.cfi_def_cfa_register 13
	@ sp needed
	pop	{r4, r5, r7, pc}
.LVL624:
.L420:
	.loc 1 2360 1 view .LVU4493
	.align	2
.L419:
	.word	CSWTCH.6891
	.word	.LC11
	.word	.LC16
	.word	67240705
	.word	33554437
	.word	log_const_bt_conn
	.cfi_endproc
.LFE646:
	.size	bt_conn_exists_le, .-bt_conn_exists_le
	.section	.text.bt_conn_lookup_state_le,"ax",%progbits
	.align	1
	.global	bt_conn_lookup_state_le
	.syntax unified
	.thumb
	.thumb_func
	.type	bt_conn_lookup_state_le, %function
bt_conn_lookup_state_le:
.LVL625:
.LFB650:
	.loc 1 2432 1 is_stmt 1 view -0
	.cfi_startproc
	@ args = 0, pretend = 0, frame = 0
	@ frame_needed = 0, uses_anonymous_args = 0
	.loc 1 2433 2 view .LVU4495
	.loc 1 2435 2 view .LVU4496
	.loc 1 2435 16 view .LVU4497
	.loc 1 2432 1 is_stmt 0 view .LVU4498
	push	{r4, r5, r6, r7, r8, r9, r10, lr}
	.cfi_def_cfa_offset 32
	.cfi_offset 4, -32
	.cfi_offset 5, -28
	.cfi_offset 6, -24
	.cfi_offset 7, -20
	.cfi_offset 8, -16
	.cfi_offset 9, -12
	.cfi_offset 10, -8
	.cfi_offset 14, -4
.LBB2640:
	.loc 1 2436 26 view .LVU4499
	ldr	r10, .L436
.LBE2640:
	.loc 1 2432 1 view .LVU4500
	mov	r6, r0
	mov	r7, r1
	mov	r8, r2
	.loc 1 2435 9 view .LVU4501
	movs	r5, #0
.LBB2641:
	.loc 1 2436 26 view .LVU4502
	mov	r9, #192
.LVL626:
.L427:
	.loc 1 2436 3 is_stmt 1 view .LVU4503
	.loc 1 2436 26 is_stmt 0 view .LVU4504
	mla	r0, r9, r5, r10
	bl	bt_conn_ref
.LVL627:
	.loc 1 2438 3 is_stmt 1 view .LVU4505
	.loc 1 2438 6 is_stmt 0 view .LVU4506
	mov	r4, r0
	cbz	r0, .L422
	.loc 1 2442 3 is_stmt 1 view .LVU4507
	.loc 1 2442 6 is_stmt 0 view .LVU4508
	ldrb	r3, [r0, #2]	@ zero_extendqisi2
	cmp	r3, #1
	beq	.L423
.L435:
	.loc 1 2453 4 discriminator 3 view .LVU4509
	bl	bt_conn_unref
.LVL628:
	.loc 1 2454 4 is_stmt 1 discriminator 3 view .LVU4510
.L422:
.LBE2641:
	.loc 1 2435 199 discriminator 2 view .LVU4511
	adds	r5, r5, #1
.LVL629:
	.loc 1 2435 16 discriminator 2 view .LVU4512
	cmp	r5, #5
	bne	.L427
	.loc 1 2460 8 is_stmt 0 view .LVU4513
	movs	r4, #0
.LVL630:
	.loc 1 2460 8 view .LVU4514
	b	.L421
.LVL631:
.L423:
.LBB2642:
	.loc 1 2447 3 is_stmt 1 view .LVU4515
	.loc 1 2447 6 is_stmt 0 view .LVU4516
	cbz	r7, .L424
	.loc 1 2447 16 discriminator 1 view .LVU4517
	mov	r2, r7
	mov	r1, r6
	bl	bt_conn_is_peer_addr_le
.LVL632:
	.loc 1 2447 12 discriminator 1 view .LVU4518
	cbnz	r0, .L424
.L425:
	.loc 1 2453 4 is_stmt 1 discriminator 3 view .LVU4519
	mov	r0, r4
	b	.L435
.L424:
	.loc 1 2452 3 view .LVU4520
	.loc 1 2452 6 is_stmt 0 view .LVU4521
	ldrb	r3, [r4, #13]	@ zero_extendqisi2
	cmp	r3, r8
	bne	.L425
	.loc 1 2452 7 discriminator 2 view .LVU4522
	ldrb	r3, [r4, #8]	@ zero_extendqisi2
	cmp	r3, r6
	bne	.L425
.LVL633:
.L421:
	.loc 1 2452 7 discriminator 2 view .LVU4523
.LBE2642:
	.loc 1 2461 1 view .LVU4524
	mov	r0, r4
	pop	{r4, r5, r6, r7, r8, r9, r10, pc}
.LVL634:
.L437:
	.loc 1 2461 1 view .LVU4525
	.align	2
.L436:
	.word	acl_conns
	.cfi_endproc
.LFE650:
	.size	bt_conn_lookup_state_le, .-bt_conn_lookup_state_le
	.section	.text.bt_conn_get_dst,"ax",%progbits
	.align	1
	.global	bt_conn_get_dst
	.syntax unified
	.thumb
	.thumb_func
	.type	bt_conn_get_dst, %function
bt_conn_get_dst:
.LVL635:
.LFB651:
	.loc 1 2464 1 is_stmt 1 view -0
	.cfi_startproc
	@ args = 0, pretend = 0, frame = 0
	@ frame_needed = 0, uses_anonymous_args = 0
	@ link register save eliminated.
	.loc 1 2465 2 view .LVU4527
	.loc 1 2466 1 is_stmt 0 view .LVU4528
	adds	r0, r0, #136
.LVL636:
	.loc 1 2466 1 view .LVU4529
	bx	lr
	.cfi_endproc
.LFE651:
	.size	bt_conn_get_dst, .-bt_conn_get_dst
	.section	.text.bt_conn_get_info,"ax",%progbits
	.align	1
	.global	bt_conn_get_info
	.syntax unified
	.thumb
	.thumb_func
	.type	bt_conn_get_info, %function
bt_conn_get_info:
.LVL637:
.LFB653:
	.loc 1 2491 1 is_stmt 1 view -0
	.cfi_startproc
	@ args = 0, pretend = 0, frame = 0
	@ frame_needed = 0, uses_anonymous_args = 0
	.loc 1 2492 2 view .LVU4531
	.loc 1 2491 1 is_stmt 0 view .LVU4532
	push	{r4, lr}
	.cfi_def_cfa_offset 8
	.cfi_offset 4, -8
	.cfi_offset 14, -4
	.loc 1 2492 19 view .LVU4533
	ldrb	r3, [r0, #2]	@ zero_extendqisi2
	.loc 1 2492 13 view .LVU4534
	strb	r3, [r1]
	.loc 1 2493 2 is_stmt 1 view .LVU4535
	.loc 1 2493 19 is_stmt 0 view .LVU4536
	ldrb	r3, [r0, #3]	@ zero_extendqisi2
	.loc 1 2493 13 view .LVU4537
	strb	r3, [r1, #1]
	.loc 1 2494 2 is_stmt 1 view .LVU4538
	.loc 1 2494 17 is_stmt 0 view .LVU4539
	ldrb	r3, [r0, #8]	@ zero_extendqisi2
	.loc 1 2494 11 view .LVU4540
	strb	r3, [r1, #2]
	.loc 1 2495 2 is_stmt 1 view .LVU4541
.LVL638:
.LBB2647:
.LBI2647:
	.loc 1 2468 27 view .LVU4542
	.loc 1 2470 2 view .LVU4543
	ldrb	r3, [r0, #13]	@ zero_extendqisi2
	subs	r3, r3, #2
	uxtb	r3, r3
	cmp	r3, #6
	it	ls
	ldrls	r4, .L460
.LBE2647:
	.loc 1 2491 1 is_stmt 0 view .LVU4544
	mov	r2, r0
	mov	r0, #0
.LVL639:
	.loc 1 2495 50 view .LVU4545
	ite	hi
	movhi	r3, r0
.LVL640:
	.loc 1 2495 50 view .LVU4546
	ldrbls	r3, [r4, r3]	@ zero_extendqisi2
	.loc 1 2496 23 view .LVU4547
	strb	r0, [r1, #31]
	.loc 1 2495 14 view .LVU4548
	strb	r3, [r1, #28]
	.loc 1 2496 2 is_stmt 1 view .LVU4549
	.loc 1 2497 2 view .LVU4550
.LVL641:
.LBB2648:
.LBI2648:
	.loc 1 2324 15 view .LVU4551
.LBB2649:
	.loc 1 2326 2 view .LVU4552
	.loc 1 2326 13 is_stmt 0 view .LVU4553
	ldrb	r3, [r2, #9]	@ zero_extendqisi2
.LVL642:
	.loc 1 2326 13 view .LVU4554
.LBE2649:
.LBE2648:
	.loc 1 2497 23 view .LVU4555
	strb	r3, [r1, #29]
	.loc 1 2499 2 is_stmt 1 view .LVU4556
	.loc 1 2499 32 is_stmt 0 view .LVU4557
	mov	r0, r2
	bl	bt_conn_enc_key_size
.LVL643:
	.loc 1 2499 30 view .LVU4558
	strb	r0, [r1, #30]
	.loc 1 2504 2 is_stmt 1 view .LVU4559
	ldrb	r3, [r2, #2]	@ zero_extendqisi2
	cmp	r3, #1
	bne	.L447
	.loc 1 2506 3 view .LVU4560
	.loc 1 2506 18 is_stmt 0 view .LVU4561
	add	r3, r2, #136
	.loc 1 2506 16 view .LVU4562
	str	r3, [r1, #8]
	.loc 1 2507 3 is_stmt 1 view .LVU4563
	.loc 1 2507 18 is_stmt 0 view .LVU4564
	ldrb	r3, [r2, #8]	@ zero_extendqisi2
	ldr	r0, .L460+4
	rsb	r3, r3, r3, lsl #3
	add	r3, r3, r0
	.loc 1 2507 16 view .LVU4565
	str	r3, [r1, #4]
	.loc 1 2508 3 is_stmt 1 view .LVU4566
	.loc 1 2508 6 is_stmt 0 view .LVU4567
	ldrb	r4, [r2, #3]	@ zero_extendqisi2
	.loc 1 2510 22 view .LVU4568
	add	r3, r2, #150
	.loc 1 2509 21 view .LVU4569
	add	r0, r2, #143
	.loc 1 2508 6 view .LVU4570
	cbz	r4, .L442
	mov	r4, r3
	mov	r3, r0
	mov	r0, r4
.L442:
	.loc 1 2510 20 view .LVU4571
	strd	r0, r3, [r1, #12]
	.loc 1 2515 3 is_stmt 1 view .LVU4572
	.loc 1 2515 31 is_stmt 0 view .LVU4573
	ldrh	r3, [r2, #158]
	.loc 1 2515 21 view .LVU4574
	strh	r3, [r1, #20]	@ movhi
	.loc 1 2516 3 is_stmt 1 view .LVU4575
	.loc 1 2516 30 is_stmt 0 view .LVU4576
	ldrh	r3, [r2, #164]
	.loc 1 2516 20 view .LVU4577
	strh	r3, [r1, #22]	@ movhi
	.loc 1 2517 3 is_stmt 1 view .LVU4578
	.loc 1 2517 30 is_stmt 0 view .LVU4579
	ldrh	r3, [r2, #166]
	.loc 1 2517 20 view .LVU4580
	strh	r3, [r1, #24]	@ movhi
	.loc 1 2524 3 is_stmt 1 view .LVU4581
	.loc 1 2524 15 is_stmt 0 view .LVU4582
	ldr	r3, [r2, #184]
	.loc 1 2524 6 view .LVU4583
	cbz	r3, .L443
	.loc 1 2524 21 discriminator 1 view .LVU4584
	ldrb	r3, [r3, #13]	@ zero_extendqisi2
	lsls	r0, r3, #27
	.loc 1 2525 4 is_stmt 1 discriminator 1 view .LVU4585
	.loc 1 2525 25 is_stmt 0 discriminator 1 view .LVU4586
	itt	mi
	movmi	r3, #1
	strbmi	r3, [r1, #31]
.L443:
	.loc 1 2527 3 is_stmt 1 view .LVU4587
	.loc 1 2527 15 is_stmt 0 view .LVU4588
	ldr	r3, [r2, #184]
	.loc 1 2527 6 view .LVU4589
	cbz	r3, .L444
	.loc 1 2527 21 discriminator 1 view .LVU4590
	ldrb	r3, [r3, #13]	@ zero_extendqisi2
	lsls	r3, r3, #26
	bmi	.L445
.L444:
	.loc 1 2530 10 view .LVU4591
	movs	r0, #0
.L439:
	.loc 1 2553 1 view .LVU4592
	pop	{r4, pc}
.L445:
	.loc 1 2528 4 is_stmt 1 view .LVU4593
	.loc 1 2528 25 is_stmt 0 view .LVU4594
	ldrb	r3, [r1, #31]	@ zero_extendqisi2
	orr	r3, r3, #2
	strb	r3, [r1, #31]
	b	.L444
.L447:
	.loc 1 2552 9 view .LVU4595
	mvn	r0, #21
	b	.L439
.L461:
	.align	2
.L460:
	.word	CSWTCH.6897
	.word	bt_dev
	.cfi_endproc
.LFE653:
	.size	bt_conn_get_info, .-bt_conn_get_info
	.section	.text.bt_conn_get_remote_info,"ax",%progbits
	.align	1
	.global	bt_conn_get_remote_info
	.syntax unified
	.thumb
	.thumb_func
	.type	bt_conn_get_remote_info, %function
bt_conn_get_remote_info:
.LVL644:
.LFB654:
	.loc 1 2557 1 is_stmt 1 view -0
	.cfi_startproc
	@ args = 0, pretend = 0, frame = 0
	@ frame_needed = 0, uses_anonymous_args = 0
	@ link register save eliminated.
	.loc 1 2558 2 view .LVU4597
.LBB2654:
.LBI2654:
	.loc 11 131 19 view .LVU4598
.LBB2655:
	.loc 11 133 2 view .LVU4599
.LBB2656:
.LBI2656:
	.loc 3 159 28 view .LVU4600
.LBB2657:
	.loc 3 161 2 view .LVU4601
	.loc 3 161 9 is_stmt 0 view .LVU4602
	dmb	ish
	ldr	r3, [r0, #4]
	dmb	ish
.LVL645:
	.loc 3 161 9 view .LVU4603
.LBE2657:
.LBE2656:
	.loc 11 135 2 is_stmt 1 view .LVU4604
	.loc 11 135 2 is_stmt 0 view .LVU4605
.LBE2655:
.LBE2654:
	.loc 1 2558 5 view .LVU4606
	lsls	r3, r3, #19
	bpl	.L464
	.loc 1 2564 2 is_stmt 1 view .LVU4607
	.loc 1 2564 26 is_stmt 0 view .LVU4608
	ldrb	r3, [r0, #2]	@ zero_extendqisi2
	.loc 1 2564 20 view .LVU4609
	strb	r3, [r1]
	.loc 1 2571 2 is_stmt 1 view .LVU4610
	.loc 1 2571 23 is_stmt 0 view .LVU4611
	movs	r3, #0
	strb	r3, [r1, #1]
	.loc 1 2572 2 is_stmt 1 view .LVU4612
	.loc 1 2572 28 is_stmt 0 view .LVU4613
	strh	r3, [r1, #2]	@ movhi
	.loc 1 2573 2 is_stmt 1 view .LVU4614
	.loc 1 2573 26 is_stmt 0 view .LVU4615
	strh	r3, [r1, #4]	@ movhi
	.loc 1 2576 2 is_stmt 1 view .LVU4616
	ldrb	r2, [r0, #2]	@ zero_extendqisi2
	cmp	r2, #1
	bne	.L465
	.loc 1 2578 3 view .LVU4617
	.loc 1 2578 30 is_stmt 0 view .LVU4618
	adds	r0, r0, #173
.LVL646:
	.loc 1 2578 28 view .LVU4619
	str	r0, [r1, #8]
	.loc 1 2579 3 is_stmt 1 view .LVU4620
	.loc 1 2579 10 is_stmt 0 view .LVU4621
	mov	r0, r3
.LVL647:
	.loc 1 2579 10 view .LVU4622
	bx	lr
.LVL648:
.L464:
	.loc 1 2561 10 view .LVU4623
	mvn	r0, #15
.LVL649:
	.loc 1 2561 10 view .LVU4624
	bx	lr
.LVL650:
.L465:
	.loc 1 2587 10 view .LVU4625
	mvn	r0, #21
.LVL651:
	.loc 1 2589 1 view .LVU4626
	bx	lr
	.cfi_endproc
.LFE654:
	.size	bt_conn_get_remote_info, .-bt_conn_get_remote_info
	.section	.text.bt_conn_le_get_tx_power_level,"ax",%progbits
	.align	1
	.global	bt_conn_le_get_tx_power_level
	.syntax unified
	.thumb
	.thumb_func
	.type	bt_conn_le_get_tx_power_level, %function
bt_conn_le_get_tx_power_level:
.LVL652:
.LFB656:
	.loc 1 2624 1 is_stmt 1 view -0
	.cfi_startproc
	@ args = 0, pretend = 0, frame = 0
	@ frame_needed = 0, uses_anonymous_args = 0
	.loc 1 2625 2 view .LVU4628
	.loc 1 2627 2 view .LVU4629
	.loc 1 2624 1 is_stmt 0 view .LVU4630
	push	{r3, r4, r5, lr}
	.cfi_def_cfa_offset 16
	.cfi_offset 3, -16
	.cfi_offset 4, -12
	.cfi_offset 5, -8
	.cfi_offset 14, -4
	.loc 1 2624 1 view .LVU4631
	mov	r4, r1
	.loc 1 2627 5 view .LVU4632
	ldrb	r1, [r1]	@ zero_extendqisi2
.LVL653:
	.loc 1 2624 1 view .LVU4633
	mov	r5, r0
	.loc 1 2627 5 view .LVU4634
	cbnz	r1, .L468
	.loc 1 2634 2 is_stmt 1 view .LVU4635
	.loc 1 2634 8 is_stmt 0 view .LVU4636
	adds	r2, r4, #1
	bl	bt_conn_get_tx_power_level
.LVL654:
	.loc 1 2636 2 is_stmt 1 view .LVU4637
	.loc 1 2636 5 is_stmt 0 view .LVU4638
	cbnz	r0, .L466
	.loc 1 2640 2 is_stmt 1 view .LVU4639
	.loc 1 2640 8 is_stmt 0 view .LVU4640
	adds	r2, r4, #2
	mov	r0, r5
.LVL655:
	.loc 1 2640 8 view .LVU4641
	movs	r1, #1
	.loc 1 2643 1 view .LVU4642
	pop	{r3, r4, r5, lr}
	.cfi_remember_state
	.cfi_restore 14
	.cfi_restore 5
	.cfi_restore 4
	.cfi_restore 3
	.cfi_def_cfa_offset 0
.LVL656:
	.loc 1 2640 8 view .LVU4643
	b	bt_conn_get_tx_power_level
.LVL657:
.L468:
	.cfi_restore_state
	.loc 1 2631 10 view .LVU4644
	mvn	r0, #133
.LVL658:
.L466:
	.loc 1 2643 1 view .LVU4645
	pop	{r3, r4, r5, pc}
	.loc 1 2643 1 view .LVU4646
	.cfi_endproc
.LFE656:
	.size	bt_conn_le_get_tx_power_level, .-bt_conn_le_get_tx_power_level
	.section	.text.bt_conn_le_conn_update,"ax",%progbits
	.align	1
	.global	bt_conn_le_conn_update
	.syntax unified
	.thumb
	.thumb_func
	.type	bt_conn_le_conn_update, %function
bt_conn_le_conn_update:
.LVL659:
.LFB658:
	.loc 1 3087 1 is_stmt 1 view -0
	.cfi_startproc
	@ args = 0, pretend = 0, frame = 0
	@ frame_needed = 0, uses_anonymous_args = 0
	.loc 1 3088 2 view .LVU4648
	.loc 1 3089 2 view .LVU4649
	.loc 1 3091 2 view .LVU4650
	.loc 1 3087 1 is_stmt 0 view .LVU4651
	push	{r3, r4, r5, r6, r7, lr}
	.cfi_def_cfa_offset 24
	.cfi_offset 3, -24
	.cfi_offset 4, -20
	.cfi_offset 5, -16
	.cfi_offset 6, -12
	.cfi_offset 7, -8
	.cfi_offset 14, -4
	.loc 1 3087 1 view .LVU4652
	mov	r7, r0
	mov	r5, r1
	.loc 1 3091 8 view .LVU4653
	movw	r0, #8211
.LVL660:
	.loc 1 3091 8 view .LVU4654
	movs	r1, #14
.LVL661:
	.loc 1 3091 8 view .LVU4655
	bl	bt_hci_cmd_create
.LVL662:
	.loc 1 3093 2 is_stmt 1 view .LVU4656
	.loc 1 3093 5 is_stmt 0 view .LVU4657
	mov	r6, r0
	cbz	r0, .L470
	.loc 1 3097 2 is_stmt 1 view .LVU4658
.LVL663:
.LBB2658:
.LBI2658:
	.loc 4 1493 21 view .LVU4659
.LBB2659:
	.loc 4 1495 2 view .LVU4660
	.loc 4 1495 9 is_stmt 0 view .LVU4661
	movs	r1, #14
	adds	r0, r0, #12
.LVL664:
	.loc 4 1495 9 view .LVU4662
	bl	net_buf_simple_add
.LVL665:
.LBE2659:
.LBE2658:
.LBB2661:
.LBB2662:
	.loc 9 86 245 view .LVU4663
	movs	r2, #14
.LBE2662:
.LBE2661:
.LBB2664:
.LBB2660:
	.loc 4 1495 9 view .LVU4664
	mov	r4, r0
.LVL666:
	.loc 4 1495 9 view .LVU4665
.LBE2660:
.LBE2664:
	.loc 1 3098 2 is_stmt 1 view .LVU4666
.LBB2665:
.LBI2661:
	.loc 9 86 189 view .LVU4667
.LBB2663:
	.loc 9 86 238 view .LVU4668
	.loc 9 86 245 is_stmt 0 view .LVU4669
	movs	r1, #0
	bl	memset
.LVL667:
	.loc 9 86 245 view .LVU4670
.LBE2663:
.LBE2665:
	.loc 1 3099 2 is_stmt 1 view .LVU4671
	.loc 1 3099 29 is_stmt 0 view .LVU4672
	ldrh	r3, [r7]
	.loc 1 3099 22 view .LVU4673
	strh	r3, [r4]	@ unaligned
	.loc 1 3100 2 is_stmt 1 view .LVU4674
	.loc 1 3100 41 is_stmt 0 view .LVU4675
	ldrh	r3, [r5]
	.loc 1 3100 33 view .LVU4676
	strh	r3, [r4, #2]	@ unaligned
	.loc 1 3101 2 is_stmt 1 view .LVU4677
	.loc 1 3101 41 is_stmt 0 view .LVU4678
	ldrh	r3, [r5, #2]
	.loc 1 3101 33 view .LVU4679
	strh	r3, [r4, #4]	@ unaligned
	.loc 1 3102 2 is_stmt 1 view .LVU4680
	.loc 1 3102 36 is_stmt 0 view .LVU4681
	ldrh	r3, [r5, #4]
	.loc 1 3102 28 view .LVU4682
	strh	r3, [r4, #6]	@ unaligned
	.loc 1 3103 2 is_stmt 1 view .LVU4683
	.loc 1 3103 43 is_stmt 0 view .LVU4684
	ldrh	r3, [r5, #6]
	.loc 1 3103 35 view .LVU4685
	strh	r3, [r4, #8]	@ unaligned
	.loc 1 3105 2 is_stmt 1 view .LVU4686
	.loc 1 3105 9 is_stmt 0 view .LVU4687
	mov	r1, r6
	movs	r2, #0
	.loc 1 3106 1 view .LVU4688
	pop	{r3, r4, r5, r6, r7, lr}
	.cfi_remember_state
	.cfi_restore 14
	.cfi_restore 7
	.cfi_restore 6
	.cfi_restore 5
	.cfi_restore 4
	.cfi_restore 3
	.cfi_def_cfa_offset 0
.LVL668:
	.loc 1 3105 9 view .LVU4689
	movw	r0, #8211
	b	bt_hci_cmd_send_sync
.LVL669:
.L470:
	.cfi_restore_state
	.loc 1 3106 1 view .LVU4690
	mvn	r0, #104
.LVL670:
	.loc 1 3106 1 view .LVU4691
	pop	{r3, r4, r5, r6, r7, pc}
	.loc 1 3106 1 view .LVU4692
	.cfi_endproc
.LFE658:
	.size	bt_conn_le_conn_update, .-bt_conn_le_conn_update
	.section	.text.send_conn_le_param_update,"ax",%progbits
	.align	1
	.syntax unified
	.thumb
	.thumb_func
	.type	send_conn_le_param_update, %function
send_conn_le_param_update:
.LVL671:
.LFB633:
	.loc 1 1678 1 is_stmt 1 view -0
	.cfi_startproc
	@ args = 0, pretend = 0, frame = 0
	@ frame_needed = 0, uses_anonymous_args = 0
	.loc 1 1679 2 view .LVU4694
.LBB2675:
	.loc 1 1679 7 view .LVU4695
.LBE2675:
	.loc 1 1679 5 view .LVU4696
	.loc 1 1683 2 view .LVU4697
	.loc 1 1678 1 is_stmt 0 view .LVU4698
	push	{r3, r4, r5, lr}
	.cfi_def_cfa_offset 16
	.cfi_offset 3, -16
	.cfi_offset 4, -12
	.cfi_offset 5, -8
	.cfi_offset 14, -4
	.loc 1 1678 1 view .LVU4699
	mov	r4, r0
	.loc 1 1683 7 view .LVU4700
	mov	r0, r1
.LVL672:
	.loc 1 1678 1 view .LVU4701
	mov	r5, r1
	.loc 1 1683 7 view .LVU4702
	bl	bt_le_conn_params_valid
.LVL673:
	.loc 1 1683 5 view .LVU4703
	cbz	r0, .L477
	.loc 1 1690 2 is_stmt 1 view .LVU4704
	.loc 1 1690 26 is_stmt 0 view .LVU4705
	ldr	r3, .L485
	.loc 1 1690 5 view .LVU4706
	ldrb	r3, [r3, #216]	@ zero_extendqisi2
	lsls	r1, r3, #30
	bmi	.L473
.L476:
	.loc 1 1692 70 view .LVU4707
	ldrb	r3, [r4, #3]	@ zero_extendqisi2
	cbz	r3, .L474
	.loc 1 1712 2 is_stmt 1 view .LVU4708
	.loc 1 1712 9 is_stmt 0 view .LVU4709
	mov	r1, r5
	mov	r0, r4
	.loc 1 1713 1 view .LVU4710
	pop	{r3, r4, r5, lr}
	.cfi_remember_state
	.cfi_restore 14
	.cfi_restore 5
	.cfi_restore 4
	.cfi_restore 3
	.cfi_def_cfa_offset 0
.LVL674:
	.loc 1 1712 9 view .LVU4711
	b	bt_l2cap_update_conn_param
.LVL675:
.L473:
	.cfi_restore_state
	.loc 1 1690 59 discriminator 1 view .LVU4712
	ldrb	r3, [r4, #173]	@ zero_extendqisi2
	lsls	r2, r3, #30
	bpl	.L476
.LVL676:
.LBB2676:
.LBI2676:
	.loc 11 131 19 is_stmt 1 view .LVU4713
.LBB2677:
	.loc 11 133 2 view .LVU4714
.LBB2678:
.LBI2678:
	.loc 3 159 28 view .LVU4715
.LBB2679:
	.loc 3 161 2 view .LVU4716
	.loc 3 161 9 is_stmt 0 view .LVU4717
	dmb	ish
	ldr	r3, [r4, #4]
	dmb	ish
.LVL677:
	.loc 3 161 9 view .LVU4718
.LBE2679:
.LBE2678:
	.loc 11 135 2 is_stmt 1 view .LVU4719
	.loc 11 135 2 is_stmt 0 view .LVU4720
.LBE2677:
.LBE2676:
	.loc 1 1691 58 view .LVU4721
	lsls	r3, r3, #21
	bmi	.L476
.L474:
.LBB2680:
	.loc 1 1694 3 is_stmt 1 view .LVU4722
	.loc 1 1696 3 view .LVU4723
	.loc 1 1696 8 is_stmt 0 view .LVU4724
	mov	r1, r5
	mov	r0, r4
	bl	bt_conn_le_conn_update
.LVL678:
	.loc 1 1699 3 is_stmt 1 view .LVU4725
	.loc 1 1699 6 is_stmt 0 view .LVU4726
	cbnz	r0, .L471
	.loc 1 1700 4 is_stmt 1 view .LVU4727
	.loc 1 1700 33 is_stmt 0 view .LVU4728
	ldrh	r3, [r5]
	.loc 1 1700 26 view .LVU4729
	strh	r3, [r4, #160]	@ movhi
	.loc 1 1701 4 is_stmt 1 view .LVU4730
	.loc 1 1701 33 is_stmt 0 view .LVU4731
	ldrh	r3, [r5, #2]
	.loc 1 1701 26 view .LVU4732
	strh	r3, [r4, #162]	@ movhi
	.loc 1 1702 4 is_stmt 1 view .LVU4733
	.loc 1 1702 36 is_stmt 0 view .LVU4734
	ldrh	r3, [r5, #4]
	.loc 1 1702 29 view .LVU4735
	strh	r3, [r4, #168]	@ movhi
	.loc 1 1703 4 is_stmt 1 view .LVU4736
	.loc 1 1703 36 is_stmt 0 view .LVU4737
	ldrh	r3, [r5, #6]
	.loc 1 1703 29 view .LVU4738
	strh	r3, [r4, #170]	@ movhi
.LVL679:
.L471:
	.loc 1 1703 29 view .LVU4739
.LBE2680:
	.loc 1 1713 1 view .LVU4740
	pop	{r3, r4, r5, pc}
.LVL680:
.L477:
	.loc 1 1684 10 view .LVU4741
	mvn	r0, #21
	b	.L471
.L486:
	.align	2
.L485:
	.word	bt_dev
	.cfi_endproc
.LFE633:
	.size	send_conn_le_param_update, .-send_conn_le_param_update
	.section	.rodata.deferred_work.str1.1,"aMS",%progbits,1
.LC17:
	.ascii	"Send LE param update failed (err %d)\000"
.LC18:
	.ascii	"Send auto LE param update failed (err %d)\000"
	.section	.text.deferred_work,"ax",%progbits
	.align	1
	.syntax unified
	.thumb
	.thumb_func
	.type	deferred_work, %function
deferred_work:
.LVL681:
.LFB634:
	.loc 1 1739 1 is_stmt 1 view -0
	.cfi_startproc
	@ args = 0, pretend = 0, frame = 8
	@ frame_needed = 1, uses_anonymous_args = 0
	.loc 1 1740 2 view .LVU4743
	.loc 1 1741 2 view .LVU4744
	.loc 1 1739 1 is_stmt 0 view .LVU4745
	push	{r4, r5, r6, r7, r8, lr}
	.cfi_def_cfa_offset 24
	.cfi_offset 4, -24
	.cfi_offset 5, -20
	.cfi_offset 6, -16
	.cfi_offset 7, -12
	.cfi_offset 8, -8
	.cfi_offset 14, -4
	sub	sp, sp, #8
	.cfi_def_cfa_offset 32
	.loc 1 1746 5 view .LVU4746
	ldrb	r3, [r0, #-75]	@ zero_extendqisi2
	.loc 1 1739 1 view .LVU4747
	add	r7, sp, #0
	.cfi_def_cfa_register 7
	.loc 1 1739 1 view .LVU4748
	mov	r4, r0
	.loc 1 1741 18 view .LVU4749
	sub	r6, r0, #88
.LVL682:
	.loc 1 1742 2 is_stmt 1 view .LVU4750
	.loc 1 1744 2 view .LVU4751
.LBB2719:
	.loc 1 1744 7 view .LVU4752
.LBE2719:
	.loc 1 1744 5 view .LVU4753
	.loc 1 1746 2 view .LVU4754
	.loc 1 1746 5 is_stmt 0 view .LVU4755
	cbnz	r3, .L488
	.loc 1 1779 3 is_stmt 1 view .LVU4756
	mov	r0, r6
.LVL683:
	.loc 1 1779 3 is_stmt 0 view .LVU4757
	bl	bt_l2cap_disconnected
.LVL684:
	.loc 1 1780 3 is_stmt 1 view .LVU4758
.LBB2720:
.LBI2720:
	.loc 1 1527 13 view .LVU4759
.LBB2721:
	.loc 1 1529 2 view .LVU4760
.LBB2722:
	.loc 1 1529 7 view .LVU4761
	.loc 1 1529 26 is_stmt 0 view .LVU4762
	ldr	r3, .L511
	ldr	r5, [r3]
.LVL685:
.L489:
	.loc 1 1529 46 is_stmt 1 view .LVU4763
	cbnz	r5, .L491
	.loc 1 1529 46 is_stmt 0 view .LVU4764
.LBE2722:
.LBB2723:
	.loc 1 1535 127 view .LVU4765
	ldr	r5, .L511+4
.LVL686:
	.loc 1 1535 156 view .LVU4766
	ldr	r8, .L511+28
.L492:
.LVL687:
	.loc 1 1535 156 is_stmt 1 view .LVU4767
	cmp	r5, r8
	bcc	.L494
.LVL688:
	.loc 1 1535 156 is_stmt 0 view .LVU4768
.LBE2723:
.LBE2721:
.LBE2720:
	.loc 1 1785 3 is_stmt 1 view .LVU4769
	mov	r0, r6
	bl	bt_conn_unref
.LVL689:
	.loc 1 1786 3 view .LVU4770
.L487:
	.loc 1 1842 1 is_stmt 0 view .LVU4771
	adds	r7, r7, #8
	.cfi_remember_state
	.cfi_def_cfa_offset 24
	mov	sp, r7
	.cfi_def_cfa_register 13
	@ sp needed
	pop	{r4, r5, r6, r7, r8, pc}
.LVL690:
.L491:
	.cfi_restore_state
.LBB2727:
.LBB2726:
.LBB2724:
	.loc 1 1530 3 is_stmt 1 view .LVU4772
	.loc 1 1530 9 is_stmt 0 view .LVU4773
	ldr	r3, [r5, #4]
	.loc 1 1530 6 view .LVU4774
	cbz	r3, .L490
	.loc 1 1531 4 is_stmt 1 view .LVU4775
	ldrb	r1, [r4, #-76]	@ zero_extendqisi2
	mov	r0, r6
	blx	r3
.LVL691:
.L490:
	.loc 1 1529 53 view .LVU4776
	ldr	r5, [r5, #24]
.LVL692:
	.loc 1 1529 53 is_stmt 0 view .LVU4777
	b	.L489
.LVL693:
.L494:
	.loc 1 1529 53 view .LVU4778
.LBE2724:
.LBB2725:
	.loc 1 1536 3 is_stmt 1 view .LVU4779
	.loc 1 1536 9 is_stmt 0 view .LVU4780
	ldr	r3, [r5, #4]
	.loc 1 1536 6 view .LVU4781
	cbz	r3, .L493
	.loc 1 1537 4 is_stmt 1 view .LVU4782
	ldrb	r1, [r4, #-76]	@ zero_extendqisi2
	mov	r0, r6
	blx	r3
.LVL694:
.L493:
	.loc 1 1535 197 view .LVU4783
	adds	r5, r5, #28
.LVL695:
	.loc 1 1535 197 is_stmt 0 view .LVU4784
	b	.L492
.LVL696:
.L488:
	.loc 1 1535 197 view .LVU4785
.LBE2725:
.LBE2726:
.LBE2727:
	.loc 1 1789 2 is_stmt 1 view .LVU4786
	.loc 1 1789 5 is_stmt 0 view .LVU4787
	ldrb	r3, [r0, #-86]	@ zero_extendqisi2
	cmp	r3, #1
	bne	.L487
	.loc 1 1793 2 is_stmt 1 view .LVU4788
	.loc 1 1804 2 view .LVU4789
	.loc 1 1804 36 is_stmt 0 view .LVU4790
	sub	r5, r0, #84
.LVL697:
.LBB2728:
.LBI2728:
	.loc 11 152 19 is_stmt 1 view .LVU4791
.LBB2729:
	.loc 11 154 2 view .LVU4792
	.loc 11 155 2 view .LVU4793
	.loc 11 157 2 view .LVU4794
	.loc 11 157 8 is_stmt 0 view .LVU4795
	mvn	r1, #512
	mov	r0, r5
.LVL698:
	.loc 11 157 8 view .LVU4796
	bl	atomic_and
.LVL699:
	.loc 11 159 2 is_stmt 1 view .LVU4797
	.loc 11 159 2 is_stmt 0 view .LVU4798
.LBE2729:
.LBE2728:
	.loc 1 1804 5 view .LVU4799
	lsls	r1, r0, #22
	bpl	.L496
.LBB2730:
	.loc 1 1806 3 is_stmt 1 view .LVU4800
	.loc 1 1808 3 view .LVU4801
	.loc 1 1808 40 is_stmt 0 view .LVU4802
	ldr	r3, [r4, #72]
	str	r3, [r7]
	ldr	r3, [r4, #80]
	str	r3, [r7, #4]
.LVL700:
	.loc 1 1813 3 is_stmt 1 view .LVU4803
	.loc 1 1813 9 is_stmt 0 view .LVU4804
	mov	r1, r7
.LVL701:
	.loc 1 1813 9 view .LVU4805
	mov	r0, r6
	bl	send_conn_le_param_update
.LVL702:
	.loc 1 1814 3 is_stmt 1 view .LVU4806
	.loc 1 1814 6 is_stmt 0 view .LVU4807
	cbnz	r0, .L497
	.loc 1 1815 4 is_stmt 1 view .LVU4808
.LVL703:
.LBB2731:
.LBI2731:
	.loc 11 198 20 view .LVU4809
.LBB2732:
	.loc 11 200 2 view .LVU4810
	.loc 11 202 2 view .LVU4811
	.loc 11 202 8 is_stmt 0 view .LVU4812
	mvn	r1, #256
	mov	r0, r5
.LVL704:
	.loc 11 202 8 view .LVU4813
	bl	atomic_and
.LVL705:
.L499:
	.loc 11 202 8 view .LVU4814
.LBE2732:
.LBE2731:
.LBE2730:
	.loc 1 1841 2 is_stmt 1 view .LVU4815
.LBB2746:
.LBI2746:
	.loc 11 217 20 view .LVU4816
.LBB2747:
	.loc 11 219 2 view .LVU4817
	.loc 11 221 2 view .LVU4818
.LBB2748:
.LBI2748:
	.loc 3 279 28 view .LVU4819
.LBB2749:
	.loc 3 281 2 view .LVU4820
	.loc 3 281 9 is_stmt 0 view .LVU4821
	dmb	ish
.L508:
	.loc 3 281 9 view .LVU4822
	ldrex	r3, [r5]
	orr	r3, r3, #128
	strex	r2, r3, [r5]
	cmp	r2, #0
	bne	.L508
	dmb	ish
.LVL706:
	.loc 3 281 9 view .LVU4823
	b	.L487
.LVL707:
.L497:
	.loc 3 281 9 view .LVU4824
.LBE2749:
.LBE2748:
.LBE2747:
.LBE2746:
.LBB2750:
	.loc 1 1818 4 is_stmt 1 view .LVU4825
.LBB2733:
	.loc 1 1818 9 view .LVU4826
	.loc 1 1818 58 view .LVU4827
	.loc 1 1818 15 view .LVU4828
	.loc 1 1818 3 view .LVU4829
	.loc 1 1818 42 view .LVU4830
	.loc 1 1818 177 view .LVU4831
	.loc 1 1818 188 view .LVU4832
	.loc 1 1818 276 view .LVU4833
.LBB2734:
	.loc 1 1818 4 view .LVU4834
	.loc 1 1818 6 view .LVU4835
	.loc 1 1818 4 view .LVU4836
.LBB2735:
	.loc 1 1818 9 view .LVU4837
	.loc 1 1818 3 view .LVU4838
.LBE2735:
.LBE2734:
.LBE2733:
.LBE2750:
	.loc 1 1818 4 view .LVU4839
	.loc 1 1818 13 view .LVU4840
	.loc 1 1818 108 view .LVU4841
	.loc 1 1818 4 view .LVU4842
.LBB2751:
.LBB2744:
.LBB2742:
.LBB2740:
	.loc 1 1818 13 view .LVU4843
	.loc 1 1818 103 view .LVU4844
	.loc 1 1818 105 view .LVU4845
.LBB2736:
	.loc 1 1818 108 is_stmt 0 view .LVU4846
	mov	r4, sp
.LVL708:
	.loc 1 1818 110 is_stmt 1 view .LVU4847
	.loc 1 1818 121 view .LVU4848
	.loc 1 1818 210 view .LVU4849
	.loc 1 1818 27 view .LVU4850
.LBE2736:
.LBE2740:
.LBE2742:
.LBE2744:
.LBE2751:
	.loc 1 1818 4 view .LVU4851
	.loc 1 1818 369 view .LVU4852
	.loc 1 1818 76 view .LVU4853
	.loc 1 1818 3 view .LVU4854
	.loc 1 1818 3 view .LVU4855
	.loc 1 1818 3 view .LVU4856
	.loc 1 1818 39 view .LVU4857
	.loc 1 1818 5 view .LVU4858
	.loc 1 1818 31 view .LVU4859
	.loc 1 1818 57 view .LVU4860
	.loc 1 1818 524 view .LVU4861
	.loc 1 1818 586 view .LVU4862
	.loc 1 1818 1107 view .LVU4863
	.loc 1 1818 1172 view .LVU4864
	.loc 1 1818 1197 view .LVU4865
	.loc 1 1818 1198 view .LVU4866
	.loc 1 1818 1200 view .LVU4867
	.loc 1 1818 1230 view .LVU4868
	.loc 1 1818 1260 view .LVU4869
	.loc 1 1818 1292 view .LVU4870
	.loc 1 1818 1324 view .LVU4871
	.loc 1 1818 1356 view .LVU4872
	.loc 1 1818 1553 view .LVU4873
	.loc 1 1818 1577 view .LVU4874
	.loc 1 1818 1578 view .LVU4875
	.loc 1 1818 1580 view .LVU4876
	.loc 1 1818 1609 view .LVU4877
	.loc 1 1818 1638 view .LVU4878
	.loc 1 1818 1669 view .LVU4879
	.loc 1 1818 1700 view .LVU4880
	.loc 1 1818 1731 view .LVU4881
	.loc 1 1818 1938 view .LVU4882
	.loc 1 1818 5 view .LVU4883
	.loc 1 1818 23 view .LVU4884
	.loc 1 1818 43 view .LVU4885
	.loc 1 1818 5 view .LVU4886
	.loc 1 1818 43 view .LVU4887
	.loc 1 1818 14 view .LVU4888
	.loc 1 1818 14 view .LVU4889
	.loc 1 1818 62 view .LVU4890
	.loc 1 1818 93 view .LVU4891
	.loc 1 1818 127 view .LVU4892
	.loc 1 1818 132 view .LVU4893
	.loc 1 1818 392 view .LVU4894
	.loc 1 1818 1485 view .LVU4895
	.loc 1 1818 1550 view .LVU4896
	.loc 1 1818 1574 view .LVU4897
	.loc 1 1818 1638 view .LVU4898
	.loc 1 1818 1649 view .LVU4899
	.loc 1 1818 1771 view .LVU4900
	.loc 1 1818 1787 view .LVU4901
	.loc 1 1818 1827 view .LVU4902
	.loc 1 1818 1852 view .LVU4903
	.loc 1 1818 3161 view .LVU4904
	.loc 1 1818 3202 view .LVU4905
	.loc 1 1818 8 view .LVU4906
	.loc 1 1818 31 view .LVU4907
	.loc 1 1818 130 view .LVU4908
	.loc 1 1818 7 view .LVU4909
	.loc 1 1818 12 view .LVU4910
	.loc 1 1818 237 view .LVU4911
	.loc 1 1818 1190 view .LVU4912
	.loc 1 1818 1255 view .LVU4913
	.loc 1 1818 1279 view .LVU4914
	.loc 1 1818 1308 view .LVU4915
	.loc 1 1818 1319 view .LVU4916
	.loc 1 1818 1406 view .LVU4917
	.loc 1 1818 1422 view .LVU4918
	.loc 1 1818 1462 view .LVU4919
	.loc 1 1818 2726 view .LVU4920
	.loc 1 1818 2767 view .LVU4921
	.loc 1 1818 8 view .LVU4922
	.loc 1 1818 31 view .LVU4923
	.loc 1 1818 10 view .LVU4924
	.loc 1 1818 6 view .LVU4925
	.loc 1 1818 29 view .LVU4926
	.loc 1 1818 53 view .LVU4927
	.loc 1 1818 81 view .LVU4928
	.loc 1 1818 257 view .LVU4929
	.loc 1 1818 17 view .LVU4930
.LBB2752:
.LBB2745:
.LBB2743:
.LBB2741:
.LBB2739:
	.loc 1 1818 30 view .LVU4931
	.loc 1 1818 4 view .LVU4932
	.loc 1 1818 4 view .LVU4933
	.loc 1 1818 71 view .LVU4934
	.loc 1 1818 83 is_stmt 0 view .LVU4935
	sub	sp, sp, #32
	mov	r2, sp
.LVL709:
	.loc 1 1818 75 is_stmt 1 view .LVU4936
	.loc 1 1818 485 view .LVU4937
	.loc 1 1818 6 view .LVU4938
	.loc 1 1818 8 view .LVU4939
	.loc 1 1818 13 view .LVU4940
	.loc 1 1818 11 view .LVU4941
	.loc 1 1818 6 view .LVU4942
	.loc 1 1818 24 view .LVU4943
.LBB2737:
	.loc 1 1818 4 view .LVU4944
	.loc 1 1818 369 view .LVU4945
	.loc 1 1818 76 view .LVU4946
.LVL710:
	.loc 1 1818 3 view .LVU4947
	.loc 1 1818 3 view .LVU4948
	.loc 1 1818 3 view .LVU4949
	.loc 1 1818 39 view .LVU4950
	.loc 1 1818 68 view .LVU4951
	.loc 1 1818 94 view .LVU4952
	.loc 1 1818 120 view .LVU4953
	.loc 1 1818 587 view .LVU4954
	.loc 1 1818 649 view .LVU4955
	.loc 1 1818 1170 view .LVU4956
	.loc 1 1818 1235 view .LVU4957
	.loc 1 1818 1260 view .LVU4958
	.loc 1 1818 1261 view .LVU4959
	.loc 1 1818 1263 view .LVU4960
	.loc 1 1818 1293 view .LVU4961
	.loc 1 1818 1323 view .LVU4962
	.loc 1 1818 1355 view .LVU4963
	.loc 1 1818 1387 view .LVU4964
	.loc 1 1818 1419 view .LVU4965
	.loc 1 1818 1616 view .LVU4966
	.loc 1 1818 1640 view .LVU4967
	.loc 1 1818 1641 view .LVU4968
	.loc 1 1818 1643 view .LVU4969
	.loc 1 1818 1672 view .LVU4970
	.loc 1 1818 1701 view .LVU4971
	.loc 1 1818 1732 view .LVU4972
	.loc 1 1818 1763 view .LVU4973
	.loc 1 1818 1794 view .LVU4974
	.loc 1 1818 2001 view .LVU4975
.LBB2738:
	.loc 1 1818 3199 view .LVU4976
	.loc 1 1818 3204 view .LVU4977
	.loc 1 1818 3858 view .LVU4978
	.loc 1 1818 0 is_stmt 0 view .LVU4979
	ldr	r3, .L511+8
.LVL711:
.L510:
	.loc 1 1818 0 view .LVU4980
.LBE2738:
.LBE2737:
.LBE2739:
.LBE2741:
.LBE2743:
.LBE2745:
.LBE2752:
.LBB2753:
.LBB2754:
.LBB2755:
.LBB2756:
.LBB2757:
.LBB2758:
.LBB2759:
	.loc 1 1835 3812 view .LVU4981
	strd	r3, r0, [r2, #20]
	.loc 1 1835 2767 is_stmt 1 view .LVU4982
	.loc 1 1835 8 view .LVU4983
.LVL712:
	.loc 1 1835 31 view .LVU4984
	.loc 1 1835 31 is_stmt 0 view .LVU4985
.LBE2759:
	.loc 1 1835 10 is_stmt 1 view .LVU4986
	.loc 1 1835 6 view .LVU4987
	.loc 1 1835 29 view .LVU4988
	.loc 1 1835 53 view .LVU4989
	.loc 1 1835 81 view .LVU4990
.LBE2758:
.LBE2757:
.LBE2756:
.LBE2755:
.LBE2754:
.LBE2753:
	.loc 1 1835 7 view .LVU4991
	.loc 1 1835 46 view .LVU4992
	.loc 1 1835 51 view .LVU4993
	.loc 1 1835 81 view .LVU4994
	.loc 1 1835 148 view .LVU4995
	.loc 1 1835 153 view .LVU4996
	.loc 1 1835 183 view .LVU4997
.LBB2784:
.LBB2775:
.LBB2771:
.LBB2767:
.LBB2764:
.LBB2762:
	.loc 1 1835 257 view .LVU4998
	.loc 1 1835 17 view .LVU4999
.LBB2760:
	.loc 1 1835 7 view .LVU5000
	.loc 1 1835 165 view .LVU5001
	.loc 1 1835 167 view .LVU5002
	.loc 1 1835 177 is_stmt 0 view .LVU5003
	movs	r3, #3
	str	r3, [r2, #16]!
.LVL713:
	.loc 1 1835 177 view .LVU5004
.LBE2760:
.LBE2762:
	.loc 1 1835 27 is_stmt 1 view .LVU5005
	.loc 1 1835 8 view .LVU5006
	.loc 1 1835 148 view .LVU5007
	.loc 1 1835 150 view .LVU5008
	ldr	r0, .L511+12
	mov	r1, #6272
	bl	z_log_msg_static_create.constprop.0
.LVL714:
	.loc 1 1835 150 is_stmt 0 view .LVU5009
	mov	sp, r4
.LBE2764:
	.loc 1 1835 108 is_stmt 1 view .LVU5010
	.loc 1 1835 6 view .LVU5011
.LVL715:
	.loc 1 1835 43 view .LVU5012
.LBE2767:
	.loc 1 1835 7 view .LVU5013
.LBE2771:
	.loc 1 1835 279 view .LVU5014
	.loc 1 1835 6 view .LVU5015
	.loc 1 1835 19 view .LVU5016
.LBE2775:
	.loc 1 1835 7 view .LVU5017
.LBB2776:
	b	.L499
.LVL716:
.L496:
	.loc 1 1835 7 is_stmt 0 view .LVU5018
.LBE2776:
.LBE2784:
	.loc 1 1820 9 is_stmt 1 view .LVU5019
.LBB2785:
	.loc 1 1822 3 view .LVU5020
	.loc 1 1824 3 view .LVU5021
	.loc 1 1824 40 is_stmt 0 view .LVU5022
	ldr	r2, .L511+16
	ldr	r3, .L511+20
	.loc 1 1830 9 view .LVU5023
	mov	r1, r7
	.loc 1 1824 40 view .LVU5024
	strd	r2, r3, [r7]
.LVL717:
	.loc 1 1830 3 is_stmt 1 view .LVU5025
	.loc 1 1830 9 is_stmt 0 view .LVU5026
	mov	r0, r6
	bl	send_conn_le_param_update
.LVL718:
	.loc 1 1831 3 is_stmt 1 view .LVU5027
	.loc 1 1831 6 is_stmt 0 view .LVU5028
	cbnz	r0, .L500
	.loc 1 1832 4 is_stmt 1 view .LVU5029
.LVL719:
.LBB2777:
.LBI2777:
	.loc 11 217 20 view .LVU5030
.LBB2778:
	.loc 11 219 2 view .LVU5031
	.loc 11 221 2 view .LVU5032
.LBB2779:
.LBI2779:
	.loc 3 279 28 view .LVU5033
.LBB2780:
	.loc 3 281 2 view .LVU5034
	.loc 3 281 9 is_stmt 0 view .LVU5035
	dmb	ish
.L509:
	.loc 3 281 9 view .LVU5036
	ldrex	r3, [r5]
	orr	r3, r3, #256
	strex	r2, r3, [r5]
	cmp	r2, #0
	bne	.L509
	dmb	ish
	b	.L499
.LVL720:
.L500:
	.loc 3 281 9 view .LVU5037
.LBE2780:
.LBE2779:
.LBE2778:
.LBE2777:
	.loc 1 1835 4 is_stmt 1 view .LVU5038
.LBB2781:
	.loc 1 1835 9 view .LVU5039
	.loc 1 1835 58 view .LVU5040
	.loc 1 1835 15 view .LVU5041
	.loc 1 1835 3 view .LVU5042
	.loc 1 1835 42 view .LVU5043
	.loc 1 1835 177 view .LVU5044
	.loc 1 1835 188 view .LVU5045
	.loc 1 1835 276 view .LVU5046
.LBB2772:
	.loc 1 1835 4 view .LVU5047
	.loc 1 1835 6 view .LVU5048
	.loc 1 1835 4 view .LVU5049
.LBB2768:
	.loc 1 1835 9 view .LVU5050
	.loc 1 1835 3 view .LVU5051
.LBE2768:
.LBE2772:
.LBE2781:
.LBE2785:
	.loc 1 1835 4 view .LVU5052
	.loc 1 1835 13 view .LVU5053
	.loc 1 1835 108 view .LVU5054
	.loc 1 1835 4 view .LVU5055
.LBB2786:
.LBB2782:
.LBB2773:
.LBB2769:
	.loc 1 1835 13 view .LVU5056
	.loc 1 1835 103 view .LVU5057
	.loc 1 1835 105 view .LVU5058
.LBB2765:
	.loc 1 1835 108 is_stmt 0 view .LVU5059
	mov	r4, sp
.LVL721:
	.loc 1 1835 110 is_stmt 1 view .LVU5060
	.loc 1 1835 121 view .LVU5061
	.loc 1 1835 210 view .LVU5062
	.loc 1 1835 27 view .LVU5063
.LBE2765:
.LBE2769:
.LBE2773:
.LBE2782:
.LBE2786:
	.loc 1 1835 4 view .LVU5064
	.loc 1 1835 369 view .LVU5065
	.loc 1 1835 76 view .LVU5066
	.loc 1 1835 3 view .LVU5067
	.loc 1 1835 3 view .LVU5068
	.loc 1 1835 3 view .LVU5069
	.loc 1 1835 39 view .LVU5070
	.loc 1 1835 5 view .LVU5071
	.loc 1 1835 31 view .LVU5072
	.loc 1 1835 57 view .LVU5073
	.loc 1 1835 524 view .LVU5074
	.loc 1 1835 586 view .LVU5075
	.loc 1 1835 1107 view .LVU5076
	.loc 1 1835 1172 view .LVU5077
	.loc 1 1835 1197 view .LVU5078
	.loc 1 1835 1198 view .LVU5079
	.loc 1 1835 1200 view .LVU5080
	.loc 1 1835 1230 view .LVU5081
	.loc 1 1835 1260 view .LVU5082
	.loc 1 1835 1292 view .LVU5083
	.loc 1 1835 1324 view .LVU5084
	.loc 1 1835 1356 view .LVU5085
	.loc 1 1835 1553 view .LVU5086
	.loc 1 1835 1577 view .LVU5087
	.loc 1 1835 1578 view .LVU5088
	.loc 1 1835 1580 view .LVU5089
