	.cpu cortex-m4
	.arch armv7e-m
	.fpu fpv4-sp-d16
	.eabi_attribute 27, 1
	.eabi_attribute 28, 1
	.eabi_attribute 20, 1
	.eabi_attribute 21, 1
	.eabi_attribute 23, 3
	.eabi_attribute 24, 1
	.eabi_attribute 25, 1
	.eabi_attribute 26, 1
	.eabi_attribute 30, 4
	.eabi_attribute 34, 1
	.eabi_attribute 38, 1
	.eabi_attribute 18, 4
	.file	"gatt.c"
	.text
.Ltext0:
	.cfi_sections	.debug_frame
	.file 1 "/home/g/mise-work/zmk-firmware/zmk/zephyr/subsys/bluetooth/host/gatt.c"
	.section	.text.find_next,"ax",%progbits
	.align	1
	.syntax unified
	.thumb
	.thumb_func
	.type	find_next, %function
find_next:
.LVL0:
.LFB655:
	.loc 1 2034 1 view -0
	.cfi_startproc
	@ args = 0, pretend = 0, frame = 0
	@ frame_needed = 0, uses_anonymous_args = 0
	@ link register save eliminated.
	.loc 1 2035 2 view .LVU1
	.loc 1 2037 2 view .LVU2
	.loc 1 2037 8 is_stmt 0 view .LVU3
	str	r0, [r2]
	.loc 1 2039 2 is_stmt 1 view .LVU4
	.loc 1 2040 1 is_stmt 0 view .LVU5
	movs	r0, #0
.LVL1:
	.loc 1 2040 1 view .LVU6
	bx	lr
	.cfi_endproc
.LFE655:
	.size	find_next, .-find_next
	.section	.text.gatt_ccc_changed,"ax",%progbits
	.align	1
	.syntax unified
	.thumb
	.thumb_func
	.type	gatt_ccc_changed, %function
gatt_ccc_changed:
.LVL2:
.LFB659:
	.loc 1 2093 1 is_stmt 1 view -0
	.cfi_startproc
	@ args = 0, pretend = 0, frame = 0
	@ frame_needed = 0, uses_anonymous_args = 0
	@ link register save eliminated.
	.loc 1 2094 2 view .LVU8
	.loc 1 2095 2 view .LVU9
	.loc 1 2097 2 view .LVU10
	.loc 1 2097 16 view .LVU11
	.loc 1 2098 3 view .LVU12
	.loc 1 2097 195 view .LVU13
	.loc 1 2097 16 view .LVU14
	.loc 1 2098 3 view .LVU15
	.loc 1 2097 195 view .LVU16
	.loc 1 2097 16 view .LVU17
	.loc 1 2098 3 view .LVU18
	.loc 1 2097 195 view .LVU19
	.loc 1 2097 16 view .LVU20
	.loc 1 2098 3 view .LVU21
	.loc 1 2097 195 view .LVU22
	.loc 1 2097 16 view .LVU23
	.loc 1 2098 3 view .LVU24
	.loc 1 2093 1 is_stmt 0 view .LVU25
	mov	r3, r1
	ldrh	r1, [r1, #18]
.LVL3:
	.loc 1 2093 1 view .LVU26
	ldrh	r2, [r3, #28]
	cmp	r1, r2
	it	cc
	movcc	r1, r2
	ldrh	r2, [r3, #38]
	cmp	r1, r2
	it	cc
	movcc	r1, r2
	ldrh	r2, [r3, #48]
	cmp	r1, r2
	it	cc
	movcc	r1, r2
	ldrh	r2, [r3, #8]
	cmp	r1, r2
	it	cc
	movcc	r1, r2
.LVL4:
	.loc 1 2097 195 is_stmt 1 view .LVU27
	.loc 1 2097 16 view .LVU28
	.loc 1 2103 2 view .LVU29
.LBB2489:
	.loc 1 2103 7 view .LVU30
.LBE2489:
	.loc 1 2103 5 view .LVU31
	.loc 1 2105 2 view .LVU32
	.loc 1 2105 5 is_stmt 0 view .LVU33
	ldrh	r2, [r3, #50]
	cmp	r2, r1
	beq	.L2
	.loc 1 2106 3 is_stmt 1 view .LVU34
	.loc 1 2106 14 is_stmt 0 view .LVU35
	strh	r1, [r3, #50]	@ movhi
	.loc 1 2107 3 is_stmt 1 view .LVU36
	.loc 1 2107 10 is_stmt 0 view .LVU37
	ldr	r3, [r3, #52]
.LVL5:
	.loc 1 2107 6 view .LVU38
	cbz	r3, .L2
	.loc 1 2108 4 is_stmt 1 view .LVU39
	bx	r3	@ indirect register sibling call
.LVL6:
.L2:
	.loc 1 2111 1 is_stmt 0 view .LVU40
	bx	lr
	.cfi_endproc
.LFE659:
	.size	gatt_ccc_changed, .-gatt_ccc_changed
	.section	.text.gatt_indicate_rsp,"ax",%progbits
	.align	1
	.syntax unified
	.thumb
	.thumb_func
	.type	gatt_indicate_rsp, %function
gatt_indicate_rsp:
.LVL7:
.LFB665:
	.loc 1 2477 1 is_stmt 1 view -0
	.cfi_startproc
	@ args = 4, pretend = 0, frame = 0
	@ frame_needed = 0, uses_anonymous_args = 0
	.loc 1 2478 2 view .LVU42
	.loc 1 2477 1 is_stmt 0 view .LVU43
	push	{r4, lr}
	.cfi_def_cfa_offset 8
	.cfi_offset 4, -8
	.cfi_offset 14, -4
	.loc 1 2477 1 view .LVU44
	ldr	r4, [sp, #8]
.LVL8:
	.loc 1 2480 2 is_stmt 1 view .LVU45
	.loc 1 2480 12 is_stmt 0 view .LVU46
	ldr	r3, [r4, #8]
.LVL9:
	.loc 1 2477 1 view .LVU47
	mov	r2, r1
.LVL10:
	.loc 1 2480 5 view .LVU48
	cbz	r3, .L10
	.loc 1 2481 3 is_stmt 1 view .LVU49
	mov	r1, r4
.LVL11:
	.loc 1 2481 3 is_stmt 0 view .LVU50
	blx	r3
.LVL12:
.L10:
	.loc 1 2484 2 is_stmt 1 view .LVU51
	.loc 1 2484 14 is_stmt 0 view .LVU52
	ldrb	r3, [r4, #22]	@ zero_extendqisi2
	.loc 1 2485 12 view .LVU53
	ldr	r2, [r4, #12]
	.loc 1 2484 14 view .LVU54
	subs	r3, r3, #1
	uxtb	r3, r3
	strb	r3, [r4, #22]
	.loc 1 2485 2 is_stmt 1 view .LVU55
	.loc 1 2485 5 is_stmt 0 view .LVU56
	cbz	r2, .L9
	.loc 1 2485 22 discriminator 1 view .LVU57
	cbnz	r3, .L9
	.loc 1 2486 3 is_stmt 1 view .LVU58
	mov	r0, r4
	.loc 1 2488 1 is_stmt 0 view .LVU59
	pop	{r4, lr}
	.cfi_remember_state
	.cfi_restore 14
	.cfi_restore 4
	.cfi_def_cfa_offset 0
.LVL13:
	.loc 1 2486 3 view .LVU60
	bx	r2	@ indirect register sibling call
.LVL14:
.L9:
	.cfi_restore_state
	.loc 1 2488 1 view .LVU61
	pop	{r4, pc}
	.loc 1 2488 1 view .LVU62
	.cfi_endproc
.LFE665:
	.size	gatt_indicate_rsp, .-gatt_indicate_rsp
	.section	.text.match_uuid,"ax",%progbits
	.align	1
	.syntax unified
	.thumb
	.thumb_func
	.type	match_uuid, %function
match_uuid:
.LVL15:
.LFB669:
	.loc 1 2747 1 is_stmt 1 view -0
	.cfi_startproc
	@ args = 0, pretend = 0, frame = 0
	@ frame_needed = 0, uses_anonymous_args = 0
	@ link register save eliminated.
	.loc 1 2748 2 view .LVU64
	.loc 1 2750 2 view .LVU65
	.loc 1 2750 13 is_stmt 0 view .LVU66
	str	r0, [r2]
	.loc 1 2751 2 is_stmt 1 view .LVU67
	.loc 1 2751 15 is_stmt 0 view .LVU68
	strh	r1, [r2, #4]	@ movhi
	.loc 1 2753 2 is_stmt 1 view .LVU69
	.loc 1 2754 1 is_stmt 0 view .LVU70
	movs	r0, #0
.LVL16:
	.loc 1 2754 1 view .LVU71
	bx	lr
	.cfi_endproc
.LFE669:
	.size	match_uuid, .-match_uuid
	.section	.text.ccc_set_cb,"ax",%progbits
	.align	1
	.syntax unified
	.thumb
	.thumb_func
	.type	ccc_set_cb, %function
ccc_set_cb:
.LVL17:
.LFB688:
	.loc 1 5635 1 is_stmt 1 view -0
	.cfi_startproc
	@ args = 0, pretend = 0, frame = 0
	@ frame_needed = 0, uses_anonymous_args = 0
	@ link register save eliminated.
	.loc 1 5636 2 view .LVU73
	.loc 1 5638 3 view .LVU74
	.loc 1 5642 1 is_stmt 0 view .LVU75
	movs	r0, #0
.LVL18:
	.loc 1 5642 1 view .LVU76
	bx	lr
	.cfi_endproc
.LFE688:
	.size	ccc_set_cb, .-ccc_set_cb
	.section	.text.gen_hash_m,"ax",%progbits
	.align	1
	.syntax unified
	.thumb
	.thumb_func
	.type	gen_hash_m, %function
gen_hash_m:
.LVL19:
.LFB620:
	.loc 1 737 1 is_stmt 1 view -0
	.cfi_startproc
	@ args = 0, pretend = 0, frame = 24
	@ frame_needed = 0, uses_anonymous_args = 0
	.loc 1 738 2 view .LVU78
	.loc 1 737 1 is_stmt 0 view .LVU79
	push	{r4, r5, r6, r7, lr}
	.cfi_def_cfa_offset 20
	.cfi_offset 4, -20
	.cfi_offset 5, -16
	.cfi_offset 6, -12
	.cfi_offset 7, -8
	.cfi_offset 14, -4
	.loc 1 744 10 view .LVU80
	ldr	r7, [r0]
	.loc 1 744 16 view .LVU81
	ldrb	r5, [r7]	@ zero_extendqisi2
	.loc 1 737 1 view .LVU82
	sub	sp, sp, #36
	.cfi_def_cfa_offset 56
	.loc 1 737 1 view .LVU83
	mov	r6, r0
	mov	r4, r2
.LVL20:
	.loc 1 739 2 is_stmt 1 view .LVU84
	.loc 1 740 2 view .LVU85
	.loc 1 741 2 view .LVU86
	.loc 1 742 2 view .LVU87
	.loc 1 744 2 view .LVU88
	.loc 1 744 5 is_stmt 0 view .LVU89
	cbnz	r5, .L22
	.loc 1 747 2 is_stmt 1 view .LVU90
.LVL21:
	.loc 1 749 2 view .LVU91
	.loc 1 749 13 is_stmt 0 view .LVU92
	ldrh	r3, [r7, #2]
	.loc 1 749 2 view .LVU93
	cmp	r3, #10496
	beq	.L23
	bhi	.L24
	sub	r3, r3, #10240
	cmp	r3, #3
	bhi	.L22
.L23:
	.loc 1 756 3 is_stmt 1 view .LVU94
	.loc 1 756 9 is_stmt 0 view .LVU95
	strh	r1, [sp, #10]	@ movhi
	.loc 1 757 3 is_stmt 1 view .LVU96
	.loc 1 757 7 is_stmt 0 view .LVU97
	movs	r2, #2
.LVL22:
	.loc 1 757 7 view .LVU98
	add	r1, sp, #10
.LVL23:
	.loc 1 757 7 view .LVU99
	mov	r0, r4
.LVL24:
	.loc 1 757 7 view .LVU100
	bl	tc_cmac_update
.LVL25:
	.loc 1 757 6 view .LVU101
	cbnz	r0, .L27
.LVL26:
.L29:
	.loc 1 759 4 is_stmt 1 view .LVU102
	.loc 1 760 4 view .LVU103
	.loc 1 760 11 is_stmt 0 view .LVU104
	mvn	r2, #21
.L28:
	.loc 1 759 15 view .LVU105
	str	r2, [r4, #88]
	b	.L26
.LVL27:
.L24:
	.loc 1 749 2 view .LVU106
	add	r3, r3, #54784
	adds	r3, r3, #255
	uxth	r3, r3
	cmp	r3, #4
	bls	.L25
.LVL28:
.L22:
	.loc 1 760 11 view .LVU107
	movs	r5, #1
.L26:
	.loc 1 808 1 view .LVU108
	mov	r0, r5
	add	sp, sp, #36
	.cfi_remember_state
	.cfi_def_cfa_offset 20
	@ sp needed
	pop	{r4, r5, r6, r7, pc}
.LVL29:
.L27:
	.cfi_restore_state
	.loc 1 763 3 is_stmt 1 view .LVU109
	.loc 1 763 9 is_stmt 0 view .LVU110
	ldrh	r3, [r7, #2]
	strh	r3, [sp, #10]	@ movhi
	.loc 1 764 3 is_stmt 1 view .LVU111
	.loc 1 764 7 is_stmt 0 view .LVU112
	movs	r2, #2
	add	r1, sp, #10
	mov	r0, r4
	bl	tc_cmac_update
.LVL30:
	.loc 1 764 6 view .LVU113
	cmp	r0, #0
	beq	.L29
	.loc 1 770 3 is_stmt 1 view .LVU114
	.loc 1 770 9 is_stmt 0 view .LVU115
	movs	r0, #0
	str	r0, [sp]
	add	r2, sp, #12
	ldr	r7, [r6, #4]
.LVL31:
	.loc 1 770 9 view .LVU116
	movs	r3, #19
	mov	r1, r6
	blx	r7
.LVL32:
	.loc 1 771 3 is_stmt 1 view .LVU117
	.loc 1 771 6 is_stmt 0 view .LVU118
	subs	r2, r0, #0
	blt	.L28
	.loc 1 776 3 is_stmt 1 view .LVU119
	.loc 1 776 7 is_stmt 0 view .LVU120
	add	r1, sp, #12
.LVL33:
.L47:
	.loc 1 797 7 view .LVU121
	mov	r0, r4
	bl	tc_cmac_update
.LVL34:
	.loc 1 797 6 view .LVU122
	cmp	r0, #0
	bne	.L22
	b	.L29
.LVL35:
.L25:
	.loc 1 789 3 is_stmt 1 view .LVU123
	.loc 1 789 9 is_stmt 0 view .LVU124
	strh	r1, [sp, #10]	@ movhi
	.loc 1 790 3 is_stmt 1 view .LVU125
	.loc 1 790 7 is_stmt 0 view .LVU126
	movs	r2, #2
.LVL36:
	.loc 1 790 7 view .LVU127
	add	r1, sp, #10
.LVL37:
	.loc 1 790 7 view .LVU128
	mov	r0, r4
.LVL38:
	.loc 1 790 7 view .LVU129
	bl	tc_cmac_update
.LVL39:
	.loc 1 790 6 view .LVU130
	cmp	r0, #0
	beq	.L29
	.loc 1 796 3 is_stmt 1 view .LVU131
	.loc 1 796 9 is_stmt 0 view .LVU132
	ldrh	r3, [r7, #2]
	strh	r3, [sp, #10]	@ movhi
	.loc 1 797 3 is_stmt 1 view .LVU133
	.loc 1 797 7 is_stmt 0 view .LVU134
	movs	r2, #2
	add	r1, sp, #10
	b	.L47
	.cfi_endproc
.LFE620:
	.size	gen_hash_m, .-gen_hash_m
	.section	.text.bt_addr_le_eq,"ax",%progbits
	.align	1
	.syntax unified
	.thumb
	.thumb_func
	.type	bt_addr_le_eq, %function
bt_addr_le_eq:
.LVL40:
.LFB539:
	.file 2 "/home/g/mise-work/zmk-firmware/zmk/zephyr/include/zephyr/bluetooth/addr.h"
	.loc 2 118 1 is_stmt 1 view -0
	.cfi_startproc
	@ args = 0, pretend = 0, frame = 0
	@ frame_needed = 0, uses_anonymous_args = 0
	.loc 2 119 2 view .LVU136
.LBB2492:
.LBI2492:
	.loc 2 104 19 view .LVU137
.LBB2493:
	.loc 2 106 2 view .LVU138
.LBE2493:
.LBE2492:
	.loc 2 118 1 is_stmt 0 view .LVU139
	push	{r3, lr}
	.cfi_def_cfa_offset 8
	.cfi_offset 3, -8
	.cfi_offset 14, -4
.LBB2495:
.LBB2494:
	.loc 2 106 9 view .LVU140
	movs	r2, #7
	bl	memcmp
.LVL41:
	.loc 2 106 9 view .LVU141
.LBE2494:
.LBE2495:
	.loc 2 120 1 view .LVU142
	clz	r0, r0
	lsrs	r0, r0, #5
	pop	{r3, pc}
	.cfi_endproc
.LFE539:
	.size	bt_addr_le_eq, .-bt_addr_le_eq
	.section	.text.find_cf_cfg_by_addr,"ax",%progbits
	.align	1
	.syntax unified
	.thumb
	.thumb_func
	.type	find_cf_cfg_by_addr, %function
find_cf_cfg_by_addr:
.LVL42:
.LFB694:
	.loc 1 5825 1 is_stmt 1 view -0
	.cfi_startproc
	@ args = 0, pretend = 0, frame = 0
	@ frame_needed = 0, uses_anonymous_args = 0
	.loc 1 5826 2 view .LVU144
.LBB2496:
	.loc 1 5827 3 view .LVU145
	.loc 1 5829 3 view .LVU146
	.loc 1 5829 17 view .LVU147
.LBE2496:
	.loc 1 5825 1 is_stmt 0 view .LVU148
	push	{r3, r4, r5, r6, r7, lr}
	.cfi_def_cfa_offset 24
	.cfi_offset 3, -24
	.cfi_offset 4, -20
	.cfi_offset 5, -16
	.cfi_offset 6, -12
	.cfi_offset 7, -8
	.cfi_offset 14, -4
	ldr	r5, .L57
	.loc 1 5825 1 view .LVU149
	mov	r6, r0
	mov	r7, r1
	movs	r4, #0
.LVL43:
.L52:
.LBB2497:
	.loc 1 5830 4 is_stmt 1 view .LVU150
	.loc 1 5830 7 is_stmt 0 view .LVU151
	ldrb	r3, [r5, #-1]	@ zero_extendqisi2
	cmp	r3, r6
	bne	.L50
	.loc 1 5831 8 discriminator 1 view .LVU152
	mov	r1, r5
	mov	r0, r7
	bl	bt_addr_le_eq
.LVL44:
	.loc 1 5830 27 discriminator 1 view .LVU153
	cbz	r0, .L50
	.loc 1 5832 5 is_stmt 1 view .LVU154
	.loc 1 5832 12 is_stmt 0 view .LVU155
	ldr	r0, .L57+4
	add	r0, r0, r4
.L49:
	.loc 1 5832 12 view .LVU156
.LBE2497:
	.loc 1 5838 1 view .LVU157
	pop	{r3, r4, r5, r6, r7, pc}
.LVL45:
.L50:
.LBB2498:
	.loc 1 5829 188 is_stmt 1 discriminator 2 view .LVU158
	.loc 1 5829 17 discriminator 2 view .LVU159
	adds	r4, r4, #16
	cmp	r4, #160
	add	r5, r5, #16
	bne	.L52
.LBE2498:
	.loc 1 5837 8 is_stmt 0 view .LVU160
	movs	r0, #0
	b	.L49
.L58:
	.align	2
.L57:
	.word	cf_cfg+1
	.word	cf_cfg
	.cfi_endproc
.LFE694:
	.size	find_cf_cfg_by_addr, .-find_cf_cfg_by_addr
	.section	.text.gatt_delayed_store_find,"ax",%progbits
	.align	1
	.syntax unified
	.thumb
	.thumb_func
	.type	gatt_delayed_store_find, %function
gatt_delayed_store_find:
.LVL46:
.LFB635:
	.loc 1 1341 1 is_stmt 1 view -0
	.cfi_startproc
	@ args = 0, pretend = 0, frame = 0
	@ frame_needed = 0, uses_anonymous_args = 0
.LBB2499:
	.loc 1 1342 4 view .LVU162
	.loc 1 1342 24 view .LVU163
.LBB2500:
	.loc 1 1342 29 view .LVU164
	.loc 1 1342 45 view .LVU165
.LBE2500:
.LBE2499:
	.loc 1 1341 1 is_stmt 0 view .LVU166
	push	{r3, r4, r5, r6, r7, lr}
	.cfi_def_cfa_offset 24
	.cfi_offset 3, -24
	.cfi_offset 4, -20
	.cfi_offset 5, -16
	.cfi_offset 6, -12
	.cfi_offset 7, -8
	.cfi_offset 14, -4
	ldr	r5, .L65
	.loc 1 1341 1 view .LVU167
	mov	r6, r0
	mov	r7, r1
	movs	r4, #0
.LVL47:
.L62:
.LBB2503:
.LBB2501:
	.loc 1 1342 310 is_stmt 1 discriminator 7 view .LVU168
	.loc 1 1342 349 discriminator 7 view .LVU169
	.loc 1 1342 352 is_stmt 0 discriminator 7 view .LVU170
	ldrb	r3, [r5, #-1]	@ zero_extendqisi2
	cmp	r3, r6
	bne	.L60
	.loc 1 1342 369 discriminator 2 view .LVU171
	mov	r1, r5
	mov	r0, r7
	bl	bt_addr_le_eq
.LVL48:
	.loc 1 1342 366 discriminator 2 view .LVU172
	cbnz	r0, .L61
.L60:
	.loc 1 1342 304 is_stmt 1 discriminator 5 view .LVU173
	.loc 1 1342 45 discriminator 5 view .LVU174
	adds	r4, r4, #12
	cmp	r4, #120
	add	r5, r5, #12
	bne	.L62
.LBE2501:
.LBE2503:
	.loc 1 1354 8 is_stmt 0 view .LVU175
	movs	r0, #0
.L59:
	.loc 1 1355 1 view .LVU176
	pop	{r3, r4, r5, r6, r7, pc}
.LVL49:
.L61:
.LBB2504:
.LBB2502:
	.loc 1 1342 313 view .LVU177
	ldr	r0, .L65+4
	add	r0, r0, r4
	b	.L59
.L66:
	.align	2
.L65:
	.word	gatt_delayed_store+1
	.word	gatt_delayed_store
.LBE2502:
.LBE2504:
	.cfi_endproc
.LFE635:
	.size	gatt_delayed_store_find, .-gatt_delayed_store_find
	.section	.text.find_sc_cfg,"ax",%progbits
	.align	1
	.syntax unified
	.thumb
	.thumb_func
	.type	find_sc_cfg, %function
find_sc_cfg:
.LVL50:
.LFB603:
	.loc 1 320 1 is_stmt 1 view -0
	.cfi_startproc
	@ args = 0, pretend = 0, frame = 0
	@ frame_needed = 0, uses_anonymous_args = 0
	.loc 1 321 2 view .LVU179
.LBB2505:
	.loc 1 321 7 view .LVU180
.LBE2505:
	.loc 1 321 5 view .LVU181
	.loc 1 323 2 view .LVU182
.LBB2506:
	.loc 1 323 7 view .LVU183
	.loc 1 323 23 view .LVU184
.LBE2506:
	.loc 1 320 1 is_stmt 0 view .LVU185
	push	{r3, r4, r5, r6, r7, lr}
	.cfi_def_cfa_offset 24
	.cfi_offset 3, -24
	.cfi_offset 4, -20
	.cfi_offset 5, -16
	.cfi_offset 6, -12
	.cfi_offset 7, -8
	.cfi_offset 14, -4
	ldr	r5, .L75
	.loc 1 320 1 view .LVU186
	mov	r6, r0
	mov	r7, r1
	movs	r4, #0
.LVL51:
.L70:
.LBB2507:
	.loc 1 324 3 is_stmt 1 view .LVU187
	.loc 1 324 6 is_stmt 0 view .LVU188
	ldrb	r3, [r5, #-1]	@ zero_extendqisi2
	cmp	r3, r6
	bne	.L68
	.loc 1 325 7 discriminator 1 view .LVU189
	mov	r1, r7
	mov	r0, r5
	bl	bt_addr_le_eq
.LVL52:
	.loc 1 324 26 discriminator 1 view .LVU190
	cbz	r0, .L68
	.loc 1 326 4 is_stmt 1 view .LVU191
	.loc 1 326 11 is_stmt 0 view .LVU192
	ldr	r0, .L75+4
	add	r0, r0, r4
.L67:
	.loc 1 326 11 view .LVU193
.LBE2507:
	.loc 1 331 1 view .LVU194
	pop	{r3, r4, r5, r6, r7, pc}
.LVL53:
.L68:
.LBB2508:
	.loc 1 323 194 is_stmt 1 discriminator 2 view .LVU195
	.loc 1 323 23 discriminator 2 view .LVU196
	adds	r4, r4, #12
	cmp	r4, #120
	add	r5, r5, #12
	bne	.L70
.LBE2508:
	.loc 1 330 8 is_stmt 0 view .LVU197
	movs	r0, #0
	b	.L67
.L76:
	.align	2
.L75:
	.word	sc_cfg+1
	.word	sc_cfg
	.cfi_endproc
.LFE603:
	.size	find_sc_cfg, .-find_sc_cfg
	.section	.text.ccc_find_cfg,"ax",%progbits
	.align	1
	.syntax unified
	.thumb
	.thumb_func
	.type	ccc_find_cfg, %function
ccc_find_cfg:
.LVL54:
.LFB684:
	.loc 1 5471 1 is_stmt 1 view -0
	.cfi_startproc
	@ args = 0, pretend = 0, frame = 0
	@ frame_needed = 0, uses_anonymous_args = 0
	.loc 1 5472 2 view .LVU199
.LBB2509:
	.loc 1 5472 7 view .LVU200
	.loc 1 5472 23 view .LVU201
.LBE2509:
	.loc 1 5471 1 is_stmt 0 view .LVU202
	push	{r4, r5, r6, r7, r8, lr}
	.cfi_def_cfa_offset 24
	.cfi_offset 4, -24
	.cfi_offset 5, -20
	.cfi_offset 6, -16
	.cfi_offset 7, -12
	.cfi_offset 8, -8
	.cfi_offset 14, -4
	.loc 1 5471 1 view .LVU203
	mov	r4, r0
	mov	r7, r1
	mov	r8, r2
	adds	r6, r0, #1
	movs	r5, #0
.LVL55:
.L80:
.LBB2510:
	.loc 1 5473 3 is_stmt 1 view .LVU204
	.loc 1 5473 6 is_stmt 0 view .LVU205
	ldrb	r3, [r6, #-1]	@ zero_extendqisi2
	cmp	r3, r8
	bne	.L78
	.loc 1 5474 7 discriminator 1 view .LVU206
	mov	r1, r7
	mov	r0, r6
	bl	bt_addr_le_eq
.LVL56:
	.loc 1 5473 28 discriminator 1 view .LVU207
	cbz	r0, .L78
	.loc 1 5475 4 is_stmt 1 view .LVU208
	.loc 1 5475 11 is_stmt 0 view .LVU209
	adds	r0, r4, r5
.L77:
	.loc 1 5475 11 view .LVU210
.LBE2510:
	.loc 1 5480 1 view .LVU211
	pop	{r4, r5, r6, r7, r8, pc}
.LVL57:
.L78:
.LBB2511:
	.loc 1 5472 202 is_stmt 1 discriminator 2 view .LVU212
	.loc 1 5472 23 discriminator 2 view .LVU213
	adds	r5, r5, #10
	cmp	r5, #50
	add	r6, r6, #10
	bne	.L80
.LBE2511:
	.loc 1 5479 8 is_stmt 0 view .LVU214
	movs	r0, #0
	b	.L77
	.cfi_endproc
.LFE684:
	.size	ccc_find_cfg, .-ccc_find_cfg
	.section	.text.atomic_or,"ax",%progbits
	.align	1
	.syntax unified
	.thumb
	.thumb_func
	.type	atomic_or, %function
atomic_or:
.LVL58:
.LFB12:
	.file 3 "/home/g/mise-work/zmk-firmware/zmk/zephyr/include/zephyr/sys/atomic_builtin.h"
	.loc 3 280 1 is_stmt 1 view -0
	.cfi_startproc
	@ args = 0, pretend = 0, frame = 0
	@ frame_needed = 0, uses_anonymous_args = 0
	.loc 3 281 2 view .LVU216
	.loc 3 280 1 is_stmt 0 view .LVU217
	push	{r4, lr}
	.cfi_def_cfa_offset 8
	.cfi_offset 4, -8
	.cfi_offset 14, -4
	.loc 3 280 1 view .LVU218
	mov	r3, r0
	.loc 3 282 1 view .LVU219
	dmb	ish
.LVL59:
.L86:
	.loc 3 282 1 view .LVU220
	ldrex	r0, [r3]
	orr	r2, r0, r1
	strex	r4, r2, [r3]
	cmp	r4, #0
	bne	.L86
	dmb	ish
	pop	{r4, pc}
	.cfi_endproc
.LFE12:
	.size	atomic_or, .-atomic_or
	.section	.text.atomic_and,"ax",%progbits
	.align	1
	.syntax unified
	.thumb
	.thumb_func
	.type	atomic_and, %function
atomic_and:
.LVL60:
.LFB14:
	.loc 3 320 1 is_stmt 1 view -0
	.cfi_startproc
	@ args = 0, pretend = 0, frame = 0
	@ frame_needed = 0, uses_anonymous_args = 0
	.loc 3 321 2 view .LVU222
	.loc 3 320 1 is_stmt 0 view .LVU223
	push	{r4, lr}
	.cfi_def_cfa_offset 8
	.cfi_offset 4, -8
	.cfi_offset 14, -4
	.loc 3 320 1 view .LVU224
	mov	r3, r0
	.loc 3 322 1 view .LVU225
	dmb	ish
.LVL61:
.L88:
	.loc 3 322 1 view .LVU226
	ldrex	r0, [r3]
	and	r2, r0, r1
	strex	r4, r2, [r3]
	cmp	r4, #0
	bne	.L88
	dmb	ish
	pop	{r4, pc}
	.cfi_endproc
.LFE14:
	.size	atomic_and, .-atomic_and
	.section	.text.find_cf_cfg,"ax",%progbits
	.align	1
	.syntax unified
	.thumb
	.thumb_func
	.type	find_cf_cfg, %function
find_cf_cfg:
.LVL62:
.LFB616:
	.loc 1 598 1 is_stmt 1 view -0
	.cfi_startproc
	@ args = 0, pretend = 0, frame = 0
	@ frame_needed = 0, uses_anonymous_args = 0
	.loc 1 599 2 view .LVU228
	.loc 1 601 2 view .LVU229
	.loc 1 601 16 view .LVU230
	.loc 1 598 1 is_stmt 0 view .LVU231
	push	{r4, r5, r6, r7, r8, lr}
	.cfi_def_cfa_offset 24
	.cfi_offset 4, -24
	.cfi_offset 5, -20
	.cfi_offset 6, -16
	.cfi_offset 7, -12
	.cfi_offset 8, -8
	.cfi_offset 14, -4
	ldr	r4, .L100
.LBB2512:
	.loc 1 605 8 view .LVU232
	ldr	r8, .L100+4
.LBE2512:
	.loc 1 598 1 view .LVU233
	mov	r5, r0
	.loc 1 601 9 view .LVU234
	movs	r6, #0
.LVL63:
.L93:
.LBB2513:
	.loc 1 602 3 is_stmt 1 view .LVU235
	.loc 1 602 23 is_stmt 0 view .LVU236
	mov	r7, r4
.LVL64:
	.loc 1 604 3 is_stmt 1 view .LVU237
	.loc 1 605 22 is_stmt 0 view .LVU238
	adds	r2, r4, #1
	.loc 1 604 6 view .LVU239
	cbnz	r5, .L90
	.loc 1 605 4 is_stmt 1 view .LVU240
	.loc 1 605 8 is_stmt 0 view .LVU241
	mov	r1, r8
	mov	r0, r2
	bl	bt_addr_le_eq
.LVL65:
.L99:
	.loc 1 605 7 view .LVU242
	cbnz	r0, .L89
.LBE2513:
	.loc 1 601 187 is_stmt 1 view .LVU243
	adds	r6, r6, #1
.LVL66:
	.loc 1 601 16 view .LVU244
	cmp	r6, #10
	add	r4, r4, #16
.LVL67:
	.loc 1 601 16 is_stmt 0 view .LVU245
	bne	.L93
	.loc 1 613 8 view .LVU246
	movs	r7, #0
.LVL68:
.L89:
	.loc 1 614 1 view .LVU247
	mov	r0, r7
	pop	{r4, r5, r6, r7, r8, pc}
.LVL69:
.L90:
.LBB2514:
	.loc 1 608 10 is_stmt 1 view .LVU248
	.loc 1 608 14 is_stmt 0 view .LVU249
	ldrb	r1, [r4]	@ zero_extendqisi2
	mov	r0, r5
	bl	bt_conn_is_peer_addr_le
.LVL70:
	b	.L99
.L101:
	.align	2
.L100:
	.word	cf_cfg
	.word	bt_addr_le_any
.LBE2514:
	.cfi_endproc
.LFE616:
	.size	find_cf_cfg, .-find_cf_cfg
	.section	.text.find_ccc_cfg,"ax",%progbits
	.align	1
	.syntax unified
	.thumb
	.thumb_func
	.type	find_ccc_cfg, %function
find_ccc_cfg:
.LVL71:
.LFB657:
	.loc 1 2054 1 is_stmt 1 view -0
	.cfi_startproc
	@ args = 0, pretend = 0, frame = 0
	@ frame_needed = 0, uses_anonymous_args = 0
	.loc 1 2055 2 view .LVU251
.LBB2515:
	.loc 1 2055 7 view .LVU252
	.loc 1 2055 23 view .LVU253
.LBE2515:
	.loc 1 2054 1 is_stmt 0 view .LVU254
	push	{r3, r4, r5, r6, r7, lr}
	.cfi_def_cfa_offset 24
	.cfi_offset 3, -24
	.cfi_offset 4, -20
	.cfi_offset 5, -16
	.cfi_offset 6, -12
	.cfi_offset 7, -8
	.cfi_offset 14, -4
.LBB2519:
.LBB2516:
	.loc 1 2063 14 view .LVU255
	ldr	r7, .L114
.LBE2516:
.LBE2519:
	.loc 1 2054 1 view .LVU256
	mov	r6, r0
	adds	r4, r1, #1
	add	r5, r1, #51
.LVL72:
.L106:
.LBB2520:
.LBB2517:
	.loc 1 2056 3 is_stmt 1 view .LVU257
	.loc 1 2058 3 view .LVU258
	.loc 1 2058 6 is_stmt 0 view .LVU259
	cbz	r6, .L103
	.loc 1 2059 4 is_stmt 1 view .LVU260
	.loc 1 2059 8 is_stmt 0 view .LVU261
	ldrb	r1, [r4, #-1]	@ zero_extendqisi2
	mov	r2, r4
	mov	r0, r6
	bl	bt_conn_is_peer_addr_le
.LVL73:
.L113:
	.loc 1 2059 7 view .LVU262
	cbz	r0, .L104
	.loc 1 2056 27 view .LVU263
	subs	r0, r4, #1
.LVL74:
.L102:
	.loc 1 2056 27 view .LVU264
.LBE2517:
.LBE2520:
	.loc 1 2069 1 view .LVU265
	pop	{r3, r4, r5, r6, r7, pc}
.LVL75:
.L104:
.LBB2521:
	.loc 1 2055 202 is_stmt 1 view .LVU266
	.loc 1 2055 23 view .LVU267
	adds	r4, r4, #10
.LVL76:
	.loc 1 2055 23 is_stmt 0 view .LVU268
	cmp	r4, r5
	bne	.L106
.LBE2521:
	.loc 1 2068 8 view .LVU269
	movs	r0, #0
	b	.L102
.LVL77:
.L103:
.LBB2522:
.LBB2518:
	.loc 1 2063 10 is_stmt 1 view .LVU270
	.loc 1 2063 14 is_stmt 0 view .LVU271
	mov	r1, r7
	mov	r0, r4
	bl	bt_addr_le_eq
.LVL78:
	b	.L113
.L115:
	.align	2
.L114:
	.word	bt_addr_le_any
.LBE2518:
.LBE2522:
	.cfi_endproc
.LFE657:
	.size	find_ccc_cfg, .-find_ccc_cfg
	.section	.text.atomic_get,"ax",%progbits
	.align	1
	.syntax unified
	.thumb
	.thumb_func
	.type	atomic_get, %function
atomic_get:
.LVL79:
.LFB6:
	.loc 3 160 1 is_stmt 1 view -0
	.cfi_startproc
	@ args = 0, pretend = 0, frame = 0
	@ frame_needed = 0, uses_anonymous_args = 0
	@ link register save eliminated.
	.loc 3 161 2 view .LVU273
	.loc 3 161 9 is_stmt 0 view .LVU274
	dmb	ish
	ldr	r0, [r0]
.LVL80:
	.loc 3 161 9 view .LVU275
	dmb	ish
	.loc 3 162 1 view .LVU276
	bx	lr
	.cfi_endproc
.LFE6:
	.size	atomic_get, .-atomic_get
	.section	.text.get_service_handles,"ax",%progbits
	.align	1
	.syntax unified
	.thumb
	.thumb_func
	.type	get_service_handles, %function
get_service_handles:
.LVL81:
.LFB647:
	.loc 1 1785 1 is_stmt 1 view -0
	.cfi_startproc
	@ args = 0, pretend = 0, frame = 8
	@ frame_needed = 0, uses_anonymous_args = 0
	.loc 1 1786 2 view .LVU278
	.loc 1 1785 1 is_stmt 0 view .LVU279
	push	{r0, r1, r2, r4, r5, r6, r7, lr}
	.cfi_def_cfa_offset 32
	.cfi_offset 4, -20
	.cfi_offset 5, -16
	.cfi_offset 6, -12
	.cfi_offset 7, -8
	.cfi_offset 14, -4
.LBB2523:
	.loc 1 1789 74 view .LVU280
	mov	r3, #10240
.LBE2523:
	.loc 1 1785 1 view .LVU281
	mov	r4, r0
	mov	r6, r1
.LBB2524:
	.loc 1 1789 74 view .LVU282
	movs	r7, #0
	.loc 1 1789 7 view .LVU283
	ldr	r0, [r0]
.LVL82:
	.loc 1 1789 74 view .LVU284
	strb	r7, [sp]
	.loc 1 1789 7 view .LVU285
	mov	r1, sp
.LVL83:
	.loc 1 1789 7 view .LVU286
.LBE2524:
	.loc 1 1785 1 view .LVU287
	mov	r5, r2
.LVL84:
	.loc 1 1789 2 is_stmt 1 view .LVU288
.LBB2525:
	.loc 1 1789 74 is_stmt 0 view .LVU289
	strh	r3, [sp, #2]	@ movhi
	.loc 1 1789 7 view .LVU290
	bl	bt_uuid_cmp
.LVL85:
	.loc 1 1789 5 view .LVU291
	cbnz	r0, .L118
.L120:
	.loc 1 1791 3 is_stmt 1 view .LVU292
	.loc 1 1791 10 is_stmt 0 view .LVU293
	movs	r0, #0
.L119:
.LBE2525:
	.loc 1 1797 1 view .LVU294
	add	sp, sp, #12
	.cfi_remember_state
	.cfi_def_cfa_offset 20
	@ sp needed
	pop	{r4, r5, r6, r7, pc}
.LVL86:
.L118:
	.cfi_restore_state
.LBB2526:
	.loc 1 1790 74 discriminator 1 view .LVU295
	movw	r3, #10241
	.loc 1 1790 7 discriminator 1 view .LVU296
	ldr	r0, [r4]
	.loc 1 1790 74 discriminator 1 view .LVU297
	strb	r7, [sp, #4]
	.loc 1 1790 7 discriminator 1 view .LVU298
	add	r1, sp, #4
	.loc 1 1790 74 discriminator 1 view .LVU299
	strh	r3, [sp, #6]	@ movhi
	.loc 1 1790 7 discriminator 1 view .LVU300
	bl	bt_uuid_cmp
.LVL87:
	.loc 1 1789 129 discriminator 1 view .LVU301
	cmp	r0, #0
	beq	.L120
.LBE2526:
	.loc 1 1794 2 is_stmt 1 view .LVU302
	.loc 1 1794 22 is_stmt 0 view .LVU303
	strh	r6, [r5, #2]	@ unaligned
	.loc 1 1796 2 is_stmt 1 view .LVU304
	.loc 1 1796 9 is_stmt 0 view .LVU305
	movs	r0, #1
	b	.L119
	.cfi_endproc
.LFE647:
	.size	get_service_handles, .-get_service_handles
	.section	.text.write_name,"ax",%progbits
	.align	1
	.syntax unified
	.thumb
	.thumb_func
	.type	write_name, %function
write_name:
.LVL88:
.LFB600:
	.loc 1 111 1 is_stmt 1 view -0
	.cfi_startproc
	@ args = 8, pretend = 0, frame = 16
	@ frame_needed = 0, uses_anonymous_args = 0
	.loc 1 112 2 view .LVU307
	.loc 1 111 1 is_stmt 0 view .LVU308
	push	{r0, r1, r2, r3, r4, lr}
	.cfi_def_cfa_offset 24
	.cfi_offset 4, -8
	.cfi_offset 14, -4
	.loc 1 111 1 view .LVU309
	mov	r4, r3
	ldrh	r3, [sp, #24]
.LVL89:
	.loc 1 112 7 view .LVU310
	movs	r0, #0
.LVL90:
	.loc 1 114 5 view .LVU311
	cmp	r3, #15
	.loc 1 112 7 view .LVU312
	strd	r0, r0, [sp]
	strd	r0, r0, [sp, #8]
	.loc 1 114 2 is_stmt 1 view .LVU313
	.loc 1 111 1 is_stmt 0 view .LVU314
	mov	r1, r2
.LVL91:
	.loc 1 114 5 view .LVU315
	bhi	.L126
	.loc 1 118 2 is_stmt 1 view .LVU316
	.loc 1 118 13 is_stmt 0 view .LVU317
	add	r3, r3, r4
	.loc 1 118 5 view .LVU318
	cmp	r3, #15
	bgt	.L127
	.loc 1 122 1 is_stmt 1 discriminator 1 view .LVU319
	.loc 1 122 23 is_stmt 0 discriminator 1 view .LVU320
	mov	r2, r4
.LVL92:
	.loc 1 122 23 discriminator 1 view .LVU321
	mov	r0, sp
	bl	memcpy
.LVL93:
	.loc 1 124 2 is_stmt 1 discriminator 1 view .LVU322
	mov	r0, sp
	bl	bt_set_name
.LVL94:
	.loc 1 126 2 discriminator 1 view .LVU323
.L124:
	.loc 1 127 1 is_stmt 0 view .LVU324
	mov	r0, r4
	add	sp, sp, #16
	.cfi_remember_state
	.cfi_def_cfa_offset 8
	@ sp needed
	pop	{r4, pc}
.LVL95:
.L126:
	.cfi_restore_state
	.loc 1 115 10 view .LVU325
	mvn	r4, #6
	b	.L124
.L127:
	.loc 1 119 10 view .LVU326
	mvn	r4, #12
	b	.L124
	.cfi_endproc
.LFE600:
	.size	write_name, .-write_name
	.section	.text.bt_addr_le_copy,"ax",%progbits
	.align	1
	.syntax unified
	.thumb
	.thumb_func
	.type	bt_addr_le_copy, %function
bt_addr_le_copy:
.LVL96:
.LFB541:
	.loc 2 138 1 is_stmt 1 view -0
	.cfi_startproc
	@ args = 0, pretend = 0, frame = 0
	@ frame_needed = 0, uses_anonymous_args = 0
	@ link register save eliminated.
	.loc 2 139 1 view .LVU328
.LBB2531:
.LBI2531:
	.loc 2 137 20 view .LVU329
.LBB2532:
.LBI2532:
	.file 4 "/home/g/zephyr-sdk-0.16.3/arm-zephyr-eabi/picolibc/include/ssp/string.h"
	.loc 4 83 216 view .LVU330
.LBB2533:
	.loc 4 83 292 view .LVU331
	.loc 4 83 299 is_stmt 0 view .LVU332
	ldr	r3, [r1]	@ unaligned
	str	r3, [r0]	@ unaligned
	ldrh	r3, [r1, #4]	@ unaligned
	strh	r3, [r0, #4]	@ unaligned
	ldrb	r3, [r1, #6]	@ zero_extendqisi2
	strb	r3, [r0, #6]
.LVL97:
	.loc 4 83 299 view .LVU333
.LBE2533:
.LBE2532:
.LBE2531:
	.loc 2 140 1 view .LVU334
	bx	lr
	.cfi_endproc
.LFE541:
	.size	bt_addr_le_copy, .-bt_addr_le_copy
	.section	.text.gatt_delayed_store_enqueue,"ax",%progbits
	.align	1
	.syntax unified
	.thumb
	.thumb_func
	.type	gatt_delayed_store_enqueue, %function
gatt_delayed_store_enqueue:
.LVL98:
.LFB638:
	.loc 1 1392 1 is_stmt 1 view -0
	.cfi_startproc
	@ args = 0, pretend = 0, frame = 0
	@ frame_needed = 0, uses_anonymous_args = 0
	.loc 1 1393 1 view .LVU336
	.loc 1 1392 1 is_stmt 0 view .LVU337
	push	{r4, r5, r6, r7, r8, lr}
	.cfi_def_cfa_offset 24
	.cfi_offset 4, -24
	.cfi_offset 5, -20
	.cfi_offset 6, -16
	.cfi_offset 7, -12
	.cfi_offset 8, -8
	.cfi_offset 14, -4
	.loc 1 1392 1 view .LVU338
	mov	r6, r0
	mov	r7, r1
	mov	r8, r2
	.loc 1 1393 15 view .LVU339
	bl	bt_addr_le_is_bonded
.LVL99:
	.loc 1 1394 2 is_stmt 1 view .LVU340
	.loc 1 1396 2 view .LVU341
	.loc 1 1396 5 is_stmt 0 view .LVU342
	cbz	r0, .L129
	.loc 1 1394 23 view .LVU343
	mov	r1, r7
	mov	r0, r6
.LVL100:
	.loc 1 1394 23 view .LVU344
	bl	gatt_delayed_store_find
.LVL101:
.LBB2540:
	.loc 1 1397 3 is_stmt 1 view .LVU345
	.loc 1 1397 6 is_stmt 0 view .LVU346
	mov	r5, r0
	cbnz	r0, .L131
	ldr	r2, .L135
.LBB2541:
.LBB2542:
.LBB2543:
	.loc 1 1372 14 view .LVU347
	mov	r4, r0
.L133:
.LVL102:
	.loc 1 1373 3 is_stmt 1 view .LVU348
	.loc 1 1379 3 view .LVU349
	.loc 1 1379 7 is_stmt 0 view .LVU350
	mov	r0, r2
	bl	atomic_get
.LVL103:
	.loc 1 1379 6 view .LVU351
	cbnz	r0, .L132
	movs	r2, #12
	muls	r4, r2, r4
.LVL104:
	.loc 1 1373 6 view .LVU352
	ldr	r2, .L135+4
	.loc 1 1380 4 view .LVU353
	adds	r0, r4, #1
	mov	r1, r7
	add	r0, r0, r2
	bl	bt_addr_le_copy
.LVL105:
	.loc 1 1381 11 view .LVU354
	strb	r6, [r2, r4]
	.loc 1 1373 6 view .LVU355
	adds	r5, r4, r2
	.loc 1 1380 4 is_stmt 1 view .LVU356
	.loc 1 1381 4 view .LVU357
	.loc 1 1383 4 view .LVU358
.LVL106:
.L131:
	.loc 1 1383 4 is_stmt 0 view .LVU359
.LBE2543:
.LBE2542:
.LBE2541:
	.loc 1 1399 6 is_stmt 1 view .LVU360
	.loc 1 1399 7 view .LVU361
	.loc 1 1402 3 view .LVU362
.LBB2546:
.LBI2546:
	.file 5 "/home/g/mise-work/zmk-firmware/zmk/zephyr/include/zephyr/sys/atomic.h"
	.loc 5 217 20 view .LVU363
.LBB2547:
	.loc 5 219 2 view .LVU364
	.loc 5 221 2 view .LVU365
	.loc 5 221 8 is_stmt 0 view .LVU366
	movs	r1, #1
	lsl	r1, r1, r8
	add	r0, r5, #8
.LVL107:
	.loc 5 221 8 view .LVU367
	bl	atomic_or
.LVL108:
	.loc 5 221 8 view .LVU368
.LBE2547:
.LBE2546:
	.loc 1 1404 3 is_stmt 1 view .LVU369
.LBE2540:
	.loc 1 1407 1 is_stmt 0 view .LVU370
	pop	{r4, r5, r6, r7, r8, lr}
	.cfi_remember_state
	.cfi_restore 14
	.cfi_restore 8
	.cfi_restore 7
	.cfi_restore 6
	.cfi_restore 5
	.cfi_restore 4
	.cfi_def_cfa_offset 0
.LVL109:
.LBB2549:
	.loc 1 1404 3 view .LVU371
	ldr	r0, .L135+8
	mov	r2, #32768
	movs	r3, #0
	b	k_work_reschedule
.LVL110:
.L132:
	.cfi_restore_state
.LBB2548:
.LBB2545:
.LBB2544:
	.loc 1 1372 282 is_stmt 1 view .LVU372
	adds	r4, r4, #1
.LVL111:
	.loc 1 1372 23 view .LVU373
	cmp	r4, #10
	add	r2, r2, #12
	bne	.L133
	b	.L131
.LVL112:
.L129:
	.loc 1 1372 23 is_stmt 0 view .LVU374
.LBE2544:
.LBE2545:
.LBE2548:
.LBE2549:
	.loc 1 1407 1 view .LVU375
	pop	{r4, r5, r6, r7, r8, pc}
.LVL113:
.L136:
	.loc 1 1407 1 view .LVU376
	.align	2
.L135:
	.word	gatt_delayed_store+8
	.word	gatt_delayed_store
	.word	gatt_delayed_store+120
	.cfi_endproc
.LFE638:
	.size	gatt_delayed_store_enqueue, .-gatt_delayed_store_enqueue
	.section	.text.ccc_load,"ax",%progbits
	.align	1
	.syntax unified
	.thumb
	.thumb_func
	.type	ccc_load, %function
ccc_load:
.LVL114:
.LFB686:
	.loc 1 5510 1 is_stmt 1 view -0
	.cfi_startproc
	@ args = 0, pretend = 0, frame = 0
	@ frame_needed = 0, uses_anonymous_args = 0
	.loc 1 5511 2 view .LVU378
	.loc 1 5510 1 is_stmt 0 view .LVU379
	push	{r4, r5, r6, lr}
	.cfi_def_cfa_offset 16
	.cfi_offset 4, -16
	.cfi_offset 5, -12
	.cfi_offset 6, -8
	.cfi_offset 14, -4
	.loc 1 5516 5 view .LVU380
	ldr	r3, .L151
	.loc 1 5510 1 view .LVU381
	mov	r4, r2
.LVL115:
	.loc 1 5512 2 is_stmt 1 view .LVU382
	.loc 1 5513 2 view .LVU383
	.loc 1 5516 2 view .LVU384
	.loc 1 5516 5 is_stmt 0 view .LVU385
	ldr	r2, [r0, #8]
.LVL116:
	.loc 1 5516 5 view .LVU386
	cmp	r2, r3
	bne	.L138
	.loc 1 5520 2 is_stmt 1 view .LVU387
	.loc 1 5523 11 is_stmt 0 view .LVU388
	ldr	r5, [r4, #8]
	.loc 1 5520 6 view .LVU389
	ldr	r6, [r0, #12]
.LVL117:
	.loc 1 5523 2 is_stmt 1 view .LVU390
	.loc 1 5523 5 is_stmt 0 view .LVU391
	cbnz	r5, .L139
	.loc 1 5524 3 is_stmt 1 view .LVU392
.LVL118:
.LBB2570:
.LBI2570:
	.loc 1 5493 13 view .LVU393
.LBB2571:
	.loc 1 5497 2 view .LVU394
	.loc 1 5499 2 view .LVU395
	.loc 1 5499 8 is_stmt 0 view .LVU396
	ldrb	r2, [r4, #4]	@ zero_extendqisi2
	ldr	r1, [r4]
.LVL119:
	.loc 1 5499 8 view .LVU397
	mov	r0, r6
.LVL120:
	.loc 1 5499 8 view .LVU398
	bl	ccc_find_cfg
.LVL121:
	.loc 1 5500 2 is_stmt 1 view .LVU399
	.loc 1 5500 5 is_stmt 0 view .LVU400
	mov	r2, r0
	cbz	r0, .L138
	.loc 1 5505 2 is_stmt 1 view .LVU401
.LVL122:
.LBB2572:
.LBI2572:
	.loc 1 1316 13 view .LVU402
.LBB2573:
	.loc 1 1318 2 view .LVU403
	ldr	r1, .L151+4
	adds	r0, r0, #1
.LVL123:
	.loc 1 1318 2 is_stmt 0 view .LVU404
	bl	bt_addr_le_copy
.LVL124:
	.loc 1 1319 2 is_stmt 1 view .LVU405
	.loc 1 1319 10 is_stmt 0 view .LVU406
	strb	r5, [r2]
	.loc 1 1320 2 is_stmt 1 view .LVU407
	.loc 1 1320 13 is_stmt 0 view .LVU408
	strh	r5, [r2, #8]	@ movhi
.LVL125:
.L138:
	.loc 1 1320 13 view .LVU409
.LBE2573:
.LBE2572:
.LBE2571:
.LBE2570:
	.loc 1 5517 10 view .LVU410
	movs	r0, #1
.L140:
	.loc 1 5565 1 view .LVU411
	pop	{r4, r5, r6, pc}
.LVL126:
.L139:
	.loc 1 5526 9 is_stmt 1 view .LVU412
	.loc 1 5526 12 is_stmt 0 view .LVU413
	ldr	r0, [r4, #12]
.LVL127:
	.loc 1 5526 12 view .LVU414
	cmp	r0, #0
	beq	.L140
	.loc 1 5531 2 is_stmt 1 view .LVU415
	.loc 1 5531 17 is_stmt 0 view .LVU416
	ldrh	r3, [r5]
	.loc 1 5531 5 view .LVU417
	cmp	r3, r1
	beq	.L141
	.loc 1 5536 3 is_stmt 1 view .LVU418
	.loc 1 5536 6 is_stmt 0 view .LVU419
	bcs	.L138
.LVL128:
.L142:
	.loc 1 5561 2 is_stmt 1 view .LVU420
	.loc 1 5562 13 is_stmt 0 view .LVU421
	ldr	r0, [r4, #12]
	.loc 1 5561 13 view .LVU422
	ldr	r3, [r4, #8]
	.loc 1 5562 13 view .LVU423
	subs	r0, r0, #1
	.loc 1 5561 13 view .LVU424
	adds	r3, r3, #4
	.loc 1 5562 13 view .LVU425
	str	r0, [r4, #12]
	.loc 1 5564 45 view .LVU426
	subs	r0, r0, #0
	.loc 1 5561 13 view .LVU427
	str	r3, [r4, #8]
	.loc 1 5562 2 is_stmt 1 view .LVU428
	.loc 1 5564 2 view .LVU429
	.loc 1 5564 45 is_stmt 0 view .LVU430
	it	ne
	movne	r0, #1
	b	.L140
.LVL129:
.L141:
	.loc 1 5544 2 is_stmt 1 discriminator 385 view .LVU431
.LBB2574:
	.loc 1 5544 7 discriminator 385 view .LVU432
.LBE2574:
	.loc 1 5544 5 discriminator 385 view .LVU433
	.loc 1 5547 2 discriminator 385 view .LVU434
	.loc 1 5547 8 is_stmt 0 discriminator 385 view .LVU435
	ldr	r5, [r4]
	ldrb	r2, [r4, #4]	@ zero_extendqisi2
	mov	r1, r5
.LVL130:
	.loc 1 5547 8 discriminator 385 view .LVU436
	mov	r0, r6
	bl	ccc_find_cfg
.LVL131:
	.loc 1 5548 2 is_stmt 1 discriminator 385 view .LVU437
	.loc 1 5548 5 is_stmt 0 discriminator 385 view .LVU438
	mov	r2, r0
	cbnz	r0, .L143
	.loc 1 5549 3 is_stmt 1 view .LVU439
	.loc 1 5549 9 is_stmt 0 view .LVU440
	ldr	r1, .L151+4
	mov	r0, r6
.LVL132:
	.loc 1 5549 9 view .LVU441
	bl	ccc_find_cfg
.LVL133:
	.loc 1 5550 3 is_stmt 1 view .LVU442
	.loc 1 5550 6 is_stmt 0 view .LVU443
	mov	r2, r0
	cmp	r0, #0
	beq	.L142
	.loc 1 5554 3 is_stmt 1 view .LVU444
	mov	r1, r5
	adds	r0, r0, #1
.LVL134:
	.loc 1 5554 3 is_stmt 0 view .LVU445
	bl	bt_addr_le_copy
.LVL135:
	.loc 1 5555 3 is_stmt 1 view .LVU446
	.loc 1 5555 31 is_stmt 0 view .LVU447
	ldrb	r3, [r4, #4]	@ zero_extendqisi2
	.loc 1 5555 11 view .LVU448
	strb	r3, [r2]
.L143:
	.loc 1 5558 2 is_stmt 1 view .LVU449
	.loc 1 5558 26 is_stmt 0 view .LVU450
	ldr	r3, [r4, #8]
	ldrh	r3, [r3, #2]
	.loc 1 5558 13 view .LVU451
	strh	r3, [r2, #8]	@ movhi
	b	.L142
.L152:
	.align	2
.L151:
	.word	bt_gatt_attr_write_ccc
	.word	bt_addr_le_any
	.cfi_endproc
.LFE686:
	.size	ccc_load, .-ccc_load
	.section	.text.clear_sc_cfg,"ax",%progbits
	.align	1
	.syntax unified
	.thumb
	.thumb_func
	.type	clear_sc_cfg, %function
clear_sc_cfg:
.LVL136:
.LFB605:
	.loc 1 348 1 is_stmt 1 view -0
	.cfi_startproc
	@ args = 0, pretend = 0, frame = 0
	@ frame_needed = 0, uses_anonymous_args = 0
	@ link register save eliminated.
	.loc 1 349 1 view .LVU453
.LBB2579:
.LBI2579:
	.loc 1 347 13 view .LVU454
.LBB2580:
.LBI2580:
	.loc 4 86 189 view .LVU455
.LBB2581:
	.loc 4 86 238 view .LVU456
	.loc 4 86 245 is_stmt 0 view .LVU457
	movs	r3, #0
	str	r3, [r0]	@ unaligned
	str	r3, [r0, #4]	@ unaligned
	str	r3, [r0, #8]	@ unaligned
.LVL137:
	.loc 4 86 245 view .LVU458
.LBE2581:
.LBE2580:
.LBE2579:
	.loc 1 350 1 view .LVU459
	bx	lr
	.cfi_endproc
.LFE605:
	.size	clear_sc_cfg, .-clear_sc_cfg
	.section	.text.bt_gatt_attr_read.constprop.0,"ax",%progbits
	.align	1
	.syntax unified
	.thumb
	.thumb_func
	.type	bt_gatt_attr_read.constprop.0, %function
bt_gatt_attr_read.constprop.0:
.LVL138:
.LFB726:
	.loc 1 1741 9 is_stmt 1 view -0
	.cfi_startproc
	@ args = 4, pretend = 0, frame = 0
	@ frame_needed = 0, uses_anonymous_args = 0
	.loc 1 1745 2 view .LVU461
	.loc 1 1747 2 view .LVU462
	.loc 1 1741 9 is_stmt 0 view .LVU463
	push	{r3, r4, r5, lr}
	.cfi_def_cfa_offset 16
	.cfi_offset 3, -16
	.cfi_offset 4, -12
	.cfi_offset 5, -8
	.cfi_offset 14, -4
	.loc 1 1741 9 view .LVU464
	ldrh	r4, [sp, #16]
	.loc 1 1747 5 view .LVU465
	cmp	r4, r2
	.loc 1 1741 9 view .LVU466
	mov	r5, r2
	.loc 1 1747 5 view .LVU467
	bcc	.L156
	.loc 1 1751 2 is_stmt 1 view .LVU468
.LVL139:
	.loc 1 1753 2 view .LVU469
.LBB2588:
	.loc 1 1753 7 view .LVU470
.LBE2588:
	.loc 1 1753 5 view .LVU471
	.loc 1 1755 1 view .LVU472
	.loc 1 1751 33 is_stmt 0 view .LVU473
	subs	r4, r4, r2
.LVL140:
	.loc 1 1751 56 view .LVU474
	cmp	r4, r1
	it	ge
	movge	r4, r1
	uxth	r4, r4
.LVL141:
.LBB2589:
.LBI2589:
	.loc 4 83 216 is_stmt 1 view .LVU475
.LBB2590:
	.loc 4 83 292 view .LVU476
	.loc 4 83 299 is_stmt 0 view .LVU477
	mov	r2, r4
.LVL142:
	.loc 4 83 299 view .LVU478
	adds	r1, r3, r5
.LVL143:
	.loc 4 83 299 view .LVU479
	bl	memcpy
.LVL144:
	.loc 4 83 299 view .LVU480
.LBE2590:
.LBE2589:
	.loc 1 1757 2 is_stmt 1 view .LVU481
.L154:
	.loc 1 1758 1 is_stmt 0 view .LVU482
	mov	r0, r4
	pop	{r3, r4, r5, pc}
.LVL145:
.L156:
	.loc 1 1748 10 view .LVU483
	mvn	r4, #6
	b	.L154
	.cfi_endproc
.LFE726:
	.size	bt_gatt_attr_read.constprop.0, .-bt_gatt_attr_read.constprop.0
	.section	.text.bt_gatt_attr_read_ccc,"ax",%progbits
	.align	1
	.global	bt_gatt_attr_read_ccc
	.syntax unified
	.thumb
	.thumb_func
	.type	bt_gatt_attr_read_ccc, %function
bt_gatt_attr_read_ccc:
.LVL146:
.LFB658:
	.loc 1 2074 1 is_stmt 1 view -0
	.cfi_startproc
	@ args = 4, pretend = 0, frame = 8
	@ frame_needed = 0, uses_anonymous_args = 0
	.loc 1 2075 2 view .LVU485
	.loc 1 2076 2 view .LVU486
	.loc 1 2077 2 view .LVU487
	.loc 1 2079 2 view .LVU488
	.loc 1 2074 1 is_stmt 0 view .LVU489
	push	{r4, r5, lr}
	.cfi_def_cfa_offset 12
	.cfi_offset 4, -12
	.cfi_offset 5, -8
	.cfi_offset 14, -4
	sub	sp, sp, #20
	.cfi_def_cfa_offset 32
	.loc 1 2079 8 view .LVU490
	ldr	r1, [r1, #12]
.LVL147:
	.loc 1 2074 1 view .LVU491
	mov	r4, r2
	mov	r5, r3
	.loc 1 2079 8 view .LVU492
	bl	find_ccc_cfg
.LVL148:
	.loc 1 2080 2 is_stmt 1 view .LVU493
	.loc 1 2080 5 is_stmt 0 view .LVU494
	cbz	r0, .L158
	.loc 1 2081 3 is_stmt 1 view .LVU495
	.loc 1 2081 15 is_stmt 0 view .LVU496
	ldrh	r0, [r0, #8]
.LVL149:
.L158:
	.loc 1 2081 15 view .LVU497
	strh	r0, [sp, #14]	@ movhi
	.loc 1 2087 2 is_stmt 1 view .LVU498
	.loc 1 2087 9 is_stmt 0 view .LVU499
	movs	r3, #2
	str	r3, [sp]
	ldrh	r2, [sp, #32]
	add	r3, sp, #14
	mov	r1, r5
	mov	r0, r4
	bl	bt_gatt_attr_read.constprop.0
.LVL150:
	.loc 1 2089 1 view .LVU500
	add	sp, sp, #20
	.cfi_def_cfa_offset 12
	@ sp needed
	pop	{r4, r5, pc}
	.loc 1 2089 1 view .LVU501
	.cfi_endproc
.LFE658:
	.size	bt_gatt_attr_read_ccc, .-bt_gatt_attr_read_ccc
	.section	.text.bt_gatt_attr_read_service,"ax",%progbits
	.align	1
	.global	bt_gatt_attr_read_service
	.syntax unified
	.thumb
	.thumb_func
	.type	bt_gatt_attr_read_service, %function
bt_gatt_attr_read_service:
.LVL151:
.LFB646:
	.loc 1 1763 1 is_stmt 1 view -0
	.cfi_startproc
	@ args = 4, pretend = 0, frame = 8
	@ frame_needed = 0, uses_anonymous_args = 0
	.loc 1 1764 2 view .LVU503
	.loc 1 1763 1 is_stmt 0 view .LVU504
	push	{r0, r1, r2, r3, r4, lr}
	.cfi_def_cfa_offset 24
	.cfi_offset 4, -8
	.cfi_offset 14, -4
	.loc 1 1763 1 view .LVU505
	mov	r4, r1
	mov	r1, r3
.LVL152:
	.loc 1 1764 18 view .LVU506
	ldr	r3, [r4, #12]
.LVL153:
	.loc 1 1766 2 is_stmt 1 view .LVU507
	.loc 1 1766 5 is_stmt 0 view .LVU508
	ldrb	r4, [r3]	@ zero_extendqisi2
.LVL154:
	.loc 1 1763 1 view .LVU509
	mov	r0, r2
.LVL155:
	.loc 1 1763 1 view .LVU510
	ldrh	r2, [sp, #24]
.LVL156:
	.loc 1 1766 5 view .LVU511
	cbz	r4, .L164
	.loc 1 1773 2 is_stmt 1 view .LVU512
	.loc 1 1773 9 is_stmt 0 view .LVU513
	movs	r4, #16
	adds	r3, r3, #1
.LVL157:
	.loc 1 1773 9 view .LVU514
	str	r4, [sp, #24]
.LVL158:
	.loc 1 1775 1 view .LVU515
	add	sp, sp, #16
	.cfi_remember_state
	.cfi_def_cfa_offset 8
	@ sp needed
	pop	{r4, lr}
	.cfi_restore 14
	.cfi_restore 4
	.cfi_def_cfa_offset 0
	.loc 1 1773 9 view .LVU516
	b	bt_gatt_attr_read.constprop.0
.LVL159:
.L164:
	.cfi_restore_state
.LBB2591:
	.loc 1 1767 3 is_stmt 1 view .LVU517
	.loc 1 1767 12 is_stmt 0 view .LVU518
	ldrh	r3, [r3, #2]
.LVL160:
	.loc 1 1767 12 view .LVU519
	strh	r3, [sp, #14]	@ movhi
	.loc 1 1769 3 is_stmt 1 view .LVU520
	.loc 1 1769 10 is_stmt 0 view .LVU521
	movs	r3, #2
	str	r3, [sp]
.LVL161:
	.loc 1 1769 10 view .LVU522
	add	r3, sp, #14
	bl	bt_gatt_attr_read.constprop.0
.LVL162:
	.loc 1 1769 10 view .LVU523
.LBE2591:
	.loc 1 1775 1 view .LVU524
	add	sp, sp, #16
	.cfi_def_cfa_offset 8
	@ sp needed
	pop	{r4, pc}
	.loc 1 1775 1 view .LVU525
	.cfi_endproc
.LFE646:
	.size	bt_gatt_attr_read_service, .-bt_gatt_attr_read_service
	.section	.text.cf_read,"ax",%progbits
	.align	1
	.syntax unified
	.thumb
	.thumb_func
	.type	cf_read, %function
cf_read:
.LVL163:
.LFB617:
	.loc 1 618 1 is_stmt 1 view -0
	.cfi_startproc
	@ args = 4, pretend = 0, frame = 8
	@ frame_needed = 0, uses_anonymous_args = 0
	.loc 1 619 2 view .LVU527
	.loc 1 620 2 view .LVU528
	.loc 1 618 1 is_stmt 0 view .LVU529
	push	{r4, r5, lr}
	.cfi_def_cfa_offset 12
	.cfi_offset 4, -12
	.cfi_offset 5, -8
	.cfi_offset 14, -4
	sub	sp, sp, #20
	.cfi_def_cfa_offset 32
	.loc 1 618 1 view .LVU530
	mov	r5, r3
	.loc 1 620 10 view .LVU531
	movs	r3, #0
.LVL164:
	.loc 1 618 1 view .LVU532
	mov	r4, r2
	.loc 1 620 10 view .LVU533
	strb	r3, [sp, #12]
	.loc 1 622 2 is_stmt 1 view .LVU534
	.loc 1 622 8 is_stmt 0 view .LVU535
	bl	find_cf_cfg
.LVL165:
	.loc 1 623 2 is_stmt 1 view .LVU536
	.loc 1 623 5 is_stmt 0 view .LVU537
	cbz	r0, .L166
	.loc 1 624 2 is_stmt 1 discriminator 1 view .LVU538
	.loc 1 624 24 is_stmt 0 discriminator 1 view .LVU539
	ldrb	r3, [r0, #8]	@ zero_extendqisi2
	strb	r3, [sp, #12]
.L166:
	.loc 1 627 2 is_stmt 1 view .LVU540
	.loc 1 627 9 is_stmt 0 view .LVU541
	movs	r3, #1
	str	r3, [sp]
	ldrh	r2, [sp, #32]
	add	r3, sp, #12
	mov	r1, r5
	mov	r0, r4
.LVL166:
	.loc 1 627 9 view .LVU542
	bl	bt_gatt_attr_read.constprop.0
.LVL167:
	.loc 1 629 1 view .LVU543
	add	sp, sp, #20
	.cfi_def_cfa_offset 12
	@ sp needed
	pop	{r4, r5, pc}
	.loc 1 629 1 view .LVU544
	.cfi_endproc
.LFE617:
	.size	cf_read, .-cf_read
	.section	.text.read_name,"ax",%progbits
	.align	1
	.syntax unified
	.thumb
	.thumb_func
	.type	read_name, %function
read_name:
.LVL168:
.LFB599:
	.loc 1 99 1 is_stmt 1 view -0
	.cfi_startproc
	@ args = 4, pretend = 0, frame = 0
	@ frame_needed = 0, uses_anonymous_args = 0
	.loc 1 100 2 view .LVU546
	.loc 1 99 1 is_stmt 0 view .LVU547
	push	{r4, r5, r6, r7, r8, lr}
	.cfi_def_cfa_offset 24
	.cfi_offset 4, -24
	.cfi_offset 5, -20
	.cfi_offset 6, -16
	.cfi_offset 7, -12
	.cfi_offset 8, -8
	.cfi_offset 14, -4
	.loc 1 99 1 view .LVU548
	mov	r4, r2
	mov	r5, r3
	ldrh	r7, [sp, #24]
	.loc 1 100 21 view .LVU549
	bl	bt_get_name
.LVL169:
	.loc 1 100 21 view .LVU550
	mov	r6, r0
.LVL170:
	.loc 1 102 2 is_stmt 1 view .LVU551
	.loc 1 103 6 is_stmt 0 view .LVU552
	bl	strlen
.LVL171:
	.loc 1 102 9 view .LVU553
	uxth	r0, r0
	str	r0, [sp, #24]
.LVL172:
	.loc 1 102 9 view .LVU554
	mov	r3, r6
	mov	r2, r7
	mov	r1, r5
	mov	r0, r4
	.loc 1 104 1 view .LVU555
	pop	{r4, r5, r6, r7, r8, lr}
	.cfi_restore 14
	.cfi_restore 8
	.cfi_restore 7
	.cfi_restore 6
	.cfi_restore 5
	.cfi_restore 4
	.cfi_def_cfa_offset 0
.LVL173:
	.loc 1 102 9 view .LVU556
	b	bt_gatt_attr_read.constprop.0
.LVL174:
	.loc 1 102 9 view .LVU557
	.cfi_endproc
.LFE599:
	.size	read_name, .-read_name
	.section	.text.read_appearance,"ax",%progbits
	.align	1
	.syntax unified
	.thumb
	.thumb_func
	.type	read_appearance, %function
read_appearance:
.LVL175:
.LFB601:
	.loc 1 134 1 is_stmt 1 view -0
	.cfi_startproc
	@ args = 4, pretend = 0, frame = 8
	@ frame_needed = 0, uses_anonymous_args = 0
	.loc 1 135 2 view .LVU559
	.loc 1 134 1 is_stmt 0 view .LVU560
	push	{r4, r5, lr}
	.cfi_def_cfa_offset 12
	.cfi_offset 4, -12
	.cfi_offset 5, -8
	.cfi_offset 14, -4
	sub	sp, sp, #20
	.cfi_def_cfa_offset 32
	.loc 1 134 1 view .LVU561
	mov	r4, r2
	mov	r5, r3
	.loc 1 135 25 view .LVU562
	bl	bt_get_appearance
.LVL176:
	.loc 1 137 9 view .LVU563
	movs	r3, #2
	.loc 1 135 11 view .LVU564
	strh	r0, [sp, #14]	@ movhi
	.loc 1 137 2 is_stmt 1 view .LVU565
	.loc 1 137 9 is_stmt 0 view .LVU566
	str	r3, [sp]
	ldrh	r2, [sp, #32]
	add	r3, sp, #14
	mov	r1, r5
	mov	r0, r4
	bl	bt_gatt_attr_read.constprop.0
.LVL177:
	.loc 1 139 1 view .LVU567
	add	sp, sp, #20
	.cfi_def_cfa_offset 12
	@ sp needed
	pop	{r4, r5, pc}
	.loc 1 139 1 view .LVU568
	.cfi_endproc
.LFE601:
	.size	read_appearance, .-read_appearance
	.section	.text.read_ppcp,"ax",%progbits
	.align	1
	.syntax unified
	.thumb
	.thumb_func
	.type	read_ppcp, %function
read_ppcp:
.LVL178:
.LFB602:
	.loc 1 199 1 is_stmt 1 view -0
	.cfi_startproc
	@ args = 4, pretend = 0, frame = 8
	@ frame_needed = 0, uses_anonymous_args = 0
	.loc 1 200 2 view .LVU570
	.loc 1 207 2 view .LVU571
	.loc 1 208 2 view .LVU572
	.loc 1 209 2 view .LVU573
	.loc 1 210 2 view .LVU574
	.loc 1 199 1 is_stmt 0 view .LVU575
	push	{r0, r1, r2, r3, r4, lr}
	.cfi_def_cfa_offset 24
	.cfi_offset 14, -4
	.loc 1 199 1 view .LVU576
	mov	r1, r3
.LVL179:
	.loc 1 199 1 view .LVU577
	mov	r0, r2
.LVL180:
	.loc 1 209 15 view .LVU578
	ldr	r3, .L173
.LVL181:
	.loc 1 209 15 view .LVU579
	ldr	r2, .L173+4
.LVL182:
	.loc 1 209 15 view .LVU580
	strd	r2, r3, [sp, #8]
	.loc 1 212 2 is_stmt 1 view .LVU581
	.loc 1 212 9 is_stmt 0 view .LVU582
	movs	r3, #8
	str	r3, [sp]
	ldrh	r2, [sp, #24]
	add	r3, sp, r3
	bl	bt_gatt_attr_read.constprop.0
.LVL183:
	.loc 1 214 1 view .LVU583
	add	sp, sp, #20
	.cfi_def_cfa_offset 4
	@ sp needed
	ldr	pc, [sp], #4
.LVL184:
.L174:
	.loc 1 214 1 view .LVU584
	.align	2
.L173:
	.word	26214430
	.word	786438
	.cfi_endproc
.LFE602:
	.size	read_ppcp, .-read_ppcp
	.section	.text.z_log_msg_static_create.constprop.0,"ax",%progbits
	.align	1
	.syntax unified
	.thumb
	.thumb_func
	.type	z_log_msg_static_create.constprop.0, %function
z_log_msg_static_create.constprop.0:
.LVL185:
.LFB727:
	.file 6 "/home/g/mise-work/zmk-firmware/zmk/app/build/zephyr/include/generated/syscalls/log_msg.h"
	.loc 6 26 20 is_stmt 1 view -0
	.cfi_startproc
	@ args = 0, pretend = 0, frame = 0
	@ frame_needed = 0, uses_anonymous_args = 0
	@ link register save eliminated.
	.loc 6 38 2 view .LVU586
	.loc 6 38 7 view .LVU587
	.loc 6 38 5 view .LVU588
	.loc 6 39 2 view .LVU589
	movs	r3, #0
	b	z_impl_z_log_msg_static_create
.LVL186:
	.loc 6 39 2 is_stmt 0 view .LVU590
	.cfi_endproc
.LFE727:
	.size	z_log_msg_static_create.constprop.0, .-z_log_msg_static_create.constprop.0
	.section	.rodata.ccc_set_direct.part.0.str1.1,"aMS",%progbits,1
.LC0:
	.ascii	"Invalid key\000"
	.section	.text.ccc_set_direct.part.0,"ax",%progbits
	.align	1
	.syntax unified
	.thumb
	.thumb_func
	.type	ccc_set_direct.part.0, %function
ccc_set_direct.part.0:
.LFB724:
	.loc 1 5646 12 is_stmt 1 view -0
	.cfi_startproc
	@ args = 0, pretend = 0, frame = 24
	@ frame_needed = 0, uses_anonymous_args = 0
.LVL187:
.LBB2592:
	.loc 1 5656 4 view .LVU592
.LBB2593:
	.loc 1 5656 9 view .LVU593
	.loc 1 5656 58 view .LVU594
	.loc 1 5656 15 view .LVU595
	.loc 1 5656 3 view .LVU596
	.loc 1 5656 42 view .LVU597
	.loc 1 5656 177 view .LVU598
	.loc 1 5656 188 view .LVU599
	.loc 1 5656 276 view .LVU600
	.loc 1 5656 4 view .LVU601
	.loc 1 5656 4 view .LVU602
.LBB2594:
	.loc 1 5656 9 view .LVU603
	.loc 1 5656 3 view .LVU604
.LBE2594:
.LBE2593:
.LBE2592:
	.loc 1 5656 4 view .LVU605
	.loc 1 5656 13 view .LVU606
	.loc 1 5656 108 view .LVU607
	.loc 1 5656 4 view .LVU608
.LBB2620:
.LBB2615:
.LBB2610:
	.loc 1 5656 13 view .LVU609
	.loc 1 5656 103 view .LVU610
	.loc 1 5656 105 view .LVU611
.LBB2595:
	.loc 1 5656 110 view .LVU612
	.loc 1 5656 121 view .LVU613
	.loc 1 5656 210 view .LVU614
	.loc 1 5656 27 view .LVU615
.LBE2595:
.LBE2610:
.LBE2615:
.LBE2620:
	.loc 1 5656 4 view .LVU616
	.loc 1 5656 369 view .LVU617
	.loc 1 5656 76 view .LVU618
	.loc 1 5656 3 view .LVU619
	.loc 1 5656 3 view .LVU620
	.loc 1 5656 3 view .LVU621
	.loc 1 5656 39 view .LVU622
	.loc 1 5656 5 view .LVU623
	.loc 1 5656 31 view .LVU624
	.loc 1 5656 57 view .LVU625
	.loc 1 5656 80 view .LVU626
	.loc 1 5656 142 view .LVU627
	.loc 1 5656 199 view .LVU628
	.loc 1 5656 264 view .LVU629
	.loc 1 5656 289 view .LVU630
	.loc 1 5656 290 view .LVU631
	.loc 1 5656 292 view .LVU632
	.loc 1 5656 322 view .LVU633
	.loc 1 5656 352 view .LVU634
	.loc 1 5656 384 view .LVU635
	.loc 1 5656 416 view .LVU636
	.loc 1 5656 448 view .LVU637
	.loc 1 5656 645 view .LVU638
	.loc 1 5656 669 view .LVU639
	.loc 1 5656 670 view .LVU640
	.loc 1 5656 672 view .LVU641
	.loc 1 5656 701 view .LVU642
	.loc 1 5656 730 view .LVU643
	.loc 1 5656 761 view .LVU644
	.loc 1 5656 792 view .LVU645
	.loc 1 5656 823 view .LVU646
	.loc 1 5656 1030 view .LVU647
	.loc 1 5656 5 view .LVU648
	.loc 1 5656 23 view .LVU649
	.loc 1 5656 43 view .LVU650
	.loc 1 5656 5 view .LVU651
	.loc 1 5656 43 view .LVU652
	.loc 1 5656 14 view .LVU653
	.loc 1 5656 14 view .LVU654
	.loc 1 5656 62 view .LVU655
	.loc 1 5656 93 view .LVU656
	.loc 1 5656 127 view .LVU657
	.loc 1 5656 132 view .LVU658
	.loc 1 5656 367 view .LVU659
	.loc 1 5656 1360 view .LVU660
	.loc 1 5656 1425 view .LVU661
	.loc 1 5656 1449 view .LVU662
	.loc 1 5656 1488 view .LVU663
	.loc 1 5656 1499 view .LVU664
	.loc 1 5656 1596 view .LVU665
	.loc 1 5656 1612 view .LVU666
	.loc 1 5656 1652 view .LVU667
	.loc 1 5656 1677 view .LVU668
	.loc 1 5656 2936 view .LVU669
	.loc 1 5656 2977 view .LVU670
	.loc 1 5656 8 view .LVU671
	.loc 1 5656 31 view .LVU672
	.loc 1 5656 130 view .LVU673
	.loc 1 5656 6 view .LVU674
	.loc 1 5656 29 view .LVU675
	.loc 1 5656 53 view .LVU676
	.loc 1 5656 81 view .LVU677
	.loc 1 5656 257 view .LVU678
	.loc 1 5656 17 view .LVU679
.LBB2621:
.LBB2616:
.LBB2611:
.LBB2606:
	.loc 1 5656 30 view .LVU680
	.loc 1 5656 4 view .LVU681
	.loc 1 5656 4 view .LVU682
	.loc 1 5656 71 view .LVU683
	.loc 1 5656 71 is_stmt 0 view .LVU684
.LBE2606:
.LBE2611:
.LBE2616:
.LBE2621:
	.loc 1 5646 12 view .LVU685
	push	{r0, r1, r2, r3, r4, r5, r6, lr}
	.cfi_def_cfa_offset 32
	.cfi_offset 14, -4
.LVL188:
.LBB2622:
.LBB2617:
.LBB2612:
.LBB2607:
	.loc 1 5656 75 is_stmt 1 view .LVU686
	.loc 1 5656 485 view .LVU687
	.loc 1 5656 6 view .LVU688
	.loc 1 5656 8 view .LVU689
	.loc 1 5656 13 view .LVU690
	.loc 1 5656 11 view .LVU691
	.loc 1 5656 6 view .LVU692
	.loc 1 5656 24 view .LVU693
.LBB2596:
	.loc 1 5656 4 view .LVU694
	.loc 1 5656 369 view .LVU695
	.loc 1 5656 76 view .LVU696
.LVL189:
	.loc 1 5656 3 view .LVU697
	.loc 1 5656 3 view .LVU698
	.loc 1 5656 3 view .LVU699
	.loc 1 5656 39 view .LVU700
	.loc 1 5656 68 view .LVU701
	.loc 1 5656 94 view .LVU702
	.loc 1 5656 120 view .LVU703
	.loc 1 5656 143 view .LVU704
	.loc 1 5656 205 view .LVU705
	.loc 1 5656 262 view .LVU706
	.loc 1 5656 327 view .LVU707
	.loc 1 5656 352 view .LVU708
	.loc 1 5656 353 view .LVU709
	.loc 1 5656 355 view .LVU710
	.loc 1 5656 385 view .LVU711
	.loc 1 5656 415 view .LVU712
	.loc 1 5656 447 view .LVU713
	.loc 1 5656 479 view .LVU714
	.loc 1 5656 511 view .LVU715
	.loc 1 5656 708 view .LVU716
	.loc 1 5656 732 view .LVU717
	.loc 1 5656 733 view .LVU718
	.loc 1 5656 735 view .LVU719
	.loc 1 5656 764 view .LVU720
	.loc 1 5656 793 view .LVU721
	.loc 1 5656 824 view .LVU722
	.loc 1 5656 855 view .LVU723
	.loc 1 5656 886 view .LVU724
	.loc 1 5656 1093 view .LVU725
	.loc 1 5656 5 view .LVU726
	.loc 1 5656 23 view .LVU727
	.loc 1 5656 43 view .LVU728
	.loc 1 5656 5 view .LVU729
	.loc 1 5656 43 view .LVU730
	.loc 1 5656 14 view .LVU731
	.loc 1 5656 14 view .LVU732
	.loc 1 5656 62 view .LVU733
	.loc 1 5656 93 view .LVU734
	.loc 1 5656 127 view .LVU735
.LBB2597:
	.loc 1 5656 132 view .LVU736
	.loc 1 5656 367 view .LVU737
	.loc 1 5656 1360 view .LVU738
	.loc 1 5656 1425 view .LVU739
.LBE2597:
.LBE2596:
.LBE2607:
.LBE2612:
.LBE2617:
.LBE2622:
	.loc 1 5656 1449 view .LVU740
	.loc 1 5656 1488 view .LVU741
	.loc 1 5656 1499 view .LVU742
	.loc 1 5656 1596 view .LVU743
.LBB2623:
.LBB2618:
.LBB2613:
.LBB2608:
.LBB2602:
.LBB2598:
	.loc 1 5656 1612 view .LVU744
	.loc 1 5656 1652 view .LVU745
	.loc 1 5656 1677 view .LVU746
	.loc 1 5656 2936 view .LVU747
	.loc 1 5656 2974 view .LVU748
	.loc 1 5656 2979 view .LVU749
	.loc 1 5656 3483 view .LVU750
	.loc 1 5656 4092 is_stmt 0 view .LVU751
	ldr	r3, .L177
	str	r3, [sp, #20]
	.loc 1 5656 2977 is_stmt 1 view .LVU752
	.loc 1 5656 8 view .LVU753
.LVL190:
	.loc 1 5656 31 view .LVU754
	.loc 1 5656 31 is_stmt 0 view .LVU755
.LBE2598:
	.loc 1 5656 130 is_stmt 1 view .LVU756
	.loc 1 5656 6 view .LVU757
	.loc 1 5656 29 view .LVU758
	.loc 1 5656 53 view .LVU759
	.loc 1 5656 81 view .LVU760
.LBE2602:
.LBE2608:
.LBE2613:
.LBE2618:
.LBE2623:
	.loc 1 5656 7 view .LVU761
	.loc 1 5656 46 view .LVU762
	.loc 1 5656 51 view .LVU763
	.loc 1 5656 81 view .LVU764
	.loc 1 5656 148 view .LVU765
	.loc 1 5656 153 view .LVU766
	.loc 1 5656 183 view .LVU767
.LBB2624:
.LBB2619:
.LBB2614:
.LBB2609:
.LBB2603:
	.loc 1 5656 257 view .LVU768
	.loc 1 5656 17 view .LVU769
.LBB2599:
	.loc 1 5656 7 view .LVU770
	.loc 1 5656 165 view .LVU771
	.loc 1 5656 167 view .LVU772
.LBE2599:
.LBE2603:
	.loc 1 5656 150 is_stmt 0 view .LVU773
	ldr	r0, .L177+4
.LBB2604:
.LBB2600:
	.loc 1 5656 177 view .LVU774
	movs	r3, #2
.LBE2600:
.LBE2604:
	.loc 1 5656 150 view .LVU775
	add	r2, sp, #16
.LVL191:
	.loc 1 5656 150 view .LVU776
	mov	r1, #4160
.LBB2605:
.LBB2601:
	.loc 1 5656 177 view .LVU777
	str	r3, [sp, #16]
.LVL192:
	.loc 1 5656 177 view .LVU778
.LBE2601:
.LBE2605:
	.loc 1 5656 27 is_stmt 1 view .LVU779
	.loc 1 5656 8 view .LVU780
	.loc 1 5656 148 view .LVU781
	.loc 1 5656 150 view .LVU782
	bl	z_log_msg_static_create.constprop.0
.LVL193:
	.loc 1 5656 150 is_stmt 0 view .LVU783
.LBE2609:
	.loc 1 5656 108 is_stmt 1 view .LVU784
	.loc 1 5656 6 view .LVU785
	.loc 1 5656 43 view .LVU786
.LBE2614:
	.loc 1 5656 7 view .LVU787
	.loc 1 5656 279 view .LVU788
	.loc 1 5656 6 view .LVU789
	.loc 1 5656 19 view .LVU790
.LBE2619:
	.loc 1 5656 7 view .LVU791
	.loc 1 5657 4 view .LVU792
.LBE2624:
	.loc 1 5663 1 is_stmt 0 view .LVU793
	mvn	r0, #21
	add	sp, sp, #28
	.cfi_def_cfa_offset 4
.LVL194:
	.loc 1 5663 1 view .LVU794
	@ sp needed
	ldr	pc, [sp], #4
.LVL195:
.L178:
	.loc 1 5663 1 view .LVU795
	.align	2
.L177:
	.word	.LC0
	.word	log_const_bt_gatt
	.cfi_endproc
.LFE724:
	.size	ccc_set_direct.part.0, .-ccc_set_direct.part.0
	.section	.rodata.sc_set.str1.1,"aMS",%progbits,1
.LC1:
	.ascii	"Insufficient number of arguments\000"
.LC2:
	.ascii	"Unable to decode address %s\000"
.LC3:
	.ascii	"Invalid local identity %lu\000"
.LC4:
	.ascii	"Unable to restore SC: no cfg left\000"
.LC5:
	.ascii	"Failed to decode value (err %zd)\000"
	.section	.text.sc_set,"ax",%progbits
	.align	1
	.syntax unified
	.thumb
	.thumb_func
	.type	sc_set, %function
sc_set:
.LVL196:
.LFB697:
	.loc 1 5921 1 is_stmt 1 view -0
	.cfi_startproc
	@ args = 0, pretend = 0, frame = 40
	@ frame_needed = 1, uses_anonymous_args = 0
	.loc 1 5922 2 view .LVU797
	.loc 1 5923 2 view .LVU798
	.loc 1 5924 2 view .LVU799
	.loc 1 5925 2 view .LVU800
	.loc 1 5926 2 view .LVU801
	.loc 1 5927 2 view .LVU802
	.loc 1 5929 2 view .LVU803
	.loc 1 5921 1 is_stmt 0 view .LVU804
	push	{r4, r5, r6, r7, r8, r9, lr}
	.cfi_def_cfa_offset 28
	.cfi_offset 4, -28
	.cfi_offset 5, -24
	.cfi_offset 6, -20
	.cfi_offset 7, -16
	.cfi_offset 8, -12
	.cfi_offset 9, -8
	.cfi_offset 14, -4
	sub	sp, sp, #44
	.cfi_def_cfa_offset 72
	mov	r6, r1
	add	r7, sp, #0
	.cfi_def_cfa_register 7
	.loc 1 5921 1 view .LVU805
	mov	r8, r2
	mov	r9, r3
	.loc 1 5929 5 view .LVU806
	mov	r4, r0
	cbnz	r0, .L180
	.loc 1 5930 3 is_stmt 1 view .LVU807
.LBB2625:
	.loc 1 5930 8 view .LVU808
	.loc 1 5930 57 view .LVU809
	.loc 1 5930 14 view .LVU810
	.loc 1 5930 2 view .LVU811
.LVL197:
	.loc 1 5930 41 view .LVU812
	.loc 1 5930 176 view .LVU813
	.loc 1 5930 187 view .LVU814
	.loc 1 5930 275 view .LVU815
	.loc 1 5930 3 view .LVU816
	.loc 1 5930 3 view .LVU817
.LBB2626:
	.loc 1 5930 8 view .LVU818
	.loc 1 5930 2 view .LVU819
.LBE2626:
.LBE2625:
	.loc 1 5930 3 view .LVU820
	.loc 1 5930 12 view .LVU821
	.loc 1 5930 107 view .LVU822
	.loc 1 5930 3 view .LVU823
.LBB2643:
.LBB2639:
	.loc 1 5930 12 view .LVU824
	.loc 1 5930 102 view .LVU825
	.loc 1 5930 104 view .LVU826
.LBB2627:
	.loc 1 5930 109 view .LVU827
	.loc 1 5930 120 view .LVU828
	.loc 1 5930 209 view .LVU829
	.loc 1 5930 26 view .LVU830
.LBE2627:
.LBE2639:
.LBE2643:
	.loc 1 5930 3 view .LVU831
	.loc 1 5930 368 view .LVU832
	.loc 1 5930 75 view .LVU833
	.loc 1 5930 2 view .LVU834
	.loc 1 5930 2 view .LVU835
	.loc 1 5930 2 view .LVU836
	.loc 1 5930 38 view .LVU837
	.loc 1 5930 4 view .LVU838
	.loc 1 5930 30 view .LVU839
	.loc 1 5930 56 view .LVU840
	.loc 1 5930 79 view .LVU841
	.loc 1 5930 141 view .LVU842
	.loc 1 5930 198 view .LVU843
	.loc 1 5930 263 view .LVU844
	.loc 1 5930 288 view .LVU845
	.loc 1 5930 289 view .LVU846
	.loc 1 5930 291 view .LVU847
	.loc 1 5930 321 view .LVU848
	.loc 1 5930 351 view .LVU849
	.loc 1 5930 383 view .LVU850
	.loc 1 5930 415 view .LVU851
	.loc 1 5930 447 view .LVU852
	.loc 1 5930 644 view .LVU853
	.loc 1 5930 668 view .LVU854
	.loc 1 5930 669 view .LVU855
	.loc 1 5930 671 view .LVU856
	.loc 1 5930 700 view .LVU857
	.loc 1 5930 729 view .LVU858
	.loc 1 5930 760 view .LVU859
	.loc 1 5930 791 view .LVU860
	.loc 1 5930 822 view .LVU861
	.loc 1 5930 1029 view .LVU862
	.loc 1 5930 4 view .LVU863
	.loc 1 5930 22 view .LVU864
	.loc 1 5930 42 view .LVU865
	.loc 1 5930 4 view .LVU866
	.loc 1 5930 42 view .LVU867
	.loc 1 5930 13 view .LVU868
	.loc 1 5930 13 view .LVU869
	.loc 1 5930 61 view .LVU870
	.loc 1 5930 92 view .LVU871
	.loc 1 5930 126 view .LVU872
	.loc 1 5930 131 view .LVU873
	.loc 1 5930 387 view .LVU874
	.loc 1 5930 1464 view .LVU875
	.loc 1 5930 1529 view .LVU876
	.loc 1 5930 1553 view .LVU877
	.loc 1 5930 1613 view .LVU878
	.loc 1 5930 1624 view .LVU879
	.loc 1 5930 1742 view .LVU880
	.loc 1 5930 1758 view .LVU881
	.loc 1 5930 1798 view .LVU882
	.loc 1 5930 1823 view .LVU883
	.loc 1 5930 3124 view .LVU884
	.loc 1 5930 3165 view .LVU885
	.loc 1 5930 7 view .LVU886
	.loc 1 5930 30 view .LVU887
	.loc 1 5930 129 view .LVU888
	.loc 1 5930 5 view .LVU889
	.loc 1 5930 28 view .LVU890
	.loc 1 5930 52 view .LVU891
	.loc 1 5930 80 view .LVU892
	.loc 1 5930 256 view .LVU893
	.loc 1 5930 16 view .LVU894
.LBB2644:
.LBB2640:
.LBB2636:
	.loc 1 5930 29 view .LVU895
	.loc 1 5930 3 view .LVU896
	.loc 1 5930 3 view .LVU897
	.loc 1 5930 70 view .LVU898
	.loc 1 5930 74 view .LVU899
	.loc 1 5930 484 view .LVU900
	.loc 1 5930 5 view .LVU901
	.loc 1 5930 7 view .LVU902
	.loc 1 5930 12 view .LVU903
	.loc 1 5930 10 view .LVU904
	.loc 1 5930 5 view .LVU905
	.loc 1 5930 23 view .LVU906
.LBB2628:
	.loc 1 5930 3 view .LVU907
	.loc 1 5930 368 view .LVU908
	.loc 1 5930 75 view .LVU909
.LVL198:
	.loc 1 5930 2 view .LVU910
	.loc 1 5930 2 view .LVU911
	.loc 1 5930 2 view .LVU912
	.loc 1 5930 38 view .LVU913
	.loc 1 5930 67 view .LVU914
	.loc 1 5930 93 view .LVU915
	.loc 1 5930 119 view .LVU916
	.loc 1 5930 142 view .LVU917
	.loc 1 5930 204 view .LVU918
	.loc 1 5930 261 view .LVU919
	.loc 1 5930 326 view .LVU920
	.loc 1 5930 351 view .LVU921
	.loc 1 5930 352 view .LVU922
	.loc 1 5930 354 view .LVU923
	.loc 1 5930 384 view .LVU924
	.loc 1 5930 414 view .LVU925
	.loc 1 5930 446 view .LVU926
	.loc 1 5930 478 view .LVU927
	.loc 1 5930 510 view .LVU928
	.loc 1 5930 707 view .LVU929
	.loc 1 5930 731 view .LVU930
	.loc 1 5930 732 view .LVU931
	.loc 1 5930 734 view .LVU932
	.loc 1 5930 763 view .LVU933
	.loc 1 5930 792 view .LVU934
	.loc 1 5930 823 view .LVU935
	.loc 1 5930 854 view .LVU936
	.loc 1 5930 885 view .LVU937
	.loc 1 5930 1092 view .LVU938
	.loc 1 5930 4 view .LVU939
	.loc 1 5930 22 view .LVU940
	.loc 1 5930 42 view .LVU941
	.loc 1 5930 4 view .LVU942
	.loc 1 5930 42 view .LVU943
	.loc 1 5930 13 view .LVU944
	.loc 1 5930 13 view .LVU945
	.loc 1 5930 61 view .LVU946
	.loc 1 5930 92 view .LVU947
	.loc 1 5930 126 view .LVU948
.LBB2629:
	.loc 1 5930 131 view .LVU949
	.loc 1 5930 387 view .LVU950
	.loc 1 5930 1464 view .LVU951
	.loc 1 5930 1529 view .LVU952
.LBE2629:
.LBE2628:
.LBE2636:
.LBE2640:
.LBE2644:
	.loc 1 5930 1553 view .LVU953
	.loc 1 5930 1613 view .LVU954
	.loc 1 5930 1624 view .LVU955
	.loc 1 5930 1742 view .LVU956
.LBB2645:
.LBB2641:
.LBB2637:
.LBB2633:
.LBB2630:
	.loc 1 5930 1758 view .LVU957
	.loc 1 5930 1798 view .LVU958
	.loc 1 5930 1823 view .LVU959
	.loc 1 5930 3124 view .LVU960
	.loc 1 5930 3162 view .LVU961
	.loc 1 5930 3167 view .LVU962
	.loc 1 5930 3797 view .LVU963
	.loc 1 5930 0 is_stmt 0 view .LVU964
	ldr	r3, .L198
.LVL199:
	.loc 1 5930 0 view .LVU965
	str	r3, [r7, #36]
	.loc 1 5930 3165 is_stmt 1 view .LVU966
	.loc 1 5930 7 view .LVU967
.LVL200:
	.loc 1 5930 30 view .LVU968
	.loc 1 5930 30 is_stmt 0 view .LVU969
.LBE2630:
	.loc 1 5930 129 is_stmt 1 view .LVU970
	.loc 1 5930 5 view .LVU971
	.loc 1 5930 28 view .LVU972
	.loc 1 5930 52 view .LVU973
	.loc 1 5930 80 view .LVU974
.LBE2633:
.LBE2637:
.LBE2641:
.LBE2645:
	.loc 1 5930 6 view .LVU975
	.loc 1 5930 45 view .LVU976
	.loc 1 5930 50 view .LVU977
	.loc 1 5930 80 view .LVU978
	.loc 1 5930 147 view .LVU979
	.loc 1 5930 152 view .LVU980
	.loc 1 5930 182 view .LVU981
.LBB2646:
.LBB2642:
.LBB2638:
.LBB2634:
	.loc 1 5930 256 view .LVU982
	.loc 1 5930 16 view .LVU983
.LBB2631:
	.loc 1 5930 6 view .LVU984
	.loc 1 5930 164 view .LVU985
	.loc 1 5930 166 view .LVU986
	.loc 1 5930 176 is_stmt 0 view .LVU987
	movs	r3, #2
.LBE2631:
.LBE2634:
	.loc 1 5930 149 view .LVU988
	ldr	r0, .L198+4
.LVL201:
.LBB2635:
.LBB2632:
	.loc 1 5930 176 view .LVU989
	str	r3, [r7, #32]
.LVL202:
	.loc 1 5930 176 view .LVU990
.LBE2632:
.LBE2635:
	.loc 1 5930 26 is_stmt 1 view .LVU991
	.loc 1 5930 7 view .LVU992
	.loc 1 5930 147 view .LVU993
	.loc 1 5930 149 view .LVU994
	add	r2, r7, #32
.LVL203:
	.loc 1 5930 149 is_stmt 0 view .LVU995
	mov	r1, #4160
.LVL204:
	.loc 1 5930 149 view .LVU996
	bl	z_log_msg_static_create.constprop.0
.LVL205:
	.loc 1 5930 149 view .LVU997
.LBE2638:
	.loc 1 5930 107 is_stmt 1 view .LVU998
	.loc 1 5930 5 view .LVU999
.LVL206:
	.loc 1 5930 42 view .LVU1000
.LBE2642:
	.loc 1 5930 6 view .LVU1001
	.loc 1 5930 278 view .LVU1002
	.loc 1 5930 5 view .LVU1003
	.loc 1 5930 18 view .LVU1004
.LBE2646:
	.loc 1 5930 6 view .LVU1005
	.loc 1 5931 3 view .LVU1006
.L181:
	.loc 1 5931 10 is_stmt 0 view .LVU1007
	mvn	r5, #21
.L179:
	.loc 1 5986 1 view .LVU1008
	mov	r0, r5
	adds	r7, r7, #44
	.cfi_remember_state
	.cfi_def_cfa_offset 28
	mov	sp, r7
	.cfi_def_cfa_register 13
	@ sp needed
	pop	{r4, r5, r6, r7, r8, r9, pc}
.LVL207:
.L180:
	.cfi_restore_state
	.loc 1 5934 2 is_stmt 1 view .LVU1009
	.loc 1 5934 8 is_stmt 0 view .LVU1010
	add	r1, r7, #8
.LVL208:
	.loc 1 5934 8 view .LVU1011
	bl	bt_settings_decode_key
.LVL209:
	.loc 1 5935 2 is_stmt 1 view .LVU1012
	.loc 1 5935 5 is_stmt 0 view .LVU1013
	mov	r5, r0
	cbz	r0, .L182
	.loc 1 5936 3 is_stmt 1 view .LVU1014
.LBB2647:
	.loc 1 5936 8 view .LVU1015
	.loc 1 5936 57 view .LVU1016
	.loc 1 5936 14 view .LVU1017
	.loc 1 5936 2 view .LVU1018
.LVL210:
	.loc 1 5936 41 view .LVU1019
	.loc 1 5936 176 view .LVU1020
	.loc 1 5936 187 view .LVU1021
	.loc 1 5936 275 view .LVU1022
.LBB2648:
	.loc 1 5936 3 view .LVU1023
	.loc 1 5936 5 view .LVU1024
	.loc 1 5936 3 view .LVU1025
.LBB2649:
	.loc 1 5936 8 view .LVU1026
	.loc 1 5936 2 view .LVU1027
.LBE2649:
.LBE2648:
.LBE2647:
	.loc 1 5936 3 view .LVU1028
	.loc 1 5936 12 view .LVU1029
	.loc 1 5936 107 view .LVU1030
	.loc 1 5936 3 view .LVU1031
.LBB2668:
.LBB2665:
.LBB2662:
	.loc 1 5936 12 view .LVU1032
	.loc 1 5936 102 view .LVU1033
	.loc 1 5936 104 view .LVU1034
.LBB2650:
	.loc 1 5936 107 is_stmt 0 view .LVU1035
	mov	r5, sp
	.loc 1 5936 109 is_stmt 1 view .LVU1036
	.loc 1 5936 120 view .LVU1037
.LVL211:
	.loc 1 5936 209 view .LVU1038
	.loc 1 5936 26 view .LVU1039
.LBE2650:
.LBE2662:
.LBE2665:
.LBE2668:
	.loc 1 5936 3 view .LVU1040
	.loc 1 5936 368 view .LVU1041
	.loc 1 5936 75 view .LVU1042
	.loc 1 5936 2 view .LVU1043
	.loc 1 5936 2 view .LVU1044
	.loc 1 5936 2 view .LVU1045
	.loc 1 5936 38 view .LVU1046
	.loc 1 5936 4 view .LVU1047
	.loc 1 5936 30 view .LVU1048
	.loc 1 5936 56 view .LVU1049
	.loc 1 5936 523 view .LVU1050
	.loc 1 5936 585 view .LVU1051
	.loc 1 5936 1106 view .LVU1052
	.loc 1 5936 1171 view .LVU1053
	.loc 1 5936 1196 view .LVU1054
	.loc 1 5936 1197 view .LVU1055
	.loc 1 5936 1199 view .LVU1056
	.loc 1 5936 1229 view .LVU1057
	.loc 1 5936 1259 view .LVU1058
	.loc 1 5936 1291 view .LVU1059
	.loc 1 5936 1323 view .LVU1060
	.loc 1 5936 1355 view .LVU1061
	.loc 1 5936 1552 view .LVU1062
	.loc 1 5936 1576 view .LVU1063
	.loc 1 5936 1577 view .LVU1064
	.loc 1 5936 1579 view .LVU1065
	.loc 1 5936 1608 view .LVU1066
	.loc 1 5936 1637 view .LVU1067
	.loc 1 5936 1668 view .LVU1068
	.loc 1 5936 1699 view .LVU1069
	.loc 1 5936 1730 view .LVU1070
	.loc 1 5936 1937 view .LVU1071
	.loc 1 5936 4 view .LVU1072
	.loc 1 5936 22 view .LVU1073
	.loc 1 5936 42 view .LVU1074
	.loc 1 5936 4 view .LVU1075
	.loc 1 5936 42 view .LVU1076
	.loc 1 5936 13 view .LVU1077
	.loc 1 5936 13 view .LVU1078
	.loc 1 5936 61 view .LVU1079
	.loc 1 5936 92 view .LVU1080
	.loc 1 5936 126 view .LVU1081
	.loc 1 5936 131 view .LVU1082
	.loc 1 5936 382 view .LVU1083
	.loc 1 5936 1439 view .LVU1084
	.loc 1 5936 1504 view .LVU1085
	.loc 1 5936 1528 view .LVU1086
	.loc 1 5936 1583 view .LVU1087
	.loc 1 5936 1594 view .LVU1088
	.loc 1 5936 1707 view .LVU1089
	.loc 1 5936 1723 view .LVU1090
	.loc 1 5936 1763 view .LVU1091
	.loc 1 5936 1788 view .LVU1092
	.loc 1 5936 3079 view .LVU1093
	.loc 1 5936 3120 view .LVU1094
	.loc 1 5936 7 view .LVU1095
	.loc 1 5936 30 view .LVU1096
	.loc 1 5936 129 view .LVU1097
	.loc 1 5936 6 view .LVU1098
	.loc 1 5936 11 view .LVU1099
	.loc 1 5936 236 view .LVU1100
	.loc 1 5936 1189 view .LVU1101
	.loc 1 5936 1254 view .LVU1102
	.loc 1 5936 1278 view .LVU1103
	.loc 1 5936 1307 view .LVU1104
	.loc 1 5936 1318 view .LVU1105
	.loc 1 5936 1405 view .LVU1106
	.loc 1 5936 1421 view .LVU1107
	.loc 1 5936 1461 view .LVU1108
	.loc 1 5936 1551 view .LVU1109
	.loc 1 5936 1954 view .LVU1110
	.loc 1 5936 2611 view .LVU1111
	.loc 1 5936 2630 view .LVU1112
	.loc 1 5936 2667 view .LVU1113
	.loc 1 5936 2725 view .LVU1114
	.loc 1 5936 2766 view .LVU1115
	.loc 1 5936 7 view .LVU1116
	.loc 1 5936 30 view .LVU1117
	.loc 1 5936 9 view .LVU1118
	.loc 1 5936 5 view .LVU1119
	.loc 1 5936 28 view .LVU1120
	.loc 1 5936 52 view .LVU1121
	.loc 1 5936 80 view .LVU1122
	.loc 1 5936 256 view .LVU1123
	.loc 1 5936 16 view .LVU1124
.LBB2669:
.LBB2666:
.LBB2663:
.LBB2660:
	.loc 1 5936 29 view .LVU1125
	.loc 1 5936 3 view .LVU1126
	.loc 1 5936 3 view .LVU1127
	.loc 1 5936 70 view .LVU1128
	.loc 1 5936 82 is_stmt 0 view .LVU1129
	sub	sp, sp, #32
	mov	r2, sp
.LVL212:
	.loc 1 5936 74 is_stmt 1 view .LVU1130
	.loc 1 5936 484 view .LVU1131
	.loc 1 5936 5 view .LVU1132
	.loc 1 5936 7 view .LVU1133
	.loc 1 5936 12 view .LVU1134
	.loc 1 5936 10 view .LVU1135
	.loc 1 5936 5 view .LVU1136
	.loc 1 5936 23 view .LVU1137
.LBB2651:
	.loc 1 5936 3 view .LVU1138
	.loc 1 5936 368 view .LVU1139
	.loc 1 5936 75 view .LVU1140
.LVL213:
	.loc 1 5936 2 view .LVU1141
	.loc 1 5936 2 view .LVU1142
	.loc 1 5936 2 view .LVU1143
	.loc 1 5936 38 view .LVU1144
	.loc 1 5936 67 view .LVU1145
	.loc 1 5936 93 view .LVU1146
	.loc 1 5936 119 view .LVU1147
	.loc 1 5936 586 view .LVU1148
	.loc 1 5936 648 view .LVU1149
	.loc 1 5936 1169 view .LVU1150
	.loc 1 5936 1234 view .LVU1151
	.loc 1 5936 1259 view .LVU1152
	.loc 1 5936 1260 view .LVU1153
	.loc 1 5936 1262 view .LVU1154
	.loc 1 5936 1292 view .LVU1155
	.loc 1 5936 1322 view .LVU1156
	.loc 1 5936 1354 view .LVU1157
	.loc 1 5936 1386 view .LVU1158
	.loc 1 5936 1418 view .LVU1159
	.loc 1 5936 1615 view .LVU1160
	.loc 1 5936 1639 view .LVU1161
	.loc 1 5936 1640 view .LVU1162
	.loc 1 5936 1642 view .LVU1163
	.loc 1 5936 1671 view .LVU1164
	.loc 1 5936 1700 view .LVU1165
	.loc 1 5936 1731 view .LVU1166
	.loc 1 5936 1762 view .LVU1167
	.loc 1 5936 1793 view .LVU1168
	.loc 1 5936 2000 view .LVU1169
.LBB2652:
	.loc 1 5936 3117 view .LVU1170
	.loc 1 5936 3122 view .LVU1171
	.loc 1 5936 3722 view .LVU1172
	.loc 1 5936 0 is_stmt 0 view .LVU1173
	ldr	r3, .L198+8
.LBE2652:
.LBE2651:
	.loc 1 5936 149 view .LVU1174
	ldr	r0, .L198+4
.LVL214:
.LBB2658:
.LBB2653:
	.loc 1 5936 3811 view .LVU1175
	strd	r3, r4, [r2, #20]
	.loc 1 5936 2766 is_stmt 1 view .LVU1176
	.loc 1 5936 7 view .LVU1177
.LVL215:
	.loc 1 5936 30 view .LVU1178
	.loc 1 5936 30 is_stmt 0 view .LVU1179
.LBE2653:
	.loc 1 5936 9 is_stmt 1 view .LVU1180
	.loc 1 5936 5 view .LVU1181
	.loc 1 5936 28 view .LVU1182
	.loc 1 5936 52 view .LVU1183
	.loc 1 5936 80 view .LVU1184
.LBB2654:
	.loc 1 5936 6 view .LVU1185
	.loc 1 5936 45 view .LVU1186
.LBE2654:
.LBE2658:
.LBE2660:
.LBE2663:
.LBE2666:
.LBE2669:
	.loc 1 5936 50 view .LVU1187
	.loc 1 5936 80 view .LVU1188
.LBB2670:
.LBB2667:
.LBB2664:
.LBB2661:
.LBB2659:
.LBB2656:
.LBB2655:
	.loc 1 5936 182 view .LVU1189
	.loc 1 5936 214 view .LVU1190
	.loc 1 5936 208 view .LVU1191
	.loc 1 5936 182 view .LVU1192
	.loc 1 5936 214 view .LVU1193
	.loc 1 5936 227 is_stmt 0 view .LVU1194
	mov	r3, #512
	strh	r3, [r2, #28]	@ movhi
	.loc 1 5936 208 is_stmt 1 view .LVU1195
.LVL216:
	.loc 1 5936 182 view .LVU1196
.LBE2655:
.LBE2656:
	.loc 1 5936 256 view .LVU1197
	.loc 1 5936 16 view .LVU1198
.LBB2657:
	.loc 1 5936 6 view .LVU1199
	.loc 1 5936 164 view .LVU1200
	.loc 1 5936 166 view .LVU1201
	.loc 1 5936 176 is_stmt 0 view .LVU1202
	ldr	r3, .L198+12
	str	r3, [r2, #16]!
.LVL217:
	.loc 1 5936 176 view .LVU1203
.LBE2657:
.LBE2659:
	.loc 1 5936 26 is_stmt 1 view .LVU1204
	.loc 1 5936 7 view .LVU1205
	.loc 1 5936 147 view .LVU1206
	.loc 1 5936 149 view .LVU1207
	mov	r1, #7232
	bl	z_log_msg_static_create.constprop.0
.LVL218:
	.loc 1 5936 149 is_stmt 0 view .LVU1208
	mov	sp, r5
.LVL219:
	.loc 1 5936 149 view .LVU1209
.LBE2661:
	.loc 1 5936 107 is_stmt 1 view .LVU1210
	.loc 1 5936 5 view .LVU1211
	.loc 1 5936 42 view .LVU1212
.LBE2664:
	.loc 1 5936 6 view .LVU1213
.LBE2667:
	.loc 1 5936 278 view .LVU1214
	.loc 1 5936 5 view .LVU1215
	.loc 1 5936 18 view .LVU1216
.LBE2670:
	.loc 1 5936 6 view .LVU1217
	.loc 1 5937 3 view .LVU1218
	.loc 1 5937 10 is_stmt 0 view .LVU1219
	b	.L181
.LVL220:
.L182:
	.loc 1 5940 2 is_stmt 1 view .LVU1220
	adds	r1, r7, #4
	mov	r0, r4
.LVL221:
	.loc 1 5940 2 is_stmt 0 view .LVU1221
	bl	settings_name_next
.LVL222:
	.loc 1 5942 2 is_stmt 1 view .LVU1222
	.loc 1 5942 6 is_stmt 0 view .LVU1223
	ldr	r0, [r7, #4]
	.loc 1 5942 5 view .LVU1224
	cbz	r0, .L184
.LBB2671:
	.loc 1 5945 3 is_stmt 1 view .LVU1225
	.loc 1 5945 27 is_stmt 0 view .LVU1226
	movs	r2, #10
	mov	r1, r5
	bl	strtoul
.LVL223:
	.loc 1 5947 3 is_stmt 1 view .LVU1227
	.loc 1 5947 6 is_stmt 0 view .LVU1228
	cbz	r0, .L184
	.loc 1 5948 4 is_stmt 1 view .LVU1229
.LBB2672:
	.loc 1 5948 9 view .LVU1230
	.loc 1 5948 58 view .LVU1231
	.loc 1 5948 15 view .LVU1232
	.loc 1 5948 3 view .LVU1233
.LVL224:
	.loc 1 5948 42 view .LVU1234
	.loc 1 5948 177 view .LVU1235
	.loc 1 5948 188 view .LVU1236
	.loc 1 5948 276 view .LVU1237
.LBB2673:
	.loc 1 5948 4 view .LVU1238
	.loc 1 5948 6 view .LVU1239
	.loc 1 5948 4 view .LVU1240
.LBB2674:
	.loc 1 5948 9 view .LVU1241
	.loc 1 5948 3 view .LVU1242
.LBE2674:
.LBE2673:
.LBE2672:
.LBE2671:
	.loc 1 5948 4 view .LVU1243
	.loc 1 5948 13 view .LVU1244
	.loc 1 5948 108 view .LVU1245
	.loc 1 5948 4 view .LVU1246
.LBB2687:
.LBB2685:
.LBB2683:
.LBB2681:
	.loc 1 5948 13 view .LVU1247
	.loc 1 5948 103 view .LVU1248
	.loc 1 5948 105 view .LVU1249
.LBB2675:
	.loc 1 5948 108 is_stmt 0 view .LVU1250
	mov	r4, sp
.LVL225:
	.loc 1 5948 110 is_stmt 1 view .LVU1251
	.loc 1 5948 121 view .LVU1252
	.loc 1 5948 210 view .LVU1253
	.loc 1 5948 27 view .LVU1254
.LBE2675:
.LBE2681:
.LBE2683:
.LBE2685:
.LBE2687:
	.loc 1 5948 4 view .LVU1255
	.loc 1 5948 369 view .LVU1256
	.loc 1 5948 76 view .LVU1257
	.loc 1 5948 3 view .LVU1258
	.loc 1 5948 3 view .LVU1259
	.loc 1 5948 3 view .LVU1260
	.loc 1 5948 39 view .LVU1261
	.loc 1 5948 5 view .LVU1262
	.loc 1 5948 31 view .LVU1263
	.loc 1 5948 57 view .LVU1264
	.loc 1 5948 524 view .LVU1265
	.loc 1 5948 586 view .LVU1266
	.loc 1 5948 1107 view .LVU1267
	.loc 1 5948 1172 view .LVU1268
	.loc 1 5948 1197 view .LVU1269
	.loc 1 5948 1198 view .LVU1270
	.loc 1 5948 1200 view .LVU1271
	.loc 1 5948 1230 view .LVU1272
	.loc 1 5948 1260 view .LVU1273
	.loc 1 5948 1292 view .LVU1274
	.loc 1 5948 1324 view .LVU1275
	.loc 1 5948 1356 view .LVU1276
	.loc 1 5948 1553 view .LVU1277
	.loc 1 5948 1577 view .LVU1278
	.loc 1 5948 1578 view .LVU1279
	.loc 1 5948 1580 view .LVU1280
	.loc 1 5948 1609 view .LVU1281
	.loc 1 5948 1638 view .LVU1282
	.loc 1 5948 1669 view .LVU1283
	.loc 1 5948 1700 view .LVU1284
	.loc 1 5948 1731 view .LVU1285
	.loc 1 5948 1938 view .LVU1286
	.loc 1 5948 5 view .LVU1287
	.loc 1 5948 23 view .LVU1288
	.loc 1 5948 43 view .LVU1289
	.loc 1 5948 5 view .LVU1290
	.loc 1 5948 43 view .LVU1291
	.loc 1 5948 14 view .LVU1292
	.loc 1 5948 14 view .LVU1293
	.loc 1 5948 62 view .LVU1294
	.loc 1 5948 93 view .LVU1295
	.loc 1 5948 127 view .LVU1296
	.loc 1 5948 132 view .LVU1297
	.loc 1 5948 382 view .LVU1298
	.loc 1 5948 1435 view .LVU1299
	.loc 1 5948 1500 view .LVU1300
	.loc 1 5948 1524 view .LVU1301
	.loc 1 5948 1578 view .LVU1302
	.loc 1 5948 1589 view .LVU1303
	.loc 1 5948 1701 view .LVU1304
	.loc 1 5948 1717 view .LVU1305
	.loc 1 5948 1757 view .LVU1306
	.loc 1 5948 1782 view .LVU1307
	.loc 1 5948 3071 view .LVU1308
	.loc 1 5948 3112 view .LVU1309
	.loc 1 5948 8 view .LVU1310
	.loc 1 5948 31 view .LVU1311
	.loc 1 5948 130 view .LVU1312
	.loc 1 5948 7 view .LVU1313
	.loc 1 5948 12 view .LVU1314
	.loc 1 5948 237 view .LVU1315
	.loc 1 5948 1190 view .LVU1316
	.loc 1 5948 1255 view .LVU1317
	.loc 1 5948 1279 view .LVU1318
	.loc 1 5948 1308 view .LVU1319
	.loc 1 5948 1319 view .LVU1320
	.loc 1 5948 1406 view .LVU1321
	.loc 1 5948 1422 view .LVU1322
	.loc 1 5948 1462 view .LVU1323
	.loc 1 5948 2726 view .LVU1324
	.loc 1 5948 2767 view .LVU1325
	.loc 1 5948 8 view .LVU1326
	.loc 1 5948 31 view .LVU1327
	.loc 1 5948 10 view .LVU1328
	.loc 1 5948 6 view .LVU1329
	.loc 1 5948 29 view .LVU1330
	.loc 1 5948 53 view .LVU1331
	.loc 1 5948 81 view .LVU1332
	.loc 1 5948 257 view .LVU1333
	.loc 1 5948 17 view .LVU1334
.LBB2688:
.LBB2686:
.LBB2684:
.LBB2682:
.LBB2680:
	.loc 1 5948 30 view .LVU1335
	.loc 1 5948 4 view .LVU1336
	.loc 1 5948 4 view .LVU1337
	.loc 1 5948 71 view .LVU1338
	.loc 1 5948 83 is_stmt 0 view .LVU1339
	sub	sp, sp, #32
	mov	r2, sp
.LVL226:
	.loc 1 5948 75 is_stmt 1 view .LVU1340
	.loc 1 5948 485 view .LVU1341
	.loc 1 5948 6 view .LVU1342
	.loc 1 5948 8 view .LVU1343
	.loc 1 5948 13 view .LVU1344
	.loc 1 5948 11 view .LVU1345
	.loc 1 5948 6 view .LVU1346
	.loc 1 5948 24 view .LVU1347
.LBB2676:
	.loc 1 5948 4 view .LVU1348
	.loc 1 5948 369 view .LVU1349
	.loc 1 5948 76 view .LVU1350
.LVL227:
	.loc 1 5948 3 view .LVU1351
	.loc 1 5948 3 view .LVU1352
	.loc 1 5948 3 view .LVU1353
	.loc 1 5948 39 view .LVU1354
	.loc 1 5948 68 view .LVU1355
	.loc 1 5948 94 view .LVU1356
	.loc 1 5948 120 view .LVU1357
	.loc 1 5948 587 view .LVU1358
	.loc 1 5948 649 view .LVU1359
	.loc 1 5948 1170 view .LVU1360
	.loc 1 5948 1235 view .LVU1361
	.loc 1 5948 1260 view .LVU1362
	.loc 1 5948 1261 view .LVU1363
	.loc 1 5948 1263 view .LVU1364
	.loc 1 5948 1293 view .LVU1365
	.loc 1 5948 1323 view .LVU1366
	.loc 1 5948 1355 view .LVU1367
	.loc 1 5948 1387 view .LVU1368
	.loc 1 5948 1419 view .LVU1369
	.loc 1 5948 1616 view .LVU1370
	.loc 1 5948 1640 view .LVU1371
	.loc 1 5948 1641 view .LVU1372
	.loc 1 5948 1643 view .LVU1373
	.loc 1 5948 1672 view .LVU1374
	.loc 1 5948 1701 view .LVU1375
	.loc 1 5948 1732 view .LVU1376
	.loc 1 5948 1763 view .LVU1377
	.loc 1 5948 1794 view .LVU1378
	.loc 1 5948 2001 view .LVU1379
.LBB2677:
	.loc 1 5948 3109 view .LVU1380
	.loc 1 5948 3114 view .LVU1381
	.loc 1 5948 3708 view .LVU1382
	.loc 1 5948 0 is_stmt 0 view .LVU1383
	ldr	r3, .L198+16
.LBE2677:
.LBB2678:
	.loc 1 5948 3812 view .LVU1384
	strd	r3, r0, [r2, #20]
	.loc 1 5948 2767 is_stmt 1 view .LVU1385
	.loc 1 5948 8 view .LVU1386
.LVL228:
	.loc 1 5948 31 view .LVU1387
	.loc 1 5948 31 is_stmt 0 view .LVU1388
.LBE2678:
	.loc 1 5948 10 is_stmt 1 view .LVU1389
	.loc 1 5948 6 view .LVU1390
	.loc 1 5948 29 view .LVU1391
	.loc 1 5948 53 view .LVU1392
	.loc 1 5948 81 view .LVU1393
	.loc 1 5948 257 view .LVU1394
	.loc 1 5948 17 view .LVU1395
.LBB2679:
	.loc 1 5948 7 view .LVU1396
	.loc 1 5948 165 view .LVU1397
	.loc 1 5948 167 view .LVU1398
	.loc 1 5948 177 is_stmt 0 view .LVU1399
	movs	r3, #3
	str	r3, [r2, #16]!
.LVL229:
	.loc 1 5948 177 view .LVU1400
.LBE2679:
.LBE2676:
	.loc 1 5948 27 is_stmt 1 view .LVU1401
	.loc 1 5948 8 view .LVU1402
	.loc 1 5948 148 view .LVU1403
	.loc 1 5948 150 view .LVU1404
	ldr	r0, .L198+4
.LVL230:
	.loc 1 5948 150 is_stmt 0 view .LVU1405
	mov	r1, #6208
	bl	z_log_msg_static_create.constprop.0
.LVL231:
	.loc 1 5948 150 view .LVU1406
	mov	sp, r4
.LVL232:
	.loc 1 5948 150 view .LVU1407
.LBE2680:
	.loc 1 5948 108 is_stmt 1 view .LVU1408
	.loc 1 5948 6 view .LVU1409
	.loc 1 5948 43 view .LVU1410
.LBE2682:
	.loc 1 5948 7 view .LVU1411
.LBE2684:
	.loc 1 5948 279 view .LVU1412
	.loc 1 5948 6 view .LVU1413
	.loc 1 5948 19 view .LVU1414
.LBE2686:
	.loc 1 5948 7 view .LVU1415
	.loc 1 5949 4 view .LVU1416
	.loc 1 5949 11 is_stmt 0 view .LVU1417
	b	.L181
.LVL233:
.L184:
	.loc 1 5949 11 view .LVU1418
.LBE2688:
	.loc 1 5955 2 is_stmt 1 view .LVU1419
	.loc 1 5955 8 is_stmt 0 view .LVU1420
	add	r1, r7, #8
	movs	r0, #0
	bl	find_sc_cfg
.LVL234:
	.loc 1 5956 2 is_stmt 1 view .LVU1421
	.loc 1 5956 5 is_stmt 0 view .LVU1422
	mov	r4, r0
.LVL235:
	.loc 1 5956 5 view .LVU1423
	cbnz	r0, .L185
	.loc 1 5956 11 discriminator 1 view .LVU1424
	cmp	r6, #0
	beq	.L179
	.loc 1 5958 3 is_stmt 1 view .LVU1425
	.loc 1 5958 9 is_stmt 0 view .LVU1426
	ldr	r1, .L198+20
	bl	find_sc_cfg
.LVL236:
	.loc 1 5959 3 is_stmt 1 view .LVU1427
	.loc 1 5959 6 is_stmt 0 view .LVU1428
	mov	r4, r0
	cbnz	r0, .L188
	.loc 1 5960 4 is_stmt 1 view .LVU1429
.LBB2689:
	.loc 1 5960 9 view .LVU1430
	.loc 1 5960 58 view .LVU1431
	.loc 1 5960 15 view .LVU1432
	.loc 1 5960 3 view .LVU1433
.LVL237:
	.loc 1 5960 42 view .LVU1434
	.loc 1 5960 177 view .LVU1435
	.loc 1 5960 188 view .LVU1436
	.loc 1 5960 276 view .LVU1437
	.loc 1 5960 4 view .LVU1438
	.loc 1 5960 4 view .LVU1439
.LBB2690:
	.loc 1 5960 9 view .LVU1440
	.loc 1 5960 3 view .LVU1441
.LBE2690:
.LBE2689:
	.loc 1 5960 4 view .LVU1442
	.loc 1 5960 13 view .LVU1443
	.loc 1 5960 108 view .LVU1444
	.loc 1 5960 4 view .LVU1445
.LBB2707:
.LBB2703:
	.loc 1 5960 13 view .LVU1446
	.loc 1 5960 103 view .LVU1447
	.loc 1 5960 105 view .LVU1448
.LBB2691:
	.loc 1 5960 110 view .LVU1449
	.loc 1 5960 121 view .LVU1450
	.loc 1 5960 210 view .LVU1451
	.loc 1 5960 27 view .LVU1452
.LBE2691:
.LBE2703:
.LBE2707:
	.loc 1 5960 4 view .LVU1453
	.loc 1 5960 369 view .LVU1454
	.loc 1 5960 76 view .LVU1455
	.loc 1 5960 3 view .LVU1456
	.loc 1 5960 3 view .LVU1457
	.loc 1 5960 3 view .LVU1458
	.loc 1 5960 39 view .LVU1459
	.loc 1 5960 5 view .LVU1460
	.loc 1 5960 31 view .LVU1461
	.loc 1 5960 57 view .LVU1462
	.loc 1 5960 80 view .LVU1463
	.loc 1 5960 142 view .LVU1464
	.loc 1 5960 199 view .LVU1465
	.loc 1 5960 264 view .LVU1466
	.loc 1 5960 289 view .LVU1467
	.loc 1 5960 290 view .LVU1468
	.loc 1 5960 292 view .LVU1469
	.loc 1 5960 322 view .LVU1470
	.loc 1 5960 352 view .LVU1471
	.loc 1 5960 384 view .LVU1472
	.loc 1 5960 416 view .LVU1473
	.loc 1 5960 448 view .LVU1474
	.loc 1 5960 645 view .LVU1475
	.loc 1 5960 669 view .LVU1476
	.loc 1 5960 670 view .LVU1477
	.loc 1 5960 672 view .LVU1478
	.loc 1 5960 701 view .LVU1479
	.loc 1 5960 730 view .LVU1480
	.loc 1 5960 761 view .LVU1481
	.loc 1 5960 792 view .LVU1482
	.loc 1 5960 823 view .LVU1483
	.loc 1 5960 1030 view .LVU1484
	.loc 1 5960 5 view .LVU1485
	.loc 1 5960 23 view .LVU1486
	.loc 1 5960 43 view .LVU1487
	.loc 1 5960 5 view .LVU1488
	.loc 1 5960 43 view .LVU1489
	.loc 1 5960 14 view .LVU1490
	.loc 1 5960 14 view .LVU1491
	.loc 1 5960 62 view .LVU1492
	.loc 1 5960 93 view .LVU1493
	.loc 1 5960 127 view .LVU1494
	.loc 1 5960 132 view .LVU1495
	.loc 1 5960 389 view .LVU1496
	.loc 1 5960 1470 view .LVU1497
	.loc 1 5960 1535 view .LVU1498
	.loc 1 5960 1559 view .LVU1499
	.loc 1 5960 1620 view .LVU1500
	.loc 1 5960 1631 view .LVU1501
	.loc 1 5960 1750 view .LVU1502
	.loc 1 5960 1766 view .LVU1503
	.loc 1 5960 1806 view .LVU1504
	.loc 1 5960 1831 view .LVU1505
	.loc 1 5960 3134 view .LVU1506
	.loc 1 5960 3175 view .LVU1507
	.loc 1 5960 8 view .LVU1508
	.loc 1 5960 31 view .LVU1509
	.loc 1 5960 130 view .LVU1510
	.loc 1 5960 6 view .LVU1511
	.loc 1 5960 29 view .LVU1512
	.loc 1 5960 53 view .LVU1513
	.loc 1 5960 81 view .LVU1514
	.loc 1 5960 257 view .LVU1515
	.loc 1 5960 17 view .LVU1516
.LBB2708:
.LBB2704:
.LBB2700:
	.loc 1 5960 30 view .LVU1517
	.loc 1 5960 4 view .LVU1518
	.loc 1 5960 4 view .LVU1519
	.loc 1 5960 71 view .LVU1520
	.loc 1 5960 75 view .LVU1521
	.loc 1 5960 485 view .LVU1522
	.loc 1 5960 6 view .LVU1523
	.loc 1 5960 8 view .LVU1524
	.loc 1 5960 13 view .LVU1525
	.loc 1 5960 11 view .LVU1526
	.loc 1 5960 6 view .LVU1527
	.loc 1 5960 24 view .LVU1528
.LBB2692:
	.loc 1 5960 4 view .LVU1529
	.loc 1 5960 369 view .LVU1530
	.loc 1 5960 76 view .LVU1531
.LVL238:
	.loc 1 5960 3 view .LVU1532
	.loc 1 5960 3 view .LVU1533
	.loc 1 5960 3 view .LVU1534
	.loc 1 5960 39 view .LVU1535
	.loc 1 5960 68 view .LVU1536
	.loc 1 5960 94 view .LVU1537
	.loc 1 5960 120 view .LVU1538
	.loc 1 5960 143 view .LVU1539
	.loc 1 5960 205 view .LVU1540
	.loc 1 5960 262 view .LVU1541
	.loc 1 5960 327 view .LVU1542
	.loc 1 5960 352 view .LVU1543
	.loc 1 5960 353 view .LVU1544
	.loc 1 5960 355 view .LVU1545
	.loc 1 5960 385 view .LVU1546
	.loc 1 5960 415 view .LVU1547
	.loc 1 5960 447 view .LVU1548
	.loc 1 5960 479 view .LVU1549
	.loc 1 5960 511 view .LVU1550
	.loc 1 5960 708 view .LVU1551
	.loc 1 5960 732 view .LVU1552
	.loc 1 5960 733 view .LVU1553
	.loc 1 5960 735 view .LVU1554
	.loc 1 5960 764 view .LVU1555
	.loc 1 5960 793 view .LVU1556
	.loc 1 5960 824 view .LVU1557
	.loc 1 5960 855 view .LVU1558
	.loc 1 5960 886 view .LVU1559
	.loc 1 5960 1093 view .LVU1560
	.loc 1 5960 5 view .LVU1561
	.loc 1 5960 23 view .LVU1562
	.loc 1 5960 43 view .LVU1563
	.loc 1 5960 5 view .LVU1564
	.loc 1 5960 43 view .LVU1565
	.loc 1 5960 14 view .LVU1566
	.loc 1 5960 14 view .LVU1567
	.loc 1 5960 62 view .LVU1568
	.loc 1 5960 93 view .LVU1569
	.loc 1 5960 127 view .LVU1570
.LBB2693:
	.loc 1 5960 132 view .LVU1571
	.loc 1 5960 389 view .LVU1572
	.loc 1 5960 1470 view .LVU1573
	.loc 1 5960 1535 view .LVU1574
.LBE2693:
.LBE2692:
.LBE2700:
.LBE2704:
.LBE2708:
	.loc 1 5960 1559 view .LVU1575
	.loc 1 5960 1620 view .LVU1576
	.loc 1 5960 1631 view .LVU1577
	.loc 1 5960 1750 view .LVU1578
.LBB2709:
.LBB2705:
.LBB2701:
.LBB2697:
.LBB2694:
	.loc 1 5960 1766 view .LVU1579
	.loc 1 5960 1806 view .LVU1580
	.loc 1 5960 1831 view .LVU1581
	.loc 1 5960 3134 view .LVU1582
	.loc 1 5960 3172 view .LVU1583
	.loc 1 5960 3177 view .LVU1584
	.loc 1 5960 3813 view .LVU1585
	.loc 1 5960 0 is_stmt 0 view .LVU1586
	ldr	r3, .L198+24
	str	r3, [r7, #36]
	.loc 1 5960 3175 is_stmt 1 view .LVU1587
	.loc 1 5960 8 view .LVU1588
.LVL239:
	.loc 1 5960 31 view .LVU1589
	.loc 1 5960 31 is_stmt 0 view .LVU1590
.LBE2694:
	.loc 1 5960 130 is_stmt 1 view .LVU1591
	.loc 1 5960 6 view .LVU1592
	.loc 1 5960 29 view .LVU1593
	.loc 1 5960 53 view .LVU1594
	.loc 1 5960 81 view .LVU1595
.LBE2697:
.LBE2701:
.LBE2705:
.LBE2709:
	.loc 1 5960 7 view .LVU1596
	.loc 1 5960 46 view .LVU1597
	.loc 1 5960 51 view .LVU1598
	.loc 1 5960 81 view .LVU1599
	.loc 1 5960 148 view .LVU1600
	.loc 1 5960 153 view .LVU1601
	.loc 1 5960 183 view .LVU1602
.LBB2710:
.LBB2706:
.LBB2702:
.LBB2698:
	.loc 1 5960 257 view .LVU1603
	.loc 1 5960 17 view .LVU1604
.LBB2695:
	.loc 1 5960 7 view .LVU1605
	.loc 1 5960 165 view .LVU1606
	.loc 1 5960 167 view .LVU1607
	.loc 1 5960 177 is_stmt 0 view .LVU1608
	movs	r3, #2
.LBE2695:
.LBE2698:
	.loc 1 5960 150 view .LVU1609
	ldr	r0, .L198+4
.LVL240:
.LBB2699:
.LBB2696:
	.loc 1 5960 177 view .LVU1610
	str	r3, [r7, #32]
.LVL241:
	.loc 1 5960 177 view .LVU1611
.LBE2696:
.LBE2699:
	.loc 1 5960 27 is_stmt 1 view .LVU1612
	.loc 1 5960 8 view .LVU1613
	.loc 1 5960 148 view .LVU1614
	.loc 1 5960 150 view .LVU1615
	add	r2, r7, #32
.LVL242:
	.loc 1 5960 150 is_stmt 0 view .LVU1616
	mov	r1, #4160
	bl	z_log_msg_static_create.constprop.0
.LVL243:
	.loc 1 5960 150 view .LVU1617
.LBE2702:
	.loc 1 5960 108 is_stmt 1 view .LVU1618
	.loc 1 5960 6 view .LVU1619
.LVL244:
	.loc 1 5960 43 view .LVU1620
.LBE2706:
	.loc 1 5960 7 view .LVU1621
	.loc 1 5960 279 view .LVU1622
	.loc 1 5960 6 view .LVU1623
	.loc 1 5960 19 view .LVU1624
.LBE2710:
	.loc 1 5960 7 view .LVU1625
	.loc 1 5961 4 view .LVU1626
	.loc 1 5961 11 is_stmt 0 view .LVU1627
	mvn	r5, #11
.LVL245:
	.loc 1 5961 11 view .LVU1628
	b	.L179
.LVL246:
.L188:
	.loc 1 5964 3 is_stmt 1 view .LVU1629
	.loc 1 5964 11 is_stmt 0 view .LVU1630
	movs	r3, #0
	strb	r3, [r0], #1
.LVL247:
	.loc 1 5965 3 is_stmt 1 view .LVU1631
	add	r1, r7, #8
	bl	bt_addr_le_copy
.LVL248:
	.loc 1 5968 2 view .LVU1632
.L189:
	.loc 1 5969 3 view .LVU1633
	.loc 1 5969 9 is_stmt 0 view .LVU1634
	add	r1, r4, #8
	movs	r2, #4
	mov	r0, r9
	blx	r8
.LVL249:
	.loc 1 5970 3 is_stmt 1 view .LVU1635
	.loc 1 5970 6 is_stmt 0 view .LVU1636
	subs	r4, r0, #0
.LVL250:
	.loc 1 5970 6 view .LVU1637
	bge	.L179
	.loc 1 5971 4 is_stmt 1 view .LVU1638
.LBB2711:
	.loc 1 5971 9 view .LVU1639
	.loc 1 5971 58 view .LVU1640
	.loc 1 5971 15 view .LVU1641
	.loc 1 5971 3 view .LVU1642
.LVL251:
	.loc 1 5971 42 view .LVU1643
	.loc 1 5971 177 view .LVU1644
	.loc 1 5971 188 view .LVU1645
	.loc 1 5971 276 view .LVU1646
.LBB2712:
	.loc 1 5971 4 view .LVU1647
	.loc 1 5971 6 view .LVU1648
	.loc 1 5971 4 view .LVU1649
.LBB2713:
	.loc 1 5971 9 view .LVU1650
	.loc 1 5971 3 view .LVU1651
.LBE2713:
.LBE2712:
.LBE2711:
	.loc 1 5971 4 view .LVU1652
	.loc 1 5971 13 view .LVU1653
	.loc 1 5971 108 view .LVU1654
	.loc 1 5971 4 view .LVU1655
.LBB2725:
.LBB2723:
.LBB2721:
	.loc 1 5971 13 view .LVU1656
	.loc 1 5971 103 view .LVU1657
	.loc 1 5971 105 view .LVU1658
.LBB2714:
	.loc 1 5971 108 is_stmt 0 view .LVU1659
	mov	r5, sp
.LVL252:
	.loc 1 5971 110 is_stmt 1 view .LVU1660
	.loc 1 5971 121 view .LVU1661
	.loc 1 5971 210 view .LVU1662
	.loc 1 5971 27 view .LVU1663
.LBE2714:
.LBE2721:
.LBE2723:
.LBE2725:
	.loc 1 5971 4 view .LVU1664
	.loc 1 5971 369 view .LVU1665
	.loc 1 5971 76 view .LVU1666
	.loc 1 5971 3 view .LVU1667
	.loc 1 5971 3 view .LVU1668
	.loc 1 5971 3 view .LVU1669
	.loc 1 5971 39 view .LVU1670
	.loc 1 5971 5 view .LVU1671
	.loc 1 5971 31 view .LVU1672
	.loc 1 5971 57 view .LVU1673
	.loc 1 5971 524 view .LVU1674
	.loc 1 5971 586 view .LVU1675
	.loc 1 5971 1107 view .LVU1676
	.loc 1 5971 1172 view .LVU1677
	.loc 1 5971 1197 view .LVU1678
	.loc 1 5971 1198 view .LVU1679
	.loc 1 5971 1200 view .LVU1680
	.loc 1 5971 1230 view .LVU1681
	.loc 1 5971 1260 view .LVU1682
	.loc 1 5971 1292 view .LVU1683
	.loc 1 5971 1324 view .LVU1684
	.loc 1 5971 1356 view .LVU1685
	.loc 1 5971 1553 view .LVU1686
	.loc 1 5971 1577 view .LVU1687
	.loc 1 5971 1578 view .LVU1688
	.loc 1 5971 1580 view .LVU1689
	.loc 1 5971 1609 view .LVU1690
	.loc 1 5971 1638 view .LVU1691
	.loc 1 5971 1669 view .LVU1692
	.loc 1 5971 1700 view .LVU1693
	.loc 1 5971 1731 view .LVU1694
	.loc 1 5971 1938 view .LVU1695
	.loc 1 5971 5 view .LVU1696
	.loc 1 5971 23 view .LVU1697
	.loc 1 5971 43 view .LVU1698
	.loc 1 5971 5 view .LVU1699
	.loc 1 5971 43 view .LVU1700
	.loc 1 5971 14 view .LVU1701
	.loc 1 5971 14 view .LVU1702
	.loc 1 5971 62 view .LVU1703
	.loc 1 5971 93 view .LVU1704
	.loc 1 5971 127 view .LVU1705
	.loc 1 5971 132 view .LVU1706
	.loc 1 5971 388 view .LVU1707
	.loc 1 5971 1465 view .LVU1708
	.loc 1 5971 1530 view .LVU1709
	.loc 1 5971 1554 view .LVU1710
	.loc 1 5971 1614 view .LVU1711
	.loc 1 5971 1625 view .LVU1712
	.loc 1 5971 1743 view .LVU1713
	.loc 1 5971 1759 view .LVU1714
	.loc 1 5971 1799 view .LVU1715
	.loc 1 5971 1824 view .LVU1716
	.loc 1 5971 3125 view .LVU1717
	.loc 1 5971 3166 view .LVU1718
	.loc 1 5971 8 view .LVU1719
	.loc 1 5971 31 view .LVU1720
	.loc 1 5971 130 view .LVU1721
	.loc 1 5971 7 view .LVU1722
	.loc 1 5971 12 view .LVU1723
	.loc 1 5971 237 view .LVU1724
	.loc 1 5971 1190 view .LVU1725
	.loc 1 5971 1255 view .LVU1726
	.loc 1 5971 1279 view .LVU1727
	.loc 1 5971 1308 view .LVU1728
	.loc 1 5971 1319 view .LVU1729
	.loc 1 5971 1406 view .LVU1730
	.loc 1 5971 1422 view .LVU1731
	.loc 1 5971 1462 view .LVU1732
	.loc 1 5971 2726 view .LVU1733
	.loc 1 5971 2767 view .LVU1734
	.loc 1 5971 8 view .LVU1735
	.loc 1 5971 31 view .LVU1736
	.loc 1 5971 10 view .LVU1737
	.loc 1 5971 6 view .LVU1738
	.loc 1 5971 29 view .LVU1739
	.loc 1 5971 53 view .LVU1740
	.loc 1 5971 81 view .LVU1741
	.loc 1 5971 257 view .LVU1742
	.loc 1 5971 17 view .LVU1743
.LBB2726:
.LBB2724:
.LBB2722:
.LBB2720:
	.loc 1 5971 30 view .LVU1744
	.loc 1 5971 4 view .LVU1745
	.loc 1 5971 4 view .LVU1746
	.loc 1 5971 71 view .LVU1747
	.loc 1 5971 83 is_stmt 0 view .LVU1748
	sub	sp, sp, #32
	mov	r2, sp
.LVL253:
	.loc 1 5971 75 is_stmt 1 view .LVU1749
	.loc 1 5971 485 view .LVU1750
	.loc 1 5971 6 view .LVU1751
	.loc 1 5971 8 view .LVU1752
	.loc 1 5971 13 view .LVU1753
	.loc 1 5971 11 view .LVU1754
	.loc 1 5971 6 view .LVU1755
	.loc 1 5971 24 view .LVU1756
.LBB2715:
	.loc 1 5971 4 view .LVU1757
	.loc 1 5971 369 view .LVU1758
	.loc 1 5971 76 view .LVU1759
.LVL254:
	.loc 1 5971 3 view .LVU1760
	.loc 1 5971 3 view .LVU1761
	.loc 1 5971 3 view .LVU1762
	.loc 1 5971 39 view .LVU1763
	.loc 1 5971 68 view .LVU1764
	.loc 1 5971 94 view .LVU1765
	.loc 1 5971 120 view .LVU1766
	.loc 1 5971 587 view .LVU1767
	.loc 1 5971 649 view .LVU1768
	.loc 1 5971 1170 view .LVU1769
	.loc 1 5971 1235 view .LVU1770
	.loc 1 5971 1260 view .LVU1771
	.loc 1 5971 1261 view .LVU1772
	.loc 1 5971 1263 view .LVU1773
	.loc 1 5971 1293 view .LVU1774
	.loc 1 5971 1323 view .LVU1775
	.loc 1 5971 1355 view .LVU1776
	.loc 1 5971 1387 view .LVU1777
	.loc 1 5971 1419 view .LVU1778
	.loc 1 5971 1616 view .LVU1779
	.loc 1 5971 1640 view .LVU1780
	.loc 1 5971 1641 view .LVU1781
	.loc 1 5971 1643 view .LVU1782
	.loc 1 5971 1672 view .LVU1783
	.loc 1 5971 1701 view .LVU1784
	.loc 1 5971 1732 view .LVU1785
	.loc 1 5971 1763 view .LVU1786
	.loc 1 5971 1794 view .LVU1787
	.loc 1 5971 2001 view .LVU1788
.LBB2716:
	.loc 1 5971 3163 view .LVU1789
	.loc 1 5971 3168 view .LVU1790
	.loc 1 5971 3798 view .LVU1791
	.loc 1 5971 0 is_stmt 0 view .LVU1792
	ldr	r3, .L198+28
.LBE2716:
.LBE2715:
	.loc 1 5971 150 view .LVU1793
	ldr	r0, .L198+4
.LVL255:
.LBB2719:
.LBB2717:
	.loc 1 5971 3812 view .LVU1794
	strd	r3, r4, [r2, #20]
	.loc 1 5971 2767 is_stmt 1 view .LVU1795
	.loc 1 5971 8 view .LVU1796
.LVL256:
	.loc 1 5971 31 view .LVU1797
	.loc 1 5971 31 is_stmt 0 view .LVU1798
.LBE2717:
	.loc 1 5971 10 is_stmt 1 view .LVU1799
	.loc 1 5971 6 view .LVU1800
	.loc 1 5971 29 view .LVU1801
	.loc 1 5971 53 view .LVU1802
	.loc 1 5971 81 view .LVU1803
	.loc 1 5971 257 view .LVU1804
	.loc 1 5971 17 view .LVU1805
.LBB2718:
	.loc 1 5971 7 view .LVU1806
	.loc 1 5971 165 view .LVU1807
	.loc 1 5971 167 view .LVU1808
	.loc 1 5971 177 is_stmt 0 view .LVU1809
	movs	r3, #3
	str	r3, [r2, #16]!
.LVL257:
	.loc 1 5971 177 view .LVU1810
.LBE2718:
.LBE2719:
	.loc 1 5971 27 is_stmt 1 view .LVU1811
	.loc 1 5971 8 view .LVU1812
	.loc 1 5971 148 view .LVU1813
	.loc 1 5971 150 view .LVU1814
	mov	r1, #6208
	bl	z_log_msg_static_create.constprop.0
.LVL258:
	.loc 1 5971 150 is_stmt 0 view .LVU1815
	mov	sp, r5
.LVL259:
	.loc 1 5971 150 view .LVU1816
.LBE2720:
	.loc 1 5971 108 is_stmt 1 view .LVU1817
	.loc 1 5971 6 view .LVU1818
	.loc 1 5971 43 view .LVU1819
.LBE2722:
	.loc 1 5971 7 view .LVU1820
.LBE2724:
	.loc 1 5971 279 view .LVU1821
	.loc 1 5971 6 view .LVU1822
	.loc 1 5971 19 view .LVU1823
.LBE2726:
	.loc 1 5971 7 view .LVU1824
	.loc 1 5972 4 view .LVU1825
	.loc 1 5972 11 is_stmt 0 view .LVU1826
	mov	r5, r4
.LVL260:
	.loc 1 5972 11 view .LVU1827
	b	.L179
.LVL261:
.L185:
	.loc 1 5968 2 is_stmt 1 view .LVU1828
	.loc 1 5968 5 is_stmt 0 view .LVU1829
	cmp	r6, #0
	bne	.L189
.LVL262:
	.loc 1 5978 9 is_stmt 1 view .LVU1830
	.loc 1 5980 2 view .LVU1831
.LBB2727:
.LBI2727:
	.loc 4 86 189 view .LVU1832
.LBB2728:
	.loc 4 86 238 view .LVU1833
	.loc 4 86 245 is_stmt 0 view .LVU1834
	str	r6, [r0]	@ unaligned
	str	r6, [r0, #4]	@ unaligned
	str	r6, [r0, #8]	@ unaligned
.LVL263:
	.loc 4 86 245 view .LVU1835
	b	.L179
.L199:
	.align	2
.L198:
	.word	.LC1
	.word	log_const_bt_gatt
	.word	.LC2
	.word	16777219
	.word	.LC3
	.word	bt_addr_le_any
	.word	.LC4
	.word	.LC5
.LBE2728:
.LBE2727:
	.cfi_endproc
.LFE697:
	.size	sc_set, .-sc_set
	.section	.rodata.bt_gatt_clear_sc.str1.1,"aMS",%progbits,1
.LC6:
	.ascii	"failed to delete SC (err %d)\000"
	.section	.text.bt_gatt_clear_sc,"ax",%progbits
	.align	1
	.syntax unified
	.thumb
	.thumb_func
	.type	bt_gatt_clear_sc, %function
bt_gatt_clear_sc:
.LVL264:
.LFB606:
	.loc 1 353 1 is_stmt 1 view -0
	.cfi_startproc
	@ args = 0, pretend = 0, frame = 0
	@ frame_needed = 1, uses_anonymous_args = 0
	.loc 1 355 2 view .LVU1837
	.loc 1 357 2 view .LVU1838
	.loc 1 353 1 is_stmt 0 view .LVU1839
	push	{r4, r5, r7, lr}
	.cfi_def_cfa_offset 16
	.cfi_offset 4, -16
	.cfi_offset 5, -12
	.cfi_offset 7, -8
	.cfi_offset 14, -4
	add	r7, sp, #0
	.cfi_def_cfa_register 7
	.loc 1 357 8 view .LVU1840
	bl	find_sc_cfg
.LVL265:
	.loc 1 358 2 is_stmt 1 view .LVU1841
	.loc 1 358 5 is_stmt 0 view .LVU1842
	mov	r4, r0
	cbz	r0, .L201
	.loc 1 362 2 is_stmt 1 view .LVU1843
.LBB2729:
	.loc 1 363 3 view .LVU1844
	.loc 1 365 3 view .LVU1845
	.loc 1 365 40 is_stmt 0 view .LVU1846
	mov	r1, r0
	.loc 1 365 9 view .LVU1847
	ldrb	r0, [r1], #1	@ zero_extendqisi2
.LVL266:
	.loc 1 365 9 view .LVU1848
	bl	bt_settings_delete_sc
.LVL267:
	.loc 1 366 3 is_stmt 1 view .LVU1849
	.loc 1 366 6 is_stmt 0 view .LVU1850
	cbz	r0, .L202
	.loc 1 367 4 is_stmt 1 view .LVU1851
.LBB2730:
	.loc 1 367 9 view .LVU1852
	.loc 1 367 58 view .LVU1853
	.loc 1 367 15 view .LVU1854
	.loc 1 367 3 view .LVU1855
.LVL268:
	.loc 1 367 42 view .LVU1856
	.loc 1 367 177 view .LVU1857
	.loc 1 367 188 view .LVU1858
	.loc 1 367 276 view .LVU1859
.LBB2731:
	.loc 1 367 4 view .LVU1860
	.loc 1 367 6 view .LVU1861
	.loc 1 367 4 view .LVU1862
.LBB2732:
	.loc 1 367 9 view .LVU1863
	.loc 1 367 3 view .LVU1864
.LBE2732:
.LBE2731:
.LBE2730:
.LBE2729:
	.loc 1 367 4 view .LVU1865
	.loc 1 367 13 view .LVU1866
	.loc 1 367 108 view .LVU1867
	.loc 1 367 4 view .LVU1868
.LBB2750:
.LBB2747:
.LBB2744:
.LBB2741:
	.loc 1 367 13 view .LVU1869
	.loc 1 367 103 view .LVU1870
	.loc 1 367 105 view .LVU1871
.LBB2733:
	.loc 1 367 108 is_stmt 0 view .LVU1872
	mov	r5, sp
	.loc 1 367 110 is_stmt 1 view .LVU1873
	.loc 1 367 121 view .LVU1874
.LVL269:
	.loc 1 367 210 view .LVU1875
	.loc 1 367 27 view .LVU1876
.LBE2733:
.LBE2741:
.LBE2744:
.LBE2747:
.LBE2750:
	.loc 1 367 4 view .LVU1877
	.loc 1 367 369 view .LVU1878
	.loc 1 367 76 view .LVU1879
	.loc 1 367 3 view .LVU1880
	.loc 1 367 3 view .LVU1881
	.loc 1 367 3 view .LVU1882
	.loc 1 367 39 view .LVU1883
	.loc 1 367 5 view .LVU1884
	.loc 1 367 31 view .LVU1885
	.loc 1 367 57 view .LVU1886
	.loc 1 367 524 view .LVU1887
	.loc 1 367 586 view .LVU1888
	.loc 1 367 1107 view .LVU1889
	.loc 1 367 1172 view .LVU1890
	.loc 1 367 1197 view .LVU1891
	.loc 1 367 1198 view .LVU1892
	.loc 1 367 1200 view .LVU1893
	.loc 1 367 1230 view .LVU1894
	.loc 1 367 1260 view .LVU1895
	.loc 1 367 1292 view .LVU1896
	.loc 1 367 1324 view .LVU1897
	.loc 1 367 1356 view .LVU1898
	.loc 1 367 1553 view .LVU1899
	.loc 1 367 1577 view .LVU1900
	.loc 1 367 1578 view .LVU1901
	.loc 1 367 1580 view .LVU1902
	.loc 1 367 1609 view .LVU1903
	.loc 1 367 1638 view .LVU1904
	.loc 1 367 1669 view .LVU1905
	.loc 1 367 1700 view .LVU1906
	.loc 1 367 1731 view .LVU1907
	.loc 1 367 1938 view .LVU1908
	.loc 1 367 5 view .LVU1909
	.loc 1 367 23 view .LVU1910
	.loc 1 367 43 view .LVU1911
	.loc 1 367 5 view .LVU1912
	.loc 1 367 43 view .LVU1913
	.loc 1 367 14 view .LVU1914
	.loc 1 367 14 view .LVU1915
	.loc 1 367 62 view .LVU1916
	.loc 1 367 93 view .LVU1917
	.loc 1 367 127 view .LVU1918
	.loc 1 367 132 view .LVU1919
	.loc 1 367 384 view .LVU1920
	.loc 1 367 1445 view .LVU1921
	.loc 1 367 1510 view .LVU1922
	.loc 1 367 1534 view .LVU1923
	.loc 1 367 1590 view .LVU1924
	.loc 1 367 1601 view .LVU1925
	.loc 1 367 1715 view .LVU1926
	.loc 1 367 1731 view .LVU1927
	.loc 1 367 1771 view .LVU1928
	.loc 1 367 1796 view .LVU1929
	.loc 1 367 3089 view .LVU1930
	.loc 1 367 3130 view .LVU1931
	.loc 1 367 8 view .LVU1932
	.loc 1 367 31 view .LVU1933
	.loc 1 367 130 view .LVU1934
	.loc 1 367 7 view .LVU1935
	.loc 1 367 12 view .LVU1936
	.loc 1 367 237 view .LVU1937
	.loc 1 367 1190 view .LVU1938
	.loc 1 367 1255 view .LVU1939
	.loc 1 367 1279 view .LVU1940
	.loc 1 367 1308 view .LVU1941
	.loc 1 367 1319 view .LVU1942
	.loc 1 367 1406 view .LVU1943
	.loc 1 367 1422 view .LVU1944
	.loc 1 367 1462 view .LVU1945
	.loc 1 367 2726 view .LVU1946
	.loc 1 367 2767 view .LVU1947
	.loc 1 367 8 view .LVU1948
	.loc 1 367 31 view .LVU1949
	.loc 1 367 10 view .LVU1950
	.loc 1 367 6 view .LVU1951
	.loc 1 367 29 view .LVU1952
	.loc 1 367 53 view .LVU1953
	.loc 1 367 81 view .LVU1954
	.loc 1 367 257 view .LVU1955
	.loc 1 367 17 view .LVU1956
.LBB2751:
.LBB2748:
.LBB2745:
.LBB2742:
.LBB2739:
	.loc 1 367 30 view .LVU1957
	.loc 1 367 4 view .LVU1958
	.loc 1 367 4 view .LVU1959
	.loc 1 367 71 view .LVU1960
	.loc 1 367 83 is_stmt 0 view .LVU1961
	sub	sp, sp, #32
	mov	r2, sp
.LVL270:
	.loc 1 367 75 is_stmt 1 view .LVU1962
	.loc 1 367 485 view .LVU1963
	.loc 1 367 6 view .LVU1964
	.loc 1 367 8 view .LVU1965
	.loc 1 367 13 view .LVU1966
	.loc 1 367 11 view .LVU1967
	.loc 1 367 6 view .LVU1968
	.loc 1 367 24 view .LVU1969
.LBB2734:
	.loc 1 367 4 view .LVU1970
	.loc 1 367 369 view .LVU1971
	.loc 1 367 76 view .LVU1972
.LVL271:
	.loc 1 367 3 view .LVU1973
	.loc 1 367 3 view .LVU1974
	.loc 1 367 3 view .LVU1975
	.loc 1 367 39 view .LVU1976
	.loc 1 367 68 view .LVU1977
	.loc 1 367 94 view .LVU1978
	.loc 1 367 120 view .LVU1979
	.loc 1 367 587 view .LVU1980
	.loc 1 367 649 view .LVU1981
	.loc 1 367 1170 view .LVU1982
	.loc 1 367 1235 view .LVU1983
	.loc 1 367 1260 view .LVU1984
	.loc 1 367 1261 view .LVU1985
	.loc 1 367 1263 view .LVU1986
	.loc 1 367 1293 view .LVU1987
	.loc 1 367 1323 view .LVU1988
	.loc 1 367 1355 view .LVU1989
	.loc 1 367 1387 view .LVU1990
	.loc 1 367 1419 view .LVU1991
	.loc 1 367 1616 view .LVU1992
	.loc 1 367 1640 view .LVU1993
	.loc 1 367 1641 view .LVU1994
	.loc 1 367 1643 view .LVU1995
	.loc 1 367 1672 view .LVU1996
	.loc 1 367 1701 view .LVU1997
	.loc 1 367 1732 view .LVU1998
	.loc 1 367 1763 view .LVU1999
	.loc 1 367 1794 view .LVU2000
	.loc 1 367 2001 view .LVU2001
.LBB2735:
	.loc 1 367 3127 view .LVU2002
	.loc 1 367 3132 view .LVU2003
	.loc 1 367 3738 view .LVU2004
	.loc 1 367 0 is_stmt 0 view .LVU2005
	ldr	r3, .L209
.LBE2735:
.LBB2736:
	.loc 1 367 3812 view .LVU2006
	strd	r3, r0, [r2, #20]
	.loc 1 367 2767 is_stmt 1 view .LVU2007
	.loc 1 367 8 view .LVU2008
.LVL272:
	.loc 1 367 31 view .LVU2009
	.loc 1 367 31 is_stmt 0 view .LVU2010
.LBE2736:
	.loc 1 367 10 is_stmt 1 view .LVU2011
	.loc 1 367 6 view .LVU2012
	.loc 1 367 29 view .LVU2013
	.loc 1 367 53 view .LVU2014
	.loc 1 367 81 view .LVU2015
.LBE2734:
.LBE2739:
.LBE2742:
.LBE2745:
.LBE2748:
.LBE2751:
	.loc 1 367 7 view .LVU2016
	.loc 1 367 46 view .LVU2017
	.loc 1 367 51 view .LVU2018
	.loc 1 367 81 view .LVU2019
	.loc 1 367 148 view .LVU2020
	.loc 1 367 153 view .LVU2021
	.loc 1 367 183 view .LVU2022
.LBB2752:
.LBB2749:
.LBB2746:
.LBB2743:
.LBB2740:
.LBB2738:
	.loc 1 367 257 view .LVU2023
	.loc 1 367 17 view .LVU2024
.LBB2737:
	.loc 1 367 7 view .LVU2025
	.loc 1 367 165 view .LVU2026
	.loc 1 367 167 view .LVU2027
	.loc 1 367 177 is_stmt 0 view .LVU2028
	movs	r3, #3
	str	r3, [r2, #16]!
.LVL273:
	.loc 1 367 177 view .LVU2029
.LBE2737:
.LBE2738:
	.loc 1 367 27 is_stmt 1 view .LVU2030
	.loc 1 367 8 view .LVU2031
	.loc 1 367 148 view .LVU2032
	.loc 1 367 150 view .LVU2033
	ldr	r0, .L209+4
.LVL274:
	.loc 1 367 150 is_stmt 0 view .LVU2034
	mov	r1, #6208
	bl	z_log_msg_static_create.constprop.0
.LVL275:
	.loc 1 367 150 view .LVU2035
	mov	sp, r5
.LVL276:
	.loc 1 367 150 view .LVU2036
.LBE2740:
	.loc 1 367 108 is_stmt 1 view .LVU2037
	.loc 1 367 6 view .LVU2038
	.loc 1 367 43 view .LVU2039
.LBE2743:
	.loc 1 367 7 view .LVU2040
.LBE2746:
	.loc 1 367 279 view .LVU2041
	.loc 1 367 6 view .LVU2042
	.loc 1 367 19 view .LVU2043
.L202:
	.loc 1 367 19 is_stmt 0 view .LVU2044
.LBE2749:
	.loc 1 369 7 is_stmt 1 discriminator 351 view .LVU2045
.LBE2752:
	.loc 1 373 2 discriminator 351 view .LVU2046
	mov	r0, r4
	bl	clear_sc_cfg
.LVL277:
	.loc 1 375 2 discriminator 351 view .LVU2047
.L201:
	.loc 1 376 1 is_stmt 0 view .LVU2048
	movs	r0, #0
.LVL278:
	.loc 1 376 1 view .LVU2049
	mov	sp, r7
	.cfi_def_cfa_register 13
	@ sp needed
	pop	{r4, r5, r7, pc}
.LVL279:
.L210:
	.loc 1 376 1 view .LVU2050
	.align	2
.L209:
	.word	.LC6
	.word	log_const_bt_gatt
	.cfi_endproc
.LFE606:
	.size	bt_gatt_clear_sc, .-bt_gatt_clear_sc
	.section	.rodata.sc_clear.str1.1,"aMS",%progbits,1
.LC7:
	.ascii	"Failed to clear SC %d\000"
	.section	.text.sc_clear,"ax",%progbits
	.align	1
	.syntax unified
	.thumb
	.thumb_func
	.type	sc_clear, %function
sc_clear:
.LVL280:
.LFB607:
	.loc 1 379 1 is_stmt 1 view -0
	.cfi_startproc
	@ args = 0, pretend = 0, frame = 0
	@ frame_needed = 1, uses_anonymous_args = 0
	.loc 1 380 2 view .LVU2052
	.loc 1 379 1 is_stmt 0 view .LVU2053
	push	{r4, r5, r7, lr}
	.cfi_def_cfa_offset 16
	.cfi_offset 4, -16
	.cfi_offset 5, -12
	.cfi_offset 7, -8
	.cfi_offset 14, -4
	.loc 1 380 37 view .LVU2054
	add	r5, r0, #136
	.loc 1 379 1 view .LVU2055
	mov	r4, r0
	.loc 1 380 6 view .LVU2056
	mov	r1, r5
	ldrb	r0, [r0, #8]	@ zero_extendqisi2
.LVL281:
	.loc 1 379 1 view .LVU2057
	add	r7, sp, #0
	.cfi_def_cfa_register 7
	.loc 1 380 6 view .LVU2058
	bl	bt_addr_le_is_bonded
.LVL282:
	mov	r3, r0
.LBB2753:
	.loc 1 383 9 view .LVU2059
	mov	r1, r5
	ldrb	r0, [r4, #8]	@ zero_extendqisi2
.LBE2753:
	.loc 1 380 5 view .LVU2060
	cbz	r3, .L212
.LBB2774:
	.loc 1 381 3 is_stmt 1 view .LVU2061
	.loc 1 383 3 view .LVU2062
	.loc 1 383 9 is_stmt 0 view .LVU2063
	bl	bt_gatt_clear_sc
.LVL283:
	.loc 1 384 3 is_stmt 1 view .LVU2064
	.loc 1 384 6 is_stmt 0 view .LVU2065
	cbz	r0, .L211
	.loc 1 385 4 is_stmt 1 view .LVU2066
.LBB2754:
	.loc 1 385 9 view .LVU2067
	.loc 1 385 58 view .LVU2068
	.loc 1 385 15 view .LVU2069
	.loc 1 385 3 view .LVU2070
.LVL284:
	.loc 1 385 42 view .LVU2071
	.loc 1 385 177 view .LVU2072
	.loc 1 385 188 view .LVU2073
	.loc 1 385 276 view .LVU2074
.LBB2755:
	.loc 1 385 4 view .LVU2075
	.loc 1 385 6 view .LVU2076
	.loc 1 385 4 view .LVU2077
.LBB2756:
	.loc 1 385 9 view .LVU2078
	.loc 1 385 3 view .LVU2079
.LBE2756:
.LBE2755:
.LBE2754:
.LBE2774:
	.loc 1 385 4 view .LVU2080
	.loc 1 385 13 view .LVU2081
	.loc 1 385 108 view .LVU2082
	.loc 1 385 4 view .LVU2083
.LBB2775:
.LBB2771:
.LBB2768:
.LBB2765:
	.loc 1 385 13 view .LVU2084
	.loc 1 385 103 view .LVU2085
	.loc 1 385 105 view .LVU2086
.LBB2757:
	.loc 1 385 108 is_stmt 0 view .LVU2087
	mov	r4, sp
.LVL285:
	.loc 1 385 110 is_stmt 1 view .LVU2088
	.loc 1 385 121 view .LVU2089
	.loc 1 385 210 view .LVU2090
	.loc 1 385 27 view .LVU2091
.LBE2757:
.LBE2765:
.LBE2768:
.LBE2771:
.LBE2775:
	.loc 1 385 4 view .LVU2092
	.loc 1 385 369 view .LVU2093
	.loc 1 385 76 view .LVU2094
	.loc 1 385 3 view .LVU2095
	.loc 1 385 3 view .LVU2096
	.loc 1 385 3 view .LVU2097
	.loc 1 385 39 view .LVU2098
	.loc 1 385 5 view .LVU2099
	.loc 1 385 31 view .LVU2100
	.loc 1 385 57 view .LVU2101
	.loc 1 385 524 view .LVU2102
	.loc 1 385 586 view .LVU2103
	.loc 1 385 1107 view .LVU2104
	.loc 1 385 1172 view .LVU2105
	.loc 1 385 1197 view .LVU2106
	.loc 1 385 1198 view .LVU2107
	.loc 1 385 1200 view .LVU2108
	.loc 1 385 1230 view .LVU2109
	.loc 1 385 1260 view .LVU2110
	.loc 1 385 1292 view .LVU2111
	.loc 1 385 1324 view .LVU2112
	.loc 1 385 1356 view .LVU2113
	.loc 1 385 1553 view .LVU2114
	.loc 1 385 1577 view .LVU2115
	.loc 1 385 1578 view .LVU2116
	.loc 1 385 1580 view .LVU2117
	.loc 1 385 1609 view .LVU2118
	.loc 1 385 1638 view .LVU2119
	.loc 1 385 1669 view .LVU2120
	.loc 1 385 1700 view .LVU2121
	.loc 1 385 1731 view .LVU2122
	.loc 1 385 1938 view .LVU2123
	.loc 1 385 5 view .LVU2124
	.loc 1 385 23 view .LVU2125
	.loc 1 385 43 view .LVU2126
	.loc 1 385 5 view .LVU2127
	.loc 1 385 43 view .LVU2128
	.loc 1 385 14 view .LVU2129
	.loc 1 385 14 view .LVU2130
	.loc 1 385 62 view .LVU2131
	.loc 1 385 93 view .LVU2132
	.loc 1 385 127 view .LVU2133
	.loc 1 385 132 view .LVU2134
	.loc 1 385 377 view .LVU2135
	.loc 1 385 1410 view .LVU2136
	.loc 1 385 1475 view .LVU2137
	.loc 1 385 1499 view .LVU2138
	.loc 1 385 1548 view .LVU2139
	.loc 1 385 1559 view .LVU2140
	.loc 1 385 1666 view .LVU2141
	.loc 1 385 1682 view .LVU2142
	.loc 1 385 1722 view .LVU2143
	.loc 1 385 1747 view .LVU2144
	.loc 1 385 3026 view .LVU2145
	.loc 1 385 3067 view .LVU2146
	.loc 1 385 8 view .LVU2147
	.loc 1 385 31 view .LVU2148
	.loc 1 385 130 view .LVU2149
	.loc 1 385 7 view .LVU2150
	.loc 1 385 12 view .LVU2151
	.loc 1 385 237 view .LVU2152
	.loc 1 385 1190 view .LVU2153
	.loc 1 385 1255 view .LVU2154
	.loc 1 385 1279 view .LVU2155
	.loc 1 385 1308 view .LVU2156
	.loc 1 385 1319 view .LVU2157
	.loc 1 385 1406 view .LVU2158
	.loc 1 385 1422 view .LVU2159
	.loc 1 385 1462 view .LVU2160
	.loc 1 385 2726 view .LVU2161
	.loc 1 385 2767 view .LVU2162
	.loc 1 385 8 view .LVU2163
	.loc 1 385 31 view .LVU2164
	.loc 1 385 10 view .LVU2165
	.loc 1 385 6 view .LVU2166
	.loc 1 385 29 view .LVU2167
	.loc 1 385 53 view .LVU2168
	.loc 1 385 81 view .LVU2169
	.loc 1 385 257 view .LVU2170
	.loc 1 385 17 view .LVU2171
.LBB2776:
.LBB2772:
.LBB2769:
.LBB2766:
.LBB2763:
	.loc 1 385 30 view .LVU2172
	.loc 1 385 4 view .LVU2173
	.loc 1 385 4 view .LVU2174
	.loc 1 385 71 view .LVU2175
	.loc 1 385 83 is_stmt 0 view .LVU2176
	sub	sp, sp, #32
	mov	r2, sp
.LVL286:
	.loc 1 385 75 is_stmt 1 view .LVU2177
	.loc 1 385 485 view .LVU2178
	.loc 1 385 6 view .LVU2179
	.loc 1 385 8 view .LVU2180
	.loc 1 385 13 view .LVU2181
	.loc 1 385 11 view .LVU2182
	.loc 1 385 6 view .LVU2183
	.loc 1 385 24 view .LVU2184
.LBB2758:
	.loc 1 385 4 view .LVU2185
	.loc 1 385 369 view .LVU2186
	.loc 1 385 76 view .LVU2187
.LVL287:
	.loc 1 385 3 view .LVU2188
	.loc 1 385 3 view .LVU2189
	.loc 1 385 3 view .LVU2190
	.loc 1 385 39 view .LVU2191
	.loc 1 385 68 view .LVU2192
	.loc 1 385 94 view .LVU2193
	.loc 1 385 120 view .LVU2194
	.loc 1 385 587 view .LVU2195
	.loc 1 385 649 view .LVU2196
	.loc 1 385 1170 view .LVU2197
	.loc 1 385 1235 view .LVU2198
	.loc 1 385 1260 view .LVU2199
	.loc 1 385 1261 view .LVU2200
	.loc 1 385 1263 view .LVU2201
	.loc 1 385 1293 view .LVU2202
	.loc 1 385 1323 view .LVU2203
	.loc 1 385 1355 view .LVU2204
	.loc 1 385 1387 view .LVU2205
	.loc 1 385 1419 view .LVU2206
	.loc 1 385 1616 view .LVU2207
	.loc 1 385 1640 view .LVU2208
	.loc 1 385 1641 view .LVU2209
	.loc 1 385 1643 view .LVU2210
	.loc 1 385 1672 view .LVU2211
	.loc 1 385 1701 view .LVU2212
	.loc 1 385 1732 view .LVU2213
	.loc 1 385 1763 view .LVU2214
	.loc 1 385 1794 view .LVU2215
	.loc 1 385 2001 view .LVU2216
.LBB2759:
	.loc 1 385 3064 view .LVU2217
	.loc 1 385 3069 view .LVU2218
	.loc 1 385 3633 view .LVU2219
	.loc 1 385 0 is_stmt 0 view .LVU2220
	ldr	r3, .L219
.LBE2759:
.LBB2760:
	.loc 1 385 3812 view .LVU2221
	strd	r3, r0, [r2, #20]
	.loc 1 385 2767 is_stmt 1 view .LVU2222
	.loc 1 385 8 view .LVU2223
.LVL288:
	.loc 1 385 31 view .LVU2224
	.loc 1 385 31 is_stmt 0 view .LVU2225
.LBE2760:
	.loc 1 385 10 is_stmt 1 view .LVU2226
	.loc 1 385 6 view .LVU2227
	.loc 1 385 29 view .LVU2228
	.loc 1 385 53 view .LVU2229
	.loc 1 385 81 view .LVU2230
.LBE2758:
.LBE2763:
.LBE2766:
.LBE2769:
.LBE2772:
.LBE2776:
	.loc 1 385 7 view .LVU2231
	.loc 1 385 46 view .LVU2232
	.loc 1 385 51 view .LVU2233
	.loc 1 385 81 view .LVU2234
	.loc 1 385 148 view .LVU2235
	.loc 1 385 153 view .LVU2236
	.loc 1 385 183 view .LVU2237
.LBB2777:
.LBB2773:
.LBB2770:
.LBB2767:
.LBB2764:
.LBB2762:
	.loc 1 385 257 view .LVU2238
	.loc 1 385 17 view .LVU2239
.LBB2761:
	.loc 1 385 7 view .LVU2240
	.loc 1 385 165 view .LVU2241
	.loc 1 385 167 view .LVU2242
	.loc 1 385 177 is_stmt 0 view .LVU2243
	movs	r3, #3
	str	r3, [r2, #16]!
.LVL289:
	.loc 1 385 177 view .LVU2244
.LBE2761:
.LBE2762:
	.loc 1 385 27 is_stmt 1 view .LVU2245
	.loc 1 385 8 view .LVU2246
	.loc 1 385 148 view .LVU2247
	.loc 1 385 150 view .LVU2248
	ldr	r0, .L219+4
.LVL290:
	.loc 1 385 150 is_stmt 0 view .LVU2249
	mov	r1, #6208
	bl	z_log_msg_static_create.constprop.0
.LVL291:
	.loc 1 385 150 view .LVU2250
	mov	sp, r4
.LVL292:
	.loc 1 385 150 view .LVU2251
.LBE2764:
	.loc 1 385 108 is_stmt 1 view .LVU2252
	.loc 1 385 6 view .LVU2253
	.loc 1 385 43 view .LVU2254
.LBE2767:
	.loc 1 385 7 view .LVU2255
.LBE2770:
	.loc 1 385 279 view .LVU2256
	.loc 1 385 6 view .LVU2257
	.loc 1 385 19 view .LVU2258
.L211:
	.loc 1 385 19 is_stmt 0 view .LVU2259
.LBE2773:
.LBE2777:
	.loc 1 395 1 view .LVU2260
	mov	sp, r7
	.cfi_remember_state
	.cfi_def_cfa_register 13
	@ sp needed
	pop	{r4, r5, r7, pc}
.LVL293:
.L212:
	.cfi_restore_state
.LBB2778:
	.loc 1 388 3 is_stmt 1 view .LVU2261
	.loc 1 390 3 view .LVU2262
	.loc 1 390 9 is_stmt 0 view .LVU2263
	bl	find_sc_cfg
.LVL294:
	.loc 1 391 3 is_stmt 1 view .LVU2264
	.loc 1 391 6 is_stmt 0 view .LVU2265
	cmp	r0, #0
	beq	.L211
	.loc 1 392 4 is_stmt 1 view .LVU2266
	bl	clear_sc_cfg
.LVL295:
.LBE2778:
	.loc 1 395 1 is_stmt 0 view .LVU2267
	b	.L211
.L220:
	.align	2
.L219:
	.word	.LC7
	.word	log_const_bt_gatt
	.cfi_endproc
.LFE607:
	.size	sc_clear, .-sc_clear
	.section	.rodata.sc_store.str1.1,"aMS",%progbits,1
.LC8:
	.ascii	"failed to store SC (err %d)\000"
	.section	.text.sc_store,"ax",%progbits
	.align	1
	.syntax unified
	.thumb
	.thumb_func
	.type	sc_store, %function
sc_store:
.LVL296:
.LFB604:
	.loc 1 334 1 is_stmt 1 view -0
	.cfi_startproc
	@ args = 0, pretend = 0, frame = 0
	@ frame_needed = 1, uses_anonymous_args = 0
	.loc 1 335 2 view .LVU2269
	.loc 1 337 2 view .LVU2270
	.loc 1 334 1 is_stmt 0 view .LVU2271
	push	{r3, r4, r7, lr}
	.cfi_def_cfa_offset 16
	.cfi_offset 3, -16
	.cfi_offset 4, -12
	.cfi_offset 7, -8
	.cfi_offset 14, -4
	.loc 1 337 38 view .LVU2272
	mov	r1, r0
	.loc 1 334 1 view .LVU2273
	mov	r2, r0
	add	r7, sp, #0
	.cfi_def_cfa_register 7
	.loc 1 337 8 view .LVU2274
	ldrb	r0, [r1], #1	@ zero_extendqisi2
.LVL297:
	.loc 1 337 8 view .LVU2275
	movs	r3, #4
	adds	r2, r2, #8
.LVL298:
	.loc 1 337 8 view .LVU2276
	bl	bt_settings_store_sc
.LVL299:
	.loc 1 338 2 is_stmt 1 view .LVU2277
	.loc 1 338 5 is_stmt 0 view .LVU2278
	cbz	r0, .L221
	.loc 1 339 3 is_stmt 1 view .LVU2279
.LBB2779:
	.loc 1 339 8 view .LVU2280
	.loc 1 339 57 view .LVU2281
	.loc 1 339 14 view .LVU2282
	.loc 1 339 2 view .LVU2283
.LVL300:
	.loc 1 339 41 view .LVU2284
	.loc 1 339 176 view .LVU2285
	.loc 1 339 187 view .LVU2286
	.loc 1 339 275 view .LVU2287
.LBB2780:
	.loc 1 339 3 view .LVU2288
	.loc 1 339 5 view .LVU2289
	.loc 1 339 3 view .LVU2290
.LBB2781:
	.loc 1 339 8 view .LVU2291
	.loc 1 339 2 view .LVU2292
.LBE2781:
.LBE2780:
.LBE2779:
	.loc 1 339 3 view .LVU2293
	.loc 1 339 12 view .LVU2294
	.loc 1 339 107 view .LVU2295
	.loc 1 339 3 view .LVU2296
.LBB2796:
.LBB2793:
.LBB2790:
	.loc 1 339 12 view .LVU2297
	.loc 1 339 102 view .LVU2298
	.loc 1 339 104 view .LVU2299
.LBB2782:
	.loc 1 339 107 is_stmt 0 view .LVU2300
	mov	r4, sp
	.loc 1 339 109 is_stmt 1 view .LVU2301
	.loc 1 339 120 view .LVU2302
.LVL301:
	.loc 1 339 209 view .LVU2303
	.loc 1 339 26 view .LVU2304
.LBE2782:
.LBE2790:
.LBE2793:
.LBE2796:
	.loc 1 339 3 view .LVU2305
	.loc 1 339 368 view .LVU2306
	.loc 1 339 75 view .LVU2307
	.loc 1 339 2 view .LVU2308
	.loc 1 339 2 view .LVU2309
	.loc 1 339 2 view .LVU2310
	.loc 1 339 38 view .LVU2311
	.loc 1 339 4 view .LVU2312
	.loc 1 339 30 view .LVU2313
	.loc 1 339 56 view .LVU2314
	.loc 1 339 523 view .LVU2315
	.loc 1 339 585 view .LVU2316
	.loc 1 339 1106 view .LVU2317
	.loc 1 339 1171 view .LVU2318
	.loc 1 339 1196 view .LVU2319
	.loc 1 339 1197 view .LVU2320
	.loc 1 339 1199 view .LVU2321
	.loc 1 339 1229 view .LVU2322
	.loc 1 339 1259 view .LVU2323
	.loc 1 339 1291 view .LVU2324
	.loc 1 339 1323 view .LVU2325
	.loc 1 339 1355 view .LVU2326
	.loc 1 339 1552 view .LVU2327
	.loc 1 339 1576 view .LVU2328
	.loc 1 339 1577 view .LVU2329
	.loc 1 339 1579 view .LVU2330
	.loc 1 339 1608 view .LVU2331
	.loc 1 339 1637 view .LVU2332
	.loc 1 339 1668 view .LVU2333
	.loc 1 339 1699 view .LVU2334
	.loc 1 339 1730 view .LVU2335
	.loc 1 339 1937 view .LVU2336
	.loc 1 339 4 view .LVU2337
	.loc 1 339 22 view .LVU2338
	.loc 1 339 42 view .LVU2339
	.loc 1 339 4 view .LVU2340
	.loc 1 339 42 view .LVU2341
	.loc 1 339 13 view .LVU2342
	.loc 1 339 13 view .LVU2343
	.loc 1 339 61 view .LVU2344
	.loc 1 339 92 view .LVU2345
	.loc 1 339 126 view .LVU2346
	.loc 1 339 131 view .LVU2347
	.loc 1 339 382 view .LVU2348
	.loc 1 339 1439 view .LVU2349
	.loc 1 339 1504 view .LVU2350
	.loc 1 339 1528 view .LVU2351
	.loc 1 339 1583 view .LVU2352
	.loc 1 339 1594 view .LVU2353
	.loc 1 339 1707 view .LVU2354
	.loc 1 339 1723 view .LVU2355
	.loc 1 339 1763 view .LVU2356
	.loc 1 339 1788 view .LVU2357
	.loc 1 339 3079 view .LVU2358
	.loc 1 339 3120 view .LVU2359
	.loc 1 339 7 view .LVU2360
	.loc 1 339 30 view .LVU2361
	.loc 1 339 129 view .LVU2362
	.loc 1 339 6 view .LVU2363
	.loc 1 339 11 view .LVU2364
	.loc 1 339 236 view .LVU2365
	.loc 1 339 1189 view .LVU2366
	.loc 1 339 1254 view .LVU2367
	.loc 1 339 1278 view .LVU2368
	.loc 1 339 1307 view .LVU2369
	.loc 1 339 1318 view .LVU2370
	.loc 1 339 1405 view .LVU2371
	.loc 1 339 1421 view .LVU2372
	.loc 1 339 1461 view .LVU2373
	.loc 1 339 2725 view .LVU2374
	.loc 1 339 2766 view .LVU2375
	.loc 1 339 7 view .LVU2376
	.loc 1 339 30 view .LVU2377
	.loc 1 339 9 view .LVU2378
	.loc 1 339 5 view .LVU2379
	.loc 1 339 28 view .LVU2380
	.loc 1 339 52 view .LVU2381
	.loc 1 339 80 view .LVU2382
	.loc 1 339 256 view .LVU2383
	.loc 1 339 16 view .LVU2384
.LBB2797:
.LBB2794:
.LBB2791:
.LBB2788:
	.loc 1 339 29 view .LVU2385
	.loc 1 339 3 view .LVU2386
	.loc 1 339 3 view .LVU2387
	.loc 1 339 70 view .LVU2388
	.loc 1 339 82 is_stmt 0 view .LVU2389
	sub	sp, sp, #32
	mov	r2, sp
.LVL302:
	.loc 1 339 74 is_stmt 1 view .LVU2390
	.loc 1 339 484 view .LVU2391
	.loc 1 339 5 view .LVU2392
	.loc 1 339 7 view .LVU2393
	.loc 1 339 12 view .LVU2394
	.loc 1 339 10 view .LVU2395
	.loc 1 339 5 view .LVU2396
	.loc 1 339 23 view .LVU2397
.LBB2783:
	.loc 1 339 3 view .LVU2398
	.loc 1 339 368 view .LVU2399
	.loc 1 339 75 view .LVU2400
.LVL303:
	.loc 1 339 2 view .LVU2401
	.loc 1 339 2 view .LVU2402
	.loc 1 339 2 view .LVU2403
	.loc 1 339 38 view .LVU2404
	.loc 1 339 67 view .LVU2405
	.loc 1 339 93 view .LVU2406
	.loc 1 339 119 view .LVU2407
	.loc 1 339 586 view .LVU2408
	.loc 1 339 648 view .LVU2409
	.loc 1 339 1169 view .LVU2410
	.loc 1 339 1234 view .LVU2411
	.loc 1 339 1259 view .LVU2412
	.loc 1 339 1260 view .LVU2413
	.loc 1 339 1262 view .LVU2414
	.loc 1 339 1292 view .LVU2415
	.loc 1 339 1322 view .LVU2416
	.loc 1 339 1354 view .LVU2417
	.loc 1 339 1386 view .LVU2418
	.loc 1 339 1418 view .LVU2419
	.loc 1 339 1615 view .LVU2420
	.loc 1 339 1639 view .LVU2421
	.loc 1 339 1640 view .LVU2422
	.loc 1 339 1642 view .LVU2423
	.loc 1 339 1671 view .LVU2424
	.loc 1 339 1700 view .LVU2425
	.loc 1 339 1731 view .LVU2426
	.loc 1 339 1762 view .LVU2427
	.loc 1 339 1793 view .LVU2428
	.loc 1 339 2000 view .LVU2429
.LBB2784:
	.loc 1 339 3117 view .LVU2430
	.loc 1 339 3122 view .LVU2431
	.loc 1 339 3722 view .LVU2432
	.loc 1 339 0 is_stmt 0 view .LVU2433
	ldr	r3, .L226
.LBE2784:
.LBB2785:
	.loc 1 339 3811 view .LVU2434
	strd	r3, r0, [r2, #20]
	.loc 1 339 2766 is_stmt 1 view .LVU2435
	.loc 1 339 7 view .LVU2436
.LVL304:
	.loc 1 339 30 view .LVU2437
	.loc 1 339 30 is_stmt 0 view .LVU2438
.LBE2785:
	.loc 1 339 9 is_stmt 1 view .LVU2439
	.loc 1 339 5 view .LVU2440
	.loc 1 339 28 view .LVU2441
	.loc 1 339 52 view .LVU2442
	.loc 1 339 80 view .LVU2443
.LBE2783:
.LBE2788:
.LBE2791:
.LBE2794:
.LBE2797:
	.loc 1 339 6 view .LVU2444
	.loc 1 339 45 view .LVU2445
	.loc 1 339 50 view .LVU2446
	.loc 1 339 80 view .LVU2447
	.loc 1 339 147 view .LVU2448
	.loc 1 339 152 view .LVU2449
	.loc 1 339 182 view .LVU2450
.LBB2798:
.LBB2795:
.LBB2792:
.LBB2789:
.LBB2787:
	.loc 1 339 256 view .LVU2451
	.loc 1 339 16 view .LVU2452
.LBB2786:
	.loc 1 339 6 view .LVU2453
	.loc 1 339 164 view .LVU2454
	.loc 1 339 166 view .LVU2455
	.loc 1 339 176 is_stmt 0 view .LVU2456
	movs	r3, #3
	str	r3, [r2, #16]!
.LVL305:
	.loc 1 339 176 view .LVU2457
.LBE2786:
.LBE2787:
	.loc 1 339 26 is_stmt 1 view .LVU2458
	.loc 1 339 7 view .LVU2459
	.loc 1 339 147 view .LVU2460
	.loc 1 339 149 view .LVU2461
	ldr	r0, .L226+4
.LVL306:
	.loc 1 339 149 is_stmt 0 view .LVU2462
	mov	r1, #6208
	bl	z_log_msg_static_create.constprop.0
.LVL307:
	.loc 1 339 149 view .LVU2463
	mov	sp, r4
.LVL308:
	.loc 1 339 149 view .LVU2464
.LBE2789:
	.loc 1 339 107 is_stmt 1 view .LVU2465
	.loc 1 339 5 view .LVU2466
	.loc 1 339 42 view .LVU2467
.LBE2792:
	.loc 1 339 6 view .LVU2468
.LBE2795:
	.loc 1 339 278 view .LVU2469
	.loc 1 339 5 view .LVU2470
	.loc 1 339 18 view .LVU2471
.LBE2798:
	.loc 1 339 6 view .LVU2472
	.loc 1 340 3 view .LVU2473
	.loc 1 343 5 view .LVU2474
.L221:
	.loc 1 345 1 is_stmt 0 view .LVU2475
	mov	sp, r7
	.cfi_def_cfa_register 13
	@ sp needed
	pop	{r3, r4, r7, pc}
.L227:
	.align	2
.L226:
	.word	.LC8
	.word	log_const_bt_gatt
	.cfi_endproc
.LFE604:
	.size	sc_store, .-sc_store
	.section	.rodata.sc_save.str1.1,"aMS",%progbits,1
.LC9:
	.ascii	"unable to save SC: no cfg left\000"
	.section	.text.sc_save,"ax",%progbits
	.align	1
	.syntax unified
	.thumb
	.thumb_func
	.type	sc_save, %function
sc_save:
.LVL309:
.LFB610:
	.loc 1 432 1 is_stmt 1 view -0
	.cfi_startproc
	@ args = 0, pretend = 0, frame = 24
	@ frame_needed = 0, uses_anonymous_args = 0
	.loc 1 432 1 is_stmt 0 view .LVU2477
	push	{r4, r5, r6, r7, r8, lr}
	.cfi_def_cfa_offset 24
	.cfi_offset 4, -24
	.cfi_offset 5, -20
	.cfi_offset 6, -16
	.cfi_offset 7, -12
	.cfi_offset 8, -8
	.cfi_offset 14, -4
	sub	sp, sp, #24
	.cfi_def_cfa_offset 48
	.loc 1 432 1 view .LVU2478
	mov	r8, r0
	mov	r7, r1
	.loc 1 433 2 is_stmt 1 view .LVU2479
	.loc 1 434 1 view .LVU2480
.LVL310:
	.loc 1 436 2 view .LVU2481
.LBB2815:
	.loc 1 436 7 view .LVU2482
.LBE2815:
	.loc 1 436 5 view .LVU2483
	.loc 1 438 2 view .LVU2484
	.loc 1 432 1 is_stmt 0 view .LVU2485
	mov	r6, r2
	mov	r5, r3
	.loc 1 438 8 view .LVU2486
	bl	find_sc_cfg
.LVL311:
	.loc 1 439 2 is_stmt 1 view .LVU2487
	.loc 1 439 5 is_stmt 0 view .LVU2488
	mov	r4, r0
	cbnz	r0, .L229
	.loc 1 441 3 is_stmt 1 view .LVU2489
	.loc 1 441 9 is_stmt 0 view .LVU2490
	ldr	r1, .L241
	bl	find_sc_cfg
.LVL312:
	.loc 1 442 3 is_stmt 1 view .LVU2491
	.loc 1 442 6 is_stmt 0 view .LVU2492
	mov	r4, r0
	cbnz	r0, .L230
	.loc 1 443 4 is_stmt 1 view .LVU2493
.LBB2816:
	.loc 1 443 9 view .LVU2494
	.loc 1 443 58 view .LVU2495
	.loc 1 443 15 view .LVU2496
	.loc 1 443 3 view .LVU2497
.LVL313:
	.loc 1 443 42 view .LVU2498
	.loc 1 443 177 view .LVU2499
	.loc 1 443 188 view .LVU2500
	.loc 1 443 276 view .LVU2501
	.loc 1 443 4 view .LVU2502
	.loc 1 443 4 view .LVU2503
.LBB2817:
	.loc 1 443 9 view .LVU2504
	.loc 1 443 3 view .LVU2505
.LBE2817:
.LBE2816:
	.loc 1 443 4 view .LVU2506
	.loc 1 443 13 view .LVU2507
	.loc 1 443 108 view .LVU2508
	.loc 1 443 4 view .LVU2509
.LBB2836:
.LBB2832:
	.loc 1 443 13 view .LVU2510
	.loc 1 443 103 view .LVU2511
	.loc 1 443 105 view .LVU2512
.LBB2818:
	.loc 1 443 110 view .LVU2513
	.loc 1 443 121 view .LVU2514
	.loc 1 443 210 view .LVU2515
	.loc 1 443 27 view .LVU2516
.LBE2818:
.LBE2832:
.LBE2836:
	.loc 1 443 4 view .LVU2517
	.loc 1 443 369 view .LVU2518
	.loc 1 443 76 view .LVU2519
	.loc 1 443 3 view .LVU2520
	.loc 1 443 3 view .LVU2521
	.loc 1 443 3 view .LVU2522
	.loc 1 443 39 view .LVU2523
	.loc 1 443 5 view .LVU2524
	.loc 1 443 31 view .LVU2525
	.loc 1 443 57 view .LVU2526
	.loc 1 443 80 view .LVU2527
	.loc 1 443 142 view .LVU2528
	.loc 1 443 199 view .LVU2529
	.loc 1 443 264 view .LVU2530
	.loc 1 443 289 view .LVU2531
	.loc 1 443 290 view .LVU2532
	.loc 1 443 292 view .LVU2533
	.loc 1 443 322 view .LVU2534
	.loc 1 443 352 view .LVU2535
	.loc 1 443 384 view .LVU2536
	.loc 1 443 416 view .LVU2537
	.loc 1 443 448 view .LVU2538
	.loc 1 443 645 view .LVU2539
	.loc 1 443 669 view .LVU2540
	.loc 1 443 670 view .LVU2541
	.loc 1 443 672 view .LVU2542
	.loc 1 443 701 view .LVU2543
	.loc 1 443 730 view .LVU2544
	.loc 1 443 761 view .LVU2545
	.loc 1 443 792 view .LVU2546
	.loc 1 443 823 view .LVU2547
	.loc 1 443 1030 view .LVU2548
	.loc 1 443 5 view .LVU2549
	.loc 1 443 23 view .LVU2550
	.loc 1 443 43 view .LVU2551
	.loc 1 443 5 view .LVU2552
	.loc 1 443 43 view .LVU2553
	.loc 1 443 14 view .LVU2554
	.loc 1 443 14 view .LVU2555
	.loc 1 443 62 view .LVU2556
	.loc 1 443 93 view .LVU2557
	.loc 1 443 127 view .LVU2558
	.loc 1 443 132 view .LVU2559
	.loc 1 443 386 view .LVU2560
	.loc 1 443 1455 view .LVU2561
	.loc 1 443 1520 view .LVU2562
	.loc 1 443 1544 view .LVU2563
	.loc 1 443 1602 view .LVU2564
	.loc 1 443 1613 view .LVU2565
	.loc 1 443 1729 view .LVU2566
	.loc 1 443 1745 view .LVU2567
	.loc 1 443 1785 view .LVU2568
	.loc 1 443 1810 view .LVU2569
	.loc 1 443 3107 view .LVU2570
	.loc 1 443 3148 view .LVU2571
	.loc 1 443 8 view .LVU2572
	.loc 1 443 31 view .LVU2573
	.loc 1 443 130 view .LVU2574
	.loc 1 443 6 view .LVU2575
	.loc 1 443 29 view .LVU2576
	.loc 1 443 53 view .LVU2577
	.loc 1 443 81 view .LVU2578
	.loc 1 443 257 view .LVU2579
	.loc 1 443 17 view .LVU2580
.LBB2837:
.LBB2833:
.LBB2829:
	.loc 1 443 30 view .LVU2581
	.loc 1 443 4 view .LVU2582
	.loc 1 443 4 view .LVU2583
	.loc 1 443 71 view .LVU2584
	.loc 1 443 75 view .LVU2585
	.loc 1 443 485 view .LVU2586
	.loc 1 443 6 view .LVU2587
	.loc 1 443 8 view .LVU2588
	.loc 1 443 13 view .LVU2589
	.loc 1 443 11 view .LVU2590
	.loc 1 443 6 view .LVU2591
	.loc 1 443 24 view .LVU2592
.LBB2819:
	.loc 1 443 4 view .LVU2593
	.loc 1 443 369 view .LVU2594
	.loc 1 443 76 view .LVU2595
.LVL314:
	.loc 1 443 3 view .LVU2596
	.loc 1 443 3 view .LVU2597
	.loc 1 443 3 view .LVU2598
	.loc 1 443 39 view .LVU2599
	.loc 1 443 68 view .LVU2600
	.loc 1 443 94 view .LVU2601
	.loc 1 443 120 view .LVU2602
	.loc 1 443 143 view .LVU2603
	.loc 1 443 205 view .LVU2604
	.loc 1 443 262 view .LVU2605
	.loc 1 443 327 view .LVU2606
	.loc 1 443 352 view .LVU2607
	.loc 1 443 353 view .LVU2608
	.loc 1 443 355 view .LVU2609
	.loc 1 443 385 view .LVU2610
	.loc 1 443 415 view .LVU2611
	.loc 1 443 447 view .LVU2612
	.loc 1 443 479 view .LVU2613
	.loc 1 443 511 view .LVU2614
	.loc 1 443 708 view .LVU2615
	.loc 1 443 732 view .LVU2616
	.loc 1 443 733 view .LVU2617
	.loc 1 443 735 view .LVU2618
	.loc 1 443 764 view .LVU2619
	.loc 1 443 793 view .LVU2620
	.loc 1 443 824 view .LVU2621
	.loc 1 443 855 view .LVU2622
	.loc 1 443 886 view .LVU2623
	.loc 1 443 1093 view .LVU2624
	.loc 1 443 5 view .LVU2625
	.loc 1 443 23 view .LVU2626
	.loc 1 443 43 view .LVU2627
	.loc 1 443 5 view .LVU2628
	.loc 1 443 43 view .LVU2629
	.loc 1 443 14 view .LVU2630
	.loc 1 443 14 view .LVU2631
	.loc 1 443 62 view .LVU2632
	.loc 1 443 93 view .LVU2633
	.loc 1 443 127 view .LVU2634
.LBB2820:
	.loc 1 443 132 view .LVU2635
	.loc 1 443 386 view .LVU2636
	.loc 1 443 1455 view .LVU2637
	.loc 1 443 1520 view .LVU2638
.LBE2820:
.LBE2819:
.LBE2829:
.LBE2833:
.LBE2837:
	.loc 1 443 1544 view .LVU2639
	.loc 1 443 1602 view .LVU2640
	.loc 1 443 1613 view .LVU2641
	.loc 1 443 1729 view .LVU2642
.LBB2838:
.LBB2834:
.LBB2830:
.LBB2825:
.LBB2821:
	.loc 1 443 1745 view .LVU2643
	.loc 1 443 1785 view .LVU2644
	.loc 1 443 1810 view .LVU2645
	.loc 1 443 3107 view .LVU2646
	.loc 1 443 3145 view .LVU2647
	.loc 1 443 3150 view .LVU2648
	.loc 1 443 3768 view .LVU2649
	.loc 1 443 0 is_stmt 0 view .LVU2650
	ldr	r3, .L241+4
	str	r3, [sp, #20]
	.loc 1 443 3148 is_stmt 1 view .LVU2651
	.loc 1 443 8 view .LVU2652
.LVL315:
	.loc 1 443 31 view .LVU2653
	.loc 1 443 31 is_stmt 0 view .LVU2654
.LBE2821:
	.loc 1 443 130 is_stmt 1 view .LVU2655
	.loc 1 443 6 view .LVU2656
	.loc 1 443 29 view .LVU2657
	.loc 1 443 53 view .LVU2658
	.loc 1 443 81 view .LVU2659
.LBE2825:
.LBE2830:
.LBE2834:
.LBE2838:
	.loc 1 443 7 view .LVU2660
	.loc 1 443 46 view .LVU2661
	.loc 1 443 51 view .LVU2662
	.loc 1 443 81 view .LVU2663
	.loc 1 443 148 view .LVU2664
	.loc 1 443 153 view .LVU2665
	.loc 1 443 183 view .LVU2666
.LBB2839:
.LBB2835:
.LBB2831:
.LBB2826:
	.loc 1 443 257 view .LVU2667
	.loc 1 443 17 view .LVU2668
.LBB2822:
	.loc 1 443 7 view .LVU2669
	.loc 1 443 165 view .LVU2670
	.loc 1 443 167 view .LVU2671
.LBE2822:
.LBE2826:
	.loc 1 443 150 is_stmt 0 view .LVU2672
	ldr	r0, .L241+8
.LVL316:
.LBB2827:
.LBB2823:
	.loc 1 443 177 view .LVU2673
	movs	r3, #2
.LBE2823:
.LBE2827:
	.loc 1 443 150 view .LVU2674
	add	r2, sp, #16
.LVL317:
	.loc 1 443 150 view .LVU2675
	mov	r1, #4160
.LBB2828:
.LBB2824:
	.loc 1 443 177 view .LVU2676
	str	r3, [sp, #16]
.LVL318:
	.loc 1 443 177 view .LVU2677
.LBE2824:
.LBE2828:
	.loc 1 443 27 is_stmt 1 view .LVU2678
	.loc 1 443 8 view .LVU2679
	.loc 1 443 148 view .LVU2680
	.loc 1 443 150 view .LVU2681
	bl	z_log_msg_static_create.constprop.0
.LVL319:
	.loc 1 443 150 is_stmt 0 view .LVU2682
.LBE2831:
	.loc 1 443 108 is_stmt 1 view .LVU2683
	.loc 1 443 6 view .LVU2684
.LVL320:
	.loc 1 443 43 view .LVU2685
.LBE2835:
	.loc 1 443 7 view .LVU2686
	.loc 1 443 279 view .LVU2687
	.loc 1 443 6 view .LVU2688
	.loc 1 443 19 view .LVU2689
.LBE2839:
	.loc 1 443 7 view .LVU2690
	.loc 1 444 4 view .LVU2691
.L228:
	.loc 1 466 1 is_stmt 0 view .LVU2692
	add	sp, sp, #24
	.cfi_remember_state
	.cfi_def_cfa_offset 24
	@ sp needed
	pop	{r4, r5, r6, r7, r8, pc}
.LVL321:
.L230:
	.cfi_restore_state
	.loc 1 447 3 is_stmt 1 view .LVU2693
	.loc 1 447 11 is_stmt 0 view .LVU2694
	strb	r8, [r0], #1
.LVL322:
	.loc 1 448 3 is_stmt 1 view .LVU2695
	mov	r1, r7
	bl	bt_addr_le_copy
.LVL323:
.L229:
	.loc 1 452 2 view .LVU2696
	.loc 1 452 17 is_stmt 0 view .LVU2697
	ldrh	r2, [r4, #8]
	.loc 1 452 36 view .LVU2698
	ldrh	r3, [r4, #10]
	.loc 1 452 5 view .LVU2699
	cbnz	r2, .L232
	.loc 1 452 6 discriminator 1 view .LVU2700
	cbnz	r3, .L233
	.loc 1 453 3 is_stmt 1 view .LVU2701
	.loc 1 453 19 is_stmt 0 view .LVU2702
	strh	r6, [r4, #8]	@ movhi
	.loc 1 454 3 is_stmt 1 view .LVU2703
.L237:
.LBB2840:
.LBB2841:
	.loc 1 425 3 view .LVU2704
	.loc 1 425 8 is_stmt 0 view .LVU2705
	strh	r5, [r4, #10]	@ movhi
.LVL324:
	.loc 1 425 8 view .LVU2706
.LBE2841:
.LBE2840:
	.loc 1 462 2 is_stmt 1 view .LVU2707
.L234:
	.loc 1 463 48 is_stmt 0 view .LVU2708
	mov	r1, r4
	.loc 1 463 18 view .LVU2709
	ldrb	r0, [r1], #1	@ zero_extendqisi2
	bl	bt_addr_le_is_bonded
.LVL325:
	.loc 1 463 15 view .LVU2710
	cmp	r0, #0
	beq	.L228
	.loc 1 464 3 is_stmt 1 view .LVU2711
	mov	r0, r4
	.loc 1 466 1 is_stmt 0 view .LVU2712
	add	sp, sp, #24
	.cfi_remember_state
	.cfi_def_cfa_offset 24
	@ sp needed
	pop	{r4, r5, r6, r7, r8, lr}
	.cfi_restore 14
	.cfi_restore 8
	.cfi_restore 7
	.cfi_restore 6
	.cfi_restore 5
	.cfi_restore 4
	.cfi_def_cfa_offset 0
.LVL326:
	.loc 1 464 3 view .LVU2713
	b	sc_store
.LVL327:
.L232:
	.cfi_restore_state
	.loc 1 459 2 is_stmt 1 view .LVU2714
.LBB2846:
.LBI2840:
	.loc 1 408 12 view .LVU2715
.LBB2844:
	.loc 1 411 2 view .LVU2716
.LBB2842:
	.loc 1 411 7 view .LVU2717
.LBE2842:
	.loc 1 411 5 view .LVU2718
	.loc 1 415 2 view .LVU2719
	.loc 1 415 5 is_stmt 0 view .LVU2720
	cmp	r6, r2
	bcc	.L236
.LVL328:
.L233:
	.loc 1 415 5 view .LVU2721
.LBE2844:
.LBE2846:
	.loc 1 459 2 is_stmt 1 view .LVU2722
.LBB2847:
	.loc 1 408 12 view .LVU2723
.LBB2845:
	.loc 1 411 2 view .LVU2724
.LBB2843:
	.loc 1 411 7 view .LVU2725
.LBE2843:
	.loc 1 411 5 view .LVU2726
	.loc 1 415 2 view .LVU2727
	.loc 1 415 26 is_stmt 0 view .LVU2728
	cmp	r5, r3
	bhi	.L237
	b	.L228
.L236:
	.loc 1 421 3 is_stmt 1 view .LVU2729
	.loc 1 424 5 is_stmt 0 view .LVU2730
	cmp	r5, r3
	.loc 1 421 10 view .LVU2731
	strh	r6, [r4, #8]	@ movhi
	.loc 1 424 2 is_stmt 1 view .LVU2732
	.loc 1 424 5 is_stmt 0 view .LVU2733
	bls	.L234
	b	.L237
.L242:
	.align	2
.L241:
	.word	bt_addr_le_any
	.word	.LC9
	.word	log_const_bt_gatt
.LBE2845:
.LBE2847:
	.cfi_endproc
.LFE610:
	.size	sc_save, .-sc_save
	.section	.text.sc_ccc_cfg_write,"ax",%progbits
	.align	1
	.syntax unified
	.thumb
	.thumb_func
	.type	sc_ccc_cfg_write, %function
sc_ccc_cfg_write:
.LVL329:
.LFB611:
	.loc 1 470 1 is_stmt 1 view -0
	.cfi_startproc
	@ args = 0, pretend = 0, frame = 0
	@ frame_needed = 0, uses_anonymous_args = 0
	.loc 1 471 2 view .LVU2735
.LBB2858:
	.loc 1 471 7 view .LVU2736
.LBE2858:
	.loc 1 471 5 view .LVU2737
	.loc 1 473 2 view .LVU2738
	.loc 1 473 5 is_stmt 0 view .LVU2739
	cmp	r2, #2
	.loc 1 470 1 view .LVU2740
	push	{r4, lr}
	.cfi_def_cfa_offset 8
	.cfi_offset 4, -8
	.cfi_offset 14, -4
	.loc 1 473 5 view .LVU2741
	bne	.L244
.LVL330:
.LBB2859:
.LBI2859:
	.loc 1 468 16 is_stmt 1 view .LVU2742
.LBB2860:
	.loc 1 475 3 view .LVU2743
	movs	r3, #0
	add	r1, r0, #136
.LVL331:
	.loc 1 475 3 is_stmt 0 view .LVU2744
	mov	r2, r3
.LVL332:
	.loc 1 475 3 view .LVU2745
	ldrb	r0, [r0, #8]	@ zero_extendqisi2
.LVL333:
	.loc 1 475 3 view .LVU2746
	bl	sc_save
.LVL334:
.L245:
	.loc 1 475 3 view .LVU2747
.LBE2860:
.LBE2859:
	.loc 1 480 2 is_stmt 1 view .LVU2748
	.loc 1 481 1 is_stmt 0 view .LVU2749
	movs	r0, #2
	pop	{r4, pc}
.LVL335:
.L244:
	.loc 1 477 3 is_stmt 1 view .LVU2750
	bl	sc_clear
.LVL336:
	.loc 1 477 3 is_stmt 0 view .LVU2751
	b	.L245
	.cfi_endproc
.LFE611:
	.size	sc_ccc_cfg_write, .-sc_ccc_cfg_write
	.section	.rodata.db_hash_store.str1.1,"aMS",%progbits,1
.LC10:
	.ascii	"Failed to save Database Hash (err %d)\000"
	.section	.text.db_hash_store,"ax",%progbits
	.align	1
	.syntax unified
	.thumb
	.thumb_func
	.type	db_hash_store, %function
db_hash_store:
.LFB621:
	.loc 1 811 1 is_stmt 1 view -0
	.cfi_startproc
	@ args = 0, pretend = 0, frame = 0
	@ frame_needed = 1, uses_anonymous_args = 0
	.loc 1 813 2 view .LVU2753
	.loc 1 815 2 view .LVU2754
	.loc 1 811 1 is_stmt 0 view .LVU2755
	push	{r3, r4, r7, lr}
	.cfi_def_cfa_offset 16
	.cfi_offset 3, -16
	.cfi_offset 4, -12
	.cfi_offset 7, -8
	.cfi_offset 14, -4
	.loc 1 815 8 view .LVU2756
	ldr	r0, .L251
	.loc 1 811 1 view .LVU2757
	add	r7, sp, #0
	.cfi_def_cfa_register 7
	.loc 1 815 8 view .LVU2758
	movs	r1, #16
	bl	bt_settings_store_hash
.LVL337:
	.loc 1 816 2 is_stmt 1 view .LVU2759
	.loc 1 816 5 is_stmt 0 view .LVU2760
	cbz	r0, .L246
	.loc 1 817 3 is_stmt 1 view .LVU2761
.LBB2861:
	.loc 1 817 8 view .LVU2762
	.loc 1 817 57 view .LVU2763
	.loc 1 817 14 view .LVU2764
	.loc 1 817 2 view .LVU2765
.LVL338:
	.loc 1 817 41 view .LVU2766
	.loc 1 817 176 view .LVU2767
	.loc 1 817 187 view .LVU2768
	.loc 1 817 275 view .LVU2769
.LBB2862:
	.loc 1 817 3 view .LVU2770
	.loc 1 817 5 view .LVU2771
	.loc 1 817 3 view .LVU2772
.LBB2863:
	.loc 1 817 8 view .LVU2773
	.loc 1 817 2 view .LVU2774
.LBE2863:
.LBE2862:
.LBE2861:
	.loc 1 817 3 view .LVU2775
	.loc 1 817 12 view .LVU2776
	.loc 1 817 107 view .LVU2777
	.loc 1 817 3 view .LVU2778
.LBB2878:
.LBB2875:
.LBB2872:
	.loc 1 817 12 view .LVU2779
	.loc 1 817 102 view .LVU2780
	.loc 1 817 104 view .LVU2781
.LBB2864:
	.loc 1 817 107 is_stmt 0 view .LVU2782
	mov	r4, sp
	.loc 1 817 109 is_stmt 1 view .LVU2783
	.loc 1 817 120 view .LVU2784
.LVL339:
	.loc 1 817 209 view .LVU2785
	.loc 1 817 26 view .LVU2786
.LBE2864:
.LBE2872:
.LBE2875:
.LBE2878:
	.loc 1 817 3 view .LVU2787
	.loc 1 817 368 view .LVU2788
	.loc 1 817 75 view .LVU2789
	.loc 1 817 2 view .LVU2790
	.loc 1 817 2 view .LVU2791
	.loc 1 817 2 view .LVU2792
	.loc 1 817 38 view .LVU2793
	.loc 1 817 4 view .LVU2794
	.loc 1 817 30 view .LVU2795
	.loc 1 817 56 view .LVU2796
	.loc 1 817 523 view .LVU2797
	.loc 1 817 585 view .LVU2798
	.loc 1 817 1106 view .LVU2799
	.loc 1 817 1171 view .LVU2800
	.loc 1 817 1196 view .LVU2801
	.loc 1 817 1197 view .LVU2802
	.loc 1 817 1199 view .LVU2803
	.loc 1 817 1229 view .LVU2804
	.loc 1 817 1259 view .LVU2805
	.loc 1 817 1291 view .LVU2806
	.loc 1 817 1323 view .LVU2807
	.loc 1 817 1355 view .LVU2808
	.loc 1 817 1552 view .LVU2809
	.loc 1 817 1576 view .LVU2810
	.loc 1 817 1577 view .LVU2811
	.loc 1 817 1579 view .LVU2812
	.loc 1 817 1608 view .LVU2813
	.loc 1 817 1637 view .LVU2814
	.loc 1 817 1668 view .LVU2815
	.loc 1 817 1699 view .LVU2816
	.loc 1 817 1730 view .LVU2817
	.loc 1 817 1937 view .LVU2818
	.loc 1 817 4 view .LVU2819
	.loc 1 817 22 view .LVU2820
	.loc 1 817 42 view .LVU2821
	.loc 1 817 4 view .LVU2822
	.loc 1 817 42 view .LVU2823
	.loc 1 817 13 view .LVU2824
	.loc 1 817 13 view .LVU2825
	.loc 1 817 61 view .LVU2826
	.loc 1 817 92 view .LVU2827
	.loc 1 817 126 view .LVU2828
	.loc 1 817 131 view .LVU2829
	.loc 1 817 392 view .LVU2830
	.loc 1 817 1489 view .LVU2831
	.loc 1 817 1554 view .LVU2832
	.loc 1 817 1578 view .LVU2833
	.loc 1 817 1643 view .LVU2834
	.loc 1 817 1654 view .LVU2835
	.loc 1 817 1777 view .LVU2836
	.loc 1 817 1793 view .LVU2837
	.loc 1 817 1833 view .LVU2838
	.loc 1 817 1858 view .LVU2839
	.loc 1 817 3169 view .LVU2840
	.loc 1 817 3210 view .LVU2841
	.loc 1 817 7 view .LVU2842
	.loc 1 817 30 view .LVU2843
	.loc 1 817 129 view .LVU2844
	.loc 1 817 6 view .LVU2845
	.loc 1 817 11 view .LVU2846
	.loc 1 817 236 view .LVU2847
	.loc 1 817 1189 view .LVU2848
	.loc 1 817 1254 view .LVU2849
	.loc 1 817 1278 view .LVU2850
	.loc 1 817 1307 view .LVU2851
	.loc 1 817 1318 view .LVU2852
	.loc 1 817 1405 view .LVU2853
	.loc 1 817 1421 view .LVU2854
	.loc 1 817 1461 view .LVU2855
	.loc 1 817 2725 view .LVU2856
	.loc 1 817 2766 view .LVU2857
	.loc 1 817 7 view .LVU2858
	.loc 1 817 30 view .LVU2859
	.loc 1 817 9 view .LVU2860
	.loc 1 817 5 view .LVU2861
	.loc 1 817 28 view .LVU2862
	.loc 1 817 52 view .LVU2863
	.loc 1 817 80 view .LVU2864
	.loc 1 817 256 view .LVU2865
	.loc 1 817 16 view .LVU2866
.LBB2879:
.LBB2876:
.LBB2873:
.LBB2870:
	.loc 1 817 29 view .LVU2867
	.loc 1 817 3 view .LVU2868
	.loc 1 817 3 view .LVU2869
	.loc 1 817 70 view .LVU2870
	.loc 1 817 82 is_stmt 0 view .LVU2871
	sub	sp, sp, #32
	mov	r2, sp
.LVL340:
	.loc 1 817 74 is_stmt 1 view .LVU2872
	.loc 1 817 484 view .LVU2873
	.loc 1 817 5 view .LVU2874
	.loc 1 817 7 view .LVU2875
	.loc 1 817 12 view .LVU2876
	.loc 1 817 10 view .LVU2877
	.loc 1 817 5 view .LVU2878
	.loc 1 817 23 view .LVU2879
.LBB2865:
	.loc 1 817 3 view .LVU2880
	.loc 1 817 368 view .LVU2881
	.loc 1 817 75 view .LVU2882
.LVL341:
	.loc 1 817 2 view .LVU2883
	.loc 1 817 2 view .LVU2884
	.loc 1 817 2 view .LVU2885
	.loc 1 817 38 view .LVU2886
	.loc 1 817 67 view .LVU2887
	.loc 1 817 93 view .LVU2888
	.loc 1 817 119 view .LVU2889
	.loc 1 817 586 view .LVU2890
	.loc 1 817 648 view .LVU2891
	.loc 1 817 1169 view .LVU2892
	.loc 1 817 1234 view .LVU2893
	.loc 1 817 1259 view .LVU2894
	.loc 1 817 1260 view .LVU2895
	.loc 1 817 1262 view .LVU2896
	.loc 1 817 1292 view .LVU2897
	.loc 1 817 1322 view .LVU2898
	.loc 1 817 1354 view .LVU2899
	.loc 1 817 1386 view .LVU2900
	.loc 1 817 1418 view .LVU2901
	.loc 1 817 1615 view .LVU2902
	.loc 1 817 1639 view .LVU2903
	.loc 1 817 1640 view .LVU2904
	.loc 1 817 1642 view .LVU2905
	.loc 1 817 1671 view .LVU2906
	.loc 1 817 1700 view .LVU2907
	.loc 1 817 1731 view .LVU2908
	.loc 1 817 1762 view .LVU2909
	.loc 1 817 1793 view .LVU2910
	.loc 1 817 2000 view .LVU2911
.LBB2866:
	.loc 1 817 3207 view .LVU2912
	.loc 1 817 3212 view .LVU2913
	.loc 1 817 3872 view .LVU2914
	.loc 1 817 0 is_stmt 0 view .LVU2915
	ldr	r3, .L251+4
.LBE2866:
.LBB2867:
	.loc 1 817 3811 view .LVU2916
	strd	r3, r0, [r2, #20]
	.loc 1 817 2766 is_stmt 1 view .LVU2917
	.loc 1 817 7 view .LVU2918
.LVL342:
	.loc 1 817 30 view .LVU2919
	.loc 1 817 30 is_stmt 0 view .LVU2920
.LBE2867:
	.loc 1 817 9 is_stmt 1 view .LVU2921
	.loc 1 817 5 view .LVU2922
	.loc 1 817 28 view .LVU2923
	.loc 1 817 52 view .LVU2924
	.loc 1 817 80 view .LVU2925
.LBE2865:
.LBE2870:
.LBE2873:
.LBE2876:
.LBE2879:
	.loc 1 817 6 view .LVU2926
	.loc 1 817 45 view .LVU2927
	.loc 1 817 50 view .LVU2928
	.loc 1 817 80 view .LVU2929
	.loc 1 817 147 view .LVU2930
	.loc 1 817 152 view .LVU2931
	.loc 1 817 182 view .LVU2932
.LBB2880:
.LBB2877:
.LBB2874:
.LBB2871:
.LBB2869:
	.loc 1 817 256 view .LVU2933
	.loc 1 817 16 view .LVU2934
.LBB2868:
	.loc 1 817 6 view .LVU2935
	.loc 1 817 164 view .LVU2936
	.loc 1 817 166 view .LVU2937
	.loc 1 817 176 is_stmt 0 view .LVU2938
	movs	r3, #3
	str	r3, [r2, #16]!
.LVL343:
	.loc 1 817 176 view .LVU2939
.LBE2868:
.LBE2869:
	.loc 1 817 26 is_stmt 1 view .LVU2940
	.loc 1 817 7 view .LVU2941
	.loc 1 817 147 view .LVU2942
	.loc 1 817 149 view .LVU2943
	ldr	r0, .L251+8
.LVL344:
	.loc 1 817 149 is_stmt 0 view .LVU2944
	mov	r1, #6208
	bl	z_log_msg_static_create.constprop.0
.LVL345:
	.loc 1 817 149 view .LVU2945
	mov	sp, r4
.LVL346:
	.loc 1 817 149 view .LVU2946
.LBE2871:
	.loc 1 817 107 is_stmt 1 view .LVU2947
	.loc 1 817 5 view .LVU2948
	.loc 1 817 42 view .LVU2949
.LBE2874:
	.loc 1 817 6 view .LVU2950
.LBE2877:
	.loc 1 817 278 view .LVU2951
	.loc 1 817 5 view .LVU2952
	.loc 1 817 18 view .LVU2953
.LBE2880:
	.loc 1 817 6 view .LVU2954
	.loc 1 820 2 view .LVU2955
.LBB2881:
	.loc 1 820 7 view .LVU2956
.LBE2881:
	.loc 1 820 5 view .LVU2957
.L246:
	.loc 1 822 1 is_stmt 0 view .LVU2958
	mov	sp, r7
	.cfi_def_cfa_register 13
	@ sp needed
	pop	{r3, r4, r7, pc}
.L252:
	.align	2
.L251:
	.word	db_hash
	.word	.LC10
	.word	log_const_bt_gatt
	.cfi_endproc
.LFE621:
	.size	db_hash_store, .-db_hash_store
	.section	.text.db_hash_set,"ax",%progbits
	.align	1
	.syntax unified
	.thumb
	.thumb_func
	.type	db_hash_set, %function
db_hash_set:
.LVL347:
.LFB700:
	.loc 1 6095 1 is_stmt 1 view -0
	.cfi_startproc
	@ args = 0, pretend = 0, frame = 0
	@ frame_needed = 1, uses_anonymous_args = 0
	.loc 1 6096 2 view .LVU2960
	.loc 1 6098 2 view .LVU2961
	.loc 1 6095 1 is_stmt 0 view .LVU2962
	push	{r4, r5, r7, lr}
	.cfi_def_cfa_offset 16
	.cfi_offset 4, -16
	.cfi_offset 5, -12
	.cfi_offset 7, -8
	.cfi_offset 14, -4
	.loc 1 6098 8 view .LVU2963
	ldr	r1, .L256
.LVL348:
	.loc 1 6095 1 view .LVU2964
	mov	r4, r2
	add	r7, sp, #0
	.cfi_def_cfa_register 7
	.loc 1 6098 8 view .LVU2965
	movs	r2, #16
.LVL349:
	.loc 1 6098 8 view .LVU2966
	mov	r0, r3
.LVL350:
	.loc 1 6098 8 view .LVU2967
	blx	r4
.LVL351:
	.loc 1 6099 2 is_stmt 1 view .LVU2968
	.loc 1 6099 5 is_stmt 0 view .LVU2969
	subs	r4, r0, #0
.LVL352:
	.loc 1 6099 5 view .LVU2970
	bge	.L255
	.loc 1 6100 3 is_stmt 1 view .LVU2971
.LBB2882:
	.loc 1 6100 8 view .LVU2972
	.loc 1 6100 57 view .LVU2973
	.loc 1 6100 14 view .LVU2974
	.loc 1 6100 2 view .LVU2975
.LVL353:
	.loc 1 6100 41 view .LVU2976
	.loc 1 6100 176 view .LVU2977
	.loc 1 6100 187 view .LVU2978
	.loc 1 6100 275 view .LVU2979
.LBB2883:
	.loc 1 6100 3 view .LVU2980
	.loc 1 6100 5 view .LVU2981
	.loc 1 6100 3 view .LVU2982
.LBB2884:
	.loc 1 6100 8 view .LVU2983
	.loc 1 6100 2 view .LVU2984
.LBE2884:
.LBE2883:
.LBE2882:
	.loc 1 6100 3 view .LVU2985
	.loc 1 6100 12 view .LVU2986
	.loc 1 6100 107 view .LVU2987
	.loc 1 6100 3 view .LVU2988
.LBB2900:
.LBB2897:
.LBB2894:
	.loc 1 6100 12 view .LVU2989
	.loc 1 6100 102 view .LVU2990
	.loc 1 6100 104 view .LVU2991
.LBB2885:
	.loc 1 6100 107 is_stmt 0 view .LVU2992
	mov	r5, sp
	.loc 1 6100 109 is_stmt 1 view .LVU2993
	.loc 1 6100 120 view .LVU2994
.LVL354:
	.loc 1 6100 209 view .LVU2995
	.loc 1 6100 26 view .LVU2996
.LBE2885:
.LBE2894:
.LBE2897:
.LBE2900:
	.loc 1 6100 3 view .LVU2997
	.loc 1 6100 368 view .LVU2998
	.loc 1 6100 75 view .LVU2999
	.loc 1 6100 2 view .LVU3000
	.loc 1 6100 2 view .LVU3001
	.loc 1 6100 2 view .LVU3002
	.loc 1 6100 38 view .LVU3003
	.loc 1 6100 4 view .LVU3004
	.loc 1 6100 30 view .LVU3005
	.loc 1 6100 56 view .LVU3006
	.loc 1 6100 523 view .LVU3007
	.loc 1 6100 585 view .LVU3008
	.loc 1 6100 1106 view .LVU3009
	.loc 1 6100 1171 view .LVU3010
	.loc 1 6100 1196 view .LVU3011
	.loc 1 6100 1197 view .LVU3012
	.loc 1 6100 1199 view .LVU3013
	.loc 1 6100 1229 view .LVU3014
	.loc 1 6100 1259 view .LVU3015
	.loc 1 6100 1291 view .LVU3016
	.loc 1 6100 1323 view .LVU3017
	.loc 1 6100 1355 view .LVU3018
	.loc 1 6100 1552 view .LVU3019
	.loc 1 6100 1576 view .LVU3020
	.loc 1 6100 1577 view .LVU3021
	.loc 1 6100 1579 view .LVU3022
	.loc 1 6100 1608 view .LVU3023
	.loc 1 6100 1637 view .LVU3024
	.loc 1 6100 1668 view .LVU3025
	.loc 1 6100 1699 view .LVU3026
	.loc 1 6100 1730 view .LVU3027
	.loc 1 6100 1937 view .LVU3028
	.loc 1 6100 4 view .LVU3029
	.loc 1 6100 22 view .LVU3030
	.loc 1 6100 42 view .LVU3031
	.loc 1 6100 4 view .LVU3032
	.loc 1 6100 42 view .LVU3033
	.loc 1 6100 13 view .LVU3034
	.loc 1 6100 13 view .LVU3035
	.loc 1 6100 61 view .LVU3036
	.loc 1 6100 92 view .LVU3037
	.loc 1 6100 126 view .LVU3038
	.loc 1 6100 131 view .LVU3039
	.loc 1 6100 387 view .LVU3040
	.loc 1 6100 1464 view .LVU3041
	.loc 1 6100 1529 view .LVU3042
	.loc 1 6100 1553 view .LVU3043
	.loc 1 6100 1613 view .LVU3044
	.loc 1 6100 1624 view .LVU3045
	.loc 1 6100 1742 view .LVU3046
	.loc 1 6100 1758 view .LVU3047
	.loc 1 6100 1798 view .LVU3048
	.loc 1 6100 1823 view .LVU3049
	.loc 1 6100 3124 view .LVU3050
	.loc 1 6100 3165 view .LVU3051
	.loc 1 6100 7 view .LVU3052
	.loc 1 6100 30 view .LVU3053
	.loc 1 6100 129 view .LVU3054
	.loc 1 6100 6 view .LVU3055
	.loc 1 6100 11 view .LVU3056
	.loc 1 6100 236 view .LVU3057
	.loc 1 6100 1189 view .LVU3058
	.loc 1 6100 1254 view .LVU3059
	.loc 1 6100 1278 view .LVU3060
	.loc 1 6100 1307 view .LVU3061
	.loc 1 6100 1318 view .LVU3062
	.loc 1 6100 1405 view .LVU3063
	.loc 1 6100 1421 view .LVU3064
	.loc 1 6100 1461 view .LVU3065
	.loc 1 6100 2725 view .LVU3066
	.loc 1 6100 2766 view .LVU3067
	.loc 1 6100 7 view .LVU3068
	.loc 1 6100 30 view .LVU3069
	.loc 1 6100 9 view .LVU3070
	.loc 1 6100 5 view .LVU3071
	.loc 1 6100 28 view .LVU3072
	.loc 1 6100 52 view .LVU3073
	.loc 1 6100 80 view .LVU3074
	.loc 1 6100 256 view .LVU3075
	.loc 1 6100 16 view .LVU3076
.LBB2901:
.LBB2898:
.LBB2895:
.LBB2892:
	.loc 1 6100 29 view .LVU3077
	.loc 1 6100 3 view .LVU3078
	.loc 1 6100 3 view .LVU3079
	.loc 1 6100 70 view .LVU3080
	.loc 1 6100 82 is_stmt 0 view .LVU3081
	sub	sp, sp, #32
	mov	r2, sp
.LVL355:
	.loc 1 6100 74 is_stmt 1 view .LVU3082
	.loc 1 6100 484 view .LVU3083
	.loc 1 6100 5 view .LVU3084
	.loc 1 6100 7 view .LVU3085
	.loc 1 6100 12 view .LVU3086
	.loc 1 6100 10 view .LVU3087
	.loc 1 6100 5 view .LVU3088
	.loc 1 6100 23 view .LVU3089
.LBB2886:
	.loc 1 6100 3 view .LVU3090
	.loc 1 6100 368 view .LVU3091
	.loc 1 6100 75 view .LVU3092
.LVL356:
	.loc 1 6100 2 view .LVU3093
	.loc 1 6100 2 view .LVU3094
	.loc 1 6100 2 view .LVU3095
	.loc 1 6100 38 view .LVU3096
	.loc 1 6100 67 view .LVU3097
	.loc 1 6100 93 view .LVU3098
	.loc 1 6100 119 view .LVU3099
	.loc 1 6100 586 view .LVU3100
	.loc 1 6100 648 view .LVU3101
	.loc 1 6100 1169 view .LVU3102
	.loc 1 6100 1234 view .LVU3103
	.loc 1 6100 1259 view .LVU3104
	.loc 1 6100 1260 view .LVU3105
	.loc 1 6100 1262 view .LVU3106
	.loc 1 6100 1292 view .LVU3107
	.loc 1 6100 1322 view .LVU3108
	.loc 1 6100 1354 view .LVU3109
	.loc 1 6100 1386 view .LVU3110
	.loc 1 6100 1418 view .LVU3111
	.loc 1 6100 1615 view .LVU3112
	.loc 1 6100 1639 view .LVU3113
	.loc 1 6100 1640 view .LVU3114
	.loc 1 6100 1642 view .LVU3115
	.loc 1 6100 1671 view .LVU3116
	.loc 1 6100 1700 view .LVU3117
	.loc 1 6100 1731 view .LVU3118
	.loc 1 6100 1762 view .LVU3119
	.loc 1 6100 1793 view .LVU3120
	.loc 1 6100 2000 view .LVU3121
.LBB2887:
	.loc 1 6100 3162 view .LVU3122
	.loc 1 6100 3167 view .LVU3123
	.loc 1 6100 3797 view .LVU3124
	.loc 1 6100 0 is_stmt 0 view .LVU3125
	ldr	r3, .L256+4
.LBE2887:
.LBE2886:
	.loc 1 6100 149 view .LVU3126
	ldr	r0, .L256+8
.LVL357:
.LBB2890:
.LBB2888:
	.loc 1 6100 3811 view .LVU3127
	strd	r3, r4, [r2, #20]
	.loc 1 6100 2766 is_stmt 1 view .LVU3128
	.loc 1 6100 7 view .LVU3129
.LVL358:
	.loc 1 6100 30 view .LVU3130
	.loc 1 6100 30 is_stmt 0 view .LVU3131
.LBE2888:
	.loc 1 6100 9 is_stmt 1 view .LVU3132
	.loc 1 6100 5 view .LVU3133
	.loc 1 6100 28 view .LVU3134
	.loc 1 6100 52 view .LVU3135
	.loc 1 6100 80 view .LVU3136
.LBE2890:
.LBE2892:
.LBE2895:
.LBE2898:
.LBE2901:
	.loc 1 6100 6 view .LVU3137
	.loc 1 6100 45 view .LVU3138
	.loc 1 6100 50 view .LVU3139
	.loc 1 6100 80 view .LVU3140
	.loc 1 6100 147 view .LVU3141
	.loc 1 6100 152 view .LVU3142
	.loc 1 6100 182 view .LVU3143
.LBB2902:
.LBB2899:
.LBB2896:
.LBB2893:
.LBB2891:
	.loc 1 6100 256 view .LVU3144
	.loc 1 6100 16 view .LVU3145
.LBB2889:
	.loc 1 6100 6 view .LVU3146
	.loc 1 6100 164 view .LVU3147
	.loc 1 6100 166 view .LVU3148
	.loc 1 6100 176 is_stmt 0 view .LVU3149
	movs	r3, #3
	str	r3, [r2, #16]!
.LVL359:
	.loc 1 6100 176 view .LVU3150
.LBE2889:
.LBE2891:
	.loc 1 6100 26 is_stmt 1 view .LVU3151
	.loc 1 6100 7 view .LVU3152
	.loc 1 6100 147 view .LVU3153
	.loc 1 6100 149 view .LVU3154
	mov	r1, #6208
	bl	z_log_msg_static_create.constprop.0
.LVL360:
	.loc 1 6100 149 is_stmt 0 view .LVU3155
	mov	sp, r5
.LVL361:
	.loc 1 6100 149 view .LVU3156
.LBE2893:
	.loc 1 6100 107 is_stmt 1 view .LVU3157
	.loc 1 6100 5 view .LVU3158
	.loc 1 6100 42 view .LVU3159
.LBE2896:
	.loc 1 6100 6 view .LVU3160
.LBE2899:
	.loc 1 6100 278 view .LVU3161
	.loc 1 6100 5 view .LVU3162
	.loc 1 6100 18 view .LVU3163
.LBE2902:
	.loc 1 6100 6 view .LVU3164
	.loc 1 6101 3 view .LVU3165
.L253:
	.loc 1 6107 1 is_stmt 0 view .LVU3166
	mov	r0, r4
	mov	sp, r7
	.cfi_remember_state
	.cfi_def_cfa_register 13
	@ sp needed
	pop	{r4, r5, r7, pc}
.LVL362:
.L255:
	.cfi_restore_state
	.loc 1 6106 9 view .LVU3167
	movs	r4, #0
	b	.L253
.L257:
	.align	2
.L256:
	.word	db_hash+16
	.word	.LC5
	.word	log_const_bt_gatt
	.cfi_endproc
.LFE700:
	.size	db_hash_set, .-db_hash_set
	.section	.text.remove_peer_from_attr,"ax",%progbits
	.align	1
	.syntax unified
	.thumb
	.thumb_func
	.type	remove_peer_from_attr, %function
remove_peer_from_attr:
.LVL363:
.LFB702:
	.loc 1 6128 1 is_stmt 1 view -0
	.cfi_startproc
	@ args = 0, pretend = 0, frame = 0
	@ frame_needed = 0, uses_anonymous_args = 0
	.loc 1 6129 2 view .LVU3169
	.loc 1 6128 1 is_stmt 0 view .LVU3170
	push	{r3, lr}
	.cfi_def_cfa_offset 8
	.cfi_offset 3, -8
	.cfi_offset 14, -4
	.loc 1 6128 1 view .LVU3171
	mov	r3, r2
.LVL364:
	.loc 1 6130 2 is_stmt 1 view .LVU3172
	.loc 1 6131 2 view .LVU3173
	.loc 1 6134 2 view .LVU3174
	.loc 1 6134 5 is_stmt 0 view .LVU3175
	ldr	r1, [r0, #8]
.LVL365:
	.loc 1 6134 5 view .LVU3176
	ldr	r2, .L263
.LVL366:
	.loc 1 6134 5 view .LVU3177
	cmp	r1, r2
	bne	.L259
.LVL367:
.LBB2909:
.LBI2909:
	.loc 1 6126 16 is_stmt 1 view .LVU3178
.LBB2910:
	.loc 1 6138 2 view .LVU3179
	.loc 1 6141 2 view .LVU3180
	.loc 1 6141 8 is_stmt 0 view .LVU3181
	ldrb	r2, [r3, #4]	@ zero_extendqisi2
	ldr	r1, [r3]
	ldr	r0, [r0, #12]
.LVL368:
	.loc 1 6141 8 view .LVU3182
	bl	ccc_find_cfg
.LVL369:
	.loc 1 6142 2 is_stmt 1 view .LVU3183
	.loc 1 6142 5 is_stmt 0 view .LVU3184
	cbz	r0, .L259
	.loc 1 6143 2 is_stmt 1 view .LVU3185
.LVL370:
.LBB2911:
.LBI2911:
	.loc 4 86 189 view .LVU3186
.LBB2912:
	.loc 4 86 238 view .LVU3187
	.loc 4 86 245 is_stmt 0 view .LVU3188
	movs	r3, #0
	str	r3, [r0]	@ unaligned
	str	r3, [r0, #4]	@ unaligned
	strh	r3, [r0, #8]	@ unaligned
.LVL371:
.L259:
	.loc 4 86 245 view .LVU3189
.LBE2912:
.LBE2911:
.LBE2910:
.LBE2909:
	.loc 1 6147 1 view .LVU3190
	movs	r0, #1
	pop	{r3, pc}
.L264:
	.align	2
.L263:
	.word	bt_gatt_attr_write_ccc
	.cfi_endproc
.LFE702:
	.size	remove_peer_from_attr, .-remove_peer_from_attr
	.section	.text.convert_to_id_on_match,"ax",%progbits
	.align	1
	.syntax unified
	.thumb
	.thumb_func
	.type	convert_to_id_on_match, %function
convert_to_id_on_match:
.LVL372:
.LFB628:
	.loc 1 1064 1 is_stmt 1 view -0
	.cfi_startproc
	@ args = 0, pretend = 0, frame = 0
	@ frame_needed = 0, uses_anonymous_args = 0
	.loc 1 1065 2 view .LVU3192
	.loc 1 1066 2 view .LVU3193
	.loc 1 1064 1 is_stmt 0 view .LVU3194
	push	{r4, r5, r6, lr}
	.cfi_def_cfa_offset 16
	.cfi_offset 4, -16
	.cfi_offset 5, -12
	.cfi_offset 6, -8
	.cfi_offset 14, -4
	.loc 1 1069 5 view .LVU3195
	ldr	r3, .L273
	.loc 1 1064 1 view .LVU3196
	mov	r6, r2
.LVL373:
	.loc 1 1069 2 is_stmt 1 view .LVU3197
	.loc 1 1069 5 is_stmt 0 view .LVU3198
	ldr	r2, [r0, #8]
.LVL374:
	.loc 1 1069 5 view .LVU3199
	cmp	r2, r3
	bne	.L266
	ldr	r5, [r0, #12]
.LVL375:
.LBB2917:
.LBI2917:
	.loc 1 1062 16 is_stmt 1 view .LVU3200
.LBB2918:
	.loc 1 1073 2 view .LVU3201
	.loc 1 1078 2 view .LVU3202
.LBB2919:
	.loc 1 1078 7 view .LVU3203
	.loc 1 1078 23 view .LVU3204
	adds	r4, r5, #1
	adds	r5, r5, #51
.LVL376:
.L268:
	.loc 1 1079 3 view .LVU3205
	.loc 1 1079 7 is_stmt 0 view .LVU3206
	ldr	r1, [r6]
	mov	r0, r4
	bl	bt_addr_le_eq
.LVL377:
	.loc 1 1079 6 view .LVU3207
	cbz	r0, .L267
	.loc 1 1080 4 is_stmt 1 view .LVU3208
	ldr	r1, [r6, #4]
	mov	r0, r4
	bl	bt_addr_le_copy
.LVL378:
.L267:
	.loc 1 1078 202 view .LVU3209
	.loc 1 1078 23 view .LVU3210
	adds	r4, r4, #10
	cmp	r4, r5
	bne	.L268
.LVL379:
.L266:
	.loc 1 1078 23 is_stmt 0 view .LVU3211
.LBE2919:
.LBE2918:
.LBE2917:
	.loc 1 1085 1 view .LVU3212
	movs	r0, #1
	pop	{r4, r5, r6, pc}
.LVL380:
.L274:
	.loc 1 1085 1 view .LVU3213
	.align	2
.L273:
	.word	bt_gatt_attr_write_ccc
	.cfi_endproc
.LFE628:
	.size	convert_to_id_on_match, .-convert_to_id_on_match
	.section	.text.ccc_save,"ax",%progbits
	.align	1
	.syntax unified
	.thumb
	.thumb_func
	.type	ccc_save, %function
ccc_save:
.LVL381:
.LFB695:
	.loc 1 5850 1 is_stmt 1 view -0
	.cfi_startproc
	@ args = 0, pretend = 0, frame = 0
	@ frame_needed = 0, uses_anonymous_args = 0
	.loc 1 5851 2 view .LVU3215
	.loc 1 5850 1 is_stmt 0 view .LVU3216
	push	{r3, r4, r5, lr}
	.cfi_def_cfa_offset 16
	.cfi_offset 3, -16
	.cfi_offset 4, -12
	.cfi_offset 5, -8
	.cfi_offset 14, -4
	.loc 1 5856 5 view .LVU3217
	ldr	r3, .L280
	.loc 1 5850 1 view .LVU3218
	mov	r4, r2
.LVL382:
	.loc 1 5852 2 is_stmt 1 view .LVU3219
	.loc 1 5853 2 view .LVU3220
	.loc 1 5856 2 view .LVU3221
	.loc 1 5856 5 is_stmt 0 view .LVU3222
	ldr	r2, [r0, #8]
.LVL383:
	.loc 1 5856 5 view .LVU3223
	cmp	r2, r3
	.loc 1 5850 1 view .LVU3224
	mov	r5, r1
	.loc 1 5856 5 view .LVU3225
	bne	.L276
.LVL384:
.LBB2934:
.LBI2934:
	.loc 1 5848 16 is_stmt 1 view .LVU3226
.LBB2935:
	.loc 1 5860 2 view .LVU3227
	.loc 1 5863 2 view .LVU3228
	.loc 1 5863 8 is_stmt 0 view .LVU3229
	ldrb	r2, [r4, #4]	@ zero_extendqisi2
	ldr	r1, [r4]
.LVL385:
	.loc 1 5863 8 view .LVU3230
	ldr	r0, [r0, #12]
.LVL386:
	.loc 1 5863 8 view .LVU3231
	bl	ccc_find_cfg
.LVL387:
	.loc 1 5864 2 is_stmt 1 view .LVU3232
	.loc 1 5864 5 is_stmt 0 view .LVU3233
	cbz	r0, .L276
	.loc 1 5868 2 is_stmt 1 view .LVU3234
.LBB2936:
	.loc 1 5868 7 view .LVU3235
.LBE2936:
	.loc 1 5868 5 view .LVU3236
	.loc 1 5870 2 view .LVU3237
	.loc 1 5870 18 is_stmt 0 view .LVU3238
	ldr	r3, [r4, #200]
	add	r2, r4, r3, lsl #2
	.loc 1 5872 13 view .LVU3239
	adds	r3, r3, #1
	.loc 1 5870 34 view .LVU3240
	strh	r5, [r2, #8]	@ movhi
	.loc 1 5871 2 is_stmt 1 view .LVU3241
	.loc 1 5871 38 is_stmt 0 view .LVU3242
	ldrh	r1, [r0, #8]
	.loc 1 5871 33 view .LVU3243
	strh	r1, [r2, #10]	@ movhi
	.loc 1 5872 2 is_stmt 1 view .LVU3244
	.loc 1 5872 13 is_stmt 0 view .LVU3245
	str	r3, [r4, #200]
	.loc 1 5874 2 is_stmt 1 view .LVU3246
.LVL388:
.L276:
	.loc 1 5874 2 is_stmt 0 view .LVU3247
.LBE2935:
.LBE2934:
	.loc 1 5875 1 view .LVU3248
	movs	r0, #1
	pop	{r3, r4, r5, pc}
.LVL389:
.L281:
	.loc 1 5875 1 view .LVU3249
	.align	2
.L280:
	.word	bt_gatt_attr_write_ccc
	.cfi_endproc
.LFE695:
	.size	ccc_save, .-ccc_save
	.section	.text.sc_indicate.part.0,"ax",%progbits
	.align	1
	.syntax unified
	.thumb
	.thumb_func
	.type	sc_indicate.part.0, %function
sc_indicate.part.0:
.LFB714:
	.loc 1 1521 13 is_stmt 1 view -0
	.cfi_startproc
	@ args = 0, pretend = 0, frame = 0
	@ frame_needed = 0, uses_anonymous_args = 0
	@ link register save eliminated.
.LVL390:
	.loc 1 1542 2 view .LVU3251
.LBB2949:
.LBI2949:
	.loc 1 1239 20 view .LVU3252
.LBB2950:
	.loc 1 1242 2 view .LVU3253
	ldr	r0, .L283
	mov	r2, #328
	movs	r3, #0
	b	k_work_reschedule
.LVL391:
.L284:
	.align	2
.L283:
	.word	gatt_sc+32
.LBE2950:
.LBE2949:
	.cfi_endproc
.LFE714:
	.size	sc_indicate.part.0, .-sc_indicate.part.0
	.thumb_set sc_commit.part.0,sc_indicate.part.0
	.section	.text.sc_commit,"ax",%progbits
	.align	1
	.syntax unified
	.thumb
	.thumb_func
	.type	sc_commit, %function
sc_commit:
.LFB698:
	.loc 1 5989 1 view -0
	.cfi_startproc
	@ args = 0, pretend = 0, frame = 0
	@ frame_needed = 0, uses_anonymous_args = 0
	.loc 1 5990 2 view .LVU3255
.LVL392:
.LBB2951:
.LBI2951:
	.loc 5 217 20 view .LVU3256
.LBB2952:
	.loc 5 219 2 view .LVU3257
	.loc 5 221 2 view .LVU3258
.LBE2952:
.LBE2951:
	.loc 1 5989 1 is_stmt 0 view .LVU3259
	push	{r3, lr}
	.cfi_def_cfa_offset 8
	.cfi_offset 3, -8
	.cfi_offset 14, -4
.LBB2954:
.LBB2953:
	.loc 5 221 8 view .LVU3260
	movs	r1, #4
	ldr	r0, .L290
.LVL393:
	.loc 5 221 8 view .LVU3261
	bl	atomic_or
.LVL394:
	.loc 5 221 8 view .LVU3262
.LBE2953:
.LBE2954:
	.loc 1 5991 2 is_stmt 1 view .LVU3263
.LBB2955:
.LBI2955:
	.loc 5 198 20 view .LVU3264
.LBB2956:
	.loc 5 200 2 view .LVU3265
	.loc 5 202 2 view .LVU3266
	.loc 5 202 8 is_stmt 0 view .LVU3267
	ldr	r0, .L290
.LVL395:
	.loc 5 202 8 view .LVU3268
	mvn	r1, #2
	bl	atomic_and
.LVL396:
	.loc 5 202 8 view .LVU3269
.LBE2956:
.LBE2955:
	.loc 1 5993 2 is_stmt 1 view .LVU3270
.LBB2957:
.LBI2957:
	.loc 5 131 19 view .LVU3271
.LBB2958:
	.loc 5 133 2 view .LVU3272
	.loc 5 133 21 is_stmt 0 view .LVU3273
	ldr	r0, .L290
.LVL397:
	.loc 5 133 21 view .LVU3274
	bl	atomic_get
.LVL398:
	.loc 5 135 2 is_stmt 1 view .LVU3275
	.loc 5 135 2 is_stmt 0 view .LVU3276
.LBE2958:
.LBE2957:
	.loc 1 5993 5 view .LVU3277
	lsls	r3, r0, #31
	bpl	.L286
	bl	sc_commit.part.0
.LVL399:
.L286:
	.loc 1 5998 2 is_stmt 1 view .LVU3278
	.loc 1 5999 1 is_stmt 0 view .LVU3279
	movs	r0, #0
	pop	{r3, pc}
.L291:
	.align	2
.L290:
	.word	gatt_sc+80
	.cfi_endproc
.LFE698:
	.size	sc_commit, .-sc_commit
	.section	.text.clear_cf_cfg,"ax",%progbits
	.align	1
	.syntax unified
	.thumb
	.thumb_func
	.type	clear_cf_cfg, %function
clear_cf_cfg:
.LVL400:
.LFB612:
	.loc 1 527 1 is_stmt 1 view -0
	.cfi_startproc
	@ args = 0, pretend = 0, frame = 0
	@ frame_needed = 0, uses_anonymous_args = 0
	.loc 1 528 2 view .LVU3281
	.loc 1 527 1 is_stmt 0 view .LVU3282
	mov	r2, r0
	push	{r3, lr}
	.cfi_def_cfa_offset 8
	.cfi_offset 3, -8
	.cfi_offset 14, -4
	.loc 1 528 2 view .LVU3283
	ldr	r1, .L294
	adds	r0, r0, #1
.LVL401:
	.loc 1 528 2 view .LVU3284
	bl	bt_addr_le_copy
.LVL402:
	.loc 1 529 1 is_stmt 1 view .LVU3285
.LBB2963:
.LBI2963:
	.loc 4 86 189 view .LVU3286
.LBB2964:
	.loc 4 86 238 view .LVU3287
	.loc 4 86 245 is_stmt 0 view .LVU3288
	movs	r3, #0
	strb	r3, [r2, #8]
.LVL403:
	.loc 4 86 245 view .LVU3289
.LBE2964:
.LBE2963:
	.loc 1 530 2 is_stmt 1 view .LVU3290
.LBB2965:
.LBI2965:
	.loc 3 197 28 view .LVU3291
.LBB2966:
	.loc 3 203 2 view .LVU3292
	.loc 3 203 9 is_stmt 0 view .LVU3293
	adds	r2, r2, #12
.LVL404:
	.loc 3 203 9 view .LVU3294
	dmb	ish
.L293:
	ldrex	r1, [r2]
	strex	r0, r3, [r2]
	cmp	r0, #0
	bne	.L293
	dmb	ish
.LVL405:
	.loc 3 203 9 view .LVU3295
.LBE2966:
.LBE2965:
	.loc 1 531 1 view .LVU3296
	pop	{r3, pc}
.L295:
	.align	2
.L294:
	.word	bt_addr_le_any
	.cfi_endproc
.LFE612:
	.size	clear_cf_cfg, .-clear_cf_cfg
	.section	.rodata.bt_gatt_store_cf.isra.0.str1.1,"aMS",%progbits,1
.LC11:
	.ascii	"Failed to store Client Features (err %d)\000"
	.section	.text.bt_gatt_store_cf.isra.0,"ax",%progbits
	.align	1
	.syntax unified
	.thumb
	.thumb_func
	.type	bt_gatt_store_cf.isra.0, %function
bt_gatt_store_cf.isra.0:
.LVL406:
.LFB733:
	.loc 1 1007 12 is_stmt 1 view -0
	.cfi_startproc
	@ args = 0, pretend = 0, frame = 8
	@ frame_needed = 1, uses_anonymous_args = 0
	.loc 1 1010 2 view .LVU3298
	.loc 1 1011 2 view .LVU3299
	.loc 1 1012 2 view .LVU3300
	.loc 1 1013 2 view .LVU3301
	.loc 1 1014 2 view .LVU3302
	.loc 1 1016 2 view .LVU3303
	.loc 1 1007 12 is_stmt 0 view .LVU3304
	push	{r4, r5, r7, lr}
	.cfi_def_cfa_offset 16
	.cfi_offset 4, -16
	.cfi_offset 5, -12
	.cfi_offset 7, -8
	.cfi_offset 14, -4
	sub	sp, sp, #8
	.cfi_def_cfa_offset 24
	add	r7, sp, #0
	.cfi_def_cfa_register 7
	.loc 1 1007 12 view .LVU3305
	mov	r4, r0
	mov	r5, r1
	.loc 1 1016 8 view .LVU3306
	bl	find_cf_cfg_by_addr
.LVL407:
	.loc 1 1017 2 is_stmt 1 view .LVU3307
	.loc 1 1017 5 is_stmt 0 view .LVU3308
	mov	r2, r0
	cbz	r0, .L299
.LBB3011:
	.loc 1 1023 3 is_stmt 1 view .LVU3309
.LVL408:
	.loc 1 1024 3 view .LVU3310
	.loc 1 1027 2 view .LVU3311
	.loc 1 1027 24 is_stmt 0 view .LVU3312
	ldrb	r3, [r0, #8]	@ zero_extendqisi2
	strb	r3, [r7, #4]
	.loc 1 1030 2 is_stmt 1 view .LVU3313
.LVL409:
.LBB3012:
.LBI3012:
	.loc 5 131 19 view .LVU3314
.LBB3013:
	.loc 5 133 2 view .LVU3315
	.loc 5 133 21 is_stmt 0 view .LVU3316
	adds	r0, r0, #12
.LVL410:
	.loc 5 133 21 view .LVU3317
	bl	atomic_get
.LVL411:
	.loc 5 135 2 is_stmt 1 view .LVU3318
	.loc 5 135 2 is_stmt 0 view .LVU3319
.LBE3013:
.LBE3012:
	.loc 1 1032 3 is_stmt 1 view .LVU3320
	.loc 1 1033 3 view .LVU3321
.LBB3015:
.LBB3014:
	.loc 5 135 65 is_stmt 0 view .LVU3322
	and	r0, r0, #1
.LVL412:
	.loc 5 135 65 view .LVU3323
	strb	r0, [r7, #5]
.LBE3014:
.LBE3015:
	.loc 1 1034 3 is_stmt 1 view .LVU3324
.LVL413:
	.loc 1 1036 3 view .LVU3325
	.loc 1 1034 7 is_stmt 0 view .LVU3326
	movs	r3, #2
	.loc 1 1036 7 view .LVU3327
	adds	r2, r7, #4
.LVL414:
.L297:
	.loc 1 1036 7 view .LVU3328
.LBE3011:
	.loc 1 1039 2 is_stmt 1 view .LVU3329
	.loc 1 1039 8 is_stmt 0 view .LVU3330
	mov	r1, r5
	mov	r0, r4
	bl	bt_settings_store_cf
.LVL415:
	.loc 1 1040 2 is_stmt 1 view .LVU3331
	.loc 1 1040 5 is_stmt 0 view .LVU3332
	cbz	r0, .L296
	.loc 1 1041 3 is_stmt 1 view .LVU3333
.LBB3016:
	.loc 1 1041 8 view .LVU3334
	.loc 1 1041 57 view .LVU3335
	.loc 1 1041 14 view .LVU3336
	.loc 1 1041 2 view .LVU3337
.LVL416:
	.loc 1 1041 41 view .LVU3338
	.loc 1 1041 176 view .LVU3339
	.loc 1 1041 187 view .LVU3340
	.loc 1 1041 275 view .LVU3341
.LBB3017:
	.loc 1 1041 3 view .LVU3342
	.loc 1 1041 5 view .LVU3343
	.loc 1 1041 3 view .LVU3344
.LBB3018:
	.loc 1 1041 8 view .LVU3345
	.loc 1 1041 2 view .LVU3346
.LBE3018:
.LBE3017:
.LBE3016:
	.loc 1 1041 3 view .LVU3347
	.loc 1 1041 12 view .LVU3348
	.loc 1 1041 107 view .LVU3349
	.loc 1 1041 3 view .LVU3350
.LBB3033:
.LBB3030:
.LBB3027:
	.loc 1 1041 12 view .LVU3351
	.loc 1 1041 102 view .LVU3352
	.loc 1 1041 104 view .LVU3353
.LBB3019:
	.loc 1 1041 107 is_stmt 0 view .LVU3354
	mov	r4, sp
	.loc 1 1041 109 is_stmt 1 view .LVU3355
	.loc 1 1041 120 view .LVU3356
.LVL417:
	.loc 1 1041 209 view .LVU3357
	.loc 1 1041 26 view .LVU3358
.LBE3019:
.LBE3027:
.LBE3030:
.LBE3033:
	.loc 1 1041 3 view .LVU3359
	.loc 1 1041 368 view .LVU3360
	.loc 1 1041 75 view .LVU3361
	.loc 1 1041 2 view .LVU3362
	.loc 1 1041 2 view .LVU3363
	.loc 1 1041 2 view .LVU3364
	.loc 1 1041 38 view .LVU3365
	.loc 1 1041 4 view .LVU3366
	.loc 1 1041 30 view .LVU3367
	.loc 1 1041 56 view .LVU3368
	.loc 1 1041 523 view .LVU3369
	.loc 1 1041 585 view .LVU3370
	.loc 1 1041 1106 view .LVU3371
	.loc 1 1041 1171 view .LVU3372
	.loc 1 1041 1196 view .LVU3373
	.loc 1 1041 1197 view .LVU3374
	.loc 1 1041 1199 view .LVU3375
	.loc 1 1041 1229 view .LVU3376
	.loc 1 1041 1259 view .LVU3377
	.loc 1 1041 1291 view .LVU3378
	.loc 1 1041 1323 view .LVU3379
	.loc 1 1041 1355 view .LVU3380
	.loc 1 1041 1552 view .LVU3381
	.loc 1 1041 1576 view .LVU3382
	.loc 1 1041 1577 view .LVU3383
	.loc 1 1041 1579 view .LVU3384
	.loc 1 1041 1608 view .LVU3385
	.loc 1 1041 1637 view .LVU3386
	.loc 1 1041 1668 view .LVU3387
	.loc 1 1041 1699 view .LVU3388
	.loc 1 1041 1730 view .LVU3389
	.loc 1 1041 1937 view .LVU3390
	.loc 1 1041 4 view .LVU3391
	.loc 1 1041 22 view .LVU3392
	.loc 1 1041 42 view .LVU3393
	.loc 1 1041 4 view .LVU3394
	.loc 1 1041 42 view .LVU3395
	.loc 1 1041 13 view .LVU3396
	.loc 1 1041 13 view .LVU3397
	.loc 1 1041 61 view .LVU3398
	.loc 1 1041 92 view .LVU3399
	.loc 1 1041 126 view .LVU3400
	.loc 1 1041 131 view .LVU3401
	.loc 1 1041 395 view .LVU3402
	.loc 1 1041 1504 view .LVU3403
	.loc 1 1041 1569 view .LVU3404
	.loc 1 1041 1593 view .LVU3405
	.loc 1 1041 1661 view .LVU3406
	.loc 1 1041 1672 view .LVU3407
	.loc 1 1041 1798 view .LVU3408
	.loc 1 1041 1814 view .LVU3409
	.loc 1 1041 1854 view .LVU3410
	.loc 1 1041 1879 view .LVU3411
	.loc 1 1041 3196 view .LVU3412
	.loc 1 1041 3237 view .LVU3413
	.loc 1 1041 7 view .LVU3414
	.loc 1 1041 30 view .LVU3415
	.loc 1 1041 129 view .LVU3416
	.loc 1 1041 6 view .LVU3417
	.loc 1 1041 11 view .LVU3418
	.loc 1 1041 236 view .LVU3419
	.loc 1 1041 1189 view .LVU3420
	.loc 1 1041 1254 view .LVU3421
	.loc 1 1041 1278 view .LVU3422
	.loc 1 1041 1307 view .LVU3423
	.loc 1 1041 1318 view .LVU3424
	.loc 1 1041 1405 view .LVU3425
	.loc 1 1041 1421 view .LVU3426
	.loc 1 1041 1461 view .LVU3427
	.loc 1 1041 2725 view .LVU3428
	.loc 1 1041 2766 view .LVU3429
	.loc 1 1041 7 view .LVU3430
	.loc 1 1041 30 view .LVU3431
	.loc 1 1041 9 view .LVU3432
	.loc 1 1041 5 view .LVU3433
	.loc 1 1041 28 view .LVU3434
	.loc 1 1041 52 view .LVU3435
	.loc 1 1041 80 view .LVU3436
	.loc 1 1041 256 view .LVU3437
	.loc 1 1041 16 view .LVU3438
.LBB3034:
.LBB3031:
.LBB3028:
.LBB3025:
	.loc 1 1041 29 view .LVU3439
	.loc 1 1041 3 view .LVU3440
	.loc 1 1041 3 view .LVU3441
	.loc 1 1041 70 view .LVU3442
	.loc 1 1041 82 is_stmt 0 view .LVU3443
	sub	sp, sp, #32
	mov	r2, sp
.LVL418:
	.loc 1 1041 74 is_stmt 1 view .LVU3444
	.loc 1 1041 484 view .LVU3445
	.loc 1 1041 5 view .LVU3446
	.loc 1 1041 7 view .LVU3447
	.loc 1 1041 12 view .LVU3448
	.loc 1 1041 10 view .LVU3449
	.loc 1 1041 5 view .LVU3450
	.loc 1 1041 23 view .LVU3451
.LBB3020:
	.loc 1 1041 3 view .LVU3452
	.loc 1 1041 368 view .LVU3453
	.loc 1 1041 75 view .LVU3454
.LVL419:
	.loc 1 1041 2 view .LVU3455
	.loc 1 1041 2 view .LVU3456
	.loc 1 1041 2 view .LVU3457
	.loc 1 1041 38 view .LVU3458
	.loc 1 1041 67 view .LVU3459
	.loc 1 1041 93 view .LVU3460
	.loc 1 1041 119 view .LVU3461
	.loc 1 1041 586 view .LVU3462
	.loc 1 1041 648 view .LVU3463
	.loc 1 1041 1169 view .LVU3464
	.loc 1 1041 1234 view .LVU3465
	.loc 1 1041 1259 view .LVU3466
	.loc 1 1041 1260 view .LVU3467
	.loc 1 1041 1262 view .LVU3468
	.loc 1 1041 1292 view .LVU3469
	.loc 1 1041 1322 view .LVU3470
	.loc 1 1041 1354 view .LVU3471
	.loc 1 1041 1386 view .LVU3472
	.loc 1 1041 1418 view .LVU3473
	.loc 1 1041 1615 view .LVU3474
	.loc 1 1041 1639 view .LVU3475
	.loc 1 1041 1640 view .LVU3476
	.loc 1 1041 1642 view .LVU3477
	.loc 1 1041 1671 view .LVU3478
	.loc 1 1041 1700 view .LVU3479
	.loc 1 1041 1731 view .LVU3480
	.loc 1 1041 1762 view .LVU3481
	.loc 1 1041 1793 view .LVU3482
	.loc 1 1041 2000 view .LVU3483
.LBB3021:
	.loc 1 1041 3234 view .LVU3484
	.loc 1 1041 3239 view .LVU3485
	.loc 1 1041 3917 view .LVU3486
	.loc 1 1041 0 is_stmt 0 view .LVU3487
	ldr	r3, .L303
.LBE3021:
.LBB3022:
	.loc 1 1041 3811 view .LVU3488
	strd	r3, r0, [r2, #20]
	.loc 1 1041 2766 is_stmt 1 view .LVU3489
	.loc 1 1041 7 view .LVU3490
.LVL420:
	.loc 1 1041 30 view .LVU3491
	.loc 1 1041 30 is_stmt 0 view .LVU3492
.LBE3022:
	.loc 1 1041 9 is_stmt 1 view .LVU3493
	.loc 1 1041 5 view .LVU3494
	.loc 1 1041 28 view .LVU3495
	.loc 1 1041 52 view .LVU3496
	.loc 1 1041 80 view .LVU3497
.LBE3020:
.LBE3025:
.LBE3028:
.LBE3031:
.LBE3034:
	.loc 1 1041 6 view .LVU3498
	.loc 1 1041 45 view .LVU3499
	.loc 1 1041 50 view .LVU3500
	.loc 1 1041 80 view .LVU3501
	.loc 1 1041 147 view .LVU3502
	.loc 1 1041 152 view .LVU3503
	.loc 1 1041 182 view .LVU3504
.LBB3035:
.LBB3032:
.LBB3029:
.LBB3026:
.LBB3024:
	.loc 1 1041 256 view .LVU3505
	.loc 1 1041 16 view .LVU3506
.LBB3023:
	.loc 1 1041 6 view .LVU3507
	.loc 1 1041 164 view .LVU3508
	.loc 1 1041 166 view .LVU3509
	.loc 1 1041 176 is_stmt 0 view .LVU3510
	movs	r3, #3
	str	r3, [r2, #16]!
.LVL421:
	.loc 1 1041 176 view .LVU3511
.LBE3023:
.LBE3024:
	.loc 1 1041 26 is_stmt 1 view .LVU3512
	.loc 1 1041 7 view .LVU3513
	.loc 1 1041 147 view .LVU3514
	.loc 1 1041 149 view .LVU3515
	ldr	r0, .L303+4
.LVL422:
	.loc 1 1041 149 is_stmt 0 view .LVU3516
	mov	r1, #6208
	bl	z_log_msg_static_create.constprop.0
.LVL423:
	.loc 1 1041 149 view .LVU3517
	mov	sp, r4
.LVL424:
	.loc 1 1041 149 view .LVU3518
.LBE3026:
	.loc 1 1041 107 is_stmt 1 view .LVU3519
	.loc 1 1041 5 view .LVU3520
	.loc 1 1041 42 view .LVU3521
.LBE3029:
	.loc 1 1041 6 view .LVU3522
.LBE3032:
	.loc 1 1041 278 view .LVU3523
	.loc 1 1041 5 view .LVU3524
	.loc 1 1041 18 view .LVU3525
.LBE3035:
	.loc 1 1041 6 view .LVU3526
	.loc 1 1042 3 view .LVU3527
.L296:
	.loc 1 1050 1 is_stmt 0 view .LVU3528
	adds	r7, r7, #8
	.cfi_remember_state
	.cfi_def_cfa_offset 16
	mov	sp, r7
	.cfi_def_cfa_register 13
	@ sp needed
	pop	{r4, r5, r7, pc}
.LVL425:
.L299:
	.cfi_restore_state
	.loc 1 1021 7 view .LVU3529
	mov	r3, r0
	b	.L297
.L304:
	.align	2
.L303:
	.word	.LC11
	.word	log_const_bt_gatt
	.cfi_endproc
.LFE733:
	.size	bt_gatt_store_cf.isra.0, .-bt_gatt_store_cf.isra.0
	.section	.text.disconnected_cb,"ax",%progbits
	.align	1
	.syntax unified
	.thumb
	.thumb_func
	.type	disconnected_cb, %function
disconnected_cb:
.LVL426:
.LFB679:
	.loc 1 3279 1 is_stmt 1 view -0
	.cfi_startproc
	@ args = 0, pretend = 0, frame = 0
	@ frame_needed = 0, uses_anonymous_args = 0
	.loc 1 3280 2 view .LVU3531
	.loc 1 3279 1 is_stmt 0 view .LVU3532
	push	{r4, r5, r6, r7, r8, r9, r10, lr}
	.cfi_def_cfa_offset 32
	.cfi_offset 4, -32
	.cfi_offset 5, -28
	.cfi_offset 6, -24
	.cfi_offset 7, -20
	.cfi_offset 8, -16
	.cfi_offset 9, -12
	.cfi_offset 10, -8
	.cfi_offset 14, -4
	.loc 1 3286 5 view .LVU3533
	ldr	r3, .L328
	.loc 1 3279 1 view .LVU3534
	mov	r6, r2
.LVL427:
	.loc 1 3281 2 is_stmt 1 view .LVU3535
	.loc 1 3282 1 view .LVU3536
	.loc 1 3283 2 view .LVU3537
	.loc 1 3286 2 view .LVU3538
	.loc 1 3286 5 is_stmt 0 view .LVU3539
	ldr	r2, [r0, #8]
.LVL428:
	.loc 1 3286 5 view .LVU3540
	cmp	r2, r3
	.loc 1 3279 1 view .LVU3541
	mov	r7, r0
	.loc 1 3286 5 view .LVU3542
	bne	.L307
.LVL429:
.LBB3050:
.LBI3050:
	.loc 1 3277 16 is_stmt 1 view .LVU3543
.LBB3051:
	.loc 1 3290 2 view .LVU3544
	.loc 1 3290 6 is_stmt 0 view .LVU3545
	ldr	r5, [r0, #12]
.LVL430:
	.loc 1 3293 2 is_stmt 1 view .LVU3546
	.loc 1 3293 5 is_stmt 0 view .LVU3547
	ldrh	r3, [r5, #50]
	cbz	r3, .L307
	adds	r4, r5, #1
	add	r10, r5, #51
	.loc 1 3298 13 view .LVU3548
	mov	r8, #0
.LBB3052:
	.loc 1 3322 40 view .LVU3549
	add	r9, r6, #136
.LVL431:
.L316:
	.loc 1 3301 3 is_stmt 1 view .LVU3550
	.loc 1 3304 3 view .LVU3551
	.loc 1 3304 6 is_stmt 0 view .LVU3552
	ldrh	r3, [r4, #7]
	cbz	r3, .L312
	.loc 1 3308 3 is_stmt 1 view .LVU3553
	.loc 1 3308 8 is_stmt 0 view .LVU3554
	ldrb	r1, [r4, #-1]	@ zero_extendqisi2
	mov	r2, r4
	mov	r0, r6
	bl	bt_conn_is_peer_addr_le
.LVL432:
	.loc 1 3308 6 view .LVU3555
	cbnz	r0, .L310
.LBB3053:
	.loc 1 3309 4 is_stmt 1 view .LVU3556
	.loc 1 3312 4 view .LVU3557
	.loc 1 3312 10 is_stmt 0 view .LVU3558
	ldrb	r0, [r4, #-1]	@ zero_extendqisi2
	mov	r1, r4
	bl	bt_conn_lookup_addr_le
.LVL433:
	.loc 1 3313 4 is_stmt 1 view .LVU3559
	.loc 1 3313 7 is_stmt 0 view .LVU3560
	cbz	r0, .L312
	.loc 1 3314 5 is_stmt 1 view .LVU3561
	.loc 1 3314 8 is_stmt 0 view .LVU3562
	ldrb	r3, [r0, #13]	@ zero_extendqisi2
	.loc 1 3315 17 view .LVU3563
	cmp	r3, #7
	it	eq
	moveq	r8, #1
.LVL434:
	.loc 1 3318 5 is_stmt 1 view .LVU3564
	bl	bt_conn_unref
.LVL435:
.L312:
	.loc 1 3318 5 is_stmt 0 view .LVU3565
.LBE3053:
.LBE3052:
	.loc 1 3300 195 is_stmt 1 view .LVU3566
	.loc 1 3300 16 view .LVU3567
	adds	r4, r4, #10
	cmp	r4, r10
	bne	.L316
	.loc 1 3336 2 view .LVU3568
	.loc 1 3336 5 is_stmt 0 view .LVU3569
	cmp	r8, #0
	bne	.L307
	.loc 1 3337 3 is_stmt 1 view .LVU3570
	.loc 1 3338 10 is_stmt 0 view .LVU3571
	ldr	r3, [r5, #52]
	.loc 1 3337 14 view .LVU3572
	strh	r8, [r5, #50]	@ movhi
	.loc 1 3338 3 is_stmt 1 view .LVU3573
	.loc 1 3338 6 is_stmt 0 view .LVU3574
	cbz	r3, .L307
	.loc 1 3339 4 is_stmt 1 view .LVU3575
	mov	r1, r8
	mov	r0, r7
	blx	r3
.LVL436:
.L307:
	.loc 1 3339 4 is_stmt 0 view .LVU3576
.LBE3051:
.LBE3050:
	.loc 1 3346 1 view .LVU3577
	movs	r0, #1
	pop	{r4, r5, r6, r7, r8, r9, r10, pc}
.LVL437:
.L310:
.LBB3058:
.LBB3057:
.LBB3056:
	.loc 1 3322 4 is_stmt 1 view .LVU3578
	.loc 1 3322 9 is_stmt 0 view .LVU3579
	ldrb	r0, [r6, #8]	@ zero_extendqisi2
	mov	r1, r9
	bl	bt_addr_le_is_bonded
.LVL438:
	.loc 1 3322 7 view .LVU3580
	cbnz	r0, .L314
	.loc 1 3323 5 is_stmt 1 view .LVU3581
	.loc 1 3323 8 is_stmt 0 view .LVU3582
	ldr	r3, .L328+4
	cmp	r5, r3
	bne	.L315
	.loc 1 3324 6 is_stmt 1 view .LVU3583
	mov	r0, r6
	bl	sc_clear
.LVL439:
.L315:
	.loc 1 3327 5 view .LVU3584
.LBB3054:
.LBI3054:
	.loc 1 1316 13 view .LVU3585
.LBB3055:
	.loc 1 1318 2 view .LVU3586
	ldr	r1, .L328+8
	mov	r0, r4
	bl	bt_addr_le_copy
.LVL440:
	.loc 1 1319 2 view .LVU3587
	.loc 1 1319 10 is_stmt 0 view .LVU3588
	movs	r3, #0
	strb	r3, [r4, #-1]
	.loc 1 1320 2 is_stmt 1 view .LVU3589
	.loc 1 1320 13 is_stmt 0 view .LVU3590
	strh	r3, [r4, #7]	@ movhi
	.loc 1 1321 1 view .LVU3591
	b	.L312
.LVL441:
.L314:
	.loc 1 1321 1 view .LVU3592
.LBE3055:
.LBE3054:
	.loc 1 3330 5 is_stmt 1 view .LVU3593
	mov	r1, r9
	mov	r0, r4
	bl	bt_addr_le_copy
.LVL442:
	b	.L312
.L329:
	.align	2
.L328:
	.word	bt_gatt_attr_write_ccc
	.word	sc_ccc
	.word	bt_addr_le_any
.LBE3056:
.LBE3057:
.LBE3058:
	.cfi_endproc
.LFE679:
	.size	disconnected_cb, .-disconnected_cb
	.section	.rodata.bt_gatt_attr_write_ccc.str1.1,"aMS",%progbits,1
.LC12:
	.ascii	"No space to store CCC cfg\000"
	.section	.text.bt_gatt_attr_write_ccc,"ax",%progbits
	.align	1
	.global	bt_gatt_attr_write_ccc
	.syntax unified
	.thumb
	.thumb_func
	.type	bt_gatt_attr_write_ccc, %function
bt_gatt_attr_write_ccc:
.LVL443:
.LFB660:
	.loc 1 2116 1 view -0
	.cfi_startproc
	@ args = 8, pretend = 0, frame = 24
	@ frame_needed = 0, uses_anonymous_args = 0
	.loc 1 2117 2 view .LVU3595
	.loc 1 2116 1 is_stmt 0 view .LVU3596
	push	{r4, r5, r6, r7, r8, r9, r10, lr}
	.cfi_def_cfa_offset 32
	.cfi_offset 4, -32
	.cfi_offset 5, -28
	.cfi_offset 6, -24
	.cfi_offset 7, -20
	.cfi_offset 8, -16
	.cfi_offset 9, -12
	.cfi_offset 10, -8
	.cfi_offset 14, -4
	sub	sp, sp, #24
	.cfi_def_cfa_offset 56
	.loc 1 2116 1 view .LVU3597
	mov	r7, r3
	ldrh	r3, [sp, #56]
.LVL444:
	.loc 1 2117 23 view .LVU3598
	ldr	r9, [r1, #12]
.LVL445:
	.loc 1 2118 2 is_stmt 1 view .LVU3599
	.loc 1 2119 1 view .LVU3600
	.loc 1 2120 2 view .LVU3601
	.loc 1 2122 2 view .LVU3602
	.loc 1 2116 1 is_stmt 0 view .LVU3603
	mov	r6, r0
	mov	r8, r1
	.loc 1 2122 5 view .LVU3604
	cmp	r3, #0
	bne	.L343
	.loc 1 2126 2 is_stmt 1 view .LVU3605
	.loc 1 2126 5 is_stmt 0 view .LVU3606
	subs	r3, r7, #1
	cmp	r3, #1
	bhi	.L344
	.loc 1 2130 2 is_stmt 1 view .LVU3607
	.loc 1 2130 5 is_stmt 0 view .LVU3608
	cmp	r7, #1
	.loc 1 2133 3 is_stmt 1 view .LVU3609
.LVL446:
	.loc 1 2136 8 is_stmt 0 view .LVU3610
	mov	r1, r9
.LVL447:
	.loc 1 2131 11 view .LVU3611
	ldrb	r5, [r2]	@ zero_extendqisi2
	it	ne
	ldrhne	r5, [r2]	@ unaligned
.LVL448:
	.loc 1 2136 2 is_stmt 1 view .LVU3612
	.loc 1 2136 8 is_stmt 0 view .LVU3613
	bl	find_ccc_cfg
.LVL449:
	.loc 1 2137 2 is_stmt 1 view .LVU3614
	.loc 1 2137 5 is_stmt 0 view .LVU3615
	mov	r4, r0
	cbnz	r0, .L334
	.loc 1 2142 3 is_stmt 1 view .LVU3616
	.loc 1 2142 6 is_stmt 0 view .LVU3617
	cbnz	r5, .L335
.LVL450:
.L342:
	.loc 1 2143 4 is_stmt 1 view .LVU3618
	.loc 1 2143 11 is_stmt 0 view .LVU3619
	mov	r0, r7
.LVL451:
.L330:
	.loc 1 2193 1 view .LVU3620
	add	sp, sp, #24
	.cfi_remember_state
	.cfi_def_cfa_offset 32
	@ sp needed
	pop	{r4, r5, r6, r7, r8, r9, r10, pc}
.LVL452:
.L335:
	.cfi_restore_state
	.loc 1 2146 3 is_stmt 1 view .LVU3621
	.loc 1 2146 9 is_stmt 0 view .LVU3622
	mov	r1, r9
	bl	find_ccc_cfg
.LVL453:
	.loc 1 2147 3 is_stmt 1 view .LVU3623
	.loc 1 2147 6 is_stmt 0 view .LVU3624
	mov	r4, r0
	cbnz	r0, .L336
	.loc 1 2148 4 is_stmt 1 view .LVU3625
.LBB3074:
	.loc 1 2148 9 view .LVU3626
	.loc 1 2148 58 view .LVU3627
	.loc 1 2148 15 view .LVU3628
	.loc 1 2148 3 view .LVU3629
.LVL454:
	.loc 1 2148 42 view .LVU3630
	.loc 1 2148 177 view .LVU3631
	.loc 1 2148 188 view .LVU3632
	.loc 1 2148 276 view .LVU3633
	.loc 1 2148 4 view .LVU3634
	.loc 1 2148 4 view .LVU3635
.LBB3075:
	.loc 1 2148 9 view .LVU3636
	.loc 1 2148 3 view .LVU3637
.LBE3075:
.LBE3074:
	.loc 1 2148 4 view .LVU3638
	.loc 1 2148 13 view .LVU3639
	.loc 1 2148 108 view .LVU3640
	.loc 1 2148 4 view .LVU3641
.LBB3096:
.LBB3092:
	.loc 1 2148 13 view .LVU3642
	.loc 1 2148 103 view .LVU3643
	.loc 1 2148 105 view .LVU3644
.LBB3076:
	.loc 1 2148 110 view .LVU3645
	.loc 1 2148 121 view .LVU3646
	.loc 1 2148 210 view .LVU3647
	.loc 1 2148 27 view .LVU3648
.LBE3076:
.LBE3092:
.LBE3096:
	.loc 1 2148 4 view .LVU3649
	.loc 1 2148 369 view .LVU3650
	.loc 1 2148 76 view .LVU3651
	.loc 1 2148 3 view .LVU3652
	.loc 1 2148 3 view .LVU3653
	.loc 1 2148 3 view .LVU3654
	.loc 1 2148 39 view .LVU3655
	.loc 1 2148 5 view .LVU3656
	.loc 1 2148 31 view .LVU3657
	.loc 1 2148 57 view .LVU3658
	.loc 1 2148 80 view .LVU3659
	.loc 1 2148 142 view .LVU3660
	.loc 1 2148 199 view .LVU3661
	.loc 1 2148 264 view .LVU3662
	.loc 1 2148 289 view .LVU3663
	.loc 1 2148 290 view .LVU3664
	.loc 1 2148 292 view .LVU3665
	.loc 1 2148 322 view .LVU3666
	.loc 1 2148 352 view .LVU3667
	.loc 1 2148 384 view .LVU3668
	.loc 1 2148 416 view .LVU3669
	.loc 1 2148 448 view .LVU3670
	.loc 1 2148 645 view .LVU3671
	.loc 1 2148 669 view .LVU3672
	.loc 1 2148 670 view .LVU3673
	.loc 1 2148 672 view .LVU3674
	.loc 1 2148 701 view .LVU3675
	.loc 1 2148 730 view .LVU3676
	.loc 1 2148 761 view .LVU3677
	.loc 1 2148 792 view .LVU3678
	.loc 1 2148 823 view .LVU3679
	.loc 1 2148 1030 view .LVU3680
	.loc 1 2148 5 view .LVU3681
	.loc 1 2148 23 view .LVU3682
	.loc 1 2148 43 view .LVU3683
	.loc 1 2148 5 view .LVU3684
	.loc 1 2148 43 view .LVU3685
	.loc 1 2148 14 view .LVU3686
	.loc 1 2148 14 view .LVU3687
	.loc 1 2148 62 view .LVU3688
	.loc 1 2148 93 view .LVU3689
	.loc 1 2148 127 view .LVU3690
	.loc 1 2148 132 view .LVU3691
	.loc 1 2148 381 view .LVU3692
	.loc 1 2148 1430 view .LVU3693
	.loc 1 2148 1495 view .LVU3694
	.loc 1 2148 1519 view .LVU3695
	.loc 1 2148 1572 view .LVU3696
	.loc 1 2148 1583 view .LVU3697
	.loc 1 2148 1694 view .LVU3698
	.loc 1 2148 1710 view .LVU3699
	.loc 1 2148 1750 view .LVU3700
	.loc 1 2148 1775 view .LVU3701
	.loc 1 2148 3062 view .LVU3702
	.loc 1 2148 3103 view .LVU3703
	.loc 1 2148 8 view .LVU3704
	.loc 1 2148 31 view .LVU3705
	.loc 1 2148 130 view .LVU3706
	.loc 1 2148 6 view .LVU3707
	.loc 1 2148 29 view .LVU3708
	.loc 1 2148 53 view .LVU3709
	.loc 1 2148 81 view .LVU3710
	.loc 1 2148 257 view .LVU3711
	.loc 1 2148 17 view .LVU3712
.LBB3097:
.LBB3093:
.LBB3089:
	.loc 1 2148 30 view .LVU3713
	.loc 1 2148 4 view .LVU3714
	.loc 1 2148 4 view .LVU3715
	.loc 1 2148 71 view .LVU3716
	.loc 1 2148 75 view .LVU3717
	.loc 1 2148 485 view .LVU3718
	.loc 1 2148 6 view .LVU3719
	.loc 1 2148 8 view .LVU3720
	.loc 1 2148 13 view .LVU3721
	.loc 1 2148 11 view .LVU3722
	.loc 1 2148 6 view .LVU3723
	.loc 1 2148 24 view .LVU3724
.LBB3077:
	.loc 1 2148 4 view .LVU3725
	.loc 1 2148 369 view .LVU3726
	.loc 1 2148 76 view .LVU3727
.LVL455:
	.loc 1 2148 3 view .LVU3728
	.loc 1 2148 3 view .LVU3729
	.loc 1 2148 3 view .LVU3730
	.loc 1 2148 39 view .LVU3731
	.loc 1 2148 68 view .LVU3732
	.loc 1 2148 94 view .LVU3733
	.loc 1 2148 120 view .LVU3734
	.loc 1 2148 143 view .LVU3735
	.loc 1 2148 205 view .LVU3736
	.loc 1 2148 262 view .LVU3737
	.loc 1 2148 327 view .LVU3738
	.loc 1 2148 352 view .LVU3739
	.loc 1 2148 353 view .LVU3740
	.loc 1 2148 355 view .LVU3741
	.loc 1 2148 385 view .LVU3742
	.loc 1 2148 415 view .LVU3743
	.loc 1 2148 447 view .LVU3744
	.loc 1 2148 479 view .LVU3745
	.loc 1 2148 511 view .LVU3746
	.loc 1 2148 708 view .LVU3747
	.loc 1 2148 732 view .LVU3748
	.loc 1 2148 733 view .LVU3749
	.loc 1 2148 735 view .LVU3750
	.loc 1 2148 764 view .LVU3751
	.loc 1 2148 793 view .LVU3752
	.loc 1 2148 824 view .LVU3753
	.loc 1 2148 855 view .LVU3754
	.loc 1 2148 886 view .LVU3755
	.loc 1 2148 1093 view .LVU3756
	.loc 1 2148 5 view .LVU3757
	.loc 1 2148 23 view .LVU3758
	.loc 1 2148 43 view .LVU3759
	.loc 1 2148 5 view .LVU3760
	.loc 1 2148 43 view .LVU3761
	.loc 1 2148 14 view .LVU3762
	.loc 1 2148 14 view .LVU3763
	.loc 1 2148 62 view .LVU3764
	.loc 1 2148 93 view .LVU3765
	.loc 1 2148 127 view .LVU3766
.LBB3078:
	.loc 1 2148 132 view .LVU3767
	.loc 1 2148 381 view .LVU3768
	.loc 1 2148 1430 view .LVU3769
	.loc 1 2148 1495 view .LVU3770
.LBE3078:
.LBE3077:
.LBE3089:
.LBE3093:
.LBE3097:
	.loc 1 2148 1519 view .LVU3771
	.loc 1 2148 1572 view .LVU3772
	.loc 1 2148 1583 view .LVU3773
	.loc 1 2148 1694 view .LVU3774
.LBB3098:
.LBB3094:
.LBB3090:
.LBB3084:
.LBB3079:
	.loc 1 2148 1710 view .LVU3775
	.loc 1 2148 1750 view .LVU3776
	.loc 1 2148 1775 view .LVU3777
	.loc 1 2148 3062 view .LVU3778
	.loc 1 2148 3100 view .LVU3779
	.loc 1 2148 3105 view .LVU3780
	.loc 1 2148 3693 view .LVU3781
	.loc 1 2148 0 is_stmt 0 view .LVU3782
	ldr	r3, .L346
.LBE3079:
.LBE3084:
	.loc 1 2148 150 view .LVU3783
	ldr	r0, .L346+4
.LVL456:
.LBB3085:
.LBB3080:
	.loc 1 2148 0 view .LVU3784
	str	r3, [sp, #20]
	.loc 1 2148 3103 is_stmt 1 view .LVU3785
	.loc 1 2148 8 view .LVU3786
.LVL457:
	.loc 1 2148 31 view .LVU3787
	.loc 1 2148 31 is_stmt 0 view .LVU3788
.LBE3080:
	.loc 1 2148 130 is_stmt 1 view .LVU3789
	.loc 1 2148 6 view .LVU3790
	.loc 1 2148 29 view .LVU3791
	.loc 1 2148 53 view .LVU3792
	.loc 1 2148 81 view .LVU3793
.LBE3085:
.LBE3090:
.LBE3094:
.LBE3098:
	.loc 1 2148 7 view .LVU3794
	.loc 1 2148 46 view .LVU3795
	.loc 1 2148 51 view .LVU3796
	.loc 1 2148 81 view .LVU3797
	.loc 1 2148 148 view .LVU3798
	.loc 1 2148 153 view .LVU3799
	.loc 1 2148 183 view .LVU3800
.LBB3099:
.LBB3095:
.LBB3091:
.LBB3086:
	.loc 1 2148 257 view .LVU3801
	.loc 1 2148 17 view .LVU3802
.LBB3081:
	.loc 1 2148 7 view .LVU3803
	.loc 1 2148 165 view .LVU3804
	.loc 1 2148 167 view .LVU3805
.LBE3081:
.LBE3086:
	.loc 1 2148 150 is_stmt 0 view .LVU3806
	add	r2, sp, #16
.LVL458:
.LBB3087:
.LBB3082:
	.loc 1 2148 177 view .LVU3807
	movs	r3, #2
.LBE3082:
.LBE3087:
	.loc 1 2148 150 view .LVU3808
	mov	r1, #4224
.LBB3088:
.LBB3083:
	.loc 1 2148 177 view .LVU3809
	str	r3, [sp, #16]
.LVL459:
	.loc 1 2148 177 view .LVU3810
.LBE3083:
.LBE3088:
	.loc 1 2148 27 is_stmt 1 view .LVU3811
	.loc 1 2148 8 view .LVU3812
	.loc 1 2148 148 view .LVU3813
	.loc 1 2148 150 view .LVU3814
	bl	z_log_msg_static_create.constprop.0
.LVL460:
	.loc 1 2148 150 is_stmt 0 view .LVU3815
.LBE3091:
	.loc 1 2148 108 is_stmt 1 view .LVU3816
	.loc 1 2148 6 view .LVU3817
.LVL461:
	.loc 1 2148 43 view .LVU3818
.LBE3095:
	.loc 1 2148 7 view .LVU3819
	.loc 1 2148 279 view .LVU3820
	.loc 1 2148 6 view .LVU3821
	.loc 1 2148 19 view .LVU3822
.LBE3099:
	.loc 1 2148 7 view .LVU3823
	.loc 1 2149 4 view .LVU3824
	.loc 1 2149 11 is_stmt 0 view .LVU3825
	mvn	r0, #16
	b	.L330
.LVL462:
.L336:
	.loc 1 2152 3 is_stmt 1 view .LVU3826
	add	r1, r6, #136
	adds	r0, r0, #1
.LVL463:
	.loc 1 2152 3 is_stmt 0 view .LVU3827
	bl	bt_addr_le_copy
.LVL464:
	.loc 1 2153 3 is_stmt 1 view .LVU3828
	.loc 1 2153 17 is_stmt 0 view .LVU3829
	ldrb	r3, [r6, #8]	@ zero_extendqisi2
	.loc 1 2153 11 view .LVU3830
	strb	r3, [r4]
.L334:
	.loc 1 2157 2 is_stmt 1 view .LVU3831
	.loc 1 2157 9 is_stmt 0 view .LVU3832
	ldr	r3, [r9, #56]
	.loc 1 2157 5 view .LVU3833
	cbnz	r3, .L337
.L340:
	.loc 1 2170 2 is_stmt 1 view .LVU3834
	.loc 1 2170 21 is_stmt 0 view .LVU3835
	ldrh	r10, [r4, #8]
.LVL465:
	.loc 1 2171 2 is_stmt 1 view .LVU3836
	.loc 1 2171 13 is_stmt 0 view .LVU3837
	strh	r5, [r4, #8]	@ movhi
	.loc 1 2173 2 is_stmt 1 view .LVU3838
.LBB3100:
	.loc 1 2173 7 view .LVU3839
.LBE3100:
	.loc 1 2173 5 view .LVU3840
	.loc 1 2176 2 view .LVU3841
	.loc 1 2176 5 is_stmt 0 view .LVU3842
	ldrh	r3, [r9, #50]
	cmp	r3, r5
	beq	.L339
	.loc 1 2177 3 is_stmt 1 view .LVU3843
	mov	r1, r9
	mov	r0, r8
	bl	gatt_ccc_changed
.LVL466:
.L339:
	.loc 1 2180 2 view .LVU3844
	.loc 1 2180 5 is_stmt 0 view .LVU3845
	cmp	r10, r5
	beq	.L341
	.loc 1 2183 3 is_stmt 1 view .LVU3846
	ldrb	r0, [r6, #8]	@ zero_extendqisi2
	movs	r2, #0
	add	r1, r6, #136
	bl	gatt_delayed_store_enqueue
.LVL467:
.L341:
	.loc 1 2188 2 view .LVU3847
	.loc 1 2188 5 is_stmt 0 view .LVU3848
	cmp	r5, #0
	bne	.L342
	.loc 1 2189 3 is_stmt 1 view .LVU3849
.LVL468:
.LBB3101:
.LBI3101:
	.loc 1 1316 13 view .LVU3850
.LBB3102:
	.loc 1 1318 2 view .LVU3851
	ldr	r1, .L346+8
	adds	r0, r4, #1
	bl	bt_addr_le_copy
.LVL469:
	.loc 1 1319 2 view .LVU3852
	.loc 1 1319 10 is_stmt 0 view .LVU3853
	strb	r5, [r4]
	.loc 1 1320 2 is_stmt 1 view .LVU3854
	.loc 1 1320 13 is_stmt 0 view .LVU3855
	strh	r5, [r4, #8]	@ movhi
	.loc 1 1321 1 view .LVU3856
	b	.L342
.LVL470:
.L337:
	.loc 1 1321 1 view .LVU3857
.LBE3102:
.LBE3101:
.LBB3103:
	.loc 1 2158 3 is_stmt 1 view .LVU3858
	.loc 1 2158 19 is_stmt 0 view .LVU3859
	mov	r2, r5
	mov	r1, r8
	mov	r0, r6
	blx	r3
.LVL471:
	.loc 1 2160 3 is_stmt 1 view .LVU3860
	.loc 1 2160 6 is_stmt 0 view .LVU3861
	cmp	r0, #0
	.loc 1 2160 6 view .LVU3862
	blt	.L330
	.loc 1 2165 3 is_stmt 1 view .LVU3863
	.loc 1 2165 30 is_stmt 0 view .LVU3864
	subs	r0, r0, #1
.LVL472:
	.loc 1 2165 6 view .LVU3865
	cmp	r0, #1
	bls	.L340
	.loc 1 2166 11 view .LVU3866
	mvn	r0, #13
.LVL473:
	.loc 1 2166 11 view .LVU3867
	b	.L330
.LVL474:
.L343:
	.loc 1 2166 11 view .LVU3868
.LBE3103:
	.loc 1 2123 10 view .LVU3869
	mvn	r0, #6
.LVL475:
	.loc 1 2123 10 view .LVU3870
	b	.L330
.LVL476:
.L344:
	.loc 1 2127 10 view .LVU3871
	mvn	r0, #12
.LVL477:
	.loc 1 2127 10 view .LVU3872
	b	.L330
.L347:
	.align	2
.L346:
	.word	.LC12
	.word	log_const_bt_gatt
	.word	bt_addr_le_any
	.cfi_endproc
.LFE660:
	.size	bt_gatt_attr_write_ccc, .-bt_gatt_attr_write_ccc
	.section	.text.sc_indicate.constprop.0,"ax",%progbits
	.align	1
	.syntax unified
	.thumb
	.thumb_func
	.type	sc_indicate.constprop.0, %function
sc_indicate.constprop.0:
.LFB735:
	.loc 1 1521 13 is_stmt 1 view -0
	.cfi_startproc
	@ args = 0, pretend = 0, frame = 0
	@ frame_needed = 0, uses_anonymous_args = 0
.LVL478:
	.loc 1 1523 2 view .LVU3874
.LBB3132:
	.loc 1 1523 7 view .LVU3875
.LBE3132:
	.loc 1 1523 5 view .LVU3876
	.loc 1 1525 2 view .LVU3877
.LBB3133:
.LBI3133:
	.loc 5 176 19 view .LVU3878
.LBB3134:
	.loc 5 178 2 view .LVU3879
	.loc 5 179 2 view .LVU3880
	.loc 5 181 2 view .LVU3881
.LBE3134:
.LBE3133:
	.loc 1 1521 13 is_stmt 0 view .LVU3882
	push	{r3, lr}
	.cfi_def_cfa_offset 8
	.cfi_offset 3, -8
	.cfi_offset 14, -4
.LBB3136:
.LBB3135:
	.loc 5 181 8 view .LVU3883
	ldr	r0, .L355
.LVL479:
	.loc 5 181 8 view .LVU3884
	movs	r1, #1
	bl	atomic_or
.LVL480:
	.loc 5 183 2 is_stmt 1 view .LVU3885
	.loc 5 183 2 is_stmt 0 view .LVU3886
.LBE3135:
.LBE3136:
	.loc 1 1525 5 view .LVU3887
	tst	r0, #1
	ldr	r3, .L355+4
	bne	.L349
	.loc 1 1526 3 is_stmt 1 view .LVU3888
	.loc 1 1527 3 view .LVU3889
	.loc 1 1526 17 is_stmt 0 view .LVU3890
	ldr	r2, .L355+8
	str	r2, [r3, #24]
	.loc 1 1528 3 is_stmt 1 view .LVU3891
.L350:
	.loc 1 1536 2 view .LVU3892
.LVL481:
.LBB3137:
.LBI3137:
	.loc 5 131 19 view .LVU3893
.LBB3138:
	.loc 5 133 2 view .LVU3894
	.loc 5 133 21 is_stmt 0 view .LVU3895
	ldr	r0, .L355
.LVL482:
	.loc 5 133 21 view .LVU3896
	bl	atomic_get
.LVL483:
	.loc 5 135 2 is_stmt 1 view .LVU3897
	.loc 5 135 2 is_stmt 0 view .LVU3898
.LBE3138:
.LBE3137:
	.loc 1 1536 5 view .LVU3899
	lsls	r3, r0, #30
	bmi	.L348
	.loc 1 1543 1 view .LVU3900
	pop	{r3, lr}
	.cfi_remember_state
	.cfi_restore 14
	.cfi_restore 3
	.cfi_def_cfa_offset 0
	b	sc_indicate.part.0
.LVL484:
.L349:
	.cfi_restore_state
	.loc 1 1531 2 is_stmt 1 view .LVU3901
.LBB3139:
.LBI3139:
	.loc 1 408 12 view .LVU3902
.LBB3140:
	.loc 1 411 2 view .LVU3903
.LBB3141:
	.loc 1 411 7 view .LVU3904
.LBE3141:
	.loc 1 411 5 view .LVU3905
	.loc 1 415 2 view .LVU3906
	.loc 1 415 5 is_stmt 0 view .LVU3907
	ldrh	r2, [r3, #24]
	.loc 1 415 40 view .LVU3908
	ldrh	r0, [r3, #26]
	.loc 1 415 5 view .LVU3909
	cmp	r2, #1
	movw	r2, #65535
	bhi	.L351
	.loc 1 415 26 view .LVU3910
	cmp	r0, r2
	beq	.L348
.L354:
	.loc 1 425 3 is_stmt 1 view .LVU3911
	.loc 1 425 8 is_stmt 0 view .LVU3912
	movw	r2, #65535
	strh	r2, [r3, #26]	@ movhi
.LVL485:
	.loc 1 425 8 view .LVU3913
	b	.L350
.LVL486:
.L351:
	.loc 1 420 2 is_stmt 1 view .LVU3914
	.loc 1 421 3 view .LVU3915
	.loc 1 424 5 is_stmt 0 view .LVU3916
	cmp	r0, r2
	.loc 1 421 10 view .LVU3917
	strh	r1, [r3, #24]	@ movhi
	.loc 1 424 2 is_stmt 1 view .LVU3918
	.loc 1 424 5 is_stmt 0 view .LVU3919
	beq	.L350
	b	.L354
.LVL487:
.L348:
	.loc 1 424 5 view .LVU3920
.LBE3140:
.LBE3139:
	.loc 1 1543 1 view .LVU3921
	pop	{r3, pc}
.L356:
	.align	2
.L355:
	.word	gatt_sc+80
	.word	gatt_sc
	.word	-65535
	.cfi_endproc
.LFE735:
	.size	sc_indicate.constprop.0, .-sc_indicate.constprop.0
	.section	.text.set_change_aware_no_store,"ax",%progbits
	.align	1
	.syntax unified
	.thumb
	.thumb_func
	.type	set_change_aware_no_store, %function
set_change_aware_no_store:
.LVL488:
.LFB613:
	.loc 1 546 1 is_stmt 1 view -0
	.cfi_startproc
	@ args = 0, pretend = 0, frame = 0
	@ frame_needed = 0, uses_anonymous_args = 0
	.loc 1 547 1 view .LVU3923
	.loc 1 549 2 view .LVU3924
	.loc 1 546 1 is_stmt 0 view .LVU3925
	push	{r3, lr}
	.cfi_def_cfa_offset 8
	.cfi_offset 3, -8
	.cfi_offset 14, -4
.LBB3156:
.LBB3157:
	.loc 1 550 41 view .LVU3926
	adds	r0, r0, #12
.LVL489:
	.loc 1 550 41 view .LVU3927
.LBE3157:
.LBE3156:
	.loc 1 549 5 view .LVU3928
	cbz	r1, .L358
.LVL490:
.LBB3162:
.LBI3156:
	.loc 1 545 12 is_stmt 1 view .LVU3929
.LBB3161:
	.loc 1 550 3 view .LVU3930
.LBB3158:
.LBI3158:
	.loc 5 176 19 view .LVU3931
.LBB3159:
	.loc 5 178 2 view .LVU3932
	.loc 5 179 2 view .LVU3933
	.loc 5 181 2 view .LVU3934
	.loc 5 181 8 is_stmt 0 view .LVU3935
	movs	r1, #1
.LVL491:
	.loc 5 181 8 view .LVU3936
	bl	atomic_or
.LVL492:
	.loc 5 183 2 is_stmt 1 view .LVU3937
	.loc 5 183 2 is_stmt 0 view .LVU3938
.LBE3159:
.LBE3158:
	.loc 1 550 3 view .LVU3939
	mvns	r0, r0
	ands	r0, r0, r1
.LVL493:
	.loc 1 555 2 is_stmt 1 view .LVU3940
.LBB3160:
	.loc 1 555 7 view .LVU3941
.LBE3160:
	.loc 1 555 5 view .LVU3942
	.loc 1 557 2 view .LVU3943
.L359:
	.loc 1 557 2 is_stmt 0 view .LVU3944
.LBE3161:
.LBE3162:
	.loc 1 555 2 is_stmt 1 discriminator 347 view .LVU3945
.LBB3163:
	.loc 1 555 7 discriminator 347 view .LVU3946
.LBE3163:
	.loc 1 555 5 discriminator 347 view .LVU3947
	.loc 1 557 2 discriminator 347 view .LVU3948
	.loc 1 558 1 is_stmt 0 discriminator 347 view .LVU3949
	pop	{r3, pc}
.LVL494:
.L358:
	.loc 1 552 3 is_stmt 1 view .LVU3950
.LBB3164:
.LBI3164:
	.loc 5 152 19 view .LVU3951
.LBB3165:
	.loc 5 154 2 view .LVU3952
	.loc 5 155 2 view .LVU3953
	.loc 5 157 2 view .LVU3954
	.loc 5 157 8 is_stmt 0 view .LVU3955
	mvn	r1, #1
.LVL495:
	.loc 5 157 8 view .LVU3956
	bl	atomic_and
.LVL496:
	.loc 5 159 2 is_stmt 1 view .LVU3957
	.loc 5 159 22 is_stmt 0 view .LVU3958
	and	r0, r0, #1
.LVL497:
	.loc 5 159 22 view .LVU3959
	b	.L359
.LBE3165:
.LBE3164:
	.cfi_endproc
.LFE613:
	.size	set_change_aware_no_store, .-set_change_aware_no_store
	.section	.text.set_all_change_unaware,"ax",%progbits
	.align	1
	.syntax unified
	.thumb
	.thumb_func
	.type	set_all_change_unaware, %function
set_all_change_unaware:
.LFB615:
	.loc 1 576 1 is_stmt 1 view -0
	.cfi_startproc
	@ args = 0, pretend = 0, frame = 0
	@ frame_needed = 0, uses_anonymous_args = 0
	.loc 1 586 2 view .LVU3961
.LBB3166:
	.loc 1 586 7 view .LVU3962
.LVL498:
	.loc 1 586 23 view .LVU3963
.LBE3166:
	.loc 1 576 1 is_stmt 0 view .LVU3964
	push	{r3, r4, r5, r6, r7, lr}
	.cfi_def_cfa_offset 24
	.cfi_offset 3, -24
	.cfi_offset 4, -20
	.cfi_offset 5, -16
	.cfi_offset 6, -12
	.cfi_offset 7, -8
	.cfi_offset 14, -4
	ldr	r4, .L364
.LBB3169:
.LBB3167:
	.loc 1 589 8 view .LVU3965
	ldr	r7, .L364+4
.LBE3167:
	.loc 1 586 14 view .LVU3966
	movs	r5, #0
.LVL499:
.L362:
.LBB3168:
	.loc 1 587 3 is_stmt 1 view .LVU3967
	.loc 1 589 3 view .LVU3968
	.loc 1 589 22 is_stmt 0 view .LVU3969
	adds	r6, r4, #1
	.loc 1 589 8 view .LVU3970
	mov	r1, r7
	mov	r0, r6
	bl	bt_addr_le_eq
.LVL500:
	.loc 1 589 6 view .LVU3971
	mov	r1, r0
	cbnz	r0, .L361
	.loc 1 590 4 is_stmt 1 view .LVU3972
	mov	r0, r4
	bl	set_change_aware_no_store
.LVL501:
	.loc 1 591 4 view .LVU3973
	ldrb	r0, [r4]	@ zero_extendqisi2
	mov	r1, r6
	bl	bt_gatt_store_cf.isra.0
.LVL502:
.L361:
.LBE3168:
	.loc 1 586 194 discriminator 2 view .LVU3974
	adds	r5, r5, #1
.LVL503:
	.loc 1 586 23 discriminator 2 view .LVU3975
	cmp	r5, #10
	add	r4, r4, #16
.LVL504:
	.loc 1 586 23 is_stmt 0 discriminator 2 view .LVU3976
	bne	.L362
.LBE3169:
	.loc 1 595 1 view .LVU3977
	pop	{r3, r4, r5, r6, r7, pc}
.LVL505:
.L365:
	.loc 1 595 1 view .LVU3978
	.align	2
.L364:
	.word	cf_cfg
	.word	bt_addr_le_any
	.cfi_endproc
.LFE615:
	.size	set_all_change_unaware, .-set_all_change_unaware
	.section	.text.set_change_aware,"ax",%progbits
	.align	1
	.syntax unified
	.thumb
	.thumb_func
	.type	set_change_aware, %function
set_change_aware:
.LVL506:
.LFB614:
	.loc 1 561 1 is_stmt 1 view -0
	.cfi_startproc
	@ args = 0, pretend = 0, frame = 0
	@ frame_needed = 0, uses_anonymous_args = 0
	.loc 1 561 1 is_stmt 0 view .LVU3980
	push	{r4, lr}
	.cfi_def_cfa_offset 8
	.cfi_offset 4, -8
	.cfi_offset 14, -4
	.loc 1 561 1 view .LVU3981
	mov	r4, r0
	.loc 1 562 1 is_stmt 1 view .LVU3982
	.loc 1 562 16 is_stmt 0 view .LVU3983
	bl	set_change_aware_no_store
.LVL507:
	.loc 1 565 2 is_stmt 1 view .LVU3984
	.loc 1 565 5 is_stmt 0 view .LVU3985
	cbz	r0, .L366
.LVL508:
.LBB3172:
.LBI3172:
	.loc 1 560 13 is_stmt 1 view .LVU3986
.LBB3173:
	.loc 1 566 3 view .LVU3987
	.loc 1 566 39 is_stmt 0 view .LVU3988
	mov	r1, r4
	.loc 1 566 3 view .LVU3989
	movs	r2, #1
.LBE3173:
.LBE3172:
	.loc 1 571 1 view .LVU3990
	pop	{r4, lr}
	.cfi_remember_state
	.cfi_restore 14
	.cfi_restore 4
	.cfi_def_cfa_offset 0
.LVL509:
.LBB3175:
.LBB3174:
	.loc 1 566 3 view .LVU3991
	ldrb	r0, [r1], #1	@ zero_extendqisi2
.LVL510:
	.loc 1 566 3 view .LVU3992
	b	gatt_delayed_store_enqueue
.LVL511:
.L366:
	.cfi_restore_state
	.loc 1 566 3 view .LVU3993
.LBE3174:
.LBE3175:
	.loc 1 571 1 view .LVU3994
	pop	{r4, pc}
	.loc 1 571 1 view .LVU3995
	.cfi_endproc
.LFE614:
	.size	set_change_aware, .-set_change_aware
	.section	.rodata.cf_write.str1.1,"aMS",%progbits,1
.LC13:
	.ascii	"No space to store Client Supported Features\000"
	.section	.text.cf_write,"ax",%progbits
	.align	1
	.syntax unified
	.thumb
	.thumb_func
	.type	cf_write, %function
cf_write:
.LVL512:
.LFB619:
	.loc 1 660 1 is_stmt 1 view -0
	.cfi_startproc
	@ args = 8, pretend = 0, frame = 24
	@ frame_needed = 0, uses_anonymous_args = 0
	.loc 1 661 2 view .LVU3997
	.loc 1 662 2 view .LVU3998
	.loc 1 660 1 is_stmt 0 view .LVU3999
	push	{r4, r5, r6, r7, r8, lr}
	.cfi_def_cfa_offset 24
	.cfi_offset 4, -24
	.cfi_offset 5, -20
	.cfi_offset 6, -16
	.cfi_offset 7, -12
	.cfi_offset 8, -8
	.cfi_offset 14, -4
	sub	sp, sp, #24
	.cfi_def_cfa_offset 48
	.loc 1 660 1 view .LVU4000
	mov	r7, r3
	ldrh	r3, [sp, #48]
.LVL513:
	.loc 1 664 5 view .LVU4001
	cmp	r3, #1
	.loc 1 660 1 view .LVU4002
	mov	r6, r0
	mov	r8, r2
.LVL514:
	.loc 1 664 2 is_stmt 1 view .LVU4003
	.loc 1 664 5 is_stmt 0 view .LVU4004
	bhi	.L374
	.loc 1 668 2 is_stmt 1 view .LVU4005
	.loc 1 668 13 is_stmt 0 view .LVU4006
	add	r3, r3, r7
	.loc 1 668 5 view .LVU4007
	cmp	r3, #1
	.loc 1 668 13 view .LVU4008
	mov	r5, r7
	.loc 1 668 5 view .LVU4009
	bgt	.L375
	.loc 1 672 2 is_stmt 1 view .LVU4010
	.loc 1 672 8 is_stmt 0 view .LVU4011
	bl	find_cf_cfg
.LVL515:
	.loc 1 673 2 is_stmt 1 view .LVU4012
	.loc 1 673 5 is_stmt 0 view .LVU4013
	mov	r4, r0
	cbnz	r0, .L370
	.loc 1 674 3 is_stmt 1 view .LVU4014
	.loc 1 674 9 is_stmt 0 view .LVU4015
	bl	find_cf_cfg
.LVL516:
	.loc 1 677 2 is_stmt 1 view .LVU4016
	.loc 1 677 5 is_stmt 0 view .LVU4017
	mov	r4, r0
	cbnz	r0, .L370
	.loc 1 678 3 is_stmt 1 view .LVU4018
.LBB3192:
	.loc 1 678 8 view .LVU4019
	.loc 1 678 57 view .LVU4020
	.loc 1 678 14 view .LVU4021
	.loc 1 678 2 view .LVU4022
.LVL517:
	.loc 1 678 41 view .LVU4023
	.loc 1 678 176 view .LVU4024
	.loc 1 678 187 view .LVU4025
	.loc 1 678 275 view .LVU4026
	.loc 1 678 3 view .LVU4027
	.loc 1 678 3 view .LVU4028
.LBB3193:
	.loc 1 678 8 view .LVU4029
	.loc 1 678 2 view .LVU4030
.LBE3193:
.LBE3192:
	.loc 1 678 3 view .LVU4031
	.loc 1 678 12 view .LVU4032
	.loc 1 678 107 view .LVU4033
	.loc 1 678 3 view .LVU4034
.LBB3214:
.LBB3209:
	.loc 1 678 12 view .LVU4035
	.loc 1 678 102 view .LVU4036
	.loc 1 678 104 view .LVU4037
.LBB3194:
	.loc 1 678 109 view .LVU4038
	.loc 1 678 120 view .LVU4039
	.loc 1 678 209 view .LVU4040
	.loc 1 678 26 view .LVU4041
.LBE3194:
.LBE3209:
.LBE3214:
	.loc 1 678 3 view .LVU4042
	.loc 1 678 368 view .LVU4043
	.loc 1 678 75 view .LVU4044
	.loc 1 678 2 view .LVU4045
	.loc 1 678 2 view .LVU4046
	.loc 1 678 2 view .LVU4047
	.loc 1 678 38 view .LVU4048
	.loc 1 678 4 view .LVU4049
	.loc 1 678 30 view .LVU4050
	.loc 1 678 56 view .LVU4051
	.loc 1 678 79 view .LVU4052
	.loc 1 678 141 view .LVU4053
	.loc 1 678 198 view .LVU4054
	.loc 1 678 263 view .LVU4055
	.loc 1 678 288 view .LVU4056
	.loc 1 678 289 view .LVU4057
	.loc 1 678 291 view .LVU4058
	.loc 1 678 321 view .LVU4059
	.loc 1 678 351 view .LVU4060
	.loc 1 678 383 view .LVU4061
	.loc 1 678 415 view .LVU4062
	.loc 1 678 447 view .LVU4063
	.loc 1 678 644 view .LVU4064
	.loc 1 678 668 view .LVU4065
	.loc 1 678 669 view .LVU4066
	.loc 1 678 671 view .LVU4067
	.loc 1 678 700 view .LVU4068
	.loc 1 678 729 view .LVU4069
	.loc 1 678 760 view .LVU4070
	.loc 1 678 791 view .LVU4071
	.loc 1 678 822 view .LVU4072
	.loc 1 678 1029 view .LVU4073
	.loc 1 678 4 view .LVU4074
	.loc 1 678 22 view .LVU4075
	.loc 1 678 42 view .LVU4076
	.loc 1 678 4 view .LVU4077
	.loc 1 678 42 view .LVU4078
	.loc 1 678 13 view .LVU4079
	.loc 1 678 13 view .LVU4080
	.loc 1 678 61 view .LVU4081
	.loc 1 678 92 view .LVU4082
	.loc 1 678 126 view .LVU4083
	.loc 1 678 131 view .LVU4084
	.loc 1 678 398 view .LVU4085
	.loc 1 678 1519 view .LVU4086
	.loc 1 678 1584 view .LVU4087
	.loc 1 678 1608 view .LVU4088
	.loc 1 678 1679 view .LVU4089
	.loc 1 678 1690 view .LVU4090
	.loc 1 678 1819 view .LVU4091
	.loc 1 678 1835 view .LVU4092
	.loc 1 678 1875 view .LVU4093
	.loc 1 678 1900 view .LVU4094
	.loc 1 678 3223 view .LVU4095
	.loc 1 678 3264 view .LVU4096
	.loc 1 678 7 view .LVU4097
	.loc 1 678 30 view .LVU4098
	.loc 1 678 129 view .LVU4099
	.loc 1 678 5 view .LVU4100
	.loc 1 678 28 view .LVU4101
	.loc 1 678 52 view .LVU4102
	.loc 1 678 80 view .LVU4103
	.loc 1 678 256 view .LVU4104
	.loc 1 678 16 view .LVU4105
.LBB3215:
.LBB3210:
.LBB3205:
	.loc 1 678 29 view .LVU4106
	.loc 1 678 3 view .LVU4107
	.loc 1 678 3 view .LVU4108
	.loc 1 678 70 view .LVU4109
	.loc 1 678 74 view .LVU4110
	.loc 1 678 484 view .LVU4111
	.loc 1 678 5 view .LVU4112
	.loc 1 678 7 view .LVU4113
	.loc 1 678 12 view .LVU4114
	.loc 1 678 10 view .LVU4115
	.loc 1 678 5 view .LVU4116
	.loc 1 678 23 view .LVU4117
.LBB3195:
	.loc 1 678 3 view .LVU4118
	.loc 1 678 368 view .LVU4119
	.loc 1 678 75 view .LVU4120
.LVL518:
	.loc 1 678 2 view .LVU4121
	.loc 1 678 2 view .LVU4122
	.loc 1 678 2 view .LVU4123
	.loc 1 678 38 view .LVU4124
	.loc 1 678 67 view .LVU4125
	.loc 1 678 93 view .LVU4126
	.loc 1 678 119 view .LVU4127
	.loc 1 678 142 view .LVU4128
	.loc 1 678 204 view .LVU4129
	.loc 1 678 261 view .LVU4130
	.loc 1 678 326 view .LVU4131
	.loc 1 678 351 view .LVU4132
	.loc 1 678 352 view .LVU4133
	.loc 1 678 354 view .LVU4134
	.loc 1 678 384 view .LVU4135
	.loc 1 678 414 view .LVU4136
	.loc 1 678 446 view .LVU4137
	.loc 1 678 478 view .LVU4138
	.loc 1 678 510 view .LVU4139
	.loc 1 678 707 view .LVU4140
	.loc 1 678 731 view .LVU4141
	.loc 1 678 732 view .LVU4142
	.loc 1 678 734 view .LVU4143
	.loc 1 678 763 view .LVU4144
	.loc 1 678 792 view .LVU4145
	.loc 1 678 823 view .LVU4146
	.loc 1 678 854 view .LVU4147
	.loc 1 678 885 view .LVU4148
	.loc 1 678 1092 view .LVU4149
	.loc 1 678 4 view .LVU4150
	.loc 1 678 22 view .LVU4151
	.loc 1 678 42 view .LVU4152
	.loc 1 678 4 view .LVU4153
	.loc 1 678 42 view .LVU4154
	.loc 1 678 13 view .LVU4155
	.loc 1 678 13 view .LVU4156
	.loc 1 678 61 view .LVU4157
	.loc 1 678 92 view .LVU4158
	.loc 1 678 126 view .LVU4159
.LBB3196:
	.loc 1 678 131 view .LVU4160
	.loc 1 678 398 view .LVU4161
	.loc 1 678 1519 view .LVU4162
	.loc 1 678 1584 view .LVU4163
.LBE3196:
.LBE3195:
.LBE3205:
.LBE3210:
.LBE3215:
	.loc 1 678 1608 view .LVU4164
	.loc 1 678 1679 view .LVU4165
	.loc 1 678 1690 view .LVU4166
	.loc 1 678 1819 view .LVU4167
.LBB3216:
.LBB3211:
.LBB3206:
.LBB3201:
.LBB3197:
	.loc 1 678 1835 view .LVU4168
	.loc 1 678 1875 view .LVU4169
	.loc 1 678 1900 view .LVU4170
	.loc 1 678 3223 view .LVU4171
	.loc 1 678 3261 view .LVU4172
	.loc 1 678 3266 view .LVU4173
	.loc 1 678 3962 view .LVU4174
	.loc 1 678 0 is_stmt 0 view .LVU4175
	ldr	r3, .L384
	str	r3, [sp, #20]
	.loc 1 678 3264 is_stmt 1 view .LVU4176
	.loc 1 678 7 view .LVU4177
.LVL519:
	.loc 1 678 30 view .LVU4178
	.loc 1 678 30 is_stmt 0 view .LVU4179
.LBE3197:
	.loc 1 678 129 is_stmt 1 view .LVU4180
	.loc 1 678 5 view .LVU4181
	.loc 1 678 28 view .LVU4182
	.loc 1 678 52 view .LVU4183
	.loc 1 678 80 view .LVU4184
.LBE3201:
.LBE3206:
.LBE3211:
.LBE3216:
	.loc 1 678 6 view .LVU4185
	.loc 1 678 45 view .LVU4186
	.loc 1 678 50 view .LVU4187
	.loc 1 678 80 view .LVU4188
	.loc 1 678 147 view .LVU4189
	.loc 1 678 152 view .LVU4190
	.loc 1 678 182 view .LVU4191
.LBB3217:
.LBB3212:
.LBB3207:
.LBB3202:
	.loc 1 678 256 view .LVU4192
	.loc 1 678 16 view .LVU4193
.LBB3198:
	.loc 1 678 6 view .LVU4194
	.loc 1 678 164 view .LVU4195
	.loc 1 678 166 view .LVU4196
.LBE3198:
.LBE3202:
	.loc 1 678 149 is_stmt 0 view .LVU4197
	ldr	r0, .L384+4
.LVL520:
.LBB3203:
.LBB3199:
	.loc 1 678 176 view .LVU4198
	movs	r3, #2
.LBE3199:
.LBE3203:
	.loc 1 678 149 view .LVU4199
	add	r2, sp, #16
.LVL521:
	.loc 1 678 149 view .LVU4200
	mov	r1, #4224
.LBE3207:
.LBE3212:
.LBE3217:
	.loc 1 679 10 view .LVU4201
	mvn	r5, #16
.LBB3218:
.LBB3213:
.LBB3208:
.LBB3204:
.LBB3200:
	.loc 1 678 176 view .LVU4202
	str	r3, [sp, #16]
.LVL522:
	.loc 1 678 176 view .LVU4203
.LBE3200:
.LBE3204:
	.loc 1 678 26 is_stmt 1 view .LVU4204
	.loc 1 678 7 view .LVU4205
	.loc 1 678 147 view .LVU4206
	.loc 1 678 149 view .LVU4207
	bl	z_log_msg_static_create.constprop.0
.LVL523:
	.loc 1 678 149 is_stmt 0 view .LVU4208
.LBE3208:
	.loc 1 678 107 is_stmt 1 view .LVU4209
	.loc 1 678 5 view .LVU4210
.LVL524:
	.loc 1 678 42 view .LVU4211
.LBE3213:
	.loc 1 678 6 view .LVU4212
	.loc 1 678 278 view .LVU4213
	.loc 1 678 5 view .LVU4214
	.loc 1 678 18 view .LVU4215
.LBE3218:
	.loc 1 678 6 view .LVU4216
	.loc 1 679 3 view .LVU4217
.L368:
	.loc 1 693 1 is_stmt 0 view .LVU4218
	mov	r0, r5
	add	sp, sp, #24
	.cfi_remember_state
	.cfi_def_cfa_offset 24
	@ sp needed
	pop	{r4, r5, r6, r7, r8, pc}
.LVL525:
.L370:
	.cfi_restore_state
	.loc 1 682 2 is_stmt 1 discriminator 385 view .LVU4219
.LBB3219:
	.loc 1 682 7 discriminator 385 view .LVU4220
.LBE3219:
	.loc 1 682 5 discriminator 385 view .LVU4221
	.loc 1 684 2 discriminator 385 view .LVU4222
.LBB3220:
.LBI3220:
	.loc 1 631 12 discriminator 385 view .LVU4223
.LBB3221:
	.loc 1 633 2 discriminator 385 view .LVU4224
	.loc 1 636 2 discriminator 385 view .LVU4225
	.loc 1 636 22 discriminator 385 view .LVU4226
	cbz	r7, .L371
	.loc 1 637 17 is_stmt 0 view .LVU4227
	ldrb	r1, [r4, #8]	@ zero_extendqisi2
	.loc 1 638 14 view .LVU4228
	ldrb	r2, [r8]	@ zero_extendqisi2
	movs	r3, #0
.LVL526:
.L373:
	.loc 1 637 3 is_stmt 1 view .LVU4229
	.loc 1 637 7 is_stmt 0 view .LVU4230
	lsr	r0, r1, r3
	.loc 1 637 6 view .LVU4231
	lsls	r7, r0, #31
	bpl	.L372
	.loc 1 638 7 view .LVU4232
	lsr	r0, r2, r3
	.loc 1 637 45 view .LVU4233
	lsls	r0, r0, #31
	bpl	.L376
.L372:
	.loc 1 636 41 is_stmt 1 view .LVU4234
.LVL527:
	.loc 1 636 22 view .LVU4235
	adds	r3, r3, #1
.LVL528:
	.loc 1 636 22 is_stmt 0 view .LVU4236
	cmp	r3, #3
	bne	.L373
.LVL529:
	.loc 1 645 23 is_stmt 1 view .LVU4237
	.loc 1 646 3 view .LVU4238
	.loc 1 647 4 view .LVU4239
	.loc 1 647 29 is_stmt 0 view .LVU4240
	and	r2, r2, #7
	.loc 1 647 17 view .LVU4241
	orrs	r1, r1, r2
	strb	r1, [r4, #8]
	.loc 1 652 3 is_stmt 1 view .LVU4242
.LBB3222:
	.loc 1 652 8 view .LVU4243
.LBE3222:
	.loc 1 652 6 view .LVU4244
	.loc 1 645 46 view .LVU4245
.LVL530:
	.loc 1 645 23 view .LVU4246
.L371:
	.loc 1 645 23 is_stmt 0 view .LVU4247
.LBE3221:
.LBE3220:
	.loc 1 688 2 is_stmt 1 view .LVU4248
	add	r1, r6, #136
	adds	r0, r4, #1
	bl	bt_addr_le_copy
.LVL531:
	.loc 1 689 2 view .LVU4249
	.loc 1 689 16 is_stmt 0 view .LVU4250
	ldrb	r3, [r6, #8]	@ zero_extendqisi2
	.loc 1 689 10 view .LVU4251
	strb	r3, [r4]
	.loc 1 690 2 is_stmt 1 view .LVU4252
	movs	r1, #1
	mov	r0, r4
	bl	set_change_aware
.LVL532:
	.loc 1 692 2 view .LVU4253
	.loc 1 692 9 is_stmt 0 view .LVU4254
	b	.L368
.LVL533:
.L374:
	.loc 1 665 10 view .LVU4255
	mvn	r5, #6
	b	.L368
.L375:
	.loc 1 669 10 view .LVU4256
	mvn	r5, #12
	b	.L368
.LVL534:
.L376:
	.loc 1 685 10 view .LVU4257
	mvn	r5, #18
.LVL535:
	.loc 1 685 10 view .LVU4258
	b	.L368
.L385:
	.align	2
.L384:
	.word	.LC13
	.word	log_const_bt_gatt
	.cfi_endproc
.LFE619:
	.size	cf_write, .-cf_write
	.section	.text.sc_indicate_rsp,"ax",%progbits
	.align	1
	.syntax unified
	.thumb
	.thumb_func
	.type	sc_indicate_rsp, %function
sc_indicate_rsp:
.LVL536:
.LFB632:
	.loc 1 1249 1 is_stmt 1 view -0
	.cfi_startproc
	@ args = 0, pretend = 0, frame = 0
	@ frame_needed = 0, uses_anonymous_args = 0
	.loc 1 1251 2 view .LVU4260
	.loc 1 1254 2 view .LVU4261
.LBB3245:
	.loc 1 1254 7 view .LVU4262
.LBE3245:
	.loc 1 1254 5 view .LVU4263
	.loc 1 1256 2 view .LVU4264
.LBB3246:
.LBI3246:
	.loc 5 198 20 view .LVU4265
.LBB3247:
	.loc 5 200 2 view .LVU4266
	.loc 5 202 2 view .LVU4267
.LBE3247:
.LBE3246:
	.loc 1 1249 1 is_stmt 0 view .LVU4268
	push	{r4, lr}
	.cfi_def_cfa_offset 8
	.cfi_offset 4, -8
	.cfi_offset 14, -4
.LBB3250:
.LBB3248:
	.loc 5 202 8 view .LVU4269
	mvn	r1, #2
.LVL537:
	.loc 5 202 8 view .LVU4270
.LBE3248:
.LBE3250:
	.loc 1 1249 1 view .LVU4271
	mov	r4, r0
.LBB3251:
.LBB3249:
	.loc 5 202 8 view .LVU4272
	ldr	r0, .L400
.LVL538:
	.loc 5 202 8 view .LVU4273
	bl	atomic_and
.LVL539:
	.loc 5 202 8 view .LVU4274
.LBE3249:
.LBE3251:
	.loc 1 1259 2 is_stmt 1 view .LVU4275
.LBB3252:
.LBI3252:
	.loc 5 131 19 view .LVU4276
.LBB3253:
	.loc 5 133 2 view .LVU4277
	.loc 5 133 21 is_stmt 0 view .LVU4278
	ldr	r0, .L400
.LVL540:
	.loc 5 133 21 view .LVU4279
	bl	atomic_get
.LVL541:
	.loc 5 135 2 is_stmt 1 view .LVU4280
	.loc 5 135 2 is_stmt 0 view .LVU4281
.LBE3253:
.LBE3252:
	.loc 1 1259 5 view .LVU4282
	lsls	r2, r0, #31
	bpl	.L387
.LBB3254:
	.loc 1 1261 3 is_stmt 1 view .LVU4283
.LBB3255:
.LBI3255:
	.loc 1 1239 20 view .LVU4284
.LBB3256:
	.loc 1 1242 2 view .LVU4285
	ldr	r0, .L400+4
	movs	r2, #0
	movs	r3, #0
	bl	k_work_reschedule
.LVL542:
.L387:
.LBE3256:
.LBE3255:
.LBE3254:
	.loc 1 1272 2 view .LVU4286
	.loc 1 1272 6 is_stmt 0 view .LVU4287
	mov	r0, r4
	bl	bt_att_fixed_chan_only
.LVL543:
	.loc 1 1272 5 view .LVU4288
	cbz	r0, .L386
.LVL544:
.LBB3257:
.LBI3257:
	.loc 1 1247 13 is_stmt 1 view .LVU4289
.LBB3258:
	.loc 1 1273 3 view .LVU4290
	.loc 1 1273 9 is_stmt 0 view .LVU4291
	mov	r0, r4
	bl	find_cf_cfg
.LVL545:
	.loc 1 1274 3 is_stmt 1 view .LVU4292
	.loc 1 1274 6 is_stmt 0 view .LVU4293
	cbz	r0, .L386
	.loc 1 1274 11 view .LVU4294
	ldrb	r3, [r0, #8]	@ zero_extendqisi2
	lsls	r3, r3, #31
	bpl	.L386
	.loc 1 1275 4 is_stmt 1 view .LVU4295
.LBE3258:
.LBE3257:
	.loc 1 1279 1 is_stmt 0 view .LVU4296
	pop	{r4, lr}
	.cfi_remember_state
	.cfi_restore 14
	.cfi_restore 4
	.cfi_def_cfa_offset 0
.LVL546:
.LBB3260:
.LBB3259:
	.loc 1 1275 4 view .LVU4297
	movs	r1, #1
	b	set_change_aware
.LVL547:
.L386:
	.cfi_restore_state
	.loc 1 1275 4 view .LVU4298
.LBE3259:
.LBE3260:
	.loc 1 1279 1 view .LVU4299
	pop	{r4, pc}
.LVL548:
.L401:
	.loc 1 1279 1 view .LVU4300
	.align	2
.L400:
	.word	gatt_sc+80
	.word	gatt_sc+32
	.cfi_endproc
.LFE632:
	.size	sc_indicate_rsp, .-sc_indicate_rsp
	.section	.text.sc_restore_rsp,"ax",%progbits
	.align	1
	.syntax unified
	.thumb
	.thumb_func
	.type	sc_restore_rsp, %function
sc_restore_rsp:
.LVL549:
.LFB676:
	.loc 1 3139 1 is_stmt 1 view -0
	.cfi_startproc
	@ args = 0, pretend = 0, frame = 0
	@ frame_needed = 0, uses_anonymous_args = 0
	.loc 1 3141 2 view .LVU4302
	.loc 1 3144 2 view .LVU4303
.LBB3281:
	.loc 1 3144 7 view .LVU4304
.LBE3281:
	.loc 1 3144 5 view .LVU4305
	.loc 1 3155 2 view .LVU4306
	.loc 1 3139 1 is_stmt 0 view .LVU4307
	push	{r3, r4, r5, lr}
	.cfi_def_cfa_offset 16
	.cfi_offset 3, -16
	.cfi_offset 4, -12
	.cfi_offset 5, -8
	.cfi_offset 14, -4
	.loc 1 3139 1 view .LVU4308
	mov	r4, r0
	mov	r5, r2
	.loc 1 3155 6 view .LVU4309
	bl	bt_att_fixed_chan_only
.LVL550:
	.loc 1 3155 5 view .LVU4310
	cbz	r0, .L404
	.loc 1 3156 3 is_stmt 1 view .LVU4311
	.loc 1 3156 9 is_stmt 0 view .LVU4312
	mov	r0, r4
	bl	find_cf_cfg
.LVL551:
	.loc 1 3157 3 is_stmt 1 view .LVU4313
	.loc 1 3157 6 is_stmt 0 view .LVU4314
	cbz	r0, .L404
	.loc 1 3157 11 discriminator 1 view .LVU4315
	ldrb	r3, [r0, #8]	@ zero_extendqisi2
	lsls	r3, r3, #31
	bpl	.L404
	.loc 1 3158 4 is_stmt 1 view .LVU4316
	movs	r1, #1
	bl	set_change_aware
.LVL552:
.L404:
	.loc 1 3163 2 view .LVU4317
	.loc 1 3163 5 is_stmt 0 view .LVU4318
	cbnz	r5, .L402
.LVL553:
.LBB3282:
.LBI3282:
	.loc 1 3137 13 is_stmt 1 view .LVU4319
.LBB3283:
.LBB3284:
	.loc 1 3164 3 view .LVU4320
	.loc 1 3164 33 is_stmt 0 view .LVU4321
	ldrb	r0, [r4, #8]	@ zero_extendqisi2
	add	r1, r4, #136
	bl	find_sc_cfg
.LVL554:
	.loc 1 3166 3 is_stmt 1 view .LVU4322
	.loc 1 3166 6 is_stmt 0 view .LVU4323
	cbz	r0, .L402
	.loc 1 3167 4 is_stmt 1 view .LVU4324
.LVL555:
.LBB3285:
.LBI3285:
	.loc 1 397 13 view .LVU4325
.LBB3286:
	.loc 1 399 2 view .LVU4326
.LBB3287:
	.loc 1 399 7 view .LVU4327
.LBE3287:
	.loc 1 399 5 view .LVU4328
	.loc 1 401 1 view .LVU4329
.LBB3288:
.LBI3288:
	.loc 4 86 189 view .LVU4330
.LBB3289:
	.loc 4 86 238 view .LVU4331
	.loc 4 86 245 is_stmt 0 view .LVU4332
	str	r5, [r0, #8]	@ unaligned
.LVL556:
	.loc 4 86 245 view .LVU4333
.LBE3289:
.LBE3288:
	.loc 1 403 2 is_stmt 1 view .LVU4334
	.loc 1 404 3 view .LVU4335
.LBE3286:
.LBE3285:
.LBE3284:
.LBE3283:
.LBE3282:
	.loc 1 3170 1 is_stmt 0 view .LVU4336
	pop	{r3, r4, r5, lr}
	.cfi_remember_state
	.cfi_restore 14
	.cfi_restore 5
	.cfi_restore 4
	.cfi_restore 3
	.cfi_def_cfa_offset 0
.LVL557:
.LBB3294:
.LBB3293:
.LBB3292:
.LBB3291:
.LBB3290:
	.loc 1 404 3 view .LVU4337
	b	sc_store
.LVL558:
.L402:
	.cfi_restore_state
	.loc 1 404 3 view .LVU4338
.LBE3290:
.LBE3291:
.LBE3292:
.LBE3293:
.LBE3294:
	.loc 1 3170 1 view .LVU4339
	pop	{r3, r4, r5, pc}
	.loc 1 3170 1 view .LVU4340
	.cfi_endproc
.LFE676:
	.size	sc_restore_rsp, .-sc_restore_rsp
	.section	.rodata.cf_set.str1.1,"aMS",%progbits,1
.LC14:
	.ascii	"Unable to restore CF: no cfg left\000"
.LC15:
	.ascii	"Change-aware status not found in settings, defaulti"
	.ascii	"ng peer status to change-unaware\000"
.LC16:
	.ascii	"Read back bad change-aware value: 0x%x, defaulting "
	.ascii	"peer status to change-unaware\000"
	.section	.text.cf_set,"ax",%progbits
	.align	1
	.syntax unified
	.thumb
	.thumb_func
	.type	cf_set, %function
cf_set:
.LVL559:
.LFB699:
	.loc 1 6007 1 is_stmt 1 view -0
	.cfi_startproc
	@ args = 0, pretend = 0, frame = 40
	@ frame_needed = 1, uses_anonymous_args = 0
	.loc 1 6008 2 view .LVU4342
	.loc 1 6009 2 view .LVU4343
	.loc 1 6010 2 view .LVU4344
	.loc 1 6011 2 view .LVU4345
	.loc 1 6012 2 view .LVU4346
	.loc 1 6013 2 view .LVU4347
	.loc 1 6015 2 view .LVU4348
	.loc 1 6007 1 is_stmt 0 view .LVU4349
	push	{r4, r5, r6, r7, r8, r9, lr}
	.cfi_def_cfa_offset 28
	.cfi_offset 4, -28
	.cfi_offset 5, -24
	.cfi_offset 6, -20
	.cfi_offset 7, -16
	.cfi_offset 8, -12
	.cfi_offset 9, -8
	.cfi_offset 14, -4
	sub	sp, sp, #44
	.cfi_def_cfa_offset 72
	mov	r9, r1
	add	r7, sp, #0
	.cfi_def_cfa_register 7
	.loc 1 6007 1 view .LVU4350
	mov	r6, r2
	mov	r8, r3
	.loc 1 6015 5 view .LVU4351
	mov	r4, r0
	cbnz	r0, .L417
	.loc 1 6016 3 is_stmt 1 view .LVU4352
.LBB3295:
	.loc 1 6016 8 view .LVU4353
	.loc 1 6016 57 view .LVU4354
	.loc 1 6016 14 view .LVU4355
	.loc 1 6016 2 view .LVU4356
.LVL560:
	.loc 1 6016 41 view .LVU4357
	.loc 1 6016 176 view .LVU4358
	.loc 1 6016 187 view .LVU4359
	.loc 1 6016 275 view .LVU4360
	.loc 1 6016 3 view .LVU4361
	.loc 1 6016 3 view .LVU4362
.LBB3296:
	.loc 1 6016 8 view .LVU4363
	.loc 1 6016 2 view .LVU4364
.LBE3296:
.LBE3295:
	.loc 1 6016 3 view .LVU4365
	.loc 1 6016 12 view .LVU4366
	.loc 1 6016 107 view .LVU4367
	.loc 1 6016 3 view .LVU4368
.LBB3313:
.LBB3309:
	.loc 1 6016 12 view .LVU4369
	.loc 1 6016 102 view .LVU4370
	.loc 1 6016 104 view .LVU4371
.LBB3297:
	.loc 1 6016 109 view .LVU4372
	.loc 1 6016 120 view .LVU4373
	.loc 1 6016 209 view .LVU4374
	.loc 1 6016 26 view .LVU4375
.LBE3297:
.LBE3309:
.LBE3313:
	.loc 1 6016 3 view .LVU4376
	.loc 1 6016 368 view .LVU4377
	.loc 1 6016 75 view .LVU4378
	.loc 1 6016 2 view .LVU4379
	.loc 1 6016 2 view .LVU4380
	.loc 1 6016 2 view .LVU4381
	.loc 1 6016 38 view .LVU4382
	.loc 1 6016 4 view .LVU4383
	.loc 1 6016 30 view .LVU4384
	.loc 1 6016 56 view .LVU4385
	.loc 1 6016 79 view .LVU4386
	.loc 1 6016 141 view .LVU4387
	.loc 1 6016 198 view .LVU4388
	.loc 1 6016 263 view .LVU4389
	.loc 1 6016 288 view .LVU4390
	.loc 1 6016 289 view .LVU4391
	.loc 1 6016 291 view .LVU4392
	.loc 1 6016 321 view .LVU4393
	.loc 1 6016 351 view .LVU4394
	.loc 1 6016 383 view .LVU4395
	.loc 1 6016 415 view .LVU4396
	.loc 1 6016 447 view .LVU4397
	.loc 1 6016 644 view .LVU4398
	.loc 1 6016 668 view .LVU4399
	.loc 1 6016 669 view .LVU4400
	.loc 1 6016 671 view .LVU4401
	.loc 1 6016 700 view .LVU4402
	.loc 1 6016 729 view .LVU4403
	.loc 1 6016 760 view .LVU4404
	.loc 1 6016 791 view .LVU4405
	.loc 1 6016 822 view .LVU4406
	.loc 1 6016 1029 view .LVU4407
	.loc 1 6016 4 view .LVU4408
	.loc 1 6016 22 view .LVU4409
	.loc 1 6016 42 view .LVU4410
	.loc 1 6016 4 view .LVU4411
	.loc 1 6016 42 view .LVU4412
	.loc 1 6016 13 view .LVU4413
	.loc 1 6016 13 view .LVU4414
	.loc 1 6016 61 view .LVU4415
	.loc 1 6016 92 view .LVU4416
	.loc 1 6016 126 view .LVU4417
	.loc 1 6016 131 view .LVU4418
	.loc 1 6016 387 view .LVU4419
	.loc 1 6016 1464 view .LVU4420
	.loc 1 6016 1529 view .LVU4421
	.loc 1 6016 1553 view .LVU4422
	.loc 1 6016 1613 view .LVU4423
	.loc 1 6016 1624 view .LVU4424
	.loc 1 6016 1742 view .LVU4425
	.loc 1 6016 1758 view .LVU4426
	.loc 1 6016 1798 view .LVU4427
	.loc 1 6016 1823 view .LVU4428
	.loc 1 6016 3124 view .LVU4429
	.loc 1 6016 3165 view .LVU4430
	.loc 1 6016 7 view .LVU4431
	.loc 1 6016 30 view .LVU4432
	.loc 1 6016 129 view .LVU4433
	.loc 1 6016 5 view .LVU4434
	.loc 1 6016 28 view .LVU4435
	.loc 1 6016 52 view .LVU4436
	.loc 1 6016 80 view .LVU4437
	.loc 1 6016 256 view .LVU4438
	.loc 1 6016 16 view .LVU4439
.LBB3314:
.LBB3310:
.LBB3306:
	.loc 1 6016 29 view .LVU4440
	.loc 1 6016 3 view .LVU4441
	.loc 1 6016 3 view .LVU4442
	.loc 1 6016 70 view .LVU4443
	.loc 1 6016 74 view .LVU4444
	.loc 1 6016 484 view .LVU4445
	.loc 1 6016 5 view .LVU4446
	.loc 1 6016 7 view .LVU4447
	.loc 1 6016 12 view .LVU4448
	.loc 1 6016 10 view .LVU4449
	.loc 1 6016 5 view .LVU4450
	.loc 1 6016 23 view .LVU4451
.LBB3298:
	.loc 1 6016 3 view .LVU4452
	.loc 1 6016 368 view .LVU4453
	.loc 1 6016 75 view .LVU4454
.LVL561:
	.loc 1 6016 2 view .LVU4455
	.loc 1 6016 2 view .LVU4456
	.loc 1 6016 2 view .LVU4457
	.loc 1 6016 38 view .LVU4458
	.loc 1 6016 67 view .LVU4459
	.loc 1 6016 93 view .LVU4460
	.loc 1 6016 119 view .LVU4461
	.loc 1 6016 142 view .LVU4462
	.loc 1 6016 204 view .LVU4463
	.loc 1 6016 261 view .LVU4464
	.loc 1 6016 326 view .LVU4465
	.loc 1 6016 351 view .LVU4466
	.loc 1 6016 352 view .LVU4467
	.loc 1 6016 354 view .LVU4468
	.loc 1 6016 384 view .LVU4469
	.loc 1 6016 414 view .LVU4470
	.loc 1 6016 446 view .LVU4471
	.loc 1 6016 478 view .LVU4472
	.loc 1 6016 510 view .LVU4473
	.loc 1 6016 707 view .LVU4474
	.loc 1 6016 731 view .LVU4475
	.loc 1 6016 732 view .LVU4476
	.loc 1 6016 734 view .LVU4477
	.loc 1 6016 763 view .LVU4478
	.loc 1 6016 792 view .LVU4479
	.loc 1 6016 823 view .LVU4480
	.loc 1 6016 854 view .LVU4481
	.loc 1 6016 885 view .LVU4482
	.loc 1 6016 1092 view .LVU4483
	.loc 1 6016 4 view .LVU4484
	.loc 1 6016 22 view .LVU4485
	.loc 1 6016 42 view .LVU4486
	.loc 1 6016 4 view .LVU4487
	.loc 1 6016 42 view .LVU4488
	.loc 1 6016 13 view .LVU4489
	.loc 1 6016 13 view .LVU4490
	.loc 1 6016 61 view .LVU4491
	.loc 1 6016 92 view .LVU4492
	.loc 1 6016 126 view .LVU4493
.LBB3299:
	.loc 1 6016 131 view .LVU4494
	.loc 1 6016 387 view .LVU4495
	.loc 1 6016 1464 view .LVU4496
	.loc 1 6016 1529 view .LVU4497
.LBE3299:
.LBE3298:
.LBE3306:
.LBE3310:
.LBE3314:
	.loc 1 6016 1553 view .LVU4498
	.loc 1 6016 1613 view .LVU4499
	.loc 1 6016 1624 view .LVU4500
	.loc 1 6016 1742 view .LVU4501
.LBB3315:
.LBB3311:
.LBB3307:
.LBB3303:
.LBB3300:
	.loc 1 6016 1758 view .LVU4502
	.loc 1 6016 1798 view .LVU4503
	.loc 1 6016 1823 view .LVU4504
	.loc 1 6016 3124 view .LVU4505
	.loc 1 6016 3162 view .LVU4506
	.loc 1 6016 3167 view .LVU4507
	.loc 1 6016 3797 view .LVU4508
	.loc 1 6016 0 is_stmt 0 view .LVU4509
	ldr	r3, .L437
.LVL562:
	.loc 1 6016 0 view .LVU4510
	str	r3, [r7, #36]
	.loc 1 6016 3165 is_stmt 1 view .LVU4511
	.loc 1 6016 7 view .LVU4512
.LVL563:
	.loc 1 6016 30 view .LVU4513
	.loc 1 6016 30 is_stmt 0 view .LVU4514
.LBE3300:
	.loc 1 6016 129 is_stmt 1 view .LVU4515
	.loc 1 6016 5 view .LVU4516
	.loc 1 6016 28 view .LVU4517
	.loc 1 6016 52 view .LVU4518
	.loc 1 6016 80 view .LVU4519
.LBE3303:
.LBE3307:
.LBE3311:
.LBE3315:
	.loc 1 6016 6 view .LVU4520
	.loc 1 6016 45 view .LVU4521
	.loc 1 6016 50 view .LVU4522
	.loc 1 6016 80 view .LVU4523
	.loc 1 6016 147 view .LVU4524
	.loc 1 6016 152 view .LVU4525
	.loc 1 6016 182 view .LVU4526
.LBB3316:
.LBB3312:
.LBB3308:
.LBB3304:
	.loc 1 6016 256 view .LVU4527
	.loc 1 6016 16 view .LVU4528
.LBB3301:
	.loc 1 6016 6 view .LVU4529
	.loc 1 6016 164 view .LVU4530
	.loc 1 6016 166 view .LVU4531
	.loc 1 6016 176 is_stmt 0 view .LVU4532
	movs	r3, #2
.LBE3301:
.LBE3304:
	.loc 1 6016 149 view .LVU4533
	ldr	r0, .L437+4
.LVL564:
.LBB3305:
.LBB3302:
	.loc 1 6016 176 view .LVU4534
	str	r3, [r7, #32]
.LVL565:
	.loc 1 6016 176 view .LVU4535
.LBE3302:
.LBE3305:
	.loc 1 6016 26 is_stmt 1 view .LVU4536
	.loc 1 6016 7 view .LVU4537
	.loc 1 6016 147 view .LVU4538
	.loc 1 6016 149 view .LVU4539
	add	r2, r7, #32
.LVL566:
	.loc 1 6016 149 is_stmt 0 view .LVU4540
	mov	r1, #4160
.LVL567:
	.loc 1 6016 149 view .LVU4541
	bl	z_log_msg_static_create.constprop.0
.LVL568:
	.loc 1 6016 149 view .LVU4542
.LBE3308:
	.loc 1 6016 107 is_stmt 1 view .LVU4543
	.loc 1 6016 5 view .LVU4544
.LVL569:
	.loc 1 6016 42 view .LVU4545
.LBE3312:
	.loc 1 6016 6 view .LVU4546
	.loc 1 6016 278 view .LVU4547
	.loc 1 6016 5 view .LVU4548
	.loc 1 6016 18 view .LVU4549
.LBE3316:
	.loc 1 6016 6 view .LVU4550
	.loc 1 6017 3 view .LVU4551
.L418:
	.loc 1 6017 10 is_stmt 0 view .LVU4552
	mvn	r5, #21
.LVL570:
.L416:
	.loc 1 6089 1 view .LVU4553
	mov	r0, r5
	adds	r7, r7, #44
	.cfi_remember_state
	.cfi_def_cfa_offset 28
	mov	sp, r7
	.cfi_def_cfa_register 13
	@ sp needed
	pop	{r4, r5, r6, r7, r8, r9, pc}
.LVL571:
.L417:
	.cfi_restore_state
	.loc 1 6020 2 is_stmt 1 view .LVU4554
	.loc 1 6020 8 is_stmt 0 view .LVU4555
	add	r1, r7, #8
.LVL572:
	.loc 1 6020 8 view .LVU4556
	bl	bt_settings_decode_key
.LVL573:
	.loc 1 6021 2 is_stmt 1 view .LVU4557
	.loc 1 6021 5 is_stmt 0 view .LVU4558
	mov	r5, r0
	cbz	r0, .L419
	.loc 1 6022 3 is_stmt 1 view .LVU4559
.LBB3317:
	.loc 1 6022 8 view .LVU4560
	.loc 1 6022 57 view .LVU4561
	.loc 1 6022 14 view .LVU4562
	.loc 1 6022 2 view .LVU4563
.LVL574:
	.loc 1 6022 41 view .LVU4564
	.loc 1 6022 176 view .LVU4565
	.loc 1 6022 187 view .LVU4566
	.loc 1 6022 275 view .LVU4567
.LBB3318:
	.loc 1 6022 3 view .LVU4568
	.loc 1 6022 5 view .LVU4569
	.loc 1 6022 3 view .LVU4570
.LBB3319:
	.loc 1 6022 8 view .LVU4571
	.loc 1 6022 2 view .LVU4572
.LBE3319:
.LBE3318:
.LBE3317:
	.loc 1 6022 3 view .LVU4573
	.loc 1 6022 12 view .LVU4574
	.loc 1 6022 107 view .LVU4575
	.loc 1 6022 3 view .LVU4576
.LBB3338:
.LBB3335:
.LBB3332:
	.loc 1 6022 12 view .LVU4577
	.loc 1 6022 102 view .LVU4578
	.loc 1 6022 104 view .LVU4579
.LBB3320:
	.loc 1 6022 107 is_stmt 0 view .LVU4580
	mov	r5, sp
	.loc 1 6022 109 is_stmt 1 view .LVU4581
	.loc 1 6022 120 view .LVU4582
.LVL575:
	.loc 1 6022 209 view .LVU4583
	.loc 1 6022 26 view .LVU4584
.LBE3320:
.LBE3332:
.LBE3335:
.LBE3338:
	.loc 1 6022 3 view .LVU4585
	.loc 1 6022 368 view .LVU4586
	.loc 1 6022 75 view .LVU4587
	.loc 1 6022 2 view .LVU4588
	.loc 1 6022 2 view .LVU4589
	.loc 1 6022 2 view .LVU4590
	.loc 1 6022 38 view .LVU4591
	.loc 1 6022 4 view .LVU4592
	.loc 1 6022 30 view .LVU4593
	.loc 1 6022 56 view .LVU4594
	.loc 1 6022 523 view .LVU4595
	.loc 1 6022 585 view .LVU4596
	.loc 1 6022 1106 view .LVU4597
	.loc 1 6022 1171 view .LVU4598
	.loc 1 6022 1196 view .LVU4599
	.loc 1 6022 1197 view .LVU4600
	.loc 1 6022 1199 view .LVU4601
	.loc 1 6022 1229 view .LVU4602
	.loc 1 6022 1259 view .LVU4603
	.loc 1 6022 1291 view .LVU4604
	.loc 1 6022 1323 view .LVU4605
	.loc 1 6022 1355 view .LVU4606
	.loc 1 6022 1552 view .LVU4607
	.loc 1 6022 1576 view .LVU4608
	.loc 1 6022 1577 view .LVU4609
	.loc 1 6022 1579 view .LVU4610
	.loc 1 6022 1608 view .LVU4611
	.loc 1 6022 1637 view .LVU4612
	.loc 1 6022 1668 view .LVU4613
	.loc 1 6022 1699 view .LVU4614
	.loc 1 6022 1730 view .LVU4615
	.loc 1 6022 1937 view .LVU4616
	.loc 1 6022 4 view .LVU4617
	.loc 1 6022 22 view .LVU4618
	.loc 1 6022 42 view .LVU4619
	.loc 1 6022 4 view .LVU4620
	.loc 1 6022 42 view .LVU4621
	.loc 1 6022 13 view .LVU4622
	.loc 1 6022 13 view .LVU4623
	.loc 1 6022 61 view .LVU4624
	.loc 1 6022 92 view .LVU4625
	.loc 1 6022 126 view .LVU4626
	.loc 1 6022 131 view .LVU4627
	.loc 1 6022 382 view .LVU4628
	.loc 1 6022 1439 view .LVU4629
	.loc 1 6022 1504 view .LVU4630
	.loc 1 6022 1528 view .LVU4631
	.loc 1 6022 1583 view .LVU4632
	.loc 1 6022 1594 view .LVU4633
	.loc 1 6022 1707 view .LVU4634
	.loc 1 6022 1723 view .LVU4635
	.loc 1 6022 1763 view .LVU4636
	.loc 1 6022 1788 view .LVU4637
	.loc 1 6022 3079 view .LVU4638
	.loc 1 6022 3120 view .LVU4639
	.loc 1 6022 7 view .LVU4640
	.loc 1 6022 30 view .LVU4641
	.loc 1 6022 129 view .LVU4642
	.loc 1 6022 6 view .LVU4643
	.loc 1 6022 11 view .LVU4644
	.loc 1 6022 236 view .LVU4645
	.loc 1 6022 1189 view .LVU4646
	.loc 1 6022 1254 view .LVU4647
	.loc 1 6022 1278 view .LVU4648
	.loc 1 6022 1307 view .LVU4649
	.loc 1 6022 1318 view .LVU4650
	.loc 1 6022 1405 view .LVU4651
	.loc 1 6022 1421 view .LVU4652
	.loc 1 6022 1461 view .LVU4653
	.loc 1 6022 1551 view .LVU4654
	.loc 1 6022 1954 view .LVU4655
	.loc 1 6022 2611 view .LVU4656
	.loc 1 6022 2630 view .LVU4657
	.loc 1 6022 2667 view .LVU4658
	.loc 1 6022 2725 view .LVU4659
	.loc 1 6022 2766 view .LVU4660
	.loc 1 6022 7 view .LVU4661
	.loc 1 6022 30 view .LVU4662
	.loc 1 6022 9 view .LVU4663
	.loc 1 6022 5 view .LVU4664
	.loc 1 6022 28 view .LVU4665
	.loc 1 6022 52 view .LVU4666
	.loc 1 6022 80 view .LVU4667
	.loc 1 6022 256 view .LVU4668
	.loc 1 6022 16 view .LVU4669
.LBB3339:
.LBB3336:
.LBB3333:
.LBB3330:
	.loc 1 6022 29 view .LVU4670
	.loc 1 6022 3 view .LVU4671
	.loc 1 6022 3 view .LVU4672
	.loc 1 6022 70 view .LVU4673
	.loc 1 6022 82 is_stmt 0 view .LVU4674
	sub	sp, sp, #32
	mov	r2, sp
.LVL576:
	.loc 1 6022 74 is_stmt 1 view .LVU4675
	.loc 1 6022 484 view .LVU4676
	.loc 1 6022 5 view .LVU4677
	.loc 1 6022 7 view .LVU4678
	.loc 1 6022 12 view .LVU4679
	.loc 1 6022 10 view .LVU4680
	.loc 1 6022 5 view .LVU4681
	.loc 1 6022 23 view .LVU4682
.LBB3321:
	.loc 1 6022 3 view .LVU4683
	.loc 1 6022 368 view .LVU4684
	.loc 1 6022 75 view .LVU4685
.LVL577:
	.loc 1 6022 2 view .LVU4686
	.loc 1 6022 2 view .LVU4687
	.loc 1 6022 2 view .LVU4688
	.loc 1 6022 38 view .LVU4689
	.loc 1 6022 67 view .LVU4690
	.loc 1 6022 93 view .LVU4691
	.loc 1 6022 119 view .LVU4692
	.loc 1 6022 586 view .LVU4693
	.loc 1 6022 648 view .LVU4694
	.loc 1 6022 1169 view .LVU4695
	.loc 1 6022 1234 view .LVU4696
	.loc 1 6022 1259 view .LVU4697
	.loc 1 6022 1260 view .LVU4698
	.loc 1 6022 1262 view .LVU4699
	.loc 1 6022 1292 view .LVU4700
	.loc 1 6022 1322 view .LVU4701
	.loc 1 6022 1354 view .LVU4702
	.loc 1 6022 1386 view .LVU4703
	.loc 1 6022 1418 view .LVU4704
	.loc 1 6022 1615 view .LVU4705
	.loc 1 6022 1639 view .LVU4706
	.loc 1 6022 1640 view .LVU4707
	.loc 1 6022 1642 view .LVU4708
	.loc 1 6022 1671 view .LVU4709
	.loc 1 6022 1700 view .LVU4710
	.loc 1 6022 1731 view .LVU4711
	.loc 1 6022 1762 view .LVU4712
	.loc 1 6022 1793 view .LVU4713
	.loc 1 6022 2000 view .LVU4714
.LBB3322:
	.loc 1 6022 3117 view .LVU4715
	.loc 1 6022 3122 view .LVU4716
	.loc 1 6022 3722 view .LVU4717
	.loc 1 6022 0 is_stmt 0 view .LVU4718
	ldr	r3, .L437+8
.LBE3322:
.LBE3321:
	.loc 1 6022 149 view .LVU4719
	ldr	r0, .L437+4
.LVL578:
.LBB3328:
.LBB3323:
	.loc 1 6022 3811 view .LVU4720
	strd	r3, r4, [r2, #20]
	.loc 1 6022 2766 is_stmt 1 view .LVU4721
	.loc 1 6022 7 view .LVU4722
.LVL579:
	.loc 1 6022 30 view .LVU4723
	.loc 1 6022 30 is_stmt 0 view .LVU4724
.LBE3323:
	.loc 1 6022 9 is_stmt 1 view .LVU4725
	.loc 1 6022 5 view .LVU4726
	.loc 1 6022 28 view .LVU4727
	.loc 1 6022 52 view .LVU4728
	.loc 1 6022 80 view .LVU4729
.LBB3324:
	.loc 1 6022 6 view .LVU4730
	.loc 1 6022 45 view .LVU4731
.LBE3324:
.LBE3328:
.LBE3330:
.LBE3333:
.LBE3336:
.LBE3339:
	.loc 1 6022 50 view .LVU4732
	.loc 1 6022 80 view .LVU4733
.LBB3340:
.LBB3337:
.LBB3334:
.LBB3331:
.LBB3329:
.LBB3326:
.LBB3325:
	.loc 1 6022 182 view .LVU4734
	.loc 1 6022 214 view .LVU4735
	.loc 1 6022 208 view .LVU4736
	.loc 1 6022 182 view .LVU4737
	.loc 1 6022 214 view .LVU4738
	.loc 1 6022 227 is_stmt 0 view .LVU4739
	mov	r3, #512
	strh	r3, [r2, #28]	@ movhi
	.loc 1 6022 208 is_stmt 1 view .LVU4740
.LVL580:
	.loc 1 6022 182 view .LVU4741
.LBE3325:
.LBE3326:
	.loc 1 6022 256 view .LVU4742
	.loc 1 6022 16 view .LVU4743
.LBB3327:
	.loc 1 6022 6 view .LVU4744
	.loc 1 6022 164 view .LVU4745
	.loc 1 6022 166 view .LVU4746
	.loc 1 6022 176 is_stmt 0 view .LVU4747
	ldr	r3, .L437+12
	str	r3, [r2, #16]!
.LVL581:
	.loc 1 6022 176 view .LVU4748
.LBE3327:
.LBE3329:
	.loc 1 6022 26 is_stmt 1 view .LVU4749
	.loc 1 6022 7 view .LVU4750
	.loc 1 6022 147 view .LVU4751
	.loc 1 6022 149 view .LVU4752
	mov	r1, #7232
	bl	z_log_msg_static_create.constprop.0
.LVL582:
	.loc 1 6022 149 is_stmt 0 view .LVU4753
	mov	sp, r5
.LVL583:
	.loc 1 6022 149 view .LVU4754
.LBE3331:
	.loc 1 6022 107 is_stmt 1 view .LVU4755
	.loc 1 6022 5 view .LVU4756
	.loc 1 6022 42 view .LVU4757
.LBE3334:
	.loc 1 6022 6 view .LVU4758
.LBE3337:
	.loc 1 6022 278 view .LVU4759
	.loc 1 6022 5 view .LVU4760
	.loc 1 6022 18 view .LVU4761
.LBE3340:
	.loc 1 6022 6 view .LVU4762
	.loc 1 6023 3 view .LVU4763
	.loc 1 6023 10 is_stmt 0 view .LVU4764
	b	.L418
.LVL584:
.L419:
	.loc 1 6026 2 is_stmt 1 view .LVU4765
	adds	r1, r7, #4
	mov	r0, r4
.LVL585:
	.loc 1 6026 2 is_stmt 0 view .LVU4766
	bl	settings_name_next
.LVL586:
	.loc 1 6028 2 is_stmt 1 view .LVU4767
	.loc 1 6028 6 is_stmt 0 view .LVU4768
	ldr	r0, [r7, #4]
	.loc 1 6028 5 view .LVU4769
	cbz	r0, .L421
.LBB3341:
	.loc 1 6031 3 is_stmt 1 view .LVU4770
	.loc 1 6031 27 is_stmt 0 view .LVU4771
	movs	r2, #10
	mov	r1, r5
	bl	strtoul
.LVL587:
	.loc 1 6033 3 is_stmt 1 view .LVU4772
	.loc 1 6033 6 is_stmt 0 view .LVU4773
	cbz	r0, .L421
	.loc 1 6034 4 is_stmt 1 view .LVU4774
.LBB3342:
	.loc 1 6034 9 view .LVU4775
	.loc 1 6034 58 view .LVU4776
	.loc 1 6034 15 view .LVU4777
	.loc 1 6034 3 view .LVU4778
.LVL588:
	.loc 1 6034 42 view .LVU4779
	.loc 1 6034 177 view .LVU4780
	.loc 1 6034 188 view .LVU4781
	.loc 1 6034 276 view .LVU4782
.LBB3343:
	.loc 1 6034 4 view .LVU4783
	.loc 1 6034 6 view .LVU4784
	.loc 1 6034 4 view .LVU4785
.LBB3344:
	.loc 1 6034 9 view .LVU4786
	.loc 1 6034 3 view .LVU4787
.LBE3344:
.LBE3343:
.LBE3342:
.LBE3341:
	.loc 1 6034 4 view .LVU4788
	.loc 1 6034 13 view .LVU4789
	.loc 1 6034 108 view .LVU4790
	.loc 1 6034 4 view .LVU4791
.LBB3357:
.LBB3355:
.LBB3353:
.LBB3351:
	.loc 1 6034 13 view .LVU4792
	.loc 1 6034 103 view .LVU4793
	.loc 1 6034 105 view .LVU4794
.LBB3345:
	.loc 1 6034 108 is_stmt 0 view .LVU4795
	mov	r4, sp
.LVL589:
	.loc 1 6034 110 is_stmt 1 view .LVU4796
	.loc 1 6034 121 view .LVU4797
	.loc 1 6034 210 view .LVU4798
	.loc 1 6034 27 view .LVU4799
.LBE3345:
.LBE3351:
.LBE3353:
.LBE3355:
.LBE3357:
	.loc 1 6034 4 view .LVU4800
	.loc 1 6034 369 view .LVU4801
	.loc 1 6034 76 view .LVU4802
	.loc 1 6034 3 view .LVU4803
	.loc 1 6034 3 view .LVU4804
	.loc 1 6034 3 view .LVU4805
	.loc 1 6034 39 view .LVU4806
	.loc 1 6034 5 view .LVU4807
	.loc 1 6034 31 view .LVU4808
	.loc 1 6034 57 view .LVU4809
	.loc 1 6034 524 view .LVU4810
	.loc 1 6034 586 view .LVU4811
	.loc 1 6034 1107 view .LVU4812
	.loc 1 6034 1172 view .LVU4813
	.loc 1 6034 1197 view .LVU4814
	.loc 1 6034 1198 view .LVU4815
	.loc 1 6034 1200 view .LVU4816
	.loc 1 6034 1230 view .LVU4817
	.loc 1 6034 1260 view .LVU4818
	.loc 1 6034 1292 view .LVU4819
	.loc 1 6034 1324 view .LVU4820
	.loc 1 6034 1356 view .LVU4821
	.loc 1 6034 1553 view .LVU4822
	.loc 1 6034 1577 view .LVU4823
	.loc 1 6034 1578 view .LVU4824
	.loc 1 6034 1580 view .LVU4825
	.loc 1 6034 1609 view .LVU4826
	.loc 1 6034 1638 view .LVU4827
	.loc 1 6034 1669 view .LVU4828
	.loc 1 6034 1700 view .LVU4829
	.loc 1 6034 1731 view .LVU4830
	.loc 1 6034 1938 view .LVU4831
	.loc 1 6034 5 view .LVU4832
	.loc 1 6034 23 view .LVU4833
	.loc 1 6034 43 view .LVU4834
	.loc 1 6034 5 view .LVU4835
	.loc 1 6034 43 view .LVU4836
	.loc 1 6034 14 view .LVU4837
	.loc 1 6034 14 view .LVU4838
	.loc 1 6034 62 view .LVU4839
	.loc 1 6034 93 view .LVU4840
	.loc 1 6034 127 view .LVU4841
	.loc 1 6034 132 view .LVU4842
	.loc 1 6034 382 view .LVU4843
	.loc 1 6034 1435 view .LVU4844
	.loc 1 6034 1500 view .LVU4845
	.loc 1 6034 1524 view .LVU4846
	.loc 1 6034 1578 view .LVU4847
	.loc 1 6034 1589 view .LVU4848
	.loc 1 6034 1701 view .LVU4849
	.loc 1 6034 1717 view .LVU4850
	.loc 1 6034 1757 view .LVU4851
	.loc 1 6034 1782 view .LVU4852
	.loc 1 6034 3071 view .LVU4853
	.loc 1 6034 3112 view .LVU4854
	.loc 1 6034 8 view .LVU4855
	.loc 1 6034 31 view .LVU4856
	.loc 1 6034 130 view .LVU4857
	.loc 1 6034 7 view .LVU4858
	.loc 1 6034 12 view .LVU4859
	.loc 1 6034 237 view .LVU4860
	.loc 1 6034 1190 view .LVU4861
	.loc 1 6034 1255 view .LVU4862
	.loc 1 6034 1279 view .LVU4863
	.loc 1 6034 1308 view .LVU4864
	.loc 1 6034 1319 view .LVU4865
	.loc 1 6034 1406 view .LVU4866
	.loc 1 6034 1422 view .LVU4867
	.loc 1 6034 1462 view .LVU4868
	.loc 1 6034 2726 view .LVU4869
	.loc 1 6034 2767 view .LVU4870
	.loc 1 6034 8 view .LVU4871
	.loc 1 6034 31 view .LVU4872
	.loc 1 6034 10 view .LVU4873
	.loc 1 6034 6 view .LVU4874
	.loc 1 6034 29 view .LVU4875
	.loc 1 6034 53 view .LVU4876
	.loc 1 6034 81 view .LVU4877
	.loc 1 6034 257 view .LVU4878
	.loc 1 6034 17 view .LVU4879
.LBB3358:
.LBB3356:
.LBB3354:
.LBB3352:
.LBB3350:
	.loc 1 6034 30 view .LVU4880
	.loc 1 6034 4 view .LVU4881
	.loc 1 6034 4 view .LVU4882
	.loc 1 6034 71 view .LVU4883
	.loc 1 6034 83 is_stmt 0 view .LVU4884
	sub	sp, sp, #32
	mov	r2, sp
.LVL590:
	.loc 1 6034 75 is_stmt 1 view .LVU4885
	.loc 1 6034 485 view .LVU4886
	.loc 1 6034 6 view .LVU4887
	.loc 1 6034 8 view .LVU4888
	.loc 1 6034 13 view .LVU4889
	.loc 1 6034 11 view .LVU4890
	.loc 1 6034 6 view .LVU4891
	.loc 1 6034 24 view .LVU4892
.LBB3346:
	.loc 1 6034 4 view .LVU4893
	.loc 1 6034 369 view .LVU4894
	.loc 1 6034 76 view .LVU4895
.LVL591:
	.loc 1 6034 3 view .LVU4896
	.loc 1 6034 3 view .LVU4897
	.loc 1 6034 3 view .LVU4898
	.loc 1 6034 39 view .LVU4899
	.loc 1 6034 68 view .LVU4900
	.loc 1 6034 94 view .LVU4901
	.loc 1 6034 120 view .LVU4902
	.loc 1 6034 587 view .LVU4903
	.loc 1 6034 649 view .LVU4904
	.loc 1 6034 1170 view .LVU4905
	.loc 1 6034 1235 view .LVU4906
	.loc 1 6034 1260 view .LVU4907
	.loc 1 6034 1261 view .LVU4908
	.loc 1 6034 1263 view .LVU4909
	.loc 1 6034 1293 view .LVU4910
	.loc 1 6034 1323 view .LVU4911
	.loc 1 6034 1355 view .LVU4912
	.loc 1 6034 1387 view .LVU4913
	.loc 1 6034 1419 view .LVU4914
	.loc 1 6034 1616 view .LVU4915
	.loc 1 6034 1640 view .LVU4916
	.loc 1 6034 1641 view .LVU4917
	.loc 1 6034 1643 view .LVU4918
	.loc 1 6034 1672 view .LVU4919
	.loc 1 6034 1701 view .LVU4920
	.loc 1 6034 1732 view .LVU4921
	.loc 1 6034 1763 view .LVU4922
	.loc 1 6034 1794 view .LVU4923
	.loc 1 6034 2001 view .LVU4924
.LBB3347:
	.loc 1 6034 3109 view .LVU4925
	.loc 1 6034 3114 view .LVU4926
	.loc 1 6034 3708 view .LVU4927
	.loc 1 6034 0 is_stmt 0 view .LVU4928
	ldr	r3, .L437+16
.LBE3347:
.LBB3348:
	.loc 1 6034 3812 view .LVU4929
	strd	r3, r0, [r2, #20]
	.loc 1 6034 2767 is_stmt 1 view .LVU4930
	.loc 1 6034 8 view .LVU4931
.LVL592:
	.loc 1 6034 31 view .LVU4932
	.loc 1 6034 31 is_stmt 0 view .LVU4933
.LBE3348:
	.loc 1 6034 10 is_stmt 1 view .LVU4934
	.loc 1 6034 6 view .LVU4935
	.loc 1 6034 29 view .LVU4936
	.loc 1 6034 53 view .LVU4937
	.loc 1 6034 81 view .LVU4938
	.loc 1 6034 257 view .LVU4939
	.loc 1 6034 17 view .LVU4940
.LBB3349:
	.loc 1 6034 7 view .LVU4941
	.loc 1 6034 165 view .LVU4942
	.loc 1 6034 167 view .LVU4943
	.loc 1 6034 177 is_stmt 0 view .LVU4944
	movs	r3, #3
	str	r3, [r2, #16]!
.LVL593:
	.loc 1 6034 177 view .LVU4945
.LBE3349:
.LBE3346:
	.loc 1 6034 27 is_stmt 1 view .LVU4946
	.loc 1 6034 8 view .LVU4947
	.loc 1 6034 148 view .LVU4948
	.loc 1 6034 150 view .LVU4949
	ldr	r0, .L437+4
.LVL594:
	.loc 1 6034 150 is_stmt 0 view .LVU4950
	mov	r1, #6208
	bl	z_log_msg_static_create.constprop.0
.LVL595:
	.loc 1 6034 150 view .LVU4951
	mov	sp, r4
.LVL596:
	.loc 1 6034 150 view .LVU4952
.LBE3350:
	.loc 1 6034 108 is_stmt 1 view .LVU4953
	.loc 1 6034 6 view .LVU4954
	.loc 1 6034 43 view .LVU4955
.LBE3352:
	.loc 1 6034 7 view .LVU4956
.LBE3354:
	.loc 1 6034 279 view .LVU4957
	.loc 1 6034 6 view .LVU4958
	.loc 1 6034 19 view .LVU4959
.LBE3356:
	.loc 1 6034 7 view .LVU4960
	.loc 1 6035 4 view .LVU4961
	.loc 1 6035 11 is_stmt 0 view .LVU4962
	b	.L418
.LVL597:
.L421:
	.loc 1 6035 11 view .LVU4963
.LBE3358:
	.loc 1 6041 2 is_stmt 1 view .LVU4964
	.loc 1 6041 8 is_stmt 0 view .LVU4965
	add	r1, r7, #8
	movs	r0, #0
	bl	find_cf_cfg_by_addr
.LVL598:
	.loc 1 6042 2 is_stmt 1 view .LVU4966
	.loc 1 6042 5 is_stmt 0 view .LVU4967
	mov	r4, r0
.LVL599:
	.loc 1 6042 5 view .LVU4968
	cbnz	r0, .L422
	.loc 1 6043 3 is_stmt 1 view .LVU4969
	.loc 1 6043 9 is_stmt 0 view .LVU4970
	bl	find_cf_cfg
.LVL600:
	.loc 1 6044 3 is_stmt 1 view .LVU4971
	.loc 1 6044 6 is_stmt 0 view .LVU4972
	mov	r4, r0
	cbnz	r0, .L423
	.loc 1 6045 4 is_stmt 1 view .LVU4973
.LBB3359:
	.loc 1 6045 9 view .LVU4974
	.loc 1 6045 58 view .LVU4975
	.loc 1 6045 15 view .LVU4976
	.loc 1 6045 3 view .LVU4977
.LVL601:
	.loc 1 6045 42 view .LVU4978
	.loc 1 6045 177 view .LVU4979
	.loc 1 6045 188 view .LVU4980
	.loc 1 6045 276 view .LVU4981
	.loc 1 6045 4 view .LVU4982
	.loc 1 6045 4 view .LVU4983
.LBB3360:
	.loc 1 6045 9 view .LVU4984
	.loc 1 6045 3 view .LVU4985
.LBE3360:
.LBE3359:
	.loc 1 6045 4 view .LVU4986
	.loc 1 6045 13 view .LVU4987
	.loc 1 6045 108 view .LVU4988
	.loc 1 6045 4 view .LVU4989
.LBB3377:
.LBB3373:
	.loc 1 6045 13 view .LVU4990
	.loc 1 6045 103 view .LVU4991
	.loc 1 6045 105 view .LVU4992
.LBB3361:
	.loc 1 6045 110 view .LVU4993
	.loc 1 6045 121 view .LVU4994
	.loc 1 6045 210 view .LVU4995
	.loc 1 6045 27 view .LVU4996
.LBE3361:
.LBE3373:
.LBE3377:
	.loc 1 6045 4 view .LVU4997
	.loc 1 6045 369 view .LVU4998
	.loc 1 6045 76 view .LVU4999
	.loc 1 6045 3 view .LVU5000
	.loc 1 6045 3 view .LVU5001
	.loc 1 6045 3 view .LVU5002
	.loc 1 6045 39 view .LVU5003
	.loc 1 6045 5 view .LVU5004
	.loc 1 6045 31 view .LVU5005
	.loc 1 6045 57 view .LVU5006
	.loc 1 6045 80 view .LVU5007
	.loc 1 6045 142 view .LVU5008
	.loc 1 6045 199 view .LVU5009
	.loc 1 6045 264 view .LVU5010
	.loc 1 6045 289 view .LVU5011
	.loc 1 6045 290 view .LVU5012
	.loc 1 6045 292 view .LVU5013
	.loc 1 6045 322 view .LVU5014
	.loc 1 6045 352 view .LVU5015
	.loc 1 6045 384 view .LVU5016
	.loc 1 6045 416 view .LVU5017
	.loc 1 6045 448 view .LVU5018
	.loc 1 6045 645 view .LVU5019
	.loc 1 6045 669 view .LVU5020
	.loc 1 6045 670 view .LVU5021
	.loc 1 6045 672 view .LVU5022
	.loc 1 6045 701 view .LVU5023
	.loc 1 6045 730 view .LVU5024
	.loc 1 6045 761 view .LVU5025
	.loc 1 6045 792 view .LVU5026
	.loc 1 6045 823 view .LVU5027
	.loc 1 6045 1030 view .LVU5028
	.loc 1 6045 5 view .LVU5029
	.loc 1 6045 23 view .LVU5030
	.loc 1 6045 43 view .LVU5031
	.loc 1 6045 5 view .LVU5032
	.loc 1 6045 43 view .LVU5033
	.loc 1 6045 14 view .LVU5034
	.loc 1 6045 14 view .LVU5035
	.loc 1 6045 62 view .LVU5036
	.loc 1 6045 93 view .LVU5037
	.loc 1 6045 127 view .LVU5038
	.loc 1 6045 132 view .LVU5039
	.loc 1 6045 389 view .LVU5040
	.loc 1 6045 1470 view .LVU5041
	.loc 1 6045 1535 view .LVU5042
	.loc 1 6045 1559 view .LVU5043
	.loc 1 6045 1620 view .LVU5044
	.loc 1 6045 1631 view .LVU5045
	.loc 1 6045 1750 view .LVU5046
	.loc 1 6045 1766 view .LVU5047
	.loc 1 6045 1806 view .LVU5048
	.loc 1 6045 1831 view .LVU5049
	.loc 1 6045 3134 view .LVU5050
	.loc 1 6045 3175 view .LVU5051
	.loc 1 6045 8 view .LVU5052
	.loc 1 6045 31 view .LVU5053
	.loc 1 6045 130 view .LVU5054
	.loc 1 6045 6 view .LVU5055
	.loc 1 6045 29 view .LVU5056
	.loc 1 6045 53 view .LVU5057
	.loc 1 6045 81 view .LVU5058
	.loc 1 6045 257 view .LVU5059
	.loc 1 6045 17 view .LVU5060
.LBB3378:
.LBB3374:
.LBB3370:
	.loc 1 6045 30 view .LVU5061
	.loc 1 6045 4 view .LVU5062
	.loc 1 6045 4 view .LVU5063
	.loc 1 6045 71 view .LVU5064
	.loc 1 6045 75 view .LVU5065
	.loc 1 6045 485 view .LVU5066
	.loc 1 6045 6 view .LVU5067
	.loc 1 6045 8 view .LVU5068
	.loc 1 6045 13 view .LVU5069
	.loc 1 6045 11 view .LVU5070
	.loc 1 6045 6 view .LVU5071
	.loc 1 6045 24 view .LVU5072
.LBB3362:
	.loc 1 6045 4 view .LVU5073
	.loc 1 6045 369 view .LVU5074
	.loc 1 6045 76 view .LVU5075
.LVL602:
	.loc 1 6045 3 view .LVU5076
	.loc 1 6045 3 view .LVU5077
	.loc 1 6045 3 view .LVU5078
	.loc 1 6045 39 view .LVU5079
	.loc 1 6045 68 view .LVU5080
	.loc 1 6045 94 view .LVU5081
	.loc 1 6045 120 view .LVU5082
	.loc 1 6045 143 view .LVU5083
	.loc 1 6045 205 view .LVU5084
	.loc 1 6045 262 view .LVU5085
	.loc 1 6045 327 view .LVU5086
	.loc 1 6045 352 view .LVU5087
	.loc 1 6045 353 view .LVU5088
	.loc 1 6045 355 view .LVU5089
	.loc 1 6045 385 view .LVU5090
	.loc 1 6045 415 view .LVU5091
	.loc 1 6045 447 view .LVU5092
	.loc 1 6045 479 view .LVU5093
	.loc 1 6045 511 view .LVU5094
	.loc 1 6045 708 view .LVU5095
	.loc 1 6045 732 view .LVU5096
	.loc 1 6045 733 view .LVU5097
	.loc 1 6045 735 view .LVU5098
	.loc 1 6045 764 view .LVU5099
	.loc 1 6045 793 view .LVU5100
	.loc 1 6045 824 view .LVU5101
	.loc 1 6045 855 view .LVU5102
	.loc 1 6045 886 view .LVU5103
	.loc 1 6045 1093 view .LVU5104
	.loc 1 6045 5 view .LVU5105
	.loc 1 6045 23 view .LVU5106
	.loc 1 6045 43 view .LVU5107
	.loc 1 6045 5 view .LVU5108
	.loc 1 6045 43 view .LVU5109
	.loc 1 6045 14 view .LVU5110
	.loc 1 6045 14 view .LVU5111
	.loc 1 6045 62 view .LVU5112
	.loc 1 6045 93 view .LVU5113
	.loc 1 6045 127 view .LVU5114
.LBB3363:
	.loc 1 6045 132 view .LVU5115
	.loc 1 6045 389 view .LVU5116
	.loc 1 6045 1470 view .LVU5117
	.loc 1 6045 1535 view .LVU5118
.LBE3363:
.LBE3362:
.LBE3370:
.LBE3374:
.LBE3378:
	.loc 1 6045 1559 view .LVU5119
	.loc 1 6045 1620 view .LVU5120
	.loc 1 6045 1631 view .LVU5121
	.loc 1 6045 1750 view .LVU5122
.LBB3379:
.LBB3375:
.LBB3371:
.LBB3367:
.LBB3364:
	.loc 1 6045 1766 view .LVU5123
	.loc 1 6045 1806 view .LVU5124
	.loc 1 6045 1831 view .LVU5125
	.loc 1 6045 3134 view .LVU5126
	.loc 1 6045 3172 view .LVU5127
	.loc 1 6045 3177 view .LVU5128
	.loc 1 6045 3813 view .LVU5129
	.loc 1 6045 0 is_stmt 0 view .LVU5130
	ldr	r3, .L437+20
	str	r3, [r7, #36]
	.loc 1 6045 3175 is_stmt 1 view .LVU5131
	.loc 1 6045 8 view .LVU5132
.LVL603:
	.loc 1 6045 31 view .LVU5133
	.loc 1 6045 31 is_stmt 0 view .LVU5134
.LBE3364:
	.loc 1 6045 130 is_stmt 1 view .LVU5135
	.loc 1 6045 6 view .LVU5136
	.loc 1 6045 29 view .LVU5137
	.loc 1 6045 53 view .LVU5138
	.loc 1 6045 81 view .LVU5139
.LBE3367:
.LBE3371:
.LBE3375:
.LBE3379:
	.loc 1 6045 7 view .LVU5140
	.loc 1 6045 46 view .LVU5141
	.loc 1 6045 51 view .LVU5142
	.loc 1 6045 81 view .LVU5143
	.loc 1 6045 148 view .LVU5144
	.loc 1 6045 153 view .LVU5145
	.loc 1 6045 183 view .LVU5146
.LBB3380:
.LBB3376:
.LBB3372:
.LBB3368:
	.loc 1 6045 257 view .LVU5147
	.loc 1 6045 17 view .LVU5148
.LBB3365:
	.loc 1 6045 7 view .LVU5149
	.loc 1 6045 165 view .LVU5150
	.loc 1 6045 167 view .LVU5151
	.loc 1 6045 177 is_stmt 0 view .LVU5152
	movs	r3, #2
.LBE3365:
.LBE3368:
	.loc 1 6045 150 view .LVU5153
	ldr	r0, .L437+4
.LVL604:
.LBB3369:
.LBB3366:
	.loc 1 6045 177 view .LVU5154
	str	r3, [r7, #32]
.LVL605:
	.loc 1 6045 177 view .LVU5155
.LBE3366:
.LBE3369:
	.loc 1 6045 27 is_stmt 1 view .LVU5156
	.loc 1 6045 8 view .LVU5157
	.loc 1 6045 148 view .LVU5158
	.loc 1 6045 150 view .LVU5159
	add	r2, r7, #32
.LVL606:
	.loc 1 6045 150 is_stmt 0 view .LVU5160
	mov	r1, #4160
	bl	z_log_msg_static_create.constprop.0
.LVL607:
	.loc 1 6045 150 view .LVU5161
.LBE3372:
	.loc 1 6045 108 is_stmt 1 view .LVU5162
	.loc 1 6045 6 view .LVU5163
.LVL608:
	.loc 1 6045 43 view .LVU5164
.LBE3376:
	.loc 1 6045 7 view .LVU5165
	.loc 1 6045 279 view .LVU5166
	.loc 1 6045 6 view .LVU5167
	.loc 1 6045 19 view .LVU5168
.LBE3380:
	.loc 1 6045 7 view .LVU5169
	.loc 1 6046 4 view .LVU5170
	.loc 1 6046 11 is_stmt 0 view .LVU5171
	mvn	r5, #11
.LVL609:
	.loc 1 6046 11 view .LVU5172
	b	.L416
.LVL610:
.L423:
	.loc 1 6049 3 is_stmt 1 view .LVU5173
	.loc 1 6049 11 is_stmt 0 view .LVU5174
	movs	r3, #0
	strb	r3, [r0], #1
.LVL611:
	.loc 1 6050 3 is_stmt 1 view .LVU5175
	add	r1, r7, #8
	bl	bt_addr_le_copy
.LVL612:
.L422:
	.loc 1 6053 2 view .LVU5176
	.loc 1 6053 5 is_stmt 0 view .LVU5177
	cmp	r9, #0
	beq	.L424
.LBB3381:
	.loc 1 6054 3 is_stmt 1 view .LVU5178
	.loc 1 6056 3 view .LVU5179
	.loc 1 6056 9 is_stmt 0 view .LVU5180
	movs	r2, #2
	mov	r1, r7
	mov	r0, r8
	blx	r6
.LVL613:
	.loc 1 6057 3 is_stmt 1 view .LVU5181
	.loc 1 6057 6 is_stmt 0 view .LVU5182
	subs	r6, r0, #0
.LVL614:
	.loc 1 6057 6 view .LVU5183
	bge	.L425
	.loc 1 6058 4 is_stmt 1 view .LVU5184
.LBB3382:
	.loc 1 6058 9 view .LVU5185
	.loc 1 6058 58 view .LVU5186
	.loc 1 6058 15 view .LVU5187
	.loc 1 6058 3 view .LVU5188
.LVL615:
	.loc 1 6058 42 view .LVU5189
	.loc 1 6058 177 view .LVU5190
	.loc 1 6058 188 view .LVU5191
	.loc 1 6058 276 view .LVU5192
.LBB3383:
	.loc 1 6058 4 view .LVU5193
	.loc 1 6058 6 view .LVU5194
	.loc 1 6058 4 view .LVU5195
.LBB3384:
	.loc 1 6058 9 view .LVU5196
	.loc 1 6058 3 view .LVU5197
.LBE3384:
.LBE3383:
.LBE3382:
.LBE3381:
	.loc 1 6058 4 view .LVU5198
	.loc 1 6058 13 view .LVU5199
	.loc 1 6058 108 view .LVU5200
	.loc 1 6058 4 view .LVU5201
.LBB3451:
.LBB3399:
.LBB3396:
.LBB3393:
	.loc 1 6058 13 view .LVU5202
	.loc 1 6058 103 view .LVU5203
	.loc 1 6058 105 view .LVU5204
.LBB3385:
	.loc 1 6058 108 is_stmt 0 view .LVU5205
	mov	r4, sp
.LVL616:
	.loc 1 6058 110 is_stmt 1 view .LVU5206
	.loc 1 6058 121 view .LVU5207
	.loc 1 6058 210 view .LVU5208
	.loc 1 6058 27 view .LVU5209
.LBE3385:
.LBE3393:
.LBE3396:
.LBE3399:
.LBE3451:
	.loc 1 6058 4 view .LVU5210
	.loc 1 6058 369 view .LVU5211
	.loc 1 6058 76 view .LVU5212
	.loc 1 6058 3 view .LVU5213
	.loc 1 6058 3 view .LVU5214
	.loc 1 6058 3 view .LVU5215
	.loc 1 6058 39 view .LVU5216
	.loc 1 6058 5 view .LVU5217
	.loc 1 6058 31 view .LVU5218
	.loc 1 6058 57 view .LVU5219
	.loc 1 6058 524 view .LVU5220
	.loc 1 6058 586 view .LVU5221
	.loc 1 6058 1107 view .LVU5222
	.loc 1 6058 1172 view .LVU5223
	.loc 1 6058 1197 view .LVU5224
	.loc 1 6058 1198 view .LVU5225
	.loc 1 6058 1200 view .LVU5226
	.loc 1 6058 1230 view .LVU5227
	.loc 1 6058 1260 view .LVU5228
	.loc 1 6058 1292 view .LVU5229
	.loc 1 6058 1324 view .LVU5230
	.loc 1 6058 1356 view .LVU5231
	.loc 1 6058 1553 view .LVU5232
	.loc 1 6058 1577 view .LVU5233
	.loc 1 6058 1578 view .LVU5234
	.loc 1 6058 1580 view .LVU5235
	.loc 1 6058 1609 view .LVU5236
	.loc 1 6058 1638 view .LVU5237
	.loc 1 6058 1669 view .LVU5238
	.loc 1 6058 1700 view .LVU5239
	.loc 1 6058 1731 view .LVU5240
	.loc 1 6058 1938 view .LVU5241
	.loc 1 6058 5 view .LVU5242
	.loc 1 6058 23 view .LVU5243
	.loc 1 6058 43 view .LVU5244
	.loc 1 6058 5 view .LVU5245
	.loc 1 6058 43 view .LVU5246
	.loc 1 6058 14 view .LVU5247
	.loc 1 6058 14 view .LVU5248
	.loc 1 6058 62 view .LVU5249
	.loc 1 6058 93 view .LVU5250
	.loc 1 6058 127 view .LVU5251
	.loc 1 6058 132 view .LVU5252
	.loc 1 6058 388 view .LVU5253
	.loc 1 6058 1465 view .LVU5254
	.loc 1 6058 1530 view .LVU5255
	.loc 1 6058 1554 view .LVU5256
	.loc 1 6058 1614 view .LVU5257
	.loc 1 6058 1625 view .LVU5258
	.loc 1 6058 1743 view .LVU5259
	.loc 1 6058 1759 view .LVU5260
	.loc 1 6058 1799 view .LVU5261
	.loc 1 6058 1824 view .LVU5262
	.loc 1 6058 3125 view .LVU5263
	.loc 1 6058 3166 view .LVU5264
	.loc 1 6058 8 view .LVU5265
	.loc 1 6058 31 view .LVU5266
	.loc 1 6058 130 view .LVU5267
	.loc 1 6058 7 view .LVU5268
	.loc 1 6058 12 view .LVU5269
	.loc 1 6058 237 view .LVU5270
	.loc 1 6058 1190 view .LVU5271
	.loc 1 6058 1255 view .LVU5272
	.loc 1 6058 1279 view .LVU5273
	.loc 1 6058 1308 view .LVU5274
	.loc 1 6058 1319 view .LVU5275
	.loc 1 6058 1406 view .LVU5276
	.loc 1 6058 1422 view .LVU5277
	.loc 1 6058 1462 view .LVU5278
	.loc 1 6058 2726 view .LVU5279
	.loc 1 6058 2767 view .LVU5280
	.loc 1 6058 8 view .LVU5281
	.loc 1 6058 31 view .LVU5282
	.loc 1 6058 10 view .LVU5283
	.loc 1 6058 6 view .LVU5284
	.loc 1 6058 29 view .LVU5285
	.loc 1 6058 53 view .LVU5286
	.loc 1 6058 81 view .LVU5287
	.loc 1 6058 257 view .LVU5288
	.loc 1 6058 17 view .LVU5289
.LBB3452:
.LBB3400:
.LBB3397:
.LBB3394:
.LBB3391:
	.loc 1 6058 30 view .LVU5290
	.loc 1 6058 4 view .LVU5291
	.loc 1 6058 4 view .LVU5292
	.loc 1 6058 71 view .LVU5293
	.loc 1 6058 83 is_stmt 0 view .LVU5294
	sub	sp, sp, #32
	mov	r2, sp
.LVL617:
	.loc 1 6058 75 is_stmt 1 view .LVU5295
	.loc 1 6058 485 view .LVU5296
	.loc 1 6058 6 view .LVU5297
	.loc 1 6058 8 view .LVU5298
	.loc 1 6058 13 view .LVU5299
	.loc 1 6058 11 view .LVU5300
	.loc 1 6058 6 view .LVU5301
	.loc 1 6058 24 view .LVU5302
.LBB3386:
	.loc 1 6058 4 view .LVU5303
	.loc 1 6058 369 view .LVU5304
	.loc 1 6058 76 view .LVU5305
.LVL618:
	.loc 1 6058 3 view .LVU5306
	.loc 1 6058 3 view .LVU5307
	.loc 1 6058 3 view .LVU5308
	.loc 1 6058 39 view .LVU5309
	.loc 1 6058 68 view .LVU5310
	.loc 1 6058 94 view .LVU5311
	.loc 1 6058 120 view .LVU5312
	.loc 1 6058 587 view .LVU5313
	.loc 1 6058 649 view .LVU5314
	.loc 1 6058 1170 view .LVU5315
	.loc 1 6058 1235 view .LVU5316
	.loc 1 6058 1260 view .LVU5317
	.loc 1 6058 1261 view .LVU5318
	.loc 1 6058 1263 view .LVU5319
	.loc 1 6058 1293 view .LVU5320
	.loc 1 6058 1323 view .LVU5321
	.loc 1 6058 1355 view .LVU5322
	.loc 1 6058 1387 view .LVU5323
	.loc 1 6058 1419 view .LVU5324
	.loc 1 6058 1616 view .LVU5325
	.loc 1 6058 1640 view .LVU5326
	.loc 1 6058 1641 view .LVU5327
	.loc 1 6058 1643 view .LVU5328
	.loc 1 6058 1672 view .LVU5329
	.loc 1 6058 1701 view .LVU5330
	.loc 1 6058 1732 view .LVU5331
	.loc 1 6058 1763 view .LVU5332
	.loc 1 6058 1794 view .LVU5333
	.loc 1 6058 2001 view .LVU5334
.LBB3387:
	.loc 1 6058 3163 view .LVU5335
	.loc 1 6058 3168 view .LVU5336
	.loc 1 6058 3798 view .LVU5337
	.loc 1 6058 0 is_stmt 0 view .LVU5338
	ldr	r3, .L437+24
.LBE3387:
.LBE3386:
	.loc 1 6058 150 view .LVU5339
	ldr	r0, .L437+4
.LVL619:
.LBB3390:
.LBB3388:
	.loc 1 6058 3812 view .LVU5340
	strd	r3, r6, [r2, #20]
	.loc 1 6058 2767 is_stmt 1 view .LVU5341
	.loc 1 6058 8 view .LVU5342
.LVL620:
	.loc 1 6058 31 view .LVU5343
	.loc 1 6058 31 is_stmt 0 view .LVU5344
.LBE3388:
	.loc 1 6058 10 is_stmt 1 view .LVU5345
	.loc 1 6058 6 view .LVU5346
	.loc 1 6058 29 view .LVU5347
	.loc 1 6058 53 view .LVU5348
	.loc 1 6058 81 view .LVU5349
	.loc 1 6058 257 view .LVU5350
	.loc 1 6058 17 view .LVU5351
.LBB3389:
	.loc 1 6058 7 view .LVU5352
	.loc 1 6058 165 view .LVU5353
	.loc 1 6058 167 view .LVU5354
	.loc 1 6058 177 is_stmt 0 view .LVU5355
	movs	r3, #3
	str	r3, [r2, #16]!
.LVL621:
	.loc 1 6058 177 view .LVU5356
.LBE3389:
.LBE3390:
	.loc 1 6058 27 is_stmt 1 view .LVU5357
	.loc 1 6058 8 view .LVU5358
	.loc 1 6058 148 view .LVU5359
	.loc 1 6058 150 view .LVU5360
	mov	r1, #6208
	bl	z_log_msg_static_create.constprop.0
.LVL622:
	.loc 1 6058 150 is_stmt 0 view .LVU5361
.LBE3391:
.LBE3394:
.LBE3397:
.LBE3400:
	.loc 1 6059 11 view .LVU5362
	mov	r5, r6
.LVL623:
.LBB3401:
.LBB3398:
.LBB3395:
.LBB3392:
	.loc 1 6059 11 view .LVU5363
	mov	sp, r4
.LVL624:
	.loc 1 6059 11 view .LVU5364
.LBE3392:
	.loc 1 6058 108 is_stmt 1 view .LVU5365
	.loc 1 6058 6 view .LVU5366
	.loc 1 6058 43 view .LVU5367
.LBE3395:
	.loc 1 6058 7 view .LVU5368
.LBE3398:
	.loc 1 6058 279 view .LVU5369
	.loc 1 6058 6 view .LVU5370
	.loc 1 6058 19 view .LVU5371
.LBE3401:
	.loc 1 6058 7 view .LVU5372
	.loc 1 6059 4 view .LVU5373
	b	.L416
.LVL625:
.L425:
	.loc 1 6062 2 view .LVU5374
.LBB3402:
.LBI3402:
	.loc 4 83 216 view .LVU5375
.LBB3403:
	.loc 4 83 292 view .LVU5376
	.loc 4 83 299 is_stmt 0 view .LVU5377
	ldrb	r3, [r7]	@ zero_extendqisi2
	strb	r3, [r4, #8]
.LVL626:
	.loc 4 83 299 view .LVU5378
.LBE3403:
.LBE3402:
	.loc 1 6063 3 is_stmt 1 view .LVU5379
.LBB3404:
	.loc 1 6063 8 view .LVU5380
.LBE3404:
	.loc 1 6063 6 view .LVU5381
	.loc 1 6065 3 view .LVU5382
	.loc 1 6065 6 is_stmt 0 view .LVU5383
	cmp	r6, #2
	beq	.L426
	.loc 1 6066 4 is_stmt 1 view .LVU5384
.LBB3405:
	.loc 1 6066 9 view .LVU5385
	.loc 1 6066 58 view .LVU5386
	.loc 1 6066 15 view .LVU5387
	.loc 1 6066 3 view .LVU5388
.LVL627:
	.loc 1 6066 42 view .LVU5389
	.loc 1 6066 177 view .LVU5390
	.loc 1 6066 188 view .LVU5391
	.loc 1 6066 276 view .LVU5392
	.loc 1 6066 4 view .LVU5393
	.loc 1 6066 4 view .LVU5394
.LBB3406:
	.loc 1 6066 9 view .LVU5395
	.loc 1 6066 3 view .LVU5396
.LBE3406:
.LBE3405:
.LBE3452:
	.loc 1 6066 4 view .LVU5397
	.loc 1 6066 13 view .LVU5398
	.loc 1 6066 108 view .LVU5399
	.loc 1 6066 4 view .LVU5400
.LBB3453:
.LBB3423:
.LBB3419:
	.loc 1 6066 13 view .LVU5401
	.loc 1 6066 103 view .LVU5402
	.loc 1 6066 105 view .LVU5403
.LBB3407:
	.loc 1 6066 110 view .LVU5404
	.loc 1 6066 121 view .LVU5405
	.loc 1 6066 210 view .LVU5406
	.loc 1 6066 27 view .LVU5407
.LBE3407:
.LBE3419:
.LBE3423:
.LBE3453:
	.loc 1 6066 4 view .LVU5408
	.loc 1 6066 369 view .LVU5409
	.loc 1 6066 76 view .LVU5410
	.loc 1 6066 3 view .LVU5411
	.loc 1 6066 3 view .LVU5412
	.loc 1 6066 3 view .LVU5413
	.loc 1 6066 39 view .LVU5414
	.loc 1 6066 5 view .LVU5415
	.loc 1 6066 31 view .LVU5416
	.loc 1 6066 57 view .LVU5417
	.loc 1 6066 80 view .LVU5418
	.loc 1 6066 142 view .LVU5419
	.loc 1 6066 199 view .LVU5420
	.loc 1 6066 264 view .LVU5421
	.loc 1 6066 289 view .LVU5422
	.loc 1 6066 290 view .LVU5423
	.loc 1 6066 292 view .LVU5424
	.loc 1 6066 322 view .LVU5425
	.loc 1 6066 352 view .LVU5426
	.loc 1 6066 384 view .LVU5427
	.loc 1 6066 416 view .LVU5428
	.loc 1 6066 448 view .LVU5429
	.loc 1 6066 645 view .LVU5430
	.loc 1 6066 669 view .LVU5431
	.loc 1 6066 670 view .LVU5432
	.loc 1 6066 672 view .LVU5433
	.loc 1 6066 701 view .LVU5434
	.loc 1 6066 730 view .LVU5435
	.loc 1 6066 761 view .LVU5436
	.loc 1 6066 792 view .LVU5437
	.loc 1 6066 823 view .LVU5438
	.loc 1 6066 1030 view .LVU5439
	.loc 1 6066 5 view .LVU5440
	.loc 1 6066 23 view .LVU5441
	.loc 1 6066 43 view .LVU5442
	.loc 1 6066 5 view .LVU5443
	.loc 1 6066 43 view .LVU5444
	.loc 1 6066 14 view .LVU5445
	.loc 1 6066 14 view .LVU5446
	.loc 1 6066 62 view .LVU5447
	.loc 1 6066 93 view .LVU5448
	.loc 1 6066 127 view .LVU5449
	.loc 1 6066 132 view .LVU5450
	.loc 1 6066 442 view .LVU5451
	.loc 1 6066 1735 view .LVU5452
	.loc 1 6066 1800 view .LVU5453
	.loc 1 6066 1824 view .LVU5454
	.loc 1 6066 1938 view .LVU5455
	.loc 1 6066 1949 view .LVU5456
	.loc 1 6066 2121 view .LVU5457
	.loc 1 6066 2137 view .LVU5458
	.loc 1 6066 2177 view .LVU5459
	.loc 1 6066 2202 view .LVU5460
	.loc 1 6066 3611 view .LVU5461
	.loc 1 6066 3652 view .LVU5462
	.loc 1 6066 8 view .LVU5463
	.loc 1 6066 31 view .LVU5464
	.loc 1 6066 130 view .LVU5465
	.loc 1 6066 6 view .LVU5466
	.loc 1 6066 29 view .LVU5467
	.loc 1 6066 53 view .LVU5468
	.loc 1 6066 81 view .LVU5469
	.loc 1 6066 257 view .LVU5470
	.loc 1 6066 17 view .LVU5471
.LBB3454:
.LBB3424:
.LBB3420:
.LBB3416:
	.loc 1 6066 30 view .LVU5472
	.loc 1 6066 4 view .LVU5473
	.loc 1 6066 4 view .LVU5474
	.loc 1 6066 71 view .LVU5475
	.loc 1 6066 75 view .LVU5476
	.loc 1 6066 485 view .LVU5477
	.loc 1 6066 6 view .LVU5478
	.loc 1 6066 8 view .LVU5479
	.loc 1 6066 13 view .LVU5480
	.loc 1 6066 11 view .LVU5481
	.loc 1 6066 6 view .LVU5482
	.loc 1 6066 24 view .LVU5483
.LBB3408:
	.loc 1 6066 4 view .LVU5484
	.loc 1 6066 369 view .LVU5485
	.loc 1 6066 76 view .LVU5486
.LVL628:
	.loc 1 6066 3 view .LVU5487
	.loc 1 6066 3 view .LVU5488
	.loc 1 6066 3 view .LVU5489
	.loc 1 6066 39 view .LVU5490
	.loc 1 6066 68 view .LVU5491
	.loc 1 6066 94 view .LVU5492
	.loc 1 6066 120 view .LVU5493
	.loc 1 6066 143 view .LVU5494
	.loc 1 6066 205 view .LVU5495
	.loc 1 6066 262 view .LVU5496
	.loc 1 6066 327 view .LVU5497
	.loc 1 6066 352 view .LVU5498
	.loc 1 6066 353 view .LVU5499
	.loc 1 6066 355 view .LVU5500
	.loc 1 6066 385 view .LVU5501
	.loc 1 6066 415 view .LVU5502
	.loc 1 6066 447 view .LVU5503
	.loc 1 6066 479 view .LVU5504
	.loc 1 6066 511 view .LVU5505
	.loc 1 6066 708 view .LVU5506
	.loc 1 6066 732 view .LVU5507
	.loc 1 6066 733 view .LVU5508
	.loc 1 6066 735 view .LVU5509
	.loc 1 6066 764 view .LVU5510
	.loc 1 6066 793 view .LVU5511
	.loc 1 6066 824 view .LVU5512
	.loc 1 6066 855 view .LVU5513
	.loc 1 6066 886 view .LVU5514
	.loc 1 6066 1093 view .LVU5515
	.loc 1 6066 5 view .LVU5516
	.loc 1 6066 23 view .LVU5517
	.loc 1 6066 43 view .LVU5518
	.loc 1 6066 5 view .LVU5519
	.loc 1 6066 43 view .LVU5520
	.loc 1 6066 14 view .LVU5521
	.loc 1 6066 14 view .LVU5522
	.loc 1 6066 62 view .LVU5523
	.loc 1 6066 93 view .LVU5524
	.loc 1 6066 127 view .LVU5525
.LBB3409:
	.loc 1 6066 132 view .LVU5526
	.loc 1 6066 442 view .LVU5527
	.loc 1 6066 1735 view .LVU5528
	.loc 1 6066 1800 view .LVU5529
.LBE3409:
.LBE3408:
.LBE3416:
.LBE3420:
.LBE3424:
.LBE3454:
	.loc 1 6066 1824 view .LVU5530
	.loc 1 6066 1938 view .LVU5531
	.loc 1 6066 1949 view .LVU5532
	.loc 1 6066 2121 view .LVU5533
.LBB3455:
.LBB3425:
.LBB3421:
.LBB3417:
.LBB3413:
.LBB3410:
	.loc 1 6066 2137 view .LVU5534
	.loc 1 6066 2177 view .LVU5535
	.loc 1 6066 2202 view .LVU5536
	.loc 1 6066 3611 view .LVU5537
	.loc 1 6066 3649 view .LVU5538
	.loc 1 6066 3654 view .LVU5539
	.loc 1 6066 0 view .LVU5540
	ldr	r3, .L437+28
	str	r3, [r7, #36]
	.loc 1 6066 3652 view .LVU5541
	.loc 1 6066 8 view .LVU5542
.LVL629:
	.loc 1 6066 31 view .LVU5543
	.loc 1 6066 31 is_stmt 0 view .LVU5544
.LBE3410:
	.loc 1 6066 130 is_stmt 1 view .LVU5545
	.loc 1 6066 6 view .LVU5546
	.loc 1 6066 29 view .LVU5547
	.loc 1 6066 53 view .LVU5548
	.loc 1 6066 81 view .LVU5549
.LBE3413:
.LBE3417:
.LBE3421:
.LBE3425:
.LBE3455:
	.loc 1 6066 7 view .LVU5550
	.loc 1 6066 46 view .LVU5551
	.loc 1 6066 51 view .LVU5552
	.loc 1 6066 81 view .LVU5553
	.loc 1 6066 148 view .LVU5554
	.loc 1 6066 153 view .LVU5555
	.loc 1 6066 183 view .LVU5556
.LBB3456:
.LBB3426:
.LBB3422:
.LBB3418:
.LBB3414:
	.loc 1 6066 257 view .LVU5557
	.loc 1 6066 17 view .LVU5558
.LBB3411:
	.loc 1 6066 7 view .LVU5559
	.loc 1 6066 165 view .LVU5560
	.loc 1 6066 167 view .LVU5561
	.loc 1 6066 177 is_stmt 0 view .LVU5562
	movs	r3, #2
.LBE3411:
.LBE3414:
	.loc 1 6066 150 view .LVU5563
	ldr	r0, .L437+4
.LVL630:
.LBB3415:
.LBB3412:
	.loc 1 6066 177 view .LVU5564
	str	r3, [r7, #32]
.LVL631:
	.loc 1 6066 177 view .LVU5565
.LBE3412:
.LBE3415:
	.loc 1 6066 27 is_stmt 1 view .LVU5566
	.loc 1 6066 8 view .LVU5567
	.loc 1 6066 148 view .LVU5568
	.loc 1 6066 150 view .LVU5569
	add	r2, r7, #32
.LVL632:
	.loc 1 6066 150 is_stmt 0 view .LVU5570
	mov	r1, #4224
	bl	z_log_msg_static_create.constprop.0
.LVL633:
	.loc 1 6066 150 view .LVU5571
.LBE3418:
	.loc 1 6066 108 is_stmt 1 view .LVU5572
	.loc 1 6066 6 view .LVU5573
.LVL634:
