	.cpu cortex-m4
	.arch armv7e-m
	.fpu fpv4-sp-d16
	.eabi_attribute 27, 1
	.eabi_attribute 28, 1
	.eabi_attribute 20, 1
	.eabi_attribute 21, 1
	.eabi_attribute 23, 3
	.eabi_attribute 24, 1
	.eabi_attribute 25, 1
	.eabi_attribute 26, 1
	.eabi_attribute 30, 4
	.eabi_attribute 34, 1
	.eabi_attribute 38, 1
	.eabi_attribute 18, 4
	.file	"hci_core.c"
	.text
.Ltext0:
	.cfi_sections	.debug_frame
	.file 1 "/home/g/mise-work/zmk-firmware/zmk/zephyr/subsys/bluetooth/host/hci_core.c"
	.section	.text.bt_hci_evt_get_flags,"ax",%progbits
	.align	1
	.syntax unified
	.thumb
	.thumb_func
	.type	bt_hci_evt_get_flags, %function
bt_hci_evt_get_flags:
.LVL0:
.LFB585:
	.file 2 "/home/g/mise-work/zmk-firmware/zmk/zephyr/include/zephyr/drivers/bluetooth/hci_driver.h"
	.loc 2 61 1 view -0
	.cfi_startproc
	@ args = 0, pretend = 0, frame = 0
	@ frame_needed = 0, uses_anonymous_args = 0
	@ link register save eliminated.
	.loc 2 62 2 view .LVU1
	cmp	r0, #15
	bhi	.L2
	cmp	r0, #13
	bhi	.L6
	.loc 2 77 10 is_stmt 0 view .LVU2
	cmp	r0, #5
	it	eq
	moveq	r0, #3
.LVL1:
.L8:
	.loc 2 77 10 view .LVU3
	it	ne
	movne	r0, #2
	bx	lr
.LVL2:
.L2:
	.loc 2 62 2 view .LVU4
	cmp	r0, #19
	beq	.L6
	.loc 2 77 10 view .LVU5
	cmp	r0, #26
	it	eq
	moveq	r0, #1
.LVL3:
	.loc 2 77 10 view .LVU6
	b	.L8
.LVL4:
.L6:
	.loc 2 62 2 view .LVU7
	movs	r0, #1
.LVL5:
	.loc 2 79 1 view .LVU8
	bx	lr
	.cfi_endproc
.LFE585:
	.size	bt_hci_evt_get_flags, .-bt_hci_evt_get_flags
	.section	.text.update_sec_level,"ax",%progbits
	.align	1
	.syntax unified
	.thumb
	.thumb_func
	.type	update_sec_level, %function
update_sec_level:
.LVL6:
.LFB639:
	.loc 1 2012 1 is_stmt 1 view -0
	.cfi_startproc
	@ args = 0, pretend = 0, frame = 0
	@ frame_needed = 0, uses_anonymous_args = 0
	@ link register save eliminated.
	.loc 1 2013 2 view .LVU10
	.loc 1 2013 14 is_stmt 0 view .LVU11
	ldr	r3, [r0, #184]
	.loc 1 2013 5 view .LVU12
	cbz	r3, .L12
	.loc 1 2013 37 discriminator 1 view .LVU13
	ldrb	r2, [r3, #13]	@ zero_extendqisi2
	.loc 1 2013 20 discriminator 1 view .LVU14
	lsls	r1, r2, #31
	bpl	.L12
	.loc 1 2014 3 is_stmt 1 view .LVU15
	.loc 1 2014 6 is_stmt 0 view .LVU16
	lsls	r2, r2, #27
	bpl	.L13
	.loc 1 2014 41 discriminator 1 view .LVU17
	ldrb	r3, [r3, #12]	@ zero_extendqisi2
	cmp	r3, #16
	ite	ne
	movne	r3, #3
	moveq	r3, #4
.L10:
	.loc 1 2018 20 view .LVU18
	strb	r3, [r0, #9]
	.loc 1 2024 2 is_stmt 1 view .LVU19
	.loc 1 2024 9 is_stmt 0 view .LVU20
	ldrb	r0, [r0, #10]	@ zero_extendqisi2
.LVL7:
	.loc 1 2025 1 view .LVU21
	cmp	r0, r3
	ite	hi
	movhi	r0, #0
	movls	r0, #1
	bx	lr
.LVL8:
.L12:
	.loc 1 2025 1 view .LVU22
	movs	r3, #2
	b	.L10
.L13:
	movs	r3, #3
	b	.L10
	.cfi_endproc
.LFE639:
	.size	update_sec_level, .-update_sec_level
	.section	.text.hci_vendor_event,"ax",%progbits
	.align	1
	.syntax unified
	.thumb
	.thumb_func
	.type	hci_vendor_event, %function
hci_vendor_event:
.LVL9:
.LFB651:
	.loc 1 2411 1 is_stmt 1 view -0
	.cfi_startproc
	@ args = 0, pretend = 0, frame = 0
	@ frame_needed = 0, uses_anonymous_args = 0
	@ link register save eliminated.
	.loc 1 2412 1 view .LVU24
	.loc 1 2426 2 view .LVU25
	.loc 1 2435 1 is_stmt 0 view .LVU26
	bx	lr
	.cfi_endproc
.LFE651:
	.size	hci_vendor_event, .-hci_vendor_event
	.section	.rodata.ver_str.str1.1,"aMS",%progbits,1
.LC15:
	.ascii	"unknown\000"
	.section	.text.ver_str,"ax",%progbits
	.align	1
	.syntax unified
	.thumb
	.thumb_func
	.type	ver_str, %function
ver_str:
.LVL10:
.LFB673:
	.loc 1 3436 1 is_stmt 1 view -0
	.cfi_startproc
	@ args = 0, pretend = 0, frame = 56
	@ frame_needed = 0, uses_anonymous_args = 0
	.loc 1 3437 2 view .LVU28
	.loc 1 3436 1 is_stmt 0 view .LVU29
	push	{r4, r5, r6, lr}
	.cfi_def_cfa_offset 16
	.cfi_offset 4, -16
	.cfi_offset 5, -12
	.cfi_offset 6, -8
	.cfi_offset 14, -4
	.loc 1 3437 21 view .LVU30
	ldr	r5, .L19
	.loc 1 3436 1 view .LVU31
	mov	r6, r0
	.loc 1 3437 21 view .LVU32
	ldmia	r5!, {r0, r1, r2, r3}
.LVL11:
	.loc 1 3436 1 view .LVU33
	sub	sp, sp, #56
	.cfi_def_cfa_offset 72
	.loc 1 3437 21 view .LVU34
	mov	r4, sp
	stmia	r4!, {r0, r1, r2, r3}
	ldmia	r5!, {r0, r1, r2, r3}
	stmia	r4!, {r0, r1, r2, r3}
	ldmia	r5!, {r0, r1, r2, r3}
	stmia	r4!, {r0, r1, r2, r3}
	ldm	r5, {r0, r1}
	.loc 1 3442 5 view .LVU35
	cmp	r6, #13
	.loc 1 3437 21 view .LVU36
	stm	r4, {r0, r1}
	.loc 1 3442 2 is_stmt 1 view .LVU37
	.loc 1 3443 3 view .LVU38
	.loc 1 3443 13 is_stmt 0 view .LVU39
	ittet	ls
	addls	r3, sp, #56
	addls	r6, r3, r6, lsl #2
	.loc 1 3446 9 view .LVU40
	ldrhi	r0, .L19+4
	.loc 1 3443 13 view .LVU41
	ldrls	r0, [r6, #-56]
	.loc 1 3447 1 view .LVU42
	add	sp, sp, #56
	.cfi_def_cfa_offset 16
	@ sp needed
	pop	{r4, r5, r6, pc}
.L20:
	.align	2
.L19:
	.word	.LANCHOR0
	.word	.LC15
	.cfi_endproc
.LFE673:
	.size	ver_str, .-ver_str
	.section	.text.atomic_or,"ax",%progbits
	.align	1
	.syntax unified
	.thumb
	.thumb_func
	.type	atomic_or, %function
atomic_or:
.LVL12:
.LFB12:
	.file 3 "/home/g/mise-work/zmk-firmware/zmk/zephyr/include/zephyr/sys/atomic_builtin.h"
	.loc 3 280 1 is_stmt 1 view -0
	.cfi_startproc
	@ args = 0, pretend = 0, frame = 0
	@ frame_needed = 0, uses_anonymous_args = 0
	.loc 3 281 2 view .LVU44
	.loc 3 280 1 is_stmt 0 view .LVU45
	push	{r4, lr}
	.cfi_def_cfa_offset 8
	.cfi_offset 4, -8
	.cfi_offset 14, -4
	.loc 3 280 1 view .LVU46
	mov	r3, r0
	.loc 3 282 1 view .LVU47
	dmb	ish
.LVL13:
.L22:
	.loc 3 282 1 view .LVU48
	ldrex	r0, [r3]
	orr	r2, r0, r1
	strex	r4, r2, [r3]
	cmp	r4, #0
	bne	.L22
	dmb	ish
	pop	{r4, pc}
	.cfi_endproc
.LFE12:
	.size	atomic_or, .-atomic_or
	.section	.text.unpair,"ax",%progbits
	.align	1
	.syntax unified
	.thumb
	.thumb_func
	.type	unpair, %function
unpair:
.LVL14:
.LFB635:
	.loc 1 1906 1 is_stmt 1 view -0
	.cfi_startproc
	@ args = 0, pretend = 0, frame = 0
	@ frame_needed = 0, uses_anonymous_args = 0
	.loc 1 1907 2 view .LVU50
	.loc 1 1908 2 view .LVU51
	.loc 1 1906 1 is_stmt 0 view .LVU52
	push	{r3, r4, r5, r6, r7, lr}
	.cfi_def_cfa_offset 24
	.cfi_offset 3, -24
	.cfi_offset 4, -20
	.cfi_offset 5, -16
	.cfi_offset 6, -12
	.cfi_offset 7, -8
	.cfi_offset 14, -4
	.loc 1 1906 1 view .LVU53
	mov	r6, r0
	mov	r7, r1
	.loc 1 1908 25 view .LVU54
	bl	bt_conn_lookup_addr_le
.LVL15:
	.loc 1 1910 2 is_stmt 1 view .LVU55
	.loc 1 1910 5 is_stmt 0 view .LVU56
	mov	r4, r0
	cbz	r0, .L25
	.loc 1 1915 3 is_stmt 1 view .LVU57
	.loc 1 1915 6 is_stmt 0 view .LVU58
	ldrb	r3, [r0, #2]	@ zero_extendqisi2
	cmp	r3, #1
	beq	.L26
	.loc 1 1920 3 is_stmt 1 view .LVU59
	movs	r1, #19
	bl	bt_conn_disconnect
.LVL16:
	.loc 1 1921 3 view .LVU60
	mov	r0, r4
	bl	bt_conn_unref
.LVL17:
	.loc 1 1924 2 view .LVU61
	.loc 1 1931 2 view .LVU62
	.loc 1 1932 3 view .LVU63
.L25:
	.loc 1 1933 4 view .LVU64
	.loc 1 1933 11 is_stmt 0 view .LVU65
	mov	r1, r7
	mov	r0, r6
	bl	bt_keys_find_addr
.LVL18:
	.loc 1 1936 3 is_stmt 1 view .LVU66
	.loc 1 1936 6 is_stmt 0 view .LVU67
	mov	r5, r0
	cbnz	r0, .L28
.LVL19:
.L29:
	.loc 1 1941 2 is_stmt 1 view .LVU68
	mov	r1, r7
	mov	r0, r6
	bl	bt_gatt_clear
.LVL20:
	.loc 1 1944 2 view .LVU69
	.loc 1 1946 2 view .LVU70
.LBB3907:
.LBI3907:
	.file 4 "/home/g/mise-work/zmk-firmware/zmk/zephyr/include/zephyr/sys/slist.h"
	.loc 4 238 28 view .LVU71
.LBB3908:
	.loc 4 240 2 view .LVU72
	.loc 4 240 13 is_stmt 0 view .LVU73
	ldr	r3, .L53
	ldr	r3, [r3]
.LVL21:
	.loc 4 240 13 view .LVU74
.LBE3908:
.LBE3907:
	.loc 1 1946 8 view .LVU75
	cbz	r3, .L23
.LVL22:
.LBB3909:
.LBI3909:
	.loc 4 292 29 is_stmt 1 view .LVU76
	.loc 4 292 70 view .LVU77
.LBB3910:
.LBI3910:
	.loc 4 281 29 view .LVU78
	.loc 4 281 79 view .LVU79
.LBB3911:
.LBI3911:
	.loc 4 211 28 view .LVU80
.LBB3912:
	.loc 4 213 2 view .LVU81
	.loc 4 213 13 is_stmt 0 view .LVU82
	ldr	r4, [r3]
.LVL23:
	.loc 4 213 13 view .LVU83
.LBE3912:
.LBE3911:
.LBE3910:
.LBE3909:
	.loc 1 1946 8 view .LVU84
	cbz	r4, .L31
	subs	r4, r4, #12
.L31:
.LVL24:
	.loc 1 1946 13 is_stmt 1 view .LVU85
	.loc 1 1948 3 view .LVU86
	.loc 1 1948 15 is_stmt 0 view .LVU87
	ldr	r3, [r3, #-4]
.LVL25:
	.loc 1 1948 6 view .LVU88
	cbz	r3, .L36
.LVL26:
.L34:
	.loc 1 1949 4 is_stmt 1 view .LVU89
	mov	r1, r7
	mov	r0, r6
	blx	r3
.LVL27:
.L36:
	.loc 1 1946 18 view .LVU90
	.loc 1 1946 3 is_stmt 0 view .LVU91
	cbz	r4, .L23
.LVL28:
.L52:
	.loc 1 1946 3 view .LVU92
	mov	r3, r4
.LVL29:
.LBB3913:
.LBI3913:
	.loc 4 292 29 is_stmt 1 view .LVU93
	.loc 4 292 70 view .LVU94
.LBB3914:
.LBI3914:
	.loc 4 281 29 view .LVU95
	.loc 4 281 79 view .LVU96
.LBB3915:
.LBI3915:
	.loc 4 211 28 view .LVU97
.LBB3916:
	.loc 4 213 2 view .LVU98
	.loc 4 213 13 is_stmt 0 view .LVU99
	ldr	r4, [r4, #12]
.LVL30:
	.loc 4 213 13 view .LVU100
	ldr	r3, [r3, #8]
.LBE3916:
.LBE3915:
.LBE3914:
.LBE3913:
	.loc 1 1946 8 view .LVU101
	cbz	r4, .L33
	subs	r4, r4, #12
.LVL31:
	.loc 1 1946 13 is_stmt 1 view .LVU102
	.loc 1 1948 3 view .LVU103
	.loc 1 1948 6 is_stmt 0 view .LVU104
	cmp	r3, #0
	bne	.L34
	b	.L52
.LVL32:
.L26:
	.loc 1 1916 4 is_stmt 1 view .LVU105
	.loc 1 1917 18 is_stmt 0 view .LVU106
	movs	r3, #0
	.loc 1 1916 9 view .LVU107
	ldr	r5, [r0, #184]
.LVL33:
	.loc 1 1917 4 is_stmt 1 view .LVU108
	.loc 1 1917 18 is_stmt 0 view .LVU109
	str	r3, [r0, #184]
	.loc 1 1920 3 is_stmt 1 view .LVU110
	movs	r1, #19
	bl	bt_conn_disconnect
.LVL34:
	.loc 1 1921 3 view .LVU111
	mov	r0, r4
	bl	bt_conn_unref
.LVL35:
	.loc 1 1924 2 view .LVU112
	.loc 1 1931 2 view .LVU113
	.loc 1 1932 3 view .LVU114
	.loc 1 1932 6 is_stmt 0 view .LVU115
	cmp	r5, #0
	beq	.L25
.L28:
.LVL36:
	.loc 1 1937 4 is_stmt 1 view .LVU116
	mov	r0, r5
	bl	bt_keys_clear
.LVL37:
	b	.L29
.LVL38:
.L33:
	.loc 1 1946 13 view .LVU117
	.loc 1 1948 3 view .LVU118
	.loc 1 1948 6 is_stmt 0 view .LVU119
	cmp	r3, #0
	bne	.L34
.LVL39:
.L23:
	.loc 1 1953 1 view .LVU120
	pop	{r3, r4, r5, r6, r7, pc}
.LVL40:
.L54:
	.loc 1 1953 1 view .LVU121
	.align	2
.L53:
	.word	bt_auth_info_cbs
	.cfi_endproc
.LFE635:
	.size	unpair, .-unpair
	.section	.text.unpair_remote,"ax",%progbits
	.align	1
	.syntax unified
	.thumb
	.thumb_func
	.type	unpair_remote, %function
unpair_remote:
.LVL41:
.LFB636:
	.loc 1 1956 1 is_stmt 1 view -0
	.cfi_startproc
	@ args = 0, pretend = 0, frame = 0
	@ frame_needed = 0, uses_anonymous_args = 0
	@ link register save eliminated.
	.loc 1 1957 2 view .LVU123
	.loc 1 1956 1 is_stmt 0 view .LVU124
	mov	r3, r1
.LVL42:
	.loc 1 1959 2 is_stmt 1 view .LVU125
	mov	r1, r0
.LVL43:
	.loc 1 1959 2 is_stmt 0 view .LVU126
	ldrb	r0, [r3]	@ zero_extendqisi2
.LVL44:
	.loc 1 1959 2 view .LVU127
	b	unpair
.LVL45:
	.loc 1 1959 2 view .LVU128
	.cfi_endproc
.LFE636:
	.size	unpair_remote, .-unpair_remote
	.section	.text.hci_disconn_complete_prio,"ax",%progbits
	.align	1
	.syntax unified
	.thumb
	.thumb_func
	.type	hci_disconn_complete_prio, %function
hci_disconn_complete_prio:
.LVL46:
.LFB610:
	.loc 1 823 1 is_stmt 1 view -0
	.cfi_startproc
	@ args = 0, pretend = 0, frame = 0
	@ frame_needed = 0, uses_anonymous_args = 0
	.loc 1 824 2 view .LVU130
	.loc 1 823 1 is_stmt 0 view .LVU131
	push	{r3, r4, r5, lr}
	.cfi_def_cfa_offset 16
	.cfi_offset 3, -16
	.cfi_offset 4, -12
	.cfi_offset 5, -8
	.cfi_offset 14, -4
	.loc 1 824 38 view .LVU132
	ldr	r3, [r0, #12]
.LVL47:
	.loc 1 825 2 is_stmt 1 view .LVU133
	.loc 1 825 11 is_stmt 0 view .LVU134
	ldrh	r4, [r3, #1]	@ unaligned
.LVL48:
	.loc 1 826 2 is_stmt 1 view .LVU135
	.loc 1 828 2 view .LVU136
.LBB3924:
	.loc 1 828 7 view .LVU137
.LBE3924:
	.loc 1 828 5 view .LVU138
	.loc 1 830 2 view .LVU139
	.loc 1 830 5 is_stmt 0 view .LVU140
	ldrb	r3, [r3]	@ zero_extendqisi2
.LVL49:
	.loc 1 830 5 view .LVU141
	cbnz	r3, .L56
	.loc 1 834 2 is_stmt 1 view .LVU142
	.loc 1 834 9 is_stmt 0 view .LVU143
	movs	r1, #15
	mov	r0, r4
.LVL50:
	.loc 1 834 9 view .LVU144
	bl	bt_conn_lookup_handle
.LVL51:
	.loc 1 835 2 is_stmt 1 view .LVU145
	.loc 1 835 5 is_stmt 0 view .LVU146
	mov	r5, r0
	cbnz	r0, .L59
.LBB3925:
.LBB3926:
	.loc 1 803 53 view .LVU147
	mvn	r0, r4, lsl #20
.LVL52:
	.loc 1 803 53 view .LVU148
	ldr	r2, .L64
.LBE3926:
.LBE3925:
	.loc 1 835 5 view .LVU149
	movs	r3, #5
.LBB3928:
.LBB3927:
	.loc 1 803 53 view .LVU150
	mvn	r0, r0, lsr #20
.L61:
.LVL53:
	.loc 1 799 3 is_stmt 1 view .LVU151
	.loc 1 799 28 is_stmt 0 view .LVU152
	ldrh	r1, [r2], #2
	.loc 1 799 6 view .LVU153
	cbnz	r1, .L60
	.loc 1 803 4 is_stmt 1 view .LVU154
	.loc 1 803 28 is_stmt 0 view .LVU155
	strh	r0, [r2, #-2]	@ movhi
.L60:
	.loc 1 798 247 is_stmt 1 view .LVU156
.LVL54:
	.loc 1 798 20 view .LVU157
	subs	r3, r3, #1
.LVL55:
	.loc 1 798 20 is_stmt 0 view .LVU158
	bne	.L61
.LVL56:
.L56:
	.loc 1 798 20 view .LVU159
.LBE3927:
.LBE3928:
	.loc 1 845 1 view .LVU160
	pop	{r3, r4, r5, pc}
.LVL57:
.L59:
	.loc 1 843 2 is_stmt 1 view .LVU161
	movs	r1, #1
	bl	bt_conn_set_state
.LVL58:
	.loc 1 844 2 view .LVU162
	mov	r0, r5
	.loc 1 845 1 is_stmt 0 view .LVU163
	pop	{r3, r4, r5, lr}
	.cfi_restore 14
	.cfi_restore 5
	.cfi_restore 4
	.cfi_restore 3
	.cfi_def_cfa_offset 0
.LVL59:
	.loc 1 844 2 view .LVU164
	b	bt_conn_unref
.LVL60:
.L65:
	.loc 1 844 2 view .LVU165
	.align	2
.L64:
	.word	disconnected_handles
	.cfi_endproc
.LFE610:
	.size	hci_disconn_complete_prio, .-hci_disconn_complete_prio
	.section	.text.bt_addr_copy,"ax",%progbits
	.align	1
	.syntax unified
	.thumb
	.thumb_func
	.type	bt_addr_copy, %function
bt_addr_copy:
.LVL61:
.LFB562:
	.file 5 "/home/g/mise-work/zmk-firmware/zmk/zephyr/include/zephyr/bluetooth/addr.h"
	.loc 5 128 1 is_stmt 1 view -0
	.cfi_startproc
	@ args = 0, pretend = 0, frame = 0
	@ frame_needed = 0, uses_anonymous_args = 0
	@ link register save eliminated.
	.loc 5 129 1 view .LVU167
.LBB3933:
.LBI3933:
	.loc 5 127 20 view .LVU168
.LBB3934:
.LBI3934:
	.file 6 "/home/g/zephyr-sdk-0.16.3/arm-zephyr-eabi/picolibc/include/ssp/string.h"
	.loc 6 83 216 view .LVU169
.LBB3935:
	.loc 6 83 292 view .LVU170
	.loc 6 83 299 is_stmt 0 view .LVU171
	ldr	r3, [r1]	@ unaligned
	str	r3, [r0]	@ unaligned
	ldrh	r3, [r1, #4]	@ unaligned
	strh	r3, [r0, #4]	@ unaligned
.LVL62:
	.loc 6 83 299 view .LVU172
.LBE3935:
.LBE3934:
.LBE3933:
	.loc 5 130 1 view .LVU173
	bx	lr
	.cfi_endproc
.LFE562:
	.size	bt_addr_copy, .-bt_addr_copy
	.section	.text.bt_addr_le_copy,"ax",%progbits
	.align	1
	.syntax unified
	.thumb
	.thumb_func
	.type	bt_addr_le_copy, %function
bt_addr_le_copy:
.LVL63:
.LFB563:
	.loc 5 138 1 is_stmt 1 view -0
	.cfi_startproc
	@ args = 0, pretend = 0, frame = 0
	@ frame_needed = 0, uses_anonymous_args = 0
	@ link register save eliminated.
	.loc 5 139 1 view .LVU175
.LBB3940:
.LBI3940:
	.loc 5 137 20 view .LVU176
.LBB3941:
.LBI3941:
	.loc 6 83 216 view .LVU177
.LBB3942:
	.loc 6 83 292 view .LVU178
	.loc 6 83 299 is_stmt 0 view .LVU179
	ldr	r3, [r1]	@ unaligned
	str	r3, [r0]	@ unaligned
	ldrh	r3, [r1, #4]	@ unaligned
	strh	r3, [r0, #4]	@ unaligned
	ldrb	r3, [r1, #6]	@ zero_extendqisi2
	strb	r3, [r0, #6]
.LVL64:
	.loc 6 83 299 view .LVU180
.LBE3942:
.LBE3941:
.LBE3940:
	.loc 5 140 1 view .LVU181
	bx	lr
	.cfi_endproc
.LFE563:
	.size	bt_addr_le_copy, .-bt_addr_le_copy
	.section	.text.find_pending_connect.part.0,"ax",%progbits
	.align	1
	.syntax unified
	.thumb
	.thumb_func
	.type	find_pending_connect.part.0, %function
find_pending_connect.part.0:
.LVL65:
.LFB699:
	.loc 1 1013 24 is_stmt 1 view -0
	.cfi_startproc
	@ args = 0, pretend = 0, frame = 0
	@ frame_needed = 0, uses_anonymous_args = 0
	.loc 1 1034 3 view .LVU183
	.loc 1 1013 24 is_stmt 0 view .LVU184
	push	{r4, lr}
	.cfi_def_cfa_offset 8
	.cfi_offset 4, -8
	.cfi_offset 14, -4
	.loc 1 1034 10 view .LVU185
	ldr	r4, .L70
	.loc 1 1013 24 view .LVU186
	mov	r1, r0
	.loc 1 1034 10 view .LVU187
	movs	r2, #5
	ldrb	r0, [r4, #111]	@ zero_extendqisi2
.LVL66:
	.loc 1 1034 10 view .LVU188
	bl	bt_conn_lookup_state_le
.LVL67:
	.loc 1 1036 3 is_stmt 1 view .LVU189
	.loc 1 1036 6 is_stmt 0 view .LVU190
	cbnz	r0, .L68
	.loc 1 1037 4 is_stmt 1 view .LVU191
	.loc 1 1037 11 is_stmt 0 view .LVU192
	ldrb	r0, [r4, #111]	@ zero_extendqisi2
.LVL68:
	.loc 1 1037 11 view .LVU193
	ldr	r1, .L70+4
	.loc 1 1046 1 view .LVU194
	pop	{r4, lr}
	.cfi_remember_state
	.cfi_restore 14
	.cfi_restore 4
	.cfi_def_cfa_offset 0
	.loc 1 1037 11 view .LVU195
	movs	r2, #4
	b	bt_conn_lookup_state_le
.LVL69:
.L68:
	.cfi_restore_state
	.loc 1 1046 1 view .LVU196
	pop	{r4, pc}
.L71:
	.align	2
.L70:
	.word	bt_dev
	.word	bt_addr_le_none
	.cfi_endproc
.LFE699:
	.size	find_pending_connect.part.0, .-find_pending_connect.part.0
	.section	.text.z_log_msg_static_create.constprop.0,"ax",%progbits
	.align	1
	.syntax unified
	.thumb
	.thumb_func
	.type	z_log_msg_static_create.constprop.0, %function
z_log_msg_static_create.constprop.0:
.LVL70:
.LFB705:
	.file 7 "/home/g/mise-work/zmk-firmware/zmk/app/build/zephyr/include/generated/syscalls/log_msg.h"
	.loc 7 26 20 is_stmt 1 view -0
	.cfi_startproc
	@ args = 0, pretend = 0, frame = 0
	@ frame_needed = 0, uses_anonymous_args = 0
	@ link register save eliminated.
	.loc 7 38 2 view .LVU198
	.loc 7 38 7 view .LVU199
	.loc 7 38 5 view .LVU200
	.loc 7 39 2 view .LVU201
	movs	r3, #0
	b	z_impl_z_log_msg_static_create
.LVL71:
	.loc 7 39 2 is_stmt 0 view .LVU202
	.cfi_endproc
.LFE705:
	.size	z_log_msg_static_create.constprop.0, .-z_log_msg_static_create.constprop.0
	.section	.rodata.hci_data_buf_overflow.str1.1,"aMS",%progbits,1
.LC17:
	.ascii	"Data buffer overflow (link type 0x%02x)\000"
	.section	.text.hci_data_buf_overflow,"ax",%progbits
	.align	1
	.syntax unified
	.thumb
	.thumb_func
	.type	hci_data_buf_overflow, %function
hci_data_buf_overflow:
.LVL72:
.LFB605:
	.loc 1 544 1 is_stmt 1 view -0
	.cfi_startproc
	@ args = 0, pretend = 0, frame = 0
	@ frame_needed = 1, uses_anonymous_args = 0
	.loc 1 545 2 view .LVU204
	.loc 1 547 2 view .LVU205
.LBB3943:
	.loc 1 547 7 view .LVU206
	.loc 1 547 56 view .LVU207
	.loc 1 547 13 view .LVU208
	.loc 1 547 1 view .LVU209
	.loc 1 547 40 view .LVU210
	.loc 1 547 175 view .LVU211
	.loc 1 547 186 view .LVU212
	.loc 1 547 274 view .LVU213
.LBB3944:
	.loc 1 547 2 view .LVU214
	.loc 1 547 4 view .LVU215
.LBE3944:
.LBE3943:
	.loc 1 544 1 is_stmt 0 view .LVU216
	push	{r7, lr}
	.cfi_def_cfa_offset 8
	.cfi_offset 7, -8
	.cfi_offset 14, -4
.LBB3965:
.LBB3960:
	.loc 1 547 26 view .LVU217
	ldr	r3, [r0, #12]
.LBE3960:
.LBE3965:
	.loc 1 544 1 view .LVU218
	add	r7, sp, #0
	.cfi_def_cfa_register 7
.LBB3966:
.LBB3961:
.LBB3945:
.LBB3946:
	.loc 1 547 81 view .LVU219
	sub	sp, sp, #32
.LBE3946:
.LBE3945:
	.loc 1 547 16 view .LVU220
	ldrb	r3, [r3]	@ zero_extendqisi2
.LVL73:
	.loc 1 547 2 is_stmt 1 view .LVU221
.LBB3956:
	.loc 1 547 7 view .LVU222
	.loc 1 547 1 view .LVU223
.LBE3956:
.LBE3961:
.LBE3966:
	.loc 1 547 2 view .LVU224
	.loc 1 547 11 view .LVU225
	.loc 1 547 106 view .LVU226
	.loc 1 547 2 view .LVU227
.LBB3967:
.LBB3962:
.LBB3957:
	.loc 1 547 11 view .LVU228
	.loc 1 547 101 view .LVU229
	.loc 1 547 103 view .LVU230
.LBB3953:
	.loc 1 547 108 view .LVU231
	.loc 1 547 119 view .LVU232
	.loc 1 547 208 view .LVU233
	.loc 1 547 25 view .LVU234
.LBE3953:
.LBE3957:
.LBE3962:
.LBE3967:
	.loc 1 547 2 view .LVU235
	.loc 1 547 367 view .LVU236
	.loc 1 547 74 view .LVU237
	.loc 1 547 1 view .LVU238
	.loc 1 547 1 view .LVU239
	.loc 1 547 1 view .LVU240
	.loc 1 547 37 view .LVU241
	.loc 1 547 3 view .LVU242
	.loc 1 547 29 view .LVU243
	.loc 1 547 55 view .LVU244
	.loc 1 547 522 view .LVU245
	.loc 1 547 584 view .LVU246
	.loc 1 547 1105 view .LVU247
	.loc 1 547 1170 view .LVU248
	.loc 1 547 1195 view .LVU249
	.loc 1 547 1196 view .LVU250
	.loc 1 547 1198 view .LVU251
	.loc 1 547 1228 view .LVU252
	.loc 1 547 1258 view .LVU253
	.loc 1 547 1290 view .LVU254
	.loc 1 547 1322 view .LVU255
	.loc 1 547 1354 view .LVU256
	.loc 1 547 1551 view .LVU257
	.loc 1 547 1575 view .LVU258
	.loc 1 547 1576 view .LVU259
	.loc 1 547 1578 view .LVU260
	.loc 1 547 1607 view .LVU261
	.loc 1 547 1636 view .LVU262
	.loc 1 547 1667 view .LVU263
	.loc 1 547 1698 view .LVU264
	.loc 1 547 1729 view .LVU265
	.loc 1 547 1936 view .LVU266
	.loc 1 547 3 view .LVU267
	.loc 1 547 21 view .LVU268
	.loc 1 547 41 view .LVU269
	.loc 1 547 3 view .LVU270
	.loc 1 547 41 view .LVU271
	.loc 1 547 12 view .LVU272
	.loc 1 547 12 view .LVU273
	.loc 1 547 60 view .LVU274
	.loc 1 547 91 view .LVU275
	.loc 1 547 125 view .LVU276
	.loc 1 547 130 view .LVU277
	.loc 1 547 393 view .LVU278
	.loc 1 547 1498 view .LVU279
	.loc 1 547 1563 view .LVU280
	.loc 1 547 1587 view .LVU281
	.loc 1 547 1654 view .LVU282
	.loc 1 547 1665 view .LVU283
	.loc 1 547 1790 view .LVU284
	.loc 1 547 1806 view .LVU285
	.loc 1 547 1846 view .LVU286
	.loc 1 547 1871 view .LVU287
	.loc 1 547 3186 view .LVU288
	.loc 1 547 3227 view .LVU289
	.loc 1 547 6 view .LVU290
	.loc 1 547 29 view .LVU291
	.loc 1 547 128 view .LVU292
	.loc 1 547 5 view .LVU293
	.loc 1 547 10 view .LVU294
	.loc 1 547 235 view .LVU295
	.loc 1 547 1188 view .LVU296
	.loc 1 547 1253 view .LVU297
	.loc 1 547 1277 view .LVU298
	.loc 1 547 1306 view .LVU299
	.loc 1 547 1317 view .LVU300
	.loc 1 547 1404 view .LVU301
	.loc 1 547 1420 view .LVU302
	.loc 1 547 1460 view .LVU303
	.loc 1 547 2724 view .LVU304
	.loc 1 547 2765 view .LVU305
	.loc 1 547 6 view .LVU306
	.loc 1 547 29 view .LVU307
	.loc 1 547 8 view .LVU308
	.loc 1 547 4 view .LVU309
	.loc 1 547 27 view .LVU310
	.loc 1 547 51 view .LVU311
	.loc 1 547 79 view .LVU312
	.loc 1 547 255 view .LVU313
	.loc 1 547 15 view .LVU314
.LBB3968:
.LBB3963:
.LBB3958:
.LBB3954:
	.loc 1 547 28 view .LVU315
	.loc 1 547 2 view .LVU316
	.loc 1 547 2 view .LVU317
	.loc 1 547 69 view .LVU318
	.loc 1 547 81 is_stmt 0 view .LVU319
	mov	r2, sp
.LVL74:
	.loc 1 547 73 is_stmt 1 view .LVU320
	.loc 1 547 483 view .LVU321
	.loc 1 547 4 view .LVU322
	.loc 1 547 6 view .LVU323
	.loc 1 547 11 view .LVU324
	.loc 1 547 9 view .LVU325
	.loc 1 547 4 view .LVU326
	.loc 1 547 22 view .LVU327
.LBB3947:
	.loc 1 547 2 view .LVU328
	.loc 1 547 367 view .LVU329
	.loc 1 547 74 view .LVU330
.LVL75:
	.loc 1 547 1 view .LVU331
	.loc 1 547 1 view .LVU332
	.loc 1 547 1 view .LVU333
	.loc 1 547 37 view .LVU334
	.loc 1 547 66 view .LVU335
	.loc 1 547 92 view .LVU336
	.loc 1 547 118 view .LVU337
	.loc 1 547 585 view .LVU338
	.loc 1 547 647 view .LVU339
	.loc 1 547 1168 view .LVU340
	.loc 1 547 1233 view .LVU341
	.loc 1 547 1258 view .LVU342
	.loc 1 547 1259 view .LVU343
	.loc 1 547 1261 view .LVU344
	.loc 1 547 1291 view .LVU345
	.loc 1 547 1321 view .LVU346
	.loc 1 547 1353 view .LVU347
	.loc 1 547 1385 view .LVU348
	.loc 1 547 1417 view .LVU349
	.loc 1 547 1614 view .LVU350
	.loc 1 547 1638 view .LVU351
	.loc 1 547 1639 view .LVU352
	.loc 1 547 1641 view .LVU353
	.loc 1 547 1670 view .LVU354
	.loc 1 547 1699 view .LVU355
	.loc 1 547 1730 view .LVU356
	.loc 1 547 1761 view .LVU357
	.loc 1 547 1792 view .LVU358
	.loc 1 547 1999 view .LVU359
.LBB3948:
	.loc 1 547 3224 view .LVU360
	.loc 1 547 3229 view .LVU361
	.loc 1 547 3901 view .LVU362
	.loc 1 547 0 is_stmt 0 view .LVU363
	ldr	r1, .L74
.LBE3948:
.LBE3947:
	.loc 1 547 148 view .LVU364
	ldr	r0, .L74+4
.LVL76:
.LBB3951:
.LBB3949:
	.loc 1 547 3810 view .LVU365
	strd	r1, r3, [r2, #20]
	.loc 1 547 2765 is_stmt 1 view .LVU366
	.loc 1 547 6 view .LVU367
.LVL77:
	.loc 1 547 29 view .LVU368
	.loc 1 547 29 is_stmt 0 view .LVU369
.LBE3949:
	.loc 1 547 8 is_stmt 1 view .LVU370
	.loc 1 547 4 view .LVU371
	.loc 1 547 27 view .LVU372
	.loc 1 547 51 view .LVU373
	.loc 1 547 79 view .LVU374
.LBE3951:
.LBE3954:
.LBE3958:
.LBE3963:
.LBE3968:
	.loc 1 547 5 view .LVU375
	.loc 1 547 44 view .LVU376
	.loc 1 547 49 view .LVU377
	.loc 1 547 79 view .LVU378
	.loc 1 547 146 view .LVU379
	.loc 1 547 151 view .LVU380
	.loc 1 547 181 view .LVU381
.LBB3969:
.LBB3964:
.LBB3959:
.LBB3955:
.LBB3952:
	.loc 1 547 255 view .LVU382
	.loc 1 547 15 view .LVU383
.LBB3950:
	.loc 1 547 5 view .LVU384
	.loc 1 547 163 view .LVU385
	.loc 1 547 165 view .LVU386
	.loc 1 547 175 is_stmt 0 view .LVU387
	movs	r3, #3
.LVL78:
	.loc 1 547 175 view .LVU388
	str	r3, [r2, #16]!
.LVL79:
	.loc 1 547 175 view .LVU389
.LBE3950:
.LBE3952:
	.loc 1 547 25 is_stmt 1 view .LVU390
	.loc 1 547 6 view .LVU391
	.loc 1 547 146 view .LVU392
	.loc 1 547 148 view .LVU393
	mov	r1, #6272
	bl	z_log_msg_static_create.constprop.0
.LVL80:
	.loc 1 547 148 is_stmt 0 view .LVU394
.LBE3955:
	.loc 1 547 106 is_stmt 1 view .LVU395
	.loc 1 547 4 view .LVU396
	.loc 1 547 41 view .LVU397
.LBE3959:
	.loc 1 547 5 view .LVU398
.LBE3964:
	.loc 1 547 277 view .LVU399
	.loc 1 547 4 view .LVU400
	.loc 1 547 17 view .LVU401
.LBE3969:
	.loc 1 547 5 view .LVU402
	.loc 1 548 1 is_stmt 0 view .LVU403
	mov	sp, r7
	.cfi_def_cfa_register 13
.LVL81:
	.loc 1 548 1 view .LVU404
	@ sp needed
	pop	{r7, pc}
.L75:
	.align	2
.L74:
	.word	.LC17
	.word	log_const_bt_hci_core
	.cfi_endproc
.LFE605:
	.size	hci_data_buf_overflow, .-hci_data_buf_overflow
	.section	.rodata.le_conn_param_neg_reply.part.0.str1.1,"aMS",%progbits,1
.LC18:
	.ascii	"Unable to allocate buffer\000"
	.section	.text.le_conn_param_neg_reply.part.0,"ax",%progbits
	.align	1
	.syntax unified
	.thumb
	.thumb_func
	.type	le_conn_param_neg_reply.part.0, %function
le_conn_param_neg_reply.part.0:
.LFB703:
	.loc 1 1737 13 is_stmt 1 view -0
	.cfi_startproc
	@ args = 0, pretend = 0, frame = 24
	@ frame_needed = 0, uses_anonymous_args = 0
.LVL82:
	.loc 1 1745 3 view .LVU406
.LBB3970:
	.loc 1 1745 8 view .LVU407
	.loc 1 1745 57 view .LVU408
	.loc 1 1745 14 view .LVU409
	.loc 1 1745 2 view .LVU410
	.loc 1 1745 41 view .LVU411
	.loc 1 1745 176 view .LVU412
	.loc 1 1745 187 view .LVU413
	.loc 1 1745 275 view .LVU414
	.loc 1 1745 3 view .LVU415
	.loc 1 1745 3 view .LVU416
.LBB3971:
	.loc 1 1745 8 view .LVU417
	.loc 1 1745 2 view .LVU418
.LBE3971:
.LBE3970:
	.loc 1 1745 3 view .LVU419
	.loc 1 1745 12 view .LVU420
	.loc 1 1745 107 view .LVU421
	.loc 1 1745 3 view .LVU422
.LBB3992:
.LBB3987:
	.loc 1 1745 12 view .LVU423
	.loc 1 1745 102 view .LVU424
	.loc 1 1745 104 view .LVU425
.LBB3972:
	.loc 1 1745 109 view .LVU426
	.loc 1 1745 120 view .LVU427
	.loc 1 1745 209 view .LVU428
	.loc 1 1745 26 view .LVU429
.LBE3972:
.LBE3987:
.LBE3992:
	.loc 1 1745 3 view .LVU430
	.loc 1 1745 368 view .LVU431
	.loc 1 1745 75 view .LVU432
	.loc 1 1745 2 view .LVU433
	.loc 1 1745 2 view .LVU434
	.loc 1 1745 2 view .LVU435
	.loc 1 1745 38 view .LVU436
	.loc 1 1745 4 view .LVU437
	.loc 1 1745 30 view .LVU438
	.loc 1 1745 56 view .LVU439
	.loc 1 1745 79 view .LVU440
	.loc 1 1745 141 view .LVU441
	.loc 1 1745 198 view .LVU442
	.loc 1 1745 263 view .LVU443
	.loc 1 1745 288 view .LVU444
	.loc 1 1745 289 view .LVU445
	.loc 1 1745 291 view .LVU446
	.loc 1 1745 321 view .LVU447
	.loc 1 1745 351 view .LVU448
	.loc 1 1745 383 view .LVU449
	.loc 1 1745 415 view .LVU450
	.loc 1 1745 447 view .LVU451
	.loc 1 1745 644 view .LVU452
	.loc 1 1745 668 view .LVU453
	.loc 1 1745 669 view .LVU454
	.loc 1 1745 671 view .LVU455
	.loc 1 1745 700 view .LVU456
	.loc 1 1745 729 view .LVU457
	.loc 1 1745 760 view .LVU458
	.loc 1 1745 791 view .LVU459
	.loc 1 1745 822 view .LVU460
	.loc 1 1745 1029 view .LVU461
	.loc 1 1745 4 view .LVU462
	.loc 1 1745 22 view .LVU463
	.loc 1 1745 42 view .LVU464
	.loc 1 1745 4 view .LVU465
	.loc 1 1745 42 view .LVU466
	.loc 1 1745 13 view .LVU467
	.loc 1 1745 13 view .LVU468
	.loc 1 1745 61 view .LVU469
	.loc 1 1745 92 view .LVU470
	.loc 1 1745 126 view .LVU471
	.loc 1 1745 131 view .LVU472
	.loc 1 1745 380 view .LVU473
	.loc 1 1745 1429 view .LVU474
	.loc 1 1745 1494 view .LVU475
	.loc 1 1745 1518 view .LVU476
	.loc 1 1745 1571 view .LVU477
	.loc 1 1745 1582 view .LVU478
	.loc 1 1745 1693 view .LVU479
	.loc 1 1745 1709 view .LVU480
	.loc 1 1745 1749 view .LVU481
	.loc 1 1745 1774 view .LVU482
	.loc 1 1745 3061 view .LVU483
	.loc 1 1745 3102 view .LVU484
	.loc 1 1745 7 view .LVU485
	.loc 1 1745 30 view .LVU486
	.loc 1 1745 129 view .LVU487
	.loc 1 1745 5 view .LVU488
	.loc 1 1745 28 view .LVU489
	.loc 1 1745 52 view .LVU490
	.loc 1 1745 80 view .LVU491
	.loc 1 1745 256 view .LVU492
	.loc 1 1745 16 view .LVU493
.LBB3993:
.LBB3988:
.LBB3983:
	.loc 1 1745 29 view .LVU494
	.loc 1 1745 3 view .LVU495
	.loc 1 1745 3 view .LVU496
	.loc 1 1745 70 view .LVU497
	.loc 1 1745 70 is_stmt 0 view .LVU498
.LBE3983:
.LBE3988:
.LBE3993:
	.loc 1 1737 13 view .LVU499
	push	{r0, r1, r2, r3, r4, r5, r6, lr}
	.cfi_def_cfa_offset 32
	.cfi_offset 14, -4
.LVL83:
.LBB3994:
.LBB3989:
.LBB3984:
	.loc 1 1745 74 is_stmt 1 view .LVU500
	.loc 1 1745 484 view .LVU501
	.loc 1 1745 5 view .LVU502
	.loc 1 1745 7 view .LVU503
	.loc 1 1745 12 view .LVU504
	.loc 1 1745 10 view .LVU505
	.loc 1 1745 5 view .LVU506
	.loc 1 1745 23 view .LVU507
.LBB3973:
	.loc 1 1745 3 view .LVU508
	.loc 1 1745 368 view .LVU509
	.loc 1 1745 75 view .LVU510
.LVL84:
	.loc 1 1745 2 view .LVU511
	.loc 1 1745 2 view .LVU512
	.loc 1 1745 2 view .LVU513
	.loc 1 1745 38 view .LVU514
	.loc 1 1745 67 view .LVU515
	.loc 1 1745 93 view .LVU516
	.loc 1 1745 119 view .LVU517
	.loc 1 1745 142 view .LVU518
	.loc 1 1745 204 view .LVU519
	.loc 1 1745 261 view .LVU520
	.loc 1 1745 326 view .LVU521
	.loc 1 1745 351 view .LVU522
	.loc 1 1745 352 view .LVU523
	.loc 1 1745 354 view .LVU524
	.loc 1 1745 384 view .LVU525
	.loc 1 1745 414 view .LVU526
	.loc 1 1745 446 view .LVU527
	.loc 1 1745 478 view .LVU528
	.loc 1 1745 510 view .LVU529
	.loc 1 1745 707 view .LVU530
	.loc 1 1745 731 view .LVU531
	.loc 1 1745 732 view .LVU532
	.loc 1 1745 734 view .LVU533
	.loc 1 1745 763 view .LVU534
	.loc 1 1745 792 view .LVU535
	.loc 1 1745 823 view .LVU536
	.loc 1 1745 854 view .LVU537
	.loc 1 1745 885 view .LVU538
	.loc 1 1745 1092 view .LVU539
	.loc 1 1745 4 view .LVU540
	.loc 1 1745 22 view .LVU541
	.loc 1 1745 42 view .LVU542
	.loc 1 1745 4 view .LVU543
	.loc 1 1745 42 view .LVU544
	.loc 1 1745 13 view .LVU545
	.loc 1 1745 13 view .LVU546
	.loc 1 1745 61 view .LVU547
	.loc 1 1745 92 view .LVU548
	.loc 1 1745 126 view .LVU549
.LBB3974:
	.loc 1 1745 131 view .LVU550
	.loc 1 1745 380 view .LVU551
	.loc 1 1745 1429 view .LVU552
	.loc 1 1745 1494 view .LVU553
.LBE3974:
.LBE3973:
.LBE3984:
.LBE3989:
.LBE3994:
	.loc 1 1745 1518 view .LVU554
	.loc 1 1745 1571 view .LVU555
	.loc 1 1745 1582 view .LVU556
	.loc 1 1745 1693 view .LVU557
.LBB3995:
.LBB3990:
.LBB3985:
.LBB3979:
.LBB3975:
	.loc 1 1745 1709 view .LVU558
	.loc 1 1745 1749 view .LVU559
	.loc 1 1745 1774 view .LVU560
	.loc 1 1745 3061 view .LVU561
	.loc 1 1745 3099 view .LVU562
	.loc 1 1745 3104 view .LVU563
	.loc 1 1745 3692 view .LVU564
	.loc 1 1745 0 is_stmt 0 view .LVU565
	ldr	r3, .L77
	str	r3, [sp, #20]
	.loc 1 1745 3102 is_stmt 1 view .LVU566
	.loc 1 1745 7 view .LVU567
.LVL85:
	.loc 1 1745 30 view .LVU568
	.loc 1 1745 30 is_stmt 0 view .LVU569
.LBE3975:
	.loc 1 1745 129 is_stmt 1 view .LVU570
	.loc 1 1745 5 view .LVU571
	.loc 1 1745 28 view .LVU572
	.loc 1 1745 52 view .LVU573
	.loc 1 1745 80 view .LVU574
.LBE3979:
.LBE3985:
.LBE3990:
.LBE3995:
	.loc 1 1745 6 view .LVU575
	.loc 1 1745 45 view .LVU576
	.loc 1 1745 50 view .LVU577
	.loc 1 1745 80 view .LVU578
	.loc 1 1745 147 view .LVU579
	.loc 1 1745 152 view .LVU580
	.loc 1 1745 182 view .LVU581
.LBB3996:
.LBB3991:
.LBB3986:
.LBB3980:
	.loc 1 1745 256 view .LVU582
	.loc 1 1745 16 view .LVU583
.LBB3976:
	.loc 1 1745 6 view .LVU584
	.loc 1 1745 164 view .LVU585
	.loc 1 1745 166 view .LVU586
.LBE3976:
.LBE3980:
	.loc 1 1745 149 is_stmt 0 view .LVU587
	ldr	r0, .L77+4
.LBB3981:
.LBB3977:
	.loc 1 1745 176 view .LVU588
	movs	r3, #2
.LBE3977:
.LBE3981:
	.loc 1 1745 149 view .LVU589
	add	r2, sp, #16
.LVL86:
	.loc 1 1745 149 view .LVU590
	mov	r1, #4160
.LBB3982:
.LBB3978:
	.loc 1 1745 176 view .LVU591
	str	r3, [sp, #16]
.LVL87:
	.loc 1 1745 176 view .LVU592
.LBE3978:
.LBE3982:
	.loc 1 1745 26 is_stmt 1 view .LVU593
	.loc 1 1745 7 view .LVU594
	.loc 1 1745 147 view .LVU595
	.loc 1 1745 149 view .LVU596
	bl	z_log_msg_static_create.constprop.0
.LVL88:
	.loc 1 1745 149 is_stmt 0 view .LVU597
.LBE3986:
	.loc 1 1745 107 is_stmt 1 view .LVU598
	.loc 1 1745 5 view .LVU599
	.loc 1 1745 42 view .LVU600
.LBE3991:
	.loc 1 1745 6 view .LVU601
	.loc 1 1745 278 view .LVU602
	.loc 1 1745 5 view .LVU603
	.loc 1 1745 18 view .LVU604
.LBE3996:
	.loc 1 1745 6 view .LVU605
	.loc 1 1746 3 view .LVU606
	.loc 1 1754 1 is_stmt 0 view .LVU607
	add	sp, sp, #28
	.cfi_def_cfa_offset 4
.LVL89:
	.loc 1 1754 1 view .LVU608
	@ sp needed
	ldr	pc, [sp], #4
.LVL90:
.L78:
	.loc 1 1754 1 view .LVU609
	.align	2
.L77:
	.word	.LC18
	.word	log_const_bt_hci_core
	.cfi_endproc
.LFE703:
	.size	le_conn_param_neg_reply.part.0, .-le_conn_param_neg_reply.part.0
	.section	.rodata.handle_event.part.0.str1.1,"aMS",%progbits,1
.LC19:
	.ascii	"Unhandled event 0x%02x len %u: %s\000"
	.section	.text.handle_event.part.0,"ax",%progbits
	.align	1
	.syntax unified
	.thumb
	.thumb_func
	.type	handle_event.part.0, %function
handle_event.part.0:
.LVL91:
.LFB702:
	.loc 1 180 13 is_stmt 1 view -0
	.cfi_startproc
	@ args = 0, pretend = 0, frame = 0
	@ frame_needed = 1, uses_anonymous_args = 0
	.loc 1 187 3 view .LVU611
.LBB3997:
	.loc 1 187 8 view .LVU612
	.loc 1 187 57 view .LVU613
	.loc 1 187 14 view .LVU614
	.loc 1 187 2 view .LVU615
	.loc 1 187 41 view .LVU616
	.loc 1 187 176 view .LVU617
	.loc 1 187 187 view .LVU618
	.loc 1 187 275 view .LVU619
.LBB3998:
	.loc 1 187 3 view .LVU620
	.loc 1 187 5 view .LVU621
.LBE3998:
.LBE3997:
	.loc 1 180 13 is_stmt 0 view .LVU622
	push	{r4, r5, r7, lr}
	.cfi_def_cfa_offset 16
	.cfi_offset 4, -16
	.cfi_offset 5, -12
	.cfi_offset 7, -8
	.cfi_offset 14, -4
	mov	r3, r1
.LBB4034:
.LBB4028:
	.loc 1 187 59 view .LVU623
	ldrh	r5, [r1, #16]
.LBE4028:
.LBE4034:
	.loc 1 180 13 view .LVU624
	add	r7, sp, #0
	.cfi_def_cfa_register 7
	.loc 1 180 13 view .LVU625
	mov	r4, r0
.LVL92:
.LBB4035:
.LBB4029:
	.loc 1 187 37 is_stmt 1 view .LVU626
	.loc 1 187 72 view .LVU627
	.loc 1 187 120 is_stmt 0 view .LVU628
	mov	r1, r5
.LVL93:
	.loc 1 187 120 view .LVU629
	ldr	r0, [r3, #12]
.LVL94:
	.loc 1 187 120 view .LVU630
	bl	bt_hex
.LVL95:
	.loc 1 187 3 is_stmt 1 view .LVU631
.LBB3999:
	.loc 1 187 8 view .LVU632
	.loc 1 187 2 view .LVU633
.LBE3999:
.LBE4029:
.LBE4035:
	.loc 1 187 3 view .LVU634
	.loc 1 187 12 view .LVU635
	.loc 1 187 107 view .LVU636
	.loc 1 187 3 view .LVU637
.LBB4036:
.LBB4030:
.LBB4023:
	.loc 1 187 12 view .LVU638
	.loc 1 187 102 view .LVU639
	.loc 1 187 104 view .LVU640
.LBB4000:
	.loc 1 187 109 view .LVU641
	.loc 1 187 120 view .LVU642
	.loc 1 187 209 view .LVU643
	.loc 1 187 26 view .LVU644
.LBE4000:
.LBE4023:
.LBE4030:
.LBE4036:
	.loc 1 187 3 view .LVU645
	.loc 1 187 368 view .LVU646
	.loc 1 187 75 view .LVU647
	.loc 1 187 2 view .LVU648
	.loc 1 187 2 view .LVU649
	.loc 1 187 2 view .LVU650
	.loc 1 187 38 view .LVU651
	.loc 1 187 4 view .LVU652
	.loc 1 187 30 view .LVU653
	.loc 1 187 56 view .LVU654
	.loc 1 187 1415 view .LVU655
	.loc 1 187 1477 view .LVU656
	.loc 1 187 2930 view .LVU657
	.loc 1 187 2995 view .LVU658
	.loc 1 187 3020 view .LVU659
	.loc 1 187 3021 view .LVU660
	.loc 1 187 3023 view .LVU661
	.loc 1 187 3053 view .LVU662
	.loc 1 187 3083 view .LVU663
	.loc 1 187 3115 view .LVU664
	.loc 1 187 3147 view .LVU665
	.loc 1 187 3179 view .LVU666
	.loc 1 187 3376 view .LVU667
	.loc 1 187 3400 view .LVU668
	.loc 1 187 3401 view .LVU669
	.loc 1 187 3403 view .LVU670
	.loc 1 187 3432 view .LVU671
	.loc 1 187 3461 view .LVU672
	.loc 1 187 3492 view .LVU673
	.loc 1 187 3523 view .LVU674
	.loc 1 187 3554 view .LVU675
	.loc 1 187 3761 view .LVU676
	.loc 1 187 4 view .LVU677
	.loc 1 187 22 view .LVU678
	.loc 1 187 42 view .LVU679
	.loc 1 187 4 view .LVU680
	.loc 1 187 42 view .LVU681
	.loc 1 187 13 view .LVU682
	.loc 1 187 13 view .LVU683
	.loc 1 187 61 view .LVU684
	.loc 1 187 92 view .LVU685
	.loc 1 187 126 view .LVU686
	.loc 1 187 131 view .LVU687
	.loc 1 187 388 view .LVU688
	.loc 1 187 1469 view .LVU689
	.loc 1 187 1534 view .LVU690
	.loc 1 187 1558 view .LVU691
	.loc 1 187 1619 view .LVU692
	.loc 1 187 1630 view .LVU693
	.loc 1 187 1749 view .LVU694
	.loc 1 187 1765 view .LVU695
	.loc 1 187 1805 view .LVU696
	.loc 1 187 1830 view .LVU697
	.loc 1 187 3133 view .LVU698
	.loc 1 187 3174 view .LVU699
	.loc 1 187 7 view .LVU700
	.loc 1 187 30 view .LVU701
	.loc 1 187 129 view .LVU702
	.loc 1 187 6 view .LVU703
	.loc 1 187 11 view .LVU704
	.loc 1 187 236 view .LVU705
	.loc 1 187 1189 view .LVU706
	.loc 1 187 1254 view .LVU707
	.loc 1 187 1278 view .LVU708
	.loc 1 187 1307 view .LVU709
	.loc 1 187 1318 view .LVU710
	.loc 1 187 1405 view .LVU711
	.loc 1 187 1421 view .LVU712
	.loc 1 187 1461 view .LVU713
	.loc 1 187 2725 view .LVU714
	.loc 1 187 2766 view .LVU715
	.loc 1 187 7 view .LVU716
	.loc 1 187 30 view .LVU717
	.loc 1 187 9 view .LVU718
	.loc 1 187 6 view .LVU719
	.loc 1 187 11 view .LVU720
	.loc 1 187 236 view .LVU721
	.loc 1 187 1189 view .LVU722
	.loc 1 187 1254 view .LVU723
	.loc 1 187 1278 view .LVU724
	.loc 1 187 1307 view .LVU725
	.loc 1 187 1318 view .LVU726
	.loc 1 187 1405 view .LVU727
	.loc 1 187 1421 view .LVU728
	.loc 1 187 1461 view .LVU729
	.loc 1 187 2725 view .LVU730
	.loc 1 187 2766 view .LVU731
	.loc 1 187 7 view .LVU732
	.loc 1 187 30 view .LVU733
	.loc 1 187 9 view .LVU734
	.loc 1 187 6 view .LVU735
	.loc 1 187 11 view .LVU736
	.loc 1 187 236 view .LVU737
	.loc 1 187 1189 view .LVU738
	.loc 1 187 1254 view .LVU739
	.loc 1 187 1278 view .LVU740
	.loc 1 187 1307 view .LVU741
	.loc 1 187 1318 view .LVU742
	.loc 1 187 1405 view .LVU743
	.loc 1 187 1421 view .LVU744
	.loc 1 187 1461 view .LVU745
	.loc 1 187 1551 view .LVU746
	.loc 1 187 1954 view .LVU747
	.loc 1 187 2611 view .LVU748
	.loc 1 187 2630 view .LVU749
	.loc 1 187 2667 view .LVU750
	.loc 1 187 2725 view .LVU751
	.loc 1 187 2766 view .LVU752
	.loc 1 187 7 view .LVU753
	.loc 1 187 30 view .LVU754
	.loc 1 187 9 view .LVU755
	.loc 1 187 5 view .LVU756
	.loc 1 187 28 view .LVU757
	.loc 1 187 52 view .LVU758
	.loc 1 187 80 view .LVU759
	.loc 1 187 256 view .LVU760
	.loc 1 187 16 view .LVU761
.LBB4037:
.LBB4031:
.LBB4024:
.LBB4019:
	.loc 1 187 29 view .LVU762
	.loc 1 187 3 view .LVU763
	.loc 1 187 3 view .LVU764
	.loc 1 187 70 view .LVU765
	.loc 1 187 82 is_stmt 0 view .LVU766
	sub	sp, sp, #40
	mov	r2, sp
.LVL96:
	.loc 1 187 74 is_stmt 1 view .LVU767
	.loc 1 187 484 view .LVU768
	.loc 1 187 5 view .LVU769
	.loc 1 187 7 view .LVU770
	.loc 1 187 12 view .LVU771
	.loc 1 187 10 view .LVU772
	.loc 1 187 5 view .LVU773
	.loc 1 187 23 view .LVU774
.LBB4001:
	.loc 1 187 3 view .LVU775
	.loc 1 187 368 view .LVU776
	.loc 1 187 75 view .LVU777
.LVL97:
	.loc 1 187 2 view .LVU778
	.loc 1 187 2 view .LVU779
	.loc 1 187 2 view .LVU780
	.loc 1 187 38 view .LVU781
	.loc 1 187 67 view .LVU782
	.loc 1 187 93 view .LVU783
	.loc 1 187 119 view .LVU784
	.loc 1 187 1478 view .LVU785
	.loc 1 187 1540 view .LVU786
	.loc 1 187 2993 view .LVU787
	.loc 1 187 3058 view .LVU788
	.loc 1 187 3083 view .LVU789
	.loc 1 187 3084 view .LVU790
	.loc 1 187 3086 view .LVU791
	.loc 1 187 3116 view .LVU792
	.loc 1 187 3146 view .LVU793
	.loc 1 187 3178 view .LVU794
	.loc 1 187 3210 view .LVU795
	.loc 1 187 3242 view .LVU796
	.loc 1 187 3439 view .LVU797
	.loc 1 187 3463 view .LVU798
	.loc 1 187 3464 view .LVU799
	.loc 1 187 3466 view .LVU800
	.loc 1 187 3495 view .LVU801
	.loc 1 187 3524 view .LVU802
	.loc 1 187 3555 view .LVU803
	.loc 1 187 3586 view .LVU804
	.loc 1 187 3617 view .LVU805
	.loc 1 187 3824 view .LVU806
.LBB4002:
	.loc 1 187 3171 view .LVU807
	.loc 1 187 3176 view .LVU808
	.loc 1 187 3812 view .LVU809
	.loc 1 187 0 is_stmt 0 view .LVU810
	ldr	r3, .L80
.LBE4002:
.LBE4001:
.LBE4019:
.LBE4024:
	.loc 1 187 17 view .LVU811
	strd	r3, r4, [r2, #20]
.LBB4025:
.LBB4020:
.LBB4015:
.LBB4003:
	.loc 1 187 2766 is_stmt 1 view .LVU812
	.loc 1 187 7 view .LVU813
.LVL98:
	.loc 1 187 30 view .LVU814
	.loc 1 187 30 is_stmt 0 view .LVU815
.LBE4003:
	.loc 1 187 9 is_stmt 1 view .LVU816
	.loc 1 187 6 view .LVU817
.LBB4004:
	.loc 1 187 11 view .LVU818
	.loc 1 187 236 view .LVU819
	.loc 1 187 1189 view .LVU820
	.loc 1 187 1254 view .LVU821
.LBE4004:
.LBE4015:
.LBE4020:
.LBE4025:
.LBE4031:
.LBE4037:
	.loc 1 187 1278 view .LVU822
	.loc 1 187 1307 view .LVU823
	.loc 1 187 1318 view .LVU824
	.loc 1 187 1405 view .LVU825
.LBB4038:
.LBB4032:
.LBB4026:
.LBB4021:
.LBB4016:
.LBB4005:
	.loc 1 187 1421 view .LVU826
	.loc 1 187 1461 view .LVU827
	.loc 1 187 2725 view .LVU828
	.loc 1 187 2763 view .LVU829
	.loc 1 187 2768 view .LVU830
	.loc 1 187 3212 view .LVU831
.LBE4005:
.LBB4006:
.LBB4007:
	.loc 1 187 227 is_stmt 0 view .LVU832
	movw	r3, #1026
	strh	r3, [r2, #36]	@ movhi
.LBE4007:
.LBE4006:
.LBB4009:
	.loc 1 187 176 view .LVU833
	ldr	r3, .L80+4
.LBE4009:
.LBB4010:
	.loc 1 187 3811 view .LVU834
	strd	r5, r0, [r2, #28]
	.loc 1 187 2766 is_stmt 1 view .LVU835
	.loc 1 187 7 view .LVU836
.LVL99:
	.loc 1 187 30 view .LVU837
	.loc 1 187 30 is_stmt 0 view .LVU838
.LBE4010:
	.loc 1 187 9 is_stmt 1 view .LVU839
	.loc 1 187 5 view .LVU840
	.loc 1 187 28 view .LVU841
	.loc 1 187 52 view .LVU842
	.loc 1 187 80 view .LVU843
.LBB4011:
	.loc 1 187 6 view .LVU844
	.loc 1 187 45 view .LVU845
.LBE4011:
.LBE4016:
.LBE4021:
.LBE4026:
.LBE4032:
.LBE4038:
	.loc 1 187 50 view .LVU846
	.loc 1 187 80 view .LVU847
.LBB4039:
.LBB4033:
.LBB4027:
.LBB4022:
.LBB4017:
.LBB4012:
.LBB4008:
	.loc 1 187 182 view .LVU848
	.loc 1 187 214 view .LVU849
	.loc 1 187 208 view .LVU850
	.loc 1 187 182 view .LVU851
	.loc 1 187 214 view .LVU852
	.loc 1 187 208 view .LVU853
	.loc 1 187 182 view .LVU854
.LBE4008:
.LBE4012:
	.loc 1 187 256 view .LVU855
	.loc 1 187 16 view .LVU856
.LBB4013:
	.loc 1 187 6 view .LVU857
	.loc 1 187 164 view .LVU858
	.loc 1 187 166 view .LVU859
.LBE4013:
.LBE4017:
	.loc 1 187 149 is_stmt 0 view .LVU860
	mov	r1, #11392
.LBB4018:
.LBB4014:
	.loc 1 187 176 view .LVU861
	str	r3, [r2, #16]!
.LVL100:
	.loc 1 187 176 view .LVU862
.LBE4014:
.LBE4018:
	.loc 1 187 26 is_stmt 1 view .LVU863
	.loc 1 187 7 view .LVU864
	.loc 1 187 147 view .LVU865
	.loc 1 187 149 view .LVU866
	ldr	r0, .L80+8
.LVL101:
	.loc 1 187 149 is_stmt 0 view .LVU867
	bl	z_log_msg_static_create.constprop.0
.LVL102:
	.loc 1 187 149 view .LVU868
.LBE4022:
	.loc 1 187 107 is_stmt 1 view .LVU869
	.loc 1 187 5 view .LVU870
	.loc 1 187 42 view .LVU871
.LBE4027:
	.loc 1 187 6 view .LVU872
.LBE4033:
	.loc 1 187 278 view .LVU873
	.loc 1 187 5 view .LVU874
	.loc 1 187 18 view .LVU875
.LBE4039:
	.loc 1 187 6 view .LVU876
	.loc 1 192 1 is_stmt 0 view .LVU877
	mov	sp, r7
	.cfi_def_cfa_register 13
.LVL103:
	.loc 1 192 1 view .LVU878
	@ sp needed
	pop	{r4, r5, r7, pc}
.LVL104:
.L81:
	.loc 1 192 1 view .LVU879
	.align	2
.L80:
	.word	.LC19
	.word	16777221
	.word	log_const_bt_hci_core
	.cfi_endproc
.LFE702:
	.size	handle_event.part.0, .-handle_event.part.0
	.section	.rodata.hci_hardware_error.str1.1,"aMS",%progbits,1
.LC20:
	.ascii	"Hardware error, hardware code: %d\000"
	.section	.text.hci_hardware_error,"ax",%progbits
	.align	1
	.syntax unified
	.thumb
	.thumb_func
	.type	hci_hardware_error, %function
hci_hardware_error:
.LVL105:
.LFB642:
	.loc 1 2193 1 is_stmt 1 view -0
	.cfi_startproc
	@ args = 0, pretend = 0, frame = 0
	@ frame_needed = 1, uses_anonymous_args = 0
	.loc 1 2194 2 view .LVU881
	.loc 1 2196 2 view .LVU882
.LBB4040:
.LBI4040:
	.file 8 "/home/g/mise-work/zmk-firmware/zmk/zephyr/include/zephyr/net/buf.h"
	.loc 8 2076 21 view .LVU883
.LBB4041:
	.loc 8 2078 2 view .LVU884
.LBE4041:
.LBE4040:
	.loc 1 2193 1 is_stmt 0 view .LVU885
	push	{r7, lr}
	.cfi_def_cfa_offset 8
	.cfi_offset 7, -8
	.cfi_offset 14, -4
.LBB4044:
.LBB4042:
	.loc 8 2078 9 view .LVU886
	movs	r1, #1
.LBE4042:
.LBE4044:
	.loc 1 2193 1 view .LVU887
	add	r7, sp, #0
	.cfi_def_cfa_register 7
.LBB4045:
.LBB4043:
	.loc 8 2078 9 view .LVU888
	adds	r0, r0, #12
.LVL106:
	.loc 8 2078 9 view .LVU889
	bl	net_buf_simple_pull_mem
.LVL107:
	.loc 8 2078 9 view .LVU890
.LBE4043:
.LBE4045:
	.loc 1 2198 2 is_stmt 1 view .LVU891
.LBB4046:
	.loc 1 2198 7 view .LVU892
	.loc 1 2198 56 view .LVU893
	.loc 1 2198 13 view .LVU894
	.loc 1 2198 1 view .LVU895
	.loc 1 2198 40 view .LVU896
	.loc 1 2198 175 view .LVU897
	.loc 1 2198 186 view .LVU898
	.loc 1 2198 274 view .LVU899
.LBB4047:
	.loc 1 2198 2 view .LVU900
	.loc 1 2198 4 view .LVU901
.LBB4048:
.LBB4049:
	.loc 1 2198 81 is_stmt 0 view .LVU902
	sub	sp, sp, #32
.LBE4049:
.LBE4048:
	.loc 1 2198 16 view .LVU903
	ldrb	r3, [r0]	@ zero_extendqisi2
.LVL108:
	.loc 1 2198 2 is_stmt 1 view .LVU904
.LBB4059:
	.loc 1 2198 7 view .LVU905
	.loc 1 2198 1 view .LVU906
.LBE4059:
.LBE4047:
.LBE4046:
	.loc 1 2198 2 view .LVU907
	.loc 1 2198 11 view .LVU908
	.loc 1 2198 106 view .LVU909
	.loc 1 2198 2 view .LVU910
.LBB4066:
.LBB4063:
.LBB4060:
	.loc 1 2198 11 view .LVU911
	.loc 1 2198 101 view .LVU912
	.loc 1 2198 103 view .LVU913
.LBB4056:
	.loc 1 2198 108 view .LVU914
	.loc 1 2198 119 view .LVU915
	.loc 1 2198 208 view .LVU916
	.loc 1 2198 25 view .LVU917
.LBE4056:
.LBE4060:
.LBE4063:
.LBE4066:
	.loc 1 2198 2 view .LVU918
	.loc 1 2198 367 view .LVU919
	.loc 1 2198 74 view .LVU920
	.loc 1 2198 1 view .LVU921
	.loc 1 2198 1 view .LVU922
	.loc 1 2198 1 view .LVU923
	.loc 1 2198 37 view .LVU924
	.loc 1 2198 3 view .LVU925
	.loc 1 2198 29 view .LVU926
	.loc 1 2198 55 view .LVU927
	.loc 1 2198 522 view .LVU928
	.loc 1 2198 584 view .LVU929
	.loc 1 2198 1105 view .LVU930
	.loc 1 2198 1170 view .LVU931
	.loc 1 2198 1195 view .LVU932
	.loc 1 2198 1196 view .LVU933
	.loc 1 2198 1198 view .LVU934
	.loc 1 2198 1228 view .LVU935
	.loc 1 2198 1258 view .LVU936
	.loc 1 2198 1290 view .LVU937
	.loc 1 2198 1322 view .LVU938
	.loc 1 2198 1354 view .LVU939
	.loc 1 2198 1551 view .LVU940
	.loc 1 2198 1575 view .LVU941
	.loc 1 2198 1576 view .LVU942
	.loc 1 2198 1578 view .LVU943
	.loc 1 2198 1607 view .LVU944
	.loc 1 2198 1636 view .LVU945
	.loc 1 2198 1667 view .LVU946
	.loc 1 2198 1698 view .LVU947
	.loc 1 2198 1729 view .LVU948
	.loc 1 2198 1936 view .LVU949
	.loc 1 2198 3 view .LVU950
	.loc 1 2198 21 view .LVU951
	.loc 1 2198 41 view .LVU952
	.loc 1 2198 3 view .LVU953
	.loc 1 2198 41 view .LVU954
	.loc 1 2198 12 view .LVU955
	.loc 1 2198 12 view .LVU956
	.loc 1 2198 60 view .LVU957
	.loc 1 2198 91 view .LVU958
	.loc 1 2198 125 view .LVU959
	.loc 1 2198 130 view .LVU960
	.loc 1 2198 387 view .LVU961
	.loc 1 2198 1468 view .LVU962
	.loc 1 2198 1533 view .LVU963
	.loc 1 2198 1557 view .LVU964
	.loc 1 2198 1618 view .LVU965
	.loc 1 2198 1629 view .LVU966
	.loc 1 2198 1748 view .LVU967
	.loc 1 2198 1764 view .LVU968
	.loc 1 2198 1804 view .LVU969
	.loc 1 2198 1829 view .LVU970
	.loc 1 2198 3132 view .LVU971
	.loc 1 2198 3173 view .LVU972
	.loc 1 2198 6 view .LVU973
	.loc 1 2198 29 view .LVU974
	.loc 1 2198 128 view .LVU975
	.loc 1 2198 5 view .LVU976
	.loc 1 2198 10 view .LVU977
	.loc 1 2198 235 view .LVU978
	.loc 1 2198 1188 view .LVU979
	.loc 1 2198 1253 view .LVU980
	.loc 1 2198 1277 view .LVU981
	.loc 1 2198 1306 view .LVU982
	.loc 1 2198 1317 view .LVU983
	.loc 1 2198 1404 view .LVU984
	.loc 1 2198 1420 view .LVU985
	.loc 1 2198 1460 view .LVU986
	.loc 1 2198 2724 view .LVU987
	.loc 1 2198 2765 view .LVU988
	.loc 1 2198 6 view .LVU989
	.loc 1 2198 29 view .LVU990
	.loc 1 2198 8 view .LVU991
	.loc 1 2198 4 view .LVU992
	.loc 1 2198 27 view .LVU993
	.loc 1 2198 51 view .LVU994
	.loc 1 2198 79 view .LVU995
	.loc 1 2198 255 view .LVU996
	.loc 1 2198 15 view .LVU997
.LBB4067:
.LBB4064:
.LBB4061:
.LBB4057:
	.loc 1 2198 28 view .LVU998
	.loc 1 2198 2 view .LVU999
	.loc 1 2198 2 view .LVU1000
	.loc 1 2198 69 view .LVU1001
	.loc 1 2198 81 is_stmt 0 view .LVU1002
	mov	r2, sp
.LVL109:
	.loc 1 2198 73 is_stmt 1 view .LVU1003
	.loc 1 2198 483 view .LVU1004
	.loc 1 2198 4 view .LVU1005
	.loc 1 2198 6 view .LVU1006
	.loc 1 2198 11 view .LVU1007
	.loc 1 2198 9 view .LVU1008
	.loc 1 2198 4 view .LVU1009
	.loc 1 2198 22 view .LVU1010
.LBB4050:
	.loc 1 2198 2 view .LVU1011
	.loc 1 2198 367 view .LVU1012
	.loc 1 2198 74 view .LVU1013
.LVL110:
	.loc 1 2198 1 view .LVU1014
	.loc 1 2198 1 view .LVU1015
	.loc 1 2198 1 view .LVU1016
	.loc 1 2198 37 view .LVU1017
	.loc 1 2198 66 view .LVU1018
	.loc 1 2198 92 view .LVU1019
	.loc 1 2198 118 view .LVU1020
	.loc 1 2198 585 view .LVU1021
	.loc 1 2198 647 view .LVU1022
	.loc 1 2198 1168 view .LVU1023
	.loc 1 2198 1233 view .LVU1024
	.loc 1 2198 1258 view .LVU1025
	.loc 1 2198 1259 view .LVU1026
	.loc 1 2198 1261 view .LVU1027
	.loc 1 2198 1291 view .LVU1028
	.loc 1 2198 1321 view .LVU1029
	.loc 1 2198 1353 view .LVU1030
	.loc 1 2198 1385 view .LVU1031
	.loc 1 2198 1417 view .LVU1032
	.loc 1 2198 1614 view .LVU1033
	.loc 1 2198 1638 view .LVU1034
	.loc 1 2198 1639 view .LVU1035
	.loc 1 2198 1641 view .LVU1036
	.loc 1 2198 1670 view .LVU1037
	.loc 1 2198 1699 view .LVU1038
	.loc 1 2198 1730 view .LVU1039
	.loc 1 2198 1761 view .LVU1040
	.loc 1 2198 1792 view .LVU1041
	.loc 1 2198 1999 view .LVU1042
.LBB4051:
	.loc 1 2198 3170 view .LVU1043
	.loc 1 2198 3175 view .LVU1044
	.loc 1 2198 3811 view .LVU1045
	.loc 1 2198 0 is_stmt 0 view .LVU1046
	ldr	r1, .L83
.LBE4051:
.LBE4050:
	.loc 1 2198 148 view .LVU1047
	ldr	r0, .L83+4
.LVL111:
.LBB4054:
.LBB4052:
	.loc 1 2198 3810 view .LVU1048
	strd	r1, r3, [r2, #20]
	.loc 1 2198 2765 is_stmt 1 view .LVU1049
	.loc 1 2198 6 view .LVU1050
.LVL112:
	.loc 1 2198 29 view .LVU1051
	.loc 1 2198 29 is_stmt 0 view .LVU1052
.LBE4052:
	.loc 1 2198 8 is_stmt 1 view .LVU1053
	.loc 1 2198 4 view .LVU1054
	.loc 1 2198 27 view .LVU1055
	.loc 1 2198 51 view .LVU1056
	.loc 1 2198 79 view .LVU1057
.LBE4054:
.LBE4057:
.LBE4061:
.LBE4064:
.LBE4067:
	.loc 1 2198 5 view .LVU1058
	.loc 1 2198 44 view .LVU1059
	.loc 1 2198 49 view .LVU1060
	.loc 1 2198 79 view .LVU1061
	.loc 1 2198 146 view .LVU1062
	.loc 1 2198 151 view .LVU1063
	.loc 1 2198 181 view .LVU1064
.LBB4068:
.LBB4065:
.LBB4062:
.LBB4058:
.LBB4055:
	.loc 1 2198 255 view .LVU1065
	.loc 1 2198 15 view .LVU1066
.LBB4053:
	.loc 1 2198 5 view .LVU1067
	.loc 1 2198 163 view .LVU1068
	.loc 1 2198 165 view .LVU1069
	.loc 1 2198 175 is_stmt 0 view .LVU1070
	movs	r3, #3
.LVL113:
	.loc 1 2198 175 view .LVU1071
	str	r3, [r2, #16]!
.LVL114:
	.loc 1 2198 175 view .LVU1072
.LBE4053:
.LBE4055:
	.loc 1 2198 25 is_stmt 1 view .LVU1073
	.loc 1 2198 6 view .LVU1074
	.loc 1 2198 146 view .LVU1075
	.loc 1 2198 148 view .LVU1076
	mov	r1, #6208
	bl	z_log_msg_static_create.constprop.0
.LVL115:
	.loc 1 2198 148 is_stmt 0 view .LVU1077
.LBE4058:
	.loc 1 2198 106 is_stmt 1 view .LVU1078
	.loc 1 2198 4 view .LVU1079
	.loc 1 2198 41 view .LVU1080
.LBE4062:
	.loc 1 2198 5 view .LVU1081
.LBE4065:
	.loc 1 2198 277 view .LVU1082
	.loc 1 2198 4 view .LVU1083
	.loc 1 2198 17 view .LVU1084
.LBE4068:
	.loc 1 2198 5 view .LVU1085
	.loc 1 2199 1 is_stmt 0 view .LVU1086
	mov	sp, r7
	.cfi_def_cfa_register 13
.LVL116:
	.loc 1 2199 1 view .LVU1087
	@ sp needed
	pop	{r7, pc}
.L84:
	.align	2
.L83:
	.word	.LC20
	.word	log_const_bt_hci_core
	.cfi_endproc
.LFE642:
	.size	hci_hardware_error, .-hci_hardware_error
	.section	.rodata.le_data_len_change.str1.1,"aMS",%progbits,1
.LC21:
	.ascii	"Unable to lookup conn for handle %u\000"
	.section	.text.le_data_len_change,"ax",%progbits
	.align	1
	.syntax unified
	.thumb
	.thumb_func
	.type	le_data_len_change, %function
le_data_len_change:
.LVL117:
.LFB628:
	.loc 1 1654 1 is_stmt 1 view -0
	.cfi_startproc
	@ args = 0, pretend = 0, frame = 0
	@ frame_needed = 1, uses_anonymous_args = 0
	.loc 1 1655 2 view .LVU1089
	.loc 1 1656 2 view .LVU1090
	.loc 1 1654 1 is_stmt 0 view .LVU1091
	push	{r4, r5, r7, lr}
	.cfi_def_cfa_offset 16
	.cfi_offset 4, -16
	.cfi_offset 5, -12
	.cfi_offset 7, -8
	.cfi_offset 14, -4
	.loc 1 1656 11 view .LVU1092
	ldr	r3, [r0, #12]
	ldrh	r4, [r3]	@ unaligned
.LVL118:
	.loc 1 1657 2 is_stmt 1 view .LVU1093
	.loc 1 1659 2 view .LVU1094
	.loc 1 1654 1 is_stmt 0 view .LVU1095
	add	r7, sp, #0
	.cfi_def_cfa_register 7
	.loc 1 1659 9 view .LVU1096
	movs	r1, #1
	mov	r0, r4
.LVL119:
	.loc 1 1659 9 view .LVU1097
	bl	bt_conn_lookup_handle
.LVL120:
	.loc 1 1660 2 is_stmt 1 view .LVU1098
	.loc 1 1660 5 is_stmt 0 view .LVU1099
	cbnz	r0, .L86
	.loc 1 1661 3 is_stmt 1 view .LVU1100
.LBB4069:
	.loc 1 1661 8 view .LVU1101
	.loc 1 1661 57 view .LVU1102
	.loc 1 1661 14 view .LVU1103
	.loc 1 1661 2 view .LVU1104
.LVL121:
	.loc 1 1661 41 view .LVU1105
	.loc 1 1661 176 view .LVU1106
	.loc 1 1661 187 view .LVU1107
	.loc 1 1661 275 view .LVU1108
.LBB4070:
	.loc 1 1661 3 view .LVU1109
	.loc 1 1661 5 view .LVU1110
	.loc 1 1661 3 view .LVU1111
.LBB4071:
	.loc 1 1661 8 view .LVU1112
	.loc 1 1661 2 view .LVU1113
.LBE4071:
.LBE4070:
.LBE4069:
	.loc 1 1661 3 view .LVU1114
	.loc 1 1661 12 view .LVU1115
	.loc 1 1661 107 view .LVU1116
	.loc 1 1661 3 view .LVU1117
.LBB4089:
.LBB4086:
.LBB4082:
	.loc 1 1661 12 view .LVU1118
	.loc 1 1661 102 view .LVU1119
	.loc 1 1661 104 view .LVU1120
.LBB4072:
	.loc 1 1661 107 is_stmt 0 view .LVU1121
	mov	r5, sp
	.loc 1 1661 109 is_stmt 1 view .LVU1122
	.loc 1 1661 120 view .LVU1123
.LVL122:
	.loc 1 1661 209 view .LVU1124
	.loc 1 1661 26 view .LVU1125
.LBE4072:
.LBE4082:
.LBE4086:
.LBE4089:
	.loc 1 1661 3 view .LVU1126
	.loc 1 1661 368 view .LVU1127
	.loc 1 1661 75 view .LVU1128
	.loc 1 1661 2 view .LVU1129
	.loc 1 1661 2 view .LVU1130
	.loc 1 1661 2 view .LVU1131
	.loc 1 1661 38 view .LVU1132
	.loc 1 1661 4 view .LVU1133
	.loc 1 1661 30 view .LVU1134
	.loc 1 1661 56 view .LVU1135
	.loc 1 1661 523 view .LVU1136
	.loc 1 1661 585 view .LVU1137
	.loc 1 1661 1106 view .LVU1138
	.loc 1 1661 1171 view .LVU1139
	.loc 1 1661 1196 view .LVU1140
	.loc 1 1661 1197 view .LVU1141
	.loc 1 1661 1199 view .LVU1142
	.loc 1 1661 1229 view .LVU1143
	.loc 1 1661 1259 view .LVU1144
	.loc 1 1661 1291 view .LVU1145
	.loc 1 1661 1323 view .LVU1146
	.loc 1 1661 1355 view .LVU1147
	.loc 1 1661 1552 view .LVU1148
	.loc 1 1661 1576 view .LVU1149
	.loc 1 1661 1577 view .LVU1150
	.loc 1 1661 1579 view .LVU1151
	.loc 1 1661 1608 view .LVU1152
	.loc 1 1661 1637 view .LVU1153
	.loc 1 1661 1668 view .LVU1154
	.loc 1 1661 1699 view .LVU1155
	.loc 1 1661 1730 view .LVU1156
	.loc 1 1661 1937 view .LVU1157
	.loc 1 1661 4 view .LVU1158
	.loc 1 1661 22 view .LVU1159
	.loc 1 1661 42 view .LVU1160
	.loc 1 1661 4 view .LVU1161
	.loc 1 1661 42 view .LVU1162
	.loc 1 1661 13 view .LVU1163
	.loc 1 1661 13 view .LVU1164
	.loc 1 1661 61 view .LVU1165
	.loc 1 1661 92 view .LVU1166
	.loc 1 1661 126 view .LVU1167
	.loc 1 1661 131 view .LVU1168
	.loc 1 1661 390 view .LVU1169
	.loc 1 1661 1479 view .LVU1170
	.loc 1 1661 1544 view .LVU1171
	.loc 1 1661 1568 view .LVU1172
	.loc 1 1661 1631 view .LVU1173
	.loc 1 1661 1642 view .LVU1174
	.loc 1 1661 1763 view .LVU1175
	.loc 1 1661 1779 view .LVU1176
	.loc 1 1661 1819 view .LVU1177
	.loc 1 1661 1844 view .LVU1178
	.loc 1 1661 3151 view .LVU1179
	.loc 1 1661 3192 view .LVU1180
	.loc 1 1661 7 view .LVU1181
	.loc 1 1661 30 view .LVU1182
	.loc 1 1661 129 view .LVU1183
	.loc 1 1661 6 view .LVU1184
	.loc 1 1661 11 view .LVU1185
	.loc 1 1661 236 view .LVU1186
	.loc 1 1661 1189 view .LVU1187
	.loc 1 1661 1254 view .LVU1188
	.loc 1 1661 1278 view .LVU1189
	.loc 1 1661 1307 view .LVU1190
	.loc 1 1661 1318 view .LVU1191
	.loc 1 1661 1405 view .LVU1192
	.loc 1 1661 1421 view .LVU1193
	.loc 1 1661 1461 view .LVU1194
	.loc 1 1661 2725 view .LVU1195
	.loc 1 1661 2766 view .LVU1196
	.loc 1 1661 7 view .LVU1197
	.loc 1 1661 30 view .LVU1198
	.loc 1 1661 9 view .LVU1199
	.loc 1 1661 5 view .LVU1200
	.loc 1 1661 28 view .LVU1201
	.loc 1 1661 52 view .LVU1202
	.loc 1 1661 80 view .LVU1203
	.loc 1 1661 256 view .LVU1204
	.loc 1 1661 16 view .LVU1205
.LBB4090:
.LBB4087:
.LBB4083:
.LBB4079:
	.loc 1 1661 29 view .LVU1206
	.loc 1 1661 3 view .LVU1207
	.loc 1 1661 3 view .LVU1208
	.loc 1 1661 70 view .LVU1209
	.loc 1 1661 82 is_stmt 0 view .LVU1210
	sub	sp, sp, #32
	mov	r2, sp
.LVL123:
	.loc 1 1661 74 is_stmt 1 view .LVU1211
	.loc 1 1661 484 view .LVU1212
	.loc 1 1661 5 view .LVU1213
	.loc 1 1661 7 view .LVU1214
	.loc 1 1661 12 view .LVU1215
	.loc 1 1661 10 view .LVU1216
	.loc 1 1661 5 view .LVU1217
	.loc 1 1661 23 view .LVU1218
.LBB4073:
	.loc 1 1661 3 view .LVU1219
	.loc 1 1661 368 view .LVU1220
	.loc 1 1661 75 view .LVU1221
.LVL124:
	.loc 1 1661 2 view .LVU1222
	.loc 1 1661 2 view .LVU1223
	.loc 1 1661 2 view .LVU1224
	.loc 1 1661 38 view .LVU1225
	.loc 1 1661 67 view .LVU1226
	.loc 1 1661 93 view .LVU1227
	.loc 1 1661 119 view .LVU1228
	.loc 1 1661 586 view .LVU1229
	.loc 1 1661 648 view .LVU1230
	.loc 1 1661 1169 view .LVU1231
	.loc 1 1661 1234 view .LVU1232
	.loc 1 1661 1259 view .LVU1233
	.loc 1 1661 1260 view .LVU1234
	.loc 1 1661 1262 view .LVU1235
	.loc 1 1661 1292 view .LVU1236
	.loc 1 1661 1322 view .LVU1237
	.loc 1 1661 1354 view .LVU1238
	.loc 1 1661 1386 view .LVU1239
	.loc 1 1661 1418 view .LVU1240
	.loc 1 1661 1615 view .LVU1241
	.loc 1 1661 1639 view .LVU1242
	.loc 1 1661 1640 view .LVU1243
	.loc 1 1661 1642 view .LVU1244
	.loc 1 1661 1671 view .LVU1245
	.loc 1 1661 1700 view .LVU1246
	.loc 1 1661 1731 view .LVU1247
	.loc 1 1661 1762 view .LVU1248
	.loc 1 1661 1793 view .LVU1249
	.loc 1 1661 2000 view .LVU1250
.LBB4074:
	.loc 1 1661 3189 view .LVU1251
	.loc 1 1661 3194 view .LVU1252
	.loc 1 1661 3842 view .LVU1253
	.loc 1 1661 0 is_stmt 0 view .LVU1254
	ldr	r3, .L88
.LBE4074:
.LBE4073:
	.loc 1 1661 149 view .LVU1255
	ldr	r0, .L88+4
.LVL125:
	.loc 1 1661 149 view .LVU1256
.LBE4079:
.LBE4083:
	.loc 1 1661 17 view .LVU1257
	strd	r3, r4, [r2, #20]
.LBB4084:
.LBB4080:
.LBB4077:
.LBB4075:
	.loc 1 1661 2766 is_stmt 1 view .LVU1258
	.loc 1 1661 7 view .LVU1259
.LVL126:
	.loc 1 1661 30 view .LVU1260
	.loc 1 1661 30 is_stmt 0 view .LVU1261
.LBE4075:
	.loc 1 1661 9 is_stmt 1 view .LVU1262
	.loc 1 1661 5 view .LVU1263
	.loc 1 1661 28 view .LVU1264
	.loc 1 1661 52 view .LVU1265
	.loc 1 1661 80 view .LVU1266
.LBE4077:
.LBE4080:
.LBE4084:
.LBE4087:
.LBE4090:
	.loc 1 1661 6 view .LVU1267
	.loc 1 1661 45 view .LVU1268
	.loc 1 1661 50 view .LVU1269
	.loc 1 1661 80 view .LVU1270
	.loc 1 1661 147 view .LVU1271
	.loc 1 1661 152 view .LVU1272
	.loc 1 1661 182 view .LVU1273
.LBB4091:
.LBB4088:
.LBB4085:
.LBB4081:
.LBB4078:
	.loc 1 1661 256 view .LVU1274
	.loc 1 1661 16 view .LVU1275
.LBB4076:
	.loc 1 1661 6 view .LVU1276
	.loc 1 1661 164 view .LVU1277
	.loc 1 1661 166 view .LVU1278
	.loc 1 1661 176 is_stmt 0 view .LVU1279
	movs	r3, #3
	str	r3, [r2, #16]!
.LVL127:
	.loc 1 1661 176 view .LVU1280
.LBE4076:
.LBE4078:
	.loc 1 1661 26 is_stmt 1 view .LVU1281
	.loc 1 1661 7 view .LVU1282
	.loc 1 1661 147 view .LVU1283
	.loc 1 1661 149 view .LVU1284
	mov	r1, #6208
	bl	z_log_msg_static_create.constprop.0
.LVL128:
	.loc 1 1661 149 is_stmt 0 view .LVU1285
	mov	sp, r5
.LVL129:
	.loc 1 1661 149 view .LVU1286
.LBE4081:
	.loc 1 1661 107 is_stmt 1 view .LVU1287
	.loc 1 1661 5 view .LVU1288
	.loc 1 1661 42 view .LVU1289
.LBE4085:
	.loc 1 1661 6 view .LVU1290
.LBE4088:
	.loc 1 1661 278 view .LVU1291
	.loc 1 1661 5 view .LVU1292
	.loc 1 1661 18 view .LVU1293
.LBE4091:
	.loc 1 1661 6 view .LVU1294
	.loc 1 1662 3 view .LVU1295
.L85:
	.loc 1 1682 1 is_stmt 0 view .LVU1296
	mov	sp, r7
	.cfi_remember_state
	.cfi_def_cfa_register 13
	@ sp needed
	pop	{r4, r5, r7, pc}
.LVL130:
.L86:
	.cfi_restore_state
	.loc 1 1681 2 is_stmt 1 view .LVU1297
	bl	bt_conn_unref
.LVL131:
	.loc 1 1681 2 is_stmt 0 view .LVU1298
	b	.L85
.L89:
	.align	2
.L88:
	.word	.LC21
	.word	log_const_bt_hci_core
	.cfi_endproc
.LFE628:
	.size	le_data_len_change, .-le_data_len_change
	.section	.text.le_phy_update_complete,"ax",%progbits
	.align	1
	.syntax unified
	.thumb
	.thumb_func
	.type	le_phy_update_complete, %function
le_phy_update_complete:
.LVL132:
.LFB629:
	.loc 1 1687 1 is_stmt 1 view -0
	.cfi_startproc
	@ args = 0, pretend = 0, frame = 0
	@ frame_needed = 1, uses_anonymous_args = 0
	.loc 1 1688 2 view .LVU1300
	.loc 1 1689 2 view .LVU1301
	.loc 1 1687 1 is_stmt 0 view .LVU1302
	push	{r4, r5, r7, lr}
	.cfi_def_cfa_offset 16
	.cfi_offset 4, -16
	.cfi_offset 5, -12
	.cfi_offset 7, -8
	.cfi_offset 14, -4
	.loc 1 1689 11 view .LVU1303
	ldr	r3, [r0, #12]
	ldrh	r4, [r3, #1]	@ unaligned
.LVL133:
	.loc 1 1690 2 is_stmt 1 view .LVU1304
	.loc 1 1692 2 view .LVU1305
	.loc 1 1687 1 is_stmt 0 view .LVU1306
	add	r7, sp, #0
	.cfi_def_cfa_register 7
	.loc 1 1692 9 view .LVU1307
	movs	r1, #1
	mov	r0, r4
.LVL134:
	.loc 1 1692 9 view .LVU1308
	bl	bt_conn_lookup_handle
.LVL135:
	.loc 1 1693 2 is_stmt 1 view .LVU1309
	.loc 1 1693 5 is_stmt 0 view .LVU1310
	cbnz	r0, .L91
	.loc 1 1694 3 is_stmt 1 view .LVU1311
.LBB4092:
	.loc 1 1694 8 view .LVU1312
	.loc 1 1694 57 view .LVU1313
	.loc 1 1694 14 view .LVU1314
	.loc 1 1694 2 view .LVU1315
.LVL136:
	.loc 1 1694 41 view .LVU1316
	.loc 1 1694 176 view .LVU1317
	.loc 1 1694 187 view .LVU1318
	.loc 1 1694 275 view .LVU1319
.LBB4093:
	.loc 1 1694 3 view .LVU1320
	.loc 1 1694 5 view .LVU1321
	.loc 1 1694 3 view .LVU1322
.LBB4094:
	.loc 1 1694 8 view .LVU1323
	.loc 1 1694 2 view .LVU1324
.LBE4094:
.LBE4093:
.LBE4092:
	.loc 1 1694 3 view .LVU1325
	.loc 1 1694 12 view .LVU1326
	.loc 1 1694 107 view .LVU1327
	.loc 1 1694 3 view .LVU1328
.LBB4112:
.LBB4109:
.LBB4105:
	.loc 1 1694 12 view .LVU1329
	.loc 1 1694 102 view .LVU1330
	.loc 1 1694 104 view .LVU1331
.LBB4095:
	.loc 1 1694 107 is_stmt 0 view .LVU1332
	mov	r5, sp
	.loc 1 1694 109 is_stmt 1 view .LVU1333
	.loc 1 1694 120 view .LVU1334
.LVL137:
	.loc 1 1694 209 view .LVU1335
	.loc 1 1694 26 view .LVU1336
.LBE4095:
.LBE4105:
.LBE4109:
.LBE4112:
	.loc 1 1694 3 view .LVU1337
	.loc 1 1694 368 view .LVU1338
	.loc 1 1694 75 view .LVU1339
	.loc 1 1694 2 view .LVU1340
	.loc 1 1694 2 view .LVU1341
	.loc 1 1694 2 view .LVU1342
	.loc 1 1694 38 view .LVU1343
	.loc 1 1694 4 view .LVU1344
	.loc 1 1694 30 view .LVU1345
	.loc 1 1694 56 view .LVU1346
	.loc 1 1694 523 view .LVU1347
	.loc 1 1694 585 view .LVU1348
	.loc 1 1694 1106 view .LVU1349
	.loc 1 1694 1171 view .LVU1350
	.loc 1 1694 1196 view .LVU1351
	.loc 1 1694 1197 view .LVU1352
	.loc 1 1694 1199 view .LVU1353
	.loc 1 1694 1229 view .LVU1354
	.loc 1 1694 1259 view .LVU1355
	.loc 1 1694 1291 view .LVU1356
	.loc 1 1694 1323 view .LVU1357
	.loc 1 1694 1355 view .LVU1358
	.loc 1 1694 1552 view .LVU1359
	.loc 1 1694 1576 view .LVU1360
	.loc 1 1694 1577 view .LVU1361
	.loc 1 1694 1579 view .LVU1362
	.loc 1 1694 1608 view .LVU1363
	.loc 1 1694 1637 view .LVU1364
	.loc 1 1694 1668 view .LVU1365
	.loc 1 1694 1699 view .LVU1366
	.loc 1 1694 1730 view .LVU1367
	.loc 1 1694 1937 view .LVU1368
	.loc 1 1694 4 view .LVU1369
	.loc 1 1694 22 view .LVU1370
	.loc 1 1694 42 view .LVU1371
	.loc 1 1694 4 view .LVU1372
	.loc 1 1694 42 view .LVU1373
	.loc 1 1694 13 view .LVU1374
	.loc 1 1694 13 view .LVU1375
	.loc 1 1694 61 view .LVU1376
	.loc 1 1694 92 view .LVU1377
	.loc 1 1694 126 view .LVU1378
	.loc 1 1694 131 view .LVU1379
	.loc 1 1694 390 view .LVU1380
	.loc 1 1694 1479 view .LVU1381
	.loc 1 1694 1544 view .LVU1382
	.loc 1 1694 1568 view .LVU1383
	.loc 1 1694 1631 view .LVU1384
	.loc 1 1694 1642 view .LVU1385
	.loc 1 1694 1763 view .LVU1386
	.loc 1 1694 1779 view .LVU1387
	.loc 1 1694 1819 view .LVU1388
	.loc 1 1694 1844 view .LVU1389
	.loc 1 1694 3151 view .LVU1390
	.loc 1 1694 3192 view .LVU1391
	.loc 1 1694 7 view .LVU1392
	.loc 1 1694 30 view .LVU1393
	.loc 1 1694 129 view .LVU1394
	.loc 1 1694 6 view .LVU1395
	.loc 1 1694 11 view .LVU1396
	.loc 1 1694 236 view .LVU1397
	.loc 1 1694 1189 view .LVU1398
	.loc 1 1694 1254 view .LVU1399
	.loc 1 1694 1278 view .LVU1400
	.loc 1 1694 1307 view .LVU1401
	.loc 1 1694 1318 view .LVU1402
	.loc 1 1694 1405 view .LVU1403
	.loc 1 1694 1421 view .LVU1404
	.loc 1 1694 1461 view .LVU1405
	.loc 1 1694 2725 view .LVU1406
	.loc 1 1694 2766 view .LVU1407
	.loc 1 1694 7 view .LVU1408
	.loc 1 1694 30 view .LVU1409
	.loc 1 1694 9 view .LVU1410
	.loc 1 1694 5 view .LVU1411
	.loc 1 1694 28 view .LVU1412
	.loc 1 1694 52 view .LVU1413
	.loc 1 1694 80 view .LVU1414
	.loc 1 1694 256 view .LVU1415
	.loc 1 1694 16 view .LVU1416
.LBB4113:
.LBB4110:
.LBB4106:
.LBB4102:
	.loc 1 1694 29 view .LVU1417
	.loc 1 1694 3 view .LVU1418
	.loc 1 1694 3 view .LVU1419
	.loc 1 1694 70 view .LVU1420
	.loc 1 1694 82 is_stmt 0 view .LVU1421
	sub	sp, sp, #32
	mov	r2, sp
.LVL138:
	.loc 1 1694 74 is_stmt 1 view .LVU1422
	.loc 1 1694 484 view .LVU1423
	.loc 1 1694 5 view .LVU1424
	.loc 1 1694 7 view .LVU1425
	.loc 1 1694 12 view .LVU1426
	.loc 1 1694 10 view .LVU1427
	.loc 1 1694 5 view .LVU1428
	.loc 1 1694 23 view .LVU1429
.LBB4096:
	.loc 1 1694 3 view .LVU1430
	.loc 1 1694 368 view .LVU1431
	.loc 1 1694 75 view .LVU1432
.LVL139:
	.loc 1 1694 2 view .LVU1433
	.loc 1 1694 2 view .LVU1434
	.loc 1 1694 2 view .LVU1435
	.loc 1 1694 38 view .LVU1436
	.loc 1 1694 67 view .LVU1437
	.loc 1 1694 93 view .LVU1438
	.loc 1 1694 119 view .LVU1439
	.loc 1 1694 586 view .LVU1440
	.loc 1 1694 648 view .LVU1441
	.loc 1 1694 1169 view .LVU1442
	.loc 1 1694 1234 view .LVU1443
	.loc 1 1694 1259 view .LVU1444
	.loc 1 1694 1260 view .LVU1445
	.loc 1 1694 1262 view .LVU1446
	.loc 1 1694 1292 view .LVU1447
	.loc 1 1694 1322 view .LVU1448
	.loc 1 1694 1354 view .LVU1449
	.loc 1 1694 1386 view .LVU1450
	.loc 1 1694 1418 view .LVU1451
	.loc 1 1694 1615 view .LVU1452
	.loc 1 1694 1639 view .LVU1453
	.loc 1 1694 1640 view .LVU1454
	.loc 1 1694 1642 view .LVU1455
	.loc 1 1694 1671 view .LVU1456
	.loc 1 1694 1700 view .LVU1457
	.loc 1 1694 1731 view .LVU1458
	.loc 1 1694 1762 view .LVU1459
	.loc 1 1694 1793 view .LVU1460
	.loc 1 1694 2000 view .LVU1461
.LBB4097:
	.loc 1 1694 3189 view .LVU1462
	.loc 1 1694 3194 view .LVU1463
	.loc 1 1694 3842 view .LVU1464
	.loc 1 1694 0 is_stmt 0 view .LVU1465
	ldr	r3, .L93
.LBE4097:
.LBE4096:
	.loc 1 1694 149 view .LVU1466
	ldr	r0, .L93+4
.LVL140:
	.loc 1 1694 149 view .LVU1467
.LBE4102:
.LBE4106:
	.loc 1 1694 17 view .LVU1468
	strd	r3, r4, [r2, #20]
.LBB4107:
.LBB4103:
.LBB4100:
.LBB4098:
	.loc 1 1694 2766 is_stmt 1 view .LVU1469
	.loc 1 1694 7 view .LVU1470
.LVL141:
	.loc 1 1694 30 view .LVU1471
	.loc 1 1694 30 is_stmt 0 view .LVU1472
.LBE4098:
	.loc 1 1694 9 is_stmt 1 view .LVU1473
	.loc 1 1694 5 view .LVU1474
	.loc 1 1694 28 view .LVU1475
	.loc 1 1694 52 view .LVU1476
	.loc 1 1694 80 view .LVU1477
.LBE4100:
.LBE4103:
.LBE4107:
.LBE4110:
.LBE4113:
	.loc 1 1694 6 view .LVU1478
	.loc 1 1694 45 view .LVU1479
	.loc 1 1694 50 view .LVU1480
	.loc 1 1694 80 view .LVU1481
	.loc 1 1694 147 view .LVU1482
	.loc 1 1694 152 view .LVU1483
	.loc 1 1694 182 view .LVU1484
.LBB4114:
.LBB4111:
.LBB4108:
.LBB4104:
.LBB4101:
	.loc 1 1694 256 view .LVU1485
	.loc 1 1694 16 view .LVU1486
.LBB4099:
	.loc 1 1694 6 view .LVU1487
	.loc 1 1694 164 view .LVU1488
	.loc 1 1694 166 view .LVU1489
	.loc 1 1694 176 is_stmt 0 view .LVU1490
	movs	r3, #3
	str	r3, [r2, #16]!
.LVL142:
	.loc 1 1694 176 view .LVU1491
.LBE4099:
.LBE4101:
	.loc 1 1694 26 is_stmt 1 view .LVU1492
	.loc 1 1694 7 view .LVU1493
	.loc 1 1694 147 view .LVU1494
	.loc 1 1694 149 view .LVU1495
	mov	r1, #6208
	bl	z_log_msg_static_create.constprop.0
.LVL143:
	.loc 1 1694 149 is_stmt 0 view .LVU1496
	mov	sp, r5
.LVL144:
	.loc 1 1694 149 view .LVU1497
.LBE4104:
	.loc 1 1694 107 is_stmt 1 view .LVU1498
	.loc 1 1694 5 view .LVU1499
	.loc 1 1694 42 view .LVU1500
.LBE4108:
	.loc 1 1694 6 view .LVU1501
.LBE4111:
	.loc 1 1694 278 view .LVU1502
	.loc 1 1694 5 view .LVU1503
	.loc 1 1694 18 view .LVU1504
.LBE4114:
	.loc 1 1694 6 view .LVU1505
	.loc 1 1695 3 view .LVU1506
.L90:
	.loc 1 1708 1 is_stmt 0 view .LVU1507
	mov	sp, r7
	.cfi_remember_state
	.cfi_def_cfa_register 13
	@ sp needed
	pop	{r4, r5, r7, pc}
.LVL145:
.L91:
	.cfi_restore_state
	.loc 1 1698 2 is_stmt 1 discriminator 435 view .LVU1508
.LBB4115:
	.loc 1 1698 7 discriminator 435 view .LVU1509
.LBE4115:
	.loc 1 1698 5 discriminator 435 view .LVU1510
	.loc 1 1707 2 discriminator 435 view .LVU1511
	bl	bt_conn_unref
.LVL146:
	.loc 1 1707 2 is_stmt 0 discriminator 435 view .LVU1512
	b	.L90
.L94:
	.align	2
.L93:
	.word	.LC21
	.word	log_const_bt_hci_core
	.cfi_endproc
.LFE629:
	.size	le_phy_update_complete, .-le_phy_update_complete
	.section	.rodata.hci_disconn_complete.str1.1,"aMS",%progbits,1
.LC22:
	.ascii	"Unable to look up conn with handle %u\000"
	.section	.text.hci_disconn_complete,"ax",%progbits
	.align	1
	.syntax unified
	.thumb
	.thumb_func
	.type	hci_disconn_complete, %function
hci_disconn_complete:
.LVL147:
.LFB611:
	.loc 1 848 1 is_stmt 1 view -0
	.cfi_startproc
	@ args = 0, pretend = 0, frame = 0
	@ frame_needed = 1, uses_anonymous_args = 0
	.loc 1 849 2 view .LVU1514
	.loc 1 848 1 is_stmt 0 view .LVU1515
	push	{r4, r5, r6, r7, r8, lr}
	.cfi_def_cfa_offset 24
	.cfi_offset 4, -24
	.cfi_offset 5, -20
	.cfi_offset 6, -16
	.cfi_offset 7, -12
	.cfi_offset 8, -8
	.cfi_offset 14, -4
	.loc 1 849 38 view .LVU1516
	ldr	r5, [r0, #12]
.LVL148:
	.loc 1 850 2 is_stmt 1 view .LVU1517
	.loc 1 851 2 view .LVU1518
	.loc 1 853 2 view .LVU1519
.LBB4116:
	.loc 1 853 7 view .LVU1520
.LBE4116:
	.loc 1 853 5 view .LVU1521
	.loc 1 855 2 view .LVU1522
	.loc 1 855 5 is_stmt 0 view .LVU1523
	ldrb	r6, [r5]	@ zero_extendqisi2
	.loc 1 848 1 view .LVU1524
	add	r7, sp, #0
	.cfi_def_cfa_register 7
	.loc 1 855 5 view .LVU1525
	cbnz	r6, .L95
	.loc 1 850 11 view .LVU1526
	ldrh	r8, [r5, #1]	@ unaligned
	.loc 1 859 2 is_stmt 1 view .LVU1527
	.loc 1 859 9 is_stmt 0 view .LVU1528
	movs	r1, #15
	mov	r0, r8
.LVL149:
	.loc 1 859 9 view .LVU1529
	bl	bt_conn_lookup_handle
.LVL150:
	.loc 1 860 2 is_stmt 1 view .LVU1530
	.loc 1 860 5 is_stmt 0 view .LVU1531
	mov	r4, r0
	cbnz	r0, .L97
	.loc 1 861 3 is_stmt 1 view .LVU1532
.LBB4117:
	.loc 1 861 8 view .LVU1533
	.loc 1 861 57 view .LVU1534
	.loc 1 861 14 view .LVU1535
	.loc 1 861 2 view .LVU1536
.LVL151:
	.loc 1 861 41 view .LVU1537
	.loc 1 861 176 view .LVU1538
	.loc 1 861 187 view .LVU1539
	.loc 1 861 275 view .LVU1540
.LBB4118:
	.loc 1 861 3 view .LVU1541
	.loc 1 861 5 view .LVU1542
	.loc 1 861 3 view .LVU1543
.LBB4119:
	.loc 1 861 8 view .LVU1544
	.loc 1 861 2 view .LVU1545
.LBE4119:
.LBE4118:
.LBE4117:
	.loc 1 861 3 view .LVU1546
	.loc 1 861 12 view .LVU1547
	.loc 1 861 107 view .LVU1548
	.loc 1 861 3 view .LVU1549
.LBB4137:
.LBB4134:
.LBB4130:
	.loc 1 861 12 view .LVU1550
	.loc 1 861 102 view .LVU1551
	.loc 1 861 104 view .LVU1552
.LBB4120:
	.loc 1 861 107 is_stmt 0 view .LVU1553
	mov	r4, sp
	.loc 1 861 109 is_stmt 1 view .LVU1554
	.loc 1 861 120 view .LVU1555
.LVL152:
	.loc 1 861 209 view .LVU1556
	.loc 1 861 26 view .LVU1557
.LBE4120:
.LBE4130:
.LBE4134:
.LBE4137:
	.loc 1 861 3 view .LVU1558
	.loc 1 861 368 view .LVU1559
	.loc 1 861 75 view .LVU1560
	.loc 1 861 2 view .LVU1561
	.loc 1 861 2 view .LVU1562
	.loc 1 861 2 view .LVU1563
	.loc 1 861 38 view .LVU1564
	.loc 1 861 4 view .LVU1565
	.loc 1 861 30 view .LVU1566
	.loc 1 861 56 view .LVU1567
	.loc 1 861 523 view .LVU1568
	.loc 1 861 585 view .LVU1569
	.loc 1 861 1106 view .LVU1570
	.loc 1 861 1171 view .LVU1571
	.loc 1 861 1196 view .LVU1572
	.loc 1 861 1197 view .LVU1573
	.loc 1 861 1199 view .LVU1574
	.loc 1 861 1229 view .LVU1575
	.loc 1 861 1259 view .LVU1576
	.loc 1 861 1291 view .LVU1577
	.loc 1 861 1323 view .LVU1578
	.loc 1 861 1355 view .LVU1579
	.loc 1 861 1552 view .LVU1580
	.loc 1 861 1576 view .LVU1581
	.loc 1 861 1577 view .LVU1582
	.loc 1 861 1579 view .LVU1583
	.loc 1 861 1608 view .LVU1584
	.loc 1 861 1637 view .LVU1585
	.loc 1 861 1668 view .LVU1586
	.loc 1 861 1699 view .LVU1587
	.loc 1 861 1730 view .LVU1588
	.loc 1 861 1937 view .LVU1589
	.loc 1 861 4 view .LVU1590
	.loc 1 861 22 view .LVU1591
	.loc 1 861 42 view .LVU1592
	.loc 1 861 4 view .LVU1593
	.loc 1 861 42 view .LVU1594
	.loc 1 861 13 view .LVU1595
	.loc 1 861 13 view .LVU1596
	.loc 1 861 61 view .LVU1597
	.loc 1 861 92 view .LVU1598
	.loc 1 861 126 view .LVU1599
	.loc 1 861 131 view .LVU1600
	.loc 1 861 392 view .LVU1601
	.loc 1 861 1489 view .LVU1602
	.loc 1 861 1554 view .LVU1603
	.loc 1 861 1578 view .LVU1604
	.loc 1 861 1643 view .LVU1605
	.loc 1 861 1654 view .LVU1606
	.loc 1 861 1777 view .LVU1607
	.loc 1 861 1793 view .LVU1608
	.loc 1 861 1833 view .LVU1609
	.loc 1 861 1858 view .LVU1610
	.loc 1 861 3169 view .LVU1611
	.loc 1 861 3210 view .LVU1612
	.loc 1 861 7 view .LVU1613
	.loc 1 861 30 view .LVU1614
	.loc 1 861 129 view .LVU1615
	.loc 1 861 6 view .LVU1616
	.loc 1 861 11 view .LVU1617
	.loc 1 861 236 view .LVU1618
	.loc 1 861 1189 view .LVU1619
	.loc 1 861 1254 view .LVU1620
	.loc 1 861 1278 view .LVU1621
	.loc 1 861 1307 view .LVU1622
	.loc 1 861 1318 view .LVU1623
	.loc 1 861 1405 view .LVU1624
	.loc 1 861 1421 view .LVU1625
	.loc 1 861 1461 view .LVU1626
	.loc 1 861 2725 view .LVU1627
	.loc 1 861 2766 view .LVU1628
	.loc 1 861 7 view .LVU1629
	.loc 1 861 30 view .LVU1630
	.loc 1 861 9 view .LVU1631
	.loc 1 861 5 view .LVU1632
	.loc 1 861 28 view .LVU1633
	.loc 1 861 52 view .LVU1634
	.loc 1 861 80 view .LVU1635
	.loc 1 861 256 view .LVU1636
	.loc 1 861 16 view .LVU1637
.LBB4138:
.LBB4135:
.LBB4131:
.LBB4127:
	.loc 1 861 29 view .LVU1638
	.loc 1 861 3 view .LVU1639
	.loc 1 861 3 view .LVU1640
	.loc 1 861 70 view .LVU1641
	.loc 1 861 82 is_stmt 0 view .LVU1642
	sub	sp, sp, #32
	mov	r2, sp
.LVL153:
	.loc 1 861 74 is_stmt 1 view .LVU1643
	.loc 1 861 484 view .LVU1644
	.loc 1 861 5 view .LVU1645
	.loc 1 861 7 view .LVU1646
	.loc 1 861 12 view .LVU1647
	.loc 1 861 10 view .LVU1648
	.loc 1 861 5 view .LVU1649
	.loc 1 861 23 view .LVU1650
.LBB4121:
	.loc 1 861 3 view .LVU1651
	.loc 1 861 368 view .LVU1652
	.loc 1 861 75 view .LVU1653
.LVL154:
	.loc 1 861 2 view .LVU1654
	.loc 1 861 2 view .LVU1655
	.loc 1 861 2 view .LVU1656
	.loc 1 861 38 view .LVU1657
	.loc 1 861 67 view .LVU1658
	.loc 1 861 93 view .LVU1659
	.loc 1 861 119 view .LVU1660
	.loc 1 861 586 view .LVU1661
	.loc 1 861 648 view .LVU1662
	.loc 1 861 1169 view .LVU1663
	.loc 1 861 1234 view .LVU1664
	.loc 1 861 1259 view .LVU1665
	.loc 1 861 1260 view .LVU1666
	.loc 1 861 1262 view .LVU1667
	.loc 1 861 1292 view .LVU1668
	.loc 1 861 1322 view .LVU1669
	.loc 1 861 1354 view .LVU1670
	.loc 1 861 1386 view .LVU1671
	.loc 1 861 1418 view .LVU1672
	.loc 1 861 1615 view .LVU1673
	.loc 1 861 1639 view .LVU1674
	.loc 1 861 1640 view .LVU1675
	.loc 1 861 1642 view .LVU1676
	.loc 1 861 1671 view .LVU1677
	.loc 1 861 1700 view .LVU1678
	.loc 1 861 1731 view .LVU1679
	.loc 1 861 1762 view .LVU1680
	.loc 1 861 1793 view .LVU1681
	.loc 1 861 2000 view .LVU1682
.LBB4122:
	.loc 1 861 3207 view .LVU1683
	.loc 1 861 3212 view .LVU1684
	.loc 1 861 3872 view .LVU1685
	.loc 1 861 0 is_stmt 0 view .LVU1686
	ldr	r3, .L99
.LBE4122:
.LBE4121:
	.loc 1 861 149 view .LVU1687
	ldr	r0, .L99+4
.LVL155:
	.loc 1 861 149 view .LVU1688
.LBE4127:
.LBE4131:
	.loc 1 861 17 view .LVU1689
	strd	r3, r8, [r2, #20]
.LBB4132:
.LBB4128:
.LBB4125:
.LBB4123:
	.loc 1 861 2766 is_stmt 1 view .LVU1690
	.loc 1 861 7 view .LVU1691
.LVL156:
	.loc 1 861 30 view .LVU1692
	.loc 1 861 30 is_stmt 0 view .LVU1693
.LBE4123:
	.loc 1 861 9 is_stmt 1 view .LVU1694
	.loc 1 861 5 view .LVU1695
	.loc 1 861 28 view .LVU1696
	.loc 1 861 52 view .LVU1697
	.loc 1 861 80 view .LVU1698
.LBE4125:
.LBE4128:
.LBE4132:
.LBE4135:
.LBE4138:
	.loc 1 861 6 view .LVU1699
	.loc 1 861 45 view .LVU1700
	.loc 1 861 50 view .LVU1701
	.loc 1 861 80 view .LVU1702
	.loc 1 861 147 view .LVU1703
	.loc 1 861 152 view .LVU1704
	.loc 1 861 182 view .LVU1705
.LBB4139:
.LBB4136:
.LBB4133:
.LBB4129:
.LBB4126:
	.loc 1 861 256 view .LVU1706
	.loc 1 861 16 view .LVU1707
.LBB4124:
	.loc 1 861 6 view .LVU1708
	.loc 1 861 164 view .LVU1709
	.loc 1 861 166 view .LVU1710
	.loc 1 861 176 is_stmt 0 view .LVU1711
	movs	r3, #3
	str	r3, [r2, #16]!
.LVL157:
	.loc 1 861 176 view .LVU1712
.LBE4124:
.LBE4126:
	.loc 1 861 26 is_stmt 1 view .LVU1713
	.loc 1 861 7 view .LVU1714
	.loc 1 861 147 view .LVU1715
	.loc 1 861 149 view .LVU1716
	mov	r1, #6208
	bl	z_log_msg_static_create.constprop.0
.LVL158:
	.loc 1 861 149 is_stmt 0 view .LVU1717
	mov	sp, r4
.LVL159:
	.loc 1 861 149 view .LVU1718
.LBE4129:
	.loc 1 861 107 is_stmt 1 view .LVU1719
	.loc 1 861 5 view .LVU1720
	.loc 1 861 42 view .LVU1721
.LBE4133:
	.loc 1 861 6 view .LVU1722
.LBE4136:
	.loc 1 861 278 view .LVU1723
	.loc 1 861 5 view .LVU1724
	.loc 1 861 18 view .LVU1725
.LBE4139:
	.loc 1 861 6 view .LVU1726
	.loc 1 862 3 view .LVU1727
.L95:
	.loc 1 896 1 is_stmt 0 view .LVU1728
	mov	sp, r7
	.cfi_remember_state
	.cfi_def_cfa_register 13
	@ sp needed
	pop	{r4, r5, r6, r7, r8, pc}
.LVL160:
.L97:
	.cfi_restore_state
	.loc 1 865 2 is_stmt 1 view .LVU1729
	.loc 1 865 17 is_stmt 0 view .LVU1730
	ldrb	r3, [r5, #3]	@ zero_extendqisi2
	.loc 1 865 12 view .LVU1731
	strb	r3, [r0, #12]
	.loc 1 867 2 is_stmt 1 view .LVU1732
	mov	r1, r6
	bl	bt_conn_set_state
.LVL161:
	.loc 1 869 2 view .LVU1733
	.loc 1 884 3 is_stmt 0 view .LVU1734
	mov	r0, r4
	.loc 1 895 2 is_stmt 1 view .LVU1735
	bl	bt_conn_unref
.LVL162:
	b	.L95
.L100:
	.align	2
.L99:
	.word	.LC22
	.word	log_const_bt_hci_core
	.cfi_endproc
.LFE611:
	.size	hci_disconn_complete, .-hci_disconn_complete
	.section	.rodata.handle_event.str1.1,"aMS",%progbits,1
.LC23:
	.ascii	"Too small (%u bytes) event 0x%02x\000"
	.section	.text.handle_event,"ax",%progbits
	.align	1
	.syntax unified
	.thumb
	.thumb_func
	.type	handle_event, %function
handle_event:
.LVL163:
.LFB595:
	.loc 1 182 1 view -0
	.cfi_startproc
	@ args = 0, pretend = 0, frame = 0
	@ frame_needed = 1, uses_anonymous_args = 0
	.loc 1 182 1 is_stmt 0 view .LVU1737
	push	{r4, r5, r7, lr}
	.cfi_def_cfa_offset 16
	.cfi_offset 4, -16
	.cfi_offset 5, -12
	.cfi_offset 7, -8
	.cfi_offset 14, -4
	add	r3, r2, r3, lsl #3
.LVL164:
	.loc 1 182 1 view .LVU1738
	add	r7, sp, #0
	.cfi_def_cfa_register 7
	.loc 1 182 1 view .LVU1739
	mov	r4, r0
	.loc 1 183 2 is_stmt 1 view .LVU1740
	.loc 1 185 2 view .LVU1741
.LVL165:
.LBB4156:
.LBI4156:
	.loc 1 156 12 view .LVU1742
.LBB4157:
	.loc 1 159 2 view .LVU1743
	.loc 1 161 2 view .LVU1744
.L102:
	.loc 1 161 16 view .LVU1745
	cmp	r3, r2
	bne	.L105
.LVL166:
	.loc 1 161 16 is_stmt 0 view .LVU1746
.LBE4157:
.LBE4156:
	.loc 1 186 2 is_stmt 1 view .LVU1747
	mov	r0, r4
	bl	handle_event.part.0
.LVL167:
	.loc 1 187 6 view .LVU1748
	.loc 1 192 1 is_stmt 0 view .LVU1749
	b	.L101
.LVL168:
.L105:
.LBB4176:
.LBB4173:
.LBB4158:
	.loc 1 162 3 is_stmt 1 view .LVU1750
	.loc 1 164 3 view .LVU1751
	.loc 1 164 6 is_stmt 0 view .LVU1752
	mov	r0, r2
	ldrb	r5, [r0], #8	@ zero_extendqisi2
	cmp	r5, r4
	bne	.L106
	.loc 1 168 3 is_stmt 1 view .LVU1753
	.loc 1 168 10 is_stmt 0 view .LVU1754
	ldrh	r3, [r1, #16]
	.loc 1 168 6 view .LVU1755
	ldrb	r0, [r2, #1]	@ zero_extendqisi2
	cmp	r0, r3
	bls	.L103
	.loc 1 169 4 is_stmt 1 view .LVU1756
.LBB4159:
	.loc 1 169 9 view .LVU1757
	.loc 1 169 58 view .LVU1758
	.loc 1 169 15 view .LVU1759
	.loc 1 169 3 view .LVU1760
.LVL169:
	.loc 1 169 42 view .LVU1761
	.loc 1 169 177 view .LVU1762
	.loc 1 169 188 view .LVU1763
	.loc 1 169 276 view .LVU1764
.LBB4160:
	.loc 1 169 4 view .LVU1765
	.loc 1 169 6 view .LVU1766
	.loc 1 169 41 view .LVU1767
	.loc 1 169 4 view .LVU1768
.LBB4161:
	.loc 1 169 9 view .LVU1769
	.loc 1 169 3 view .LVU1770
	.loc 1 169 13 view .LVU1771
	.loc 1 169 103 view .LVU1772
	.loc 1 169 105 view .LVU1773
.LBB4162:
	.loc 1 169 108 is_stmt 0 view .LVU1774
	mov	r5, sp
	.loc 1 169 110 is_stmt 1 view .LVU1775
	.loc 1 169 121 view .LVU1776
.LVL170:
	.loc 1 169 210 view .LVU1777
	.loc 1 169 27 view .LVU1778
	.loc 1 169 30 view .LVU1779
	.loc 1 169 4 view .LVU1780
	.loc 1 169 4 view .LVU1781
	.loc 1 169 71 view .LVU1782
	.loc 1 169 83 is_stmt 0 view .LVU1783
	sub	sp, sp, #32
	mov	r2, sp
.LVL171:
	.loc 1 169 75 is_stmt 1 view .LVU1784
	.loc 1 169 485 view .LVU1785
	.loc 1 169 6 view .LVU1786
	.loc 1 169 8 view .LVU1787
	.loc 1 169 13 view .LVU1788
	.loc 1 169 11 view .LVU1789
	.loc 1 169 6 view .LVU1790
	.loc 1 169 24 view .LVU1791
.LBB4163:
	.loc 1 169 4 view .LVU1792
	.loc 1 169 369 view .LVU1793
	.loc 1 169 76 view .LVU1794
.LVL172:
	.loc 1 169 3 view .LVU1795
	.loc 1 169 3 view .LVU1796
	.loc 1 169 3 view .LVU1797
	.loc 1 169 39 view .LVU1798
	.loc 1 169 68 view .LVU1799
	.loc 1 169 94 view .LVU1800
	.loc 1 169 120 view .LVU1801
	.loc 1 169 1033 view .LVU1802
	.loc 1 169 1095 view .LVU1803
	.loc 1 169 2082 view .LVU1804
	.loc 1 169 2147 view .LVU1805
	.loc 1 169 2172 view .LVU1806
	.loc 1 169 2173 view .LVU1807
	.loc 1 169 2175 view .LVU1808
	.loc 1 169 2205 view .LVU1809
	.loc 1 169 2235 view .LVU1810
	.loc 1 169 2267 view .LVU1811
	.loc 1 169 2299 view .LVU1812
	.loc 1 169 2331 view .LVU1813
	.loc 1 169 2528 view .LVU1814
	.loc 1 169 2552 view .LVU1815
	.loc 1 169 2553 view .LVU1816
	.loc 1 169 2555 view .LVU1817
	.loc 1 169 2584 view .LVU1818
	.loc 1 169 2613 view .LVU1819
	.loc 1 169 2644 view .LVU1820
	.loc 1 169 2675 view .LVU1821
	.loc 1 169 2706 view .LVU1822
	.loc 1 169 2913 view .LVU1823
.LBB4164:
	.loc 1 169 3172 view .LVU1824
	.loc 1 169 3177 view .LVU1825
	.loc 1 169 3813 view .LVU1826
	.loc 1 169 0 is_stmt 0 view .LVU1827
	ldr	r1, .L107
.LVL173:
	.loc 1 169 0 view .LVU1828
.LBE4164:
.LBE4163:
.LBE4162:
.LBE4161:
	.loc 1 169 53 view .LVU1829
	str	r4, [r2, #28]
	.loc 1 169 18 view .LVU1830
	strd	r1, r3, [r2, #20]
.LBB4170:
.LBB4169:
.LBB4168:
.LBB4165:
	.loc 1 169 2767 is_stmt 1 view .LVU1831
	.loc 1 169 8 view .LVU1832
.LVL174:
	.loc 1 169 31 view .LVU1833
	.loc 1 169 31 is_stmt 0 view .LVU1834
.LBE4165:
	.loc 1 169 10 is_stmt 1 view .LVU1835
	.loc 1 169 7 view .LVU1836
.LBB4166:
	.loc 1 169 12 view .LVU1837
	.loc 1 169 237 view .LVU1838
	.loc 1 169 1190 view .LVU1839
	.loc 1 169 1255 view .LVU1840
	.loc 1 169 1422 view .LVU1841
	.loc 1 169 1462 view .LVU1842
	.loc 1 169 2726 view .LVU1843
	.loc 1 169 2764 view .LVU1844
	.loc 1 169 2769 view .LVU1845
	.loc 1 169 3213 view .LVU1846
	.loc 1 169 2767 view .LVU1847
	.loc 1 169 8 view .LVU1848
	.loc 1 169 31 view .LVU1849
	.loc 1 169 31 is_stmt 0 view .LVU1850
.LBE4166:
	.loc 1 169 10 is_stmt 1 view .LVU1851
	.loc 1 169 6 view .LVU1852
	.loc 1 169 29 view .LVU1853
	.loc 1 169 53 view .LVU1854
	.loc 1 169 81 view .LVU1855
	.loc 1 169 257 view .LVU1856
	.loc 1 169 17 view .LVU1857
.LBB4167:
	.loc 1 169 7 view .LVU1858
	.loc 1 169 165 view .LVU1859
	.loc 1 169 167 view .LVU1860
	.loc 1 169 177 is_stmt 0 view .LVU1861
	movs	r3, #4
.LVL175:
	.loc 1 169 177 view .LVU1862
	str	r3, [r2, #16]!
.LVL176:
	.loc 1 169 177 view .LVU1863
.LBE4167:
.LBE4168:
	.loc 1 169 27 is_stmt 1 view .LVU1864
	.loc 1 169 8 view .LVU1865
	.loc 1 169 148 view .LVU1866
	.loc 1 169 150 view .LVU1867
	ldr	r0, .L107+4
	mov	r1, #8256
	bl	z_log_msg_static_create.constprop.0
.LVL177:
	.loc 1 169 150 is_stmt 0 view .LVU1868
	mov	sp, r5
.LVL178:
	.loc 1 169 150 view .LVU1869
.LBE4169:
	.loc 1 169 108 is_stmt 1 view .LVU1870
	.loc 1 169 6 view .LVU1871
	.loc 1 169 43 view .LVU1872
.LBE4170:
	.loc 1 169 7 view .LVU1873
.LBE4160:
	.loc 1 169 279 view .LVU1874
	.loc 1 169 6 view .LVU1875
	.loc 1 169 19 view .LVU1876
.LBE4159:
	.loc 1 169 7 view .LVU1877
	.loc 1 170 4 view .LVU1878
	.loc 1 170 4 is_stmt 0 view .LVU1879
.LBE4158:
.LBE4173:
.LBE4176:
	.loc 1 186 2 is_stmt 1 view .LVU1880
.L101:
	.loc 1 192 1 is_stmt 0 view .LVU1881
	mov	sp, r7
	.cfi_remember_state
	.cfi_def_cfa_register 13
	@ sp needed
	pop	{r4, r5, r7, pc}
.LVL179:
.L103:
	.cfi_restore_state
.LBB4177:
.LBB4174:
.LBB4171:
	.loc 1 173 3 is_stmt 1 view .LVU1882
	ldr	r3, [r2, #4]
	mov	r0, r1
	blx	r3
.LVL180:
	.loc 1 174 3 view .LVU1883
	.loc 1 174 3 is_stmt 0 view .LVU1884
.LBE4171:
.LBE4174:
.LBE4177:
	.loc 1 186 2 is_stmt 1 view .LVU1885
	b	.L101
.LVL181:
.L106:
.LBB4178:
.LBB4175:
.LBB4172:
	.loc 1 186 2 is_stmt 0 view .LVU1886
	mov	r2, r0
.LVL182:
	.loc 1 186 2 view .LVU1887
	b	.L102
.L108:
	.align	2
.L107:
	.word	.LC23
	.word	log_const_bt_hci_core
.LBE4172:
.LBE4175:
.LBE4178:
	.cfi_endproc
.LFE595:
	.size	handle_event, .-handle_event
	.section	.text.hci_le_meta_event,"ax",%progbits
	.align	1
	.syntax unified
	.thumb
	.thumb_func
	.type	hci_le_meta_event, %function
hci_le_meta_event:
.LVL183:
.LFB652:
	.loc 1 2569 1 is_stmt 1 view -0
	.cfi_startproc
	@ args = 0, pretend = 0, frame = 0
	@ frame_needed = 0, uses_anonymous_args = 0
	.loc 1 2570 2 view .LVU1889
	.loc 1 2572 2 view .LVU1890
.LBB4179:
.LBI4179:
	.loc 8 2076 21 view .LVU1891
.LBB4180:
	.loc 8 2078 2 view .LVU1892
.LBE4180:
.LBE4179:
	.loc 1 2569 1 is_stmt 0 view .LVU1893
	push	{r4, lr}
	.cfi_def_cfa_offset 8
	.cfi_offset 4, -8
	.cfi_offset 14, -4
.LBB4183:
.LBB4181:
	.loc 8 2078 9 view .LVU1894
	movs	r1, #1
.LBE4181:
.LBE4183:
	.loc 1 2569 1 view .LVU1895
	mov	r4, r0
.LBB4184:
.LBB4182:
	.loc 8 2078 9 view .LVU1896
	adds	r0, r0, #12
.LVL184:
	.loc 8 2078 9 view .LVU1897
	bl	net_buf_simple_pull_mem
.LVL185:
	.loc 8 2078 9 view .LVU1898
.LBE4182:
.LBE4184:
	.loc 1 2574 2 is_stmt 1 view .LVU1899
.LBB4185:
	.loc 1 2574 7 view .LVU1900
.LBE4185:
	.loc 1 2574 5 view .LVU1901
	.loc 1 2576 2 view .LVU1902
	mov	r1, r4
	ldr	r2, .L110
	ldrb	r0, [r0]	@ zero_extendqisi2
.LVL186:
	.loc 1 2577 1 is_stmt 0 view .LVU1903
	pop	{r4, lr}
	.cfi_restore 14
	.cfi_restore 4
	.cfi_def_cfa_offset 0
.LVL187:
	.loc 1 2576 2 view .LVU1904
	movs	r3, #10
	b	handle_event
.LVL188:
.L111:
	.loc 1 2576 2 view .LVU1905
	.align	2
.L110:
	.word	meta_events
	.cfi_endproc
.LFE652:
	.size	hci_le_meta_event, .-hci_le_meta_event
	.section	.text.le_remote_feat_complete,"ax",%progbits
	.align	1
	.syntax unified
	.thumb
	.thumb_func
	.type	le_remote_feat_complete, %function
le_remote_feat_complete:
.LVL189:
.LFB627:
	.loc 1 1626 1 is_stmt 1 view -0
	.cfi_startproc
	@ args = 0, pretend = 0, frame = 0
	@ frame_needed = 1, uses_anonymous_args = 0
	.loc 1 1627 2 view .LVU1907
	.loc 1 1626 1 is_stmt 0 view .LVU1908
	push	{r3, r4, r5, r6, r7, lr}
	.cfi_def_cfa_offset 24
	.cfi_offset 3, -24
	.cfi_offset 4, -20
	.cfi_offset 5, -16
	.cfi_offset 6, -12
	.cfi_offset 7, -8
	.cfi_offset 14, -4
	.loc 1 1627 45 view .LVU1909
	ldr	r5, [r0, #12]
.LVL190:
	.loc 1 1628 2 is_stmt 1 view .LVU1910
	.loc 1 1628 11 is_stmt 0 view .LVU1911
	ldrh	r6, [r5, #1]	@ unaligned
.LVL191:
	.loc 1 1629 2 is_stmt 1 view .LVU1912
	.loc 1 1631 2 view .LVU1913
	.loc 1 1626 1 is_stmt 0 view .LVU1914
	add	r7, sp, #0
	.cfi_def_cfa_register 7
	.loc 1 1631 9 view .LVU1915
	movs	r1, #1
	mov	r0, r6
.LVL192:
	.loc 1 1631 9 view .LVU1916
	bl	bt_conn_lookup_handle
.LVL193:
	.loc 1 1632 2 is_stmt 1 view .LVU1917
	.loc 1 1632 5 is_stmt 0 view .LVU1918
	mov	r4, r0
	cbnz	r0, .L113
	.loc 1 1633 3 is_stmt 1 view .LVU1919
.LBB4198:
	.loc 1 1633 8 view .LVU1920
	.loc 1 1633 57 view .LVU1921
	.loc 1 1633 14 view .LVU1922
	.loc 1 1633 2 view .LVU1923
.LVL194:
	.loc 1 1633 41 view .LVU1924
	.loc 1 1633 176 view .LVU1925
	.loc 1 1633 187 view .LVU1926
	.loc 1 1633 275 view .LVU1927
.LBB4199:
	.loc 1 1633 3 view .LVU1928
	.loc 1 1633 5 view .LVU1929
	.loc 1 1633 3 view .LVU1930
.LBB4200:
	.loc 1 1633 8 view .LVU1931
	.loc 1 1633 2 view .LVU1932
.LBE4200:
.LBE4199:
.LBE4198:
	.loc 1 1633 3 view .LVU1933
	.loc 1 1633 12 view .LVU1934
	.loc 1 1633 107 view .LVU1935
	.loc 1 1633 3 view .LVU1936
.LBB4218:
.LBB4215:
.LBB4211:
	.loc 1 1633 12 view .LVU1937
	.loc 1 1633 102 view .LVU1938
	.loc 1 1633 104 view .LVU1939
.LBB4201:
	.loc 1 1633 107 is_stmt 0 view .LVU1940
	mov	r4, sp
	.loc 1 1633 109 is_stmt 1 view .LVU1941
	.loc 1 1633 120 view .LVU1942
.LVL195:
	.loc 1 1633 209 view .LVU1943
	.loc 1 1633 26 view .LVU1944
.LBE4201:
.LBE4211:
.LBE4215:
.LBE4218:
	.loc 1 1633 3 view .LVU1945
	.loc 1 1633 368 view .LVU1946
	.loc 1 1633 75 view .LVU1947
	.loc 1 1633 2 view .LVU1948
	.loc 1 1633 2 view .LVU1949
	.loc 1 1633 2 view .LVU1950
	.loc 1 1633 38 view .LVU1951
	.loc 1 1633 4 view .LVU1952
	.loc 1 1633 30 view .LVU1953
	.loc 1 1633 56 view .LVU1954
	.loc 1 1633 523 view .LVU1955
	.loc 1 1633 585 view .LVU1956
	.loc 1 1633 1106 view .LVU1957
	.loc 1 1633 1171 view .LVU1958
	.loc 1 1633 1196 view .LVU1959
	.loc 1 1633 1197 view .LVU1960
	.loc 1 1633 1199 view .LVU1961
	.loc 1 1633 1229 view .LVU1962
	.loc 1 1633 1259 view .LVU1963
	.loc 1 1633 1291 view .LVU1964
	.loc 1 1633 1323 view .LVU1965
	.loc 1 1633 1355 view .LVU1966
	.loc 1 1633 1552 view .LVU1967
	.loc 1 1633 1576 view .LVU1968
	.loc 1 1633 1577 view .LVU1969
	.loc 1 1633 1579 view .LVU1970
	.loc 1 1633 1608 view .LVU1971
	.loc 1 1633 1637 view .LVU1972
	.loc 1 1633 1668 view .LVU1973
	.loc 1 1633 1699 view .LVU1974
	.loc 1 1633 1730 view .LVU1975
	.loc 1 1633 1937 view .LVU1976
	.loc 1 1633 4 view .LVU1977
	.loc 1 1633 22 view .LVU1978
	.loc 1 1633 42 view .LVU1979
	.loc 1 1633 4 view .LVU1980
	.loc 1 1633 42 view .LVU1981
	.loc 1 1633 13 view .LVU1982
	.loc 1 1633 13 view .LVU1983
	.loc 1 1633 61 view .LVU1984
	.loc 1 1633 92 view .LVU1985
	.loc 1 1633 126 view .LVU1986
	.loc 1 1633 131 view .LVU1987
	.loc 1 1633 390 view .LVU1988
	.loc 1 1633 1479 view .LVU1989
	.loc 1 1633 1544 view .LVU1990
	.loc 1 1633 1568 view .LVU1991
	.loc 1 1633 1631 view .LVU1992
	.loc 1 1633 1642 view .LVU1993
	.loc 1 1633 1763 view .LVU1994
	.loc 1 1633 1779 view .LVU1995
	.loc 1 1633 1819 view .LVU1996
	.loc 1 1633 1844 view .LVU1997
	.loc 1 1633 3151 view .LVU1998
	.loc 1 1633 3192 view .LVU1999
	.loc 1 1633 7 view .LVU2000
	.loc 1 1633 30 view .LVU2001
	.loc 1 1633 129 view .LVU2002
	.loc 1 1633 6 view .LVU2003
	.loc 1 1633 11 view .LVU2004
	.loc 1 1633 236 view .LVU2005
	.loc 1 1633 1189 view .LVU2006
	.loc 1 1633 1254 view .LVU2007
	.loc 1 1633 1278 view .LVU2008
	.loc 1 1633 1307 view .LVU2009
	.loc 1 1633 1318 view .LVU2010
	.loc 1 1633 1405 view .LVU2011
	.loc 1 1633 1421 view .LVU2012
	.loc 1 1633 1461 view .LVU2013
	.loc 1 1633 2725 view .LVU2014
	.loc 1 1633 2766 view .LVU2015
	.loc 1 1633 7 view .LVU2016
	.loc 1 1633 30 view .LVU2017
	.loc 1 1633 9 view .LVU2018
	.loc 1 1633 5 view .LVU2019
	.loc 1 1633 28 view .LVU2020
	.loc 1 1633 52 view .LVU2021
	.loc 1 1633 80 view .LVU2022
	.loc 1 1633 256 view .LVU2023
	.loc 1 1633 16 view .LVU2024
.LBB4219:
.LBB4216:
.LBB4212:
.LBB4208:
	.loc 1 1633 29 view .LVU2025
	.loc 1 1633 3 view .LVU2026
	.loc 1 1633 3 view .LVU2027
	.loc 1 1633 70 view .LVU2028
	.loc 1 1633 82 is_stmt 0 view .LVU2029
	sub	sp, sp, #32
	mov	r2, sp
.LVL196:
	.loc 1 1633 74 is_stmt 1 view .LVU2030
	.loc 1 1633 484 view .LVU2031
	.loc 1 1633 5 view .LVU2032
	.loc 1 1633 7 view .LVU2033
	.loc 1 1633 12 view .LVU2034
	.loc 1 1633 10 view .LVU2035
	.loc 1 1633 5 view .LVU2036
	.loc 1 1633 23 view .LVU2037
.LBB4202:
	.loc 1 1633 3 view .LVU2038
	.loc 1 1633 368 view .LVU2039
	.loc 1 1633 75 view .LVU2040
.LVL197:
	.loc 1 1633 2 view .LVU2041
	.loc 1 1633 2 view .LVU2042
	.loc 1 1633 2 view .LVU2043
	.loc 1 1633 38 view .LVU2044
	.loc 1 1633 67 view .LVU2045
	.loc 1 1633 93 view .LVU2046
	.loc 1 1633 119 view .LVU2047
	.loc 1 1633 586 view .LVU2048
	.loc 1 1633 648 view .LVU2049
	.loc 1 1633 1169 view .LVU2050
	.loc 1 1633 1234 view .LVU2051
	.loc 1 1633 1259 view .LVU2052
	.loc 1 1633 1260 view .LVU2053
	.loc 1 1633 1262 view .LVU2054
	.loc 1 1633 1292 view .LVU2055
	.loc 1 1633 1322 view .LVU2056
	.loc 1 1633 1354 view .LVU2057
	.loc 1 1633 1386 view .LVU2058
	.loc 1 1633 1418 view .LVU2059
	.loc 1 1633 1615 view .LVU2060
	.loc 1 1633 1639 view .LVU2061
	.loc 1 1633 1640 view .LVU2062
	.loc 1 1633 1642 view .LVU2063
	.loc 1 1633 1671 view .LVU2064
	.loc 1 1633 1700 view .LVU2065
	.loc 1 1633 1731 view .LVU2066
	.loc 1 1633 1762 view .LVU2067
	.loc 1 1633 1793 view .LVU2068
	.loc 1 1633 2000 view .LVU2069
.LBB4203:
	.loc 1 1633 3189 view .LVU2070
	.loc 1 1633 3194 view .LVU2071
	.loc 1 1633 3842 view .LVU2072
	.loc 1 1633 0 is_stmt 0 view .LVU2073
	ldr	r3, .L116
.LBE4203:
.LBE4202:
	.loc 1 1633 149 view .LVU2074
	ldr	r0, .L116+4
.LVL198:
	.loc 1 1633 149 view .LVU2075
.LBE4208:
.LBE4212:
	.loc 1 1633 17 view .LVU2076
	strd	r3, r6, [r2, #20]
.LBB4213:
.LBB4209:
.LBB4206:
.LBB4204:
	.loc 1 1633 2766 is_stmt 1 view .LVU2077
	.loc 1 1633 7 view .LVU2078
.LVL199:
	.loc 1 1633 30 view .LVU2079
	.loc 1 1633 30 is_stmt 0 view .LVU2080
.LBE4204:
	.loc 1 1633 9 is_stmt 1 view .LVU2081
	.loc 1 1633 5 view .LVU2082
	.loc 1 1633 28 view .LVU2083
	.loc 1 1633 52 view .LVU2084
	.loc 1 1633 80 view .LVU2085
.LBE4206:
.LBE4209:
.LBE4213:
.LBE4216:
.LBE4219:
	.loc 1 1633 6 view .LVU2086
	.loc 1 1633 45 view .LVU2087
	.loc 1 1633 50 view .LVU2088
	.loc 1 1633 80 view .LVU2089
	.loc 1 1633 147 view .LVU2090
	.loc 1 1633 152 view .LVU2091
	.loc 1 1633 182 view .LVU2092
.LBB4220:
.LBB4217:
.LBB4214:
.LBB4210:
.LBB4207:
	.loc 1 1633 256 view .LVU2093
	.loc 1 1633 16 view .LVU2094
.LBB4205:
	.loc 1 1633 6 view .LVU2095
	.loc 1 1633 164 view .LVU2096
	.loc 1 1633 166 view .LVU2097
	.loc 1 1633 176 is_stmt 0 view .LVU2098
	movs	r3, #3
	str	r3, [r2, #16]!
.LVL200:
	.loc 1 1633 176 view .LVU2099
.LBE4205:
.LBE4207:
	.loc 1 1633 26 is_stmt 1 view .LVU2100
	.loc 1 1633 7 view .LVU2101
	.loc 1 1633 147 view .LVU2102
	.loc 1 1633 149 view .LVU2103
	mov	r1, #6208
	bl	z_log_msg_static_create.constprop.0
.LVL201:
	.loc 1 1633 149 is_stmt 0 view .LVU2104
	mov	sp, r4
.LVL202:
	.loc 1 1633 149 view .LVU2105
.LBE4210:
	.loc 1 1633 107 is_stmt 1 view .LVU2106
	.loc 1 1633 5 view .LVU2107
	.loc 1 1633 42 view .LVU2108
.LBE4214:
	.loc 1 1633 6 view .LVU2109
.LBE4217:
	.loc 1 1633 278 view .LVU2110
	.loc 1 1633 5 view .LVU2111
	.loc 1 1633 18 view .LVU2112
.LBE4220:
	.loc 1 1633 6 view .LVU2113
	.loc 1 1634 3 view .LVU2114
.L112:
	.loc 1 1650 1 is_stmt 0 view .LVU2115
	mov	sp, r7
	.cfi_remember_state
	.cfi_def_cfa_register 13
	@ sp needed
	pop	{r3, r4, r5, r6, r7, pc}
.LVL203:
.L113:
	.cfi_restore_state
	.loc 1 1637 2 is_stmt 1 view .LVU2116
	.loc 1 1637 5 is_stmt 0 view .LVU2117
	ldrb	r3, [r5]	@ zero_extendqisi2
	cbnz	r3, .L115
	.loc 1 1638 2 is_stmt 1 view .LVU2118
.LVL204:
.LBB4221:
.LBI4221:
	.loc 6 83 216 view .LVU2119
.LBB4222:
	.loc 6 83 292 view .LVU2120
	.loc 6 83 299 is_stmt 0 view .LVU2121
	ldr	r3, [r5, #3]	@ unaligned
	str	r3, [r0, #173]	@ unaligned
	ldr	r3, [r5, #7]	@ unaligned
	str	r3, [r0, #177]	@ unaligned
.LVL205:
.L115:
	.loc 6 83 299 view .LVU2122
.LBE4222:
.LBE4221:
	.loc 1 1642 2 is_stmt 1 view .LVU2123
.LBB4223:
.LBI4223:
	.file 9 "/home/g/mise-work/zmk-firmware/zmk/zephyr/include/zephyr/sys/atomic.h"
	.loc 9 217 20 view .LVU2124
.LBB4224:
	.loc 9 219 2 view .LVU2125
	.loc 9 221 2 view .LVU2126
	.loc 9 221 8 is_stmt 0 view .LVU2127
	mov	r1, #4096
	adds	r0, r4, #4
.LVL206:
	.loc 9 221 8 view .LVU2128
	bl	atomic_or
.LVL207:
	.loc 9 221 8 view .LVU2129
.LBE4224:
.LBE4223:
	.loc 1 1644 2 is_stmt 1 view .LVU2130
	.loc 1 1649 2 view .LVU2131
	mov	r0, r4
	bl	bt_conn_unref
.LVL208:
	b	.L112
.L117:
	.align	2
.L116:
	.word	.LC21
	.word	log_const_bt_hci_core
	.cfi_endproc
.LFE627:
	.size	le_remote_feat_complete, .-le_remote_feat_complete
	.section	.text.atomic_and.isra.0,"ax",%progbits
	.align	1
	.syntax unified
	.thumb
	.thumb_func
	.type	atomic_and.isra.0, %function
atomic_and.isra.0:
.LVL209:
.LFB707:
	.loc 3 319 28 view -0
	.cfi_startproc
	@ args = 0, pretend = 0, frame = 0
	@ frame_needed = 0, uses_anonymous_args = 0
	@ link register save eliminated.
	.loc 3 321 2 view .LVU2133
	.loc 3 321 9 is_stmt 0 view .LVU2134
	dmb	ish
.L119:
	ldrex	r3, [r0]
	ands	r3, r3, r1
	strex	r2, r3, [r0]
	cmp	r2, #0
	bne	.L119
	dmb	ish
	.loc 3 322 1 view .LVU2135
	bx	lr
	.cfi_endproc
.LFE707:
	.size	atomic_and.isra.0, .-atomic_and.isra.0
	.section	.text.sys_put_le64,"ax",%progbits
	.align	1
	.syntax unified
	.thumb
	.thumb_func
	.type	sys_put_le64, %function
sys_put_le64:
.LVL210:
.LFB453:
	.file 10 "/home/g/mise-work/zmk-firmware/zmk/zephyr/include/zephyr/sys/byteorder.h"
	.loc 10 445 1 is_stmt 1 view -0
	.cfi_startproc
	@ args = 0, pretend = 0, frame = 0
	@ frame_needed = 0, uses_anonymous_args = 0
	@ link register save eliminated.
	.loc 10 446 2 view .LVU2137
.LBB4237:
.LBI4237:
	.loc 10 414 20 view .LVU2138
.LBB4238:
	.loc 10 416 2 view .LVU2139
.LBB4239:
.LBI4239:
	.loc 10 384 20 view .LVU2140
.LBB4240:
	.loc 10 386 2 view .LVU2141
	.loc 10 387 9 is_stmt 0 view .LVU2142
	ubfx	r3, r0, #8, #8
	.loc 10 386 9 view .LVU2143
	strb	r0, [r2]
	.loc 10 387 2 is_stmt 1 view .LVU2144
.LBE4240:
.LBE4239:
.LBB4242:
.LBB4243:
	.loc 10 387 9 is_stmt 0 view .LVU2145
	lsrs	r0, r0, #24
.LVL211:
	.loc 10 387 9 view .LVU2146
.LBE4243:
.LBE4242:
.LBB4246:
.LBB4241:
	strb	r3, [r2, #1]
.LVL212:
	.loc 10 387 9 view .LVU2147
.LBE4241:
.LBE4246:
	.loc 10 417 2 is_stmt 1 view .LVU2148
.LBB4247:
.LBI4242:
	.loc 10 384 20 view .LVU2149
.LBB4244:
	.loc 10 386 2 view .LVU2150
	.loc 10 387 9 is_stmt 0 view .LVU2151
	strb	r0, [r2, #3]
	.loc 10 386 9 view .LVU2152
	movs	r3, #0
.LBE4244:
.LBE4247:
.LBE4238:
.LBE4237:
.LBB4250:
.LBB4251:
.LBB4252:
.LBB4253:
	.loc 10 387 9 view .LVU2153
	ubfx	r0, r1, #8, #8
.LBE4253:
.LBE4252:
.LBB4255:
.LBB4256:
	lsrs	r1, r1, #24
.LBE4256:
.LBE4255:
.LBE4251:
.LBE4250:
.LBB4261:
.LBB4249:
.LBB4248:
.LBB4245:
	.loc 10 386 9 view .LVU2154
	strb	r3, [r2, #2]
	.loc 10 387 2 is_stmt 1 view .LVU2155
.LVL213:
	.loc 10 387 2 is_stmt 0 view .LVU2156
.LBE4245:
.LBE4248:
.LBE4249:
.LBE4261:
	.loc 10 447 2 is_stmt 1 view .LVU2157
.LBB4262:
.LBI4250:
	.loc 10 414 20 view .LVU2158
.LBB4260:
	.loc 10 416 2 view .LVU2159
.LBB4258:
.LBI4252:
	.loc 10 384 20 view .LVU2160
.LBB4254:
	.loc 10 386 2 view .LVU2161
	.loc 10 386 9 is_stmt 0 view .LVU2162
	strb	r3, [r2, #4]
	.loc 10 387 2 is_stmt 1 view .LVU2163
	.loc 10 387 9 is_stmt 0 view .LVU2164
	strb	r0, [r2, #5]
.LVL214:
	.loc 10 387 9 view .LVU2165
.LBE4254:
.LBE4258:
	.loc 10 417 2 is_stmt 1 view .LVU2166
.LBB4259:
.LBI4255:
	.loc 10 384 20 view .LVU2167
.LBB4257:
	.loc 10 386 2 view .LVU2168
	.loc 10 386 9 is_stmt 0 view .LVU2169
	strb	r3, [r2, #6]
	.loc 10 387 2 is_stmt 1 view .LVU2170
	.loc 10 387 9 is_stmt 0 view .LVU2171
	strb	r1, [r2, #7]
.LVL215:
	.loc 10 387 9 view .LVU2172
.LBE4257:
.LBE4259:
.LBE4260:
.LBE4262:
	.loc 10 448 1 view .LVU2173
	bx	lr
	.cfi_endproc
.LFE453:
	.size	sys_put_le64, .-sys_put_le64
	.section	.rodata.hci_cmd_done.str1.1,"aMS",%progbits,1
.LC24:
	.ascii	"opcode 0x%04x pool id %u pool %p != &hci_cmd_pool %"
	.ascii	"p\000"
.LC25:
	.ascii	"OpCode 0x%04x completed instead of expected 0x%04x\000"
	.section	.text.hci_cmd_done,"ax",%progbits
	.align	1
	.syntax unified
	.thumb
	.thumb_func
	.type	hci_cmd_done, %function
hci_cmd_done:
.LVL216:
.LFB647:
	.loc 1 2290 1 is_stmt 1 view -0
	.cfi_startproc
	@ args = 0, pretend = 0, frame = 0
	@ frame_needed = 1, uses_anonymous_args = 0
	.loc 1 2291 2 view .LVU2175
.LBB4292:
	.loc 1 2291 7 view .LVU2176
.LBE4292:
	.loc 1 2291 5 view .LVU2177
	.loc 1 2293 2 view .LVU2178
	.loc 1 2290 1 is_stmt 0 view .LVU2179
	push	{r3, r4, r5, r6, r7, r8, r9, lr}
	.cfi_def_cfa_offset 32
	.cfi_offset 3, -32
	.cfi_offset 4, -28
	.cfi_offset 5, -24
	.cfi_offset 6, -20
	.cfi_offset 7, -16
	.cfi_offset 8, -12
	.cfi_offset 9, -8
	.cfi_offset 14, -4
	mov	r6, r0
	add	r7, sp, #0
	.cfi_def_cfa_register 7
	.loc 1 2293 6 view .LVU2180
	ldrb	r0, [r2, #10]	@ zero_extendqisi2
.LVL217:
	.loc 1 2293 5 view .LVU2181
	ldr	r5, .L137
	.loc 1 2290 1 view .LVU2182
	mov	r8, r1
	mov	r4, r2
	.loc 1 2293 6 view .LVU2183
	bl	net_buf_pool_get
.LVL218:
	.loc 1 2293 5 view .LVU2184
	cmp	r5, r0
	beq	.L122
	.loc 1 2294 3 is_stmt 1 view .LVU2185
.LBB4293:
	.loc 1 2294 8 view .LVU2186
	.loc 1 2294 57 view .LVU2187
	.loc 1 2294 14 view .LVU2188
	.loc 1 2294 2 view .LVU2189
.LVL219:
	.loc 1 2294 41 view .LVU2190
	.loc 1 2294 176 view .LVU2191
	.loc 1 2294 187 view .LVU2192
	.loc 1 2294 275 view .LVU2193
.LBB4294:
	.loc 1 2294 3 view .LVU2194
	.loc 1 2294 5 view .LVU2195
	.loc 1 2294 38 view .LVU2196
	.loc 1 2294 50 is_stmt 0 view .LVU2197
	ldrb	r4, [r4, #10]	@ zero_extendqisi2
.LVL220:
	.loc 1 2294 77 is_stmt 1 view .LVU2198
	.loc 1 2294 128 is_stmt 0 view .LVU2199
	mov	r0, r4
	bl	net_buf_pool_get
.LVL221:
	.loc 1 2294 134 is_stmt 1 view .LVU2200
	.loc 1 2294 3 view .LVU2201
.LBB4295:
	.loc 1 2294 8 view .LVU2202
	.loc 1 2294 2 view .LVU2203
.LBE4295:
.LBE4294:
.LBE4293:
	.loc 1 2294 3 view .LVU2204
	.loc 1 2294 12 view .LVU2205
	.loc 1 2294 107 view .LVU2206
	.loc 1 2294 3 view .LVU2207
.LBB4330:
.LBB4325:
.LBB4319:
	.loc 1 2294 12 view .LVU2208
	.loc 1 2294 102 view .LVU2209
	.loc 1 2294 104 view .LVU2210
.LBB4296:
	.loc 1 2294 107 is_stmt 0 view .LVU2211
	mov	r8, sp
	.loc 1 2294 109 is_stmt 1 view .LVU2212
	.loc 1 2294 120 view .LVU2213
.LVL222:
	.loc 1 2294 209 view .LVU2214
	.loc 1 2294 26 view .LVU2215
.LBE4296:
.LBE4319:
.LBE4325:
.LBE4330:
	.loc 1 2294 3 view .LVU2216
	.loc 1 2294 368 view .LVU2217
	.loc 1 2294 75 view .LVU2218
	.loc 1 2294 2 view .LVU2219
	.loc 1 2294 2 view .LVU2220
	.loc 1 2294 2 view .LVU2221
	.loc 1 2294 38 view .LVU2222
	.loc 1 2294 4 view .LVU2223
	.loc 1 2294 30 view .LVU2224
	.loc 1 2294 56 view .LVU2225
	.loc 1 2294 1861 view .LVU2226
	.loc 1 2294 1923 view .LVU2227
	.loc 1 2294 3842 view .LVU2228
	.loc 1 2294 3907 view .LVU2229
	.loc 1 2294 3932 view .LVU2230
	.loc 1 2294 3933 view .LVU2231
	.loc 1 2294 3935 view .LVU2232
	.loc 1 2294 3965 view .LVU2233
	.loc 1 2294 3995 view .LVU2234
	.loc 1 2294 4027 view .LVU2235
	.loc 1 2294 4059 view .LVU2236
	.loc 1 2294 4091 view .LVU2237
	.loc 1 2294 0 view .LVU2238
	.loc 1 2294 0 view .LVU2239
	.loc 1 2294 0 view .LVU2240
	.loc 1 2294 0 view .LVU2241
	.loc 1 2294 0 view .LVU2242
	.loc 1 2294 0 view .LVU2243
	.loc 1 2294 0 view .LVU2244
	.loc 1 2294 0 view .LVU2245
	.loc 1 2294 0 view .LVU2246
	.loc 1 2294 0 view .LVU2247
	.loc 1 2294 4 view .LVU2248
	.loc 1 2294 22 view .LVU2249
	.loc 1 2294 42 view .LVU2250
	.loc 1 2294 4 view .LVU2251
	.loc 1 2294 42 view .LVU2252
	.loc 1 2294 13 view .LVU2253
	.loc 1 2294 13 view .LVU2254
	.loc 1 2294 61 view .LVU2255
	.loc 1 2294 92 view .LVU2256
	.loc 1 2294 126 view .LVU2257
	.loc 1 2294 131 view .LVU2258
	.loc 1 2294 407 view .LVU2259
	.loc 1 2294 1564 view .LVU2260
	.loc 1 2294 1629 view .LVU2261
	.loc 1 2294 1653 view .LVU2262
	.loc 1 2294 1733 view .LVU2263
	.loc 1 2294 1744 view .LVU2264
	.loc 1 2294 1882 view .LVU2265
	.loc 1 2294 1898 view .LVU2266
	.loc 1 2294 1938 view .LVU2267
	.loc 1 2294 1963 view .LVU2268
	.loc 1 2294 3304 view .LVU2269
	.loc 1 2294 3345 view .LVU2270
	.loc 1 2294 7 view .LVU2271
	.loc 1 2294 30 view .LVU2272
	.loc 1 2294 129 view .LVU2273
	.loc 1 2294 6 view .LVU2274
	.loc 1 2294 11 view .LVU2275
	.loc 1 2294 236 view .LVU2276
	.loc 1 2294 1189 view .LVU2277
	.loc 1 2294 1254 view .LVU2278
	.loc 1 2294 1278 view .LVU2279
	.loc 1 2294 1307 view .LVU2280
	.loc 1 2294 1318 view .LVU2281
	.loc 1 2294 1405 view .LVU2282
	.loc 1 2294 1421 view .LVU2283
	.loc 1 2294 1461 view .LVU2284
	.loc 1 2294 2725 view .LVU2285
	.loc 1 2294 2766 view .LVU2286
	.loc 1 2294 7 view .LVU2287
	.loc 1 2294 30 view .LVU2288
	.loc 1 2294 9 view .LVU2289
	.loc 1 2294 6 view .LVU2290
	.loc 1 2294 11 view .LVU2291
	.loc 1 2294 236 view .LVU2292
	.loc 1 2294 1189 view .LVU2293
	.loc 1 2294 1254 view .LVU2294
	.loc 1 2294 1278 view .LVU2295
	.loc 1 2294 1307 view .LVU2296
	.loc 1 2294 1318 view .LVU2297
	.loc 1 2294 1405 view .LVU2298
	.loc 1 2294 1421 view .LVU2299
	.loc 1 2294 1461 view .LVU2300
	.loc 1 2294 2725 view .LVU2301
	.loc 1 2294 2766 view .LVU2302
	.loc 1 2294 7 view .LVU2303
	.loc 1 2294 30 view .LVU2304
	.loc 1 2294 9 view .LVU2305
	.loc 1 2294 6 view .LVU2306
	.loc 1 2294 11 view .LVU2307
	.loc 1 2294 236 view .LVU2308
	.loc 1 2294 1189 view .LVU2309
	.loc 1 2294 1254 view .LVU2310
	.loc 1 2294 1278 view .LVU2311
	.loc 1 2294 1307 view .LVU2312
	.loc 1 2294 1318 view .LVU2313
	.loc 1 2294 1405 view .LVU2314
	.loc 1 2294 1421 view .LVU2315
	.loc 1 2294 1461 view .LVU2316
	.loc 1 2294 2725 view .LVU2317
	.loc 1 2294 2766 view .LVU2318
	.loc 1 2294 7 view .LVU2319
	.loc 1 2294 30 view .LVU2320
	.loc 1 2294 9 view .LVU2321
	.loc 1 2294 6 view .LVU2322
	.loc 1 2294 11 view .LVU2323
	.loc 1 2294 236 view .LVU2324
	.loc 1 2294 1189 view .LVU2325
	.loc 1 2294 1254 view .LVU2326
	.loc 1 2294 1278 view .LVU2327
	.loc 1 2294 1307 view .LVU2328
	.loc 1 2294 1318 view .LVU2329
	.loc 1 2294 1405 view .LVU2330
	.loc 1 2294 1421 view .LVU2331
	.loc 1 2294 1461 view .LVU2332
	.loc 1 2294 2725 view .LVU2333
	.loc 1 2294 2766 view .LVU2334
	.loc 1 2294 7 view .LVU2335
	.loc 1 2294 30 view .LVU2336
	.loc 1 2294 9 view .LVU2337
	.loc 1 2294 5 view .LVU2338
	.loc 1 2294 28 view .LVU2339
	.loc 1 2294 52 view .LVU2340
	.loc 1 2294 80 view .LVU2341
	.loc 1 2294 256 view .LVU2342
	.loc 1 2294 16 view .LVU2343
.LBB4331:
.LBB4326:
.LBB4320:
.LBB4314:
	.loc 1 2294 29 view .LVU2344
	.loc 1 2294 3 view .LVU2345
	.loc 1 2294 3 view .LVU2346
	.loc 1 2294 70 view .LVU2347
	.loc 1 2294 82 is_stmt 0 view .LVU2348
	sub	sp, sp, #40
	mov	r2, sp
.LVL223:
	.loc 1 2294 74 is_stmt 1 view .LVU2349
	.loc 1 2294 484 view .LVU2350
	.loc 1 2294 5 view .LVU2351
	.loc 1 2294 7 view .LVU2352
	.loc 1 2294 12 view .LVU2353
	.loc 1 2294 10 view .LVU2354
	.loc 1 2294 5 view .LVU2355
	.loc 1 2294 23 view .LVU2356
.LBB4297:
	.loc 1 2294 3 view .LVU2357
	.loc 1 2294 368 view .LVU2358
	.loc 1 2294 75 view .LVU2359
.LVL224:
	.loc 1 2294 2 view .LVU2360
	.loc 1 2294 2 view .LVU2361
	.loc 1 2294 2 view .LVU2362
	.loc 1 2294 38 view .LVU2363
	.loc 1 2294 67 view .LVU2364
	.loc 1 2294 93 view .LVU2365
	.loc 1 2294 119 view .LVU2366
	.loc 1 2294 1924 view .LVU2367
	.loc 1 2294 1986 view .LVU2368
	.loc 1 2294 3905 view .LVU2369
	.loc 1 2294 3970 view .LVU2370
	.loc 1 2294 3995 view .LVU2371
	.loc 1 2294 3996 view .LVU2372
	.loc 1 2294 3998 view .LVU2373
	.loc 1 2294 4028 view .LVU2374
	.loc 1 2294 4058 view .LVU2375
	.loc 1 2294 4090 view .LVU2376
	.loc 1 2294 0 view .LVU2377
	.loc 1 2294 0 view .LVU2378
	.loc 1 2294 0 view .LVU2379
	.loc 1 2294 0 view .LVU2380
	.loc 1 2294 0 view .LVU2381
	.loc 1 2294 0 view .LVU2382
	.loc 1 2294 0 view .LVU2383
	.loc 1 2294 0 view .LVU2384
	.loc 1 2294 0 view .LVU2385
	.loc 1 2294 0 view .LVU2386
	.loc 1 2294 0 view .LVU2387
	.loc 1 2294 0 view .LVU2388
.LBB4298:
	.loc 1 2294 3342 view .LVU2389
	.loc 1 2294 3347 view .LVU2390
	.loc 1 2294 0 view .LVU2391
	ldr	r3, .L137+4
.LBE4298:
.LBB4299:
	.loc 1 2294 3811 is_stmt 0 view .LVU2392
	str	r5, [r2, #36]
.LBE4299:
.LBE4297:
.LBE4314:
.LBE4320:
	.loc 1 2294 17 view .LVU2393
	strd	r3, r6, [r2, #20]
.LBB4321:
.LBB4315:
.LBB4309:
.LBB4300:
	.loc 1 2294 2766 is_stmt 1 view .LVU2394
	.loc 1 2294 7 view .LVU2395
.LVL225:
	.loc 1 2294 30 view .LVU2396
	.loc 1 2294 30 is_stmt 0 view .LVU2397
.LBE4300:
	.loc 1 2294 9 is_stmt 1 view .LVU2398
	.loc 1 2294 6 view .LVU2399
.LBB4301:
	.loc 1 2294 11 view .LVU2400
	.loc 1 2294 236 view .LVU2401
	.loc 1 2294 1189 view .LVU2402
	.loc 1 2294 1254 view .LVU2403
.LBE4301:
.LBE4309:
.LBE4315:
.LBE4321:
.LBE4326:
.LBE4331:
	.loc 1 2294 1278 view .LVU2404
	.loc 1 2294 1307 view .LVU2405
	.loc 1 2294 1318 view .LVU2406
	.loc 1 2294 1405 view .LVU2407
.LBB4332:
.LBB4327:
.LBB4322:
.LBB4316:
.LBB4310:
.LBB4302:
	.loc 1 2294 1421 view .LVU2408
	.loc 1 2294 1461 view .LVU2409
	.loc 1 2294 2725 view .LVU2410
	.loc 1 2294 2763 view .LVU2411
	.loc 1 2294 2768 view .LVU2412
	.loc 1 2294 3212 view .LVU2413
.LBE4302:
.LBB4303:
	.loc 1 2294 176 is_stmt 0 view .LVU2414
	movs	r3, #6
.LBE4303:
.LBB4304:
	.loc 1 2294 3811 view .LVU2415
	strd	r4, r0, [r2, #28]
	.loc 1 2294 2766 is_stmt 1 view .LVU2416
	.loc 1 2294 7 view .LVU2417
.LVL226:
	.loc 1 2294 30 view .LVU2418
	.loc 1 2294 30 is_stmt 0 view .LVU2419
.LBE4304:
	.loc 1 2294 9 is_stmt 1 view .LVU2420
	.loc 1 2294 6 view .LVU2421
.LBB4305:
	.loc 1 2294 11 view .LVU2422
	.loc 1 2294 236 view .LVU2423
	.loc 1 2294 1189 view .LVU2424
	.loc 1 2294 1254 view .LVU2425
.LBE4305:
.LBE4310:
.LBE4316:
.LBE4322:
.LBE4327:
.LBE4332:
	.loc 1 2294 1278 view .LVU2426
	.loc 1 2294 1307 view .LVU2427
	.loc 1 2294 1318 view .LVU2428
	.loc 1 2294 1405 view .LVU2429
.LBB4333:
.LBB4328:
.LBB4323:
.LBB4317:
.LBB4311:
.LBB4306:
	.loc 1 2294 1421 view .LVU2430
	.loc 1 2294 1461 view .LVU2431
	.loc 1 2294 2725 view .LVU2432
	.loc 1 2294 2763 view .LVU2433
	.loc 1 2294 2768 view .LVU2434
	.loc 1 2294 3212 view .LVU2435
	.loc 1 2294 2766 view .LVU2436
	.loc 1 2294 7 view .LVU2437
	.loc 1 2294 30 view .LVU2438
	.loc 1 2294 30 is_stmt 0 view .LVU2439
.LBE4306:
	.loc 1 2294 9 is_stmt 1 view .LVU2440
	.loc 1 2294 5 view .LVU2441
	.loc 1 2294 28 view .LVU2442
	.loc 1 2294 52 view .LVU2443
	.loc 1 2294 80 view .LVU2444
.LBE4311:
.LBE4317:
.LBE4323:
.LBE4328:
.LBE4333:
	.loc 1 2294 6 view .LVU2445
	.loc 1 2294 45 view .LVU2446
	.loc 1 2294 50 view .LVU2447
	.loc 1 2294 80 view .LVU2448
	.loc 1 2294 147 view .LVU2449
	.loc 1 2294 152 view .LVU2450
	.loc 1 2294 182 view .LVU2451
.LBB4334:
.LBB4329:
.LBB4324:
.LBB4318:
.LBB4312:
	.loc 1 2294 256 view .LVU2452
	.loc 1 2294 16 view .LVU2453
.LBB4307:
	.loc 1 2294 6 view .LVU2454
	.loc 1 2294 164 view .LVU2455
	.loc 1 2294 166 view .LVU2456
.LBE4307:
.LBE4312:
	.loc 1 2294 149 is_stmt 0 view .LVU2457
	mov	r1, #12416
.LBB4313:
.LBB4308:
	.loc 1 2294 176 view .LVU2458
	str	r3, [r2, #16]!
.LVL227:
	.loc 1 2294 176 view .LVU2459
.LBE4308:
.LBE4313:
	.loc 1 2294 26 is_stmt 1 view .LVU2460
	.loc 1 2294 7 view .LVU2461
	.loc 1 2294 147 view .LVU2462
	.loc 1 2294 149 view .LVU2463
	ldr	r0, .L137+8
.LVL228:
	.loc 1 2294 149 is_stmt 0 view .LVU2464
	bl	z_log_msg_static_create.constprop.0
.LVL229:
	.loc 1 2294 149 view .LVU2465
	mov	sp, r8
.LVL230:
	.loc 1 2294 149 view .LVU2466
.LBE4318:
	.loc 1 2294 107 is_stmt 1 view .LVU2467
	.loc 1 2294 5 view .LVU2468
	.loc 1 2294 42 view .LVU2469
.LBE4324:
	.loc 1 2294 6 view .LVU2470
.LBE4329:
	.loc 1 2294 278 view .LVU2471
	.loc 1 2294 5 view .LVU2472
	.loc 1 2294 18 view .LVU2473
.LBE4334:
	.loc 1 2294 6 view .LVU2474
	.loc 1 2296 3 view .LVU2475
.L121:
	.loc 1 2321 1 is_stmt 0 view .LVU2476
	mov	sp, r7
	.cfi_remember_state
	.cfi_def_cfa_register 13
	@ sp needed
	pop	{r3, r4, r5, r6, r7, r8, r9, pc}
.LVL231:
.L122:
	.cfi_restore_state
	.loc 1 2299 2 is_stmt 1 view .LVU2477
	.loc 1 2299 17 is_stmt 0 view .LVU2478
	mov	r0, r4
	bl	net_buf_id
.LVL232:
	.loc 1 2299 34 view .LVU2479
	ldr	r5, .L137+12
	mov	r9, #12
	mla	r0, r9, r0, r5
	.loc 1 2299 5 view .LVU2480
	ldrh	r3, [r0, #2]
	cmp	r3, r6
	beq	.L124
	.loc 1 2300 3 is_stmt 1 view .LVU2481
.LBB4335:
	.loc 1 2300 8 view .LVU2482
	.loc 1 2300 57 view .LVU2483
	.loc 1 2300 14 view .LVU2484
	.loc 1 2300 2 view .LVU2485
.LVL233:
	.loc 1 2300 41 view .LVU2486
	.loc 1 2300 176 view .LVU2487
	.loc 1 2300 187 view .LVU2488
	.loc 1 2300 275 view .LVU2489
.LBB4336:
	.loc 1 2300 3 view .LVU2490
	.loc 1 2300 5 view .LVU2491
	.loc 1 2300 38 view .LVU2492
	.loc 1 2300 68 is_stmt 0 view .LVU2493
	mov	r0, r4
	bl	net_buf_id
.LVL234:
	.loc 1 2300 85 view .LVU2494
	mla	r0, r9, r0, r5
.LBB4337:
.LBB4338:
	.loc 1 2300 107 view .LVU2495
	mov	r4, sp
.LVL235:
	.loc 1 2300 82 view .LVU2496
	sub	sp, sp, #32
.LBE4338:
.LBE4337:
	.loc 1 2300 50 view .LVU2497
	ldrh	r3, [r0, #2]
.LVL236:
	.loc 1 2300 3 is_stmt 1 view .LVU2498
.LBB4357:
	.loc 1 2300 8 view .LVU2499
	.loc 1 2300 2 view .LVU2500
.LBE4357:
.LBE4336:
.LBE4335:
	.loc 1 2300 3 view .LVU2501
	.loc 1 2300 12 view .LVU2502
	.loc 1 2300 107 view .LVU2503
	.loc 1 2300 3 view .LVU2504
.LBB4367:
.LBB4363:
.LBB4358:
	.loc 1 2300 12 view .LVU2505
	.loc 1 2300 102 view .LVU2506
	.loc 1 2300 104 view .LVU2507
.LBB4352:
	.loc 1 2300 109 view .LVU2508
	.loc 1 2300 120 view .LVU2509
	.loc 1 2300 209 view .LVU2510
	.loc 1 2300 26 view .LVU2511
.LBE4352:
.LBE4358:
.LBE4363:
.LBE4367:
	.loc 1 2300 3 view .LVU2512
	.loc 1 2300 368 view .LVU2513
	.loc 1 2300 75 view .LVU2514
	.loc 1 2300 2 view .LVU2515
	.loc 1 2300 2 view .LVU2516
	.loc 1 2300 2 view .LVU2517
	.loc 1 2300 38 view .LVU2518
	.loc 1 2300 4 view .LVU2519
	.loc 1 2300 30 view .LVU2520
	.loc 1 2300 56 view .LVU2521
	.loc 1 2300 969 view .LVU2522
	.loc 1 2300 1031 view .LVU2523
	.loc 1 2300 2018 view .LVU2524
	.loc 1 2300 2083 view .LVU2525
	.loc 1 2300 2108 view .LVU2526
	.loc 1 2300 2109 view .LVU2527
	.loc 1 2300 2111 view .LVU2528
	.loc 1 2300 2141 view .LVU2529
	.loc 1 2300 2171 view .LVU2530
	.loc 1 2300 2203 view .LVU2531
	.loc 1 2300 2235 view .LVU2532
	.loc 1 2300 2267 view .LVU2533
	.loc 1 2300 2464 view .LVU2534
	.loc 1 2300 2488 view .LVU2535
	.loc 1 2300 2489 view .LVU2536
	.loc 1 2300 2491 view .LVU2537
	.loc 1 2300 2520 view .LVU2538
	.loc 1 2300 2549 view .LVU2539
	.loc 1 2300 2580 view .LVU2540
	.loc 1 2300 2611 view .LVU2541
	.loc 1 2300 2642 view .LVU2542
	.loc 1 2300 2849 view .LVU2543
	.loc 1 2300 4 view .LVU2544
	.loc 1 2300 22 view .LVU2545
	.loc 1 2300 42 view .LVU2546
	.loc 1 2300 4 view .LVU2547
	.loc 1 2300 42 view .LVU2548
	.loc 1 2300 13 view .LVU2549
	.loc 1 2300 13 view .LVU2550
	.loc 1 2300 61 view .LVU2551
	.loc 1 2300 92 view .LVU2552
	.loc 1 2300 126 view .LVU2553
	.loc 1 2300 131 view .LVU2554
	.loc 1 2300 405 view .LVU2555
	.loc 1 2300 1554 view .LVU2556
	.loc 1 2300 1619 view .LVU2557
	.loc 1 2300 1643 view .LVU2558
	.loc 1 2300 1721 view .LVU2559
	.loc 1 2300 1732 view .LVU2560
	.loc 1 2300 1868 view .LVU2561
	.loc 1 2300 1884 view .LVU2562
	.loc 1 2300 1924 view .LVU2563
	.loc 1 2300 1949 view .LVU2564
	.loc 1 2300 3286 view .LVU2565
	.loc 1 2300 3327 view .LVU2566
	.loc 1 2300 7 view .LVU2567
	.loc 1 2300 30 view .LVU2568
	.loc 1 2300 129 view .LVU2569
	.loc 1 2300 6 view .LVU2570
	.loc 1 2300 11 view .LVU2571
	.loc 1 2300 236 view .LVU2572
	.loc 1 2300 1189 view .LVU2573
	.loc 1 2300 1254 view .LVU2574
	.loc 1 2300 1278 view .LVU2575
	.loc 1 2300 1307 view .LVU2576
	.loc 1 2300 1318 view .LVU2577
	.loc 1 2300 1405 view .LVU2578
	.loc 1 2300 1421 view .LVU2579
	.loc 1 2300 1461 view .LVU2580
	.loc 1 2300 2725 view .LVU2581
	.loc 1 2300 2766 view .LVU2582
	.loc 1 2300 7 view .LVU2583
	.loc 1 2300 30 view .LVU2584
	.loc 1 2300 9 view .LVU2585
	.loc 1 2300 6 view .LVU2586
	.loc 1 2300 11 view .LVU2587
	.loc 1 2300 236 view .LVU2588
	.loc 1 2300 1189 view .LVU2589
	.loc 1 2300 1254 view .LVU2590
	.loc 1 2300 1278 view .LVU2591
	.loc 1 2300 1307 view .LVU2592
	.loc 1 2300 1318 view .LVU2593
	.loc 1 2300 1405 view .LVU2594
	.loc 1 2300 1421 view .LVU2595
	.loc 1 2300 1461 view .LVU2596
	.loc 1 2300 2725 view .LVU2597
	.loc 1 2300 2766 view .LVU2598
	.loc 1 2300 7 view .LVU2599
	.loc 1 2300 30 view .LVU2600
	.loc 1 2300 9 view .LVU2601
	.loc 1 2300 5 view .LVU2602
	.loc 1 2300 28 view .LVU2603
	.loc 1 2300 52 view .LVU2604
	.loc 1 2300 80 view .LVU2605
	.loc 1 2300 256 view .LVU2606
	.loc 1 2300 16 view .LVU2607
.LBB4368:
.LBB4364:
.LBB4359:
.LBB4353:
	.loc 1 2300 29 view .LVU2608
	.loc 1 2300 3 view .LVU2609
	.loc 1 2300 3 view .LVU2610
	.loc 1 2300 70 view .LVU2611
	.loc 1 2300 82 is_stmt 0 view .LVU2612
	mov	r2, sp
.LVL237:
	.loc 1 2300 74 is_stmt 1 view .LVU2613
	.loc 1 2300 484 view .LVU2614
	.loc 1 2300 5 view .LVU2615
	.loc 1 2300 7 view .LVU2616
	.loc 1 2300 12 view .LVU2617
	.loc 1 2300 10 view .LVU2618
	.loc 1 2300 5 view .LVU2619
	.loc 1 2300 23 view .LVU2620
.LBB4339:
	.loc 1 2300 3 view .LVU2621
	.loc 1 2300 368 view .LVU2622
	.loc 1 2300 75 view .LVU2623
.LVL238:
	.loc 1 2300 2 view .LVU2624
	.loc 1 2300 2 view .LVU2625
	.loc 1 2300 2 view .LVU2626
	.loc 1 2300 38 view .LVU2627
	.loc 1 2300 67 view .LVU2628
	.loc 1 2300 93 view .LVU2629
	.loc 1 2300 119 view .LVU2630
	.loc 1 2300 1032 view .LVU2631
	.loc 1 2300 1094 view .LVU2632
	.loc 1 2300 2081 view .LVU2633
	.loc 1 2300 2146 view .LVU2634
	.loc 1 2300 2171 view .LVU2635
	.loc 1 2300 2172 view .LVU2636
	.loc 1 2300 2174 view .LVU2637
	.loc 1 2300 2204 view .LVU2638
	.loc 1 2300 2234 view .LVU2639
	.loc 1 2300 2266 view .LVU2640
	.loc 1 2300 2298 view .LVU2641
	.loc 1 2300 2330 view .LVU2642
	.loc 1 2300 2527 view .LVU2643
	.loc 1 2300 2551 view .LVU2644
	.loc 1 2300 2552 view .LVU2645
	.loc 1 2300 2554 view .LVU2646
	.loc 1 2300 2583 view .LVU2647
	.loc 1 2300 2612 view .LVU2648
	.loc 1 2300 2643 view .LVU2649
	.loc 1 2300 2674 view .LVU2650
	.loc 1 2300 2705 view .LVU2651
	.loc 1 2300 2912 view .LVU2652
.LBB4340:
	.loc 1 2300 3324 view .LVU2653
	.loc 1 2300 3329 view .LVU2654
	.loc 1 2300 4067 view .LVU2655
	.loc 1 2300 0 is_stmt 0 view .LVU2656
	ldr	r1, .L137+16
.LBE4340:
.LBB4341:
	.loc 1 2300 3811 view .LVU2657
	str	r3, [r2, #28]
.LBE4341:
.LBB4342:
	.loc 1 2300 176 view .LVU2658
	movs	r3, #4
.LVL239:
	.loc 1 2300 176 view .LVU2659
.LBE4342:
.LBE4339:
.LBE4353:
.LBE4359:
	.loc 1 2300 17 view .LVU2660
	strd	r1, r6, [r2, #20]
.LBB4360:
.LBB4354:
.LBB4348:
.LBB4343:
	.loc 1 2300 2766 is_stmt 1 view .LVU2661
	.loc 1 2300 7 view .LVU2662
.LVL240:
	.loc 1 2300 30 view .LVU2663
	.loc 1 2300 30 is_stmt 0 view .LVU2664
.LBE4343:
	.loc 1 2300 9 is_stmt 1 view .LVU2665
	.loc 1 2300 6 view .LVU2666
.LBB4344:
	.loc 1 2300 11 view .LVU2667
	.loc 1 2300 236 view .LVU2668
	.loc 1 2300 1189 view .LVU2669
	.loc 1 2300 1254 view .LVU2670
.LBE4344:
.LBE4348:
.LBE4354:
.LBE4360:
.LBE4364:
.LBE4368:
	.loc 1 2300 1278 view .LVU2671
	.loc 1 2300 1307 view .LVU2672
	.loc 1 2300 1318 view .LVU2673
	.loc 1 2300 1405 view .LVU2674
.LBB4369:
.LBB4365:
.LBB4361:
.LBB4355:
.LBB4349:
.LBB4345:
	.loc 1 2300 1421 view .LVU2675
	.loc 1 2300 1461 view .LVU2676
	.loc 1 2300 2725 view .LVU2677
	.loc 1 2300 2763 view .LVU2678
	.loc 1 2300 2768 view .LVU2679
	.loc 1 2300 3212 view .LVU2680
	.loc 1 2300 2766 view .LVU2681
	.loc 1 2300 7 view .LVU2682
	.loc 1 2300 30 view .LVU2683
	.loc 1 2300 30 is_stmt 0 view .LVU2684
.LBE4345:
	.loc 1 2300 9 is_stmt 1 view .LVU2685
	.loc 1 2300 5 view .LVU2686
	.loc 1 2300 28 view .LVU2687
	.loc 1 2300 52 view .LVU2688
	.loc 1 2300 80 view .LVU2689
.LBE4349:
.LBE4355:
.LBE4361:
.LBE4365:
.LBE4369:
	.loc 1 2300 6 view .LVU2690
	.loc 1 2300 45 view .LVU2691
	.loc 1 2300 50 view .LVU2692
	.loc 1 2300 80 view .LVU2693
	.loc 1 2300 147 view .LVU2694
	.loc 1 2300 152 view .LVU2695
	.loc 1 2300 182 view .LVU2696
.LBB4370:
.LBB4366:
.LBB4362:
.LBB4356:
.LBB4350:
	.loc 1 2300 256 view .LVU2697
	.loc 1 2300 16 view .LVU2698
.LBB4346:
	.loc 1 2300 6 view .LVU2699
	.loc 1 2300 164 view .LVU2700
	.loc 1 2300 166 view .LVU2701
.LBE4346:
.LBE4350:
	.loc 1 2300 149 is_stmt 0 view .LVU2702
	ldr	r0, .L137+8
.LBB4351:
.LBB4347:
	.loc 1 2300 176 view .LVU2703
	str	r3, [r2, #16]!
.LVL241:
	.loc 1 2300 176 view .LVU2704
.LBE4347:
.LBE4351:
	.loc 1 2300 26 is_stmt 1 view .LVU2705
	.loc 1 2300 7 view .LVU2706
	.loc 1 2300 147 view .LVU2707
	.loc 1 2300 149 view .LVU2708
	mov	r1, #8320
	bl	z_log_msg_static_create.constprop.0
.LVL242:
	.loc 1 2300 149 is_stmt 0 view .LVU2709
	mov	sp, r4
.LVL243:
	.loc 1 2300 149 view .LVU2710
.LBE4356:
	.loc 1 2300 107 is_stmt 1 view .LVU2711
	.loc 1 2300 5 view .LVU2712
	.loc 1 2300 42 view .LVU2713
.LBE4362:
	.loc 1 2300 6 view .LVU2714
.LBE4366:
	.loc 1 2300 278 view .LVU2715
	.loc 1 2300 5 view .LVU2716
	.loc 1 2300 18 view .LVU2717
.LBE4370:
	.loc 1 2300 6 view .LVU2718
	.loc 1 2302 3 view .LVU2719
	b	.L121
.LVL244:
.L124:
	.loc 1 2305 2 view .LVU2720
	.loc 1 2305 12 is_stmt 0 view .LVU2721
	ldr	r6, .L137+20
	ldr	r0, [r6, #320]
	.loc 1 2305 5 view .LVU2722
	cbz	r0, .L125
	.loc 1 2306 3 is_stmt 1 view .LVU2723
	bl	net_buf_unref
.LVL245:
	.loc 1 2307 3 view .LVU2724
	.loc 1 2307 19 is_stmt 0 view .LVU2725
	movs	r3, #0
	str	r3, [r6, #320]
.L125:
	.loc 1 2310 2 is_stmt 1 view .LVU2726
	.loc 1 2310 17 is_stmt 0 view .LVU2727
	mov	r0, r4
	bl	net_buf_id
.LVL246:
	.loc 1 2310 34 view .LVU2728
	movs	r6, #12
	mla	r0, r6, r0, r5
	.loc 1 2310 5 view .LVU2729
	ldr	r3, [r0, #4]
	cbz	r3, .L126
	.loc 1 2310 42 discriminator 1 view .LVU2730
	cmp	r8, #0
	bne	.L126
.LBB4371:
	.loc 1 2311 3 is_stmt 1 view .LVU2731
	.loc 1 2311 52 is_stmt 0 view .LVU2732
	mov	r0, r4
	bl	net_buf_id
.LVL247:
	.loc 1 2311 32 view .LVU2733
	mla	r0, r6, r0, r5
.LBB4372:
.LBB4373:
	.loc 9 239 27 view .LVU2734
	movs	r1, #1
.LBE4373:
.LBE4372:
	.loc 1 2311 32 view .LVU2735
	ldr	r2, [r0, #4]
.LVL248:
	.loc 1 2313 3 is_stmt 1 view .LVU2736
	ldrd	r0, r3, [r2]
.LVL249:
.LBB4376:
.LBI4372:
	.loc 9 237 20 view .LVU2737
.LBB4374:
	.loc 9 239 2 view .LVU2738
	.loc 9 241 5 is_stmt 0 view .LVU2739
	ldrb	r2, [r2, #8]	@ zero_extendqisi2
.LVL250:
	.loc 9 239 52 view .LVU2740
	and	r6, r3, #31
	.loc 9 239 27 view .LVU2741
	lsls	r1, r1, r6
.LVL251:
	.loc 9 241 2 is_stmt 1 view .LVU2742
	lsrs	r3, r3, #5
.LVL252:
	.loc 9 241 5 is_stmt 0 view .LVU2743
	cbz	r2, .L127
	.loc 9 242 3 is_stmt 1 view .LVU2744
	.loc 9 242 9 is_stmt 0 view .LVU2745
	add	r0, r0, r3, lsl #2
.LVL253:
	.loc 9 242 9 view .LVU2746
	bl	atomic_or
.LVL254:
.L126:
	.loc 9 242 9 view .LVU2747
.LBE4374:
.LBE4376:
.LBE4371:
	.loc 1 2317 2 is_stmt 1 view .LVU2748
	.loc 1 2317 17 is_stmt 0 view .LVU2749
	mov	r0, r4
	bl	net_buf_id
.LVL255:
	.loc 1 2317 34 view .LVU2750
	movs	r6, #12
	mla	r0, r6, r0, r5
	.loc 1 2317 5 view .LVU2751
	ldr	r3, [r0, #8]
	cmp	r3, #0
	beq	.L121
	.loc 1 2318 3 is_stmt 1 view .LVU2752
	.loc 1 2318 14 is_stmt 0 view .LVU2753
	mov	r0, r4
	bl	net_buf_id
.LVL256:
	.loc 1 2318 40 view .LVU2754
	muls	r0, r6, r0
	strb	r8, [r5, r0]
	.loc 1 2319 3 is_stmt 1 view .LVU2755
	.loc 1 2319 25 is_stmt 0 view .LVU2756
	mov	r0, r4
	bl	net_buf_id
.LVL257:
	.loc 1 2319 3 view .LVU2757
	mla	r5, r6, r0, r5
	ldr	r0, [r5, #8]
.LVL258:
.LBB4378:
.LBI4378:
	.file 11 "/home/g/mise-work/zmk-firmware/zmk/app/build/zephyr/include/generated/syscalls/kernel.h"
	.loc 11 1110 20 is_stmt 1 view .LVU2758
.LBB4379:
	.loc 11 1119 2 view .LVU2759
	.loc 11 1119 7 view .LVU2760
	.loc 11 1119 5 view .LVU2761
	.loc 11 1120 2 view .LVU2762
	bl	z_impl_k_sem_give
.LVL259:
	.loc 11 1121 1 is_stmt 0 view .LVU2763
	b	.L121
.LVL260:
.L127:
	.loc 11 1121 1 view .LVU2764
.LBE4379:
.LBE4378:
.LBB4380:
.LBB4377:
.LBB4375:
	.loc 9 244 3 is_stmt 1 view .LVU2765
	.loc 9 244 9 is_stmt 0 view .LVU2766
	mvns	r1, r1
.LVL261:
	.loc 9 244 9 view .LVU2767
	add	r0, r0, r3, lsl #2
.LVL262:
	.loc 9 244 9 view .LVU2768
	bl	atomic_and.isra.0
.LVL263:
	.loc 9 244 9 view .LVU2769
	b	.L126
.L138:
	.align	2
.L137:
	.word	hci_cmd_pool
	.word	.LC24
	.word	log_const_bt_hci_core
	.word	cmd_data
	.word	.LC25
	.word	bt_dev
.LBE4375:
.LBE4377:
.LBE4380:
	.cfi_endproc
.LFE647:
	.size	hci_cmd_done, .-hci_cmd_done
	.section	.text.hci_cmd_status,"ax",%progbits
	.align	1
	.syntax unified
	.thumb
	.thumb_func
	.type	hci_cmd_status, %function
hci_cmd_status:
.LVL264:
.LFB649:
	.loc 1 2349 1 is_stmt 1 view -0
	.cfi_startproc
	@ args = 0, pretend = 0, frame = 0
	@ frame_needed = 0, uses_anonymous_args = 0
	.loc 1 2350 2 view .LVU2771
	.loc 1 2351 2 view .LVU2772
	.loc 1 2352 2 view .LVU2773
	.loc 1 2354 2 view .LVU2774
.LBB4397:
.LBI4397:
	.loc 8 2076 21 view .LVU2775
.LBB4398:
	.loc 8 2078 2 view .LVU2776
.LBE4398:
.LBE4397:
	.loc 1 2349 1 is_stmt 0 view .LVU2777
	push	{r3, r4, r5, lr}
	.cfi_def_cfa_offset 16
	.cfi_offset 3, -16
	.cfi_offset 4, -12
	.cfi_offset 5, -8
	.cfi_offset 14, -4
.LBB4401:
.LBB4399:
	.loc 8 2078 9 view .LVU2778
	movs	r1, #4
.LBE4399:
.LBE4401:
	.loc 1 2349 1 view .LVU2779
	mov	r4, r0
.LBB4402:
.LBB4400:
	.loc 8 2078 9 view .LVU2780
	adds	r0, r0, #12
.LVL265:
	.loc 8 2078 9 view .LVU2781
	bl	net_buf_simple_pull_mem
.LVL266:
	.loc 8 2078 9 view .LVU2782
.LBE4400:
.LBE4402:
	.loc 1 2355 2 is_stmt 1 view .LVU2783
	.loc 1 2356 2 view .LVU2784
	.loc 1 2356 7 is_stmt 0 view .LVU2785
	ldrb	r5, [r0, #1]	@ zero_extendqisi2
.LVL267:
	.loc 1 2358 2 is_stmt 1 view .LVU2786
.LBB4403:
	.loc 1 2358 7 view .LVU2787
.LBE4403:
	.loc 1 2358 5 view .LVU2788
	.loc 1 2360 2 view .LVU2789
	ldrb	r1, [r0]	@ zero_extendqisi2
	ldrh	r0, [r0, #2]	@ unaligned
.LVL268:
	.loc 1 2360 2 is_stmt 0 view .LVU2790
	mov	r2, r4
	bl	hci_cmd_done
.LVL269:
	.loc 1 2363 2 is_stmt 1 view .LVU2791
	.loc 1 2363 5 is_stmt 0 view .LVU2792
	cbz	r5, .L139
.LBB4404:
.LBI4404:
	.loc 1 2348 13 is_stmt 1 view .LVU2793
.LVL270:
.LBB4405:
	.loc 1 2364 3 view .LVU2794
.LBB4406:
.LBI4406:
	.loc 11 1110 20 view .LVU2795
.LBB4407:
	.loc 11 1119 2 view .LVU2796
	.loc 11 1119 7 view .LVU2797
	.loc 11 1119 5 view .LVU2798
	.loc 11 1120 2 view .LVU2799
	ldr	r0, .L141
.LVL271:
	.loc 11 1120 2 is_stmt 0 view .LVU2800
.LBE4407:
.LBE4406:
.LBE4405:
.LBE4404:
	.loc 1 2366 1 view .LVU2801
	pop	{r3, r4, r5, lr}
	.cfi_remember_state
	.cfi_restore 14
	.cfi_restore 5
	.cfi_restore 4
	.cfi_restore 3
	.cfi_def_cfa_offset 0
.LVL272:
.LBB4411:
.LBB4410:
.LBB4409:
.LBB4408:
	.loc 11 1120 2 view .LVU2802
	b	z_impl_k_sem_give
.LVL273:
.L139:
	.cfi_restore_state
	.loc 11 1120 2 view .LVU2803
.LBE4408:
.LBE4409:
.LBE4410:
.LBE4411:
	.loc 1 2366 1 view .LVU2804
	pop	{r3, r4, r5, pc}
.LVL274:
.L142:
	.loc 1 2366 1 view .LVU2805
	.align	2
.L141:
	.word	bt_dev+296
	.cfi_endproc
.LFE649:
	.size	hci_cmd_status, .-hci_cmd_status
	.section	.text.hci_cmd_complete,"ax",%progbits
	.align	1
	.syntax unified
	.thumb
	.thumb_func
	.type	hci_cmd_complete, %function
hci_cmd_complete:
.LVL275:
.LFB648:
	.loc 1 2324 1 is_stmt 1 view -0
	.cfi_startproc
	@ args = 0, pretend = 0, frame = 0
	@ frame_needed = 0, uses_anonymous_args = 0
	.loc 1 2325 2 view .LVU2807
	.loc 1 2326 2 view .LVU2808
	.loc 1 2327 2 view .LVU2809
	.loc 1 2329 2 view .LVU2810
.LBB4428:
.LBI4428:
	.loc 8 2076 21 view .LVU2811
.LBB4429:
	.loc 8 2078 2 view .LVU2812
.LBE4429:
.LBE4428:
	.loc 1 2324 1 is_stmt 0 view .LVU2813
	push	{r3, r4, r5, lr}
	.cfi_def_cfa_offset 16
	.cfi_offset 3, -16
	.cfi_offset 4, -12
	.cfi_offset 5, -8
	.cfi_offset 14, -4
.LBB4432:
.LBB4430:
	.loc 8 2078 9 view .LVU2814
	movs	r1, #3
.LBE4430:
.LBE4432:
	.loc 1 2324 1 view .LVU2815
	mov	r4, r0
.LBB4433:
.LBB4431:
	.loc 8 2078 9 view .LVU2816
	adds	r0, r0, #12
.LVL276:
	.loc 8 2078 9 view .LVU2817
	bl	net_buf_simple_pull_mem
.LVL277:
	.loc 8 2078 9 view .LVU2818
.LBE4431:
.LBE4433:
	.loc 1 2330 2 is_stmt 1 view .LVU2819
	.loc 1 2338 9 is_stmt 0 view .LVU2820
	ldr	r3, [r4, #12]
	.loc 1 2330 7 view .LVU2821
	ldrb	r5, [r0]	@ zero_extendqisi2
.LVL278:
	.loc 1 2331 2 is_stmt 1 view .LVU2822
	.loc 1 2333 2 view .LVU2823
.LBB4434:
	.loc 1 2333 7 view .LVU2824
.LBE4434:
	.loc 1 2333 5 view .LVU2825
	.loc 1 2338 2 view .LVU2826
	.loc 1 2340 2 view .LVU2827
	ldrb	r1, [r3]	@ zero_extendqisi2
	ldrh	r0, [r0, #1]	@ unaligned
.LVL279:
	.loc 1 2340 2 is_stmt 0 view .LVU2828
	mov	r2, r4
	bl	hci_cmd_done
.LVL280:
	.loc 1 2343 2 is_stmt 1 view .LVU2829
	.loc 1 2343 5 is_stmt 0 view .LVU2830
	cbz	r5, .L143
.LBB4435:
.LBI4435:
	.loc 1 2348 13 is_stmt 1 view .LVU2831
.LVL281:
.LBB4436:
	.loc 1 2364 3 view .LVU2832
.LBB4437:
.LBI4437:
	.loc 11 1110 20 view .LVU2833
.LBB4438:
	.loc 11 1119 2 view .LVU2834
	.loc 11 1119 7 view .LVU2835
	.loc 11 1119 5 view .LVU2836
	.loc 11 1120 2 view .LVU2837
	ldr	r0, .L145
.LVL282:
	.loc 11 1120 2 is_stmt 0 view .LVU2838
.LBE4438:
.LBE4437:
.LBE4436:
.LBE4435:
	.loc 1 2346 1 view .LVU2839
	pop	{r3, r4, r5, lr}
	.cfi_remember_state
	.cfi_restore 14
	.cfi_restore 5
	.cfi_restore 4
	.cfi_restore 3
	.cfi_def_cfa_offset 0
.LVL283:
.LBB4442:
.LBB4441:
.LBB4440:
.LBB4439:
	.loc 11 1120 2 view .LVU2840
	b	z_impl_k_sem_give
.LVL284:
.L143:
	.cfi_restore_state
	.loc 11 1120 2 view .LVU2841
.LBE4439:
.LBE4440:
.LBE4441:
.LBE4442:
	.loc 1 2346 1 view .LVU2842
	pop	{r3, r4, r5, pc}
.LVL285:
.L146:
	.loc 1 2346 1 view .LVU2843
	.align	2
.L145:
	.word	bt_dev+296
	.cfi_endproc
.LFE648:
	.size	hci_cmd_complete, .-hci_cmd_complete
	.section	.rodata.hci_tx_thread.str1.1,"aMS",%progbits,1
.LC26:
	.ascii	"WEST_TOPDIR/zephyr/subsys/bluetooth/host/hci_core.c"
	.ascii	"\000"
.LC27:
	.ascii	"err == 0\000"
.LC28:
	.ascii	"ASSERTION FAIL [%s] @ %s:%d\012\000"
.LC29:
	.ascii	"buf\000"
.LC30:
	.ascii	"Uncleared pending sent_cmd\000"
.LC31:
	.ascii	"Unable to send to driver (err %d)\000"
.LC32:
	.ascii	"Unexpected k_poll event state %u\000"
	.section	.text.hci_tx_thread,"ax",%progbits
	.align	1
	.syntax unified
	.thumb
	.thumb_func
	.type	hci_tx_thread, %function
hci_tx_thread:
.LVL286:
.LFB656:
	.loc 1 2765 1 is_stmt 1 view -0
	.cfi_startproc
	@ args = 0, pretend = 0, frame = 24
	@ frame_needed = 1, uses_anonymous_args = 0
	.loc 1 2766 2 view .LVU2845
	.loc 1 2773 2 view .LVU2846
.LBB4530:
	.loc 1 2773 7 view .LVU2847
.LBE4530:
	.loc 1 2765 1 is_stmt 0 view .LVU2848
	push	{r4, r5, r6, r7, r8, r9, r10, fp, lr}
	.cfi_def_cfa_offset 36
	.cfi_offset 4, -36
	.cfi_offset 5, -32
	.cfi_offset 6, -28
	.cfi_offset 7, -24
	.cfi_offset 8, -20
	.cfi_offset 9, -16
	.cfi_offset 10, -12
	.cfi_offset 11, -8
	.cfi_offset 14, -4
.LBB4531:
	.loc 1 2778 19 view .LVU2849
	ldr	r8, .L167+4
	.loc 1 2789 27 view .LVU2850
	ldr	r9, .L167+48
.LBE4531:
	.loc 1 2765 1 view .LVU2851
	sub	sp, sp, #28
	.cfi_def_cfa_offset 64
	add	r7, sp, #0
	.cfi_def_cfa_register 7
.LVL287:
.L157:
	.loc 1 2773 5 is_stmt 1 discriminator 285 view .LVU2852
	.loc 1 2775 2 discriminator 285 view .LVU2853
.LBB4596:
	.loc 1 2776 3 discriminator 285 view .LVU2854
	.loc 1 2778 3 discriminator 285 view .LVU2855
	.loc 1 2778 19 is_stmt 0 discriminator 285 view .LVU2856
	ldr	r3, [r8, #12]
	.loc 1 2783 16 discriminator 285 view .LVU2857
	ldr	r0, .L167
	.loc 1 2778 19 discriminator 285 view .LVU2858
	bfc	r3, #14, #7
	str	r3, [r8, #12]
	.loc 1 2779 3 is_stmt 1 discriminator 285 view .LVU2859
.LVL288:
	.loc 1 2782 3 discriminator 285 view .LVU2860
	.loc 1 2783 4 discriminator 285 view .LVU2861
	.loc 1 2783 16 is_stmt 0 discriminator 285 view .LVU2862
	bl	bt_conn_prepare_events
.LVL289:
	.loc 1 2783 13 discriminator 285 view .LVU2863
	adds	r5, r0, #1
.LVL290:
	.loc 1 2786 3 is_stmt 1 discriminator 285 view .LVU2864
.LBB4532:
	.loc 1 2786 8 discriminator 285 view .LVU2865
.LBE4532:
	.loc 1 2786 6 discriminator 285 view .LVU2866
	.loc 1 2788 3 discriminator 285 view .LVU2867
.LBB4533:
.LBI4533:
	.loc 11 1449 19 discriminator 285 view .LVU2868
.LBB4534:
	.loc 11 1459 2 discriminator 285 view .LVU2869
	.loc 11 1459 7 discriminator 285 view .LVU2870
	.loc 11 1459 5 discriminator 285 view .LVU2871
	.loc 11 1460 2 discriminator 285 view .LVU2872
	.loc 11 1460 9 is_stmt 0 discriminator 285 view .LVU2873
	ldr	r0, .L167+4
	mov	r2, #-1
	mov	r3, #-1
	mov	r1, r5
	bl	z_impl_k_poll
.LVL291:
	.loc 11 1460 9 discriminator 285 view .LVU2874
.LBE4534:
.LBE4533:
	.loc 1 2789 3 is_stmt 1 discriminator 285 view .LVU2875
	.loc 1 2789 8 discriminator 285 view .LVU2876
	.loc 1 2789 11 is_stmt 0 discriminator 285 view .LVU2877
	cbz	r0, .L148
	.loc 1 2789 27 is_stmt 1 discriminator 1 view .LVU2878
	ldr	r1, .L167+8
	ldr	r0, .L167+12
.LVL292:
	.loc 1 2789 27 is_stmt 0 discriminator 1 view .LVU2879
	movw	r3, #2789
	mov	r2, r9
	bl	assert_print
.LVL293:
	.loc 1 2789 147 is_stmt 1 discriminator 1 view .LVU2880
	.loc 1 2789 152 discriminator 1 view .LVU2881
	.syntax unified
@ 2789 "/home/g/mise-work/zmk-firmware/zmk/zephyr/subsys/bluetooth/host/hci_core.c" 1
	eors.n r0, r0
	msr BASEPRI, r0
	mov r0, #3
	svc #2
	
@ 0 "" 2
	.thumb
	.syntax unified
.L148:
.LBE4596:
	.loc 1 2765 1 is_stmt 0 view .LVU2882
	ldr	r6, .L167+4
.LBB4597:
.LBB4535:
.LBB4536:
.LBB4537:
.LBB4538:
.LBB4539:
.LBB4540:
.LBB4541:
.LBB4542:
	.loc 1 2740 177 view .LVU2883
	mov	r10, #3
.LVL294:
.L149:
	.loc 1 2740 177 view .LVU2884
.LBE4542:
.LBE4541:
.LBE4540:
.LBE4539:
.LBE4538:
.LBE4537:
	.loc 1 2709 9 is_stmt 1 view .LVU2885
	cbnz	r5, .L156
.LVL295:
	.loc 1 2709 9 is_stmt 0 view .LVU2886
.LBE4536:
.LBE4535:
	.loc 1 2796 3 is_stmt 1 view .LVU2887
.LBB4593:
.LBI4593:
	.loc 11 175 20 view .LVU2888
.LBB4594:
	.loc 11 183 2 view .LVU2889
	.loc 11 183 7 view .LVU2890
	.loc 11 183 5 view .LVU2891
	.loc 11 184 2 view .LVU2892
	bl	z_impl_k_yield
.LVL296:
.LBE4594:
.LBE4593:
.LBE4597:
	.loc 1 2775 8 view .LVU2893
	.loc 1 2775 12 is_stmt 0 view .LVU2894
	b	.L157
.LVL297:
.L156:
.LBB4598:
.LBB4595:
.LBB4592:
	.loc 1 2710 3 is_stmt 1 view .LVU2895
.LBB4554:
	.loc 1 2710 8 view .LVU2896
.LBE4554:
	.loc 1 2710 6 view .LVU2897
	.loc 1 2712 3 view .LVU2898
	.loc 1 2712 13 is_stmt 0 view .LVU2899
	ldr	r3, [r6, #12]
	ubfx	r3, r3, #14, #7
	.loc 1 2712 3 view .LVU2900
	cmp	r3, #2
	bls	.L150
	cmp	r3, #4
	bne	.L151
	.loc 1 2723 4 is_stmt 1 view .LVU2901
	.loc 1 2723 10 is_stmt 0 view .LVU2902
	ldrb	r3, [r6, #12]	@ zero_extendqisi2
	.loc 1 2723 7 view .LVU2903
	cmp	r3, #0
	bne	.L152
	.loc 1 2724 5 is_stmt 1 view .LVU2904
.LBB4555:
.LBI4555:
	.loc 1 2671 13 view .LVU2905
.LBB4556:
	.loc 1 2673 2 view .LVU2906
	.loc 1 2674 2 view .LVU2907
	.loc 1 2677 2 view .LVU2908
.LBB4557:
	.loc 1 2677 7 view .LVU2909
.LBE4557:
	.loc 1 2677 5 view .LVU2910
	.loc 1 2678 2 view .LVU2911
	.loc 1 2678 8 is_stmt 0 view .LVU2912
	ldr	r0, .L167+16
	movs	r2, #0
	movs	r3, #0
	bl	net_buf_get
.LVL298:
	.loc 1 2679 2 is_stmt 1 view .LVU2913
	.loc 1 2679 7 view .LVU2914
	.loc 1 2679 10 is_stmt 0 view .LVU2915
	mov	r4, r0
	cbnz	r0, .L153
	.loc 1 2679 21 is_stmt 1 view .LVU2916
	ldr	r1, .L167+20
	ldr	r0, .L167+12
.LVL299:
	.loc 1 2679 21 is_stmt 0 view .LVU2917
	movw	r3, #2679
	mov	r2, r9
	bl	assert_print
.LVL300:
	.loc 1 2679 136 is_stmt 1 view .LVU2918
	.loc 1 2679 141 view .LVU2919
	.syntax unified
@ 2679 "/home/g/mise-work/zmk-firmware/zmk/zephyr/subsys/bluetooth/host/hci_core.c" 1
	eors.n r0, r0
	msr BASEPRI, r0
	mov r0, #3
	svc #2
	
@ 0 "" 2
	.thumb
	.syntax unified
.L153:
	.loc 1 2679 139 view .LVU2920
	.loc 1 2679 5 view .LVU2921
	.loc 1 2682 2 view .LVU2922
.LBB4558:
	.loc 1 2682 7 view .LVU2923
.LBE4558:
	.loc 1 2682 5 view .LVU2924
	.loc 1 2683 2 view .LVU2925
.LVL301:
.LBB4559:
.LBI4559:
	.loc 11 1093 19 view .LVU2926
.LBB4560:
	.loc 11 1102 2 view .LVU2927
	.loc 11 1102 7 view .LVU2928
	.loc 11 1102 5 view .LVU2929
	.loc 11 1103 2 view .LVU2930
.LBE4560:
.LBE4559:
	.loc 1 2686 12 is_stmt 0 view .LVU2931
	ldr	fp, .L167+52
.LBB4562:
.LBB4561:
	.loc 11 1103 9 view .LVU2932
	ldr	r0, .L167+24
.LVL302:
	.loc 11 1103 9 view .LVU2933
	mov	r3, #-1
	mov	r2, #-1
	bl	z_impl_k_sem_take
.LVL303:
	.loc 11 1103 9 view .LVU2934
.LBE4561:
.LBE4562:
	.loc 1 2686 2 is_stmt 1 view .LVU2935
	.loc 1 2686 5 is_stmt 0 view .LVU2936
	ldr	r3, [fp, #320]
	cbz	r3, .L154
	.loc 1 2687 3 is_stmt 1 view .LVU2937
.LBB4563:
	.loc 1 2687 8 view .LVU2938
	.loc 1 2687 57 view .LVU2939
	.loc 1 2687 14 view .LVU2940
	.loc 1 2687 2 view .LVU2941
.LVL304:
	.loc 1 2687 41 view .LVU2942
	.loc 1 2687 176 view .LVU2943
	.loc 1 2687 187 view .LVU2944
	.loc 1 2687 275 view .LVU2945
	.loc 1 2687 3 view .LVU2946
	.loc 1 2687 3 view .LVU2947
.LBB4564:
	.loc 1 2687 8 view .LVU2948
	.loc 1 2687 2 view .LVU2949
	.loc 1 2687 12 view .LVU2950
	.loc 1 2687 102 view .LVU2951
	.loc 1 2687 104 view .LVU2952
.LBB4565:
	.loc 1 2687 109 view .LVU2953
	.loc 1 2687 120 view .LVU2954
	.loc 1 2687 209 view .LVU2955
	.loc 1 2687 26 view .LVU2956
	.loc 1 2687 29 view .LVU2957
	.loc 1 2687 3 view .LVU2958
	.loc 1 2687 3 view .LVU2959
	.loc 1 2687 70 view .LVU2960
	.loc 1 2687 74 view .LVU2961
	.loc 1 2687 484 view .LVU2962
	.loc 1 2687 5 view .LVU2963
	.loc 1 2687 7 view .LVU2964
	.loc 1 2687 12 view .LVU2965
	.loc 1 2687 10 view .LVU2966
	.loc 1 2687 5 view .LVU2967
	.loc 1 2687 23 view .LVU2968
.LBB4566:
	.loc 1 2687 3 view .LVU2969
	.loc 1 2687 368 view .LVU2970
	.loc 1 2687 75 view .LVU2971
.LVL305:
	.loc 1 2687 2 view .LVU2972
	.loc 1 2687 2 view .LVU2973
	.loc 1 2687 2 view .LVU2974
	.loc 1 2687 38 view .LVU2975
	.loc 1 2687 67 view .LVU2976
	.loc 1 2687 93 view .LVU2977
	.loc 1 2687 119 view .LVU2978
	.loc 1 2687 142 view .LVU2979
	.loc 1 2687 204 view .LVU2980
	.loc 1 2687 261 view .LVU2981
	.loc 1 2687 326 view .LVU2982
	.loc 1 2687 351 view .LVU2983
	.loc 1 2687 352 view .LVU2984
	.loc 1 2687 354 view .LVU2985
	.loc 1 2687 384 view .LVU2986
	.loc 1 2687 414 view .LVU2987
	.loc 1 2687 446 view .LVU2988
	.loc 1 2687 478 view .LVU2989
	.loc 1 2687 510 view .LVU2990
	.loc 1 2687 707 view .LVU2991
	.loc 1 2687 731 view .LVU2992
	.loc 1 2687 732 view .LVU2993
	.loc 1 2687 734 view .LVU2994
	.loc 1 2687 763 view .LVU2995
	.loc 1 2687 792 view .LVU2996
	.loc 1 2687 823 view .LVU2997
	.loc 1 2687 854 view .LVU2998
	.loc 1 2687 885 view .LVU2999
	.loc 1 2687 1092 view .LVU3000
	.loc 1 2687 4 view .LVU3001
	.loc 1 2687 22 view .LVU3002
	.loc 1 2687 42 view .LVU3003
	.loc 1 2687 4 view .LVU3004
	.loc 1 2687 42 view .LVU3005
	.loc 1 2687 13 view .LVU3006
	.loc 1 2687 13 view .LVU3007
	.loc 1 2687 61 view .LVU3008
	.loc 1 2687 92 view .LVU3009
	.loc 1 2687 126 view .LVU3010
.LBB4567:
	.loc 1 2687 131 view .LVU3011
	.loc 1 2687 381 view .LVU3012
	.loc 1 2687 1434 view .LVU3013
	.loc 1 2687 1499 view .LVU3014
	.loc 1 2687 1716 view .LVU3015
	.loc 1 2687 1756 view .LVU3016
	.loc 1 2687 1781 view .LVU3017
	.loc 1 2687 3070 view .LVU3018
	.loc 1 2687 3108 view .LVU3019
	.loc 1 2687 3113 view .LVU3020
	.loc 1 2687 3707 view .LVU3021
	.loc 1 2687 0 is_stmt 0 view .LVU3022
	ldr	r3, .L167+28
.LBE4567:
.LBE4566:
	.loc 1 2687 149 view .LVU3023
	ldr	r0, .L167+32
.LBB4572:
.LBB4568:
	.loc 1 2687 0 view .LVU3024
	str	r3, [r7, #20]
	.loc 1 2687 3111 is_stmt 1 view .LVU3025
	.loc 1 2687 7 view .LVU3026
.LVL306:
	.loc 1 2687 30 view .LVU3027
	.loc 1 2687 30 is_stmt 0 view .LVU3028
.LBE4568:
	.loc 1 2687 129 is_stmt 1 view .LVU3029
	.loc 1 2687 5 view .LVU3030
	.loc 1 2687 28 view .LVU3031
	.loc 1 2687 52 view .LVU3032
	.loc 1 2687 80 view .LVU3033
	.loc 1 2687 256 view .LVU3034
	.loc 1 2687 16 view .LVU3035
.LBB4569:
	.loc 1 2687 6 view .LVU3036
	.loc 1 2687 164 view .LVU3037
	.loc 1 2687 166 view .LVU3038
.LBE4569:
.LBE4572:
	.loc 1 2687 149 is_stmt 0 view .LVU3039
	add	r2, r7, #16
.LVL307:
.LBB4573:
.LBB4570:
	.loc 1 2687 176 view .LVU3040
	movs	r3, #2
.LBE4570:
.LBE4573:
	.loc 1 2687 149 view .LVU3041
	mov	r1, #4160
.LBB4574:
.LBB4571:
	.loc 1 2687 176 view .LVU3042
	str	r3, [r7, #16]
.LVL308:
	.loc 1 2687 176 view .LVU3043
.LBE4571:
.LBE4574:
	.loc 1 2687 26 is_stmt 1 view .LVU3044
	.loc 1 2687 7 view .LVU3045
	.loc 1 2687 147 view .LVU3046
	.loc 1 2687 149 view .LVU3047
	bl	z_log_msg_static_create.constprop.0
.LVL309:
	.loc 1 2687 149 is_stmt 0 view .LVU3048
.LBE4565:
	.loc 1 2687 107 is_stmt 1 view .LVU3049
	.loc 1 2687 5 view .LVU3050
.LVL310:
	.loc 1 2687 42 view .LVU3051
.LBE4564:
	.loc 1 2687 6 view .LVU3052
	.loc 1 2687 278 view .LVU3053
	.loc 1 2687 5 view .LVU3054
	.loc 1 2687 18 view .LVU3055
.LBE4563:
	.loc 1 2687 6 view .LVU3056
	.loc 1 2688 3 view .LVU3057
	ldr	r0, [fp, #320]
	bl	net_buf_unref
.LVL311:
	.loc 1 2689 3 view .LVU3058
	.loc 1 2689 19 is_stmt 0 view .LVU3059
	movs	r3, #0
	str	r3, [fp, #320]
.LVL312:
.L154:
	.loc 1 2692 2 is_stmt 1 view .LVU3060
	.loc 1 2692 20 is_stmt 0 view .LVU3061
	mov	r0, r4
	bl	net_buf_ref
.LVL313:
	.loc 1 2692 18 view .LVU3062
	str	r0, [fp, #320]
	.loc 1 2694 2 is_stmt 1 view .LVU3063
.LBB4575:
	.loc 1 2694 7 view .LVU3064
.LBE4575:
	.loc 1 2694 5 view .LVU3065
	.loc 1 2696 2 view .LVU3066
.LVL314:
.LBB4576:
.LBI4576:
	.loc 1 3684 5 view .LVU3067
.LBB4577:
	.loc 1 3686 2 view .LVU3068
.LBB4578:
	.loc 1 3686 7 view .LVU3069
.LBE4578:
	.loc 1 3686 5 view .LVU3070
	.loc 1 3688 2 view .LVU3071
	.loc 1 3690 2 view .LVU3072
	.loc 1 3691 3 view .LVU3073
	.loc 1 3691 10 is_stmt 0 view .LVU3074
	mov	r0, r4
	bl	bt_hci_ecc_send
.LVL315:
	.loc 1 3691 10 view .LVU3075
.LBE4577:
.LBE4576:
	.loc 1 2697 2 is_stmt 1 view .LVU3076
	.loc 1 2697 5 is_stmt 0 view .LVU3077
	cbz	r0, .L150
	.loc 1 2698 3 is_stmt 1 view .LVU3078
.LBB4579:
	.loc 1 2698 8 view .LVU3079
	.loc 1 2698 57 view .LVU3080
	.loc 1 2698 14 view .LVU3081
	.loc 1 2698 2 view .LVU3082
.LVL316:
	.loc 1 2698 41 view .LVU3083
	.loc 1 2698 176 view .LVU3084
	.loc 1 2698 187 view .LVU3085
	.loc 1 2698 275 view .LVU3086
.LBB4580:
	.loc 1 2698 3 view .LVU3087
	.loc 1 2698 5 view .LVU3088
	.loc 1 2698 3 view .LVU3089
.LBB4581:
	.loc 1 2698 8 view .LVU3090
	.loc 1 2698 2 view .LVU3091
	.loc 1 2698 12 view .LVU3092
	.loc 1 2698 102 view .LVU3093
	.loc 1 2698 104 view .LVU3094
.LBB4582:
	.loc 1 2698 107 is_stmt 0 view .LVU3095
	mov	fp, sp
	.loc 1 2698 109 is_stmt 1 view .LVU3096
	.loc 1 2698 120 view .LVU3097
.LVL317:
	.loc 1 2698 209 view .LVU3098
	.loc 1 2698 26 view .LVU3099
	.loc 1 2698 29 view .LVU3100
	.loc 1 2698 3 view .LVU3101
	.loc 1 2698 3 view .LVU3102
	.loc 1 2698 70 view .LVU3103
	.loc 1 2698 82 is_stmt 0 view .LVU3104
	sub	sp, sp, #32
	mov	r2, sp
.LVL318:
	.loc 1 2698 74 is_stmt 1 view .LVU3105
	.loc 1 2698 484 view .LVU3106
	.loc 1 2698 5 view .LVU3107
	.loc 1 2698 7 view .LVU3108
	.loc 1 2698 12 view .LVU3109
	.loc 1 2698 10 view .LVU3110
	.loc 1 2698 5 view .LVU3111
	.loc 1 2698 23 view .LVU3112
.LBB4583:
	.loc 1 2698 3 view .LVU3113
	.loc 1 2698 368 view .LVU3114
	.loc 1 2698 75 view .LVU3115
.LVL319:
	.loc 1 2698 2 view .LVU3116
	.loc 1 2698 2 view .LVU3117
	.loc 1 2698 2 view .LVU3118
	.loc 1 2698 38 view .LVU3119
	.loc 1 2698 67 view .LVU3120
	.loc 1 2698 93 view .LVU3121
	.loc 1 2698 119 view .LVU3122
	.loc 1 2698 586 view .LVU3123
	.loc 1 2698 648 view .LVU3124
	.loc 1 2698 1169 view .LVU3125
	.loc 1 2698 1234 view .LVU3126
	.loc 1 2698 1259 view .LVU3127
	.loc 1 2698 1260 view .LVU3128
	.loc 1 2698 1262 view .LVU3129
	.loc 1 2698 1292 view .LVU3130
	.loc 1 2698 1322 view .LVU3131
	.loc 1 2698 1354 view .LVU3132
	.loc 1 2698 1386 view .LVU3133
	.loc 1 2698 1418 view .LVU3134
	.loc 1 2698 1615 view .LVU3135
	.loc 1 2698 1639 view .LVU3136
	.loc 1 2698 1640 view .LVU3137
	.loc 1 2698 1642 view .LVU3138
	.loc 1 2698 1671 view .LVU3139
	.loc 1 2698 1700 view .LVU3140
	.loc 1 2698 1731 view .LVU3141
	.loc 1 2698 1762 view .LVU3142
	.loc 1 2698 1793 view .LVU3143
	.loc 1 2698 2000 view .LVU3144
.LBB4584:
	.loc 1 2698 3171 view .LVU3145
	.loc 1 2698 3176 view .LVU3146
	.loc 1 2698 3812 view .LVU3147
	.loc 1 2698 0 is_stmt 0 view .LVU3148
	ldr	r3, .L167+36
.LBE4584:
.LBB4585:
	.loc 1 2698 3811 view .LVU3149
	strd	r3, r0, [r2, #20]
	.loc 1 2698 2766 is_stmt 1 view .LVU3150
	.loc 1 2698 7 view .LVU3151
.LVL320:
	.loc 1 2698 30 view .LVU3152
	.loc 1 2698 30 is_stmt 0 view .LVU3153
.LBE4585:
	.loc 1 2698 9 is_stmt 1 view .LVU3154
	.loc 1 2698 5 view .LVU3155
	.loc 1 2698 28 view .LVU3156
	.loc 1 2698 52 view .LVU3157
	.loc 1 2698 80 view .LVU3158
	.loc 1 2698 256 view .LVU3159
	.loc 1 2698 16 view .LVU3160
.LBB4586:
	.loc 1 2698 6 view .LVU3161
	.loc 1 2698 164 view .LVU3162
	.loc 1 2698 166 view .LVU3163
	.loc 1 2698 176 is_stmt 0 view .LVU3164
	movs	r3, #3
	str	r3, [r2, #16]!
.LVL321:
	.loc 1 2698 176 view .LVU3165
.LBE4586:
.LBE4583:
	.loc 1 2698 26 is_stmt 1 view .LVU3166
	.loc 1 2698 7 view .LVU3167
	.loc 1 2698 147 view .LVU3168
	.loc 1 2698 149 view .LVU3169
	ldr	r0, .L167+32
.LVL322:
	.loc 1 2698 149 is_stmt 0 view .LVU3170
	mov	r1, #6208
	bl	z_log_msg_static_create.constprop.0
.LVL323:
	.loc 1 2698 149 view .LVU3171
	mov	sp, fp
.LVL324:
	.loc 1 2698 149 view .LVU3172
.LBE4582:
	.loc 1 2698 107 is_stmt 1 view .LVU3173
	.loc 1 2698 5 view .LVU3174
	.loc 1 2698 42 view .LVU3175
.LBE4581:
	.loc 1 2698 6 view .LVU3176
.LBE4580:
	.loc 1 2698 278 view .LVU3177
	.loc 1 2698 5 view .LVU3178
	.loc 1 2698 18 view .LVU3179
.LBE4579:
	.loc 1 2698 6 view .LVU3180
	.loc 1 2699 3 view .LVU3181
.LBB4587:
.LBI4587:
	.loc 11 1110 20 view .LVU3182
.LBB4588:
	.loc 11 1119 2 view .LVU3183
	.loc 11 1119 7 view .LVU3184
	.loc 11 1119 5 view .LVU3185
	.loc 11 1120 2 view .LVU3186
	ldr	r0, .L167+24
.LVL325:
	.loc 11 1120 2 is_stmt 0 view .LVU3187
	bl	z_impl_k_sem_give
.LVL326:
	.loc 11 1120 2 view .LVU3188
.LBE4588:
.LBE4587:
	.loc 1 2700 3 is_stmt 1 view .LVU3189
	.loc 1 2700 27 is_stmt 0 view .LVU3190
	mov	r0, r4
	bl	net_buf_id
.LVL327:
	.loc 1 2700 3 view .LVU3191
	ldr	r3, .L167+40
	movs	r2, #12
	mla	r0, r2, r0, r3
	movs	r1, #31
	ldrh	r0, [r0, #2]
	mov	r2, r4
	bl	hci_cmd_done
.LVL328:
	.loc 1 2701 3 is_stmt 1 view .LVU3192
	mov	r0, r4
	bl	net_buf_unref
.LVL329:
.L150:
	.loc 1 2701 3 is_stmt 0 view .LVU3193
.LBE4556:
.LBE4555:
	.loc 1 2709 20 is_stmt 1 view .LVU3194
	.loc 1 2709 18 is_stmt 0 view .LVU3195
	adds	r6, r6, #20
.LVL330:
	.loc 1 2709 27 view .LVU3196
	subs	r5, r5, #1
.LVL331:
	.loc 1 2709 27 view .LVU3197
	b	.L149
.L152:
	.loc 1 2725 11 is_stmt 1 view .LVU3198
.LBB4589:
	.loc 1 2727 5 view .LVU3199
	.loc 1 2729 5 view .LVU3200
	.loc 1 2729 8 is_stmt 0 view .LVU3201
	cmp	r3, #1
	bne	.L150
	.loc 1 2730 6 is_stmt 1 view .LVU3202
.LVL332:
	.loc 1 2733 6 view .LVU3203
	.loc 1 2730 11 is_stmt 0 view .LVU3204
	ldr	r0, [r6, #16]
	.loc 1 2733 6 view .LVU3205
	subs	r0, r0, #56
.LVL333:
	.loc 1 2733 6 view .LVU3206
	bl	bt_conn_process_tx
.LVL334:
	.loc 1 2733 6 view .LVU3207
	b	.L150
.LVL335:
.L151:
	.loc 1 2733 6 view .LVU3208
.LBE4589:
	.loc 1 2740 4 is_stmt 1 view .LVU3209
.LBB4590:
	.loc 1 2740 9 view .LVU3210
	.loc 1 2740 58 view .LVU3211
	.loc 1 2740 15 view .LVU3212
	.loc 1 2740 3 view .LVU3213
	.loc 1 2740 42 view .LVU3214
	.loc 1 2740 177 view .LVU3215
	.loc 1 2740 188 view .LVU3216
	.loc 1 2740 276 view .LVU3217
.LBB4552:
	.loc 1 2740 4 view .LVU3218
	.loc 1 2740 6 view .LVU3219
	.loc 1 2740 4 view .LVU3220
.LBB4550:
	.loc 1 2740 9 view .LVU3221
	.loc 1 2740 3 view .LVU3222
	.loc 1 2740 13 view .LVU3223
	.loc 1 2740 103 view .LVU3224
	.loc 1 2740 105 view .LVU3225
.LBB4548:
	.loc 1 2740 108 is_stmt 0 view .LVU3226
	mov	r4, sp
	.loc 1 2740 110 is_stmt 1 view .LVU3227
	.loc 1 2740 121 view .LVU3228
.LVL336:
	.loc 1 2740 210 view .LVU3229
	.loc 1 2740 27 view .LVU3230
	.loc 1 2740 30 view .LVU3231
	.loc 1 2740 4 view .LVU3232
	.loc 1 2740 4 view .LVU3233
	.loc 1 2740 71 view .LVU3234
	.loc 1 2740 83 is_stmt 0 view .LVU3235
	sub	sp, sp, #32
	mov	r2, sp
.LVL337:
	.loc 1 2740 75 is_stmt 1 view .LVU3236
	.loc 1 2740 485 view .LVU3237
	.loc 1 2740 6 view .LVU3238
	.loc 1 2740 8 view .LVU3239
	.loc 1 2740 13 view .LVU3240
	.loc 1 2740 11 view .LVU3241
	.loc 1 2740 6 view .LVU3242
	.loc 1 2740 24 view .LVU3243
.LBB4546:
	.loc 1 2740 4 view .LVU3244
	.loc 1 2740 369 view .LVU3245
	.loc 1 2740 76 view .LVU3246
.LVL338:
	.loc 1 2740 3 view .LVU3247
	.loc 1 2740 3 view .LVU3248
	.loc 1 2740 3 view .LVU3249
	.loc 1 2740 39 view .LVU3250
	.loc 1 2740 68 view .LVU3251
	.loc 1 2740 94 view .LVU3252
	.loc 1 2740 120 view .LVU3253
	.loc 1 2740 587 view .LVU3254
	.loc 1 2740 649 view .LVU3255
	.loc 1 2740 1170 view .LVU3256
	.loc 1 2740 1235 view .LVU3257
	.loc 1 2740 1260 view .LVU3258
	.loc 1 2740 1261 view .LVU3259
	.loc 1 2740 1263 view .LVU3260
	.loc 1 2740 1293 view .LVU3261
	.loc 1 2740 1323 view .LVU3262
	.loc 1 2740 1355 view .LVU3263
	.loc 1 2740 1387 view .LVU3264
	.loc 1 2740 1419 view .LVU3265
	.loc 1 2740 1616 view .LVU3266
	.loc 1 2740 1640 view .LVU3267
	.loc 1 2740 1641 view .LVU3268
	.loc 1 2740 1643 view .LVU3269
	.loc 1 2740 1672 view .LVU3270
	.loc 1 2740 1701 view .LVU3271
	.loc 1 2740 1732 view .LVU3272
	.loc 1 2740 1763 view .LVU3273
	.loc 1 2740 1794 view .LVU3274
	.loc 1 2740 2001 view .LVU3275
.LBB4543:
	.loc 1 2740 3163 view .LVU3276
	.loc 1 2740 3168 view .LVU3277
	.loc 1 2740 3798 view .LVU3278
	.loc 1 2740 0 is_stmt 0 view .LVU3279
	ldr	r1, .L167+44
.LBE4543:
.LBE4546:
	.loc 1 2740 150 view .LVU3280
	ldr	r0, .L167+32
.LBE4548:
.LBE4550:
.LBE4552:
.LBE4590:
	.loc 1 2712 13 view .LVU3281
	strd	r1, r3, [r2, #20]
.LBB4591:
.LBB4553:
.LBB4551:
.LBB4549:
.LBB4547:
.LBB4544:
	.loc 1 2740 2767 is_stmt 1 view .LVU3282
	.loc 1 2740 8 view .LVU3283
.LVL339:
	.loc 1 2740 31 view .LVU3284
	.loc 1 2740 31 is_stmt 0 view .LVU3285
.LBE4544:
	.loc 1 2740 10 is_stmt 1 view .LVU3286
	.loc 1 2740 6 view .LVU3287
	.loc 1 2740 29 view .LVU3288
	.loc 1 2740 53 view .LVU3289
	.loc 1 2740 81 view .LVU3290
	.loc 1 2740 257 view .LVU3291
	.loc 1 2740 17 view .LVU3292
.LBB4545:
	.loc 1 2740 7 view .LVU3293
	.loc 1 2740 165 view .LVU3294
	.loc 1 2740 167 view .LVU3295
	.loc 1 2740 177 is_stmt 0 view .LVU3296
	str	r10, [r2, #16]!
.LVL340:
	.loc 1 2740 177 view .LVU3297
.LBE4545:
.LBE4547:
	.loc 1 2740 27 is_stmt 1 view .LVU3298
	.loc 1 2740 8 view .LVU3299
	.loc 1 2740 148 view .LVU3300
	.loc 1 2740 150 view .LVU3301
	mov	r1, #6272
	bl	z_log_msg_static_create.constprop.0
.LVL341:
	.loc 1 2740 150 is_stmt 0 view .LVU3302
	mov	sp, r4
.LVL342:
	.loc 1 2740 150 view .LVU3303
.LBE4549:
	.loc 1 2740 108 is_stmt 1 view .LVU3304
	.loc 1 2740 6 view .LVU3305
	.loc 1 2740 43 view .LVU3306
.LBE4551:
	.loc 1 2740 7 view .LVU3307
.LBE4553:
	.loc 1 2740 279 view .LVU3308
	.loc 1 2740 6 view .LVU3309
	.loc 1 2740 19 view .LVU3310
	b	.L150
.L168:
	.align	2
.L167:
	.word	events.0+20
	.word	events.0
	.word	.LC27
	.word	.LC28
	.word	bt_dev+324
	.word	.LC29
	.word	bt_dev+296
	.word	.LC30
	.word	log_const_bt_hci_core
	.word	.LC31
	.word	cmd_data
	.word	.LC32
	.word	.LC26
	.word	bt_dev
.LBE4591:
.LBE4592:
.LBE4595:
.LBE4598:
	.cfi_endproc
.LFE656:
	.size	hci_tx_thread, .-hci_tx_thread
	.section	.rodata.hci_num_completed_packets.str1.1,"aMS",%progbits,1
.LC33:
	.ascii	"evt num_handles (=%u) too large (%u > %u)\000"
.LC34:
	.ascii	"No connection for handle %u\000"
.LC35:
	.ascii	"packets count mismatch\000"
	.section	.text.hci_num_completed_packets,"ax",%progbits
	.align	1
	.syntax unified
	.thumb
	.thumb_func
	.type	hci_num_completed_packets, %function
hci_num_completed_packets:
.LVL343:
.LFB603:
	.loc 1 434 1 view -0
	.cfi_startproc
	@ args = 0, pretend = 0, frame = 24
	@ frame_needed = 1, uses_anonymous_args = 0
	.loc 1 435 2 view .LVU3312
	.loc 1 434 1 is_stmt 0 view .LVU3313
	push	{r4, r5, r6, r7, r8, r9, r10, fp, lr}
	.cfi_def_cfa_offset 36
	.cfi_offset 4, -36
	.cfi_offset 5, -32
	.cfi_offset 6, -28
	.cfi_offset 7, -24
	.cfi_offset 8, -20
	.cfi_offset 9, -16
	.cfi_offset 10, -12
	.cfi_offset 11, -8
	.cfi_offset 14, -4
	sub	sp, sp, #28
	.cfi_def_cfa_offset 64
	.loc 1 435 43 view .LVU3314
	ldr	r8, [r0, #12]
.LVL344:
	.loc 1 436 2 is_stmt 1 view .LVU3315
	.loc 1 438 2 view .LVU3316
	.loc 1 438 63 is_stmt 0 view .LVU3317
	ldrh	r1, [r0, #16]
	.loc 1 438 44 view .LVU3318
	ldrb	r4, [r8]	@ zero_extendqisi2
	.loc 1 438 19 view .LVU3319
	movs	r3, #1
	add	r3, r3, r4, lsl #2
	.loc 1 438 5 view .LVU3320
	cmp	r3, r1
	.loc 1 434 1 view .LVU3321
	add	r7, sp, #0
	.cfi_def_cfa_register 7
	.loc 1 438 5 view .LVU3322
	bls	.L184
	.loc 1 439 3 is_stmt 1 view .LVU3323
.LBB4678:
	.loc 1 439 8 view .LVU3324
	.loc 1 439 57 view .LVU3325
	.loc 1 439 14 view .LVU3326
	.loc 1 439 2 view .LVU3327
.LVL345:
	.loc 1 439 41 view .LVU3328
	.loc 1 439 176 view .LVU3329
	.loc 1 439 187 view .LVU3330
	.loc 1 439 275 view .LVU3331
.LBB4679:
	.loc 1 439 3 view .LVU3332
	.loc 1 439 5 view .LVU3333
	.loc 1 439 48 view .LVU3334
	.loc 1 439 126 view .LVU3335
	.loc 1 439 3 view .LVU3336
.LBB4680:
	.loc 1 439 8 view .LVU3337
	.loc 1 439 2 view .LVU3338
.LBE4680:
.LBE4679:
.LBE4678:
	.loc 1 439 3 view .LVU3339
	.loc 1 439 12 view .LVU3340
	.loc 1 439 107 view .LVU3341
	.loc 1 439 3 view .LVU3342
.LBB4707:
.LBB4704:
.LBB4699:
	.loc 1 439 12 view .LVU3343
	.loc 1 439 102 view .LVU3344
	.loc 1 439 104 view .LVU3345
.LBB4681:
	.loc 1 439 107 is_stmt 0 view .LVU3346
	mov	r5, sp
	.loc 1 439 109 is_stmt 1 view .LVU3347
	.loc 1 439 120 view .LVU3348
.LVL346:
	.loc 1 439 209 view .LVU3349
	.loc 1 439 26 view .LVU3350
.LBE4681:
.LBE4699:
.LBE4704:
.LBE4707:
	.loc 1 439 3 view .LVU3351
	.loc 1 439 368 view .LVU3352
	.loc 1 439 75 view .LVU3353
	.loc 1 439 2 view .LVU3354
	.loc 1 439 2 view .LVU3355
	.loc 1 439 2 view .LVU3356
	.loc 1 439 38 view .LVU3357
	.loc 1 439 4 view .LVU3358
	.loc 1 439 30 view .LVU3359
	.loc 1 439 56 view .LVU3360
	.loc 1 439 1415 view .LVU3361
	.loc 1 439 1477 view .LVU3362
	.loc 1 439 2930 view .LVU3363
	.loc 1 439 2995 view .LVU3364
	.loc 1 439 3020 view .LVU3365
	.loc 1 439 3021 view .LVU3366
	.loc 1 439 3023 view .LVU3367
	.loc 1 439 3053 view .LVU3368
	.loc 1 439 3083 view .LVU3369
	.loc 1 439 3115 view .LVU3370
	.loc 1 439 3147 view .LVU3371
	.loc 1 439 3179 view .LVU3372
	.loc 1 439 3376 view .LVU3373
	.loc 1 439 3400 view .LVU3374
	.loc 1 439 3401 view .LVU3375
	.loc 1 439 3403 view .LVU3376
	.loc 1 439 3432 view .LVU3377
	.loc 1 439 3461 view .LVU3378
	.loc 1 439 3492 view .LVU3379
	.loc 1 439 3523 view .LVU3380
	.loc 1 439 3554 view .LVU3381
	.loc 1 439 3761 view .LVU3382
	.loc 1 439 4 view .LVU3383
	.loc 1 439 22 view .LVU3384
	.loc 1 439 42 view .LVU3385
	.loc 1 439 4 view .LVU3386
	.loc 1 439 42 view .LVU3387
	.loc 1 439 13 view .LVU3388
	.loc 1 439 13 view .LVU3389
	.loc 1 439 61 view .LVU3390
	.loc 1 439 92 view .LVU3391
	.loc 1 439 126 view .LVU3392
	.loc 1 439 131 view .LVU3393
	.loc 1 439 396 view .LVU3394
	.loc 1 439 1509 view .LVU3395
	.loc 1 439 1574 view .LVU3396
	.loc 1 439 1598 view .LVU3397
	.loc 1 439 1667 view .LVU3398
	.loc 1 439 1678 view .LVU3399
	.loc 1 439 1805 view .LVU3400
	.loc 1 439 1821 view .LVU3401
	.loc 1 439 1861 view .LVU3402
	.loc 1 439 1886 view .LVU3403
	.loc 1 439 3205 view .LVU3404
	.loc 1 439 3246 view .LVU3405
	.loc 1 439 7 view .LVU3406
	.loc 1 439 30 view .LVU3407
	.loc 1 439 129 view .LVU3408
	.loc 1 439 6 view .LVU3409
	.loc 1 439 11 view .LVU3410
	.loc 1 439 236 view .LVU3411
	.loc 1 439 1189 view .LVU3412
	.loc 1 439 1254 view .LVU3413
	.loc 1 439 1278 view .LVU3414
	.loc 1 439 1307 view .LVU3415
	.loc 1 439 1318 view .LVU3416
	.loc 1 439 1405 view .LVU3417
	.loc 1 439 1421 view .LVU3418
	.loc 1 439 1461 view .LVU3419
	.loc 1 439 2725 view .LVU3420
	.loc 1 439 2766 view .LVU3421
	.loc 1 439 7 view .LVU3422
	.loc 1 439 30 view .LVU3423
	.loc 1 439 9 view .LVU3424
	.loc 1 439 6 view .LVU3425
	.loc 1 439 11 view .LVU3426
	.loc 1 439 236 view .LVU3427
	.loc 1 439 1189 view .LVU3428
	.loc 1 439 1254 view .LVU3429
	.loc 1 439 1278 view .LVU3430
	.loc 1 439 1307 view .LVU3431
	.loc 1 439 1318 view .LVU3432
	.loc 1 439 1405 view .LVU3433
	.loc 1 439 1421 view .LVU3434
	.loc 1 439 1461 view .LVU3435
	.loc 1 439 2725 view .LVU3436
	.loc 1 439 2766 view .LVU3437
	.loc 1 439 7 view .LVU3438
	.loc 1 439 30 view .LVU3439
	.loc 1 439 9 view .LVU3440
	.loc 1 439 6 view .LVU3441
	.loc 1 439 11 view .LVU3442
	.loc 1 439 236 view .LVU3443
	.loc 1 439 1189 view .LVU3444
	.loc 1 439 1254 view .LVU3445
	.loc 1 439 1278 view .LVU3446
	.loc 1 439 1307 view .LVU3447
	.loc 1 439 1318 view .LVU3448
	.loc 1 439 1405 view .LVU3449
	.loc 1 439 1421 view .LVU3450
	.loc 1 439 1461 view .LVU3451
	.loc 1 439 2725 view .LVU3452
	.loc 1 439 2766 view .LVU3453
	.loc 1 439 7 view .LVU3454
	.loc 1 439 30 view .LVU3455
	.loc 1 439 9 view .LVU3456
	.loc 1 439 5 view .LVU3457
	.loc 1 439 28 view .LVU3458
	.loc 1 439 52 view .LVU3459
	.loc 1 439 80 view .LVU3460
	.loc 1 439 256 view .LVU3461
	.loc 1 439 16 view .LVU3462
.LBB4708:
.LBB4705:
.LBB4700:
.LBB4695:
	.loc 1 439 29 view .LVU3463
	.loc 1 439 3 view .LVU3464
	.loc 1 439 3 view .LVU3465
	.loc 1 439 70 view .LVU3466
	.loc 1 439 82 is_stmt 0 view .LVU3467
	sub	sp, sp, #40
	mov	r2, sp
.LVL347:
	.loc 1 439 74 is_stmt 1 view .LVU3468
	.loc 1 439 484 view .LVU3469
	.loc 1 439 5 view .LVU3470
	.loc 1 439 7 view .LVU3471
	.loc 1 439 12 view .LVU3472
	.loc 1 439 10 view .LVU3473
	.loc 1 439 5 view .LVU3474
	.loc 1 439 23 view .LVU3475
.LBB4682:
	.loc 1 439 3 view .LVU3476
	.loc 1 439 368 view .LVU3477
	.loc 1 439 75 view .LVU3478
.LVL348:
	.loc 1 439 2 view .LVU3479
	.loc 1 439 2 view .LVU3480
	.loc 1 439 2 view .LVU3481
	.loc 1 439 38 view .LVU3482
	.loc 1 439 67 view .LVU3483
	.loc 1 439 93 view .LVU3484
	.loc 1 439 119 view .LVU3485
	.loc 1 439 1478 view .LVU3486
	.loc 1 439 1540 view .LVU3487
	.loc 1 439 2993 view .LVU3488
	.loc 1 439 3058 view .LVU3489
	.loc 1 439 3083 view .LVU3490
	.loc 1 439 3084 view .LVU3491
	.loc 1 439 3086 view .LVU3492
	.loc 1 439 3116 view .LVU3493
	.loc 1 439 3146 view .LVU3494
	.loc 1 439 3178 view .LVU3495
	.loc 1 439 3210 view .LVU3496
	.loc 1 439 3242 view .LVU3497
	.loc 1 439 3439 view .LVU3498
	.loc 1 439 3463 view .LVU3499
	.loc 1 439 3464 view .LVU3500
	.loc 1 439 3466 view .LVU3501
	.loc 1 439 3495 view .LVU3502
	.loc 1 439 3524 view .LVU3503
	.loc 1 439 3555 view .LVU3504
	.loc 1 439 3586 view .LVU3505
	.loc 1 439 3617 view .LVU3506
	.loc 1 439 3824 view .LVU3507
.LBB4683:
	.loc 1 439 3243 view .LVU3508
	.loc 1 439 3248 view .LVU3509
	.loc 1 439 3932 view .LVU3510
	.loc 1 439 0 is_stmt 0 view .LVU3511
	ldr	r0, .L189
.LVL349:
	.loc 1 439 0 view .LVU3512
.LBE4683:
.LBE4682:
.LBE4695:
.LBE4700:
	.loc 1 439 138 view .LVU3513
	strd	r3, r1, [r2, #28]
.LBB4701:
.LBB4696:
.LBB4691:
.LBB4684:
	.loc 1 439 176 view .LVU3514
	movs	r3, #5
.LVL350:
	.loc 1 439 176 view .LVU3515
.LBE4684:
.LBE4691:
.LBE4696:
.LBE4701:
	.loc 1 439 17 view .LVU3516
	strd	r0, r4, [r2, #20]
.LBB4702:
.LBB4697:
.LBB4692:
.LBB4685:
	.loc 1 439 2766 is_stmt 1 view .LVU3517
	.loc 1 439 7 view .LVU3518
.LVL351:
	.loc 1 439 30 view .LVU3519
	.loc 1 439 30 is_stmt 0 view .LVU3520
.LBE4685:
	.loc 1 439 9 is_stmt 1 view .LVU3521
	.loc 1 439 6 view .LVU3522
.LBB4686:
	.loc 1 439 11 view .LVU3523
	.loc 1 439 236 view .LVU3524
	.loc 1 439 1189 view .LVU3525
	.loc 1 439 1254 view .LVU3526
.LBE4686:
.LBE4692:
.LBE4697:
.LBE4702:
.LBE4705:
.LBE4708:
	.loc 1 439 1278 view .LVU3527
	.loc 1 439 1307 view .LVU3528
	.loc 1 439 1318 view .LVU3529
	.loc 1 439 1405 view .LVU3530
.LBB4709:
.LBB4706:
.LBB4703:
.LBB4698:
.LBB4693:
.LBB4687:
	.loc 1 439 1421 view .LVU3531
	.loc 1 439 1461 view .LVU3532
	.loc 1 439 2725 view .LVU3533
	.loc 1 439 2763 view .LVU3534
	.loc 1 439 2768 view .LVU3535
	.loc 1 439 3212 view .LVU3536
.LBE4687:
.LBB4688:
	.loc 1 439 2766 view .LVU3537
	.loc 1 439 7 view .LVU3538
	.loc 1 439 30 view .LVU3539
	.loc 1 439 30 is_stmt 0 view .LVU3540
.LBE4688:
	.loc 1 439 9 is_stmt 1 view .LVU3541
	.loc 1 439 5 view .LVU3542
	.loc 1 439 28 view .LVU3543
	.loc 1 439 52 view .LVU3544
	.loc 1 439 80 view .LVU3545
	.loc 1 439 256 view .LVU3546
	.loc 1 439 16 view .LVU3547
.LBB4689:
	.loc 1 439 6 view .LVU3548
	.loc 1 439 164 view .LVU3549
	.loc 1 439 166 view .LVU3550
.LBE4689:
.LBE4693:
	.loc 1 439 149 is_stmt 0 view .LVU3551
	mov	r1, #10304
.LVL352:
.LBB4694:
.LBB4690:
	.loc 1 439 176 view .LVU3552
	str	r3, [r2, #16]!
.LVL353:
	.loc 1 439 176 view .LVU3553
.LBE4690:
.LBE4694:
	.loc 1 439 26 is_stmt 1 view .LVU3554
	.loc 1 439 7 view .LVU3555
	.loc 1 439 147 view .LVU3556
	.loc 1 439 149 view .LVU3557
	ldr	r0, .L189+4
	bl	z_log_msg_static_create.constprop.0
.LVL354:
	.loc 1 439 149 is_stmt 0 view .LVU3558
	mov	sp, r5
.LVL355:
	.loc 1 439 149 view .LVU3559
.LBE4698:
	.loc 1 439 107 is_stmt 1 view .LVU3560
	.loc 1 439 5 view .LVU3561
	.loc 1 439 42 view .LVU3562
.LBE4703:
	.loc 1 439 6 view .LVU3563
.LBE4706:
	.loc 1 439 278 view .LVU3564
	.loc 1 439 5 view .LVU3565
	.loc 1 439 18 view .LVU3566
.LBE4709:
	.loc 1 439 6 view .LVU3567
	.loc 1 443 3 view .LVU3568
.L169:
	.loc 1 499 1 is_stmt 0 view .LVU3569
	adds	r7, r7, #28
	.cfi_remember_state
	.cfi_def_cfa_offset 36
	mov	sp, r7
	.cfi_def_cfa_register 13
	@ sp needed
	pop	{r4, r5, r6, r7, r8, r9, r10, fp, pc}
.LVL356:
.L186:
	.cfi_restore_state
.LBB4710:
	.loc 1 459 4 is_stmt 1 view .LVU3570
.LBB4711:
	.loc 1 459 9 view .LVU3571
	.loc 1 459 58 view .LVU3572
	.loc 1 459 15 view .LVU3573
	.loc 1 459 3 view .LVU3574
	.loc 1 459 42 view .LVU3575
	.loc 1 459 177 view .LVU3576
	.loc 1 459 188 view .LVU3577
	.loc 1 459 276 view .LVU3578
.LBB4712:
	.loc 1 459 4 view .LVU3579
	.loc 1 459 6 view .LVU3580
	.loc 1 459 4 view .LVU3581
.LBB4713:
	.loc 1 459 9 view .LVU3582
	.loc 1 459 3 view .LVU3583
.LBE4713:
.LBE4712:
.LBE4711:
.LBE4710:
	.loc 1 459 4 view .LVU3584
	.loc 1 459 13 view .LVU3585
	.loc 1 459 108 view .LVU3586
	.loc 1 459 4 view .LVU3587
.LBB4823:
.LBB4727:
.LBB4725:
.LBB4722:
	.loc 1 459 13 view .LVU3588
	.loc 1 459 103 view .LVU3589
	.loc 1 459 105 view .LVU3590
.LBB4714:
	.loc 1 459 108 is_stmt 0 view .LVU3591
	mov	r4, sp
	.loc 1 459 110 is_stmt 1 view .LVU3592
	.loc 1 459 121 view .LVU3593
.LVL357:
	.loc 1 459 210 view .LVU3594
	.loc 1 459 27 view .LVU3595
.LBE4714:
.LBE4722:
.LBE4725:
.LBE4727:
.LBE4823:
	.loc 1 459 4 view .LVU3596
	.loc 1 459 369 view .LVU3597
	.loc 1 459 76 view .LVU3598
	.loc 1 459 3 view .LVU3599
	.loc 1 459 3 view .LVU3600
	.loc 1 459 3 view .LVU3601
	.loc 1 459 39 view .LVU3602
	.loc 1 459 5 view .LVU3603
	.loc 1 459 31 view .LVU3604
	.loc 1 459 57 view .LVU3605
	.loc 1 459 524 view .LVU3606
	.loc 1 459 586 view .LVU3607
	.loc 1 459 1107 view .LVU3608
	.loc 1 459 1172 view .LVU3609
	.loc 1 459 1197 view .LVU3610
	.loc 1 459 1198 view .LVU3611
	.loc 1 459 1200 view .LVU3612
	.loc 1 459 1230 view .LVU3613
	.loc 1 459 1260 view .LVU3614
	.loc 1 459 1292 view .LVU3615
	.loc 1 459 1324 view .LVU3616
	.loc 1 459 1356 view .LVU3617
	.loc 1 459 1553 view .LVU3618
	.loc 1 459 1577 view .LVU3619
	.loc 1 459 1578 view .LVU3620
	.loc 1 459 1580 view .LVU3621
	.loc 1 459 1609 view .LVU3622
	.loc 1 459 1638 view .LVU3623
	.loc 1 459 1669 view .LVU3624
	.loc 1 459 1700 view .LVU3625
	.loc 1 459 1731 view .LVU3626
	.loc 1 459 1938 view .LVU3627
	.loc 1 459 5 view .LVU3628
	.loc 1 459 23 view .LVU3629
	.loc 1 459 43 view .LVU3630
	.loc 1 459 5 view .LVU3631
	.loc 1 459 43 view .LVU3632
	.loc 1 459 14 view .LVU3633
	.loc 1 459 14 view .LVU3634
	.loc 1 459 62 view .LVU3635
	.loc 1 459 93 view .LVU3636
	.loc 1 459 127 view .LVU3637
	.loc 1 459 132 view .LVU3638
	.loc 1 459 383 view .LVU3639
	.loc 1 459 1440 view .LVU3640
	.loc 1 459 1505 view .LVU3641
	.loc 1 459 1529 view .LVU3642
	.loc 1 459 1584 view .LVU3643
	.loc 1 459 1595 view .LVU3644
	.loc 1 459 1708 view .LVU3645
	.loc 1 459 1724 view .LVU3646
	.loc 1 459 1764 view .LVU3647
	.loc 1 459 1789 view .LVU3648
	.loc 1 459 3080 view .LVU3649
	.loc 1 459 3121 view .LVU3650
	.loc 1 459 8 view .LVU3651
	.loc 1 459 31 view .LVU3652
	.loc 1 459 130 view .LVU3653
	.loc 1 459 7 view .LVU3654
	.loc 1 459 12 view .LVU3655
	.loc 1 459 237 view .LVU3656
	.loc 1 459 1190 view .LVU3657
	.loc 1 459 1255 view .LVU3658
	.loc 1 459 1279 view .LVU3659
	.loc 1 459 1308 view .LVU3660
	.loc 1 459 1319 view .LVU3661
	.loc 1 459 1406 view .LVU3662
	.loc 1 459 1422 view .LVU3663
	.loc 1 459 1462 view .LVU3664
	.loc 1 459 2726 view .LVU3665
	.loc 1 459 2767 view .LVU3666
	.loc 1 459 8 view .LVU3667
	.loc 1 459 31 view .LVU3668
	.loc 1 459 10 view .LVU3669
	.loc 1 459 6 view .LVU3670
	.loc 1 459 29 view .LVU3671
	.loc 1 459 53 view .LVU3672
	.loc 1 459 81 view .LVU3673
	.loc 1 459 257 view .LVU3674
	.loc 1 459 17 view .LVU3675
.LBB4824:
.LBB4728:
.LBB4726:
.LBB4723:
.LBB4720:
	.loc 1 459 30 view .LVU3676
	.loc 1 459 4 view .LVU3677
	.loc 1 459 4 view .LVU3678
	.loc 1 459 71 view .LVU3679
	.loc 1 459 83 is_stmt 0 view .LVU3680
	sub	sp, sp, #32
	mov	r2, sp
.LVL358:
	.loc 1 459 75 is_stmt 1 view .LVU3681
	.loc 1 459 485 view .LVU3682
	.loc 1 459 6 view .LVU3683
	.loc 1 459 8 view .LVU3684
	.loc 1 459 13 view .LVU3685
	.loc 1 459 11 view .LVU3686
	.loc 1 459 6 view .LVU3687
	.loc 1 459 24 view .LVU3688
.LBB4715:
	.loc 1 459 4 view .LVU3689
	.loc 1 459 369 view .LVU3690
	.loc 1 459 76 view .LVU3691
.LVL359:
	.loc 1 459 3 view .LVU3692
	.loc 1 459 3 view .LVU3693
	.loc 1 459 3 view .LVU3694
	.loc 1 459 39 view .LVU3695
	.loc 1 459 68 view .LVU3696
	.loc 1 459 94 view .LVU3697
	.loc 1 459 120 view .LVU3698
	.loc 1 459 587 view .LVU3699
	.loc 1 459 649 view .LVU3700
	.loc 1 459 1170 view .LVU3701
	.loc 1 459 1235 view .LVU3702
	.loc 1 459 1260 view .LVU3703
	.loc 1 459 1261 view .LVU3704
	.loc 1 459 1263 view .LVU3705
	.loc 1 459 1293 view .LVU3706
	.loc 1 459 1323 view .LVU3707
	.loc 1 459 1355 view .LVU3708
	.loc 1 459 1387 view .LVU3709
	.loc 1 459 1419 view .LVU3710
	.loc 1 459 1616 view .LVU3711
	.loc 1 459 1640 view .LVU3712
	.loc 1 459 1641 view .LVU3713
	.loc 1 459 1643 view .LVU3714
	.loc 1 459 1672 view .LVU3715
	.loc 1 459 1701 view .LVU3716
	.loc 1 459 1732 view .LVU3717
	.loc 1 459 1763 view .LVU3718
	.loc 1 459 1794 view .LVU3719
	.loc 1 459 2001 view .LVU3720
.LBB4716:
	.loc 1 459 3118 view .LVU3721
	.loc 1 459 3123 view .LVU3722
	.loc 1 459 3723 view .LVU3723
	.loc 1 459 0 is_stmt 0 view .LVU3724
	ldr	r3, .L189+8
.LBE4716:
.LBE4715:
	.loc 1 459 150 view .LVU3725
	ldr	r0, .L189+4
.LVL360:
	.loc 1 459 150 view .LVU3726
.LBE4720:
.LBE4723:
	.loc 1 459 18 view .LVU3727
	strd	r3, fp, [r2, #20]
.LBB4724:
.LBB4721:
.LBB4719:
.LBB4717:
	.loc 1 459 2767 is_stmt 1 view .LVU3728
	.loc 1 459 8 view .LVU3729
.LVL361:
	.loc 1 459 31 view .LVU3730
	.loc 1 459 31 is_stmt 0 view .LVU3731
.LBE4717:
	.loc 1 459 10 is_stmt 1 view .LVU3732
	.loc 1 459 6 view .LVU3733
	.loc 1 459 29 view .LVU3734
	.loc 1 459 53 view .LVU3735
	.loc 1 459 81 view .LVU3736
	.loc 1 459 257 view .LVU3737
	.loc 1 459 17 view .LVU3738
.LBB4718:
	.loc 1 459 7 view .LVU3739
	.loc 1 459 165 view .LVU3740
	.loc 1 459 167 view .LVU3741
	.loc 1 459 177 is_stmt 0 view .LVU3742
	movs	r3, #3
	str	r3, [r2, #16]!
.LVL362:
	.loc 1 459 177 view .LVU3743
.LBE4718:
.LBE4719:
	.loc 1 459 27 is_stmt 1 view .LVU3744
	.loc 1 459 8 view .LVU3745
	.loc 1 459 148 view .LVU3746
	.loc 1 459 150 view .LVU3747
	mov	r1, #6208
	bl	z_log_msg_static_create.constprop.0
.LVL363:
	.loc 1 459 150 is_stmt 0 view .LVU3748
	mov	sp, r4
.LVL364:
	.loc 1 459 150 view .LVU3749
.LBE4721:
	.loc 1 459 108 is_stmt 1 view .LVU3750
	.loc 1 459 6 view .LVU3751
	.loc 1 459 43 view .LVU3752
.LBE4724:
	.loc 1 459 7 view .LVU3753
.LBE4726:
	.loc 1 459 279 view .LVU3754
	.loc 1 459 6 view .LVU3755
	.loc 1 459 19 view .LVU3756
.LBE4728:
	.loc 1 459 7 view .LVU3757
	.loc 1 460 4 view .LVU3758
.L173:
	.loc 1 460 4 is_stmt 0 view .LVU3759
.LBE4824:
	.loc 1 448 37 is_stmt 1 discriminator 2 view .LVU3760
	adds	r5, r5, #1
.LVL365:
.L170:
	.loc 1 448 16 discriminator 1 view .LVU3761
	.loc 1 448 21 is_stmt 0 discriminator 1 view .LVU3762
	ldrb	r3, [r8]	@ zero_extendqisi2
	.loc 1 448 16 discriminator 1 view .LVU3763
	cmp	r5, r3
	bge	.L169
.LBB4825:
	.loc 1 449 3 is_stmt 1 view .LVU3764
	.loc 1 450 3 view .LVU3765
	.loc 1 452 3 view .LVU3766
	add	r3, r8, r5, lsl #2
	.loc 1 457 10 is_stmt 0 view .LVU3767
	movs	r1, #15
	.loc 1 452 10 view .LVU3768
	ldrh	fp, [r3, #1]	@ unaligned
.LVL366:
	.loc 1 453 3 is_stmt 1 view .LVU3769
	.loc 1 453 9 is_stmt 0 view .LVU3770
	ldrh	r6, [r3, #3]	@ unaligned
.LVL367:
	.loc 1 455 3 is_stmt 1 view .LVU3771
.LBB4729:
	.loc 1 455 8 view .LVU3772
.LBE4729:
	.loc 1 455 6 view .LVU3773
	.loc 1 457 3 view .LVU3774
	.loc 1 457 10 is_stmt 0 view .LVU3775
	mov	r0, fp
	bl	bt_conn_lookup_handle
.LVL368:
	.loc 1 458 3 is_stmt 1 view .LVU3776
	.loc 1 458 6 is_stmt 0 view .LVU3777
	mov	r4, r0
	cmp	r0, #0
	beq	.L186
.LBB4730:
	.loc 1 493 4 view .LVU3778
	add	fp, r0, #40
.LVL369:
.L172:
	.loc 1 493 4 view .LVU3779
.LBE4730:
	.loc 1 463 10 is_stmt 1 view .LVU3780
	.loc 1 463 10 is_stmt 0 view .LVU3781
	cbz	r6, .L177
.LBB4816:
	.loc 1 464 4 is_stmt 1 view .LVU3782
	.loc 1 465 4 view .LVU3783
	.loc 1 466 4 view .LVU3784
	.loc 1 468 4 view .LVU3785
.LBB4731:
.LBI4731:
	.file 12 "/home/g/mise-work/zmk-firmware/zmk/zephyr/include/zephyr/arch/arm/asm_inline_gcc.h"
	.loc 12 42 59 view .LVU3786
.LBB4732:
	.loc 12 44 2 view .LVU3787
	.loc 12 57 2 view .LVU3788
	.loc 12 59 2 view .LVU3789
	.syntax unified
@ 59 "/home/g/mise-work/zmk-firmware/zmk/zephyr/include/zephyr/arch/arm/asm_inline_gcc.h" 1
	mov r3, #32;mrs r2, BASEPRI;msr BASEPRI_MAX, r3;isb;
@ 0 "" 2
.LVL370:
	.loc 12 88 2 view .LVU3790
	.loc 12 88 2 is_stmt 0 view .LVU3791
	.thumb
	.syntax unified
.LBE4732:
.LBE4731:
	.loc 1 470 4 is_stmt 1 view .LVU3792
	.loc 1 470 12 is_stmt 0 view .LVU3793
	ldr	r3, [r4, #28]
	.loc 1 470 7 view .LVU3794
	cbz	r3, .L174
	.loc 1 471 5 is_stmt 1 discriminator 1 view .LVU3795
	.loc 1 471 24 is_stmt 0 discriminator 1 view .LVU3796
	subs	r3, r3, #1
	str	r3, [r4, #28]
	.loc 1 472 5 is_stmt 1 discriminator 1 view .LVU3797
.LVL371:
.LBB4733:
.LBI4733:
	.loc 12 96 51 discriminator 1 view .LVU3798
.LBB4734:
	.loc 12 107 2 discriminator 1 view .LVU3799
	.syntax unified
@ 107 "/home/g/mise-work/zmk-firmware/zmk/zephyr/include/zephyr/arch/arm/asm_inline_gcc.h" 1
	msr BASEPRI, r2;isb;
@ 0 "" 2
.LVL372:
	.loc 12 107 2 is_stmt 0 discriminator 1 view .LVU3800
	.thumb
	.syntax unified
.LBE4734:
.LBE4733:
	.loc 1 473 5 is_stmt 1 discriminator 1 view .LVU3801
.L188:
	.loc 1 494 4 view .LVU3802
	mov	r0, r4
	bl	bt_conn_get_pkts
.LVL373:
.LBB4735:
.LBI4735:
	.loc 11 1110 20 view .LVU3803
.LBB4736:
	.loc 11 1119 2 view .LVU3804
	.loc 11 1119 7 view .LVU3805
	.loc 11 1119 5 view .LVU3806
	.loc 11 1120 2 view .LVU3807
	subs	r6, r6, #1
.LVL374:
	.loc 11 1120 2 is_stmt 0 view .LVU3808
	bl	z_impl_k_sem_give
.LVL375:
	.loc 11 1120 2 view .LVU3809
	uxth	r6, r6
	b	.L172
.LVL376:
.L174:
	.loc 11 1120 2 view .LVU3810
.LBE4736:
.LBE4735:
	.loc 1 477 4 is_stmt 1 view .LVU3811
.LBB4737:
.LBI4737:
	.loc 4 392 29 view .LVU3812
.LBB4738:
	.loc 4 392 64 view .LVU3813
.LBB4739:
.LBI4739:
	.loc 4 268 1 view .LVU3814
	.loc 4 268 41 view .LVU3815
.LBB4740:
.LBI4740:
	.loc 4 238 28 view .LVU3816
.LBB4741:
	.loc 4 240 2 view .LVU3817
	.loc 4 240 13 is_stmt 0 view .LVU3818
	ldr	r3, [r4, #20]
.LVL377:
	.loc 4 240 13 view .LVU3819
.LBE4741:
.LBE4740:
.LBE4739:
	.loc 4 392 1 view .LVU3820
	cbnz	r3, .L176
.LVL378:
	.loc 4 392 1 view .LVU3821
.LBE4738:
.LBE4737:
	.loc 1 478 4 is_stmt 1 view .LVU3822
.LBB4758:
.LBI4758:
	.loc 12 96 51 view .LVU3823
.LBB4759:
	.loc 12 107 2 view .LVU3824
	.syntax unified
@ 107 "/home/g/mise-work/zmk-firmware/zmk/zephyr/include/zephyr/arch/arm/asm_inline_gcc.h" 1
	msr BASEPRI, r2;isb;
@ 0 "" 2
.LVL379:
	.loc 12 107 2 is_stmt 0 view .LVU3825
	.thumb
	.syntax unified
.LBE4759:
.LBE4758:
	.loc 1 480 4 is_stmt 1 view .LVU3826
	.loc 1 481 5 view .LVU3827
.LBB4762:
	.loc 1 481 10 view .LVU3828
	.loc 1 481 59 view .LVU3829
	.loc 1 481 16 view .LVU3830
	.loc 1 481 4 view .LVU3831
	.loc 1 481 43 view .LVU3832
	.loc 1 481 178 view .LVU3833
	.loc 1 481 189 view .LVU3834
	.loc 1 481 277 view .LVU3835
	.loc 1 481 5 view .LVU3836
	.loc 1 481 5 view .LVU3837
.LBB4763:
	.loc 1 481 10 view .LVU3838
	.loc 1 481 4 view .LVU3839
.LBE4763:
.LBE4762:
.LBE4816:
.LBE4825:
	.loc 1 481 5 view .LVU3840
	.loc 1 481 14 view .LVU3841
	.loc 1 481 109 view .LVU3842
	.loc 1 481 5 view .LVU3843
.LBB4826:
.LBB4817:
.LBB4787:
.LBB4782:
	.loc 1 481 14 view .LVU3844
	.loc 1 481 104 view .LVU3845
	.loc 1 481 106 view .LVU3846
.LBB4764:
	.loc 1 481 111 view .LVU3847
	.loc 1 481 122 view .LVU3848
	.loc 1 481 211 view .LVU3849
	.loc 1 481 28 view .LVU3850
.LBE4764:
.LBE4782:
.LBE4787:
.LBE4817:
.LBE4826:
	.loc 1 481 5 view .LVU3851
	.loc 1 481 370 view .LVU3852
	.loc 1 481 77 view .LVU3853
	.loc 1 481 4 view .LVU3854
	.loc 1 481 4 view .LVU3855
	.loc 1 481 4 view .LVU3856
	.loc 1 481 40 view .LVU3857
	.loc 1 481 6 view .LVU3858
	.loc 1 481 32 view .LVU3859
	.loc 1 481 58 view .LVU3860
	.loc 1 481 81 view .LVU3861
	.loc 1 481 143 view .LVU3862
	.loc 1 481 200 view .LVU3863
	.loc 1 481 265 view .LVU3864
	.loc 1 481 290 view .LVU3865
	.loc 1 481 291 view .LVU3866
	.loc 1 481 293 view .LVU3867
	.loc 1 481 323 view .LVU3868
	.loc 1 481 353 view .LVU3869
	.loc 1 481 385 view .LVU3870
	.loc 1 481 417 view .LVU3871
	.loc 1 481 449 view .LVU3872
	.loc 1 481 646 view .LVU3873
	.loc 1 481 670 view .LVU3874
	.loc 1 481 671 view .LVU3875
	.loc 1 481 673 view .LVU3876
	.loc 1 481 702 view .LVU3877
	.loc 1 481 731 view .LVU3878
	.loc 1 481 762 view .LVU3879
	.loc 1 481 793 view .LVU3880
	.loc 1 481 824 view .LVU3881
	.loc 1 481 1031 view .LVU3882
	.loc 1 481 6 view .LVU3883
	.loc 1 481 24 view .LVU3884
	.loc 1 481 44 view .LVU3885
	.loc 1 481 6 view .LVU3886
	.loc 1 481 44 view .LVU3887
	.loc 1 481 15 view .LVU3888
	.loc 1 481 15 view .LVU3889
	.loc 1 481 63 view .LVU3890
	.loc 1 481 94 view .LVU3891
	.loc 1 481 128 view .LVU3892
	.loc 1 481 133 view .LVU3893
	.loc 1 481 379 view .LVU3894
	.loc 1 481 1416 view .LVU3895
	.loc 1 481 1481 view .LVU3896
	.loc 1 481 1505 view .LVU3897
	.loc 1 481 1555 view .LVU3898
	.loc 1 481 1566 view .LVU3899
	.loc 1 481 1674 view .LVU3900
	.loc 1 481 1690 view .LVU3901
	.loc 1 481 1730 view .LVU3902
	.loc 1 481 1755 view .LVU3903
	.loc 1 481 3036 view .LVU3904
	.loc 1 481 3077 view .LVU3905
	.loc 1 481 9 view .LVU3906
	.loc 1 481 32 view .LVU3907
	.loc 1 481 131 view .LVU3908
	.loc 1 481 7 view .LVU3909
	.loc 1 481 30 view .LVU3910
	.loc 1 481 54 view .LVU3911
	.loc 1 481 82 view .LVU3912
	.loc 1 481 258 view .LVU3913
	.loc 1 481 18 view .LVU3914
.LBB4827:
.LBB4818:
.LBB4788:
.LBB4783:
.LBB4778:
	.loc 1 481 31 view .LVU3915
	.loc 1 481 5 view .LVU3916
	.loc 1 481 5 view .LVU3917
	.loc 1 481 72 view .LVU3918
	.loc 1 481 76 view .LVU3919
	.loc 1 481 486 view .LVU3920
	.loc 1 481 7 view .LVU3921
	.loc 1 481 9 view .LVU3922
	.loc 1 481 14 view .LVU3923
	.loc 1 481 12 view .LVU3924
	.loc 1 481 7 view .LVU3925
	.loc 1 481 25 view .LVU3926
.LBB4765:
	.loc 1 481 5 view .LVU3927
	.loc 1 481 370 view .LVU3928
	.loc 1 481 77 view .LVU3929
.LVL380:
	.loc 1 481 4 view .LVU3930
	.loc 1 481 4 view .LVU3931
	.loc 1 481 4 view .LVU3932
	.loc 1 481 40 view .LVU3933
	.loc 1 481 69 view .LVU3934
	.loc 1 481 95 view .LVU3935
	.loc 1 481 121 view .LVU3936
	.loc 1 481 144 view .LVU3937
	.loc 1 481 206 view .LVU3938
	.loc 1 481 263 view .LVU3939
	.loc 1 481 328 view .LVU3940
	.loc 1 481 353 view .LVU3941
	.loc 1 481 354 view .LVU3942
	.loc 1 481 356 view .LVU3943
	.loc 1 481 386 view .LVU3944
	.loc 1 481 416 view .LVU3945
	.loc 1 481 448 view .LVU3946
	.loc 1 481 480 view .LVU3947
	.loc 1 481 512 view .LVU3948
	.loc 1 481 709 view .LVU3949
	.loc 1 481 733 view .LVU3950
	.loc 1 481 734 view .LVU3951
	.loc 1 481 736 view .LVU3952
	.loc 1 481 765 view .LVU3953
	.loc 1 481 794 view .LVU3954
	.loc 1 481 825 view .LVU3955
	.loc 1 481 856 view .LVU3956
	.loc 1 481 887 view .LVU3957
	.loc 1 481 1094 view .LVU3958
	.loc 1 481 6 view .LVU3959
	.loc 1 481 24 view .LVU3960
	.loc 1 481 44 view .LVU3961
	.loc 1 481 6 view .LVU3962
	.loc 1 481 44 view .LVU3963
	.loc 1 481 15 view .LVU3964
	.loc 1 481 15 view .LVU3965
	.loc 1 481 63 view .LVU3966
	.loc 1 481 94 view .LVU3967
	.loc 1 481 128 view .LVU3968
.LBB4766:
	.loc 1 481 133 view .LVU3969
	.loc 1 481 379 view .LVU3970
	.loc 1 481 1416 view .LVU3971
	.loc 1 481 1481 view .LVU3972
.LBE4766:
.LBE4765:
.LBE4778:
.LBE4783:
.LBE4788:
.LBE4818:
.LBE4827:
	.loc 1 481 1505 view .LVU3973
	.loc 1 481 1555 view .LVU3974
	.loc 1 481 1566 view .LVU3975
	.loc 1 481 1674 view .LVU3976
.LBB4828:
.LBB4819:
.LBB4789:
.LBB4784:
.LBB4779:
.LBB4773:
.LBB4767:
	.loc 1 481 1690 view .LVU3977
	.loc 1 481 1730 view .LVU3978
	.loc 1 481 1755 view .LVU3979
	.loc 1 481 3036 view .LVU3980
	.loc 1 481 3074 view .LVU3981
	.loc 1 481 3079 view .LVU3982
	.loc 1 481 3649 view .LVU3983
.LBE4767:
.LBB4768:
	.loc 1 481 178 is_stmt 0 view .LVU3984
	movs	r3, #2
.LBE4768:
.LBE4773:
	.loc 1 481 151 view .LVU3985
	ldr	r0, .L189+4
.LBB4774:
.LBB4769:
	.loc 1 481 0 view .LVU3986
	str	r10, [r7, #20]
	.loc 1 481 3077 is_stmt 1 view .LVU3987
	.loc 1 481 9 view .LVU3988
.LVL381:
	.loc 1 481 32 view .LVU3989
	.loc 1 481 32 is_stmt 0 view .LVU3990
.LBE4769:
	.loc 1 481 131 is_stmt 1 view .LVU3991
	.loc 1 481 7 view .LVU3992
	.loc 1 481 30 view .LVU3993
	.loc 1 481 54 view .LVU3994
	.loc 1 481 82 view .LVU3995
.LBE4774:
.LBE4779:
.LBE4784:
.LBE4789:
.LBE4819:
.LBE4828:
	.loc 1 481 8 view .LVU3996
	.loc 1 481 47 view .LVU3997
	.loc 1 481 52 view .LVU3998
	.loc 1 481 82 view .LVU3999
	.loc 1 481 149 view .LVU4000
	.loc 1 481 154 view .LVU4001
	.loc 1 481 184 view .LVU4002
.LBB4829:
.LBB4820:
.LBB4790:
.LBB4785:
.LBB4780:
.LBB4775:
	.loc 1 481 258 view .LVU4003
	.loc 1 481 18 view .LVU4004
.LBB4770:
	.loc 1 481 8 view .LVU4005
	.loc 1 481 166 view .LVU4006
	.loc 1 481 168 view .LVU4007
.LBE4770:
.LBE4775:
	.loc 1 481 151 is_stmt 0 view .LVU4008
	add	r2, r7, #16
.LVL382:
	.loc 1 481 151 view .LVU4009
	mov	r1, #4160
.LBB4776:
.LBB4771:
	.loc 1 481 178 view .LVU4010
	str	r3, [r7, #16]
.LVL383:
	.loc 1 481 178 view .LVU4011
.LBE4771:
.LBE4776:
	.loc 1 481 28 is_stmt 1 view .LVU4012
	.loc 1 481 9 view .LVU4013
	.loc 1 481 149 view .LVU4014
	.loc 1 481 151 view .LVU4015
	bl	z_log_msg_static_create.constprop.0
.LVL384:
	.loc 1 481 151 is_stmt 0 view .LVU4016
.LBE4780:
	.loc 1 481 109 is_stmt 1 view .LVU4017
	.loc 1 481 7 view .LVU4018
.LVL385:
	.loc 1 481 44 view .LVU4019
.LBE4785:
	.loc 1 481 8 view .LVU4020
	.loc 1 481 280 view .LVU4021
	.loc 1 481 7 view .LVU4022
	.loc 1 481 20 view .LVU4023
.L177:
	.loc 1 481 20 is_stmt 0 view .LVU4024
.LBE4790:
.LBE4820:
	.loc 1 497 3 is_stmt 1 view .LVU4025
	mov	r0, r4
	bl	bt_conn_unref
.LVL386:
	b	.L173
.LVL387:
.L176:
.LBB4821:
.LBB4791:
.LBB4756:
.LBB4742:
.LBI4742:
	.loc 4 379 29 view .LVU4026
.LBB4743:
	.loc 4 379 74 view .LVU4027
	.loc 4 379 121 view .LVU4028
.LBB4744:
.LBI4744:
	.loc 4 211 28 view .LVU4029
.LBB4745:
	.loc 4 213 2 view .LVU4030
.LBE4745:
.LBE4744:
	.loc 4 379 173 is_stmt 0 view .LVU4031
	ldr	r1, [r4, #24]
.LBB4747:
.LBB4746:
	.loc 4 213 13 view .LVU4032
	ldr	r0, [r3]
.LVL388:
	.loc 4 213 13 view .LVU4033
.LBE4746:
.LBE4747:
.LBB4748:
.LBI4748:
	.loc 4 221 20 is_stmt 1 view .LVU4034
.LBB4749:
	.loc 4 223 2 view .LVU4035
	.loc 4 223 13 is_stmt 0 view .LVU4036
	str	r0, [r4, #20]
.LVL389:
	.loc 4 223 13 view .LVU4037
.LBE4749:
.LBE4748:
	.loc 4 379 170 is_stmt 1 view .LVU4038
.LBB4750:
.LBI4750:
	.loc 4 250 28 view .LVU4039
.LBB4751:
	.loc 4 252 2 view .LVU4040
	.loc 4 252 2 is_stmt 0 view .LVU4041
.LBE4751:
.LBE4750:
	.loc 4 379 173 view .LVU4042
	cmp	r3, r1
.LVL390:
	.loc 4 379 173 view .LVU4043
.LBE4743:
.LBE4742:
.LBE4756:
.LBE4791:
	.loc 1 478 4 is_stmt 1 view .LVU4044
.LBB4792:
	.loc 12 96 51 view .LVU4045
.LBB4760:
	.loc 12 107 2 view .LVU4046
.LBE4760:
.LBE4792:
.LBB4793:
.LBB4757:
.LBB4755:
.LBB4754:
	.loc 4 379 211 view .LVU4047
.LBB4752:
.LBI4752:
	.loc 4 226 20 view .LVU4048
.LBB4753:
	.loc 4 228 2 view .LVU4049
	.loc 4 228 13 is_stmt 0 view .LVU4050
	it	eq
	streq	r0, [r4, #24]
.LVL391:
	.loc 4 228 13 view .LVU4051
.LBE4753:
.LBE4752:
.LBE4754:
.LBE4755:
.LBE4757:
.LBE4793:
	.loc 1 478 4 is_stmt 1 view .LVU4052
.LBB4794:
	.loc 12 96 51 view .LVU4053
.LBB4761:
	.loc 12 107 2 view .LVU4054
	.syntax unified
@ 107 "/home/g/mise-work/zmk-firmware/zmk/zephyr/include/zephyr/arch/arm/asm_inline_gcc.h" 1
	msr BASEPRI, r2;isb;
@ 0 "" 2
.LVL392:
	.loc 12 107 2 is_stmt 0 view .LVU4055
	.thumb
	.syntax unified
.LBE4761:
.LBE4794:
	.loc 1 480 4 is_stmt 1 view .LVU4056
	.loc 1 485 4 view .LVU4057
	.loc 1 487 4 view .LVU4058
.LBB4795:
.LBI4795:
	.loc 12 42 59 view .LVU4059
.LBB4796:
	.loc 12 44 2 view .LVU4060
	.loc 12 57 2 view .LVU4061
	.loc 12 59 2 view .LVU4062
	.syntax unified
@ 59 "/home/g/mise-work/zmk-firmware/zmk/zephyr/include/zephyr/arch/arm/asm_inline_gcc.h" 1
	mov r2, #32;mrs r1, BASEPRI;msr BASEPRI_MAX, r2;isb;
@ 0 "" 2
.LVL393:
	.loc 12 88 2 view .LVU4063
	.loc 12 88 2 is_stmt 0 view .LVU4064
	.thumb
	.syntax unified
.LBE4796:
.LBE4795:
	.loc 1 488 4 is_stmt 1 view .LVU4065
	.loc 1 488 28 is_stmt 0 view .LVU4066
	ldr	r2, [r3, #12]
	.loc 1 488 24 view .LVU4067
	str	r2, [r4, #28]
	.loc 1 489 4 is_stmt 1 view .LVU4068
	.loc 1 489 22 is_stmt 0 view .LVU4069
	str	r9, [r3, #12]
	.loc 1 490 4 is_stmt 1 view .LVU4070
.LVL394:
.LBB4797:
.LBI4797:
	.loc 4 318 20 view .LVU4071
.LBB4798:
	.loc 4 318 77 view .LVU4072
.LBB4799:
.LBI4799:
	.loc 4 216 20 view .LVU4073
.LBB4800:
	.loc 4 218 2 view .LVU4074
	.loc 4 218 15 is_stmt 0 view .LVU4075
	str	r9, [r3]
.LVL395:
	.loc 4 218 15 view .LVU4076
.LBE4800:
.LBE4799:
	.loc 4 318 4 is_stmt 1 view .LVU4077
.LBB4801:
.LBI4801:
	.loc 4 250 28 view .LVU4078
.LBB4802:
	.loc 4 252 2 view .LVU4079
	.loc 4 252 13 is_stmt 0 view .LVU4080
	ldr	r2, [r4, #36]
.LVL396:
	.loc 4 252 13 view .LVU4081
.LBE4802:
.LBE4801:
	.loc 4 318 7 view .LVU4082
	cbnz	r2, .L180
	.loc 4 318 5 is_stmt 1 view .LVU4083
.LVL397:
.LBB4803:
.LBI4803:
	.loc 4 226 20 view .LVU4084
.LBB4804:
	.loc 4 228 2 view .LVU4085
.LBE4804:
.LBE4803:
.LBB4805:
.LBB4806:
	.loc 4 223 13 is_stmt 0 view .LVU4086
	strd	r3, r3, [r4, #32]
.LVL398:
.L181:
	.loc 4 223 13 view .LVU4087
.LBE4806:
.LBE4805:
.LBE4798:
.LBE4797:
	.loc 1 491 4 is_stmt 1 view .LVU4088
.LBB4812:
.LBI4812:
	.loc 12 96 51 view .LVU4089
.LBB4813:
	.loc 12 107 2 view .LVU4090
	.syntax unified
@ 107 "/home/g/mise-work/zmk-firmware/zmk/zephyr/include/zephyr/arch/arm/asm_inline_gcc.h" 1
	msr BASEPRI, r1;isb;
@ 0 "" 2
.LVL399:
	.loc 12 107 2 is_stmt 0 view .LVU4091
	.thumb
	.syntax unified
.LBE4813:
.LBE4812:
	.loc 1 493 4 is_stmt 1 view .LVU4092
	mov	r0, fp
	bl	k_work_submit
.LVL400:
	.loc 1 493 4 is_stmt 0 view .LVU4093
	b	.L188
.LVL401:
.L180:
.LBB4814:
.LBB4811:
	.loc 4 318 74 is_stmt 1 view .LVU4094
.LBB4807:
.LBI4807:
	.loc 4 216 20 view .LVU4095
.LBB4808:
	.loc 4 218 2 view .LVU4096
	.loc 4 218 15 is_stmt 0 view .LVU4097
	str	r3, [r2]
.LVL402:
	.loc 4 218 15 view .LVU4098
.LBE4808:
.LBE4807:
	.loc 4 318 126 is_stmt 1 view .LVU4099
.LBB4809:
.LBI4809:
	.loc 4 226 20 view .LVU4100
.LBB4810:
	.loc 4 228 2 view .LVU4101
	.loc 4 228 13 is_stmt 0 view .LVU4102
	str	r3, [r4, #36]
	.loc 4 229 1 view .LVU4103
	b	.L181
.LVL403:
.L184:
	.loc 4 229 1 view .LVU4104
.LBE4810:
.LBE4809:
.LBE4811:
.LBE4814:
.LBE4821:
.LBE4829:
	.loc 1 448 9 view .LVU4105
	movs	r5, #0
.LBB4830:
.LBB4822:
.LBB4815:
.LBB4786:
.LBB4781:
.LBB4777:
.LBB4772:
	.loc 1 481 0 view .LVU4106
	ldr	r10, .L189+12
.LBE4772:
.LBE4777:
.LBE4781:
.LBE4786:
.LBE4815:
	.loc 1 489 22 view .LVU4107
	mov	r9, r5
	b	.L170
.L190:
	.align	2
.L189:
	.word	.LC33
	.word	log_const_bt_hci_core
	.word	.LC34
	.word	.LC35
.LBE4822:
.LBE4830:
	.cfi_endproc
.LFE603:
	.size	hci_num_completed_packets, .-hci_num_completed_packets
	.section	.text.le_conn_update_complete,"ax",%progbits
	.align	1
	.syntax unified
	.thumb
	.thumb_func
	.type	le_conn_update_complete, %function
le_conn_update_complete:
.LVL404:
.LFB634:
	.loc 1 1809 1 is_stmt 1 view -0
	.cfi_startproc
	@ args = 0, pretend = 0, frame = 8
	@ frame_needed = 1, uses_anonymous_args = 0
	.loc 1 1810 2 view .LVU4109
	.loc 1 1809 1 is_stmt 0 view .LVU4110
	push	{r4, r5, r6, r7, lr}
	.cfi_def_cfa_offset 20
	.cfi_offset 4, -20
	.cfi_offset 5, -16
	.cfi_offset 6, -12
	.cfi_offset 7, -8
	.cfi_offset 14, -4
	sub	sp, sp, #12
	.cfi_def_cfa_offset 32
	.loc 1 1810 45 view .LVU4111
	ldr	r5, [r0, #12]
.LVL405:
	.loc 1 1811 2 is_stmt 1 view .LVU4112
	.loc 1 1812 2 view .LVU4113
	.loc 1 1814 2 view .LVU4114
	.loc 1 1814 9 is_stmt 0 view .LVU4115
	ldrh	r6, [r5, #1]	@ unaligned
.LVL406:
	.loc 1 1816 2 is_stmt 1 view .LVU4116
.LBB4855:
	.loc 1 1816 7 view .LVU4117
.LBE4855:
	.loc 1 1816 5 view .LVU4118
	.loc 1 1818 2 view .LVU4119
	.loc 1 1809 1 is_stmt 0 view .LVU4120
	add	r7, sp, #0
	.cfi_def_cfa_register 7
	.loc 1 1818 9 view .LVU4121
	movs	r1, #1
	mov	r0, r6
.LVL407:
	.loc 1 1818 9 view .LVU4122
	bl	bt_conn_lookup_handle
.LVL408:
	.loc 1 1819 2 is_stmt 1 view .LVU4123
	.loc 1 1819 5 is_stmt 0 view .LVU4124
	mov	r4, r0
	cbnz	r0, .L192
	.loc 1 1820 3 is_stmt 1 view .LVU4125
.LBB4856:
	.loc 1 1820 8 view .LVU4126
	.loc 1 1820 57 view .LVU4127
	.loc 1 1820 14 view .LVU4128
	.loc 1 1820 2 view .LVU4129
.LVL409:
	.loc 1 1820 41 view .LVU4130
	.loc 1 1820 176 view .LVU4131
	.loc 1 1820 187 view .LVU4132
	.loc 1 1820 275 view .LVU4133
.LBB4857:
	.loc 1 1820 3 view .LVU4134
	.loc 1 1820 5 view .LVU4135
	.loc 1 1820 3 view .LVU4136
.LBB4858:
	.loc 1 1820 8 view .LVU4137
	.loc 1 1820 2 view .LVU4138
.LBE4858:
.LBE4857:
.LBE4856:
	.loc 1 1820 3 view .LVU4139
	.loc 1 1820 12 view .LVU4140
	.loc 1 1820 107 view .LVU4141
	.loc 1 1820 3 view .LVU4142
.LBB4876:
.LBB4873:
.LBB4869:
	.loc 1 1820 12 view .LVU4143
	.loc 1 1820 102 view .LVU4144
	.loc 1 1820 104 view .LVU4145
.LBB4859:
	.loc 1 1820 107 is_stmt 0 view .LVU4146
	mov	r4, sp
	.loc 1 1820 109 is_stmt 1 view .LVU4147
	.loc 1 1820 120 view .LVU4148
.LVL410:
	.loc 1 1820 209 view .LVU4149
	.loc 1 1820 26 view .LVU4150
.LBE4859:
.LBE4869:
.LBE4873:
.LBE4876:
	.loc 1 1820 3 view .LVU4151
	.loc 1 1820 368 view .LVU4152
	.loc 1 1820 75 view .LVU4153
	.loc 1 1820 2 view .LVU4154
	.loc 1 1820 2 view .LVU4155
	.loc 1 1820 2 view .LVU4156
	.loc 1 1820 38 view .LVU4157
	.loc 1 1820 4 view .LVU4158
	.loc 1 1820 30 view .LVU4159
	.loc 1 1820 56 view .LVU4160
	.loc 1 1820 523 view .LVU4161
	.loc 1 1820 585 view .LVU4162
	.loc 1 1820 1106 view .LVU4163
	.loc 1 1820 1171 view .LVU4164
	.loc 1 1820 1196 view .LVU4165
	.loc 1 1820 1197 view .LVU4166
	.loc 1 1820 1199 view .LVU4167
	.loc 1 1820 1229 view .LVU4168
	.loc 1 1820 1259 view .LVU4169
	.loc 1 1820 1291 view .LVU4170
	.loc 1 1820 1323 view .LVU4171
	.loc 1 1820 1355 view .LVU4172
	.loc 1 1820 1552 view .LVU4173
	.loc 1 1820 1576 view .LVU4174
	.loc 1 1820 1577 view .LVU4175
	.loc 1 1820 1579 view .LVU4176
	.loc 1 1820 1608 view .LVU4177
	.loc 1 1820 1637 view .LVU4178
	.loc 1 1820 1668 view .LVU4179
	.loc 1 1820 1699 view .LVU4180
	.loc 1 1820 1730 view .LVU4181
	.loc 1 1820 1937 view .LVU4182
	.loc 1 1820 4 view .LVU4183
	.loc 1 1820 22 view .LVU4184
	.loc 1 1820 42 view .LVU4185
	.loc 1 1820 4 view .LVU4186
	.loc 1 1820 42 view .LVU4187
	.loc 1 1820 13 view .LVU4188
	.loc 1 1820 13 view .LVU4189
	.loc 1 1820 61 view .LVU4190
	.loc 1 1820 92 view .LVU4191
	.loc 1 1820 126 view .LVU4192
	.loc 1 1820 131 view .LVU4193
	.loc 1 1820 390 view .LVU4194
	.loc 1 1820 1479 view .LVU4195
	.loc 1 1820 1544 view .LVU4196
	.loc 1 1820 1568 view .LVU4197
	.loc 1 1820 1631 view .LVU4198
	.loc 1 1820 1642 view .LVU4199
	.loc 1 1820 1763 view .LVU4200
	.loc 1 1820 1779 view .LVU4201
	.loc 1 1820 1819 view .LVU4202
	.loc 1 1820 1844 view .LVU4203
	.loc 1 1820 3151 view .LVU4204
	.loc 1 1820 3192 view .LVU4205
	.loc 1 1820 7 view .LVU4206
	.loc 1 1820 30 view .LVU4207
	.loc 1 1820 129 view .LVU4208
	.loc 1 1820 6 view .LVU4209
	.loc 1 1820 11 view .LVU4210
	.loc 1 1820 236 view .LVU4211
	.loc 1 1820 1189 view .LVU4212
	.loc 1 1820 1254 view .LVU4213
	.loc 1 1820 1278 view .LVU4214
	.loc 1 1820 1307 view .LVU4215
	.loc 1 1820 1318 view .LVU4216
	.loc 1 1820 1405 view .LVU4217
	.loc 1 1820 1421 view .LVU4218
	.loc 1 1820 1461 view .LVU4219
	.loc 1 1820 2725 view .LVU4220
	.loc 1 1820 2766 view .LVU4221
	.loc 1 1820 7 view .LVU4222
	.loc 1 1820 30 view .LVU4223
	.loc 1 1820 9 view .LVU4224
	.loc 1 1820 5 view .LVU4225
	.loc 1 1820 28 view .LVU4226
	.loc 1 1820 52 view .LVU4227
	.loc 1 1820 80 view .LVU4228
	.loc 1 1820 256 view .LVU4229
	.loc 1 1820 16 view .LVU4230
.LBB4877:
.LBB4874:
.LBB4870:
.LBB4866:
	.loc 1 1820 29 view .LVU4231
	.loc 1 1820 3 view .LVU4232
	.loc 1 1820 3 view .LVU4233
	.loc 1 1820 70 view .LVU4234
	.loc 1 1820 82 is_stmt 0 view .LVU4235
	sub	sp, sp, #32
	mov	r2, sp
.LVL411:
	.loc 1 1820 74 is_stmt 1 view .LVU4236
	.loc 1 1820 484 view .LVU4237
	.loc 1 1820 5 view .LVU4238
	.loc 1 1820 7 view .LVU4239
	.loc 1 1820 12 view .LVU4240
	.loc 1 1820 10 view .LVU4241
	.loc 1 1820 5 view .LVU4242
	.loc 1 1820 23 view .LVU4243
.LBB4860:
	.loc 1 1820 3 view .LVU4244
	.loc 1 1820 368 view .LVU4245
	.loc 1 1820 75 view .LVU4246
.LVL412:
	.loc 1 1820 2 view .LVU4247
	.loc 1 1820 2 view .LVU4248
	.loc 1 1820 2 view .LVU4249
	.loc 1 1820 38 view .LVU4250
	.loc 1 1820 67 view .LVU4251
	.loc 1 1820 93 view .LVU4252
	.loc 1 1820 119 view .LVU4253
	.loc 1 1820 586 view .LVU4254
	.loc 1 1820 648 view .LVU4255
	.loc 1 1820 1169 view .LVU4256
	.loc 1 1820 1234 view .LVU4257
	.loc 1 1820 1259 view .LVU4258
	.loc 1 1820 1260 view .LVU4259
	.loc 1 1820 1262 view .LVU4260
	.loc 1 1820 1292 view .LVU4261
	.loc 1 1820 1322 view .LVU4262
	.loc 1 1820 1354 view .LVU4263
	.loc 1 1820 1386 view .LVU4264
	.loc 1 1820 1418 view .LVU4265
	.loc 1 1820 1615 view .LVU4266
	.loc 1 1820 1639 view .LVU4267
	.loc 1 1820 1640 view .LVU4268
	.loc 1 1820 1642 view .LVU4269
	.loc 1 1820 1671 view .LVU4270
	.loc 1 1820 1700 view .LVU4271
	.loc 1 1820 1731 view .LVU4272
	.loc 1 1820 1762 view .LVU4273
	.loc 1 1820 1793 view .LVU4274
	.loc 1 1820 2000 view .LVU4275
.LBB4861:
	.loc 1 1820 3189 view .LVU4276
	.loc 1 1820 3194 view .LVU4277
	.loc 1 1820 3842 view .LVU4278
	.loc 1 1820 0 is_stmt 0 view .LVU4279
	ldr	r3, .L205
.LBE4861:
.LBE4860:
	.loc 1 1820 149 view .LVU4280
	ldr	r0, .L205+4
.LVL413:
	.loc 1 1820 149 view .LVU4281
.LBE4866:
.LBE4870:
	.loc 1 1820 17 view .LVU4282
	strd	r3, r6, [r2, #20]
.LBB4871:
.LBB4867:
.LBB4864:
.LBB4862:
	.loc 1 1820 2766 is_stmt 1 view .LVU4283
	.loc 1 1820 7 view .LVU4284
.LVL414:
	.loc 1 1820 30 view .LVU4285
	.loc 1 1820 30 is_stmt 0 view .LVU4286
.LBE4862:
	.loc 1 1820 9 is_stmt 1 view .LVU4287
	.loc 1 1820 5 view .LVU4288
	.loc 1 1820 28 view .LVU4289
	.loc 1 1820 52 view .LVU4290
	.loc 1 1820 80 view .LVU4291
.LBE4864:
.LBE4867:
.LBE4871:
.LBE4874:
.LBE4877:
	.loc 1 1820 6 view .LVU4292
	.loc 1 1820 45 view .LVU4293
	.loc 1 1820 50 view .LVU4294
	.loc 1 1820 80 view .LVU4295
	.loc 1 1820 147 view .LVU4296
	.loc 1 1820 152 view .LVU4297
	.loc 1 1820 182 view .LVU4298
.LBB4878:
.LBB4875:
.LBB4872:
.LBB4868:
.LBB4865:
	.loc 1 1820 256 view .LVU4299
	.loc 1 1820 16 view .LVU4300
.LBB4863:
	.loc 1 1820 6 view .LVU4301
	.loc 1 1820 164 view .LVU4302
	.loc 1 1820 166 view .LVU4303
	.loc 1 1820 176 is_stmt 0 view .LVU4304
	movs	r3, #3
	str	r3, [r2, #16]!
.LVL415:
	.loc 1 1820 176 view .LVU4305
.LBE4863:
.LBE4865:
	.loc 1 1820 26 is_stmt 1 view .LVU4306
	.loc 1 1820 7 view .LVU4307
	.loc 1 1820 147 view .LVU4308
	.loc 1 1820 149 view .LVU4309
	mov	r1, #6208
	bl	z_log_msg_static_create.constprop.0
.LVL416:
	.loc 1 1820 149 is_stmt 0 view .LVU4310
	mov	sp, r4
.LVL417:
	.loc 1 1820 149 view .LVU4311
.LBE4868:
	.loc 1 1820 107 is_stmt 1 view .LVU4312
	.loc 1 1820 5 view .LVU4313
	.loc 1 1820 42 view .LVU4314
.LBE4872:
	.loc 1 1820 6 view .LVU4315
.LBE4875:
	.loc 1 1820 278 view .LVU4316
	.loc 1 1820 5 view .LVU4317
	.loc 1 1820 18 view .LVU4318
.LBE4878:
	.loc 1 1820 6 view .LVU4319
	.loc 1 1821 3 view .LVU4320
.L191:
	.loc 1 1864 1 is_stmt 0 view .LVU4321
	adds	r7, r7, #12
	.cfi_remember_state
	.cfi_def_cfa_offset 20
	mov	sp, r7
	.cfi_def_cfa_register 13
	@ sp needed
	pop	{r4, r5, r6, r7, pc}
.LVL418:
.L192:
	.cfi_restore_state
	.loc 1 1824 2 is_stmt 1 view .LVU4322
	.loc 1 1824 5 is_stmt 0 view .LVU4323
	ldrb	r3, [r5]	@ zero_extendqisi2
	cmp	r3, #26
	.loc 1 1826 35 view .LVU4324
	add	r6, r0, #4
	.loc 1 1824 5 view .LVU4325
	bne	.L194
	.loc 1 1824 26 discriminator 1 view .LVU4326
	ldrb	r3, [r0, #3]	@ zero_extendqisi2
	cmp	r3, #1
	bne	.L195
.LVL419:
.LBB4879:
.LBI4879:
	.loc 9 176 19 is_stmt 1 view .LVU4327
.LBB4880:
	.loc 9 178 2 view .LVU4328
	.loc 9 179 2 view .LVU4329
	.loc 9 181 2 view .LVU4330
	.loc 9 181 8 is_stmt 0 view .LVU4331
	mov	r1, #1024
	mov	r0, r6
.LVL420:
	.loc 9 181 8 view .LVU4332
	bl	atomic_or
.LVL421:
	.loc 9 183 2 is_stmt 1 view .LVU4333
	.loc 9 183 2 is_stmt 0 view .LVU4334
.LBE4880:
.LBE4879:
	.loc 1 1825 25 view .LVU4335
	lsls	r2, r0, #21
	bmi	.L194
.LBB4881:
	.loc 1 1829 3 is_stmt 1 view .LVU4336
	.loc 1 1831 3 view .LVU4337
	.loc 1 1832 3 view .LVU4338
	.loc 1 1831 22 is_stmt 0 view .LVU4339
	ldr	r3, [r4, #160]
	str	r3, [r7]
	.loc 1 1833 3 is_stmt 1 view .LVU4340
	.loc 1 1834 3 view .LVU4341
	.loc 1 1836 3 is_stmt 0 view .LVU4342
	mov	r1, r7
	.loc 1 1833 17 view .LVU4343
	ldr	r3, [r4, #168]
	str	r3, [r7, #4]
	.loc 1 1836 3 is_stmt 1 view .LVU4344
	mov	r0, r4
	bl	bt_l2cap_update_conn_param
.LVL422:
.L196:
	.loc 1 1836 3 is_stmt 0 view .LVU4345
.LBE4881:
	.loc 1 1863 2 is_stmt 1 view .LVU4346
	mov	r0, r4
	bl	bt_conn_unref
.LVL423:
	b	.L191
.L194:
	.loc 1 1838 3 view .LVU4347
	.loc 1 1838 6 is_stmt 0 view .LVU4348
	ldrb	r3, [r5]	@ zero_extendqisi2
	cbnz	r3, .L195
	.loc 1 1839 4 is_stmt 1 view .LVU4349
	.loc 1 1839 28 is_stmt 0 view .LVU4350
	ldrh	r3, [r5, #3]	@ unaligned
	.loc 1 1839 22 view .LVU4351
	strh	r3, [r4, #158]	@ movhi
	.loc 1 1840 4 is_stmt 1 view .LVU4352
	.loc 1 1840 27 is_stmt 0 view .LVU4353
	ldrh	r3, [r5, #5]	@ unaligned
	.loc 1 1840 21 view .LVU4354
	strh	r3, [r4, #164]	@ movhi
	.loc 1 1841 4 is_stmt 1 view .LVU4355
	.loc 1 1841 27 is_stmt 0 view .LVU4356
	ldrh	r3, [r5, #7]	@ unaligned
	.loc 1 1841 21 view .LVU4357
	strh	r3, [r4, #166]	@ movhi
	.loc 1 1844 4 is_stmt 1 view .LVU4358
.LVL424:
.LBB4882:
.LBI4882:
	.loc 9 198 20 view .LVU4359
.LBB4883:
	.loc 9 200 2 view .LVU4360
	.loc 9 202 2 view .LVU4361
.L198:
	.loc 9 202 2 is_stmt 0 view .LVU4362
.LBE4883:
.LBE4882:
	.loc 1 1854 4 is_stmt 1 view .LVU4363
.LBB4884:
.LBI4884:
	.loc 9 198 20 view .LVU4364
.LBB4885:
	.loc 9 200 2 view .LVU4365
	.loc 9 202 2 view .LVU4366
	.loc 9 202 8 is_stmt 0 view .LVU4367
	mvn	r1, #256
	mov	r0, r6
	bl	atomic_and.isra.0
.LVL425:
	.loc 9 203 1 view .LVU4368
	b	.L197
.LVL426:
.L195:
	.loc 9 203 1 view .LVU4369
.LBE4885:
.LBE4884:
	.loc 1 1846 10 is_stmt 1 view .LVU4370
.LBB4886:
.LBI4886:
	.loc 9 131 19 view .LVU4371
.LBB4887:
	.loc 9 133 2 view .LVU4372
.LBB4888:
.LBI4888:
	.loc 3 159 28 view .LVU4373
.LBB4889:
	.loc 3 161 2 view .LVU4374
	.loc 3 161 9 is_stmt 0 view .LVU4375
	dmb	ish
	ldr	r3, [r4, #4]
	dmb	ish
.LVL427:
	.loc 3 161 9 view .LVU4376
.LBE4889:
.LBE4888:
	.loc 9 135 2 is_stmt 1 view .LVU4377
	.loc 9 135 2 is_stmt 0 view .LVU4378
.LBE4887:
.LBE4886:
	.loc 1 1846 13 view .LVU4379
	lsls	r3, r3, #23
	bpl	.L198
	.loc 1 1847 47 view .LVU4380
	ldrb	r3, [r5]	@ zero_extendqisi2
	cmp	r3, #32
	bne	.L198
	.loc 1 1849 15 view .LVU4381
	ldrb	r3, [r4, #172]	@ zero_extendqisi2
	.loc 1 1848 27 view .LVU4382
	cmp	r3, #0
	beq	.L198
.LBB4890:
	.loc 1 1850 4 is_stmt 1 view .LVU4383
	.loc 1 1850 39 is_stmt 0 view .LVU4384
	subs	r3, r3, #1
	strb	r3, [r4, #172]
	.loc 1 1851 4 is_stmt 1 view .LVU4385
	mov	r2, #163840
	movs	r3, #0
	add	r0, r4, #88
	bl	k_work_schedule
.LVL428:
.L197:
	.loc 1 1851 4 is_stmt 0 view .LVU4386
.LBE4890:
	.loc 1 1860 3 is_stmt 1 view .LVU4387
	mov	r0, r4
	bl	notify_le_param_updated
.LVL429:
	b	.L196
.L206:
	.align	2
.L205:
	.word	.LC21
	.word	log_const_bt_hci_core
	.cfi_endproc
.LFE634:
	.size	le_conn_update_complete, .-le_conn_update_complete
	.section	.text.bt_hci_cmd_state_set_init,"ax",%progbits
	.align	1
	.global	bt_hci_cmd_state_set_init
	.syntax unified
	.thumb
	.thumb_func
	.type	bt_hci_cmd_state_set_init, %function
bt_hci_cmd_state_set_init:
.LVL430:
.LFB593:
	.loc 1 128 1 view -0
	.cfi_startproc
	@ args = 4, pretend = 0, frame = 0
	@ frame_needed = 0, uses_anonymous_args = 0
	.loc 1 129 2 view .LVU4389
	.loc 1 128 1 is_stmt 0 view .LVU4390
	push	{r4, lr}
	.cfi_def_cfa_offset 8
	.cfi_offset 4, -8
	.cfi_offset 14, -4
	.loc 1 130 13 view .LVU4391
	strd	r2, r3, [r1]
	.loc 1 131 2 is_stmt 1 view .LVU4392
	.loc 1 131 13 is_stmt 0 view .LVU4393
	ldrb	r3, [sp, #8]	@ zero_extendqisi2
.LVL431:
	.loc 1 131 13 view .LVU4394
	strb	r3, [r1, #8]
	.loc 1 132 2 is_stmt 1 view .LVU4395
	.loc 1 128 1 is_stmt 0 view .LVU4396
	mov	r4, r1
	.loc 1 132 13 view .LVU4397
	bl	net_buf_id
.LVL432:
	.loc 1 132 38 view .LVU4398
	ldr	r3, .L208
	movs	r2, #12
	mla	r3, r2, r0, r3
	str	r4, [r3, #4]
	.loc 1 133 1 view .LVU4399
	pop	{r4, pc}
.LVL433:
.L209:
	.loc 1 133 1 view .LVU4400
	.align	2
.L208:
	.word	cmd_data
	.cfi_endproc
.LFE593:
	.size	bt_hci_cmd_state_set_init, .-bt_hci_cmd_state_set_init
	.section	.text.bt_hci_cmd_create,"ax",%progbits
	.align	1
	.global	bt_hci_cmd_create
	.syntax unified
	.thumb
	.thumb_func
	.type	bt_hci_cmd_create, %function
bt_hci_cmd_create:
.LVL434:
.LFB597:
	.loc 1 259 1 is_stmt 1 view -0
	.cfi_startproc
	@ args = 0, pretend = 0, frame = 0
	@ frame_needed = 0, uses_anonymous_args = 0
	.loc 1 260 2 view .LVU4402
	.loc 1 261 2 view .LVU4403
	.loc 1 263 2 view .LVU4404
.LBB4891:
	.loc 1 263 7 view .LVU4405
.LBE4891:
	.loc 1 263 5 view .LVU4406
	.loc 1 265 2 view .LVU4407
.LBB4892:
.LBI4892:
	.loc 8 1256 68 view .LVU4408
.LBB4893:
	.loc 8 1259 2 view .LVU4409
.LBE4893:
.LBE4892:
	.loc 1 259 1 is_stmt 0 view .LVU4410
	push	{r4, r5, r6, r7, r8, r9, r10, lr}
	.cfi_def_cfa_offset 32
	.cfi_offset 4, -32
	.cfi_offset 5, -28
	.cfi_offset 6, -24
	.cfi_offset 7, -20
	.cfi_offset 8, -16
	.cfi_offset 9, -12
	.cfi_offset 10, -8
	.cfi_offset 14, -4
.LBB4897:
.LBB4894:
	.loc 8 1259 9 view .LVU4411
	mov	r2, #-1
	mov	r3, #-1
.LBE4894:
.LBE4897:
	.loc 1 259 1 view .LVU4412
	mov	r6, r0
.LBB4898:
.LBB4895:
	.loc 8 1259 9 view .LVU4413
	ldr	r0, .L211
.LVL435:
	.loc 8 1259 9 view .LVU4414
.LBE4895:
.LBE4898:
	.loc 1 274 39 view .LVU4415
	ldr	r5, .L211+4
	.loc 1 259 1 view .LVU4416
	mov	r7, r1
.LBB4899:
.LBB4896:
	.loc 8 1259 9 view .LVU4417
	bl	net_buf_alloc_fixed
.LVL436:
	.loc 8 1259 9 view .LVU4418
	mov	r4, r0
.LVL437:
	.loc 8 1259 9 view .LVU4419
.LBE4896:
.LBE4899:
	.loc 1 266 4 is_stmt 1 view .LVU4420
	.loc 1 266 5 view .LVU4421
	.loc 1 268 2 view .LVU4422
.LBB4900:
	.loc 1 268 7 view .LVU4423
.LBE4900:
	.loc 1 268 5 view .LVU4424
	.loc 1 270 2 view .LVU4425
.LBB4901:
.LBI4901:
	.loc 8 1477 20 view .LVU4426
.LBB4902:
	.loc 8 1479 2 view .LVU4427
	add	r10, r0, #12
	movs	r1, #0
.LBE4902:
.LBE4901:
.LBB4904:
.LBB4905:
	.file 13 "/home/g/mise-work/zmk-firmware/zmk/zephyr/include/zephyr/bluetooth/buf.h"
	.loc 13 163 55 is_stmt 0 view .LVU4428
	mov	r8, #0
.LBE4905:
.LBE4904:
.LBB4907:
.LBB4903:
	.loc 8 1479 2 view .LVU4429
	mov	r0, r10
.LVL438:
	.loc 8 1479 2 view .LVU4430
	bl	net_buf_simple_reserve
.LVL439:
	.loc 8 1479 2 view .LVU4431
.LBE4903:
.LBE4907:
	.loc 1 272 2 is_stmt 1 view .LVU4432
.LBB4908:
.LBI4904:
	.loc 13 161 20 view .LVU4433
.LBB4906:
	.loc 13 163 2 view .LVU4434
	.loc 13 163 55 is_stmt 0 view .LVU4435
	strb	r8, [r4, #24]
.LVL440:
	.loc 13 163 55 view .LVU4436
.LBE4906:
.LBE4908:
	.loc 1 274 2 is_stmt 1 view .LVU4437
	.loc 1 274 13 is_stmt 0 view .LVU4438
	mov	r0, r4
	bl	net_buf_id
.LVL441:
	.loc 1 274 39 view .LVU4439
	mov	r9, #12
	mla	r0, r9, r0, r5
	strh	r6, [r0, #2]	@ movhi
	.loc 1 275 2 is_stmt 1 view .LVU4440
	.loc 1 275 13 is_stmt 0 view .LVU4441
	mov	r0, r4
	bl	net_buf_id
.LVL442:
	.loc 1 275 37 view .LVU4442
	mla	r0, r9, r0, r5
	str	r8, [r0, #8]
	.loc 1 276 2 is_stmt 1 view .LVU4443
	.loc 1 276 13 is_stmt 0 view .LVU4444
	mov	r0, r4
	bl	net_buf_id
.LVL443:
	.loc 1 276 38 view .LVU4445
	mla	r5, r9, r0, r5
.LBB4909:
.LBB4910:
	.loc 8 1495 9 view .LVU4446
	movs	r1, #3
	mov	r0, r10
.LBE4910:
.LBE4909:
	.loc 1 276 38 view .LVU4447
	str	r8, [r5, #4]
	.loc 1 278 2 is_stmt 1 view .LVU4448
.LVL444:
.LBB4912:
.LBI4909:
	.loc 8 1493 21 view .LVU4449
.LBB4911:
	.loc 8 1495 2 view .LVU4450
	.loc 8 1495 9 is_stmt 0 view .LVU4451
	bl	net_buf_simple_add
.LVL445:
	.loc 8 1495 9 view .LVU4452
.LBE4911:
.LBE4912:
	.loc 1 279 2 is_stmt 1 view .LVU4453
	.loc 1 279 14 is_stmt 0 view .LVU4454
	strh	r6, [r0]	@ unaligned
	.loc 1 280 2 is_stmt 1 view .LVU4455
	.loc 1 280 17 is_stmt 0 view .LVU4456
	strb	r7, [r0, #2]
	.loc 1 282 2 is_stmt 1 view .LVU4457
	.loc 1 283 1 is_stmt 0 view .LVU4458
	mov	r0, r4
.LVL446:
	.loc 1 283 1 view .LVU4459
	pop	{r4, r5, r6, r7, r8, r9, r10, pc}
.LVL447:
.L212:
	.loc 1 283 1 view .LVU4460
	.align	2
.L211:
	.word	hci_cmd_pool
	.word	cmd_data
	.cfi_endproc
.LFE597:
	.size	bt_hci_cmd_create, .-bt_hci_cmd_create
	.section	.text.bt_hci_cmd_send,"ax",%progbits
	.align	1
	.global	bt_hci_cmd_send
	.syntax unified
	.thumb
	.thumb_func
	.type	bt_hci_cmd_send, %function
bt_hci_cmd_send:
.LVL448:
.LFB598:
	.loc 1 286 1 is_stmt 1 view -0
	.cfi_startproc
	@ args = 0, pretend = 0, frame = 0
	@ frame_needed = 1, uses_anonymous_args = 0
	.loc 1 287 2 view .LVU4462
	.loc 1 286 1 is_stmt 0 view .LVU4463
	push	{r3, r4, r5, r6, r7, lr}
	.cfi_def_cfa_offset 24
	.cfi_offset 3, -24
	.cfi_offset 4, -20
	.cfi_offset 5, -16
	.cfi_offset 6, -12
	.cfi_offset 7, -8
	.cfi_offset 14, -4
	mov	r5, r0
	add	r7, sp, #0
	.cfi_def_cfa_register 7
	.loc 1 287 5 view .LVU4464
	mov	r4, r1
	cbnz	r1, .L214
	.loc 1 288 3 is_stmt 1 view .LVU4465
	.loc 1 288 9 is_stmt 0 view .LVU4466
	bl	bt_hci_cmd_create
.LVL449:
	.loc 1 289 3 is_stmt 1 view .LVU4467
	.loc 1 289 6 is_stmt 0 view .LVU4468
	mov	r4, r0
	cbz	r0, .L218
.LVL450:
.L214:
	.loc 1 294 2 is_stmt 1 discriminator 385 view .LVU4469
.LBB4913:
	.loc 1 294 7 discriminator 385 view .LVU4470
.LBE4913:
	.loc 1 294 5 discriminator 385 view .LVU4471
	.loc 1 299 2 discriminator 385 view .LVU4472
	.loc 1 299 5 is_stmt 0 discriminator 385 view .LVU4473
	movw	r3, #3125
	cmp	r5, r3
	bne	.L216
.LBB4914:
	.loc 1 300 3 is_stmt 1 view .LVU4474
	.loc 1 302 3 view .LVU4475
.LVL451:
.LBB4915:
.LBI4915:
	.loc 1 3684 5 view .LVU4476
.LBB4916:
	.loc 1 3686 2 view .LVU4477
.LBB4917:
	.loc 1 3686 7 view .LVU4478
.LBE4917:
	.loc 1 3686 5 view .LVU4479
	.loc 1 3688 2 view .LVU4480
	.loc 1 3690 2 view .LVU4481
	.loc 1 3691 3 view .LVU4482
	.loc 1 3691 10 is_stmt 0 view .LVU4483
	mov	r0, r4
	bl	bt_hci_ecc_send
.LVL452:
	.loc 1 3691 10 view .LVU4484
.LBE4916:
.LBE4915:
	.loc 1 303 3 is_stmt 1 view .LVU4485
	.loc 1 303 6 is_stmt 0 view .LVU4486
	mov	r5, r0
	cbz	r0, .L213
	.loc 1 304 4 is_stmt 1 view .LVU4487
.LBB4918:
	.loc 1 304 9 view .LVU4488
	.loc 1 304 58 view .LVU4489
	.loc 1 304 15 view .LVU4490
	.loc 1 304 3 view .LVU4491
.LVL453:
	.loc 1 304 42 view .LVU4492
	.loc 1 304 177 view .LVU4493
	.loc 1 304 188 view .LVU4494
	.loc 1 304 276 view .LVU4495
.LBB4919:
	.loc 1 304 4 view .LVU4496
	.loc 1 304 6 view .LVU4497
	.loc 1 304 4 view .LVU4498
.LBB4920:
	.loc 1 304 9 view .LVU4499
	.loc 1 304 3 view .LVU4500
.LBE4920:
.LBE4919:
.LBE4918:
.LBE4914:
	.loc 1 304 4 view .LVU4501
	.loc 1 304 13 view .LVU4502
	.loc 1 304 108 view .LVU4503
	.loc 1 304 4 view .LVU4504
.LBB4944:
.LBB4940:
.LBB4936:
.LBB4932:
	.loc 1 304 13 view .LVU4505
	.loc 1 304 103 view .LVU4506
	.loc 1 304 105 view .LVU4507
.LBB4921:
	.loc 1 304 108 is_stmt 0 view .LVU4508
	mov	r6, sp
	.loc 1 304 110 is_stmt 1 view .LVU4509
	.loc 1 304 121 view .LVU4510
.LVL454:
	.loc 1 304 210 view .LVU4511
	.loc 1 304 27 view .LVU4512
.LBE4921:
.LBE4932:
.LBE4936:
.LBE4940:
.LBE4944:
	.loc 1 304 4 view .LVU4513
	.loc 1 304 369 view .LVU4514
	.loc 1 304 76 view .LVU4515
	.loc 1 304 3 view .LVU4516
	.loc 1 304 3 view .LVU4517
	.loc 1 304 3 view .LVU4518
	.loc 1 304 39 view .LVU4519
	.loc 1 304 5 view .LVU4520
	.loc 1 304 31 view .LVU4521
	.loc 1 304 57 view .LVU4522
	.loc 1 304 524 view .LVU4523
	.loc 1 304 586 view .LVU4524
	.loc 1 304 1107 view .LVU4525
	.loc 1 304 1172 view .LVU4526
	.loc 1 304 1197 view .LVU4527
	.loc 1 304 1198 view .LVU4528
	.loc 1 304 1200 view .LVU4529
	.loc 1 304 1230 view .LVU4530
	.loc 1 304 1260 view .LVU4531
	.loc 1 304 1292 view .LVU4532
	.loc 1 304 1324 view .LVU4533
	.loc 1 304 1356 view .LVU4534
	.loc 1 304 1553 view .LVU4535
	.loc 1 304 1577 view .LVU4536
	.loc 1 304 1578 view .LVU4537
	.loc 1 304 1580 view .LVU4538
	.loc 1 304 1609 view .LVU4539
	.loc 1 304 1638 view .LVU4540
	.loc 1 304 1669 view .LVU4541
	.loc 1 304 1700 view .LVU4542
	.loc 1 304 1731 view .LVU4543
	.loc 1 304 1938 view .LVU4544
	.loc 1 304 5 view .LVU4545
	.loc 1 304 23 view .LVU4546
	.loc 1 304 43 view .LVU4547
	.loc 1 304 5 view .LVU4548
	.loc 1 304 43 view .LVU4549
	.loc 1 304 14 view .LVU4550
	.loc 1 304 14 view .LVU4551
	.loc 1 304 62 view .LVU4552
	.loc 1 304 93 view .LVU4553
	.loc 1 304 127 view .LVU4554
	.loc 1 304 132 view .LVU4555
	.loc 1 304 389 view .LVU4556
	.loc 1 304 1470 view .LVU4557
	.loc 1 304 1535 view .LVU4558
	.loc 1 304 1559 view .LVU4559
	.loc 1 304 1620 view .LVU4560
	.loc 1 304 1631 view .LVU4561
	.loc 1 304 1750 view .LVU4562
	.loc 1 304 1766 view .LVU4563
	.loc 1 304 1806 view .LVU4564
	.loc 1 304 1831 view .LVU4565
	.loc 1 304 3134 view .LVU4566
	.loc 1 304 3175 view .LVU4567
	.loc 1 304 8 view .LVU4568
	.loc 1 304 31 view .LVU4569
	.loc 1 304 130 view .LVU4570
	.loc 1 304 7 view .LVU4571
	.loc 1 304 12 view .LVU4572
	.loc 1 304 237 view .LVU4573
	.loc 1 304 1190 view .LVU4574
	.loc 1 304 1255 view .LVU4575
	.loc 1 304 1279 view .LVU4576
	.loc 1 304 1308 view .LVU4577
	.loc 1 304 1319 view .LVU4578
	.loc 1 304 1406 view .LVU4579
	.loc 1 304 1422 view .LVU4580
	.loc 1 304 1462 view .LVU4581
	.loc 1 304 2726 view .LVU4582
	.loc 1 304 2767 view .LVU4583
	.loc 1 304 8 view .LVU4584
	.loc 1 304 31 view .LVU4585
	.loc 1 304 10 view .LVU4586
	.loc 1 304 6 view .LVU4587
	.loc 1 304 29 view .LVU4588
	.loc 1 304 53 view .LVU4589
	.loc 1 304 81 view .LVU4590
	.loc 1 304 257 view .LVU4591
	.loc 1 304 17 view .LVU4592
.LBB4945:
.LBB4941:
.LBB4937:
.LBB4933:
.LBB4929:
	.loc 1 304 30 view .LVU4593
	.loc 1 304 4 view .LVU4594
	.loc 1 304 4 view .LVU4595
	.loc 1 304 71 view .LVU4596
	.loc 1 304 83 is_stmt 0 view .LVU4597
	sub	sp, sp, #32
	mov	r2, sp
.LVL455:
	.loc 1 304 75 is_stmt 1 view .LVU4598
	.loc 1 304 485 view .LVU4599
	.loc 1 304 6 view .LVU4600
	.loc 1 304 8 view .LVU4601
	.loc 1 304 13 view .LVU4602
	.loc 1 304 11 view .LVU4603
	.loc 1 304 6 view .LVU4604
	.loc 1 304 24 view .LVU4605
.LBB4922:
	.loc 1 304 4 view .LVU4606
	.loc 1 304 369 view .LVU4607
	.loc 1 304 76 view .LVU4608
.LVL456:
	.loc 1 304 3 view .LVU4609
	.loc 1 304 3 view .LVU4610
	.loc 1 304 3 view .LVU4611
	.loc 1 304 39 view .LVU4612
	.loc 1 304 68 view .LVU4613
	.loc 1 304 94 view .LVU4614
	.loc 1 304 120 view .LVU4615
	.loc 1 304 587 view .LVU4616
	.loc 1 304 649 view .LVU4617
	.loc 1 304 1170 view .LVU4618
	.loc 1 304 1235 view .LVU4619
	.loc 1 304 1260 view .LVU4620
	.loc 1 304 1261 view .LVU4621
	.loc 1 304 1263 view .LVU4622
	.loc 1 304 1293 view .LVU4623
	.loc 1 304 1323 view .LVU4624
	.loc 1 304 1355 view .LVU4625
	.loc 1 304 1387 view .LVU4626
	.loc 1 304 1419 view .LVU4627
	.loc 1 304 1616 view .LVU4628
	.loc 1 304 1640 view .LVU4629
	.loc 1 304 1641 view .LVU4630
	.loc 1 304 1643 view .LVU4631
	.loc 1 304 1672 view .LVU4632
	.loc 1 304 1701 view .LVU4633
	.loc 1 304 1732 view .LVU4634
	.loc 1 304 1763 view .LVU4635
	.loc 1 304 1794 view .LVU4636
	.loc 1 304 2001 view .LVU4637
.LBB4923:
	.loc 1 304 3172 view .LVU4638
	.loc 1 304 3177 view .LVU4639
	.loc 1 304 3813 view .LVU4640
	.loc 1 304 0 is_stmt 0 view .LVU4641
	ldr	r3, .L222
.LBE4923:
.LBB4924:
	.loc 1 304 3812 view .LVU4642
	strd	r3, r0, [r2, #20]
	.loc 1 304 2767 is_stmt 1 view .LVU4643
	.loc 1 304 8 view .LVU4644
.LVL457:
	.loc 1 304 31 view .LVU4645
	.loc 1 304 31 is_stmt 0 view .LVU4646
.LBE4924:
	.loc 1 304 10 is_stmt 1 view .LVU4647
	.loc 1 304 6 view .LVU4648
	.loc 1 304 29 view .LVU4649
	.loc 1 304 53 view .LVU4650
	.loc 1 304 81 view .LVU4651
.LBE4922:
.LBE4929:
.LBE4933:
.LBE4937:
.LBE4941:
.LBE4945:
	.loc 1 304 7 view .LVU4652
	.loc 1 304 46 view .LVU4653
	.loc 1 304 51 view .LVU4654
	.loc 1 304 81 view .LVU4655
	.loc 1 304 148 view .LVU4656
	.loc 1 304 153 view .LVU4657
	.loc 1 304 183 view .LVU4658
.LBB4946:
.LBB4942:
.LBB4938:
.LBB4934:
.LBB4930:
.LBB4927:
	.loc 1 304 257 view .LVU4659
	.loc 1 304 17 view .LVU4660
.LBB4925:
	.loc 1 304 7 view .LVU4661
	.loc 1 304 165 view .LVU4662
	.loc 1 304 167 view .LVU4663
	.loc 1 304 177 is_stmt 0 view .LVU4664
	movs	r3, #3
.LBE4925:
.LBE4927:
	.loc 1 304 150 view .LVU4665
	ldr	r0, .L222+4
.LVL458:
.LBB4928:
.LBB4926:
	.loc 1 304 177 view .LVU4666
	str	r3, [r2, #16]!
.LVL459:
	.loc 1 304 177 view .LVU4667
.LBE4926:
.LBE4928:
	.loc 1 304 27 is_stmt 1 view .LVU4668
	.loc 1 304 8 view .LVU4669
	.loc 1 304 148 view .LVU4670
	.loc 1 304 150 view .LVU4671
	mov	r1, #6208
	bl	z_log_msg_static_create.constprop.0
.LVL460:
	.loc 1 304 150 is_stmt 0 view .LVU4672
.LBE4930:
.LBE4934:
.LBE4938:
.LBE4942:
	.loc 1 305 4 view .LVU4673
	mov	r0, r4
.LBB4943:
.LBB4939:
.LBB4935:
.LBB4931:
	mov	sp, r6
.LVL461:
	.loc 1 305 4 view .LVU4674
.LBE4931:
	.loc 1 304 108 is_stmt 1 view .LVU4675
	.loc 1 304 6 view .LVU4676
	.loc 1 304 43 view .LVU4677
.LBE4935:
	.loc 1 304 7 view .LVU4678
.LBE4939:
	.loc 1 304 279 view .LVU4679
	.loc 1 304 6 view .LVU4680
	.loc 1 304 19 view .LVU4681
.LBE4943:
	.loc 1 304 7 view .LVU4682
	.loc 1 305 4 view .LVU4683
	bl	net_buf_unref
.LVL462:
.L213:
	.loc 1 305 4 is_stmt 0 view .LVU4684
.LBE4946:
	.loc 1 314 1 view .LVU4685
	mov	r0, r5
	mov	sp, r7
	.cfi_remember_state
	.cfi_def_cfa_register 13
	@ sp needed
	pop	{r3, r4, r5, r6, r7, pc}
.LVL463:
.L216:
	.cfi_restore_state
	.loc 1 311 2 is_stmt 1 view .LVU4686
	ldr	r0, .L222+8
	mov	r1, r4
	bl	net_buf_put
.LVL464:
	.loc 1 313 2 view .LVU4687
	.loc 1 313 9 is_stmt 0 view .LVU4688
	movs	r5, #0
	b	.L213
.LVL465:
.L218:
	.loc 1 290 11 view .LVU4689
	mvn	r5, #104
	b	.L213
.L223:
	.align	2
.L222:
	.word	.LC31
	.word	log_const_bt_hci_core
	.word	bt_dev+324
	.cfi_endproc
.LFE598:
	.size	bt_hci_cmd_send, .-bt_hci_cmd_send
	.section	.rodata.le_ltk_request.str1.1,"aMS",%progbits,1
.LC36:
	.ascii	"Out of command buffers\000"
	.section	.text.le_ltk_request,"ax",%progbits
	.align	1
	.syntax unified
	.thumb
	.thumb_func
	.type	le_ltk_request, %function
le_ltk_request:
.LVL466:
.LFB645:
	.loc 1 2240 1 is_stmt 1 view -0
	.cfi_startproc
	@ args = 0, pretend = 0, frame = 40
	@ frame_needed = 1, uses_anonymous_args = 0
	.loc 1 2241 2 view .LVU4691
	.loc 1 2240 1 is_stmt 0 view .LVU4692
	push	{r4, r5, r6, r7, r8, lr}
	.cfi_def_cfa_offset 24
	.cfi_offset 4, -24
	.cfi_offset 5, -20
	.cfi_offset 6, -16
	.cfi_offset 7, -12
	.cfi_offset 8, -8
	.cfi_offset 14, -4
	sub	sp, sp, #48
	.cfi_def_cfa_offset 72
	.loc 1 2241 36 view .LVU4693
	ldr	r4, [r0, #12]
.LVL467:
	.loc 1 2242 2 is_stmt 1 view .LVU4694
	.loc 1 2243 2 view .LVU4695
	.loc 1 2244 2 view .LVU4696
	.loc 1 2246 2 view .LVU4697
	.loc 1 2246 9 is_stmt 0 view .LVU4698
	ldrh	r6, [r4]	@ unaligned
	uxth	r8, r6
.LVL468:
	.loc 1 2248 2 is_stmt 1 view .LVU4699
.LBB4981:
	.loc 1 2248 7 view .LVU4700
.LBE4981:
	.loc 1 2248 5 view .LVU4701
	.loc 1 2250 2 view .LVU4702
	.loc 1 2240 1 is_stmt 0 view .LVU4703
	add	r7, sp, #8
	.cfi_def_cfa 7, 64
	.loc 1 2250 9 view .LVU4704
	movs	r1, #1
	mov	r0, r8
.LVL469:
	.loc 1 2250 9 view .LVU4705
	bl	bt_conn_lookup_handle
.LVL470:
	.loc 1 2251 2 is_stmt 1 view .LVU4706
	.loc 1 2251 5 is_stmt 0 view .LVU4707
	mov	r5, r0
	cbnz	r0, .L225
	.loc 1 2252 3 is_stmt 1 view .LVU4708
.LBB4982:
	.loc 1 2252 8 view .LVU4709
	.loc 1 2252 57 view .LVU4710
	.loc 1 2252 14 view .LVU4711
	.loc 1 2252 2 view .LVU4712
.LVL471:
	.loc 1 2252 41 view .LVU4713
	.loc 1 2252 176 view .LVU4714
	.loc 1 2252 187 view .LVU4715
	.loc 1 2252 275 view .LVU4716
.LBB4983:
	.loc 1 2252 3 view .LVU4717
	.loc 1 2252 5 view .LVU4718
	.loc 1 2252 3 view .LVU4719
.LBB4984:
	.loc 1 2252 8 view .LVU4720
	.loc 1 2252 2 view .LVU4721
.LBE4984:
.LBE4983:
.LBE4982:
	.loc 1 2252 3 view .LVU4722
	.loc 1 2252 12 view .LVU4723
	.loc 1 2252 107 view .LVU4724
	.loc 1 2252 3 view .LVU4725
.LBB5002:
.LBB4999:
.LBB4995:
	.loc 1 2252 12 view .LVU4726
	.loc 1 2252 102 view .LVU4727
	.loc 1 2252 104 view .LVU4728
.LBB4985:
	.loc 1 2252 107 is_stmt 0 view .LVU4729
	mov	r4, sp
.LVL472:
	.loc 1 2252 109 is_stmt 1 view .LVU4730
	.loc 1 2252 120 view .LVU4731
	.loc 1 2252 209 view .LVU4732
	.loc 1 2252 26 view .LVU4733
.LBE4985:
.LBE4995:
.LBE4999:
.LBE5002:
	.loc 1 2252 3 view .LVU4734
	.loc 1 2252 368 view .LVU4735
	.loc 1 2252 75 view .LVU4736
	.loc 1 2252 2 view .LVU4737
	.loc 1 2252 2 view .LVU4738
	.loc 1 2252 2 view .LVU4739
	.loc 1 2252 38 view .LVU4740
	.loc 1 2252 4 view .LVU4741
	.loc 1 2252 30 view .LVU4742
	.loc 1 2252 56 view .LVU4743
	.loc 1 2252 523 view .LVU4744
	.loc 1 2252 585 view .LVU4745
	.loc 1 2252 1106 view .LVU4746
	.loc 1 2252 1171 view .LVU4747
	.loc 1 2252 1196 view .LVU4748
	.loc 1 2252 1197 view .LVU4749
	.loc 1 2252 1199 view .LVU4750
	.loc 1 2252 1229 view .LVU4751
	.loc 1 2252 1259 view .LVU4752
	.loc 1 2252 1291 view .LVU4753
	.loc 1 2252 1323 view .LVU4754
	.loc 1 2252 1355 view .LVU4755
	.loc 1 2252 1552 view .LVU4756
	.loc 1 2252 1576 view .LVU4757
	.loc 1 2252 1577 view .LVU4758
	.loc 1 2252 1579 view .LVU4759
	.loc 1 2252 1608 view .LVU4760
	.loc 1 2252 1637 view .LVU4761
	.loc 1 2252 1668 view .LVU4762
	.loc 1 2252 1699 view .LVU4763
	.loc 1 2252 1730 view .LVU4764
	.loc 1 2252 1937 view .LVU4765
	.loc 1 2252 4 view .LVU4766
	.loc 1 2252 22 view .LVU4767
	.loc 1 2252 42 view .LVU4768
	.loc 1 2252 4 view .LVU4769
	.loc 1 2252 42 view .LVU4770
	.loc 1 2252 13 view .LVU4771
	.loc 1 2252 13 view .LVU4772
	.loc 1 2252 61 view .LVU4773
	.loc 1 2252 92 view .LVU4774
	.loc 1 2252 126 view .LVU4775
	.loc 1 2252 131 view .LVU4776
	.loc 1 2252 390 view .LVU4777
	.loc 1 2252 1479 view .LVU4778
	.loc 1 2252 1544 view .LVU4779
	.loc 1 2252 1568 view .LVU4780
	.loc 1 2252 1631 view .LVU4781
	.loc 1 2252 1642 view .LVU4782
	.loc 1 2252 1763 view .LVU4783
	.loc 1 2252 1779 view .LVU4784
	.loc 1 2252 1819 view .LVU4785
	.loc 1 2252 1844 view .LVU4786
	.loc 1 2252 3151 view .LVU4787
	.loc 1 2252 3192 view .LVU4788
	.loc 1 2252 7 view .LVU4789
	.loc 1 2252 30 view .LVU4790
	.loc 1 2252 129 view .LVU4791
	.loc 1 2252 6 view .LVU4792
	.loc 1 2252 11 view .LVU4793
	.loc 1 2252 236 view .LVU4794
	.loc 1 2252 1189 view .LVU4795
	.loc 1 2252 1254 view .LVU4796
	.loc 1 2252 1278 view .LVU4797
	.loc 1 2252 1307 view .LVU4798
	.loc 1 2252 1318 view .LVU4799
	.loc 1 2252 1405 view .LVU4800
	.loc 1 2252 1421 view .LVU4801
	.loc 1 2252 1461 view .LVU4802
	.loc 1 2252 2725 view .LVU4803
	.loc 1 2252 2766 view .LVU4804
	.loc 1 2252 7 view .LVU4805
	.loc 1 2252 30 view .LVU4806
	.loc 1 2252 9 view .LVU4807
	.loc 1 2252 5 view .LVU4808
	.loc 1 2252 28 view .LVU4809
	.loc 1 2252 52 view .LVU4810
	.loc 1 2252 80 view .LVU4811
	.loc 1 2252 256 view .LVU4812
	.loc 1 2252 16 view .LVU4813
.LBB5003:
.LBB5000:
.LBB4996:
.LBB4992:
	.loc 1 2252 29 view .LVU4814
	.loc 1 2252 3 view .LVU4815
	.loc 1 2252 3 view .LVU4816
	.loc 1 2252 70 view .LVU4817
	.loc 1 2252 82 is_stmt 0 view .LVU4818
	sub	sp, sp, #32
	add	r2, sp, #8
.LVL473:
	.loc 1 2252 74 is_stmt 1 view .LVU4819
	.loc 1 2252 484 view .LVU4820
	.loc 1 2252 5 view .LVU4821
	.loc 1 2252 7 view .LVU4822
	.loc 1 2252 12 view .LVU4823
	.loc 1 2252 10 view .LVU4824
	.loc 1 2252 5 view .LVU4825
	.loc 1 2252 23 view .LVU4826
.LBB4986:
	.loc 1 2252 3 view .LVU4827
	.loc 1 2252 368 view .LVU4828
	.loc 1 2252 75 view .LVU4829
.LVL474:
	.loc 1 2252 2 view .LVU4830
	.loc 1 2252 2 view .LVU4831
	.loc 1 2252 2 view .LVU4832
	.loc 1 2252 38 view .LVU4833
	.loc 1 2252 67 view .LVU4834
	.loc 1 2252 93 view .LVU4835
	.loc 1 2252 119 view .LVU4836
	.loc 1 2252 586 view .LVU4837
	.loc 1 2252 648 view .LVU4838
	.loc 1 2252 1169 view .LVU4839
	.loc 1 2252 1234 view .LVU4840
	.loc 1 2252 1259 view .LVU4841
	.loc 1 2252 1260 view .LVU4842
	.loc 1 2252 1262 view .LVU4843
	.loc 1 2252 1292 view .LVU4844
	.loc 1 2252 1322 view .LVU4845
	.loc 1 2252 1354 view .LVU4846
	.loc 1 2252 1386 view .LVU4847
	.loc 1 2252 1418 view .LVU4848
	.loc 1 2252 1615 view .LVU4849
	.loc 1 2252 1639 view .LVU4850
	.loc 1 2252 1640 view .LVU4851
	.loc 1 2252 1642 view .LVU4852
	.loc 1 2252 1671 view .LVU4853
	.loc 1 2252 1700 view .LVU4854
	.loc 1 2252 1731 view .LVU4855
	.loc 1 2252 1762 view .LVU4856
	.loc 1 2252 1793 view .LVU4857
	.loc 1 2252 2000 view .LVU4858
.LBB4987:
	.loc 1 2252 3189 view .LVU4859
	.loc 1 2252 3194 view .LVU4860
	.loc 1 2252 3842 view .LVU4861
	.loc 1 2252 0 is_stmt 0 view .LVU4862
	ldr	r3, .L235
.LBE4987:
.LBE4986:
	.loc 1 2252 149 view .LVU4863
	ldr	r0, .L235+4
.LVL475:
	.loc 1 2252 149 view .LVU4864
.LBE4992:
.LBE4996:
	.loc 1 2252 17 view .LVU4865
	strd	r3, r8, [r2, #20]
.LBB4997:
.LBB4993:
.LBB4990:
.LBB4988:
	.loc 1 2252 2766 is_stmt 1 view .LVU4866
	.loc 1 2252 7 view .LVU4867
.LVL476:
	.loc 1 2252 30 view .LVU4868
	.loc 1 2252 30 is_stmt 0 view .LVU4869
.LBE4988:
	.loc 1 2252 9 is_stmt 1 view .LVU4870
	.loc 1 2252 5 view .LVU4871
	.loc 1 2252 28 view .LVU4872
	.loc 1 2252 52 view .LVU4873
	.loc 1 2252 80 view .LVU4874
.LBE4990:
.LBE4993:
.LBE4997:
.LBE5000:
.LBE5003:
	.loc 1 2252 6 view .LVU4875
	.loc 1 2252 45 view .LVU4876
	.loc 1 2252 50 view .LVU4877
	.loc 1 2252 80 view .LVU4878
	.loc 1 2252 147 view .LVU4879
	.loc 1 2252 152 view .LVU4880
	.loc 1 2252 182 view .LVU4881
.LBB5004:
.LBB5001:
.LBB4998:
.LBB4994:
.LBB4991:
	.loc 1 2252 256 view .LVU4882
	.loc 1 2252 16 view .LVU4883
.LBB4989:
	.loc 1 2252 6 view .LVU4884
	.loc 1 2252 164 view .LVU4885
	.loc 1 2252 166 view .LVU4886
	.loc 1 2252 176 is_stmt 0 view .LVU4887
	movs	r3, #3
	str	r3, [r2, #16]!
.LVL477:
	.loc 1 2252 176 view .LVU4888
.LBE4989:
.LBE4991:
	.loc 1 2252 26 is_stmt 1 view .LVU4889
	.loc 1 2252 7 view .LVU4890
	.loc 1 2252 147 view .LVU4891
	.loc 1 2252 149 view .LVU4892
	mov	r1, #6208
	bl	z_log_msg_static_create.constprop.0
.LVL478:
	.loc 1 2252 149 is_stmt 0 view .LVU4893
	mov	sp, r4
.LBE4994:
	.loc 1 2252 107 is_stmt 1 view .LVU4894
	.loc 1 2252 5 view .LVU4895
.LVL479:
	.loc 1 2252 42 view .LVU4896
.LBE4998:
	.loc 1 2252 6 view .LVU4897
.LBE5001:
	.loc 1 2252 278 view .LVU4898
	.loc 1 2252 5 view .LVU4899
	.loc 1 2252 18 view .LVU4900
.LBE5004:
	.loc 1 2252 6 view .LVU4901
	.loc 1 2253 3 view .LVU4902
.L224:
	.loc 1 2263 1 is_stmt 0 view .LVU4903
	adds	r7, r7, #40
	.cfi_remember_state
	.cfi_def_cfa_offset 24
	mov	sp, r7
	.cfi_def_cfa_register 13
	@ sp needed
	pop	{r4, r5, r6, r7, r8, pc}
.LVL480:
.L225:
	.cfi_restore_state
	.loc 1 2256 2 is_stmt 1 view .LVU4904
	.loc 1 2256 6 is_stmt 0 view .LVU4905
	ldr	r2, [r4, #2]	@ unaligned
	ldr	r3, [r4, #6]	@ unaligned
	str	r7, [sp, #4]
	ldrh	r1, [r4, #10]	@ unaligned
	str	r1, [sp]
	bl	bt_smp_request_ltk
.LVL481:
	.loc 1 2256 5 view .LVU4906
	cbz	r0, .L227
	.loc 1 2257 3 is_stmt 1 view .LVU4907
.LVL482:
.LBB5005:
.LBI5005:
	.loc 1 2220 13 view .LVU4908
.LBB5006:
	.loc 1 2222 2 view .LVU4909
	.loc 1 2223 2 view .LVU4910
	.loc 1 2225 2 view .LVU4911
	.loc 1 2225 8 is_stmt 0 view .LVU4912
	movs	r1, #18
	movw	r0, #8218
	bl	bt_hci_cmd_create
.LVL483:
	.loc 1 2227 2 is_stmt 1 view .LVU4913
	.loc 1 2227 5 is_stmt 0 view .LVU4914
	mov	r4, r0
.LVL484:
	.loc 1 2227 5 view .LVU4915
	cbnz	r0, .L228
.LVL485:
.L233:
	.loc 1 2227 5 view .LVU4916
.LBE5006:
.LBE5005:
.LBB5014:
.LBB5015:
	.loc 1 2209 3 is_stmt 1 view .LVU4917
.LBB5016:
	.loc 1 2209 8 view .LVU4918
	.loc 1 2209 57 view .LVU4919
	.loc 1 2209 14 view .LVU4920
	.loc 1 2209 2 view .LVU4921
	.loc 1 2209 41 view .LVU4922
	.loc 1 2209 176 view .LVU4923
	.loc 1 2209 187 view .LVU4924
	.loc 1 2209 275 view .LVU4925
	.loc 1 2209 3 view .LVU4926
	.loc 1 2209 3 view .LVU4927
.LBB5017:
	.loc 1 2209 8 view .LVU4928
	.loc 1 2209 2 view .LVU4929
	.loc 1 2209 12 view .LVU4930
	.loc 1 2209 102 view .LVU4931
	.loc 1 2209 104 view .LVU4932
.LBB5018:
	.loc 1 2209 109 view .LVU4933
	.loc 1 2209 120 view .LVU4934
	.loc 1 2209 209 view .LVU4935
	.loc 1 2209 26 view .LVU4936
	.loc 1 2209 29 view .LVU4937
	.loc 1 2209 3 view .LVU4938
	.loc 1 2209 3 view .LVU4939
	.loc 1 2209 70 view .LVU4940
	.loc 1 2209 74 view .LVU4941
	.loc 1 2209 484 view .LVU4942
	.loc 1 2209 5 view .LVU4943
	.loc 1 2209 7 view .LVU4944
	.loc 1 2209 12 view .LVU4945
	.loc 1 2209 10 view .LVU4946
	.loc 1 2209 5 view .LVU4947
	.loc 1 2209 23 view .LVU4948
.LBB5019:
	.loc 1 2209 3 view .LVU4949
	.loc 1 2209 368 view .LVU4950
	.loc 1 2209 75 view .LVU4951
.LVL486:
	.loc 1 2209 2 view .LVU4952
	.loc 1 2209 2 view .LVU4953
	.loc 1 2209 2 view .LVU4954
	.loc 1 2209 38 view .LVU4955
	.loc 1 2209 67 view .LVU4956
	.loc 1 2209 93 view .LVU4957
	.loc 1 2209 119 view .LVU4958
	.loc 1 2209 142 view .LVU4959
	.loc 1 2209 204 view .LVU4960
	.loc 1 2209 261 view .LVU4961
	.loc 1 2209 326 view .LVU4962
	.loc 1 2209 351 view .LVU4963
	.loc 1 2209 352 view .LVU4964
	.loc 1 2209 354 view .LVU4965
	.loc 1 2209 384 view .LVU4966
	.loc 1 2209 414 view .LVU4967
	.loc 1 2209 446 view .LVU4968
	.loc 1 2209 478 view .LVU4969
	.loc 1 2209 510 view .LVU4970
	.loc 1 2209 707 view .LVU4971
	.loc 1 2209 731 view .LVU4972
	.loc 1 2209 732 view .LVU4973
	.loc 1 2209 734 view .LVU4974
	.loc 1 2209 763 view .LVU4975
	.loc 1 2209 792 view .LVU4976
	.loc 1 2209 823 view .LVU4977
	.loc 1 2209 854 view .LVU4978
	.loc 1 2209 885 view .LVU4979
	.loc 1 2209 1092 view .LVU4980
	.loc 1 2209 4 view .LVU4981
	.loc 1 2209 22 view .LVU4982
	.loc 1 2209 42 view .LVU4983
	.loc 1 2209 4 view .LVU4984
	.loc 1 2209 42 view .LVU4985
	.loc 1 2209 13 view .LVU4986
	.loc 1 2209 13 view .LVU4987
	.loc 1 2209 61 view .LVU4988
	.loc 1 2209 92 view .LVU4989
	.loc 1 2209 126 view .LVU4990
.LBB5020:
	.loc 1 2209 131 view .LVU4991
	.loc 1 2209 377 view .LVU4992
	.loc 1 2209 1414 view .LVU4993
	.loc 1 2209 1479 view .LVU4994
	.loc 1 2209 1688 view .LVU4995
	.loc 1 2209 1728 view .LVU4996
	.loc 1 2209 1753 view .LVU4997
	.loc 1 2209 3034 view .LVU4998
	.loc 1 2209 3072 view .LVU4999
	.loc 1 2209 3077 view .LVU5000
	.loc 1 2209 3647 view .LVU5001
	.loc 1 2209 0 is_stmt 0 view .LVU5002
	ldr	r3, .L235+8
	str	r3, [r7, #36]
	.loc 1 2209 3075 is_stmt 1 view .LVU5003
	.loc 1 2209 7 view .LVU5004
.LVL487:
	.loc 1 2209 30 view .LVU5005
	.loc 1 2209 30 is_stmt 0 view .LVU5006
.LBE5020:
	.loc 1 2209 129 is_stmt 1 view .LVU5007
	.loc 1 2209 5 view .LVU5008
	.loc 1 2209 28 view .LVU5009
	.loc 1 2209 52 view .LVU5010
	.loc 1 2209 80 view .LVU5011
	.loc 1 2209 256 view .LVU5012
	.loc 1 2209 16 view .LVU5013
.LBB5021:
	.loc 1 2209 6 view .LVU5014
	.loc 1 2209 164 view .LVU5015
	.loc 1 2209 166 view .LVU5016
	.loc 1 2209 176 is_stmt 0 view .LVU5017
	movs	r3, #2
.LBE5021:
.LBE5019:
	.loc 1 2209 149 view .LVU5018
	ldr	r0, .L235+4
.LBB5023:
.LBB5022:
	.loc 1 2209 176 view .LVU5019
	str	r3, [r7, #32]
.LVL488:
	.loc 1 2209 176 view .LVU5020
.LBE5022:
.LBE5023:
	.loc 1 2209 26 is_stmt 1 view .LVU5021
	.loc 1 2209 7 view .LVU5022
	.loc 1 2209 147 view .LVU5023
	.loc 1 2209 149 view .LVU5024
	add	r2, r7, #32
.LVL489:
	.loc 1 2209 149 is_stmt 0 view .LVU5025
	mov	r1, #4160
	bl	z_log_msg_static_create.constprop.0
.LVL490:
	.loc 1 2209 149 view .LVU5026
.LBE5018:
	.loc 1 2209 107 is_stmt 1 view .LVU5027
	.loc 1 2209 5 view .LVU5028
.LVL491:
	.loc 1 2209 42 view .LVU5029
.LBE5017:
	.loc 1 2209 6 view .LVU5030
	.loc 1 2209 278 view .LVU5031
	.loc 1 2209 5 view .LVU5032
	.loc 1 2209 18 view .LVU5033
.LBE5016:
	.loc 1 2209 6 view .LVU5034
	.loc 1 2211 3 view .LVU5035
.L229:
	.loc 1 2211 3 is_stmt 0 view .LVU5036
.LBE5015:
.LBE5014:
	.loc 1 2262 2 is_stmt 1 view .LVU5037
	mov	r0, r5
	bl	bt_conn_unref
.LVL492:
	b	.L224
.LVL493:
.L228:
.LBB5028:
.LBB5013:
	.loc 1 2232 2 view .LVU5038
.LBB5007:
.LBI5007:
	.loc 8 1493 21 view .LVU5039
.LBB5008:
	.loc 8 1495 2 view .LVU5040
	.loc 8 1495 9 is_stmt 0 view .LVU5041
	movs	r1, #18
	adds	r0, r0, #12
.LVL494:
	.loc 8 1495 9 view .LVU5042
	bl	net_buf_simple_add
.LVL495:
	.loc 8 1495 9 view .LVU5043
.LBE5008:
.LBE5007:
	.loc 1 2233 2 is_stmt 1 view .LVU5044
	.loc 1 2233 13 is_stmt 0 view .LVU5045
	mov	r3, r0
.LBB5009:
.LBB5010:
	.loc 6 83 299 view .LVU5046
	mov	r2, r7
.LVL496:
	.loc 6 83 299 view .LVU5047
.LBE5010:
.LBE5009:
	.loc 1 2233 13 view .LVU5048
	strh	r6, [r3], #2	@ unaligned
	.loc 1 2234 1 is_stmt 1 view .LVU5049
.LVL497:
.LBB5012:
.LBI5009:
	.loc 6 83 216 view .LVU5050
.LBB5011:
	.loc 6 83 292 view .LVU5051
	.loc 6 83 299 is_stmt 0 view .LVU5052
	add	ip, r7, #16
.LVL498:
.L230:
	.loc 6 83 299 view .LVU5053
	mov	r6, r2
	ldmia	r6!, {r0, r1}
	cmp	r6, ip
	str	r0, [r3]	@ unaligned
	str	r1, [r3, #4]	@ unaligned
	mov	r2, r6
	add	r3, r3, #8
	bne	.L230
.LVL499:
	.loc 6 83 299 view .LVU5054
.LBE5011:
.LBE5012:
	.loc 1 2236 2 is_stmt 1 view .LVU5055
	mov	r1, r4
	movw	r0, #8218
.LVL500:
.L234:
	.loc 1 2236 2 is_stmt 0 view .LVU5056
.LBE5013:
.LBE5028:
.LBB5029:
.LBB5026:
	.loc 1 2217 2 view .LVU5057
	bl	bt_hci_cmd_send
.LVL501:
	b	.L229
.LVL502:
.L227:
	.loc 1 2217 2 view .LVU5058
.LBE5026:
.LBE5029:
	.loc 1 2259 3 is_stmt 1 view .LVU5059
.LBB5030:
.LBI5014:
	.loc 1 2202 13 view .LVU5060
.LBB5027:
	.loc 1 2204 2 view .LVU5061
	.loc 1 2205 2 view .LVU5062
	.loc 1 2207 2 view .LVU5063
	.loc 1 2207 8 is_stmt 0 view .LVU5064
	movs	r1, #2
	movw	r0, #8219
	bl	bt_hci_cmd_create
.LVL503:
	.loc 1 2208 2 is_stmt 1 view .LVU5065
	.loc 1 2208 5 is_stmt 0 view .LVU5066
	mov	r4, r0
.LVL504:
	.loc 1 2208 5 view .LVU5067
	cmp	r0, #0
	beq	.L233
	.loc 1 2214 2 is_stmt 1 view .LVU5068
.LVL505:
.LBB5024:
.LBI5024:
	.loc 8 1493 21 view .LVU5069
.LBB5025:
	.loc 8 1495 2 view .LVU5070
	.loc 8 1495 9 is_stmt 0 view .LVU5071
	movs	r1, #2
	adds	r0, r0, #12
.LVL506:
	.loc 8 1495 9 view .LVU5072
	bl	net_buf_simple_add
.LVL507:
	.loc 8 1495 9 view .LVU5073
.LBE5025:
.LBE5024:
	.loc 1 2215 2 is_stmt 1 view .LVU5074
	.loc 1 2217 2 is_stmt 0 view .LVU5075
	mov	r1, r4
	.loc 1 2215 13 view .LVU5076
	strh	r6, [r0]	@ unaligned
	.loc 1 2217 2 is_stmt 1 view .LVU5077
	movw	r0, #8219
.LVL508:
	.loc 1 2217 2 is_stmt 0 view .LVU5078
	b	.L234
.L236:
	.align	2
.L235:
	.word	.LC21
	.word	log_const_bt_hci_core
	.word	.LC36
.LBE5027:
.LBE5030:
	.cfi_endproc
.LFE645:
	.size	le_ltk_request, .-le_ltk_request
	.section	.text.le_conn_param_neg_reply,"ax",%progbits
	.align	1
	.syntax unified
	.thumb
	.thumb_func
	.type	le_conn_param_neg_reply, %function
le_conn_param_neg_reply:
.LVL509:
.LFB631:
	.loc 1 1738 1 is_stmt 1 view -0
	.cfi_startproc
	@ args = 0, pretend = 0, frame = 0
	@ frame_needed = 0, uses_anonymous_args = 0
	.loc 1 1738 1 is_stmt 0 view .LVU5080
	push	{r4, r5, r6, lr}
	.cfi_def_cfa_offset 16
	.cfi_offset 4, -16
	.cfi_offset 5, -12
	.cfi_offset 6, -8
	.cfi_offset 14, -4
	.loc 1 1738 1 view .LVU5081
	mov	r6, r0
	.loc 1 1739 2 is_stmt 1 view .LVU5082
	.loc 1 1740 2 view .LVU5083
	.loc 1 1742 2 view .LVU5084
	.loc 1 1738 1 is_stmt 0 view .LVU5085
	mov	r5, r1
	.loc 1 1742 8 view .LVU5086
	movw	r0, #8225
.LVL510:
	.loc 1 1742 8 view .LVU5087
	movs	r1, #3
.LVL511:
	.loc 1 1742 8 view .LVU5088
	bl	bt_hci_cmd_create
.LVL512:
	.loc 1 1744 2 is_stmt 1 view .LVU5089
	.loc 1 1744 5 is_stmt 0 view .LVU5090
	mov	r4, r0
	cbnz	r0, .L238
	.loc 1 1754 1 view .LVU5091
	pop	{r4, r5, r6, lr}
	.cfi_remember_state
	.cfi_restore 14
	.cfi_restore 6
	.cfi_restore 5
	.cfi_restore 4
	.cfi_def_cfa_offset 0
	b	le_conn_param_neg_reply.part.0
.LVL513:
.L238:
	.cfi_restore_state
	.loc 1 1749 2 is_stmt 1 view .LVU5092
.LBB5031:
.LBI5031:
	.loc 8 1493 21 view .LVU5093
.LBB5032:
	.loc 8 1495 2 view .LVU5094
	.loc 8 1495 9 is_stmt 0 view .LVU5095
	movs	r1, #3
	adds	r0, r0, #12
.LVL514:
	.loc 8 1495 9 view .LVU5096
	bl	net_buf_simple_add
.LVL515:
	.loc 8 1495 9 view .LVU5097
.LBE5032:
.LBE5031:
	.loc 1 1750 2 is_stmt 1 view .LVU5098
	.loc 1 1750 13 is_stmt 0 view .LVU5099
	strh	r6, [r0]	@ unaligned
	.loc 1 1751 2 is_stmt 1 view .LVU5100
	.loc 1 1751 13 is_stmt 0 view .LVU5101
	strb	r5, [r0, #2]
	.loc 1 1753 2 is_stmt 1 view .LVU5102
	mov	r1, r4
	movw	r0, #8225
.LVL516:
	.loc 1 1754 1 is_stmt 0 view .LVU5103
	pop	{r4, r5, r6, lr}
	.cfi_restore 14
	.cfi_restore 6
	.cfi_restore 5
	.cfi_restore 4
	.cfi_def_cfa_offset 0
.LVL517:
	.loc 1 1753 2 view .LVU5104
	b	bt_hci_cmd_send
.LVL518:
	.loc 1 1753 2 view .LVU5105
	.cfi_endproc
.LFE631:
	.size	le_conn_param_neg_reply, .-le_conn_param_neg_reply
	.section	.text.le_conn_param_req,"ax",%progbits
	.align	1
	.syntax unified
	.thumb
	.thumb_func
	.type	le_conn_param_req, %function
le_conn_param_req:
.LVL519:
.LFB633:
	.loc 1 1780 1 is_stmt 1 view -0
	.cfi_startproc
	@ args = 0, pretend = 0, frame = 8
	@ frame_needed = 1, uses_anonymous_args = 0
	.loc 1 1781 2 view .LVU5107
	.loc 1 1780 1 is_stmt 0 view .LVU5108
	push	{r4, r5, r6, r7, lr}
	.cfi_def_cfa_offset 20
	.cfi_offset 4, -20
	.cfi_offset 5, -16
	.cfi_offset 6, -12
	.cfi_offset 7, -8
	.cfi_offset 14, -4
	sub	sp, sp, #12
	.cfi_def_cfa_offset 32
	.loc 1 1781 39 view .LVU5109
	ldr	r3, [r0, #12]
.LVL520:
	.loc 1 1782 2 is_stmt 1 view .LVU5110
	.loc 1 1783 2 view .LVU5111
	.loc 1 1784 2 view .LVU5112
	.loc 1 1786 2 view .LVU5113
	.loc 1 1787 27 is_stmt 0 view .LVU5114
	ldrb	r1, [r3, #3]	@ zero_extendqisi2
	ldrb	r2, [r3, #2]	@ zero_extendqisi2
	.loc 1 1786 9 view .LVU5115
	ldrh	r6, [r3]	@ unaligned
	.loc 1 1780 1 view .LVU5116
	add	r7, sp, #0
	.cfi_def_cfa_register 7
	.loc 1 1787 27 view .LVU5117
	orr	r2, r2, r1, lsl #8
	.loc 1 1787 21 view .LVU5118
	strh	r2, [r7]	@ movhi
	.loc 1 1788 27 view .LVU5119
	ldrb	r1, [r3, #5]	@ zero_extendqisi2
	ldrb	r2, [r3, #4]	@ zero_extendqisi2
	orr	r2, r2, r1, lsl #8
	.loc 1 1788 21 view .LVU5120
	strh	r2, [r7, #2]	@ movhi
	.loc 1 1789 22 view .LVU5121
	ldrb	r1, [r3, #7]	@ zero_extendqisi2
	ldrb	r2, [r3, #6]	@ zero_extendqisi2
	orr	r2, r2, r1, lsl #8
	.loc 1 1789 16 view .LVU5122
	strh	r2, [r7, #4]	@ movhi
	.loc 1 1790 22 view .LVU5123
	ldrb	r2, [r3, #8]	@ zero_extendqisi2
	ldrb	r3, [r3, #9]	@ zero_extendqisi2
.LVL521:
	.loc 1 1786 9 view .LVU5124
	uxth	r4, r6
.LVL522:
	.loc 1 1787 2 is_stmt 1 view .LVU5125
	.loc 1 1788 2 view .LVU5126
	.loc 1 1789 2 view .LVU5127
	.loc 1 1790 2 view .LVU5128
	.loc 1 1790 22 is_stmt 0 view .LVU5129
	orr	r3, r2, r3, lsl #8
	.loc 1 1792 9 view .LVU5130
	movs	r1, #1
	mov	r0, r4
.LVL523:
	.loc 1 1790 16 view .LVU5131
	strh	r3, [r7, #6]	@ movhi
	.loc 1 1792 2 is_stmt 1 view .LVU5132
	.loc 1 1792 9 is_stmt 0 view .LVU5133
	bl	bt_conn_lookup_handle
.LVL524:
	.loc 1 1793 2 is_stmt 1 view .LVU5134
	.loc 1 1793 5 is_stmt 0 view .LVU5135
	mov	r5, r0
	cbnz	r0, .L240
	.loc 1 1794 3 is_stmt 1 view .LVU5136
.LBB5051:
	.loc 1 1794 8 view .LVU5137
	.loc 1 1794 57 view .LVU5138
	.loc 1 1794 14 view .LVU5139
	.loc 1 1794 2 view .LVU5140
.LVL525:
	.loc 1 1794 41 view .LVU5141
	.loc 1 1794 176 view .LVU5142
	.loc 1 1794 187 view .LVU5143
	.loc 1 1794 275 view .LVU5144
.LBB5052:
	.loc 1 1794 3 view .LVU5145
	.loc 1 1794 5 view .LVU5146
	.loc 1 1794 3 view .LVU5147
.LBB5053:
	.loc 1 1794 8 view .LVU5148
	.loc 1 1794 2 view .LVU5149
.LBE5053:
.LBE5052:
.LBE5051:
	.loc 1 1794 3 view .LVU5150
	.loc 1 1794 12 view .LVU5151
	.loc 1 1794 107 view .LVU5152
	.loc 1 1794 3 view .LVU5153
.LBB5076:
.LBB5072:
.LBB5067:
	.loc 1 1794 12 view .LVU5154
	.loc 1 1794 102 view .LVU5155
	.loc 1 1794 104 view .LVU5156
.LBB5054:
	.loc 1 1794 107 is_stmt 0 view .LVU5157
	mov	r5, sp
	.loc 1 1794 109 is_stmt 1 view .LVU5158
	.loc 1 1794 120 view .LVU5159
.LVL526:
	.loc 1 1794 209 view .LVU5160
	.loc 1 1794 26 view .LVU5161
.LBE5054:
.LBE5067:
.LBE5072:
.LBE5076:
	.loc 1 1794 3 view .LVU5162
	.loc 1 1794 368 view .LVU5163
	.loc 1 1794 75 view .LVU5164
	.loc 1 1794 2 view .LVU5165
	.loc 1 1794 2 view .LVU5166
	.loc 1 1794 2 view .LVU5167
	.loc 1 1794 38 view .LVU5168
	.loc 1 1794 4 view .LVU5169
	.loc 1 1794 30 view .LVU5170
	.loc 1 1794 56 view .LVU5171
	.loc 1 1794 523 view .LVU5172
	.loc 1 1794 585 view .LVU5173
	.loc 1 1794 1106 view .LVU5174
	.loc 1 1794 1171 view .LVU5175
	.loc 1 1794 1196 view .LVU5176
	.loc 1 1794 1197 view .LVU5177
	.loc 1 1794 1199 view .LVU5178
	.loc 1 1794 1229 view .LVU5179
	.loc 1 1794 1259 view .LVU5180
	.loc 1 1794 1291 view .LVU5181
	.loc 1 1794 1323 view .LVU5182
	.loc 1 1794 1355 view .LVU5183
	.loc 1 1794 1552 view .LVU5184
	.loc 1 1794 1576 view .LVU5185
	.loc 1 1794 1577 view .LVU5186
	.loc 1 1794 1579 view .LVU5187
	.loc 1 1794 1608 view .LVU5188
	.loc 1 1794 1637 view .LVU5189
	.loc 1 1794 1668 view .LVU5190
	.loc 1 1794 1699 view .LVU5191
	.loc 1 1794 1730 view .LVU5192
	.loc 1 1794 1937 view .LVU5193
	.loc 1 1794 4 view .LVU5194
	.loc 1 1794 22 view .LVU5195
	.loc 1 1794 42 view .LVU5196
	.loc 1 1794 4 view .LVU5197
	.loc 1 1794 42 view .LVU5198
	.loc 1 1794 13 view .LVU5199
	.loc 1 1794 13 view .LVU5200
	.loc 1 1794 61 view .LVU5201
	.loc 1 1794 92 view .LVU5202
	.loc 1 1794 126 view .LVU5203
	.loc 1 1794 131 view .LVU5204
	.loc 1 1794 390 view .LVU5205
	.loc 1 1794 1479 view .LVU5206
	.loc 1 1794 1544 view .LVU5207
	.loc 1 1794 1568 view .LVU5208
	.loc 1 1794 1631 view .LVU5209
	.loc 1 1794 1642 view .LVU5210
	.loc 1 1794 1763 view .LVU5211
	.loc 1 1794 1779 view .LVU5212
	.loc 1 1794 1819 view .LVU5213
	.loc 1 1794 1844 view .LVU5214
	.loc 1 1794 3151 view .LVU5215
	.loc 1 1794 3192 view .LVU5216
	.loc 1 1794 7 view .LVU5217
	.loc 1 1794 30 view .LVU5218
	.loc 1 1794 129 view .LVU5219
	.loc 1 1794 6 view .LVU5220
	.loc 1 1794 11 view .LVU5221
	.loc 1 1794 236 view .LVU5222
	.loc 1 1794 1189 view .LVU5223
	.loc 1 1794 1254 view .LVU5224
	.loc 1 1794 1278 view .LVU5225
	.loc 1 1794 1307 view .LVU5226
	.loc 1 1794 1318 view .LVU5227
	.loc 1 1794 1405 view .LVU5228
	.loc 1 1794 1421 view .LVU5229
	.loc 1 1794 1461 view .LVU5230
	.loc 1 1794 2725 view .LVU5231
	.loc 1 1794 2766 view .LVU5232
	.loc 1 1794 7 view .LVU5233
	.loc 1 1794 30 view .LVU5234
	.loc 1 1794 9 view .LVU5235
	.loc 1 1794 5 view .LVU5236
	.loc 1 1794 28 view .LVU5237
	.loc 1 1794 52 view .LVU5238
	.loc 1 1794 80 view .LVU5239
	.loc 1 1794 256 view .LVU5240
	.loc 1 1794 16 view .LVU5241
.LBB5077:
.LBB5073:
.LBB5068:
.LBB5063:
	.loc 1 1794 29 view .LVU5242
	.loc 1 1794 3 view .LVU5243
	.loc 1 1794 3 view .LVU5244
	.loc 1 1794 70 view .LVU5245
	.loc 1 1794 82 is_stmt 0 view .LVU5246
	sub	sp, sp, #32
	mov	r2, sp
.LVL527:
	.loc 1 1794 74 is_stmt 1 view .LVU5247
	.loc 1 1794 484 view .LVU5248
	.loc 1 1794 5 view .LVU5249
	.loc 1 1794 7 view .LVU5250
	.loc 1 1794 12 view .LVU5251
	.loc 1 1794 10 view .LVU5252
	.loc 1 1794 5 view .LVU5253
	.loc 1 1794 23 view .LVU5254
.LBB5055:
	.loc 1 1794 3 view .LVU5255
	.loc 1 1794 368 view .LVU5256
	.loc 1 1794 75 view .LVU5257
.LVL528:
	.loc 1 1794 2 view .LVU5258
	.loc 1 1794 2 view .LVU5259
	.loc 1 1794 2 view .LVU5260
	.loc 1 1794 38 view .LVU5261
	.loc 1 1794 67 view .LVU5262
	.loc 1 1794 93 view .LVU5263
	.loc 1 1794 119 view .LVU5264
	.loc 1 1794 586 view .LVU5265
	.loc 1 1794 648 view .LVU5266
	.loc 1 1794 1169 view .LVU5267
	.loc 1 1794 1234 view .LVU5268
	.loc 1 1794 1259 view .LVU5269
	.loc 1 1794 1260 view .LVU5270
	.loc 1 1794 1262 view .LVU5271
	.loc 1 1794 1292 view .LVU5272
	.loc 1 1794 1322 view .LVU5273
	.loc 1 1794 1354 view .LVU5274
	.loc 1 1794 1386 view .LVU5275
	.loc 1 1794 1418 view .LVU5276
	.loc 1 1794 1615 view .LVU5277
	.loc 1 1794 1639 view .LVU5278
	.loc 1 1794 1640 view .LVU5279
	.loc 1 1794 1642 view .LVU5280
	.loc 1 1794 1671 view .LVU5281
	.loc 1 1794 1700 view .LVU5282
	.loc 1 1794 1731 view .LVU5283
	.loc 1 1794 1762 view .LVU5284
	.loc 1 1794 1793 view .LVU5285
	.loc 1 1794 2000 view .LVU5286
.LBB5056:
	.loc 1 1794 3189 view .LVU5287
	.loc 1 1794 3194 view .LVU5288
	.loc 1 1794 3842 view .LVU5289
	.loc 1 1794 0 is_stmt 0 view .LVU5290
	ldr	r3, .L247
.LBE5056:
.LBE5055:
	.loc 1 1794 149 view .LVU5291
	ldr	r0, .L247+4
.LVL529:
	.loc 1 1794 149 view .LVU5292
.LBE5063:
.LBE5068:
	.loc 1 1794 17 view .LVU5293
	strd	r3, r4, [r2, #20]
.LBB5069:
.LBB5064:
.LBB5060:
.LBB5057:
	.loc 1 1794 2766 is_stmt 1 view .LVU5294
	.loc 1 1794 7 view .LVU5295
.LVL530:
	.loc 1 1794 30 view .LVU5296
	.loc 1 1794 30 is_stmt 0 view .LVU5297
.LBE5057:
	.loc 1 1794 9 is_stmt 1 view .LVU5298
	.loc 1 1794 5 view .LVU5299
	.loc 1 1794 28 view .LVU5300
	.loc 1 1794 52 view .LVU5301
	.loc 1 1794 80 view .LVU5302
.LBE5060:
.LBE5064:
.LBE5069:
.LBE5073:
.LBE5077:
	.loc 1 1794 6 view .LVU5303
	.loc 1 1794 45 view .LVU5304
	.loc 1 1794 50 view .LVU5305
	.loc 1 1794 80 view .LVU5306
	.loc 1 1794 147 view .LVU5307
	.loc 1 1794 152 view .LVU5308
	.loc 1 1794 182 view .LVU5309
.LBB5078:
.LBB5074:
.LBB5070:
.LBB5065:
.LBB5061:
	.loc 1 1794 256 view .LVU5310
	.loc 1 1794 16 view .LVU5311
.LBB5058:
	.loc 1 1794 6 view .LVU5312
	.loc 1 1794 164 view .LVU5313
	.loc 1 1794 166 view .LVU5314
	.loc 1 1794 176 is_stmt 0 view .LVU5315
	movs	r3, #3
.LBE5058:
.LBE5061:
	.loc 1 1794 149 view .LVU5316
	mov	r1, #6208
.LBB5062:
.LBB5059:
	.loc 1 1794 176 view .LVU5317
	str	r3, [r2, #16]!
.LVL531:
	.loc 1 1794 176 view .LVU5318
.LBE5059:
.LBE5062:
	.loc 1 1794 26 is_stmt 1 view .LVU5319
	.loc 1 1794 7 view .LVU5320
	.loc 1 1794 147 view .LVU5321
	.loc 1 1794 149 view .LVU5322
	bl	z_log_msg_static_create.constprop.0
.LVL532:
	.loc 1 1794 149 is_stmt 0 view .LVU5323
.LBE5065:
.LBE5070:
.LBE5074:
.LBE5078:
	.loc 1 1795 3 view .LVU5324
	movs	r1, #2
.LBB5079:
.LBB5075:
.LBB5071:
.LBB5066:
	mov	sp, r5
.LVL533:
	.loc 1 1795 3 view .LVU5325
.LBE5066:
	.loc 1 1794 107 is_stmt 1 view .LVU5326
	.loc 1 1794 5 view .LVU5327
	.loc 1 1794 42 view .LVU5328
.LBE5071:
	.loc 1 1794 6 view .LVU5329
.LBE5075:
	.loc 1 1794 278 view .LVU5330
	.loc 1 1794 5 view .LVU5331
	.loc 1 1794 18 view .LVU5332
.LBE5079:
	.loc 1 1794 6 view .LVU5333
	.loc 1 1795 3 view .LVU5334
	mov	r0, r4
	bl	le_conn_param_neg_reply
.LVL534:
	.loc 1 1796 3 view .LVU5335
.L239:
	.loc 1 1806 1 is_stmt 0 view .LVU5336
	adds	r7, r7, #12
	.cfi_remember_state
	.cfi_def_cfa_offset 20
	mov	sp, r7
	.cfi_def_cfa_register 13
	@ sp needed
	pop	{r4, r5, r6, r7, pc}
.LVL535:
.L240:
	.cfi_restore_state
	.loc 1 1799 2 is_stmt 1 view .LVU5337
	.loc 1 1799 7 is_stmt 0 view .LVU5338
	mov	r1, r7
	bl	le_param_req
.LVL536:
	.loc 1 1799 5 view .LVU5339
	cbnz	r0, .L242
	.loc 1 1800 3 is_stmt 1 view .LVU5340
	movs	r1, #30
	mov	r0, r4
	bl	le_conn_param_neg_reply
.LVL537:
.L243:
	.loc 1 1805 2 view .LVU5341
	mov	r0, r5
	bl	bt_conn_unref
.LVL538:
	b	.L239
.L242:
	.loc 1 1802 3 view .LVU5342
.LVL539:
.LBB5080:
.LBI5080:
	.loc 1 1756 12 view .LVU5343
.LBB5081:
	.loc 1 1759 2 view .LVU5344
	.loc 1 1760 2 view .LVU5345
	.loc 1 1762 2 view .LVU5346
	.loc 1 1762 8 is_stmt 0 view .LVU5347
	movs	r1, #14
	movw	r0, #8224
	bl	bt_hci_cmd_create
.LVL540:
	.loc 1 1763 2 is_stmt 1 view .LVU5348
	.loc 1 1763 5 is_stmt 0 view .LVU5349
	mov	r4, r0
	cmp	r0, #0
	beq	.L243
	.loc 1 1767 2 is_stmt 1 view .LVU5350
.LVL541:
.LBB5082:
.LBI5082:
	.loc 8 1493 21 view .LVU5351
.LBB5083:
	.loc 8 1495 2 view .LVU5352
	.loc 8 1495 9 is_stmt 0 view .LVU5353
	movs	r1, #14
	adds	r0, r0, #12
.LVL542:
	.loc 8 1495 9 view .LVU5354
	bl	net_buf_simple_add
.LVL543:
	.loc 8 1495 9 view .LVU5355
.LBE5083:
.LBE5082:
	.loc 1 1768 2 is_stmt 1 view .LVU5356
.LBB5084:
.LBI5084:
	.loc 6 86 189 view .LVU5357
.LBB5085:
	.loc 6 86 238 view .LVU5358
	.loc 6 86 245 is_stmt 0 view .LVU5359
	movs	r3, #0
.LBE5085:
.LBE5084:
	.loc 1 1770 13 view .LVU5360
	strh	r6, [r0]	@ unaligned
.LBB5087:
.LBB5086:
	.loc 6 86 245 view .LVU5361
	str	r3, [r0, #10]	@ unaligned
.LVL544:
	.loc 6 86 245 view .LVU5362
.LBE5086:
.LBE5087:
	.loc 1 1770 2 is_stmt 1 view .LVU5363
	.loc 1 1771 2 view .LVU5364
	.loc 1 1771 19 is_stmt 0 view .LVU5365
	ldrh	r3, [r7]
	strh	r3, [r0, #2]	@ unaligned
	.loc 1 1772 2 is_stmt 1 view .LVU5366
	.loc 1 1772 19 is_stmt 0 view .LVU5367
	ldrh	r3, [r7, #2]
	strh	r3, [r0, #4]	@ unaligned
	.loc 1 1773 2 is_stmt 1 view .LVU5368
	.loc 1 1773 14 is_stmt 0 view .LVU5369
	ldrh	r3, [r7, #4]
	strh	r3, [r0, #6]	@ unaligned
	.loc 1 1774 2 is_stmt 1 view .LVU5370
	.loc 1 1774 14 is_stmt 0 view .LVU5371
	ldrh	r3, [r7, #6]
	strh	r3, [r0, #8]	@ unaligned
	.loc 1 1776 2 is_stmt 1 view .LVU5372
	.loc 1 1776 9 is_stmt 0 view .LVU5373
	mov	r1, r4
	movw	r0, #8224
.LVL545:
	.loc 1 1776 9 view .LVU5374
	bl	bt_hci_cmd_send
.LVL546:
	b	.L243
.L248:
	.align	2
.L247:
	.word	.LC21
	.word	log_const_bt_hci_core
.LBE5081:
.LBE5080:
	.cfi_endproc
.LFE633:
	.size	le_conn_param_req, .-le_conn_param_req
	.section	.rodata.bt_hci_cmd_send_sync.str1.1,"aMS",%progbits,1
.LC37:
	.ascii	"\011command opcode 0x%04x timeout with err %d\012\000"
.LC38:
	.ascii	"opcode 0x%04x status 0x%02x\000"
	.section	.text.bt_hci_cmd_send_sync,"ax",%progbits
	.align	1
	.global	bt_hci_cmd_send_sync
	.syntax unified
	.thumb
	.thumb_func
	.type	bt_hci_cmd_send_sync, %function
bt_hci_cmd_send_sync:
.LVL547:
.LFB599:
	.loc 1 318 1 is_stmt 1 view -0
	.cfi_startproc
	@ args = 0, pretend = 0, frame = 24
	@ frame_needed = 1, uses_anonymous_args = 0
	.loc 1 319 2 view .LVU5376
	.loc 1 320 2 view .LVU5377
	.loc 1 321 2 view .LVU5378
	.loc 1 323 2 view .LVU5379
	.loc 1 318 1 is_stmt 0 view .LVU5380
	push	{r4, r5, r6, r7, r8, r9, lr}
	.cfi_def_cfa_offset 28
	.cfi_offset 4, -28
	.cfi_offset 5, -24
	.cfi_offset 6, -20
	.cfi_offset 7, -16
	.cfi_offset 8, -12
	.cfi_offset 9, -8
	.cfi_offset 14, -4
	sub	sp, sp, #28
	.cfi_def_cfa_offset 56
	mov	r8, r0
	add	r7, sp, #0
	.cfi_def_cfa_register 7
	.loc 1 318 1 view .LVU5381
	mov	r5, r2
	.loc 1 323 5 view .LVU5382
	mov	r4, r1
	cbnz	r1, .L250
	.loc 1 324 3 is_stmt 1 view .LVU5383
	.loc 1 324 9 is_stmt 0 view .LVU5384
	bl	bt_hci_cmd_create
.LVL548:
	.loc 1 325 3 is_stmt 1 view .LVU5385
	.loc 1 325 6 is_stmt 0 view .LVU5386
	mov	r4, r0
	cmp	r0, #0
	beq	.L256
.LVL549:
.L250:
	.loc 1 330 2 is_stmt 1 discriminator 435 view .LVU5387
.LBB5109:
	.loc 1 330 7 discriminator 435 view .LVU5388
.LBE5109:
	.loc 1 330 5 discriminator 435 view .LVU5389
	.loc 1 332 2 discriminator 435 view .LVU5390
.LBB5110:
.LBI5110:
	.loc 11 1075 19 discriminator 435 view .LVU5391
.LBB5111:
	.loc 11 1085 2 discriminator 435 view .LVU5392
	.loc 11 1085 7 discriminator 435 view .LVU5393
	.loc 11 1085 5 discriminator 435 view .LVU5394
	.loc 11 1086 2 discriminator 435 view .LVU5395
	.loc 11 1086 9 is_stmt 0 discriminator 435 view .LVU5396
	movs	r2, #1
	movs	r1, #0
	mov	r0, r7
.LVL550:
	.loc 11 1086 9 discriminator 435 view .LVU5397
	bl	z_impl_k_sem_init
.LVL551:
	.loc 11 1086 9 discriminator 435 view .LVU5398
.LBE5111:
.LBE5110:
	.loc 1 333 2 is_stmt 1 discriminator 435 view .LVU5399
	.loc 1 333 13 is_stmt 0 discriminator 435 view .LVU5400
	mov	r0, r4
	bl	net_buf_id
.LVL552:
	.loc 1 333 37 discriminator 435 view .LVU5401
	ldr	r9, .L262+28
	movs	r3, #12
	mla	r0, r3, r0, r9
	str	r7, [r0, #8]
	.loc 1 335 2 is_stmt 1 discriminator 435 view .LVU5402
	mov	r0, r4
	bl	net_buf_ref
.LVL553:
	mov	r1, r0
	ldr	r0, .L262
	bl	net_buf_put
.LVL554:
	.loc 1 337 2 discriminator 435 view .LVU5403
.LBB5112:
.LBI5112:
	.loc 11 1093 19 discriminator 435 view .LVU5404
.LBB5113:
	.loc 11 1102 2 discriminator 435 view .LVU5405
	.loc 11 1102 7 discriminator 435 view .LVU5406
	.loc 11 1102 5 discriminator 435 view .LVU5407
	.loc 11 1103 2 discriminator 435 view .LVU5408
	.loc 11 1103 9 is_stmt 0 discriminator 435 view .LVU5409
	mov	r2, #327680
	movs	r3, #0
	mov	r0, r7
.LVL555:
	.loc 11 1103 9 discriminator 435 view .LVU5410
	bl	z_impl_k_sem_take
.LVL556:
	.loc 11 1103 9 discriminator 435 view .LVU5411
.LBE5113:
.LBE5112:
	.loc 1 338 2 is_stmt 1 discriminator 435 view .LVU5412
	.loc 1 338 7 discriminator 435 view .LVU5413
	.loc 1 338 10 is_stmt 0 discriminator 435 view .LVU5414
	mov	r6, r0
	cbz	r0, .L252
	.loc 1 338 26 is_stmt 1 discriminator 1 view .LVU5415
	mov	r3, #338
	ldr	r2, .L262+4
	ldr	r1, .L262+8
	ldr	r0, .L262+12
.LVL557:
	.loc 1 338 26 is_stmt 0 discriminator 1 view .LVU5416
	bl	assert_print
.LVL558:
	.loc 1 338 145 is_stmt 1 discriminator 1 view .LVU5417
	ldr	r0, .L262+16
	mov	r2, r6
	mov	r1, r8
	bl	assert_print
.LVL559:
	.loc 1 338 227 discriminator 1 view .LVU5418
	.loc 1 338 232 discriminator 1 view .LVU5419
	.syntax unified
@ 338 "/home/g/mise-work/zmk-firmware/zmk/zephyr/subsys/bluetooth/host/hci_core.c" 1
	eors.n r0, r0
	msr BASEPRI, r0
	mov r0, #3
	svc #2
	
@ 0 "" 2
	.thumb
	.syntax unified
.L252:
	.loc 1 338 230 discriminator 3 view .LVU5420
	.loc 1 338 5 discriminator 3 view .LVU5421
	.loc 1 340 2 discriminator 3 view .LVU5422
	.loc 1 340 22 is_stmt 0 discriminator 3 view .LVU5423
	mov	r0, r4
	bl	net_buf_id
.LVL560:
	.loc 1 340 9 discriminator 3 view .LVU5424
	movs	r3, #12
	muls	r0, r3, r0
	ldrb	r6, [r9, r0]	@ zero_extendqisi2
.LVL561:
	.loc 1 341 2 is_stmt 1 discriminator 3 view .LVU5425
	.loc 1 341 5 is_stmt 0 discriminator 3 view .LVU5426
	cbz	r6, .L253
	.loc 1 342 3 is_stmt 1 view .LVU5427
.LBB5114:
	.loc 1 342 8 view .LVU5428
	.loc 1 342 57 view .LVU5429
	.loc 1 342 14 view .LVU5430
	.loc 1 342 2 view .LVU5431
.LVL562:
	.loc 1 342 41 view .LVU5432
	.loc 1 342 176 view .LVU5433
	.loc 1 342 187 view .LVU5434
	.loc 1 342 275 view .LVU5435
.LBB5115:
	.loc 1 342 3 view .LVU5436
	.loc 1 342 5 view .LVU5437
	.loc 1 342 38 view .LVU5438
	.loc 1 342 3 view .LVU5439
.LBB5116:
	.loc 1 342 8 view .LVU5440
	.loc 1 342 2 view .LVU5441
.LBE5116:
.LBE5115:
.LBE5114:
	.loc 1 342 3 view .LVU5442
	.loc 1 342 12 view .LVU5443
	.loc 1 342 107 view .LVU5444
	.loc 1 342 3 view .LVU5445
.LBB5143:
.LBB5138:
.LBB5132:
	.loc 1 342 12 view .LVU5446
	.loc 1 342 102 view .LVU5447
	.loc 1 342 104 view .LVU5448
.LBB5117:
	.loc 1 342 107 is_stmt 0 view .LVU5449
	mov	r5, sp
.LVL563:
	.loc 1 342 109 is_stmt 1 view .LVU5450
	.loc 1 342 120 view .LVU5451
	.loc 1 342 209 view .LVU5452
	.loc 1 342 26 view .LVU5453
.LBE5117:
.LBE5132:
.LBE5138:
.LBE5143:
	.loc 1 342 3 view .LVU5454
	.loc 1 342 368 view .LVU5455
	.loc 1 342 75 view .LVU5456
	.loc 1 342 2 view .LVU5457
	.loc 1 342 2 view .LVU5458
	.loc 1 342 2 view .LVU5459
	.loc 1 342 38 view .LVU5460
	.loc 1 342 4 view .LVU5461
	.loc 1 342 30 view .LVU5462
	.loc 1 342 56 view .LVU5463
	.loc 1 342 969 view .LVU5464
	.loc 1 342 1031 view .LVU5465
	.loc 1 342 2018 view .LVU5466
	.loc 1 342 2083 view .LVU5467
	.loc 1 342 2108 view .LVU5468
	.loc 1 342 2109 view .LVU5469
	.loc 1 342 2111 view .LVU5470
	.loc 1 342 2141 view .LVU5471
	.loc 1 342 2171 view .LVU5472
	.loc 1 342 2203 view .LVU5473
	.loc 1 342 2235 view .LVU5474
	.loc 1 342 2267 view .LVU5475
	.loc 1 342 2464 view .LVU5476
	.loc 1 342 2488 view .LVU5477
	.loc 1 342 2489 view .LVU5478
	.loc 1 342 2491 view .LVU5479
	.loc 1 342 2520 view .LVU5480
	.loc 1 342 2549 view .LVU5481
	.loc 1 342 2580 view .LVU5482
	.loc 1 342 2611 view .LVU5483
	.loc 1 342 2642 view .LVU5484
	.loc 1 342 2849 view .LVU5485
	.loc 1 342 4 view .LVU5486
	.loc 1 342 22 view .LVU5487
	.loc 1 342 42 view .LVU5488
	.loc 1 342 4 view .LVU5489
	.loc 1 342 42 view .LVU5490
	.loc 1 342 13 view .LVU5491
	.loc 1 342 13 view .LVU5492
	.loc 1 342 61 view .LVU5493
	.loc 1 342 92 view .LVU5494
	.loc 1 342 126 view .LVU5495
	.loc 1 342 131 view .LVU5496
	.loc 1 342 382 view .LVU5497
	.loc 1 342 1439 view .LVU5498
	.loc 1 342 1504 view .LVU5499
	.loc 1 342 1528 view .LVU5500
	.loc 1 342 1583 view .LVU5501
	.loc 1 342 1594 view .LVU5502
	.loc 1 342 1707 view .LVU5503
	.loc 1 342 1723 view .LVU5504
	.loc 1 342 1763 view .LVU5505
	.loc 1 342 1788 view .LVU5506
	.loc 1 342 3079 view .LVU5507
	.loc 1 342 3120 view .LVU5508
	.loc 1 342 7 view .LVU5509
	.loc 1 342 30 view .LVU5510
	.loc 1 342 129 view .LVU5511
	.loc 1 342 6 view .LVU5512
	.loc 1 342 11 view .LVU5513
	.loc 1 342 236 view .LVU5514
	.loc 1 342 1189 view .LVU5515
	.loc 1 342 1254 view .LVU5516
	.loc 1 342 1278 view .LVU5517
	.loc 1 342 1307 view .LVU5518
	.loc 1 342 1318 view .LVU5519
	.loc 1 342 1405 view .LVU5520
	.loc 1 342 1421 view .LVU5521
	.loc 1 342 1461 view .LVU5522
	.loc 1 342 2725 view .LVU5523
	.loc 1 342 2766 view .LVU5524
	.loc 1 342 7 view .LVU5525
	.loc 1 342 30 view .LVU5526
	.loc 1 342 9 view .LVU5527
	.loc 1 342 6 view .LVU5528
	.loc 1 342 11 view .LVU5529
	.loc 1 342 236 view .LVU5530
	.loc 1 342 1189 view .LVU5531
	.loc 1 342 1254 view .LVU5532
	.loc 1 342 1278 view .LVU5533
	.loc 1 342 1307 view .LVU5534
	.loc 1 342 1318 view .LVU5535
	.loc 1 342 1405 view .LVU5536
	.loc 1 342 1421 view .LVU5537
	.loc 1 342 1461 view .LVU5538
	.loc 1 342 2725 view .LVU5539
	.loc 1 342 2766 view .LVU5540
	.loc 1 342 7 view .LVU5541
	.loc 1 342 30 view .LVU5542
	.loc 1 342 9 view .LVU5543
	.loc 1 342 5 view .LVU5544
	.loc 1 342 28 view .LVU5545
	.loc 1 342 52 view .LVU5546
	.loc 1 342 80 view .LVU5547
	.loc 1 342 256 view .LVU5548
	.loc 1 342 16 view .LVU5549
.LBB5144:
.LBB5139:
.LBB5133:
.LBB5127:
	.loc 1 342 29 view .LVU5550
	.loc 1 342 3 view .LVU5551
	.loc 1 342 3 view .LVU5552
	.loc 1 342 70 view .LVU5553
	.loc 1 342 82 is_stmt 0 view .LVU5554
	sub	sp, sp, #32
	mov	r2, sp
.LVL564:
	.loc 1 342 74 is_stmt 1 view .LVU5555
	.loc 1 342 484 view .LVU5556
	.loc 1 342 5 view .LVU5557
	.loc 1 342 7 view .LVU5558
	.loc 1 342 12 view .LVU5559
	.loc 1 342 10 view .LVU5560
	.loc 1 342 5 view .LVU5561
	.loc 1 342 23 view .LVU5562
.LBB5118:
	.loc 1 342 3 view .LVU5563
	.loc 1 342 368 view .LVU5564
	.loc 1 342 75 view .LVU5565
.LVL565:
	.loc 1 342 2 view .LVU5566
	.loc 1 342 2 view .LVU5567
	.loc 1 342 2 view .LVU5568
	.loc 1 342 38 view .LVU5569
	.loc 1 342 67 view .LVU5570
	.loc 1 342 93 view .LVU5571
	.loc 1 342 119 view .LVU5572
	.loc 1 342 1032 view .LVU5573
	.loc 1 342 1094 view .LVU5574
	.loc 1 342 2081 view .LVU5575
	.loc 1 342 2146 view .LVU5576
	.loc 1 342 2171 view .LVU5577
	.loc 1 342 2172 view .LVU5578
	.loc 1 342 2174 view .LVU5579
	.loc 1 342 2204 view .LVU5580
	.loc 1 342 2234 view .LVU5581
	.loc 1 342 2266 view .LVU5582
	.loc 1 342 2298 view .LVU5583
	.loc 1 342 2330 view .LVU5584
	.loc 1 342 2527 view .LVU5585
	.loc 1 342 2551 view .LVU5586
	.loc 1 342 2552 view .LVU5587
	.loc 1 342 2554 view .LVU5588
	.loc 1 342 2583 view .LVU5589
	.loc 1 342 2612 view .LVU5590
	.loc 1 342 2643 view .LVU5591
	.loc 1 342 2674 view .LVU5592
	.loc 1 342 2705 view .LVU5593
	.loc 1 342 2912 view .LVU5594
.LBB5119:
	.loc 1 342 3117 view .LVU5595
	.loc 1 342 3122 view .LVU5596
	.loc 1 342 3722 view .LVU5597
	.loc 1 342 0 is_stmt 0 view .LVU5598
	ldr	r3, .L262+20
.LBE5119:
.LBE5118:
.LBE5127:
.LBE5133:
	.loc 1 342 50 view .LVU5599
	str	r6, [r2, #28]
	.loc 1 342 17 view .LVU5600
	strd	r3, r8, [r2, #20]
.LBB5134:
.LBB5128:
.LBB5124:
.LBB5120:
	.loc 1 342 2766 is_stmt 1 view .LVU5601
	.loc 1 342 7 view .LVU5602
.LVL566:
	.loc 1 342 30 view .LVU5603
	.loc 1 342 30 is_stmt 0 view .LVU5604
.LBE5120:
	.loc 1 342 9 is_stmt 1 view .LVU5605
	.loc 1 342 6 view .LVU5606
.LBB5121:
	.loc 1 342 11 view .LVU5607
	.loc 1 342 236 view .LVU5608
	.loc 1 342 1189 view .LVU5609
	.loc 1 342 1254 view .LVU5610
.LBE5121:
.LBE5124:
.LBE5128:
.LBE5134:
.LBE5139:
.LBE5144:
	.loc 1 342 1278 view .LVU5611
	.loc 1 342 1307 view .LVU5612
	.loc 1 342 1318 view .LVU5613
	.loc 1 342 1405 view .LVU5614
.LBB5145:
.LBB5140:
.LBB5135:
.LBB5129:
.LBB5125:
.LBB5122:
	.loc 1 342 1421 view .LVU5615
	.loc 1 342 1461 view .LVU5616
	.loc 1 342 2725 view .LVU5617
	.loc 1 342 2763 view .LVU5618
	.loc 1 342 2768 view .LVU5619
	.loc 1 342 3212 view .LVU5620
	.loc 1 342 2766 view .LVU5621
	.loc 1 342 7 view .LVU5622
	.loc 1 342 30 view .LVU5623
	.loc 1 342 30 is_stmt 0 view .LVU5624
.LBE5122:
	.loc 1 342 9 is_stmt 1 view .LVU5625
	.loc 1 342 5 view .LVU5626
	.loc 1 342 28 view .LVU5627
	.loc 1 342 52 view .LVU5628
	.loc 1 342 80 view .LVU5629
.LBE5125:
.LBE5129:
.LBE5135:
.LBE5140:
.LBE5145:
	.loc 1 342 6 view .LVU5630
	.loc 1 342 45 view .LVU5631
	.loc 1 342 50 view .LVU5632
	.loc 1 342 80 view .LVU5633
	.loc 1 342 147 view .LVU5634
	.loc 1 342 152 view .LVU5635
	.loc 1 342 182 view .LVU5636
.LBB5146:
.LBB5141:
.LBB5136:
.LBB5130:
.LBB5126:
	.loc 1 342 256 view .LVU5637
	.loc 1 342 16 view .LVU5638
.LBB5123:
	.loc 1 342 6 view .LVU5639
	.loc 1 342 164 view .LVU5640
	.loc 1 342 166 view .LVU5641
	.loc 1 342 176 is_stmt 0 view .LVU5642
	movs	r3, #4
	str	r3, [r2, #16]!
.LVL567:
	.loc 1 342 176 view .LVU5643
.LBE5123:
.LBE5126:
	.loc 1 342 26 is_stmt 1 view .LVU5644
	.loc 1 342 7 view .LVU5645
	.loc 1 342 147 view .LVU5646
	.loc 1 342 149 view .LVU5647
	ldr	r0, .L262+24
	mov	r1, #8320
	bl	z_log_msg_static_create.constprop.0
.LVL568:
	.loc 1 342 149 is_stmt 0 view .LVU5648
.LBE5130:
.LBE5136:
.LBE5141:
.LBE5146:
	.loc 1 343 3 view .LVU5649
	mov	r0, r4
.LBB5147:
.LBB5142:
.LBB5137:
.LBB5131:
	mov	sp, r5
.LVL569:
	.loc 1 343 3 view .LVU5650
.LBE5131:
	.loc 1 342 107 is_stmt 1 view .LVU5651
	.loc 1 342 5 view .LVU5652
	.loc 1 342 42 view .LVU5653
.LBE5137:
	.loc 1 342 6 view .LVU5654
.LBE5142:
	.loc 1 342 278 view .LVU5655
	.loc 1 342 5 view .LVU5656
	.loc 1 342 18 view .LVU5657
.LBE5147:
	.loc 1 342 6 view .LVU5658
	.loc 1 343 3 view .LVU5659
	bl	net_buf_unref
.LVL570:
	.loc 1 345 3 view .LVU5660
	cmp	r6, #9
	beq	.L257
	.loc 1 351 11 is_stmt 0 view .LVU5661
	cmp	r6, #13
	ite	eq
	mvneq	r0, #11
	mvnne	r0, #4
.LVL571:
.L249:
	.loc 1 364 1 view .LVU5662
	adds	r7, r7, #28
	.cfi_remember_state
	.cfi_def_cfa_offset 28
	mov	sp, r7
	.cfi_def_cfa_register 13
	@ sp needed
	pop	{r4, r5, r6, r7, r8, r9, pc}
.LVL572:
.L253:
	.cfi_restore_state
	.loc 1 355 2 is_stmt 1 discriminator 435 view .LVU5663
.LBB5148:
	.loc 1 355 7 discriminator 435 view .LVU5664
.LBE5148:
	.loc 1 355 5 discriminator 435 view .LVU5665
	.loc 1 357 2 discriminator 435 view .LVU5666
	.loc 1 357 5 is_stmt 0 discriminator 435 view .LVU5667
	cbz	r5, .L254
	.loc 1 358 3 is_stmt 1 view .LVU5668
	.loc 1 358 8 is_stmt 0 view .LVU5669
	str	r4, [r5]
.L255:
	.loc 1 363 9 view .LVU5670
	movs	r0, #0
	b	.L249
.L254:
	.loc 1 360 3 is_stmt 1 view .LVU5671
	mov	r0, r4
	bl	net_buf_unref
.LVL573:
	b	.L255
.LVL574:
.L256:
	.loc 1 326 11 is_stmt 0 view .LVU5672
	mvn	r0, #104
.LVL575:
	.loc 1 326 11 view .LVU5673
	b	.L249
.LVL576:
.L257:
	.loc 1 347 11 view .LVU5674
	mvn	r0, #110
	b	.L249
.L263:
	.align	2
.L262:
	.word	bt_dev+324
	.word	.LC26
	.word	.LC27
	.word	.LC28
	.word	.LC37
	.word	.LC38
	.word	log_const_bt_hci_core
	.word	cmd_data
	.cfi_endproc
.LFE599:
	.size	bt_hci_cmd_send_sync, .-bt_hci_cmd_send_sync
	.section	.rodata.hci_le_read_max_data_len.str1.1,"aMS",%progbits,1
.LC39:
	.ascii	"Failed to read DLE max data len\000"
	.section	.text.hci_le_read_max_data_len,"ax",%progbits
	.align	1
	.syntax unified
	.thumb
	.thumb_func
	.type	hci_le_read_max_data_len, %function
hci_le_read_max_data_len:
.LVL577:
.LFB601:
	.loc 1 399 1 is_stmt 1 view -0
	.cfi_startproc
	@ args = 0, pretend = 0, frame = 32
	@ frame_needed = 0, uses_anonymous_args = 0
	.loc 1 400 2 view .LVU5676
	.loc 1 401 2 view .LVU5677
	.loc 1 402 2 view .LVU5678
	.loc 1 404 2 view .LVU5679
	.loc 1 399 1 is_stmt 0 view .LVU5680
	push	{r4, r5, r6, lr}
	.cfi_def_cfa_offset 16
	.cfi_offset 4, -16
	.cfi_offset 5, -12
	.cfi_offset 6, -8
	.cfi_offset 14, -4
	sub	sp, sp, #32
	.cfi_def_cfa_offset 48
	.loc 1 399 1 view .LVU5681
	mov	r6, r0
	mov	r5, r1
