	.cpu cortex-m4
	.arch armv7e-m
	.fpu fpv4-sp-d16
	.eabi_attribute 27, 1
	.eabi_attribute 28, 1
	.eabi_attribute 20, 1
	.eabi_attribute 21, 1
	.eabi_attribute 23, 3
	.eabi_attribute 24, 1
	.eabi_attribute 25, 1
	.eabi_attribute 26, 1
	.eabi_attribute 30, 4
	.eabi_attribute 34, 1
	.eabi_attribute 38, 1
	.eabi_attribute 18, 4
	.file	"long_wq.c"
	.text
.Ltext0:
	.cfi_sections	.debug_frame
	.file 1 "/home/g/mise-work/zmk-firmware/zmk/zephyr/subsys/bluetooth/host/long_wq.c"
	.section	.rodata.long_wq_init.str1.1,"aMS",%progbits,1
.LC0:
	.ascii	"BT_LW_WQ\000"
	.section	.text.long_wq_init,"ax",%progbits
	.align	1
	.syntax unified
	.thumb
	.thumb_func
	.type	long_wq_init, %function
long_wq_init:
.LFB447:
	.loc 1 30 1 view -0
	.cfi_startproc
	@ args = 0, pretend = 0, frame = 8
	@ frame_needed = 0, uses_anonymous_args = 0
	.loc 1 32 2 view .LVU1
	.loc 1 30 1 is_stmt 0 view .LVU2
	push	{r4, r5, lr}
	.cfi_def_cfa_offset 12
	.cfi_offset 4, -12
	.cfi_offset 5, -8
	.cfi_offset 14, -4
	.loc 1 34 2 view .LVU3
	ldr	r5, .L2
	.loc 1 32 35 view .LVU4
	ldr	r3, .L2+4
	.loc 1 30 1 view .LVU5
	sub	sp, sp, #20
	.cfi_def_cfa_offset 32
	.loc 1 32 35 view .LVU6
	movs	r4, #0
	.loc 1 34 2 view .LVU7
	mov	r0, r5
	.loc 1 32 35 view .LVU8
	str	r3, [sp, #8]
	.loc 1 34 2 is_stmt 1 view .LVU9
	.loc 1 32 35 is_stmt 0 view .LVU10
	str	r4, [sp, #12]
	.loc 1 34 2 view .LVU11
	bl	k_work_queue_init
.LVL0:
	.loc 1 36 2 is_stmt 1 view .LVU12
	add	r3, sp, #8
	str	r3, [sp]
	mov	r0, r5
	ldr	r1, .L2+8
	movs	r3, #10
	mov	r2, #1304
	bl	k_work_queue_start
.LVL1:
	.loc 1 40 2 view .LVU13
	.loc 1 41 1 is_stmt 0 view .LVU14
	mov	r0, r4
	add	sp, sp, #20
	.cfi_def_cfa_offset 12
	@ sp needed
	pop	{r4, r5, pc}
.L3:
	.align	2
.L2:
	.word	bt_long_wq
	.word	.LC0
	.word	bt_lw_stack_area
	.cfi_endproc
.LFE447:
	.size	long_wq_init, .-long_wq_init
	.section	.text.bt_long_wq_schedule,"ax",%progbits
	.align	1
	.global	bt_long_wq_schedule
	.syntax unified
	.thumb
	.thumb_func
	.type	bt_long_wq_schedule, %function
bt_long_wq_schedule:
.LVL2:
.LFB444:
	.loc 1 15 1 is_stmt 1 view -0
	.cfi_startproc
	@ args = 0, pretend = 0, frame = 0
	@ frame_needed = 0, uses_anonymous_args = 0
	@ link register save eliminated.
	.loc 1 16 2 view .LVU16
	.loc 1 15 1 is_stmt 0 view .LVU17
	mov	r1, r0
	.loc 1 16 9 view .LVU18
	ldr	r0, .L5
.LVL3:
	.loc 1 16 9 view .LVU19
	b	k_work_schedule_for_queue
.LVL4:
.L6:
	.loc 1 16 9 view .LVU20
	.align	2
.L5:
	.word	bt_long_wq
	.cfi_endproc
.LFE444:
	.size	bt_long_wq_schedule, .-bt_long_wq_schedule
	.section	.text.bt_long_wq_reschedule,"ax",%progbits
	.align	1
	.global	bt_long_wq_reschedule
	.syntax unified
	.thumb
	.thumb_func
	.type	bt_long_wq_reschedule, %function
bt_long_wq_reschedule:
.LVL5:
.LFB445:
	.loc 1 20 1 is_stmt 1 view -0
	.cfi_startproc
	@ args = 0, pretend = 0, frame = 0
	@ frame_needed = 0, uses_anonymous_args = 0
	@ link register save eliminated.
	.loc 1 21 2 view .LVU22
	.loc 1 20 1 is_stmt 0 view .LVU23
	mov	r1, r0
	.loc 1 21 9 view .LVU24
	ldr	r0, .L8
.LVL6:
	.loc 1 21 9 view .LVU25
	b	k_work_reschedule_for_queue
.LVL7:
.L9:
	.loc 1 21 9 view .LVU26
	.align	2
.L8:
	.word	bt_long_wq
	.cfi_endproc
.LFE445:
	.size	bt_long_wq_reschedule, .-bt_long_wq_reschedule
	.section	.text.bt_long_wq_submit,"ax",%progbits
	.align	1
	.global	bt_long_wq_submit
	.syntax unified
	.thumb
	.thumb_func
	.type	bt_long_wq_submit, %function
bt_long_wq_submit:
.LVL8:
.LFB446:
	.loc 1 25 1 is_stmt 1 view -0
	.cfi_startproc
	@ args = 0, pretend = 0, frame = 0
	@ frame_needed = 0, uses_anonymous_args = 0
	@ link register save eliminated.
	.loc 1 26 2 view .LVU28
	.loc 1 25 1 is_stmt 0 view .LVU29
	mov	r1, r0
	.loc 1 26 9 view .LVU30
	ldr	r0, .L11
.LVL9:
	.loc 1 26 9 view .LVU31
	b	k_work_submit_to_queue
.LVL10:
.L12:
	.loc 1 26 9 view .LVU32
	.align	2
.L11:
	.word	bt_long_wq
	.cfi_endproc
.LFE446:
	.size	bt_long_wq_submit, .-bt_long_wq_submit
	.section	.z_init_POST_KERNEL50_0_,"a"
	.align	2
	.type	__init_long_wq_init, %object
	.size	__init_long_wq_init, 8
__init_long_wq_init:
	.word	long_wq_init
	.word	0
	.section	.bss.bt_long_wq,"aw",%nobits
	.align	3
	.type	bt_long_wq, %object
	.size	bt_long_wq, 232
bt_long_wq:
	.space	232
	.global	bt_lw_stack_area
	.section	.noinit."WEST_TOPDIR/zephyr/subsys/bluetooth/host/long_wq.c".0,"aw"
	.align	3
	.type	bt_lw_stack_area, %object
	.size	bt_lw_stack_area, 1304
bt_lw_stack_area:
	.space	1304
	.text
.Letext0:
	.file 2 "/home/g/zephyr-sdk-0.16.3/arm-zephyr-eabi/lib/gcc/arm-zephyr-eabi/12.2.0/include/stddef.h"
	.file 3 "/home/g/zephyr-sdk-0.16.3/arm-zephyr-eabi/picolibc/include/machine/_default_types.h"
	.file 4 "/home/g/zephyr-sdk-0.16.3/arm-zephyr-eabi/picolibc/include/sys/_stdint.h"
	.file 5 "/home/g/mise-work/zmk-firmware/zmk/zephyr/include/zephyr/sys/dlist.h"
	.file 6 "/home/g/mise-work/zmk-firmware/zmk/zephyr/include/zephyr/sys/rb.h"
	.file 7 "/home/g/mise-work/zmk-firmware/zmk/zephyr/include/zephyr/sys/slist.h"
	.file 8 "/home/g/mise-work/zmk-firmware/zmk/zephyr/include/zephyr/sys/sys_heap.h"
	.file 9 "/home/g/mise-work/zmk-firmware/zmk/zephyr/include/zephyr/kernel/thread.h"
	.file 10 "/home/g/mise-work/zmk-firmware/zmk/zephyr/include/zephyr/kernel_structs.h"
	.file 11 "/home/g/mise-work/zmk-firmware/zmk/zephyr/include/zephyr/sys/arch_interface.h"
	.file 12 "/home/g/mise-work/zmk-firmware/zmk/zephyr/include/zephyr/kernel/thread_stack.h"
	.file 13 "/home/g/mise-work/zmk-firmware/zmk/zephyr/include/zephyr/arch/arm/thread.h"
	.file 14 "/home/g/mise-work/zmk-firmware/zmk/zephyr/include/zephyr/sys_clock.h"
	.file 15 "/home/g/mise-work/zmk-firmware/zmk/zephyr/include/zephyr/kernel.h"
	.file 16 "/home/g/mise-work/zmk-firmware/zmk/zephyr/include/zephyr/fatal_types.h"
	.file 17 "/home/g/mise-work/zmk-firmware/zmk/zephyr/include/zephyr/init.h"
	.file 18 "/home/g/mise-work/zmk-firmware/zmk/zephyr/include/zephyr/spinlock.h"