	.cpu cortex-m4
	.arch armv7e-m
	.fpu fpv4-sp-d16
	.eabi_attribute 27, 1
	.eabi_attribute 28, 1
	.eabi_attribute 20, 1
	.eabi_attribute 21, 1
	.eabi_attribute 23, 3
	.eabi_attribute 24, 1
	.eabi_attribute 25, 1
	.eabi_attribute 26, 1
	.eabi_attribute 30, 4
	.eabi_attribute 34, 1
	.eabi_attribute 38, 1
	.eabi_attribute 18, 4
	.file	"settings.c"
	.text
.Ltext0:
	.cfi_sections	.debug_frame
	.file 1 "/home/g/mise-work/zmk-firmware/zmk/zephyr/subsys/bluetooth/host/settings.c"
	.section	.text.do_store_irk,"ax",%progbits
	.align	1
	.syntax unified
	.thumb
	.thumb_func
	.type	do_store_irk, %function
do_store_irk:
.LVL0:
.LFB570:
	.loc 1 430 1 view -0
	.cfi_startproc
	@ args = 0, pretend = 0, frame = 0
	@ frame_needed = 0, uses_anonymous_args = 0
	@ link register save eliminated.
	.loc 1 438 1 view .LVU1
	bx	lr
	.cfi_endproc
.LFE570:
	.size	do_store_irk, .-do_store_irk
	.section	.rodata.set_setting.str1.1,"aMS",%progbits,1
.LC0:
	.ascii	"Insufficient number of arguments\000"
.LC1:
	.ascii	"id\000"
.LC2:
	.ascii	"Ignoring identities stored in flash\000"
.LC3:
	.ascii	"Invalid length ID address in storage\000"
.LC4:
	.ascii	"name\000"
.LC5:
	.ascii	"Failed to read device name from storage (err %zd)\000"
	.section	.text.set_setting,"ax",%progbits
	.align	1
	.syntax unified
	.thumb
	.thumb_func
	.type	set_setting, %function
set_setting:
.LVL1:
.LFB550:
	.loc 1 121 1 view -0
	.cfi_startproc
	@ args = 0, pretend = 0, frame = 32
	@ frame_needed = 1, uses_anonymous_args = 0
	.loc 1 122 2 view .LVU3
	.loc 1 123 2 view .LVU4
	.loc 1 125 2 view .LVU5
.LBB575:
.LBI575:
	.file 2 "/home/g/mise-work/zmk-firmware/zmk/zephyr/include/zephyr/sys/atomic.h"
	.loc 2 131 19 view .LVU6
.LBB576:
	.loc 2 133 2 view .LVU7
.LBB577:
.LBI577:
	.file 3 "/home/g/mise-work/zmk-firmware/zmk/zephyr/include/zephyr/sys/atomic_builtin.h"
	.loc 3 159 28 view .LVU8
.LBB578:
	.loc 3 161 2 view .LVU9
.LBE578:
.LBE577:
.LBE576:
.LBE575:
	.loc 1 121 1 is_stmt 0 view .LVU10
	push	{r4, r5, r6, r7, r8, r9, lr}
	.cfi_def_cfa_offset 28
	.cfi_offset 4, -28
	.cfi_offset 5, -24
	.cfi_offset 6, -20
	.cfi_offset 7, -16
	.cfi_offset 8, -12
	.cfi_offset 9, -8
	.cfi_offset 14, -4
.LBB588:
.LBB585:
.LBB582:
.LBB579:
	.loc 3 161 9 view .LVU11
	ldr	r4, .L14
.LVL2:
	.loc 3 161 9 view .LVU12
.LBE579:
.LBE582:
.LBE585:
.LBE588:
	.loc 1 121 1 view .LVU13
	sub	sp, sp, #36
	.cfi_def_cfa_offset 64
.LBB589:
.LBB586:
.LBB583:
.LBB580:
	.loc 3 161 9 view .LVU14
	dmb	ish
.LBE580:
.LBE583:
.LBE586:
.LBE589:
	.loc 1 121 1 view .LVU15
	mov	r8, r3
.LBB590:
.LBB587:
.LBB584:
.LBB581:
	.loc 3 161 9 view .LVU16
	ldr	r3, [r4]
.LVL3:
	.loc 3 161 9 view .LVU17
	dmb	ish
.LVL4:
	.loc 3 161 9 view .LVU18
.LBE581:
.LBE584:
	.loc 2 135 2 is_stmt 1 view .LVU19
	.loc 2 135 2 is_stmt 0 view .LVU20
.LBE587:
.LBE590:
	.loc 1 125 5 view .LVU21
	lsls	r1, r3, #31
.LVL5:
	.loc 1 121 1 view .LVU22
	add	r7, sp, #0
	.cfi_def_cfa_register 7
	.loc 1 121 1 view .LVU23
	mov	r5, r0
	mov	r6, r2
	.loc 1 125 5 view .LVU24
	bpl	.L3
	.loc 1 135 2 is_stmt 1 view .LVU25
	.loc 1 135 5 is_stmt 0 view .LVU26
	cbnz	r0, .L4
	.loc 1 136 3 is_stmt 1 view .LVU27
.LBB591:
	.loc 1 136 8 view .LVU28
	.loc 1 136 57 view .LVU29
	.loc 1 136 14 view .LVU30
	.loc 1 136 2 view .LVU31
.LVL6:
	.loc 1 136 41 view .LVU32
	.loc 1 136 176 view .LVU33
	.loc 1 136 187 view .LVU34
	.loc 1 136 275 view .LVU35
	.loc 1 136 3 view .LVU36
	.loc 1 136 3 view .LVU37
.LBB592:
	.loc 1 136 8 view .LVU38
	.loc 1 136 2 view .LVU39
.LBE592:
.LBE591:
	.loc 1 136 3 view .LVU40
	.loc 1 136 12 view .LVU41
	.loc 1 136 107 view .LVU42
	.loc 1 136 3 view .LVU43
.LBB609:
.LBB605:
	.loc 1 136 12 view .LVU44
	.loc 1 136 102 view .LVU45
	.loc 1 136 104 view .LVU46
.LBB593:
	.loc 1 136 109 view .LVU47
	.loc 1 136 120 view .LVU48
	.loc 1 136 209 view .LVU49
	.loc 1 136 26 view .LVU50
.LBE593:
.LBE605:
.LBE609:
	.loc 1 136 3 view .LVU51
	.loc 1 136 368 view .LVU52
	.loc 1 136 75 view .LVU53
	.loc 1 136 2 view .LVU54
	.loc 1 136 2 view .LVU55
	.loc 1 136 2 view .LVU56
	.loc 1 136 38 view .LVU57
	.loc 1 136 4 view .LVU58
	.loc 1 136 30 view .LVU59
	.loc 1 136 56 view .LVU60
	.loc 1 136 79 view .LVU61
	.loc 1 136 141 view .LVU62
	.loc 1 136 198 view .LVU63
	.loc 1 136 263 view .LVU64
	.loc 1 136 288 view .LVU65
	.loc 1 136 289 view .LVU66
	.loc 1 136 291 view .LVU67
	.loc 1 136 321 view .LVU68
	.loc 1 136 351 view .LVU69
	.loc 1 136 383 view .LVU70
	.loc 1 136 415 view .LVU71
	.loc 1 136 447 view .LVU72
	.loc 1 136 644 view .LVU73
	.loc 1 136 668 view .LVU74
	.loc 1 136 669 view .LVU75
	.loc 1 136 671 view .LVU76
	.loc 1 136 700 view .LVU77
	.loc 1 136 729 view .LVU78
	.loc 1 136 760 view .LVU79
	.loc 1 136 791 view .LVU80
	.loc 1 136 822 view .LVU81
	.loc 1 136 1029 view .LVU82
	.loc 1 136 4 view .LVU83
	.loc 1 136 22 view .LVU84
	.loc 1 136 42 view .LVU85
	.loc 1 136 4 view .LVU86
	.loc 1 136 42 view .LVU87
	.loc 1 136 13 view .LVU88
	.loc 1 136 13 view .LVU89
	.loc 1 136 61 view .LVU90
	.loc 1 136 92 view .LVU91
	.loc 1 136 126 view .LVU92
	.loc 1 136 131 view .LVU93
	.loc 1 136 387 view .LVU94
	.loc 1 136 1464 view .LVU95
	.loc 1 136 1529 view .LVU96
	.loc 1 136 1553 view .LVU97
	.loc 1 136 1613 view .LVU98
	.loc 1 136 1624 view .LVU99
	.loc 1 136 1742 view .LVU100
	.loc 1 136 1758 view .LVU101
	.loc 1 136 1798 view .LVU102
	.loc 1 136 1823 view .LVU103
	.loc 1 136 3124 view .LVU104
	.loc 1 136 3165 view .LVU105
	.loc 1 136 7 view .LVU106
	.loc 1 136 30 view .LVU107
	.loc 1 136 129 view .LVU108
	.loc 1 136 5 view .LVU109
	.loc 1 136 28 view .LVU110
	.loc 1 136 52 view .LVU111
	.loc 1 136 80 view .LVU112
	.loc 1 136 256 view .LVU113
	.loc 1 136 16 view .LVU114
.LBB610:
.LBB606:
.LBB602:
	.loc 1 136 29 view .LVU115
	.loc 1 136 3 view .LVU116
	.loc 1 136 3 view .LVU117
	.loc 1 136 70 view .LVU118
	.loc 1 136 74 view .LVU119
	.loc 1 136 484 view .LVU120
	.loc 1 136 5 view .LVU121
	.loc 1 136 7 view .LVU122
	.loc 1 136 12 view .LVU123
	.loc 1 136 10 view .LVU124
	.loc 1 136 5 view .LVU125
	.loc 1 136 23 view .LVU126
.LBB594:
	.loc 1 136 3 view .LVU127
	.loc 1 136 368 view .LVU128
	.loc 1 136 75 view .LVU129
.LVL7:
	.loc 1 136 2 view .LVU130
	.loc 1 136 2 view .LVU131
	.loc 1 136 2 view .LVU132
	.loc 1 136 38 view .LVU133
	.loc 1 136 67 view .LVU134
	.loc 1 136 93 view .LVU135
	.loc 1 136 119 view .LVU136
	.loc 1 136 142 view .LVU137
	.loc 1 136 204 view .LVU138
	.loc 1 136 261 view .LVU139
	.loc 1 136 326 view .LVU140
	.loc 1 136 351 view .LVU141
	.loc 1 136 352 view .LVU142
	.loc 1 136 354 view .LVU143
	.loc 1 136 384 view .LVU144
	.loc 1 136 414 view .LVU145
	.loc 1 136 446 view .LVU146
	.loc 1 136 478 view .LVU147
	.loc 1 136 510 view .LVU148
	.loc 1 136 707 view .LVU149
	.loc 1 136 731 view .LVU150
	.loc 1 136 732 view .LVU151
	.loc 1 136 734 view .LVU152
	.loc 1 136 763 view .LVU153
	.loc 1 136 792 view .LVU154
	.loc 1 136 823 view .LVU155
	.loc 1 136 854 view .LVU156
	.loc 1 136 885 view .LVU157
	.loc 1 136 1092 view .LVU158
	.loc 1 136 4 view .LVU159
	.loc 1 136 22 view .LVU160
	.loc 1 136 42 view .LVU161
	.loc 1 136 4 view .LVU162
	.loc 1 136 42 view .LVU163
	.loc 1 136 13 view .LVU164
	.loc 1 136 13 view .LVU165
	.loc 1 136 61 view .LVU166
	.loc 1 136 92 view .LVU167
	.loc 1 136 126 view .LVU168
.LBB595:
	.loc 1 136 131 view .LVU169
	.loc 1 136 387 view .LVU170
	.loc 1 136 1464 view .LVU171
	.loc 1 136 1529 view .LVU172
.LBE595:
.LBE594:
.LBE602:
.LBE606:
.LBE610:
	.loc 1 136 1553 view .LVU173
	.loc 1 136 1613 view .LVU174
	.loc 1 136 1624 view .LVU175
	.loc 1 136 1742 view .LVU176
.LBB611:
.LBB607:
.LBB603:
.LBB598:
.LBB596:
	.loc 1 136 1758 view .LVU177
	.loc 1 136 1798 view .LVU178
	.loc 1 136 1823 view .LVU179
	.loc 1 136 3124 view .LVU180
	.loc 1 136 3162 view .LVU181
	.loc 1 136 3167 view .LVU182
	.loc 1 136 3797 view .LVU183
	.loc 1 136 0 is_stmt 0 view .LVU184
	ldr	r3, .L14+4
	str	r3, [r7, #28]
	.loc 1 136 3165 is_stmt 1 view .LVU185
	.loc 1 136 7 view .LVU186
.LVL8:
	.loc 1 136 30 view .LVU187
	.loc 1 136 30 is_stmt 0 view .LVU188
.LBE596:
	.loc 1 136 129 is_stmt 1 view .LVU189
	.loc 1 136 5 view .LVU190
	.loc 1 136 28 view .LVU191
	.loc 1 136 52 view .LVU192
	.loc 1 136 80 view .LVU193
.LBE598:
.LBE603:
.LBE607:
.LBE611:
	.loc 1 136 6 view .LVU194
	.loc 1 136 45 view .LVU195
	.loc 1 136 50 view .LVU196
	.loc 1 136 80 view .LVU197
	.loc 1 136 147 view .LVU198
	.loc 1 136 152 view .LVU199
	.loc 1 136 182 view .LVU200
.LBB612:
.LBB608:
.LBB604:
.LBB599:
	.loc 1 136 256 view .LVU201
	.loc 1 136 16 view .LVU202
.LBB597:
	.loc 1 136 6 view .LVU203
	.loc 1 136 164 view .LVU204
	.loc 1 136 166 view .LVU205
	.loc 1 136 176 is_stmt 0 view .LVU206
	movs	r3, #2
	str	r3, [r7, #24]
.LVL9:
	.loc 1 136 176 view .LVU207
.LBE597:
.LBE599:
	.loc 1 136 26 is_stmt 1 view .LVU208
	.loc 1 136 7 view .LVU209
	.loc 1 136 147 view .LVU210
	.loc 1 136 149 view .LVU211
.LBB600:
.LBI600:
	.file 4 "/home/g/mise-work/zmk-firmware/zmk/app/build/zephyr/include/generated/syscalls/log_msg.h"
	.loc 4 26 20 view .LVU212
.LBB601:
	.loc 4 38 2 view .LVU213
	.loc 4 38 7 view .LVU214
	.loc 4 38 5 view .LVU215
	.loc 4 39 2 view .LVU216
	mov	r1, #4160
	mov	r3, r0
	add	r2, r7, #24
.LVL10:
	.loc 4 39 2 is_stmt 0 view .LVU217
	ldr	r0, .L14+8
.LVL11:
	.loc 4 39 2 view .LVU218
	bl	z_impl_z_log_msg_static_create
.LVL12:
	.loc 4 39 2 view .LVU219
.LBE601:
.LBE600:
.LBE604:
	.loc 1 136 107 is_stmt 1 view .LVU220
	.loc 1 136 5 view .LVU221
.LVL13:
	.loc 1 136 42 view .LVU222
.LBE608:
	.loc 1 136 6 view .LVU223
	.loc 1 136 278 view .LVU224
	.loc 1 136 5 view .LVU225
	.loc 1 136 18 view .LVU226
.LBE612:
	.loc 1 136 6 view .LVU227
	.loc 1 137 3 view .LVU228
.L5:
	.loc 1 137 10 is_stmt 0 view .LVU229
	mvn	r0, #1
	b	.L2
.LVL14:
.L4:
	.loc 1 140 2 is_stmt 1 view .LVU230
	.loc 1 140 8 is_stmt 0 view .LVU231
	adds	r1, r7, #4
	bl	settings_name_next
.LVL15:
	.loc 1 142 7 view .LVU232
	ldr	r1, .L14+12
	mov	r2, r0
	.loc 1 140 8 view .LVU233
	mov	r9, r0
.LVL16:
	.loc 1 142 2 is_stmt 1 view .LVU234
	.loc 1 142 7 is_stmt 0 view .LVU235
	mov	r0, r5
.LVL17:
	.loc 1 142 7 view .LVU236
	bl	strncmp
.LVL18:
	.loc 1 142 5 view .LVU237
	mov	r3, r0
	cmp	r0, #0
	bne	.L6
	.loc 1 144 3 is_stmt 1 view .LVU238
.LVL19:
.LBB613:
.LBI613:
	.loc 2 131 19 view .LVU239
.LBB614:
	.loc 2 133 2 view .LVU240
.LBB615:
.LBI615:
	.loc 3 159 28 view .LVU241
.LBB616:
	.loc 3 161 2 view .LVU242
	.loc 3 161 9 is_stmt 0 view .LVU243
	dmb	ish
	ldr	r2, [r4]
	dmb	ish
.LVL20:
	.loc 3 161 9 view .LVU244
.LBE616:
.LBE615:
	.loc 2 135 2 is_stmt 1 view .LVU245
	.loc 2 135 2 is_stmt 0 view .LVU246
.LBE614:
.LBE613:
	.loc 1 144 6 view .LVU247
	ubfx	r9, r2, #3, #1
.LVL21:
	.loc 1 144 6 view .LVU248
	lsls	r2, r2, #28
	bpl	.L7
	.loc 1 145 4 is_stmt 1 view .LVU249
.LBB617:
	.loc 1 145 9 view .LVU250
	.loc 1 145 58 view .LVU251
	.loc 1 145 15 view .LVU252
	.loc 1 145 3 view .LVU253
.LVL22:
	.loc 1 145 42 view .LVU254
	.loc 1 145 177 view .LVU255
	.loc 1 145 188 view .LVU256
	.loc 1 145 276 view .LVU257
	.loc 1 145 4 view .LVU258
	.loc 1 145 4 view .LVU259
.LBB618:
	.loc 1 145 9 view .LVU260
	.loc 1 145 3 view .LVU261
.LBE618:
.LBE617:
	.loc 1 145 4 view .LVU262
	.loc 1 145 13 view .LVU263
	.loc 1 145 108 view .LVU264
	.loc 1 145 4 view .LVU265
.LBB635:
.LBB631:
	.loc 1 145 13 view .LVU266
	.loc 1 145 103 view .LVU267
	.loc 1 145 105 view .LVU268
.LBB619:
	.loc 1 145 110 view .LVU269
	.loc 1 145 121 view .LVU270
	.loc 1 145 210 view .LVU271
	.loc 1 145 27 view .LVU272
.LBE619:
.LBE631:
.LBE635:
	.loc 1 145 4 view .LVU273
	.loc 1 145 369 view .LVU274
	.loc 1 145 76 view .LVU275
	.loc 1 145 3 view .LVU276
	.loc 1 145 3 view .LVU277
	.loc 1 145 3 view .LVU278
	.loc 1 145 39 view .LVU279
	.loc 1 145 5 view .LVU280
	.loc 1 145 31 view .LVU281
	.loc 1 145 57 view .LVU282
	.loc 1 145 80 view .LVU283
	.loc 1 145 142 view .LVU284
	.loc 1 145 199 view .LVU285
	.loc 1 145 264 view .LVU286
	.loc 1 145 289 view .LVU287
	.loc 1 145 290 view .LVU288
	.loc 1 145 292 view .LVU289
	.loc 1 145 322 view .LVU290
	.loc 1 145 352 view .LVU291
	.loc 1 145 384 view .LVU292
	.loc 1 145 416 view .LVU293
	.loc 1 145 448 view .LVU294
	.loc 1 145 645 view .LVU295
	.loc 1 145 669 view .LVU296
	.loc 1 145 670 view .LVU297
	.loc 1 145 672 view .LVU298
	.loc 1 145 701 view .LVU299
	.loc 1 145 730 view .LVU300
	.loc 1 145 761 view .LVU301
	.loc 1 145 792 view .LVU302
	.loc 1 145 823 view .LVU303
	.loc 1 145 1030 view .LVU304
	.loc 1 145 5 view .LVU305
	.loc 1 145 23 view .LVU306
	.loc 1 145 43 view .LVU307
	.loc 1 145 5 view .LVU308
	.loc 1 145 43 view .LVU309
	.loc 1 145 14 view .LVU310
	.loc 1 145 14 view .LVU311
	.loc 1 145 62 view .LVU312
	.loc 1 145 93 view .LVU313
	.loc 1 145 127 view .LVU314
	.loc 1 145 132 view .LVU315
	.loc 1 145 391 view .LVU316
	.loc 1 145 1480 view .LVU317
	.loc 1 145 1545 view .LVU318
	.loc 1 145 1569 view .LVU319
	.loc 1 145 1632 view .LVU320
	.loc 1 145 1643 view .LVU321
	.loc 1 145 1764 view .LVU322
	.loc 1 145 1780 view .LVU323
	.loc 1 145 1820 view .LVU324
	.loc 1 145 1845 view .LVU325
	.loc 1 145 3152 view .LVU326
	.loc 1 145 3193 view .LVU327
	.loc 1 145 8 view .LVU328
	.loc 1 145 31 view .LVU329
	.loc 1 145 130 view .LVU330
	.loc 1 145 6 view .LVU331
	.loc 1 145 29 view .LVU332
	.loc 1 145 53 view .LVU333
	.loc 1 145 81 view .LVU334
	.loc 1 145 257 view .LVU335
	.loc 1 145 17 view .LVU336
.LBB636:
.LBB632:
.LBB628:
	.loc 1 145 30 view .LVU337
	.loc 1 145 4 view .LVU338
	.loc 1 145 4 view .LVU339
	.loc 1 145 71 view .LVU340
	.loc 1 145 75 view .LVU341
	.loc 1 145 485 view .LVU342
	.loc 1 145 6 view .LVU343
	.loc 1 145 8 view .LVU344
	.loc 1 145 13 view .LVU345
	.loc 1 145 11 view .LVU346
	.loc 1 145 6 view .LVU347
	.loc 1 145 24 view .LVU348
.LBB620:
	.loc 1 145 4 view .LVU349
	.loc 1 145 369 view .LVU350
	.loc 1 145 76 view .LVU351
.LVL23:
	.loc 1 145 3 view .LVU352
	.loc 1 145 3 view .LVU353
	.loc 1 145 3 view .LVU354
	.loc 1 145 39 view .LVU355
	.loc 1 145 68 view .LVU356
	.loc 1 145 94 view .LVU357
	.loc 1 145 120 view .LVU358
	.loc 1 145 143 view .LVU359
	.loc 1 145 205 view .LVU360
	.loc 1 145 262 view .LVU361
	.loc 1 145 327 view .LVU362
	.loc 1 145 352 view .LVU363
	.loc 1 145 353 view .LVU364
	.loc 1 145 355 view .LVU365
	.loc 1 145 385 view .LVU366
	.loc 1 145 415 view .LVU367
	.loc 1 145 447 view .LVU368
	.loc 1 145 479 view .LVU369
	.loc 1 145 511 view .LVU370
	.loc 1 145 708 view .LVU371
	.loc 1 145 732 view .LVU372
	.loc 1 145 733 view .LVU373
	.loc 1 145 735 view .LVU374
	.loc 1 145 764 view .LVU375
	.loc 1 145 793 view .LVU376
	.loc 1 145 824 view .LVU377
	.loc 1 145 855 view .LVU378
	.loc 1 145 886 view .LVU379
	.loc 1 145 1093 view .LVU380
	.loc 1 145 5 view .LVU381
	.loc 1 145 23 view .LVU382
	.loc 1 145 43 view .LVU383
	.loc 1 145 5 view .LVU384
	.loc 1 145 43 view .LVU385
	.loc 1 145 14 view .LVU386
	.loc 1 145 14 view .LVU387
	.loc 1 145 62 view .LVU388
	.loc 1 145 93 view .LVU389
	.loc 1 145 127 view .LVU390
.LBB621:
	.loc 1 145 132 view .LVU391
	.loc 1 145 391 view .LVU392
	.loc 1 145 1480 view .LVU393
	.loc 1 145 1545 view .LVU394
.LBE621:
.LBE620:
.LBE628:
.LBE632:
.LBE636:
	.loc 1 145 1569 view .LVU395
	.loc 1 145 1632 view .LVU396
	.loc 1 145 1643 view .LVU397
	.loc 1 145 1764 view .LVU398
.LBB637:
.LBB633:
.LBB629:
.LBB624:
.LBB622:
	.loc 1 145 1780 view .LVU399
	.loc 1 145 1820 view .LVU400
	.loc 1 145 1845 view .LVU401
	.loc 1 145 3152 view .LVU402
	.loc 1 145 3190 view .LVU403
	.loc 1 145 3195 view .LVU404
	.loc 1 145 3843 view .LVU405
	.loc 1 145 0 is_stmt 0 view .LVU406
	ldr	r2, .L14+16
	str	r2, [r7, #28]
	.loc 1 145 3193 is_stmt 1 view .LVU407
	.loc 1 145 8 view .LVU408
.LVL24:
	.loc 1 145 31 view .LVU409
	.loc 1 145 31 is_stmt 0 view .LVU410
.LBE622:
	.loc 1 145 130 is_stmt 1 view .LVU411
	.loc 1 145 6 view .LVU412
	.loc 1 145 29 view .LVU413
	.loc 1 145 53 view .LVU414
	.loc 1 145 81 view .LVU415
.LBE624:
.LBE629:
.LBE633:
.LBE637:
	.loc 1 145 7 view .LVU416
	.loc 1 145 46 view .LVU417
	.loc 1 145 51 view .LVU418
	.loc 1 145 81 view .LVU419
	.loc 1 145 148 view .LVU420
	.loc 1 145 153 view .LVU421
	.loc 1 145 183 view .LVU422
.LBB638:
.LBB634:
.LBB630:
.LBB625:
	.loc 1 145 257 view .LVU423
	.loc 1 145 17 view .LVU424
.LBB623:
	.loc 1 145 7 view .LVU425
	.loc 1 145 165 view .LVU426
	.loc 1 145 167 view .LVU427
	.loc 1 145 177 is_stmt 0 view .LVU428
	movs	r2, #2
	str	r2, [r7, #24]
.LVL25:
	.loc 1 145 177 view .LVU429
.LBE623:
.LBE625:
	.loc 1 145 27 is_stmt 1 view .LVU430
	.loc 1 145 8 view .LVU431
	.loc 1 145 148 view .LVU432
	.loc 1 145 150 view .LVU433
.LBB626:
.LBI626:
	.loc 4 26 20 view .LVU434
.LBB627:
	.loc 4 38 2 view .LVU435
	.loc 4 38 7 view .LVU436
	.loc 4 38 5 view .LVU437
	.loc 4 39 2 view .LVU438
	ldr	r0, .L14+8
	add	r2, r7, #24
.LVL26:
	.loc 4 39 2 is_stmt 0 view .LVU439
	mov	r1, #4224
	bl	z_impl_z_log_msg_static_create
.LVL27:
	.loc 4 39 2 view .LVU440
.LBE627:
.LBE626:
.LBE630:
	.loc 1 145 108 is_stmt 1 view .LVU441
	.loc 1 145 6 view .LVU442
.LVL28:
	.loc 1 145 43 view .LVU443
.LBE634:
	.loc 1 145 7 view .LVU444
	.loc 1 145 279 view .LVU445
	.loc 1 145 6 view .LVU446
	.loc 1 145 19 view .LVU447
.LBE638:
	.loc 1 145 7 view .LVU448
	.loc 1 146 4 view .LVU449
.L3:
	.loc 1 132 10 is_stmt 0 view .LVU450
	movs	r0, #0
.L2:
	.loc 1 229 1 view .LVU451
	adds	r7, r7, #36
	.cfi_remember_state
	.cfi_def_cfa_offset 28
	mov	sp, r7
	.cfi_def_cfa_register 13
	@ sp needed
	pop	{r4, r5, r6, r7, r8, r9, pc}
.LVL29:
.L7:
	.cfi_restore_state
	.loc 1 149 3 is_stmt 1 view .LVU452
	.loc 1 149 9 is_stmt 0 view .LVU453
	sub	r5, r4, #212
.LVL30:
	.loc 1 149 9 view .LVU454
	movs	r2, #7
	mov	r1, r5
	mov	r0, r8
	blx	r6
.LVL31:
	.loc 1 150 3 is_stmt 1 view .LVU455
	.loc 1 150 6 is_stmt 0 view .LVU456
	cmp	r0, #6
	bhi	.L9
	.loc 1 151 4 is_stmt 1 view .LVU457
	.loc 1 155 5 view .LVU458
.LBB639:
	.loc 1 155 10 view .LVU459
	.loc 1 155 59 view .LVU460
	.loc 1 155 16 view .LVU461
	.loc 1 155 4 view .LVU462
.LVL32:
	.loc 1 155 43 view .LVU463
	.loc 1 155 178 view .LVU464
	.loc 1 155 189 view .LVU465
	.loc 1 155 277 view .LVU466
	.loc 1 155 5 view .LVU467
	.loc 1 155 5 view .LVU468
.LBB640:
	.loc 1 155 10 view .LVU469
	.loc 1 155 4 view .LVU470
.LBE640:
.LBE639:
	.loc 1 155 5 view .LVU471
	.loc 1 155 14 view .LVU472
	.loc 1 155 109 view .LVU473
	.loc 1 155 5 view .LVU474
.LBB657:
.LBB653:
	.loc 1 155 14 view .LVU475
	.loc 1 155 104 view .LVU476
	.loc 1 155 106 view .LVU477
.LBB641:
	.loc 1 155 111 view .LVU478
	.loc 1 155 122 view .LVU479
	.loc 1 155 211 view .LVU480
	.loc 1 155 28 view .LVU481
.LBE641:
.LBE653:
.LBE657:
	.loc 1 155 5 view .LVU482
	.loc 1 155 370 view .LVU483
	.loc 1 155 77 view .LVU484
	.loc 1 155 4 view .LVU485
	.loc 1 155 4 view .LVU486
	.loc 1 155 4 view .LVU487
	.loc 1 155 40 view .LVU488
	.loc 1 155 6 view .LVU489
	.loc 1 155 32 view .LVU490
	.loc 1 155 58 view .LVU491
	.loc 1 155 81 view .LVU492
	.loc 1 155 143 view .LVU493
	.loc 1 155 200 view .LVU494
	.loc 1 155 265 view .LVU495
	.loc 1 155 290 view .LVU496
	.loc 1 155 291 view .LVU497
	.loc 1 155 293 view .LVU498
	.loc 1 155 323 view .LVU499
	.loc 1 155 353 view .LVU500
	.loc 1 155 385 view .LVU501
	.loc 1 155 417 view .LVU502
	.loc 1 155 449 view .LVU503
	.loc 1 155 646 view .LVU504
	.loc 1 155 670 view .LVU505
	.loc 1 155 671 view .LVU506
	.loc 1 155 673 view .LVU507
	.loc 1 155 702 view .LVU508
	.loc 1 155 731 view .LVU509
	.loc 1 155 762 view .LVU510
	.loc 1 155 793 view .LVU511
	.loc 1 155 824 view .LVU512
	.loc 1 155 1031 view .LVU513
	.loc 1 155 6 view .LVU514
	.loc 1 155 24 view .LVU515
	.loc 1 155 44 view .LVU516
	.loc 1 155 6 view .LVU517
	.loc 1 155 44 view .LVU518
	.loc 1 155 15 view .LVU519
	.loc 1 155 15 view .LVU520
	.loc 1 155 63 view .LVU521
	.loc 1 155 94 view .LVU522
	.loc 1 155 128 view .LVU523
	.loc 1 155 133 view .LVU524
	.loc 1 155 393 view .LVU525
	.loc 1 155 1486 view .LVU526
	.loc 1 155 1551 view .LVU527
	.loc 1 155 1575 view .LVU528
	.loc 1 155 1639 view .LVU529
	.loc 1 155 1650 view .LVU530
	.loc 1 155 1772 view .LVU531
	.loc 1 155 1788 view .LVU532
	.loc 1 155 1828 view .LVU533
	.loc 1 155 1853 view .LVU534
	.loc 1 155 3162 view .LVU535
	.loc 1 155 3203 view .LVU536
	.loc 1 155 9 view .LVU537
	.loc 1 155 32 view .LVU538
	.loc 1 155 131 view .LVU539
	.loc 1 155 7 view .LVU540
	.loc 1 155 30 view .LVU541
	.loc 1 155 54 view .LVU542
	.loc 1 155 82 view .LVU543
	.loc 1 155 258 view .LVU544
	.loc 1 155 18 view .LVU545
.LBB658:
.LBB654:
.LBB650:
	.loc 1 155 31 view .LVU546
	.loc 1 155 5 view .LVU547
	.loc 1 155 5 view .LVU548
	.loc 1 155 72 view .LVU549
	.loc 1 155 76 view .LVU550
	.loc 1 155 486 view .LVU551
	.loc 1 155 7 view .LVU552
	.loc 1 155 9 view .LVU553
	.loc 1 155 14 view .LVU554
	.loc 1 155 12 view .LVU555
	.loc 1 155 7 view .LVU556
	.loc 1 155 25 view .LVU557
.LBB642:
	.loc 1 155 5 view .LVU558
	.loc 1 155 370 view .LVU559
	.loc 1 155 77 view .LVU560
.LVL33:
	.loc 1 155 4 view .LVU561
	.loc 1 155 4 view .LVU562
	.loc 1 155 4 view .LVU563
	.loc 1 155 40 view .LVU564
	.loc 1 155 69 view .LVU565
	.loc 1 155 95 view .LVU566
	.loc 1 155 121 view .LVU567
	.loc 1 155 144 view .LVU568
	.loc 1 155 206 view .LVU569
	.loc 1 155 263 view .LVU570
	.loc 1 155 328 view .LVU571
	.loc 1 155 353 view .LVU572
	.loc 1 155 354 view .LVU573
	.loc 1 155 356 view .LVU574
	.loc 1 155 386 view .LVU575
	.loc 1 155 416 view .LVU576
	.loc 1 155 448 view .LVU577
	.loc 1 155 480 view .LVU578
	.loc 1 155 512 view .LVU579
	.loc 1 155 709 view .LVU580
	.loc 1 155 733 view .LVU581
	.loc 1 155 734 view .LVU582
	.loc 1 155 736 view .LVU583
	.loc 1 155 765 view .LVU584
	.loc 1 155 794 view .LVU585
	.loc 1 155 825 view .LVU586
	.loc 1 155 856 view .LVU587
	.loc 1 155 887 view .LVU588
	.loc 1 155 1094 view .LVU589
	.loc 1 155 6 view .LVU590
	.loc 1 155 24 view .LVU591
	.loc 1 155 44 view .LVU592
	.loc 1 155 6 view .LVU593
	.loc 1 155 44 view .LVU594
	.loc 1 155 15 view .LVU595
	.loc 1 155 15 view .LVU596
	.loc 1 155 63 view .LVU597
	.loc 1 155 94 view .LVU598
	.loc 1 155 128 view .LVU599
.LBB643:
	.loc 1 155 133 view .LVU600
	.loc 1 155 393 view .LVU601
	.loc 1 155 1486 view .LVU602
	.loc 1 155 1551 view .LVU603
.LBE643:
.LBE642:
.LBE650:
.LBE654:
.LBE658:
	.loc 1 155 1575 view .LVU604
	.loc 1 155 1639 view .LVU605
	.loc 1 155 1650 view .LVU606
	.loc 1 155 1772 view .LVU607
.LBB659:
.LBB655:
.LBB651:
.LBB646:
.LBB644:
	.loc 1 155 1788 view .LVU608
	.loc 1 155 1828 view .LVU609
	.loc 1 155 1853 view .LVU610
	.loc 1 155 3162 view .LVU611
	.loc 1 155 3200 view .LVU612
	.loc 1 155 3205 view .LVU613
	.loc 1 155 3859 view .LVU614
	.loc 1 155 0 is_stmt 0 view .LVU615
	ldr	r3, .L14+20
	str	r3, [r7, #28]
	.loc 1 155 3203 is_stmt 1 view .LVU616
	.loc 1 155 9 view .LVU617
.LVL34:
	.loc 1 155 32 view .LVU618
	.loc 1 155 32 is_stmt 0 view .LVU619
.LBE644:
	.loc 1 155 131 is_stmt 1 view .LVU620
	.loc 1 155 7 view .LVU621
	.loc 1 155 30 view .LVU622
	.loc 1 155 54 view .LVU623
	.loc 1 155 82 view .LVU624
.LBE646:
.LBE651:
.LBE655:
.LBE659:
	.loc 1 155 8 view .LVU625
	.loc 1 155 47 view .LVU626
	.loc 1 155 52 view .LVU627
	.loc 1 155 82 view .LVU628
	.loc 1 155 149 view .LVU629
	.loc 1 155 154 view .LVU630
	.loc 1 155 184 view .LVU631
.LBB660:
.LBB656:
.LBB652:
.LBB647:
	.loc 1 155 258 view .LVU632
	.loc 1 155 18 view .LVU633
.LBB645:
	.loc 1 155 8 view .LVU634
	.loc 1 155 166 view .LVU635
	.loc 1 155 168 view .LVU636
	.loc 1 155 178 is_stmt 0 view .LVU637
	movs	r3, #2
	str	r3, [r7, #24]
.LVL35:
	.loc 1 155 178 view .LVU638
.LBE645:
.LBE647:
	.loc 1 155 28 is_stmt 1 view .LVU639
	.loc 1 155 9 view .LVU640
	.loc 1 155 149 view .LVU641
	.loc 1 155 151 view .LVU642
.LBB648:
.LBI648:
	.loc 4 26 20 view .LVU643
.LBB649:
	.loc 4 38 2 view .LVU644
	.loc 4 38 7 view .LVU645
	.loc 4 38 5 view .LVU646
	.loc 4 39 2 view .LVU647
	ldr	r0, .L14+8
.LVL36:
	.loc 4 39 2 is_stmt 0 view .LVU648
	mov	r3, r9
	add	r2, r7, #24
.LVL37:
	.loc 4 39 2 view .LVU649
	mov	r1, #4160
	bl	z_impl_z_log_msg_static_create
.LVL38:
	.loc 4 39 2 view .LVU650
.LBE649:
.LBE648:
.LBE652:
	.loc 1 155 109 is_stmt 1 view .LVU651
	.loc 1 155 7 view .LVU652
.LVL39:
	.loc 1 155 44 view .LVU653
.LBE656:
	.loc 1 155 8 view .LVU654
	.loc 1 155 280 view .LVU655
	.loc 1 155 7 view .LVU656
	.loc 1 155 20 view .LVU657
.LBE660:
	.loc 1 155 8 view .LVU658
	.loc 1 156 5 view .LVU659
.LBB661:
	.loc 1 156 10 view .LVU660
	.loc 1 156 42 view .LVU661
.LBE661:
	.loc 1 156 8 view .LVU662
	.loc 1 158 4 view .LVU663
	.loc 1 158 31 is_stmt 0 view .LVU664
	str	r9, [r4, #-212]
	.loc 1 160 20 view .LVU665
	strb	r9, [r5, #7]
	.loc 1 158 31 view .LVU666
	str	r9, [r5, #3]	@ unaligned
	.loc 1 160 4 is_stmt 1 view .LVU667
	b	.L3
.LVL40:
.L9:
.LBB662:
	.loc 1 162 4 view .LVU668
	.loc 1 164 4 view .LVU669
	.loc 1 164 26 is_stmt 0 view .LVU670
	movs	r3, #7
	udiv	r0, r0, r3
.LVL41:
	.loc 1 164 20 view .LVU671
	strb	r0, [r5, #7]
	.loc 1 165 4 is_stmt 1 view .LVU672
	.loc 1 165 18 view .LVU673
	b	.L3
.LVL42:
.L6:
	.loc 1 165 18 is_stmt 0 view .LVU674
.LBE662:
	.loc 1 174 2 is_stmt 1 view .LVU675
	.loc 1 174 7 is_stmt 0 view .LVU676
	mov	r0, r5
	ldr	r1, .L14+24
	mov	r2, r9
	bl	strncmp
.LVL43:
	.loc 1 174 5 view .LVU677
	mov	r5, r0
.LVL44:
	.loc 1 174 5 view .LVU678
	cmp	r0, #0
	bne	.L5
	.loc 1 175 3 is_stmt 1 view .LVU679
	.loc 1 175 9 is_stmt 0 view .LVU680
	movs	r2, #16
	add	r1, r4, #140
	mov	r0, r8
	blx	r6
.LVL45:
	.loc 1 176 3 is_stmt 1 view .LVU681
	.loc 1 176 6 is_stmt 0 view .LVU682
	cmp	r0, #0
	.loc 1 176 6 view .LVU683
	bge	.L10
	.loc 1 177 4 is_stmt 1 view .LVU684
.LBB663:
	.loc 1 177 9 view .LVU685
	.loc 1 177 58 view .LVU686
	.loc 1 177 15 view .LVU687
	.loc 1 177 3 view .LVU688
.LVL46:
	.loc 1 177 42 view .LVU689
	.loc 1 177 177 view .LVU690
	.loc 1 177 188 view .LVU691
	.loc 1 177 276 view .LVU692
.LBB664:
	.loc 1 177 4 view .LVU693
	.loc 1 177 6 view .LVU694
	.loc 1 177 4 view .LVU695
.LBB665:
	.loc 1 177 9 view .LVU696
	.loc 1 177 3 view .LVU697
.LBE665:
.LBE664:
.LBE663:
	.loc 1 177 4 view .LVU698
	.loc 1 177 13 view .LVU699
	.loc 1 177 108 view .LVU700
	.loc 1 177 4 view .LVU701
.LBB678:
.LBB676:
.LBB674:
	.loc 1 177 13 view .LVU702
	.loc 1 177 103 view .LVU703
	.loc 1 177 105 view .LVU704
.LBB666:
	.loc 1 177 108 is_stmt 0 view .LVU705
	mov	r4, sp
	.loc 1 177 110 is_stmt 1 view .LVU706
	.loc 1 177 121 view .LVU707
.LVL47:
	.loc 1 177 210 view .LVU708
	.loc 1 177 27 view .LVU709
.LBE666:
.LBE674:
.LBE676:
.LBE678:
	.loc 1 177 4 view .LVU710
	.loc 1 177 369 view .LVU711
	.loc 1 177 76 view .LVU712
	.loc 1 177 3 view .LVU713
	.loc 1 177 3 view .LVU714
	.loc 1 177 3 view .LVU715
	.loc 1 177 39 view .LVU716
	.loc 1 177 5 view .LVU717
	.loc 1 177 31 view .LVU718
	.loc 1 177 57 view .LVU719
	.loc 1 177 524 view .LVU720
	.loc 1 177 586 view .LVU721
	.loc 1 177 1107 view .LVU722
	.loc 1 177 1172 view .LVU723
	.loc 1 177 1197 view .LVU724
	.loc 1 177 1198 view .LVU725
	.loc 1 177 1200 view .LVU726
	.loc 1 177 1230 view .LVU727
	.loc 1 177 1260 view .LVU728
	.loc 1 177 1292 view .LVU729
	.loc 1 177 1324 view .LVU730
	.loc 1 177 1356 view .LVU731
	.loc 1 177 1553 view .LVU732
	.loc 1 177 1577 view .LVU733
	.loc 1 177 1578 view .LVU734
	.loc 1 177 1580 view .LVU735
	.loc 1 177 1609 view .LVU736
	.loc 1 177 1638 view .LVU737
	.loc 1 177 1669 view .LVU738
	.loc 1 177 1700 view .LVU739
	.loc 1 177 1731 view .LVU740
	.loc 1 177 1938 view .LVU741
	.loc 1 177 5 view .LVU742
	.loc 1 177 23 view .LVU743
	.loc 1 177 43 view .LVU744
	.loc 1 177 5 view .LVU745
	.loc 1 177 43 view .LVU746
	.loc 1 177 14 view .LVU747
	.loc 1 177 14 view .LVU748
	.loc 1 177 62 view .LVU749
	.loc 1 177 93 view .LVU750
	.loc 1 177 127 view .LVU751
	.loc 1 177 132 view .LVU752
	.loc 1 177 408 view .LVU753
	.loc 1 177 1565 view .LVU754
	.loc 1 177 1630 view .LVU755
	.loc 1 177 1654 view .LVU756
	.loc 1 177 1734 view .LVU757
	.loc 1 177 1745 view .LVU758
	.loc 1 177 1883 view .LVU759
	.loc 1 177 1899 view .LVU760
	.loc 1 177 1939 view .LVU761
	.loc 1 177 1964 view .LVU762
	.loc 1 177 3305 view .LVU763
	.loc 1 177 3346 view .LVU764
	.loc 1 177 8 view .LVU765
	.loc 1 177 31 view .LVU766
	.loc 1 177 130 view .LVU767
	.loc 1 177 7 view .LVU768
	.loc 1 177 12 view .LVU769
	.loc 1 177 237 view .LVU770
	.loc 1 177 1190 view .LVU771
	.loc 1 177 1255 view .LVU772
	.loc 1 177 1279 view .LVU773
	.loc 1 177 1308 view .LVU774
	.loc 1 177 1319 view .LVU775
	.loc 1 177 1406 view .LVU776
	.loc 1 177 1422 view .LVU777
	.loc 1 177 1462 view .LVU778
	.loc 1 177 2726 view .LVU779
	.loc 1 177 2767 view .LVU780
	.loc 1 177 8 view .LVU781
	.loc 1 177 31 view .LVU782
	.loc 1 177 10 view .LVU783
	.loc 1 177 6 view .LVU784
	.loc 1 177 29 view .LVU785
	.loc 1 177 53 view .LVU786
	.loc 1 177 81 view .LVU787
	.loc 1 177 257 view .LVU788
	.loc 1 177 17 view .LVU789
.LBB679:
.LBB677:
.LBB675:
.LBB673:
	.loc 1 177 30 view .LVU790
	.loc 1 177 4 view .LVU791
	.loc 1 177 4 view .LVU792
	.loc 1 177 71 view .LVU793
	.loc 1 177 83 is_stmt 0 view .LVU794
	sub	sp, sp, #32
	mov	r2, sp
.LVL48:
	.loc 1 177 75 is_stmt 1 view .LVU795
	.loc 1 177 485 view .LVU796
	.loc 1 177 6 view .LVU797
	.loc 1 177 8 view .LVU798
	.loc 1 177 13 view .LVU799
	.loc 1 177 11 view .LVU800
	.loc 1 177 6 view .LVU801
	.loc 1 177 24 view .LVU802
.LBB667:
	.loc 1 177 4 view .LVU803
	.loc 1 177 369 view .LVU804
	.loc 1 177 76 view .LVU805
.LVL49:
	.loc 1 177 3 view .LVU806
	.loc 1 177 3 view .LVU807
	.loc 1 177 3 view .LVU808
	.loc 1 177 39 view .LVU809
	.loc 1 177 68 view .LVU810
	.loc 1 177 94 view .LVU811
	.loc 1 177 120 view .LVU812
	.loc 1 177 587 view .LVU813
	.loc 1 177 649 view .LVU814
	.loc 1 177 1170 view .LVU815
	.loc 1 177 1235 view .LVU816
	.loc 1 177 1260 view .LVU817
	.loc 1 177 1261 view .LVU818
	.loc 1 177 1263 view .LVU819
	.loc 1 177 1293 view .LVU820
	.loc 1 177 1323 view .LVU821
	.loc 1 177 1355 view .LVU822
	.loc 1 177 1387 view .LVU823
	.loc 1 177 1419 view .LVU824
	.loc 1 177 1616 view .LVU825
	.loc 1 177 1640 view .LVU826
	.loc 1 177 1641 view .LVU827
	.loc 1 177 1643 view .LVU828
	.loc 1 177 1672 view .LVU829
	.loc 1 177 1701 view .LVU830
	.loc 1 177 1732 view .LVU831
	.loc 1 177 1763 view .LVU832
	.loc 1 177 1794 view .LVU833
	.loc 1 177 2001 view .LVU834
.LBB668:
	.loc 1 177 3343 view .LVU835
	.loc 1 177 3348 view .LVU836
	.loc 1 177 0 view .LVU837
	ldr	r3, .L14+28
.LBE668:
.LBB669:
	.loc 1 177 3812 is_stmt 0 view .LVU838
	strd	r3, r0, [r2, #20]
	.loc 1 177 2767 is_stmt 1 view .LVU839
	.loc 1 177 8 view .LVU840
.LVL50:
	.loc 1 177 31 view .LVU841
	.loc 1 177 31 is_stmt 0 view .LVU842
.LBE669:
	.loc 1 177 10 is_stmt 1 view .LVU843
	.loc 1 177 6 view .LVU844
	.loc 1 177 29 view .LVU845
	.loc 1 177 53 view .LVU846
	.loc 1 177 81 view .LVU847
	.loc 1 177 257 view .LVU848
	.loc 1 177 17 view .LVU849
.LBB670:
	.loc 1 177 7 view .LVU850
	.loc 1 177 165 view .LVU851
	.loc 1 177 167 view .LVU852
	.loc 1 177 177 is_stmt 0 view .LVU853
	movs	r3, #3
	str	r3, [r2, #16]!
.LVL51:
	.loc 1 177 177 view .LVU854
.LBE670:
.LBE667:
	.loc 1 177 27 is_stmt 1 view .LVU855
	.loc 1 177 8 view .LVU856
	.loc 1 177 148 view .LVU857
	.loc 1 177 150 view .LVU858
.LBB671:
.LBI671:
	.loc 4 26 20 view .LVU859
.LBB672:
	.loc 4 38 2 view .LVU860
	.loc 4 38 7 view .LVU861
	.loc 4 38 5 view .LVU862
	.loc 4 39 2 view .LVU863
	ldr	r0, .L14+8
.LVL52:
	.loc 4 39 2 is_stmt 0 view .LVU864
	mov	r3, r5
	mov	r1, #6208
	bl	z_impl_z_log_msg_static_create
.LVL53:
	.loc 4 39 2 view .LVU865
.LBE672:
.LBE671:
	mov	sp, r4
.LVL54:
	.loc 4 39 2 view .LVU866
.LBE673:
	.loc 1 177 108 is_stmt 1 view .LVU867
	.loc 1 177 6 view .LVU868
	.loc 1 177 43 view .LVU869
.LBE675:
	.loc 1 177 7 view .LVU870
.LBE677:
	.loc 1 177 279 view .LVU871
	.loc 1 177 6 view .LVU872
	.loc 1 177 19 view .LVU873
	b	.L3
.LVL55:
.L10:
	.loc 1 177 19 is_stmt 0 view .LVU874
.LBE679:
	.loc 1 180 4 is_stmt 1 view .LVU875
	.loc 1 180 21 is_stmt 0 view .LVU876
	add	r4, r4, r0
	strb	r5, [r4, #140]
	.loc 1 182 4 is_stmt 1 view .LVU877
.LBB680:
	.loc 1 182 9 view .LVU878
	b	.L3
.L15:
	.align	2
.L14:
	.word	bt_dev+212
	.word	.LC0
	.word	log_const_bt_settings
	.word	.LC1
	.word	.LC2
	.word	.LC3
	.word	.LC4
	.word	.LC5
.LBE680:
	.cfi_endproc
.LFE550:
	.size	set_setting, .-set_setting
	.section	.rodata.bt_settings_encode_key.str1.1,"aMS",%progbits,1
.LC6:
	.ascii	"bt/%s/%02x%02x%02x%02x%02x%02x%u/%s\000"
.LC7:
	.ascii	"bt/%s/%02x%02x%02x%02x%02x%02x%u\000"
	.section	.text.bt_settings_encode_key,"ax",%progbits
	.align	1
	.global	bt_settings_encode_key
	.syntax unified
	.thumb
	.thumb_func
	.type	bt_settings_encode_key, %function
bt_settings_encode_key:
.LVL56:
.LFB548:
	.loc 1 28 1 view -0
	.cfi_startproc
	@ args = 4, pretend = 0, frame = 0
	@ frame_needed = 0, uses_anonymous_args = 0
	.loc 1 29 2 view .LVU880
	.loc 1 28 1 is_stmt 0 view .LVU881
	push	{r4, r5, r6, r7, r8, lr}
	.cfi_def_cfa_offset 24
	.cfi_offset 4, -24
	.cfi_offset 5, -20
	.cfi_offset 6, -16
	.cfi_offset 7, -12
	.cfi_offset 8, -8
	.cfi_offset 14, -4
	sub	sp, sp, #32
	.cfi_def_cfa_offset 56
	.loc 1 30 3 view .LVU882
	ldrb	r4, [r3, #6]	@ zero_extendqisi2
	.loc 1 28 1 view .LVU883
	ldr	r8, [sp, #56]
	.loc 1 30 3 view .LVU884
	ldrb	r5, [r3, #5]	@ zero_extendqisi2
	ldrb	r6, [r3, #4]	@ zero_extendqisi2
	ldrb	r7, [r3, #3]	@ zero_extendqisi2
	ldrb	ip, [r3, #2]	@ zero_extendqisi2
	ldrb	lr, [r3, #1]	@ zero_extendqisi2
	ldrb	r3, [r3]	@ zero_extendqisi2
.LVL57:
	.loc 1 29 5 view .LVU885
	cmp	r8, #0
	beq	.L17
	.loc 1 30 3 is_stmt 1 view .LVU886
	strd	r3, r8, [sp, #24]
	strd	ip, lr, [sp, #16]
	mov	r3, r2
	strd	r6, r7, [sp, #8]
	strd	r4, r5, [sp]
	ldr	r2, .L19
.LVL58:
	.loc 1 30 3 is_stmt 0 view .LVU887
	bl	snprintf
.LVL59:
.L16:
	.loc 1 44 1 view .LVU888
	add	sp, sp, #32
	.cfi_remember_state
	.cfi_def_cfa_offset 24
	@ sp needed
	pop	{r4, r5, r6, r7, r8, pc}
.LVL60:
.L17:
	.cfi_restore_state
	.loc 1 36 3 is_stmt 1 view .LVU889
	strd	lr, r3, [sp, #20]
	strd	r7, ip, [sp, #12]
	mov	r3, r2
	strd	r5, r6, [sp, #4]
	ldr	r2, .L19+4
.LVL61:
	.loc 1 36 3 is_stmt 0 view .LVU890
	str	r4, [sp]
	bl	snprintf
.LVL62:
	.loc 1 43 2 is_stmt 1 view .LVU891
.LBB681:
	.loc 1 43 7 view .LVU892
.LBE681:
	.loc 1 43 5 view .LVU893
	.loc 1 44 1 is_stmt 0 view .LVU894
	b	.L16
.L20:
	.align	2
.L19:
	.word	.LC6
	.word	.LC7
	.cfi_endproc
.LFE548:
	.size	bt_settings_encode_key, .-bt_settings_encode_key
	.section	.text.bt_settings_decode_key,"ax",%progbits
	.align	1
	.global	bt_settings_decode_key
	.syntax unified
	.thumb
	.thumb_func
	.type	bt_settings_decode_key, %function
bt_settings_decode_key:
.LVL63:
.LFB549:
	.loc 1 97 1 is_stmt 1 view -0
	.cfi_startproc
	@ args = 0, pretend = 0, frame = 0
	@ frame_needed = 0, uses_anonymous_args = 0
	.loc 1 98 2 view .LVU896
	.loc 1 97 1 is_stmt 0 view .LVU897
	push	{r4, r5, r6, lr}
	.cfi_def_cfa_offset 16
	.cfi_offset 4, -16
	.cfi_offset 5, -12
	.cfi_offset 6, -8
	.cfi_offset 14, -4
	.loc 1 97 1 view .LVU898
	mov	r5, r1
	.loc 1 98 6 view .LVU899
	movs	r1, #0
.LVL64:
	.loc 1 97 1 view .LVU900
	mov	r4, r0
	.loc 1 98 6 view .LVU901
	bl	settings_name_next
.LVL65:
	.loc 1 98 5 view .LVU902
	cmp	r0, #13
	bne	.L27
	.loc 1 102 2 is_stmt 1 view .LVU903
	.loc 1 102 9 is_stmt 0 view .LVU904
	ldrb	r3, [r4, #12]	@ zero_extendqisi2
	.loc 1 102 5 view .LVU905
	cmp	r3, #48
	beq	.L26
	.loc 1 104 9 is_stmt 1 view .LVU906
	.loc 1 104 12 is_stmt 0 view .LVU907
	cmp	r3, #49
	bne	.L27
	movs	r3, #1
.L23:
	.loc 1 103 14 view .LVU908
	strb	r3, [r5], #6
.LVL66:
	.loc 1 103 14 view .LVU909
	add	r6, r4, #12
.LVL67:
.L24:
.LBB682:
	.loc 1 111 3 is_stmt 1 discriminator 3 view .LVU910
	mov	r2, r5
	mov	r0, r4
	movs	r3, #1
	movs	r1, #2
	.loc 1 110 24 is_stmt 0 discriminator 3 view .LVU911
	adds	r4, r4, #2
.LVL68:
	.loc 1 111 3 discriminator 3 view .LVU912
	bl	hex2bin
.LVL69:
	.loc 1 110 30 is_stmt 1 discriminator 3 view .LVU913
	.loc 1 110 24 discriminator 3 view .LVU914
	cmp	r4, r6
	add	r5, r5, #-1
	bne	.L24
.LBE682:
	.loc 1 116 9 is_stmt 0 view .LVU915
	movs	r0, #0
.LVL70:
.L21:
	.loc 1 117 1 view .LVU916
	pop	{r4, r5, r6, pc}
.LVL71:
.L26:
	.loc 1 117 1 view .LVU917
	movs	r3, #0
	b	.L23
.L27:
	.loc 1 99 10 view .LVU918
	mvn	r0, #21
	b	.L21
	.cfi_endproc
.LFE549:
	.size	bt_settings_decode_key, .-bt_settings_decode_key
	.section	.rodata.bt_settings_init.str1.1,"aMS",%progbits,1
.LC8:
	.ascii	"settings_subsys_init failed (err %d)\000"
	.section	.text.bt_settings_init,"ax",%progbits
	.align	1
	.global	bt_settings_init
	.syntax unified
	.thumb
	.thumb_func
	.type	bt_settings_init, %function
bt_settings_init:
.LFB552:
	.loc 1 287 1 is_stmt 1 view -0
	.cfi_startproc
	@ args = 0, pretend = 0, frame = 0
	@ frame_needed = 1, uses_anonymous_args = 0
	.loc 1 288 2 view .LVU920
	.loc 1 290 2 view .LVU921
.LBB697:
	.loc 1 290 7 view .LVU922
.LBE697:
	.loc 1 290 5 view .LVU923
	.loc 1 292 2 view .LVU924
	.loc 1 287 1 is_stmt 0 view .LVU925
	push	{r4, r5, r7, lr}
	.cfi_def_cfa_offset 16
	.cfi_offset 4, -16
	.cfi_offset 5, -12
	.cfi_offset 7, -8
	.cfi_offset 14, -4
	add	r7, sp, #0
	.cfi_def_cfa_register 7
	.loc 1 292 8 view .LVU926
	bl	settings_subsys_init
.LVL72:
	.loc 1 293 2 is_stmt 1 view .LVU927
	.loc 1 293 5 is_stmt 0 view .LVU928
	mov	r4, r0
	cbz	r0, .L29
	.loc 1 294 3 is_stmt 1 view .LVU929
.LBB698:
	.loc 1 294 8 view .LVU930
	.loc 1 294 57 view .LVU931
	.loc 1 294 14 view .LVU932
	.loc 1 294 2 view .LVU933
.LVL73:
	.loc 1 294 41 view .LVU934
	.loc 1 294 176 view .LVU935
	.loc 1 294 187 view .LVU936
	.loc 1 294 275 view .LVU937
.LBB699:
	.loc 1 294 3 view .LVU938
	.loc 1 294 5 view .LVU939
	.loc 1 294 3 view .LVU940
.LBB700:
	.loc 1 294 8 view .LVU941
	.loc 1 294 2 view .LVU942
.LBE700:
.LBE699:
.LBE698:
	.loc 1 294 3 view .LVU943
	.loc 1 294 12 view .LVU944
	.loc 1 294 107 view .LVU945
	.loc 1 294 3 view .LVU946
.LBB717:
.LBB714:
.LBB711:
	.loc 1 294 12 view .LVU947
	.loc 1 294 102 view .LVU948
	.loc 1 294 104 view .LVU949
.LBB701:
	.loc 1 294 107 is_stmt 0 view .LVU950
	mov	r5, sp
	.loc 1 294 109 is_stmt 1 view .LVU951
	.loc 1 294 120 view .LVU952
.LVL74:
	.loc 1 294 209 view .LVU953
	.loc 1 294 26 view .LVU954
.LBE701:
.LBE711:
.LBE714:
.LBE717:
	.loc 1 294 3 view .LVU955
	.loc 1 294 368 view .LVU956
	.loc 1 294 75 view .LVU957
	.loc 1 294 2 view .LVU958
	.loc 1 294 2 view .LVU959
	.loc 1 294 2 view .LVU960
	.loc 1 294 38 view .LVU961
	.loc 1 294 4 view .LVU962
	.loc 1 294 30 view .LVU963
	.loc 1 294 56 view .LVU964
	.loc 1 294 523 view .LVU965
	.loc 1 294 585 view .LVU966
	.loc 1 294 1106 view .LVU967
	.loc 1 294 1171 view .LVU968
	.loc 1 294 1196 view .LVU969
	.loc 1 294 1197 view .LVU970
	.loc 1 294 1199 view .LVU971
	.loc 1 294 1229 view .LVU972
	.loc 1 294 1259 view .LVU973
	.loc 1 294 1291 view .LVU974
	.loc 1 294 1323 view .LVU975
	.loc 1 294 1355 view .LVU976
	.loc 1 294 1552 view .LVU977
	.loc 1 294 1576 view .LVU978
	.loc 1 294 1577 view .LVU979
	.loc 1 294 1579 view .LVU980
	.loc 1 294 1608 view .LVU981
	.loc 1 294 1637 view .LVU982
	.loc 1 294 1668 view .LVU983
	.loc 1 294 1699 view .LVU984
	.loc 1 294 1730 view .LVU985
	.loc 1 294 1937 view .LVU986
	.loc 1 294 4 view .LVU987
	.loc 1 294 22 view .LVU988
	.loc 1 294 42 view .LVU989
	.loc 1 294 4 view .LVU990
	.loc 1 294 42 view .LVU991
	.loc 1 294 13 view .LVU992
	.loc 1 294 13 view .LVU993
	.loc 1 294 61 view .LVU994
	.loc 1 294 92 view .LVU995
	.loc 1 294 126 view .LVU996
	.loc 1 294 131 view .LVU997
	.loc 1 294 391 view .LVU998
	.loc 1 294 1484 view .LVU999
	.loc 1 294 1549 view .LVU1000
	.loc 1 294 1573 view .LVU1001
	.loc 1 294 1637 view .LVU1002
	.loc 1 294 1648 view .LVU1003
	.loc 1 294 1770 view .LVU1004
	.loc 1 294 1786 view .LVU1005
	.loc 1 294 1826 view .LVU1006
	.loc 1 294 1851 view .LVU1007
	.loc 1 294 3160 view .LVU1008
	.loc 1 294 3201 view .LVU1009
	.loc 1 294 7 view .LVU1010
	.loc 1 294 30 view .LVU1011
	.loc 1 294 129 view .LVU1012
	.loc 1 294 6 view .LVU1013
	.loc 1 294 11 view .LVU1014
	.loc 1 294 236 view .LVU1015
	.loc 1 294 1189 view .LVU1016
	.loc 1 294 1254 view .LVU1017
	.loc 1 294 1278 view .LVU1018
	.loc 1 294 1307 view .LVU1019
	.loc 1 294 1318 view .LVU1020
	.loc 1 294 1405 view .LVU1021
	.loc 1 294 1421 view .LVU1022
	.loc 1 294 1461 view .LVU1023
	.loc 1 294 2725 view .LVU1024
	.loc 1 294 2766 view .LVU1025
	.loc 1 294 7 view .LVU1026
	.loc 1 294 30 view .LVU1027
	.loc 1 294 9 view .LVU1028
	.loc 1 294 5 view .LVU1029
	.loc 1 294 28 view .LVU1030
	.loc 1 294 52 view .LVU1031
	.loc 1 294 80 view .LVU1032
	.loc 1 294 256 view .LVU1033
	.loc 1 294 16 view .LVU1034
.LBB718:
.LBB715:
.LBB712:
.LBB709:
	.loc 1 294 29 view .LVU1035
	.loc 1 294 3 view .LVU1036
	.loc 1 294 3 view .LVU1037
	.loc 1 294 70 view .LVU1038
	.loc 1 294 82 is_stmt 0 view .LVU1039
	sub	sp, sp, #32
	mov	r2, sp
.LVL75:
	.loc 1 294 74 is_stmt 1 view .LVU1040
	.loc 1 294 484 view .LVU1041
	.loc 1 294 5 view .LVU1042
	.loc 1 294 7 view .LVU1043
	.loc 1 294 12 view .LVU1044
	.loc 1 294 10 view .LVU1045
	.loc 1 294 5 view .LVU1046
	.loc 1 294 23 view .LVU1047
.LBB702:
	.loc 1 294 3 view .LVU1048
	.loc 1 294 368 view .LVU1049
	.loc 1 294 75 view .LVU1050
.LVL76:
	.loc 1 294 2 view .LVU1051
	.loc 1 294 2 view .LVU1052
	.loc 1 294 2 view .LVU1053
	.loc 1 294 38 view .LVU1054
	.loc 1 294 67 view .LVU1055
	.loc 1 294 93 view .LVU1056
	.loc 1 294 119 view .LVU1057
	.loc 1 294 586 view .LVU1058
	.loc 1 294 648 view .LVU1059
	.loc 1 294 1169 view .LVU1060
	.loc 1 294 1234 view .LVU1061
	.loc 1 294 1259 view .LVU1062
	.loc 1 294 1260 view .LVU1063
	.loc 1 294 1262 view .LVU1064
	.loc 1 294 1292 view .LVU1065
	.loc 1 294 1322 view .LVU1066
	.loc 1 294 1354 view .LVU1067
	.loc 1 294 1386 view .LVU1068
	.loc 1 294 1418 view .LVU1069
	.loc 1 294 1615 view .LVU1070
	.loc 1 294 1639 view .LVU1071
	.loc 1 294 1640 view .LVU1072
	.loc 1 294 1642 view .LVU1073
	.loc 1 294 1671 view .LVU1074
	.loc 1 294 1700 view .LVU1075
	.loc 1 294 1731 view .LVU1076
	.loc 1 294 1762 view .LVU1077
	.loc 1 294 1793 view .LVU1078
	.loc 1 294 2000 view .LVU1079
.LBB703:
	.loc 1 294 3198 view .LVU1080
	.loc 1 294 3203 view .LVU1081
	.loc 1 294 3857 view .LVU1082
	.loc 1 294 0 is_stmt 0 view .LVU1083
	ldr	r3, .L34
.LBE703:
.LBB704:
	.loc 1 294 3811 view .LVU1084
	strd	r3, r0, [r2, #20]
	.loc 1 294 2766 is_stmt 1 view .LVU1085
	.loc 1 294 7 view .LVU1086
.LVL77:
	.loc 1 294 30 view .LVU1087
	.loc 1 294 30 is_stmt 0 view .LVU1088
.LBE704:
	.loc 1 294 9 is_stmt 1 view .LVU1089
	.loc 1 294 5 view .LVU1090
	.loc 1 294 28 view .LVU1091
	.loc 1 294 52 view .LVU1092
	.loc 1 294 80 view .LVU1093
.LBE702:
.LBE709:
.LBE712:
.LBE715:
.LBE718:
	.loc 1 294 6 view .LVU1094
	.loc 1 294 45 view .LVU1095
	.loc 1 294 50 view .LVU1096
	.loc 1 294 80 view .LVU1097
	.loc 1 294 147 view .LVU1098
	.loc 1 294 152 view .LVU1099
	.loc 1 294 182 view .LVU1100
.LBB719:
.LBB716:
.LBB713:
.LBB710:
.LBB706:
	.loc 1 294 256 view .LVU1101
	.loc 1 294 16 view .LVU1102
.LBB705:
	.loc 1 294 6 view .LVU1103
	.loc 1 294 164 view .LVU1104
	.loc 1 294 166 view .LVU1105
	.loc 1 294 176 is_stmt 0 view .LVU1106
	movs	r3, #3
	str	r3, [r2, #16]!
.LVL78:
	.loc 1 294 176 view .LVU1107
.LBE705:
.LBE706:
	.loc 1 294 26 is_stmt 1 view .LVU1108
	.loc 1 294 7 view .LVU1109
	.loc 1 294 147 view .LVU1110
	.loc 1 294 149 view .LVU1111
.LBB707:
.LBI707:
	.loc 4 26 20 view .LVU1112
.LBB708:
	.loc 4 38 2 view .LVU1113
	.loc 4 38 7 view .LVU1114
	.loc 4 38 5 view .LVU1115
	.loc 4 39 2 view .LVU1116
	ldr	r0, .L34+4
.LVL79:
	.loc 4 39 2 is_stmt 0 view .LVU1117
	movs	r3, #0
	mov	r1, #6208
	bl	z_impl_z_log_msg_static_create
.LVL80:
	.loc 4 39 2 view .LVU1118
.LBE708:
.LBE707:
	mov	sp, r5
.LVL81:
	.loc 4 39 2 view .LVU1119
.LBE710:
	.loc 1 294 107 is_stmt 1 view .LVU1120
	.loc 1 294 5 view .LVU1121
	.loc 1 294 42 view .LVU1122
.LBE713:
	.loc 1 294 6 view .LVU1123
.LBE716:
	.loc 1 294 278 view .LVU1124
	.loc 1 294 5 view .LVU1125
	.loc 1 294 18 view .LVU1126
.LBE719:
	.loc 1 294 6 view .LVU1127
	.loc 1 295 3 view .LVU1128
.L29:
	.loc 1 299 1 is_stmt 0 view .LVU1129
	mov	r0, r4
	mov	sp, r7
	.cfi_def_cfa_register 13
	@ sp needed
	pop	{r4, r5, r7, pc}
.LVL82:
.L35:
	.loc 1 299 1 view .LVU1130
	.align	2
.L34:
	.word	.LC8
	.word	log_const_bt_settings
	.cfi_endproc
.LFE552:
	.size	bt_settings_init, .-bt_settings_init
	.section	.rodata.bt_settings_store.str1.1,"aMS",%progbits,1
.LC9:
	.ascii	"bt/%s\000"
	.section	.text.bt_settings_store,"ax",%progbits
	.align	1
	.global	bt_settings_store
	.syntax unified
	.thumb
	.thumb_func
	.type	bt_settings_store, %function
bt_settings_store:
.LVL83:
.LFB553:
	.loc 1 303 1 is_stmt 1 view -0
	.cfi_startproc
	@ args = 4, pretend = 0, frame = 40
	@ frame_needed = 0, uses_anonymous_args = 0
	.loc 1 304 2 view .LVU1132
	.loc 1 305 2 view .LVU1133
	.loc 1 306 2 view .LVU1134
	.loc 1 308 2 view .LVU1135
	.loc 1 303 1 is_stmt 0 view .LVU1136
	push	{r4, r5, r6, lr}
	.cfi_def_cfa_offset 16
	.cfi_offset 4, -16
	.cfi_offset 5, -12
	.cfi_offset 6, -8
	.cfi_offset 14, -4
	mov	r4, r0
	sub	sp, sp, #48
	.cfi_def_cfa_offset 64
	.loc 1 303 1 view .LVU1137
	mov	r6, r3
	.loc 1 308 5 view .LVU1138
	mov	r5, r2
	cbz	r2, .L37
	.loc 1 309 3 is_stmt 1 view .LVU1139
	.loc 1 309 6 is_stmt 0 view .LVU1140
	cbz	r1, .L38
	.loc 1 310 4 is_stmt 1 view .LVU1141
	mov	r2, r1
.LVL84:
	.loc 1 310 4 is_stmt 0 view .LVU1142
	add	r0, sp, #8
.LVL85:
	.loc 1 310 4 view .LVU1143
	movs	r1, #4
.LVL86:
	.loc 1 310 4 view .LVU1144
	bl	u8_to_dec
.LVL87:
	.loc 1 313 3 is_stmt 1 view .LVU1145
	add	r1, sp, #8
.L38:
	.loc 1 313 3 is_stmt 0 discriminator 4 view .LVU1146
	str	r1, [sp]
	mov	r3, r5
	mov	r2, r4
	movs	r1, #36
	add	r0, sp, #12
	bl	bt_settings_encode_key
.LVL88:
.L39:
	.loc 1 321 2 is_stmt 1 view .LVU1147
	.loc 1 321 9 is_stmt 0 view .LVU1148
	ldr	r2, [sp, #64]
	mov	r1, r6
	add	r0, sp, #12
	bl	settings_save_one
.LVL89:
.L36:
	.loc 1 322 1 view .LVU1149
	add	sp, sp, #48
	.cfi_remember_state
	.cfi_def_cfa_offset 16
	@ sp needed
	pop	{r4, r5, r6, pc}
.LVL90:
.L37:
	.cfi_restore_state
	.loc 1 315 3 is_stmt 1 view .LVU1150
	.loc 1 315 9 is_stmt 0 view .LVU1151
	mov	r3, r0
.LVL91:
	.loc 1 315 9 view .LVU1152
	ldr	r2, .L43
.LVL92:
	.loc 1 315 9 view .LVU1153
	movs	r1, #36
.LVL93:
	.loc 1 315 9 view .LVU1154
	add	r0, sp, #12
.LVL94:
	.loc 1 315 9 view .LVU1155
	bl	snprintf
.LVL95:
	.loc 1 316 3 is_stmt 1 view .LVU1156
	.loc 1 316 6 is_stmt 0 view .LVU1157
	cmp	r0, #0
	bge	.L39
	.loc 1 317 11 view .LVU1158
	mvn	r0, #21
.LVL96:
	.loc 1 317 11 view .LVU1159
	b	.L36
.L44:
	.align	2
.L43:
	.word	.LC9
	.cfi_endproc
.LFE553:
	.size	bt_settings_store, .-bt_settings_store
	.section	.rodata.do_store_id.str1.1,"aMS",%progbits,1
.LC10:
	.ascii	"Failed to save ID (err %d)\000"
	.section	.text.do_store_id,"ax",%progbits
	.align	1
	.syntax unified
	.thumb
	.thumb_func
	.type	do_store_id, %function
do_store_id:
.LVL97:
.LFB567:
	.loc 1 407 1 is_stmt 1 view -0
	.cfi_startproc
	@ args = 0, pretend = 0, frame = 0
	@ frame_needed = 1, uses_anonymous_args = 0
	.loc 1 408 2 view .LVU1161
	.loc 1 407 1 is_stmt 0 view .LVU1162
	push	{r4, r7, lr}
	.cfi_def_cfa_offset 12
	.cfi_offset 4, -12
	.cfi_offset 7, -8
	.cfi_offset 14, -4
	.loc 1 408 12 view .LVU1163
	ldr	r3, .L50
	ldr	r0, .L50+4
.LVL98:
	.loc 1 407 1 view .LVU1164
	sub	sp, sp, #12
	.cfi_def_cfa_offset 24
	.loc 1 408 12 view .LVU1165
	ldrb	r2, [r3, #7]	@ zero_extendqisi2
	rsb	r2, r2, r2, lsl #3
	str	r2, [sp]
	movs	r2, #0
	.loc 1 407 1 view .LVU1166
	add	r7, sp, #8
	.cfi_def_cfa 7, 16
	.loc 1 408 12 view .LVU1167
	mov	r1, r2
	bl	bt_settings_store
.LVL99:
	.loc 1 410 2 is_stmt 1 view .LVU1168
	.loc 1 410 5 is_stmt 0 view .LVU1169
	cbz	r0, .L45
	.loc 1 411 3 is_stmt 1 view .LVU1170
.LBB730:
	.loc 1 411 8 view .LVU1171
	.loc 1 411 57 view .LVU1172
	.loc 1 411 14 view .LVU1173
	.loc 1 411 2 view .LVU1174
.LVL100:
	.loc 1 411 41 view .LVU1175
	.loc 1 411 176 view .LVU1176
	.loc 1 411 187 view .LVU1177
	.loc 1 411 275 view .LVU1178
.LBB731:
	.loc 1 411 3 view .LVU1179
	.loc 1 411 5 view .LVU1180
	.loc 1 411 3 view .LVU1181
.LBB732:
	.loc 1 411 8 view .LVU1182
	.loc 1 411 2 view .LVU1183
.LBE732:
.LBE731:
.LBE730:
	.loc 1 411 3 view .LVU1184
	.loc 1 411 12 view .LVU1185
	.loc 1 411 107 view .LVU1186
	.loc 1 411 3 view .LVU1187
.LBB749:
.LBB746:
.LBB743:
	.loc 1 411 12 view .LVU1188
	.loc 1 411 102 view .LVU1189
	.loc 1 411 104 view .LVU1190
.LBB733:
	.loc 1 411 107 is_stmt 0 view .LVU1191
	mov	r4, sp
	.loc 1 411 109 is_stmt 1 view .LVU1192
	.loc 1 411 120 view .LVU1193
.LVL101:
	.loc 1 411 209 view .LVU1194
	.loc 1 411 26 view .LVU1195
.LBE733:
.LBE743:
.LBE746:
.LBE749:
	.loc 1 411 3 view .LVU1196
	.loc 1 411 368 view .LVU1197
	.loc 1 411 75 view .LVU1198
	.loc 1 411 2 view .LVU1199
	.loc 1 411 2 view .LVU1200
	.loc 1 411 2 view .LVU1201
	.loc 1 411 38 view .LVU1202
	.loc 1 411 4 view .LVU1203
	.loc 1 411 30 view .LVU1204
	.loc 1 411 56 view .LVU1205
	.loc 1 411 523 view .LVU1206
	.loc 1 411 585 view .LVU1207
	.loc 1 411 1106 view .LVU1208
	.loc 1 411 1171 view .LVU1209
	.loc 1 411 1196 view .LVU1210
	.loc 1 411 1197 view .LVU1211
	.loc 1 411 1199 view .LVU1212
	.loc 1 411 1229 view .LVU1213
	.loc 1 411 1259 view .LVU1214
	.loc 1 411 1291 view .LVU1215
	.loc 1 411 1323 view .LVU1216
	.loc 1 411 1355 view .LVU1217
	.loc 1 411 1552 view .LVU1218
	.loc 1 411 1576 view .LVU1219
	.loc 1 411 1577 view .LVU1220
	.loc 1 411 1579 view .LVU1221
	.loc 1 411 1608 view .LVU1222
	.loc 1 411 1637 view .LVU1223
	.loc 1 411 1668 view .LVU1224
	.loc 1 411 1699 view .LVU1225
	.loc 1 411 1730 view .LVU1226
	.loc 1 411 1937 view .LVU1227
	.loc 1 411 4 view .LVU1228
	.loc 1 411 22 view .LVU1229
	.loc 1 411 42 view .LVU1230
	.loc 1 411 4 view .LVU1231
	.loc 1 411 42 view .LVU1232
	.loc 1 411 13 view .LVU1233
	.loc 1 411 13 view .LVU1234
	.loc 1 411 61 view .LVU1235
	.loc 1 411 92 view .LVU1236
	.loc 1 411 126 view .LVU1237
	.loc 1 411 131 view .LVU1238
	.loc 1 411 381 view .LVU1239
	.loc 1 411 1434 view .LVU1240
	.loc 1 411 1499 view .LVU1241
	.loc 1 411 1523 view .LVU1242
	.loc 1 411 1577 view .LVU1243
	.loc 1 411 1588 view .LVU1244
	.loc 1 411 1700 view .LVU1245
	.loc 1 411 1716 view .LVU1246
	.loc 1 411 1756 view .LVU1247
	.loc 1 411 1781 view .LVU1248
	.loc 1 411 3070 view .LVU1249
	.loc 1 411 3111 view .LVU1250
	.loc 1 411 7 view .LVU1251
	.loc 1 411 30 view .LVU1252
	.loc 1 411 129 view .LVU1253
	.loc 1 411 6 view .LVU1254
	.loc 1 411 11 view .LVU1255
	.loc 1 411 236 view .LVU1256
	.loc 1 411 1189 view .LVU1257
	.loc 1 411 1254 view .LVU1258
	.loc 1 411 1278 view .LVU1259
	.loc 1 411 1307 view .LVU1260
	.loc 1 411 1318 view .LVU1261
	.loc 1 411 1405 view .LVU1262
	.loc 1 411 1421 view .LVU1263
	.loc 1 411 1461 view .LVU1264
	.loc 1 411 2725 view .LVU1265
	.loc 1 411 2766 view .LVU1266
	.loc 1 411 7 view .LVU1267
	.loc 1 411 30 view .LVU1268
	.loc 1 411 9 view .LVU1269
	.loc 1 411 5 view .LVU1270
	.loc 1 411 28 view .LVU1271
	.loc 1 411 52 view .LVU1272
	.loc 1 411 80 view .LVU1273
	.loc 1 411 256 view .LVU1274
	.loc 1 411 16 view .LVU1275
.LBB750:
.LBB747:
.LBB744:
.LBB741:
	.loc 1 411 29 view .LVU1276
	.loc 1 411 3 view .LVU1277
	.loc 1 411 3 view .LVU1278
	.loc 1 411 70 view .LVU1279
	.loc 1 411 82 is_stmt 0 view .LVU1280
	sub	sp, sp, #32
	add	r2, sp, #8
.LVL102:
	.loc 1 411 74 is_stmt 1 view .LVU1281
	.loc 1 411 484 view .LVU1282
	.loc 1 411 5 view .LVU1283
	.loc 1 411 7 view .LVU1284
	.loc 1 411 12 view .LVU1285
	.loc 1 411 10 view .LVU1286
	.loc 1 411 5 view .LVU1287
	.loc 1 411 23 view .LVU1288
.LBB734:
	.loc 1 411 3 view .LVU1289
	.loc 1 411 368 view .LVU1290
	.loc 1 411 75 view .LVU1291
.LVL103:
	.loc 1 411 2 view .LVU1292
	.loc 1 411 2 view .LVU1293
	.loc 1 411 2 view .LVU1294
	.loc 1 411 38 view .LVU1295
	.loc 1 411 67 view .LVU1296
	.loc 1 411 93 view .LVU1297
	.loc 1 411 119 view .LVU1298
	.loc 1 411 586 view .LVU1299
	.loc 1 411 648 view .LVU1300
	.loc 1 411 1169 view .LVU1301
	.loc 1 411 1234 view .LVU1302
	.loc 1 411 1259 view .LVU1303
	.loc 1 411 1260 view .LVU1304
	.loc 1 411 1262 view .LVU1305
	.loc 1 411 1292 view .LVU1306
	.loc 1 411 1322 view .LVU1307
	.loc 1 411 1354 view .LVU1308
	.loc 1 411 1386 view .LVU1309
	.loc 1 411 1418 view .LVU1310
	.loc 1 411 1615 view .LVU1311
	.loc 1 411 1639 view .LVU1312
	.loc 1 411 1640 view .LVU1313
	.loc 1 411 1642 view .LVU1314
	.loc 1 411 1671 view .LVU1315
	.loc 1 411 1700 view .LVU1316
	.loc 1 411 1731 view .LVU1317
	.loc 1 411 1762 view .LVU1318
	.loc 1 411 1793 view .LVU1319
	.loc 1 411 2000 view .LVU1320
.LBB735:
	.loc 1 411 3108 view .LVU1321
	.loc 1 411 3113 view .LVU1322
	.loc 1 411 3707 view .LVU1323
	.loc 1 411 0 is_stmt 0 view .LVU1324
	ldr	r3, .L50+8
.LBE735:
.LBB736:
	.loc 1 411 3811 view .LVU1325
	strd	r3, r0, [r2, #20]
	.loc 1 411 2766 is_stmt 1 view .LVU1326
	.loc 1 411 7 view .LVU1327
.LVL104:
	.loc 1 411 30 view .LVU1328
	.loc 1 411 30 is_stmt 0 view .LVU1329
.LBE736:
	.loc 1 411 9 is_stmt 1 view .LVU1330
	.loc 1 411 5 view .LVU1331
	.loc 1 411 28 view .LVU1332
	.loc 1 411 52 view .LVU1333
	.loc 1 411 80 view .LVU1334
.LBE734:
.LBE741:
.LBE744:
.LBE747:
.LBE750:
	.loc 1 411 6 view .LVU1335
	.loc 1 411 45 view .LVU1336
	.loc 1 411 50 view .LVU1337
	.loc 1 411 80 view .LVU1338
	.loc 1 411 147 view .LVU1339
	.loc 1 411 152 view .LVU1340
	.loc 1 411 182 view .LVU1341
.LBB751:
.LBB748:
.LBB745:
.LBB742:
.LBB738:
	.loc 1 411 256 view .LVU1342
	.loc 1 411 16 view .LVU1343
.LBB737:
	.loc 1 411 6 view .LVU1344
	.loc 1 411 164 view .LVU1345
	.loc 1 411 166 view .LVU1346
	.loc 1 411 176 is_stmt 0 view .LVU1347
	movs	r3, #3
	str	r3, [r2, #16]!
.LVL105:
	.loc 1 411 176 view .LVU1348
.LBE737:
.LBE738:
	.loc 1 411 26 is_stmt 1 view .LVU1349
	.loc 1 411 7 view .LVU1350
	.loc 1 411 147 view .LVU1351
	.loc 1 411 149 view .LVU1352
.LBB739:
.LBI739:
	.loc 4 26 20 view .LVU1353
.LBB740:
	.loc 4 38 2 view .LVU1354
	.loc 4 38 7 view .LVU1355
	.loc 4 38 5 view .LVU1356
	.loc 4 39 2 view .LVU1357
	ldr	r0, .L50+12
.LVL106:
	.loc 4 39 2 is_stmt 0 view .LVU1358
	movs	r3, #0
	mov	r1, #6208
	bl	z_impl_z_log_msg_static_create
.LVL107:
	.loc 4 39 2 view .LVU1359
.LBE740:
.LBE739:
	mov	sp, r4
.LBE742:
	.loc 1 411 107 is_stmt 1 view .LVU1360
	.loc 1 411 5 view .LVU1361
.LVL108:
	.loc 1 411 42 view .LVU1362
.LBE745:
	.loc 1 411 6 view .LVU1363
.LBE748:
	.loc 1 411 278 view .LVU1364
	.loc 1 411 5 view .LVU1365
	.loc 1 411 18 view .LVU1366
.LBE751:
	.loc 1 411 6 view .LVU1367
.L45:
	.loc 1 413 1 is_stmt 0 view .LVU1368
	adds	r7, r7, #4
	.cfi_def_cfa_offset 12
	mov	sp, r7
	.cfi_def_cfa_register 13
	@ sp needed
	pop	{r4, r7, pc}
.L51:
	.align	2
.L50:
	.word	bt_dev
	.word	.LC1
	.word	.LC10
	.word	log_const_bt_settings
	.cfi_endproc
.LFE567:
	.size	do_store_id, .-do_store_id
	.section	.text.bt_settings_delete,"ax",%progbits
	.align	1
	.global	bt_settings_delete
	.syntax unified
	.thumb
	.thumb_func
	.type	bt_settings_delete, %function
bt_settings_delete:
.LVL109:
.LFB554:
	.loc 1 325 1 is_stmt 1 view -0
	.cfi_startproc
	@ args = 0, pretend = 0, frame = 40
	@ frame_needed = 0, uses_anonymous_args = 0
	.loc 1 326 2 view .LVU1370
	.loc 1 327 2 view .LVU1371
	.loc 1 328 2 view .LVU1372
	.loc 1 330 2 view .LVU1373
	.loc 1 325 1 is_stmt 0 view .LVU1374
	push	{r4, r5, lr}
	.cfi_def_cfa_offset 12
	.cfi_offset 4, -12
	.cfi_offset 5, -8
	.cfi_offset 14, -4
	mov	r4, r0
	sub	sp, sp, #52
	.cfi_def_cfa_offset 64
	.loc 1 330 5 view .LVU1375
	mov	r5, r2
	cbz	r2, .L53
	.loc 1 331 3 is_stmt 1 view .LVU1376
	.loc 1 331 6 is_stmt 0 view .LVU1377
	cbz	r1, .L54
	.loc 1 332 4 is_stmt 1 view .LVU1378
	mov	r2, r1
.LVL110:
	.loc 1 332 4 is_stmt 0 view .LVU1379
	add	r0, sp, #8
.LVL111:
	.loc 1 332 4 view .LVU1380
	movs	r1, #4
.LVL112:
	.loc 1 332 4 view .LVU1381
	bl	u8_to_dec
.LVL113:
	.loc 1 335 3 is_stmt 1 view .LVU1382
	add	r1, sp, #8
.L54:
	.loc 1 335 3 is_stmt 0 discriminator 4 view .LVU1383
	str	r1, [sp]
	mov	r3, r5
	mov	r2, r4
	movs	r1, #36
	add	r0, sp, #12
	bl	bt_settings_encode_key
.LVL114:
.L55:
	.loc 1 343 2 is_stmt 1 view .LVU1384
	.loc 1 343 9 is_stmt 0 view .LVU1385
	add	r0, sp, #12
	bl	settings_delete
.LVL115:
.L52:
	.loc 1 344 1 view .LVU1386
	add	sp, sp, #52
	.cfi_remember_state
	.cfi_def_cfa_offset 12
	@ sp needed
	pop	{r4, r5, pc}
.LVL116:
.L53:
	.cfi_restore_state
	.loc 1 337 3 is_stmt 1 view .LVU1387
	.loc 1 337 9 is_stmt 0 view .LVU1388
	mov	r3, r0
	ldr	r2, .L59
.LVL117:
	.loc 1 337 9 view .LVU1389
	movs	r1, #36
.LVL118:
	.loc 1 337 9 view .LVU1390
	add	r0, sp, #12
.LVL119:
	.loc 1 337 9 view .LVU1391
	bl	snprintf
.LVL120:
	.loc 1 338 3 is_stmt 1 view .LVU1392
	.loc 1 338 6 is_stmt 0 view .LVU1393
	cmp	r0, #0
	bge	.L55
	.loc 1 339 11 view .LVU1394
	mvn	r0, #21
.LVL121:
	.loc 1 339 11 view .LVU1395
	b	.L52
.L60:
	.align	2
.L59:
	.word	.LC9
	.cfi_endproc
.LFE554:
	.size	bt_settings_delete, .-bt_settings_delete
	.section	.rodata.bt_settings_store_sc.str1.1,"aMS",%progbits,1
.LC11:
	.ascii	"sc\000"
	.section	.text.bt_settings_store_sc,"ax",%progbits
	.align	1
	.global	bt_settings_store_sc
	.syntax unified
	.thumb
	.thumb_func
	.type	bt_settings_store_sc, %function
bt_settings_store_sc:
.LVL122:
.LFB555:
	.loc 1 347 1 is_stmt 1 view -0
	.cfi_startproc
	@ args = 0, pretend = 0, frame = 0
	@ frame_needed = 0, uses_anonymous_args = 0
	.loc 1 348 2 view .LVU1397
	.loc 1 347 1 is_stmt 0 view .LVU1398
	push	{r0, r1, r2, lr}
	.cfi_def_cfa_offset 16
	.cfi_offset 14, -4
	.loc 1 348 9 view .LVU1399
	str	r3, [sp]
	mov	r3, r2
.LVL123:
	.loc 1 348 9 view .LVU1400
	mov	r2, r1
.LVL124:
	.loc 1 348 9 view .LVU1401
	mov	r1, r0
.LVL125:
	.loc 1 348 9 view .LVU1402
	ldr	r0, .L62
.LVL126:
	.loc 1 348 9 view .LVU1403
	bl	bt_settings_store
.LVL127:
	.loc 1 349 1 view .LVU1404
	add	sp, sp, #12
	.cfi_def_cfa_offset 4
	@ sp needed
	ldr	pc, [sp], #4
.L63:
	.align	2
.L62:
	.word	.LC11
	.cfi_endproc
.LFE555:
	.size	bt_settings_store_sc, .-bt_settings_store_sc
	.section	.text.bt_settings_delete_sc,"ax",%progbits
	.align	1
	.global	bt_settings_delete_sc
	.syntax unified
	.thumb
	.thumb_func
	.type	bt_settings_delete_sc, %function
bt_settings_delete_sc:
.LVL128:
.LFB556:
	.loc 1 352 1 is_stmt 1 view -0
	.cfi_startproc
	@ args = 0, pretend = 0, frame = 0
	@ frame_needed = 0, uses_anonymous_args = 0
	@ link register save eliminated.
	.loc 1 353 2 view .LVU1406
	.loc 1 352 1 is_stmt 0 view .LVU1407
	mov	r2, r1
	.loc 1 353 9 view .LVU1408
	mov	r1, r0
.LVL129:
	.loc 1 353 9 view .LVU1409
	ldr	r0, .L65
.LVL130:
	.loc 1 353 9 view .LVU1410
	b	bt_settings_delete
.LVL131:
.L66:
	.loc 1 353 9 view .LVU1411
	.align	2
.L65:
	.word	.LC11
	.cfi_endproc
.LFE556:
	.size	bt_settings_delete_sc, .-bt_settings_delete_sc
	.section	.rodata.bt_settings_store_cf.str1.1,"aMS",%progbits,1
.LC12:
	.ascii	"cf\000"
	.section	.text.bt_settings_store_cf,"ax",%progbits
	.align	1
	.global	bt_settings_store_cf
	.syntax unified
	.thumb
	.thumb_func
	.type	bt_settings_store_cf, %function
bt_settings_store_cf:
.LVL132:
.LFB557:
	.loc 1 357 1 is_stmt 1 view -0
	.cfi_startproc
	@ args = 0, pretend = 0, frame = 0
	@ frame_needed = 0, uses_anonymous_args = 0
	.loc 1 358 2 view .LVU1413
	.loc 1 357 1 is_stmt 0 view .LVU1414
	push	{r0, r1, r2, lr}
	.cfi_def_cfa_offset 16
	.cfi_offset 14, -4
	.loc 1 358 9 view .LVU1415
	str	r3, [sp]
	mov	r3, r2
.LVL133:
	.loc 1 358 9 view .LVU1416
	mov	r2, r1
.LVL134:
	.loc 1 358 9 view .LVU1417
	mov	r1, r0
.LVL135:
	.loc 1 358 9 view .LVU1418
	ldr	r0, .L68
.LVL136:
	.loc 1 358 9 view .LVU1419
	bl	bt_settings_store
.LVL137:
	.loc 1 359 1 view .LVU1420
	add	sp, sp, #12
	.cfi_def_cfa_offset 4
	@ sp needed
	ldr	pc, [sp], #4
.L69:
	.align	2
.L68:
	.word	.LC12
	.cfi_endproc
.LFE557:
	.size	bt_settings_store_cf, .-bt_settings_store_cf
	.section	.text.bt_settings_delete_cf,"ax",%progbits
	.align	1
	.global	bt_settings_delete_cf
	.syntax unified
	.thumb
	.thumb_func
	.type	bt_settings_delete_cf, %function
bt_settings_delete_cf:
.LVL138:
.LFB558:
	.loc 1 362 1 is_stmt 1 view -0
	.cfi_startproc
	@ args = 0, pretend = 0, frame = 0
	@ frame_needed = 0, uses_anonymous_args = 0
	@ link register save eliminated.
	.loc 1 363 2 view .LVU1422
	.loc 1 362 1 is_stmt 0 view .LVU1423
	mov	r2, r1
	.loc 1 363 9 view .LVU1424
	mov	r1, r0
.LVL139:
	.loc 1 363 9 view .LVU1425
	ldr	r0, .L71
.LVL140:
	.loc 1 363 9 view .LVU1426
	b	bt_settings_delete
.LVL141:
.L72:
	.loc 1 363 9 view .LVU1427
	.align	2
.L71:
	.word	.LC12
	.cfi_endproc
.LFE558:
	.size	bt_settings_delete_cf, .-bt_settings_delete_cf
	.section	.rodata.bt_settings_store_ccc.str1.1,"aMS",%progbits,1
.LC13:
	.ascii	"ccc\000"
	.section	.text.bt_settings_store_ccc,"ax",%progbits
	.align	1
	.global	bt_settings_store_ccc
	.syntax unified
	.thumb
	.thumb_func
	.type	bt_settings_store_ccc, %function
bt_settings_store_ccc:
.LVL142:
.LFB559:
	.loc 1 367 1 is_stmt 1 view -0
	.cfi_startproc
	@ args = 0, pretend = 0, frame = 0
	@ frame_needed = 0, uses_anonymous_args = 0
	.loc 1 368 2 view .LVU1429
	.loc 1 367 1 is_stmt 0 view .LVU1430
	push	{r0, r1, r2, lr}
	.cfi_def_cfa_offset 16
	.cfi_offset 14, -4
	.loc 1 368 9 view .LVU1431
	str	r3, [sp]
	mov	r3, r2
.LVL143:
	.loc 1 368 9 view .LVU1432
	mov	r2, r1
.LVL144:
	.loc 1 368 9 view .LVU1433
	mov	r1, r0
.LVL145:
	.loc 1 368 9 view .LVU1434
	ldr	r0, .L74
.LVL146:
	.loc 1 368 9 view .LVU1435
	bl	bt_settings_store
.LVL147:
	.loc 1 369 1 view .LVU1436
	add	sp, sp, #12
	.cfi_def_cfa_offset 4
	@ sp needed
	ldr	pc, [sp], #4
.L75:
	.align	2
.L74:
	.word	.LC13
	.cfi_endproc
.LFE559:
	.size	bt_settings_store_ccc, .-bt_settings_store_ccc
	.section	.text.bt_settings_delete_ccc,"ax",%progbits
	.align	1
	.global	bt_settings_delete_ccc
	.syntax unified
	.thumb
	.thumb_func
	.type	bt_settings_delete_ccc, %function
bt_settings_delete_ccc:
.LVL148:
.LFB560:
	.loc 1 372 1 is_stmt 1 view -0
	.cfi_startproc
	@ args = 0, pretend = 0, frame = 0
	@ frame_needed = 0, uses_anonymous_args = 0
	@ link register save eliminated.
	.loc 1 373 2 view .LVU1438
	.loc 1 372 1 is_stmt 0 view .LVU1439
	mov	r2, r1
	.loc 1 373 9 view .LVU1440
	mov	r1, r0
.LVL149:
	.loc 1 373 9 view .LVU1441
	ldr	r0, .L77
.LVL150:
	.loc 1 373 9 view .LVU1442
	b	bt_settings_delete
.LVL151:
.L78:
	.loc 1 373 9 view .LVU1443
	.align	2
.L77:
	.word	.LC13
	.cfi_endproc
.LFE560:
	.size	bt_settings_delete_ccc, .-bt_settings_delete_ccc
	.section	.rodata.bt_settings_store_hash.str1.1,"aMS",%progbits,1
.LC14:
	.ascii	"hash\000"
	.section	.text.bt_settings_store_hash,"ax",%progbits
	.align	1
	.global	bt_settings_store_hash
	.syntax unified
	.thumb
	.thumb_func
	.type	bt_settings_store_hash, %function
bt_settings_store_hash:
.LVL152:
.LFB561:
	.loc 1 377 1 is_stmt 1 view -0
	.cfi_startproc
	@ args = 0, pretend = 0, frame = 0
	@ frame_needed = 0, uses_anonymous_args = 0
	.loc 1 378 2 view .LVU1445
	.loc 1 377 1 is_stmt 0 view .LVU1446
	push	{r0, r1, r2, lr}
	.cfi_def_cfa_offset 16
	.cfi_offset 14, -4
	.loc 1 378 9 view .LVU1447
	movs	r2, #0
	.loc 1 377 1 view .LVU1448
	mov	r3, r0
	.loc 1 378 9 view .LVU1449
	str	r1, [sp]
	ldr	r0, .L80
.LVL153:
	.loc 1 378 9 view .LVU1450
	mov	r1, r2
.LVL154:
	.loc 1 378 9 view .LVU1451
	bl	bt_settings_store
.LVL155:
	.loc 1 379 1 view .LVU1452
	add	sp, sp, #12
	.cfi_def_cfa_offset 4
	@ sp needed
	ldr	pc, [sp], #4
.L81:
	.align	2
.L80:
	.word	.LC14
	.cfi_endproc
.LFE561:
	.size	bt_settings_store_hash, .-bt_settings_store_hash
	.section	.text.bt_settings_delete_hash,"ax",%progbits
	.align	1
	.global	bt_settings_delete_hash
	.syntax unified
	.thumb
	.thumb_func
	.type	bt_settings_delete_hash, %function
bt_settings_delete_hash:
.LFB562:
	.loc 1 382 1 is_stmt 1 view -0
	.cfi_startproc
	@ args = 0, pretend = 0, frame = 0
	@ frame_needed = 0, uses_anonymous_args = 0
	@ link register save eliminated.
	.loc 1 383 2 view .LVU1454
	.loc 1 383 9 is_stmt 0 view .LVU1455
	movs	r2, #0
	ldr	r0, .L83
	mov	r1, r2
	b	bt_settings_delete
.LVL156:
.L84:
	.align	2
.L83:
	.word	.LC14
	.cfi_endproc
.LFE562:
	.size	bt_settings_delete_hash, .-bt_settings_delete_hash
	.section	.text.bt_settings_store_name,"ax",%progbits
	.align	1
	.global	bt_settings_store_name
	.syntax unified
	.thumb
	.thumb_func
	.type	bt_settings_store_name, %function
bt_settings_store_name:
.LVL157:
.LFB563:
	.loc 1 387 1 is_stmt 1 view -0
	.cfi_startproc
	@ args = 0, pretend = 0, frame = 0
	@ frame_needed = 0, uses_anonymous_args = 0
	.loc 1 388 2 view .LVU1457
	.loc 1 387 1 is_stmt 0 view .LVU1458
	push	{r0, r1, r2, lr}
	.cfi_def_cfa_offset 16
	.cfi_offset 14, -4
	.loc 1 388 9 view .LVU1459
	movs	r2, #0
	.loc 1 387 1 view .LVU1460
	mov	r3, r0
	.loc 1 388 9 view .LVU1461
	str	r1, [sp]
	ldr	r0, .L86
.LVL158:
	.loc 1 388 9 view .LVU1462
	mov	r1, r2
.LVL159:
	.loc 1 388 9 view .LVU1463
	bl	bt_settings_store
.LVL160:
	.loc 1 389 1 view .LVU1464
	add	sp, sp, #12
	.cfi_def_cfa_offset 4
	@ sp needed
	ldr	pc, [sp], #4
.L87:
	.align	2
.L86:
	.word	.LC4
	.cfi_endproc
.LFE563:
	.size	bt_settings_store_name, .-bt_settings_store_name
	.section	.text.bt_settings_delete_name,"ax",%progbits
	.align	1
	.global	bt_settings_delete_name
	.syntax unified
	.thumb
	.thumb_func
	.type	bt_settings_delete_name, %function
bt_settings_delete_name:
.LFB564:
	.loc 1 392 1 is_stmt 1 view -0
	.cfi_startproc
	@ args = 0, pretend = 0, frame = 0
	@ frame_needed = 0, uses_anonymous_args = 0
	@ link register save eliminated.
	.loc 1 393 2 view .LVU1466
	.loc 1 393 9 is_stmt 0 view .LVU1467
	movs	r2, #0
	ldr	r0, .L89
	mov	r1, r2
	b	bt_settings_delete
.LVL161:
.L90:
	.align	2
.L89:
	.word	.LC4
	.cfi_endproc
.LFE564:
	.size	bt_settings_delete_name, .-bt_settings_delete_name
	.section	.rodata.bt_settings_store_appearance.str1.1,"aMS",%progbits,1
.LC15:
	.ascii	"appearance\000"
	.section	.text.bt_settings_store_appearance,"ax",%progbits
	.align	1
	.global	bt_settings_store_appearance
	.syntax unified
	.thumb
	.thumb_func
	.type	bt_settings_store_appearance, %function
bt_settings_store_appearance:
.LVL162:
.LFB565:
	.loc 1 397 1 is_stmt 1 view -0
	.cfi_startproc
	@ args = 0, pretend = 0, frame = 0
	@ frame_needed = 0, uses_anonymous_args = 0
	.loc 1 398 2 view .LVU1469
	.loc 1 397 1 is_stmt 0 view .LVU1470
	push	{r0, r1, r2, lr}
	.cfi_def_cfa_offset 16
	.cfi_offset 14, -4
	.loc 1 398 9 view .LVU1471
	movs	r2, #0
	.loc 1 397 1 view .LVU1472
	mov	r3, r0
	.loc 1 398 9 view .LVU1473
	str	r1, [sp]
	ldr	r0, .L92
.LVL163:
	.loc 1 398 9 view .LVU1474
	mov	r1, r2
.LVL164:
	.loc 1 398 9 view .LVU1475
	bl	bt_settings_store
.LVL165:
	.loc 1 399 1 view .LVU1476
	add	sp, sp, #12
	.cfi_def_cfa_offset 4
	@ sp needed
	ldr	pc, [sp], #4
.L93:
	.align	2
.L92:
	.word	.LC15
	.cfi_endproc
.LFE565:
	.size	bt_settings_store_appearance, .-bt_settings_store_appearance
	.section	.text.bt_settings_delete_appearance,"ax",%progbits
	.align	1
	.global	bt_settings_delete_appearance
	.syntax unified
	.thumb
	.thumb_func
	.type	bt_settings_delete_appearance, %function
bt_settings_delete_appearance:
.LFB566:
	.loc 1 402 1 is_stmt 1 view -0
	.cfi_startproc
	@ args = 0, pretend = 0, frame = 0
	@ frame_needed = 0, uses_anonymous_args = 0
	@ link register save eliminated.
	.loc 1 403 2 view .LVU1478
	.loc 1 403 9 is_stmt 0 view .LVU1479
	movs	r2, #0
	ldr	r0, .L95
	mov	r1, r2
	b	bt_settings_delete
.LVL166:
.L96:
	.align	2
.L95:
	.word	.LC15
	.cfi_endproc
.LFE566:
	.size	bt_settings_delete_appearance, .-bt_settings_delete_appearance
	.section	.text.bt_settings_store_id,"ax",%progbits
	.align	1
	.global	bt_settings_store_id
	.syntax unified
	.thumb
	.thumb_func
	.type	bt_settings_store_id, %function
bt_settings_store_id:
.LFB568:
	.loc 1 418 1 is_stmt 1 view -0
	.cfi_startproc
	@ args = 0, pretend = 0, frame = 0
	@ frame_needed = 0, uses_anonymous_args = 0
	.loc 1 419 2 view .LVU1481
	.loc 1 418 1 is_stmt 0 view .LVU1482
	push	{r3, lr}
	.cfi_def_cfa_offset 8
	.cfi_offset 3, -8
	.cfi_offset 14, -4
	.loc 1 419 2 view .LVU1483
	ldr	r0, .L98
	bl	k_work_submit
.LVL167:
	.loc 1 421 2 is_stmt 1 view .LVU1484
	.loc 1 422 1 is_stmt 0 view .LVU1485
	movs	r0, #0
	pop	{r3, pc}
.L99:
	.align	2
.L98:
	.word	store_id_work
	.cfi_endproc
.LFE568:
	.size	bt_settings_store_id, .-bt_settings_store_id
	.section	.rodata.commit_settings.str1.1,"aMS",%progbits,1
.LC16:
	.ascii	"DYNAMIC_PINCTLS\000"
.LC17:
	.ascii	"Unable to setup an identity address\000"
	.section	.text.commit_settings,"ax",%progbits
	.align	1
	.syntax unified
	.thumb
	.thumb_func
	.type	commit_settings, %function
commit_settings:
.LFB551:
	.loc 1 232 1 is_stmt 1 view -0
	.cfi_startproc
	@ args = 0, pretend = 0, frame = 24
	@ frame_needed = 0, uses_anonymous_args = 0
	.loc 1 233 2 view .LVU1487
	.loc 1 235 2 view .LVU1488
.LBB790:
	.loc 1 235 7 view .LVU1489
.LBE790:
	.loc 1 235 5 view .LVU1490
	.loc 1 237 2 view .LVU1491
.LVL168:
.LBB791:
.LBI791:
	.loc 2 131 19 view .LVU1492
.LBB792:
	.loc 2 133 2 view .LVU1493
.LBB793:
.LBI793:
	.loc 3 159 28 view .LVU1494
.LBB794:
	.loc 3 161 2 view .LVU1495
.LBE794:
.LBE793:
.LBE792:
.LBE791:
	.loc 1 232 1 is_stmt 0 view .LVU1496
	push	{r4, r5, r6, r7, r8, lr}
	.cfi_def_cfa_offset 24
	.cfi_offset 4, -24
	.cfi_offset 5, -20
	.cfi_offset 6, -16
	.cfi_offset 7, -12
	.cfi_offset 8, -8
	.cfi_offset 14, -4
.LBB798:
.LBB797:
.LBB796:
.LBB795:
	.loc 3 161 9 view .LVU1497
	ldr	r5, .L117
.LVL169:
	.loc 3 161 9 view .LVU1498
	dmb	ish
	ldr	r3, [r5]
	dmb	ish
.LVL170:
	.loc 3 161 9 view .LVU1499
.LBE795:
.LBE796:
	.loc 2 135 2 is_stmt 1 view .LVU1500
	.loc 2 135 2 is_stmt 0 view .LVU1501
.LBE797:
.LBE798:
	.loc 1 237 5 view .LVU1502
	tst	r3, #1
	.loc 1 232 1 view .LVU1503
	sub	sp, sp, #24
	.cfi_def_cfa_offset 48
	mov	r6, r5
	.loc 1 237 5 view .LVU1504
	beq	.L102
	.loc 1 248 2 is_stmt 1 view .LVU1505
	.loc 1 248 5 is_stmt 0 view .LVU1506
	ldrb	r3, [r5, #140]	@ zero_extendqisi2
	.loc 1 248 17 view .LVU1507
	sub	r7, r5, #212
	.loc 1 248 5 view .LVU1508
	cbnz	r3, .L103
	.loc 1 249 3 is_stmt 1 view .LVU1509
	ldr	r0, .L117+4
	bl	bt_set_name
.LVL171:
.L103:
	.loc 1 252 2 view .LVU1510
	.loc 1 252 5 is_stmt 0 view .LVU1511
	ldrb	r8, [r7, #7]	@ zero_extendqisi2
	cmp	r8, #0
	bne	.L104
	.loc 1 253 3 is_stmt 1 view .LVU1512
	.loc 1 253 9 is_stmt 0 view .LVU1513
	bl	bt_setup_public_id_addr
.LVL172:
	.loc 1 254 3 is_stmt 1 view .LVU1514
	.loc 1 254 6 is_stmt 0 view .LVU1515
	mov	r4, r0
	cbz	r0, .L105
	.loc 1 255 4 is_stmt 1 view .LVU1516
.LBB799:
	.loc 1 255 9 view .LVU1517
	.loc 1 255 58 view .LVU1518
	.loc 1 255 15 view .LVU1519
	.loc 1 255 3 view .LVU1520
.LVL173:
	.loc 1 255 42 view .LVU1521
	.loc 1 255 177 view .LVU1522
	.loc 1 255 188 view .LVU1523
	.loc 1 255 276 view .LVU1524
	.loc 1 255 4 view .LVU1525
	.loc 1 255 4 view .LVU1526
.LBB800:
	.loc 1 255 9 view .LVU1527
	.loc 1 255 3 view .LVU1528
.LBE800:
.LBE799:
	.loc 1 255 4 view .LVU1529
	.loc 1 255 13 view .LVU1530
	.loc 1 255 108 view .LVU1531
	.loc 1 255 4 view .LVU1532
.LBB817:
.LBB813:
	.loc 1 255 13 view .LVU1533
	.loc 1 255 103 view .LVU1534
	.loc 1 255 105 view .LVU1535
.LBB801:
	.loc 1 255 110 view .LVU1536
	.loc 1 255 121 view .LVU1537
	.loc 1 255 210 view .LVU1538
	.loc 1 255 27 view .LVU1539
.LBE801:
.LBE813:
.LBE817:
	.loc 1 255 4 view .LVU1540
	.loc 1 255 369 view .LVU1541
	.loc 1 255 76 view .LVU1542
	.loc 1 255 3 view .LVU1543
	.loc 1 255 3 view .LVU1544
	.loc 1 255 3 view .LVU1545
	.loc 1 255 39 view .LVU1546
	.loc 1 255 5 view .LVU1547
	.loc 1 255 31 view .LVU1548
	.loc 1 255 57 view .LVU1549
	.loc 1 255 80 view .LVU1550
	.loc 1 255 142 view .LVU1551
	.loc 1 255 199 view .LVU1552
	.loc 1 255 264 view .LVU1553
	.loc 1 255 289 view .LVU1554
	.loc 1 255 290 view .LVU1555
	.loc 1 255 292 view .LVU1556
	.loc 1 255 322 view .LVU1557
	.loc 1 255 352 view .LVU1558
	.loc 1 255 384 view .LVU1559
	.loc 1 255 416 view .LVU1560
	.loc 1 255 448 view .LVU1561
	.loc 1 255 645 view .LVU1562
	.loc 1 255 669 view .LVU1563
	.loc 1 255 670 view .LVU1564
	.loc 1 255 672 view .LVU1565
	.loc 1 255 701 view .LVU1566
	.loc 1 255 730 view .LVU1567
	.loc 1 255 761 view .LVU1568
	.loc 1 255 792 view .LVU1569
	.loc 1 255 823 view .LVU1570
	.loc 1 255 1030 view .LVU1571
	.loc 1 255 5 view .LVU1572
	.loc 1 255 23 view .LVU1573
	.loc 1 255 43 view .LVU1574
	.loc 1 255 5 view .LVU1575
	.loc 1 255 43 view .LVU1576
	.loc 1 255 14 view .LVU1577
	.loc 1 255 14 view .LVU1578
	.loc 1 255 62 view .LVU1579
	.loc 1 255 93 view .LVU1580
	.loc 1 255 127 view .LVU1581
	.loc 1 255 132 view .LVU1582
	.loc 1 255 391 view .LVU1583
	.loc 1 255 1480 view .LVU1584
	.loc 1 255 1545 view .LVU1585
	.loc 1 255 1569 view .LVU1586
	.loc 1 255 1632 view .LVU1587
	.loc 1 255 1643 view .LVU1588
	.loc 1 255 1764 view .LVU1589
	.loc 1 255 1780 view .LVU1590
	.loc 1 255 1820 view .LVU1591
	.loc 1 255 1845 view .LVU1592
	.loc 1 255 3152 view .LVU1593
	.loc 1 255 3193 view .LVU1594
	.loc 1 255 8 view .LVU1595
	.loc 1 255 31 view .LVU1596
	.loc 1 255 130 view .LVU1597
	.loc 1 255 6 view .LVU1598
	.loc 1 255 29 view .LVU1599
	.loc 1 255 53 view .LVU1600
	.loc 1 255 81 view .LVU1601
	.loc 1 255 257 view .LVU1602
	.loc 1 255 17 view .LVU1603
.LBB818:
.LBB814:
.LBB810:
	.loc 1 255 30 view .LVU1604
	.loc 1 255 4 view .LVU1605
	.loc 1 255 4 view .LVU1606
	.loc 1 255 71 view .LVU1607
	.loc 1 255 75 view .LVU1608
	.loc 1 255 485 view .LVU1609
	.loc 1 255 6 view .LVU1610
	.loc 1 255 8 view .LVU1611
	.loc 1 255 13 view .LVU1612
	.loc 1 255 11 view .LVU1613
	.loc 1 255 6 view .LVU1614
	.loc 1 255 24 view .LVU1615
.LBB802:
	.loc 1 255 4 view .LVU1616
	.loc 1 255 369 view .LVU1617
	.loc 1 255 76 view .LVU1618
.LVL174:
	.loc 1 255 3 view .LVU1619
	.loc 1 255 3 view .LVU1620
	.loc 1 255 3 view .LVU1621
	.loc 1 255 39 view .LVU1622
	.loc 1 255 68 view .LVU1623
	.loc 1 255 94 view .LVU1624
	.loc 1 255 120 view .LVU1625
	.loc 1 255 143 view .LVU1626
	.loc 1 255 205 view .LVU1627
	.loc 1 255 262 view .LVU1628
	.loc 1 255 327 view .LVU1629
	.loc 1 255 352 view .LVU1630
	.loc 1 255 353 view .LVU1631
	.loc 1 255 355 view .LVU1632
	.loc 1 255 385 view .LVU1633
	.loc 1 255 415 view .LVU1634
	.loc 1 255 447 view .LVU1635
	.loc 1 255 479 view .LVU1636
	.loc 1 255 511 view .LVU1637
	.loc 1 255 708 view .LVU1638
	.loc 1 255 732 view .LVU1639
	.loc 1 255 733 view .LVU1640
	.loc 1 255 735 view .LVU1641
	.loc 1 255 764 view .LVU1642
	.loc 1 255 793 view .LVU1643
	.loc 1 255 824 view .LVU1644
	.loc 1 255 855 view .LVU1645
	.loc 1 255 886 view .LVU1646
	.loc 1 255 1093 view .LVU1647
	.loc 1 255 5 view .LVU1648
	.loc 1 255 23 view .LVU1649
	.loc 1 255 43 view .LVU1650
	.loc 1 255 5 view .LVU1651
	.loc 1 255 43 view .LVU1652
	.loc 1 255 14 view .LVU1653
	.loc 1 255 14 view .LVU1654
	.loc 1 255 62 view .LVU1655
	.loc 1 255 93 view .LVU1656
	.loc 1 255 127 view .LVU1657
.LBB803:
	.loc 1 255 132 view .LVU1658
	.loc 1 255 391 view .LVU1659
	.loc 1 255 1480 view .LVU1660
	.loc 1 255 1545 view .LVU1661
.LBE803:
.LBE802:
.LBE810:
.LBE814:
.LBE818:
	.loc 1 255 1569 view .LVU1662
	.loc 1 255 1632 view .LVU1663
	.loc 1 255 1643 view .LVU1664
	.loc 1 255 1764 view .LVU1665
.LBB819:
.LBB815:
.LBB811:
.LBB806:
.LBB804:
	.loc 1 255 1780 view .LVU1666
	.loc 1 255 1820 view .LVU1667
	.loc 1 255 1845 view .LVU1668
	.loc 1 255 3152 view .LVU1669
	.loc 1 255 3190 view .LVU1670
	.loc 1 255 3195 view .LVU1671
	.loc 1 255 3843 view .LVU1672
	.loc 1 255 0 is_stmt 0 view .LVU1673
	ldr	r3, .L117+8
	str	r3, [sp, #20]
	.loc 1 255 3193 is_stmt 1 view .LVU1674
	.loc 1 255 8 view .LVU1675
.LVL175:
	.loc 1 255 31 view .LVU1676
	.loc 1 255 31 is_stmt 0 view .LVU1677
.LBE804:
	.loc 1 255 130 is_stmt 1 view .LVU1678
	.loc 1 255 6 view .LVU1679
	.loc 1 255 29 view .LVU1680
	.loc 1 255 53 view .LVU1681
	.loc 1 255 81 view .LVU1682
.LBE806:
.LBE811:
.LBE815:
.LBE819:
	.loc 1 255 7 view .LVU1683
	.loc 1 255 46 view .LVU1684
	.loc 1 255 51 view .LVU1685
	.loc 1 255 81 view .LVU1686
	.loc 1 255 148 view .LVU1687
	.loc 1 255 153 view .LVU1688
	.loc 1 255 183 view .LVU1689
.LBB820:
.LBB816:
.LBB812:
.LBB807:
	.loc 1 255 257 view .LVU1690
	.loc 1 255 17 view .LVU1691
.LBB805:
	.loc 1 255 7 view .LVU1692
	.loc 1 255 165 view .LVU1693
	.loc 1 255 167 view .LVU1694
	.loc 1 255 177 is_stmt 0 view .LVU1695
	movs	r3, #2
	str	r3, [sp, #16]
.LVL176:
	.loc 1 255 177 view .LVU1696
.LBE805:
.LBE807:
	.loc 1 255 27 is_stmt 1 view .LVU1697
	.loc 1 255 8 view .LVU1698
	.loc 1 255 148 view .LVU1699
	.loc 1 255 150 view .LVU1700
.LBB808:
.LBI808:
	.loc 4 26 20 view .LVU1701
.LBB809:
	.loc 4 38 2 view .LVU1702
	.loc 4 38 7 view .LVU1703
	.loc 4 38 5 view .LVU1704
	.loc 4 39 2 view .LVU1705
	mov	r3, r8
.LVL177:
.L116:
	.loc 4 39 2 is_stmt 0 view .LVU1706
.LBE809:
.LBE808:
.LBE812:
.LBE816:
.LBE820:
.LBB821:
.LBB822:
.LBB823:
.LBB824:
.LBB825:
	ldr	r0, .L117+12
.LVL178:
	.loc 4 39 2 view .LVU1707
	add	r2, sp, #16
	mov	r1, #4160
	bl	z_impl_z_log_msg_static_create
.LVL179:
.LBE825:
.LBE824:
.LBE823:
	.loc 1 263 108 is_stmt 1 view .LVU1708
	.loc 1 263 6 view .LVU1709
.LVL180:
	.loc 1 263 43 view .LVU1710
.LBE822:
	.loc 1 263 7 view .LVU1711
	.loc 1 263 279 view .LVU1712
	.loc 1 263 6 view .LVU1713
	.loc 1 263 19 view .LVU1714
.LBE821:
	.loc 1 263 7 view .LVU1715
	.loc 1 264 4 view .LVU1716
.L100:
	.loc 1 282 1 is_stmt 0 view .LVU1717
	mov	r0, r4
	add	sp, sp, #24
	.cfi_remember_state
	.cfi_def_cfa_offset 24
	@ sp needed
	pop	{r4, r5, r6, r7, r8, pc}
.LVL181:
.L105:
	.cfi_restore_state
	.loc 1 260 2 is_stmt 1 view .LVU1718
	.loc 1 260 5 is_stmt 0 view .LVU1719
	ldrb	r7, [r7, #7]	@ zero_extendqisi2
	cbnz	r7, .L104
	.loc 1 261 3 is_stmt 1 view .LVU1720
	.loc 1 261 9 is_stmt 0 view .LVU1721
	bl	bt_setup_random_id_addr
.LVL182:
	.loc 1 262 3 is_stmt 1 view .LVU1722
	.loc 1 262 6 is_stmt 0 view .LVU1723
	mov	r4, r0
	cbz	r0, .L104
	.loc 1 263 4 is_stmt 1 view .LVU1724
.LBB843:
	.loc 1 263 9 view .LVU1725
	.loc 1 263 58 view .LVU1726
	.loc 1 263 15 view .LVU1727
	.loc 1 263 3 view .LVU1728
.LVL183:
	.loc 1 263 42 view .LVU1729
	.loc 1 263 177 view .LVU1730
	.loc 1 263 188 view .LVU1731
	.loc 1 263 276 view .LVU1732
	.loc 1 263 4 view .LVU1733
	.loc 1 263 4 view .LVU1734
.LBB838:
	.loc 1 263 9 view .LVU1735
	.loc 1 263 3 view .LVU1736
.LBE838:
.LBE843:
	.loc 1 263 4 view .LVU1737
	.loc 1 263 13 view .LVU1738
	.loc 1 263 108 view .LVU1739
	.loc 1 263 4 view .LVU1740
.LBB844:
.LBB839:
	.loc 1 263 13 view .LVU1741
	.loc 1 263 103 view .LVU1742
	.loc 1 263 105 view .LVU1743
.LBB834:
	.loc 1 263 110 view .LVU1744
	.loc 1 263 121 view .LVU1745
	.loc 1 263 210 view .LVU1746
	.loc 1 263 27 view .LVU1747
.LBE834:
.LBE839:
.LBE844:
	.loc 1 263 4 view .LVU1748
	.loc 1 263 369 view .LVU1749
	.loc 1 263 76 view .LVU1750
	.loc 1 263 3 view .LVU1751
	.loc 1 263 3 view .LVU1752
	.loc 1 263 3 view .LVU1753
	.loc 1 263 39 view .LVU1754
	.loc 1 263 5 view .LVU1755
	.loc 1 263 31 view .LVU1756
	.loc 1 263 57 view .LVU1757
	.loc 1 263 80 view .LVU1758
	.loc 1 263 142 view .LVU1759
	.loc 1 263 199 view .LVU1760
	.loc 1 263 264 view .LVU1761
	.loc 1 263 289 view .LVU1762
	.loc 1 263 290 view .LVU1763
	.loc 1 263 292 view .LVU1764
	.loc 1 263 322 view .LVU1765
	.loc 1 263 352 view .LVU1766
	.loc 1 263 384 view .LVU1767
	.loc 1 263 416 view .LVU1768
	.loc 1 263 448 view .LVU1769
	.loc 1 263 645 view .LVU1770
	.loc 1 263 669 view .LVU1771
	.loc 1 263 670 view .LVU1772
	.loc 1 263 672 view .LVU1773
	.loc 1 263 701 view .LVU1774
	.loc 1 263 730 view .LVU1775
	.loc 1 263 761 view .LVU1776
	.loc 1 263 792 view .LVU1777
	.loc 1 263 823 view .LVU1778
	.loc 1 263 1030 view .LVU1779
	.loc 1 263 5 view .LVU1780
	.loc 1 263 23 view .LVU1781
	.loc 1 263 43 view .LVU1782
	.loc 1 263 5 view .LVU1783
	.loc 1 263 43 view .LVU1784
	.loc 1 263 14 view .LVU1785
	.loc 1 263 14 view .LVU1786
	.loc 1 263 62 view .LVU1787
	.loc 1 263 93 view .LVU1788
	.loc 1 263 127 view .LVU1789
	.loc 1 263 132 view .LVU1790
	.loc 1 263 391 view .LVU1791
	.loc 1 263 1480 view .LVU1792
	.loc 1 263 1545 view .LVU1793
	.loc 1 263 1569 view .LVU1794
	.loc 1 263 1632 view .LVU1795
	.loc 1 263 1643 view .LVU1796
	.loc 1 263 1764 view .LVU1797
	.loc 1 263 1780 view .LVU1798
	.loc 1 263 1820 view .LVU1799
	.loc 1 263 1845 view .LVU1800
	.loc 1 263 3152 view .LVU1801
	.loc 1 263 3193 view .LVU1802
	.loc 1 263 8 view .LVU1803
	.loc 1 263 31 view .LVU1804
	.loc 1 263 130 view .LVU1805
	.loc 1 263 6 view .LVU1806
	.loc 1 263 29 view .LVU1807
	.loc 1 263 53 view .LVU1808
	.loc 1 263 81 view .LVU1809
	.loc 1 263 257 view .LVU1810
	.loc 1 263 17 view .LVU1811
.LBB845:
.LBB840:
.LBB835:
	.loc 1 263 30 view .LVU1812
	.loc 1 263 4 view .LVU1813
	.loc 1 263 4 view .LVU1814
	.loc 1 263 71 view .LVU1815
	.loc 1 263 75 view .LVU1816
	.loc 1 263 485 view .LVU1817
	.loc 1 263 6 view .LVU1818
	.loc 1 263 8 view .LVU1819
	.loc 1 263 13 view .LVU1820
	.loc 1 263 11 view .LVU1821
	.loc 1 263 6 view .LVU1822
	.loc 1 263 24 view .LVU1823
.LBB827:
	.loc 1 263 4 view .LVU1824
	.loc 1 263 369 view .LVU1825
	.loc 1 263 76 view .LVU1826
.LVL184:
	.loc 1 263 3 view .LVU1827
	.loc 1 263 3 view .LVU1828
	.loc 1 263 3 view .LVU1829
	.loc 1 263 39 view .LVU1830
	.loc 1 263 68 view .LVU1831
	.loc 1 263 94 view .LVU1832
	.loc 1 263 120 view .LVU1833
	.loc 1 263 143 view .LVU1834
	.loc 1 263 205 view .LVU1835
	.loc 1 263 262 view .LVU1836
	.loc 1 263 327 view .LVU1837
	.loc 1 263 352 view .LVU1838
	.loc 1 263 353 view .LVU1839
	.loc 1 263 355 view .LVU1840
	.loc 1 263 385 view .LVU1841
	.loc 1 263 415 view .LVU1842
	.loc 1 263 447 view .LVU1843
	.loc 1 263 479 view .LVU1844
	.loc 1 263 511 view .LVU1845
	.loc 1 263 708 view .LVU1846
	.loc 1 263 732 view .LVU1847
	.loc 1 263 733 view .LVU1848
	.loc 1 263 735 view .LVU1849
	.loc 1 263 764 view .LVU1850
	.loc 1 263 793 view .LVU1851
	.loc 1 263 824 view .LVU1852
	.loc 1 263 855 view .LVU1853
	.loc 1 263 886 view .LVU1854
	.loc 1 263 1093 view .LVU1855
	.loc 1 263 5 view .LVU1856
	.loc 1 263 23 view .LVU1857
	.loc 1 263 43 view .LVU1858
	.loc 1 263 5 view .LVU1859
	.loc 1 263 43 view .LVU1860
	.loc 1 263 14 view .LVU1861
	.loc 1 263 14 view .LVU1862
	.loc 1 263 62 view .LVU1863
	.loc 1 263 93 view .LVU1864
	.loc 1 263 127 view .LVU1865
.LBB828:
	.loc 1 263 132 view .LVU1866
	.loc 1 263 391 view .LVU1867
	.loc 1 263 1480 view .LVU1868
	.loc 1 263 1545 view .LVU1869
.LBE828:
.LBE827:
.LBE835:
.LBE840:
.LBE845:
	.loc 1 263 1569 view .LVU1870
	.loc 1 263 1632 view .LVU1871
	.loc 1 263 1643 view .LVU1872
	.loc 1 263 1764 view .LVU1873
.LBB846:
.LBB841:
.LBB836:
.LBB831:
.LBB829:
	.loc 1 263 1780 view .LVU1874
	.loc 1 263 1820 view .LVU1875
	.loc 1 263 1845 view .LVU1876
	.loc 1 263 3152 view .LVU1877
	.loc 1 263 3190 view .LVU1878
	.loc 1 263 3195 view .LVU1879
	.loc 1 263 3843 view .LVU1880
	.loc 1 263 0 is_stmt 0 view .LVU1881
	ldr	r3, .L117+8
	str	r3, [sp, #20]
	.loc 1 263 3193 is_stmt 1 view .LVU1882
	.loc 1 263 8 view .LVU1883
.LVL185:
	.loc 1 263 31 view .LVU1884
	.loc 1 263 31 is_stmt 0 view .LVU1885
.LBE829:
	.loc 1 263 130 is_stmt 1 view .LVU1886
	.loc 1 263 6 view .LVU1887
	.loc 1 263 29 view .LVU1888
	.loc 1 263 53 view .LVU1889
	.loc 1 263 81 view .LVU1890
.LBE831:
.LBE836:
.LBE841:
.LBE846:
	.loc 1 263 7 view .LVU1891
	.loc 1 263 46 view .LVU1892
	.loc 1 263 51 view .LVU1893
	.loc 1 263 81 view .LVU1894
	.loc 1 263 148 view .LVU1895
	.loc 1 263 153 view .LVU1896
	.loc 1 263 183 view .LVU1897
.LBB847:
.LBB842:
.LBB837:
.LBB832:
	.loc 1 263 257 view .LVU1898
	.loc 1 263 17 view .LVU1899
.LBB830:
	.loc 1 263 7 view .LVU1900
	.loc 1 263 165 view .LVU1901
	.loc 1 263 167 view .LVU1902
	.loc 1 263 177 is_stmt 0 view .LVU1903
	movs	r3, #2
	str	r3, [sp, #16]
.LVL186:
	.loc 1 263 177 view .LVU1904
.LBE830:
.LBE832:
	.loc 1 263 27 is_stmt 1 view .LVU1905
	.loc 1 263 8 view .LVU1906
	.loc 1 263 148 view .LVU1907
	.loc 1 263 150 view .LVU1908
.LBB833:
.LBI824:
	.loc 4 26 20 view .LVU1909
.LBB826:
	.loc 4 38 2 view .LVU1910
	.loc 4 38 7 view .LVU1911
	.loc 4 38 5 view .LVU1912
	.loc 4 39 2 view .LVU1913
	mov	r3, r7
	b	.L116
.LVL187:
.L104:
	.loc 4 39 2 is_stmt 0 view .LVU1914
.LBE826:
.LBE833:
.LBE837:
.LBE842:
.LBE847:
	.loc 1 268 2 is_stmt 1 view .LVU1915
.LBB848:
.LBI848:
	.loc 2 131 19 view .LVU1916
.LBB849:
	.loc 2 133 2 view .LVU1917
.LBB850:
.LBI850:
	.loc 3 159 28 view .LVU1918
.LBB851:
	.loc 3 161 2 view .LVU1919
	.loc 3 161 9 is_stmt 0 view .LVU1920
	dmb	ish
	ldr	r3, [r5]
	dmb	ish
.LVL188:
	.loc 3 161 9 view .LVU1921
.LBE851:
.LBE850:
	.loc 2 135 2 is_stmt 1 view .LVU1922
	.loc 2 135 2 is_stmt 0 view .LVU1923
.LBE849:
.LBE848:
	.loc 1 268 5 view .LVU1924
	lsls	r2, r3, #29
	bmi	.L107
	.loc 1 269 3 is_stmt 1 view .LVU1925
	bl	bt_finalize_init
.LVL189:
.L107:
	.loc 1 275 2 view .LVU1926
.LBB852:
.LBI852:
	.loc 2 152 19 view .LVU1927
.LBB853:
	.loc 2 154 2 view .LVU1928
	.loc 2 155 2 view .LVU1929
	.loc 2 157 2 view .LVU1930
.LBB854:
.LBI854:
	.loc 3 319 28 view .LVU1931
.LBB855:
	.loc 3 321 2 view .LVU1932
	.loc 3 321 9 is_stmt 0 view .LVU1933
	dmb	ish
.L115:
	ldrex	r3, [r6]
	bic	r2, r3, #65536
	strex	r1, r2, [r6]
	cmp	r1, #0
	bne	.L115
	dmb	ish
.LVL190:
	.loc 3 321 9 view .LVU1934
.LBE855:
.LBE854:
	.loc 2 159 2 is_stmt 1 view .LVU1935
	.loc 2 159 2 is_stmt 0 view .LVU1936
.LBE853:
.LBE852:
	.loc 1 275 5 view .LVU1937
	lsls	r3, r3, #15
	bpl	.L102
	.loc 1 276 3 is_stmt 1 discriminator 285 view .LVU1938
.LBB856:
	.loc 1 276 8 discriminator 285 view .LVU1939
.LBE856:
	.loc 1 276 6 discriminator 285 view .LVU1940
	.loc 1 277 3 discriminator 285 view .LVU1941
	bl	bt_settings_store_id
.LVL191:
	.loc 1 278 3 discriminator 285 view .LVU1942
.LBB857:
.LBI857:
	.loc 1 442 5 discriminator 285 view .LVU1943
.LBB858:
	.loc 1 447 2 discriminator 285 view .LVU1944
.L102:
.LBE858:
.LBE857:
	.loc 1 244 10 is_stmt 0 view .LVU1945
	movs	r4, #0
	b	.L100
.L118:
	.align	2
.L117:
	.word	bt_dev+212
	.word	.LC16
	.word	.LC17
	.word	log_const_bt_settings
	.cfi_endproc
.LFE551:
	.size	commit_settings, .-commit_settings
	.section	.text.bt_settings_delete_id,"ax",%progbits
	.align	1
	.global	bt_settings_delete_id
	.syntax unified
	.thumb
	.thumb_func
	.type	bt_settings_delete_id, %function
bt_settings_delete_id:
.LFB569:
	.loc 1 425 1 is_stmt 1 view -0
	.cfi_startproc
	@ args = 0, pretend = 0, frame = 0
	@ frame_needed = 0, uses_anonymous_args = 0
	@ link register save eliminated.
	.loc 1 426 2 view .LVU1947
	.loc 1 426 9 is_stmt 0 view .LVU1948
	movs	r2, #0
	ldr	r0, .L120
	mov	r1, r2
	b	bt_settings_delete
.LVL192:
.L121:
	.align	2
.L120:
	.word	.LC1
	.cfi_endproc
.LFE569:
	.size	bt_settings_delete_id, .-bt_settings_delete_id
	.section	.text.bt_settings_store_irk,"ax",%progbits
	.align	1
	.global	bt_settings_store_irk
	.syntax unified
	.thumb
	.thumb_func
	.type	bt_settings_store_irk, %function
bt_settings_store_irk:
.LFB571:
	.loc 1 443 1 is_stmt 1 view -0
	.cfi_startproc
	@ args = 0, pretend = 0, frame = 0
	@ frame_needed = 0, uses_anonymous_args = 0
	@ link register save eliminated.
	.loc 1 447 2 view .LVU1950
	.loc 1 448 1 is_stmt 0 view .LVU1951
	movs	r0, #0
	bx	lr
	.cfi_endproc
.LFE571:
	.size	bt_settings_store_irk, .-bt_settings_store_irk
	.section	.rodata.bt_settings_delete_irk.str1.1,"aMS",%progbits,1
.LC18:
	.ascii	"irk\000"
	.section	.text.bt_settings_delete_irk,"ax",%progbits
	.align	1
	.global	bt_settings_delete_irk
	.syntax unified
	.thumb
	.thumb_func
	.type	bt_settings_delete_irk, %function
bt_settings_delete_irk:
.LFB572:
	.loc 1 451 1 is_stmt 1 view -0
	.cfi_startproc
	@ args = 0, pretend = 0, frame = 0
	@ frame_needed = 0, uses_anonymous_args = 0
	@ link register save eliminated.
	.loc 1 452 2 view .LVU1953
	.loc 1 452 9 is_stmt 0 view .LVU1954
	movs	r2, #0
	ldr	r0, .L124
	mov	r1, r2
	b	bt_settings_delete
.LVL193:
.L125:
	.align	2
.L124:
	.word	.LC18
	.cfi_endproc
.LFE572:
	.size	bt_settings_delete_irk, .-bt_settings_delete_irk
	.section	.rodata.bt_settings_store_link_key.str1.1,"aMS",%progbits,1
.LC19:
	.ascii	"link_key\000"
	.section	.text.bt_settings_store_link_key,"ax",%progbits
	.align	1
	.global	bt_settings_store_link_key
	.syntax unified
	.thumb
	.thumb_func
	.type	bt_settings_store_link_key, %function
bt_settings_store_link_key:
.LVL194:
.LFB573:
	.loc 1 456 1 is_stmt 1 view -0
	.cfi_startproc
	@ args = 0, pretend = 0, frame = 0
	@ frame_needed = 0, uses_anonymous_args = 0
	.loc 1 457 2 view .LVU1956
	.loc 1 456 1 is_stmt 0 view .LVU1957
	push	{r0, r1, r2, lr}
	.cfi_def_cfa_offset 16
	.cfi_offset 14, -4
	.loc 1 456 1 view .LVU1958
	mov	r3, r1
	.loc 1 457 9 view .LVU1959
	str	r2, [sp]
	movs	r1, #0
.LVL195:
	.loc 1 457 9 view .LVU1960
	mov	r2, r0
.LVL196:
	.loc 1 457 9 view .LVU1961
	ldr	r0, .L127
.LVL197:
	.loc 1 457 9 view .LVU1962
	bl	bt_settings_store
.LVL198:
	.loc 1 458 1 view .LVU1963
	add	sp, sp, #12
	.cfi_def_cfa_offset 4
	@ sp needed
	ldr	pc, [sp], #4
.L128:
	.align	2
.L127:
	.word	.LC19
	.cfi_endproc
.LFE573:
	.size	bt_settings_store_link_key, .-bt_settings_store_link_key
	.section	.text.bt_settings_delete_link_key,"ax",%progbits
	.align	1
	.global	bt_settings_delete_link_key
	.syntax unified
	.thumb
	.thumb_func
	.type	bt_settings_delete_link_key, %function
bt_settings_delete_link_key:
.LVL199:
.LFB574:
	.loc 1 461 1 is_stmt 1 view -0
	.cfi_startproc
	@ args = 0, pretend = 0, frame = 0
	@ frame_needed = 0, uses_anonymous_args = 0
	@ link register save eliminated.
	.loc 1 462 2 view .LVU1965
	.loc 1 461 1 is_stmt 0 view .LVU1966
	mov	r2, r0
	.loc 1 462 9 view .LVU1967
	movs	r1, #0
	ldr	r0, .L130
.LVL200:
	.loc 1 462 9 view .LVU1968
	b	bt_settings_delete
.LVL201:
.L131:
	.loc 1 462 9 view .LVU1969
	.align	2
.L130:
	.word	.LC19
	.cfi_endproc
.LFE574:
	.size	bt_settings_delete_link_key, .-bt_settings_delete_link_key
	.section	.rodata.bt_settings_store_keys.str1.1,"aMS",%progbits,1
.LC20:
	.ascii	"keys\000"
	.section	.text.bt_settings_store_keys,"ax",%progbits
	.align	1
	.global	bt_settings_store_keys
	.syntax unified
	.thumb
	.thumb_func
	.type	bt_settings_store_keys, %function
bt_settings_store_keys:
.LVL202:
.LFB575:
	.loc 1 466 1 is_stmt 1 view -0
	.cfi_startproc
	@ args = 0, pretend = 0, frame = 0
	@ frame_needed = 0, uses_anonymous_args = 0
	.loc 1 467 2 view .LVU1971
	.loc 1 466 1 is_stmt 0 view .LVU1972
	push	{r0, r1, r2, lr}
	.cfi_def_cfa_offset 16
	.cfi_offset 14, -4
	.loc 1 467 9 view .LVU1973
	str	r3, [sp]
	mov	r3, r2
.LVL203:
	.loc 1 467 9 view .LVU1974
	mov	r2, r1
.LVL204:
	.loc 1 467 9 view .LVU1975
	mov	r1, r0
.LVL205:
	.loc 1 467 9 view .LVU1976
	ldr	r0, .L133
.LVL206:
	.loc 1 467 9 view .LVU1977
	bl	bt_settings_store
.LVL207:
	.loc 1 468 1 view .LVU1978
	add	sp, sp, #12
	.cfi_def_cfa_offset 4
	@ sp needed
	ldr	pc, [sp], #4
.L134:
	.align	2
.L133:
	.word	.LC20
	.cfi_endproc
.LFE575:
	.size	bt_settings_store_keys, .-bt_settings_store_keys
	.section	.text.bt_settings_delete_keys,"ax",%progbits
	.align	1
	.global	bt_settings_delete_keys
	.syntax unified
	.thumb
	.thumb_func
	.type	bt_settings_delete_keys, %function
bt_settings_delete_keys:
.LVL208:
.LFB576:
	.loc 1 471 1 is_stmt 1 view -0
	.cfi_startproc
	@ args = 0, pretend = 0, frame = 0
	@ frame_needed = 0, uses_anonymous_args = 0
	@ link register save eliminated.
	.loc 1 472 2 view .LVU1980
	.loc 1 471 1 is_stmt 0 view .LVU1981
	mov	r2, r1
	.loc 1 472 9 view .LVU1982
	mov	r1, r0
.LVL209:
	.loc 1 472 9 view .LVU1983
	ldr	r0, .L136
.LVL210:
	.loc 1 472 9 view .LVU1984
	b	bt_settings_delete
.LVL211:
.L137:
	.loc 1 472 9 view .LVU1985
	.align	2
.L136:
	.word	.LC20
	.cfi_endproc
.LFE576:
	.size	bt_settings_delete_keys, .-bt_settings_delete_keys
	.global	store_irk_work
	.section	.data.store_irk_work,"aw"
	.align	2
	.type	store_irk_work, %object
	.size	store_irk_work, 16
store_irk_work:
	.space	4
	.word	do_store_irk
	.space	8
	.global	store_id_work
	.section	.data.store_id_work,"aw"
	.align	2
	.type	store_id_work, %object
	.size	store_id_work, 16
store_id_work:
	.space	4
	.word	do_store_id
	.space	8
	.global	settings_handler_bt
	.section	.rodata.str1.1,"aMS",%progbits,1
.LC21:
	.ascii	"bt\000"
	.section	._settings_handler_static.static.settings_handler_bt_,"a"
	.align	2
	.type	settings_handler_bt, %object
	.size	settings_handler_bt, 20
settings_handler_bt:
	.word	.LC21
	.word	0
	.word	set_setting
	.word	commit_settings
	.word	0
	.global	log_const_bt_settings
	.section	.rodata.str1.1
.LC22:
	.ascii	"bt_settings\000"
	.section	._log_const.static.log_const_bt_settings_,"a"
	.align	2
	.type	log_const_bt_settings, %object
	.size	log_const_bt_settings, 8
log_const_bt_settings:
	.word	.LC22
	.byte	3
	.space	3
	.text
.Letext0:
	.file 5 "/home/g/zephyr-sdk-0.16.3/arm-zephyr-eabi/lib/gcc/arm-zephyr-eabi/12.2.0/include/stddef.h"
	.file 6 "/home/g/zephyr-sdk-0.16.3/arm-zephyr-eabi/picolibc/include/machine/_default_types.h"
	.file 7 "/home/g/zephyr-sdk-0.16.3/arm-zephyr-eabi/picolibc/include/sys/_stdint.h"
	.file 8 "/home/g/mise-work/zmk-firmware/zmk/zephyr/include/zephyr/sys/dlist.h"
	.file 9 "/home/g/mise-work/zmk-firmware/zmk/zephyr/include/zephyr/sys/rb.h"
	.file 10 "/home/g/mise-work/zmk-firmware/zmk/zephyr/include/zephyr/sys/slist.h"
	.file 11 "/home/g/mise-work/zmk-firmware/zmk/zephyr/include/zephyr/sys/sflist.h"
	.file 12 "/home/g/mise-work/zmk-firmware/zmk/zephyr/include/zephyr/sys/sys_heap.h"
	.file 13 "/home/g/mise-work/zmk-firmware/zmk/zephyr/include/zephyr/kernel/thread.h"
	.file 14 "/home/g/mise-work/zmk-firmware/zmk/zephyr/include/zephyr/kernel_structs.h"
	.file 15 "/home/g/zephyr-sdk-0.16.3/arm-zephyr-eabi/picolibc/include/sys/_types.h"
	.file 16 "/home/g/zephyr-sdk-0.16.3/arm-zephyr-eabi/picolibc/include/sys/types.h"
	.file 17 "/home/g/mise-work/zmk-firmware/zmk/zephyr/include/zephyr/arch/arm/thread.h"
	.file 18 "/home/g/mise-work/zmk-firmware/zmk/zephyr/include/zephyr/kernel.h"
	.file 19 "/home/g/mise-work/zmk-firmware/zmk/zephyr/include/zephyr/fatal_types.h"
	.file 20 "/home/g/mise-work/zmk-firmware/zmk/zephyr/include/zephyr/settings/settings.h"
	.file 21 "/home/g/mise-work/zmk-firmware/zmk/zephyr/include/zephyr/net/buf.h"
	.file 22 "/home/g/mise-work/zmk-firmware/zmk/zephyr/include/zephyr/bluetooth/addr.h"
	.file 23 "/home/g/mise-work/zmk-firmware/zmk/zephyr/subsys/bluetooth/host/hci_core.h"
	.file 24 "/home/g/mise-work/zmk-firmware/zmk/zephyr/include/zephyr/bluetooth/conn.h"
	.file 25 "/home/g/mise-work/zmk-firmware/zmk/zephyr/include/zephyr/logging/log_instance.h"
	.file 26 "/home/g/mise-work/zmk-firmware/zmk/zephyr/include/zephyr/sys/cbprintf.h"
	.file 27 "/home/g/mise-work/zmk-firmware/zmk/zephyr/include/zephyr/logging/log_msg.h"
	.file 28 "/home/g/mise-work/zmk-firmware/zmk/zephyr/include/zephyr/sys/util.h"
	.file 29 "/home/g/zephyr-sdk-0.16.3/arm-zephyr-eabi/picolibc/include/string.h"
	.file 30 "/home/g/mise-work/zmk-firmware/zmk/zephyr/include/zephyr/bluetooth/bluetooth.h"
	.file 31 "/home/g/zephyr-sdk-0.16.3/arm-zephyr-eabi/picolibc/include/stdio.h"
	.file 32 "/home/g/mise-work/zmk-firmware/zmk/zephyr/include/zephyr/sys/cbprintf_internal.h"
	.file 33 "/home/g/mise-work/zmk-firmware/zmk/zephyr/include/zephyr/spinlock.h"
	.file 34 "/home/g/mise-work/zmk-firmware/zmk/zephyr/include/zephyr/syscall.h"