	.cpu cortex-m4
	.arch armv7e-m
	.fpu fpv4-sp-d16
	.eabi_attribute 27, 1
	.eabi_attribute 28, 1
	.eabi_attribute 20, 1
	.eabi_attribute 21, 1
	.eabi_attribute 23, 3
	.eabi_attribute 24, 1
	.eabi_attribute 25, 1
	.eabi_attribute 26, 1
	.eabi_attribute 30, 2
	.eabi_attribute 34, 1
	.eabi_attribute 38, 1
	.eabi_attribute 18, 4
	.file	"cntr.c"
	.text
.Ltext0:
	.cfi_sections	.debug_frame
	.file 1 "/home/g/mise-work/zmk-firmware/zmk/zephyr/subsys/bluetooth/controller/ll_sw/nordic/hal/nrf5/cntr.c"
	.section	.text.cntr_init,"ax",%progbits
	.align	1
	.p2align 2,,3
	.global	cntr_init
	.syntax unified
	.thumb
	.thumb_func
	.type	cntr_init, %function
cntr_init:
.LFB460:
	.loc 1 21 1 view -0
	.cfi_startproc
	@ args = 0, pretend = 0, frame = 0
	@ frame_needed = 0, uses_anonymous_args = 0
	@ link register save eliminated.
	.loc 1 22 2 view .LVU1
	.loc 1 22 44 is_stmt 0 view .LVU2
	ldr	r3, .L3
.LBB14:
.LBB15:
	.file 2 "/home/g/mise-work/zmk-firmware/zmk/modules/hal/nordic/nrfx/hal/nrf_rtc.h"
	.loc 2 445 21 view .LVU3
	mov	r2, #65536
.LBE15:
.LBE14:
	.loc 1 22 44 view .LVU4
	movs	r1, #0
	str	r1, [r3, #1288]
	.loc 1 23 2 is_stmt 1 view .LVU5
.LVL0:
.LBB17:
.LBI14:
	.loc 2 443 20 view .LVU6
.LBB16:
	.loc 2 445 5 view .LVU7
	.loc 2 445 21 is_stmt 0 view .LVU8
	str	r2, [r3, #836]
.LVL1:
	.loc 2 445 21 view .LVU9
.LBE16:
.LBE17:
	.loc 1 24 2 is_stmt 1 view .LVU10
.LBB18:
.LBI18:
	.loc 2 347 20 view .LVU11
.LBB19:
	.loc 2 349 5 view .LVU12
	.loc 2 349 21 is_stmt 0 view .LVU13
	str	r2, [r3, #772]
.LVL2:
	.loc 2 349 21 view .LVU14
.LBE19:
.LBE18:
	.loc 1 25 1 view .LVU15
	bx	lr
.L4:
	.align	2
.L3:
	.word	1073786880
	.cfi_endproc
.LFE460:
	.size	cntr_init, .-cntr_init
	.section	.text.cntr_start,"ax",%progbits
	.align	1
	.p2align 2,,3
	.global	cntr_start
	.syntax unified
	.thumb
	.thumb_func
	.type	cntr_start, %function
cntr_start:
.LFB461:
	.loc 1 28 1 is_stmt 1 view -0
	.cfi_startproc
	@ args = 0, pretend = 0, frame = 0
	@ frame_needed = 0, uses_anonymous_args = 0
	@ link register save eliminated.
	.loc 1 29 2 view .LVU17
	.loc 1 29 15 is_stmt 0 view .LVU18
	ldr	r3, .L8
	ldrb	r0, [r3]	@ zero_extendqisi2
	adds	r2, r0, #1
	strb	r2, [r3]
	.loc 1 29 5 view .LVU19
	cbnz	r0, .L7
	.loc 1 33 2 is_stmt 1 view .LVU20
.LVL3:
.LBB20:
.LBI20:
	.loc 2 438 20 view .LVU21
.LBB21:
	.loc 2 440 5 view .LVU22
	.loc 2 440 52 is_stmt 0 view .LVU23
	ldr	r3, .L8+4
	movs	r2, #1
	str	r2, [r3]
.LVL4:
	.loc 2 440 52 view .LVU24
.LBE21:
.LBE20:
	.loc 1 35 2 is_stmt 1 view .LVU25
	.loc 1 35 9 is_stmt 0 view .LVU26
	bx	lr
.L7:
	.loc 1 30 10 view .LVU27
	movs	r0, #1
	.loc 1 36 1 view .LVU28
	bx	lr
.L9:
	.align	2
.L8:
	.word	_refcount
	.word	1073786880
	.cfi_endproc
.LFE461:
	.size	cntr_start, .-cntr_start
	.section	.rodata.cntr_stop.str1.4,"aMS",%progbits,1
	.align	2
.LC0:
	.ascii	"WEST_TOPDIR/zephyr/subsys/bluetooth/controller/ll_s"
	.ascii	"w/nordic/hal/nrf5/cntr.c\000"
	.align	2
.LC1:
	.ascii	"_refcount\000"
	.align	2
.LC2:
	.ascii	"ASSERTION FAIL [%s] @ %s:%d\012\000"
	.section	.text.cntr_stop,"ax",%progbits
	.align	1
	.p2align 2,,3
	.global	cntr_stop
	.syntax unified
	.thumb
	.thumb_func
	.type	cntr_stop, %function
cntr_stop:
.LFB462:
	.loc 1 39 1 is_stmt 1 view -0
	.cfi_startproc
	@ args = 0, pretend = 0, frame = 0
	@ frame_needed = 0, uses_anonymous_args = 0
	.loc 1 40 2 view .LVU30
	.loc 1 40 7 view .LVU31
	.loc 1 39 1 is_stmt 0 view .LVU32
	push	{r4, lr}
	.cfi_def_cfa_offset 8
	.cfi_offset 4, -8
	.cfi_offset 14, -4
	.loc 1 40 11 view .LVU33
	ldr	r4, .L16
	ldrb	r0, [r4]	@ zero_extendqisi2
	.loc 1 40 10 view .LVU34
	cbz	r0, .L15
.L11:
	.loc 1 40 173 is_stmt 1 discriminator 3 view .LVU35
	.loc 1 40 5 discriminator 3 view .LVU36
	.loc 1 42 2 discriminator 3 view .LVU37
	.loc 1 42 6 is_stmt 0 discriminator 3 view .LVU38
	subs	r0, r0, #1
	uxtb	r0, r0
	.loc 1 42 5 discriminator 3 view .LVU39
	strb	r0, [r4]
	cbnz	r0, .L13
	.loc 1 46 2 is_stmt 1 view .LVU40
.LVL5:
.LBB22:
.LBI22:
	.loc 2 438 20 view .LVU41
.LBB23:
	.loc 2 440 5 view .LVU42
	.loc 2 440 52 is_stmt 0 view .LVU43
	ldr	r3, .L16+4
	movs	r2, #1
	str	r2, [r3, #4]
.LVL6:
	.loc 2 440 52 view .LVU44
.LBE23:
.LBE22:
	.loc 1 48 2 is_stmt 1 view .LVU45
	.loc 1 49 1 is_stmt 0 view .LVU46
	pop	{r4, pc}
.L13:
	.loc 1 43 10 view .LVU47
	movs	r0, #1
	.loc 1 49 1 view .LVU48
	pop	{r4, pc}
.L15:
	.loc 1 40 27 is_stmt 1 discriminator 1 view .LVU49
	ldr	r2, .L16+8
	ldr	r1, .L16+12
	ldr	r0, .L16+16
	movs	r3, #40
	bl	assert_print
.LVL7:
	.loc 1 40 170 discriminator 1 view .LVU50
	.loc 1 40 175 discriminator 1 view .LVU51
	.syntax unified
@ 40 "/home/g/mise-work/zmk-firmware/zmk/zephyr/subsys/bluetooth/controller/ll_sw/nordic/hal/nrf5/cntr.c" 1
	eors.n r0, r0
	msr BASEPRI, r0
	mov r0, #3
	svc #2
	
@ 0 "" 2
	.loc 1 42 6 is_stmt 0 discriminator 1 view .LVU52
	.thumb
	.syntax unified
	ldrb	r0, [r4]	@ zero_extendqisi2
	b	.L11
.L17:
	.align	2
.L16:
	.word	_refcount
	.word	1073786880
	.word	.LC0
	.word	.LC1
	.word	.LC2
	.cfi_endproc
.LFE462:
	.size	cntr_stop, .-cntr_stop
	.section	.text.cntr_cnt_get,"ax",%progbits
	.align	1
	.p2align 2,,3
	.global	cntr_cnt_get
	.syntax unified
	.thumb
	.thumb_func
	.type	cntr_cnt_get, %function
cntr_cnt_get:
.LFB463:
	.loc 1 52 1 is_stmt 1 view -0
	.cfi_startproc
	@ args = 0, pretend = 0, frame = 0
	@ frame_needed = 0, uses_anonymous_args = 0
	@ link register save eliminated.
	.loc 1 53 2 view .LVU54
.LVL8:
.LBB24:
.LBI24:
	.loc 2 403 24 view .LVU55
.LBB25:
	.loc 2 405 6 view .LVU56
	.loc 2 405 18 is_stmt 0 view .LVU57
	ldr	r3, .L19
	ldr	r0, [r3, #1284]
.LVL9:
	.loc 2 405 18 view .LVU58
.LBE25:
.LBE24:
	.loc 1 54 1 view .LVU59
	bx	lr
.L20:
	.align	2
.L19:
	.word	1073786880
	.cfi_endproc
.LFE463:
	.size	cntr_cnt_get, .-cntr_cnt_get
	.section	.text.cntr_cmp_set,"ax",%progbits
	.align	1
	.p2align 2,,3
	.global	cntr_cmp_set
	.syntax unified
	.thumb
	.thumb_func
	.type	cntr_cmp_set, %function
cntr_cmp_set:
.LVL10:
.LFB464:
	.loc 1 57 1 is_stmt 1 view -0
	.cfi_startproc
	@ args = 0, pretend = 0, frame = 0
	@ frame_needed = 0, uses_anonymous_args = 0
	@ link register save eliminated.
	.loc 1 58 2 view .LVU61
.LBB26:
.LBB27:
	.loc 2 339 19 is_stmt 0 view .LVU62
	ldr	r3, .L22
	add	r0, r0, #336
.LVL11:
	.loc 2 339 19 view .LVU63
.LBE27:
.LBI26:
	.loc 2 337 20 is_stmt 1 view .LVU64
.LBB28:
	.loc 2 339 5 view .LVU65
	.loc 2 339 19 is_stmt 0 view .LVU66
	str	r1, [r3, r0, lsl #2]
.LVL12:
	.loc 2 339 19 view .LVU67
.LBE28:
.LBE26:
	.loc 1 59 1 view .LVU68
	bx	lr
.L23:
	.align	2
.L22:
	.word	1073786880
	.cfi_endproc
.LFE464:
	.size	cntr_cmp_set, .-cntr_cmp_set
	.section	.bss._refcount,"aw",%nobits
	.type	_refcount, %object
	.size	_refcount, 1
_refcount:
	.space	1
	.text
.Letext0:
	.file 3 "/home/g/zephyr-sdk-0.16.3/arm-zephyr-eabi/picolibc/include/machine/_default_types.h"
	.file 4 "/home/g/zephyr-sdk-0.16.3/arm-zephyr-eabi/picolibc/include/sys/_stdint.h"
	.file 5 "/home/g/mise-work/zmk-firmware/zmk/modules/hal/nordic/nrfx/mdk/nrf52840.h"
	.file 6 "/home/g/mise-work/zmk-firmware/zmk/zephyr/include/zephyr/fatal_types.h"
	.file 7 "/home/g/mise-work/zmk-firmware/zmk/zephyr/include/zephyr/kernel.h"
	.file 8 "/home/g/mise-work/zmk-firmware/zmk/zephyr/include/zephyr/sys/__assert.h"