	.cpu cortex-m4
	.arch armv7e-m
	.fpu fpv4-sp-d16
	.eabi_attribute 27, 1
	.eabi_attribute 28, 1
	.eabi_attribute 20, 1
	.eabi_attribute 21, 1
	.eabi_attribute 23, 3
	.eabi_attribute 24, 1
	.eabi_attribute 25, 1
	.eabi_attribute 26, 1
	.eabi_attribute 30, 2
	.eabi_attribute 34, 1
	.eabi_attribute 38, 1
	.eabi_attribute 18, 4
	.file	"ecb.c"
	.text
.Ltext0:
	.cfi_sections	.debug_frame
	.file 1 "/home/g/mise-work/zmk-firmware/zmk/zephyr/subsys/bluetooth/controller/ll_sw/nordic/hal/nrf5/ecb.c"
	.section	.text.do_ecb,"ax",%progbits
	.align	1
	.p2align 2,,3
	.syntax unified
	.thumb
	.thumb_func
	.type	do_ecb, %function
do_ecb:
.LVL0:
.LFB456:
	.loc 1 26 1 view -0
	.cfi_startproc
	@ args = 0, pretend = 0, frame = 0
	@ frame_needed = 0, uses_anonymous_args = 0
	@ link register save eliminated.
.LBB36:
.LBB37:
	.file 2 "/home/g/mise-work/zmk-firmware/zmk/modules/hal/nordic/nrfx/hal/nrf_ecb.h"
	.loc 2 442 65 is_stmt 0 view .LVU1
	ldr	r3, .L12
.LBE37:
.LBE36:
	.loc 1 26 1 view .LVU2
	push	{r4, r5}
	.cfi_def_cfa_offset 8
	.cfi_offset 4, -8
	.cfi_offset 5, -4
.LBB40:
.LBB38:
	.loc 2 442 65 view .LVU3
	movs	r1, #1
.LBE38:
.LBE40:
	.loc 1 26 1 view .LVU4
	mov	r4, r0
	.loc 1 30 49 view .LVU5
	movs	r0, #0
.LVL1:
.L7:
	.loc 1 27 2 is_stmt 1 view .LVU6
	.loc 1 28 3 view .LVU7
.LBB41:
.LBI36:
	.loc 2 440 20 view .LVU8
.LBB39:
	.loc 2 442 5 view .LVU9
	.loc 2 442 65 is_stmt 0 view .LVU10
	str	r1, [r3, #4]
.LVL2:
	.loc 2 442 65 view .LVU11
.LBE39:
.LBE41:
	.loc 1 29 3 is_stmt 1 view .LVU12
	.loc 1 29 46 is_stmt 0 view .LVU13
	str	r4, [r3, #1284]
	.loc 1 30 3 is_stmt 1 view .LVU14
	.loc 1 30 49 is_stmt 0 view .LVU15
	str	r0, [r3, #256]
	.loc 1 31 3 is_stmt 1 view .LVU16
	.loc 1 31 51 is_stmt 0 view .LVU17
	str	r0, [r3, #260]
	.loc 1 32 3 is_stmt 1 view .LVU18
.LVL3:
.LBB42:
.LBI42:
	.loc 2 440 20 view .LVU19
.LBB43:
	.loc 2 442 5 view .LVU20
	.loc 2 442 65 is_stmt 0 view .LVU21
	str	r1, [r3]
	.loc 2 443 1 view .LVU22
	b	.L3
.LVL4:
.L11:
	.loc 2 443 1 view .LVU23
.LBE43:
.LBE42:
	.loc 1 34 41 discriminator 1 view .LVU24
	ldr	r2, [r3, #260]
	.loc 1 33 63 discriminator 1 view .LVU25
	cbnz	r2, .L2
	.loc 1 35 41 view .LVU26
	ldr	r2, [r3, #1284]
	.loc 1 34 65 view .LVU27
	cbz	r2, .L2
.L3:
	.loc 1 44 3 is_stmt 1 discriminator 2 view .LVU28
	.loc 1 34 65 discriminator 2 view .LVU29
	.loc 1 33 41 is_stmt 0 discriminator 2 view .LVU30
	ldr	r2, [r3, #256]
	.loc 1 34 65 discriminator 2 view .LVU31
	cmp	r2, #0
	beq	.L11
.L2:
	.loc 1 45 3 is_stmt 1 view .LVU32
.LVL5:
.LBB44:
.LBI44:
	.loc 2 440 20 view .LVU33
.LBB45:
	.loc 2 442 5 view .LVU34
	.loc 2 442 65 is_stmt 0 view .LVU35
	str	r1, [r3, #4]
.LVL6:
	.loc 2 442 65 view .LVU36
.LBE45:
.LBE44:
	.loc 1 46 66 is_stmt 1 view .LVU37
	.loc 1 46 42 is_stmt 0 view .LVU38
	ldr	r2, [r3, #260]
	.loc 1 46 66 view .LVU39
	cmp	r2, #0
	bne	.L7
	.loc 1 46 100 discriminator 1 view .LVU40
	ldr	r5, [r3, #1284]
	.loc 1 46 66 discriminator 1 view .LVU41
	cmp	r5, #0
	beq	.L7
	.loc 1 48 2 is_stmt 1 view .LVU42
	.loc 1 48 45 is_stmt 0 view .LVU43
	str	r2, [r3, #1284]
	.loc 1 49 1 view .LVU44
	pop	{r4, r5}
	.cfi_restore 5
	.cfi_restore 4
	.cfi_def_cfa_offset 0
.LVL7:
	.loc 1 49 1 view .LVU45
	bx	lr
.L13:
	.align	2
.L12:
	.word	1073799168
	.cfi_endproc
.LFE456:
	.size	do_ecb, .-do_ecb
	.section	.text.ecb_cb,"ax",%progbits
	.align	1
	.p2align 2,,3
	.syntax unified
	.thumb
	.thumb_func
	.type	ecb_cb, %function
ecb_cb:
.LVL8:
.LFB462:
	.loc 1 158 1 is_stmt 1 view -0
	.cfi_startproc
	@ args = 0, pretend = 0, frame = 0
	@ frame_needed = 0, uses_anonymous_args = 0
	@ link register save eliminated.
	.loc 1 158 1 is_stmt 0 view .LVU47
	mov	r3, r2
	.loc 1 159 2 is_stmt 1 view .LVU48
.LVL9:
	.loc 1 162 2 view .LVU49
	.loc 1 162 23 is_stmt 0 view .LVU50
	movs	r2, #1
.LVL10:
	.loc 1 162 23 view .LVU51
	str	r2, [r3]
	.loc 1 163 2 is_stmt 1 view .LVU52
	.loc 1 163 25 is_stmt 0 view .LVU53
	str	r0, [r3, #4]
	.loc 1 164 2 is_stmt 1 view .LVU54
	.loc 1 164 5 is_stmt 0 view .LVU55
	cbz	r0, .L16
	.loc 1 168 1 view .LVU56
	bx	lr
.L16:
.LVL11:
.LBB48:
.LBI48:
	.loc 1 157 13 is_stmt 1 view .LVU57
.LBB49:
	.loc 1 165 3 view .LVU58
	movs	r2, #16
	add	r0, r3, #8
.LVL12:
	.loc 1 165 3 is_stmt 0 view .LVU59
	b	mem_rcopy
.LVL13:
	.loc 1 165 3 view .LVU60
.LBE49:
.LBE48:
	.cfi_endproc
.LFE462:
	.size	ecb_cb, .-ecb_cb
	.section	.text.ecb_encrypt_be,"ax",%progbits
	.align	1
	.p2align 2,,3
	.global	ecb_encrypt_be
	.syntax unified
	.thumb
	.thumb_func
	.type	ecb_encrypt_be, %function
ecb_encrypt_be:
.LVL14:
.LFB457:
	.loc 1 53 1 is_stmt 1 view -0
	.cfi_startproc
	@ args = 0, pretend = 0, frame = 48
	@ frame_needed = 0, uses_anonymous_args = 0
	.loc 1 54 2 view .LVU62
	.loc 1 56 1 view .LVU63
	.loc 1 53 1 is_stmt 0 view .LVU64
	push	{r4, lr}
	.cfi_def_cfa_offset 8
	.cfi_offset 4, -8
	.cfi_offset 14, -4
	mov	r3, r0
	sub	sp, sp, #48
	.cfi_def_cfa_offset 56
	.loc 1 53 1 view .LVU65
	mov	lr, r1
	mov	r4, r2
	.loc 1 56 23 view .LVU66
	ldr	r1, [r3, #4]	@ unaligned
.LVL15:
	.loc 1 56 23 view .LVU67
	ldr	r2, [r3, #8]	@ unaligned
.LVL16:
	.loc 1 56 23 view .LVU68
	ldr	r0, [r0]	@ unaligned
.LVL17:
	.loc 1 56 23 view .LVU69
	ldr	r3, [r3, #12]	@ unaligned
.LVL18:
	.loc 1 56 23 view .LVU70
	mov	ip, sp
	stmia	ip!, {r0, r1, r2, r3}
	.loc 1 57 1 is_stmt 1 view .LVU71
	.loc 1 57 23 is_stmt 0 view .LVU72
	ldr	r0, [lr]	@ unaligned
	ldr	r1, [lr, #4]	@ unaligned
	ldr	r2, [lr, #8]	@ unaligned
	ldr	r3, [lr, #12]	@ unaligned
	stmia	ip!, {r0, r1, r2, r3}
	.loc 1 59 2 is_stmt 1 view .LVU73
	mov	r0, sp
	bl	do_ecb
.LVL19:
	.loc 1 61 1 view .LVU74
.LBB50:
.LBI50:
	.file 3 "/home/g/zephyr-sdk-0.16.3/arm-zephyr-eabi/picolibc/include/ssp/string.h"
	.loc 3 83 216 view .LVU75
.LBB51:
	.loc 3 83 292 view .LVU76
	.loc 3 83 299 is_stmt 0 view .LVU77
	add	ip, sp, #32
.LVL20:
	.loc 3 83 299 view .LVU78
	ldmia	ip!, {r0, r1, r2, r3}
.LVL21:
	.loc 3 83 299 view .LVU79
	str	r0, [r4]	@ unaligned
	str	r1, [r4, #4]	@ unaligned
	str	r2, [r4, #8]	@ unaligned
	str	r3, [r4, #12]	@ unaligned
.LVL22:
	.loc 3 83 299 view .LVU80
.LBE51:
.LBE50:
	.loc 1 62 1 view .LVU81
	add	sp, sp, #48
	.cfi_def_cfa_offset 8
	@ sp needed
	pop	{r4, pc}
	.loc 1 62 1 view .LVU82
	.cfi_endproc
.LFE457:
	.size	ecb_encrypt_be, .-ecb_encrypt_be
	.section	.text.ecb_encrypt,"ax",%progbits
	.align	1
	.p2align 2,,3
	.global	ecb_encrypt
	.syntax unified
	.thumb
	.thumb_func
	.type	ecb_encrypt, %function
ecb_encrypt:
.LVL23:
.LFB458:
	.loc 1 66 1 is_stmt 1 view -0
	.cfi_startproc
	@ args = 0, pretend = 0, frame = 48
	@ frame_needed = 0, uses_anonymous_args = 0
	.loc 1 67 2 view .LVU84
	.loc 1 69 2 view .LVU85
	.loc 1 66 1 is_stmt 0 view .LVU86
	push	{r4, r5, r6, lr}
	.cfi_def_cfa_offset 16
	.cfi_offset 4, -16
	.cfi_offset 5, -12
	.cfi_offset 6, -8
	.cfi_offset 14, -4
	sub	sp, sp, #48
	.cfi_def_cfa_offset 64
	.loc 1 66 1 view .LVU87
	mov	r6, r1
	mov	r5, r2
	.loc 1 69 2 view .LVU88
	mov	r1, r0
.LVL24:
	.loc 1 69 2 view .LVU89
	movs	r2, #16
.LVL25:
	.loc 1 69 2 view .LVU90
	mov	r0, sp
.LVL26:
	.loc 1 66 1 view .LVU91
	mov	r4, r3
	.loc 1 69 2 view .LVU92
	bl	mem_rcopy
.LVL27:
	.loc 1 70 2 is_stmt 1 view .LVU93
	movs	r2, #16
	add	r0, sp, r2
	mov	r1, r6
	bl	mem_rcopy
.LVL28:
	.loc 1 72 2 view .LVU94
	mov	r0, sp
	bl	do_ecb
.LVL29:
	.loc 1 74 2 view .LVU95
	.loc 1 74 5 is_stmt 0 view .LVU96
	cbz	r5, .L20
	.loc 1 75 3 is_stmt 1 view .LVU97
	movs	r2, #16
	add	r1, sp, #32
	mov	r0, r5
	bl	mem_rcopy
.LVL30:
.L20:
	.loc 1 79 2 view .LVU98
	.loc 1 79 5 is_stmt 0 view .LVU99
	cbz	r4, .L19
	.loc 1 80 2 is_stmt 1 view .LVU100
.LVL31:
.LBB54:
.LBI54:
	.loc 3 83 216 view .LVU101
.LBB55:
	.loc 3 83 292 view .LVU102
	.loc 3 83 299 is_stmt 0 view .LVU103
	add	ip, sp, #32
.LVL32:
	.loc 3 83 299 view .LVU104
	ldmia	ip!, {r0, r1, r2, r3}
.LVL33:
	.loc 3 83 299 view .LVU105
	str	r0, [r4]	@ unaligned
	str	r1, [r4, #4]	@ unaligned
	str	r2, [r4, #8]	@ unaligned
	str	r3, [r4, #12]	@ unaligned
.LVL34:
.L19:
	.loc 3 83 299 view .LVU106
.LBE55:
.LBE54:
	.loc 1 83 1 view .LVU107
	add	sp, sp, #48
	.cfi_def_cfa_offset 16
	@ sp needed
	pop	{r4, r5, r6, pc}
	.loc 1 83 1 view .LVU108
	.cfi_endproc
.LFE458:
	.size	ecb_encrypt, .-ecb_encrypt
	.section	.text.ecb_encrypt_nonblocking,"ax",%progbits
	.align	1
	.p2align 2,,3
	.global	ecb_encrypt_nonblocking
	.syntax unified
	.thumb
	.thumb_func
	.type	ecb_encrypt_nonblocking, %function
ecb_encrypt_nonblocking:
.LVL35:
.LFB459:
	.loc 1 86 1 is_stmt 1 view -0
	.cfi_startproc
	@ args = 0, pretend = 0, frame = 0
	@ frame_needed = 0, uses_anonymous_args = 0
	.loc 1 88 2 view .LVU110
	.loc 1 86 1 is_stmt 0 view .LVU111
	push	{r4, r5, r6, lr}
	.cfi_def_cfa_offset 16
	.cfi_offset 4, -16
	.cfi_offset 5, -12
	.cfi_offset 6, -8
	.cfi_offset 14, -4
	.loc 1 88 9 view .LVU112
	ldr	r1, [r0, #48]
	.loc 1 86 1 view .LVU113
	mov	r4, r0
	.loc 1 88 5 view .LVU114
	cbz	r1, .L30
	.loc 1 89 3 is_stmt 1 view .LVU115
	movs	r2, #16
	bl	mem_rcopy
.LVL36:
.L30:
	.loc 1 92 2 view .LVU116
	.loc 1 92 9 is_stmt 0 view .LVU117
	ldr	r1, [r4, #52]
	.loc 1 92 5 view .LVU118
	cbz	r1, .L31
	.loc 1 93 3 is_stmt 1 view .LVU119
	movs	r2, #16
	adds	r0, r4, r2
	bl	mem_rcopy
.LVL37:
.L31:
	.loc 1 99 2 view .LVU120
	.loc 1 99 45 is_stmt 0 view .LVU121
	ldr	r5, .L39
.LBB56:
.LBB57:
	.file 4 "/home/g/mise-work/zmk-firmware/zmk/modules/hal/cmsis/CMSIS/Core/Include/core_cm4.h"
	.loc 4 1779 83 view .LVU122
	ldr	r3, .L39+4
.LBE57:
.LBE56:
	.loc 1 99 45 view .LVU123
	str	r4, [r5, #1284]
	.loc 1 100 2 is_stmt 1 view .LVU124
	.loc 1 100 48 is_stmt 0 view .LVU125
	movs	r6, #0
.LBB59:
.LBB60:
	.loc 2 470 21 view .LVU126
	movs	r2, #3
.LBE60:
.LBE59:
	.loc 1 100 48 view .LVU127
	str	r6, [r5, #256]
	.loc 1 101 2 is_stmt 1 view .LVU128
	.loc 1 101 50 is_stmt 0 view .LVU129
	str	r6, [r5, #260]
	.loc 1 102 2 is_stmt 1 view .LVU130
.LVL38:
.LBB62:
.LBI59:
	.loc 2 468 20 view .LVU131
.LBB61:
	.loc 2 470 5 view .LVU132
	.loc 2 470 21 is_stmt 0 view .LVU133
	str	r2, [r5, #772]
.LVL39:
	.loc 2 470 21 view .LVU134
.LBE61:
.LBE62:
	.loc 1 106 2 is_stmt 1 view .LVU135
.LBB63:
.LBI56:
	.loc 4 1775 20 view .LVU136
.LBB58:
	.loc 4 1777 3 view .LVU137
	.loc 4 1779 5 view .LVU138
	.loc 4 1779 83 is_stmt 0 view .LVU139
	mov	r2, #16384
	str	r2, [r3, #384]
.LVL40:
	.loc 4 1779 83 view .LVU140
.LBE58:
.LBE63:
	.loc 1 107 2 is_stmt 1 view .LVU141
	movs	r0, #14
	bl	arch_irq_enable
.LVL41:
	.loc 1 110 2 view .LVU142
.LBB64:
.LBI64:
	.loc 2 440 20 view .LVU143
.LBB65:
	.loc 2 442 5 view .LVU144
	.loc 2 442 65 is_stmt 0 view .LVU145
	movs	r3, #1
	str	r3, [r5]
.LVL42:
	.loc 2 442 65 view .LVU146
.LBE65:
.LBE64:
	.loc 1 112 2 is_stmt 1 view .LVU147
	.loc 1 113 1 is_stmt 0 view .LVU148
	mov	r0, r6
	pop	{r4, r5, r6, pc}
.LVL43:
.L40:
	.loc 1 113 1 view .LVU149
	.align	2
.L39:
	.word	1073799168
	.word	-536813312
	.cfi_endproc
.LFE459:
	.size	ecb_encrypt_nonblocking, .-ecb_encrypt_nonblocking
	.section	.rodata.isr_ecb.str1.4,"aMS",%progbits,1
	.align	2
.LC0:
	.ascii	"WEST_TOPDIR/zephyr/subsys/bluetooth/controller/ll_s"
	.ascii	"w/nordic/hal/nrf5/ecb.c\000"
	.align	2
.LC1:
	.ascii	"0\000"
	.align	2
.LC2:
	.ascii	"ASSERTION FAIL [%s] @ %s:%d\012\000"
	.section	.text.isr_ecb,"ax",%progbits
	.align	1
	.p2align 2,,3
	.global	isr_ecb
	.syntax unified
	.thumb
	.thumb_func
	.type	isr_ecb, %function
isr_ecb:
.LVL44:
.LFB461:
	.loc 1 126 1 is_stmt 1 view -0
	.cfi_startproc
	@ args = 0, pretend = 0, frame = 0
	@ frame_needed = 0, uses_anonymous_args = 0
	.loc 1 127 2 view .LVU151
	.loc 1 129 2 view .LVU152
	.loc 1 126 1 is_stmt 0 view .LVU153
	push	{r4, r5, r6, lr}
	.cfi_def_cfa_offset 16
	.cfi_offset 4, -16
	.cfi_offset 5, -12
	.cfi_offset 6, -8
	.cfi_offset 14, -4
	.loc 1 129 36 view .LVU154
	ldr	r3, .L46
	ldr	r4, [r3, #260]
	.loc 1 129 5 view .LVU155
	cbnz	r4, .L45
	.loc 1 137 7 is_stmt 1 view .LVU156
	.loc 1 137 41 is_stmt 0 view .LVU157
	ldr	r2, [r3, #256]
	.loc 1 137 10 view .LVU158
	cbz	r2, .L43
.LBB66:
	.loc 1 138 3 is_stmt 1 view .LVU159
	.loc 1 138 65 is_stmt 0 view .LVU160
	ldr	r5, [r3, #1284]
.LVL45:
	.loc 1 140 3 is_stmt 1 view .LVU161
.LBB67:
.LBI67:
	.loc 1 115 13 view .LVU162
.LBB68:
	.loc 1 118 2 view .LVU163
	.loc 1 118 48 is_stmt 0 view .LVU164
	movs	r2, #1
	str	r2, [r3, #4]
	.loc 1 119 2 is_stmt 1 view .LVU165
.LVL46:
.LBB69:
.LBI69:
	.loc 2 440 20 view .LVU166
.LBB70:
	.loc 2 442 5 view .LVU167
.LBE70:
.LBE69:
	.loc 1 122 2 is_stmt 0 view .LVU168
	movs	r0, #14
.LVL47:
.LBB72:
.LBB71:
	.loc 2 442 65 view .LVU169
	str	r2, [r3, #4]
.LVL48:
	.loc 2 442 65 view .LVU170
.LBE71:
.LBE72:
	.loc 1 122 2 is_stmt 1 view .LVU171
	bl	arch_irq_disable
.LVL49:
.LBE68:
.LBE67:
	.loc 1 142 3 view .LVU172
	ldrd	r3, r2, [r5, #56]
	add	r1, r5, #32
	mov	r0, r4
.LBE66:
	.loc 1 149 1 is_stmt 0 view .LVU173
	pop	{r4, r5, r6, lr}
	.cfi_remember_state
	.cfi_restore 14
	.cfi_restore 6
	.cfi_restore 5
	.cfi_restore 4
	.cfi_def_cfa_offset 0
.LVL50:
.LBB73:
	.loc 1 142 3 view .LVU174
	bx	r3	@ indirect register sibling call
.LVL51:
.L43:
	.cfi_restore_state
	.loc 1 142 3 view .LVU175
.LBE73:
	.loc 1 147 3 is_stmt 1 discriminator 1 view .LVU176
	.loc 1 147 8 discriminator 1 view .LVU177
	.loc 1 147 20 discriminator 1 view .LVU178
	ldr	r2, .L46+4
	ldr	r1, .L46+8
	ldr	r0, .L46+12
.LVL52:
	.loc 1 147 20 is_stmt 0 discriminator 1 view .LVU179
	movs	r3, #147
	bl	assert_print
.LVL53:
	.loc 1 147 155 is_stmt 1 discriminator 1 view .LVU180
	.loc 1 147 160 discriminator 1 view .LVU181
	.syntax unified
@ 147 "/home/g/mise-work/zmk-firmware/zmk/zephyr/subsys/bluetooth/controller/ll_sw/nordic/hal/nrf5/ecb.c" 1
	eors.n r0, r0
	msr BASEPRI, r0
	mov r0, #3
	svc #2
	
@ 0 "" 2
	.loc 1 147 158 discriminator 1 view .LVU182
	.loc 1 147 6 discriminator 1 view .LVU183
	.loc 1 149 1 is_stmt 0 discriminator 1 view .LVU184
	.thumb
	.syntax unified
	pop	{r4, r5, r6, pc}
.LVL54:
.L45:
.LBB74:
	.loc 1 130 3 is_stmt 1 view .LVU185
	.loc 1 130 65 is_stmt 0 view .LVU186
	ldr	r5, [r3, #1284]
.LVL55:
	.loc 1 132 3 is_stmt 1 view .LVU187
.LBB75:
.LBI75:
	.loc 1 115 13 view .LVU188
.LBB76:
	.loc 1 118 2 view .LVU189
	.loc 1 118 48 is_stmt 0 view .LVU190
	movs	r4, #1
	str	r4, [r3, #4]
	.loc 1 119 2 is_stmt 1 view .LVU191
.LVL56:
.LBB77:
.LBI77:
	.loc 2 440 20 view .LVU192
.LBB78:
	.loc 2 442 5 view .LVU193
.LBE78:
.LBE77:
	.loc 1 122 2 is_stmt 0 view .LVU194
	movs	r0, #14
.LVL57:
.LBB80:
.LBB79:
	.loc 2 442 65 view .LVU195
	str	r4, [r3, #4]
.LVL58:
	.loc 2 442 65 view .LVU196
.LBE79:
.LBE80:
	.loc 1 122 2 is_stmt 1 view .LVU197
	bl	arch_irq_disable
.LVL59:
.LBE76:
.LBE75:
	.loc 1 134 3 view .LVU198
	ldrd	r3, r2, [r5, #56]
	mov	r0, r4
	movs	r1, #0
.LBE74:
	.loc 1 149 1 is_stmt 0 view .LVU199
	pop	{r4, r5, r6, lr}
	.cfi_restore 14
	.cfi_restore 6
	.cfi_restore 5
	.cfi_restore 4
	.cfi_def_cfa_offset 0
.LVL60:
.LBB81:
	.loc 1 134 3 view .LVU200
	bx	r3	@ indirect register sibling call
.LVL61:
.L47:
	.align	2
.L46:
	.word	1073799168
	.word	.LC0
	.word	.LC1
	.word	.LC2
.LBE81:
	.cfi_endproc
.LFE461:
	.size	isr_ecb, .-isr_ecb
	.section	.text.ecb_ut,"ax",%progbits
	.align	1
	.p2align 2,,3
	.global	ecb_ut
	.syntax unified
	.thumb
	.thumb_func
	.type	ecb_ut, %function
ecb_ut:
.LFB463:
	.loc 1 171 1 is_stmt 1 view -0
	.cfi_startproc
	@ args = 0, pretend = 0, frame = 136
	@ frame_needed = 0, uses_anonymous_args = 0
	.loc 1 172 2 view .LVU202
	.loc 1 171 1 is_stmt 0 view .LVU203
	push	{r4, r5, r6, lr}
	.cfi_def_cfa_offset 16
	.cfi_offset 4, -16
	.cfi_offset 5, -12
	.cfi_offset 6, -8
	.cfi_offset 14, -4
	.loc 1 172 10 view .LVU204
	ldr	r4, .L54
	ldm	r4, {r0, r1, r2, r3}
	.loc 1 171 1 view .LVU205
	sub	sp, sp, #136
	.cfi_def_cfa_offset 152
	.loc 1 172 10 view .LVU206
	mov	r6, sp
	.loc 1 174 10 view .LVU207
	add	r5, sp, #16
	.loc 1 172 10 view .LVU208
	stm	r6, {r0, r1, r2, r3}
	.loc 1 174 2 is_stmt 1 view .LVU209
	.loc 1 174 10 is_stmt 0 view .LVU210
	stm	r5, {r0, r1, r2, r3}
	.loc 1 177 2 is_stmt 1 view .LVU211
	.loc 1 178 2 view .LVU212
.LVL62:
	.loc 1 179 2 view .LVU213
	.loc 1 180 2 view .LVU214
	.loc 1 182 2 view .LVU215
.LBB92:
.LBI92:
	.loc 1 64 6 view .LVU216
.LBB93:
	.loc 1 67 2 view .LVU217
	.loc 1 69 2 view .LVU218
	movs	r2, #16
	mov	r1, r6
	add	r0, sp, #72
	bl	mem_rcopy
.LVL63:
	.loc 1 70 2 view .LVU219
	movs	r2, #16
	mov	r1, r5
	add	r0, sp, #88
	bl	mem_rcopy
.LVL64:
	.loc 1 72 2 view .LVU220
	add	r0, sp, #72
	bl	do_ecb
.LVL65:
	.loc 1 74 2 view .LVU221
	.loc 1 75 3 view .LVU222
	add	r0, sp, #32
.LVL66:
	.loc 1 75 3 is_stmt 0 view .LVU223
	movs	r2, #16
	add	r1, sp, #104
	bl	mem_rcopy
.LVL67:
	.loc 1 79 2 is_stmt 1 view .LVU224
	.loc 1 79 2 is_stmt 0 view .LVU225
.LBE93:
.LBE92:
	.loc 1 184 2 is_stmt 1 view .LVU226
	.loc 1 184 15 is_stmt 0 view .LVU227
	movs	r3, #0
	.loc 1 187 13 view .LVU228
	ldr	r2, .L54+4
	.loc 1 184 15 view .LVU229
	str	r3, [sp, #48]
	.loc 1 185 2 is_stmt 1 view .LVU230
	.loc 1 189 11 is_stmt 0 view .LVU231
	add	r0, sp, #72
	.loc 1 188 14 view .LVU232
	add	r3, sp, #48
	.loc 1 186 23 view .LVU233
	strd	r6, r5, [sp, #120]
	.loc 1 187 2 is_stmt 1 view .LVU234
	.loc 1 188 14 is_stmt 0 view .LVU235
	strd	r2, r3, [sp, #128]
	.loc 1 189 2 is_stmt 1 view .LVU236
	.loc 1 189 11 is_stmt 0 view .LVU237
	bl	ecb_encrypt_nonblocking
.LVL68:
.L49:
	.loc 1 190 2 is_stmt 1 discriminator 1 view .LVU238
	.loc 1 191 3 discriminator 1 view .LVU239
.LBB94:
.LBI94:
	.file 5 "/home/g/mise-work/zmk-firmware/zmk/zephyr/subsys/bluetooth/controller/ll_sw/nordic/hal/nrf5/cpu.h"
	.loc 5 10 20 discriminator 1 view .LVU240
	.loc 5 12 2 discriminator 1 view .LVU241
.LBB95:
.LBI95:
	.file 6 "/home/g/mise-work/zmk-firmware/zmk/zephyr/include/zephyr/arch/arm/asm_inline_gcc.h"
	.loc 6 42 59 discriminator 1 view .LVU242
.LBB96:
	.loc 6 44 2 discriminator 1 view .LVU243
	.loc 6 57 2 discriminator 1 view .LVU244
	.loc 6 59 2 discriminator 1 view .LVU245
	.syntax unified
@ 59 "/home/g/mise-work/zmk-firmware/zmk/zephyr/include/zephyr/arch/arm/asm_inline_gcc.h" 1
	mov r3, #32;mrs r0, BASEPRI;msr BASEPRI_MAX, r3;isb;
@ 0 "" 2
.LVL69:
	.loc 6 88 2 discriminator 1 view .LVU246
	.loc 6 88 2 is_stmt 0 discriminator 1 view .LVU247
	.thumb
	.syntax unified
.LBE96:
.LBE95:
.LBB97:
.LBI97:
	.file 7 "/home/g/mise-work/zmk-firmware/zmk/zephyr/include/zephyr/kernel.h"
	.loc 7 5871 20 is_stmt 1 discriminator 1 view .LVU248
.LBB98:
	.loc 7 5873 2 discriminator 1 view .LVU249
	bl	arch_cpu_atomic_idle
.LVL70:
	.loc 7 5873 2 is_stmt 0 discriminator 1 view .LVU250
.LBE98:
.LBE97:
.LBE94:
	.loc 1 192 11 is_stmt 1 discriminator 1 view .LVU251
	.loc 1 192 19 is_stmt 0 discriminator 1 view .LVU252
	ldr	r3, [sp, #48]
	.loc 1 192 11 discriminator 1 view .LVU253
	cmp	r3, #0
	beq	.L49
	.loc 1 194 2 is_stmt 1 view .LVU254
	.loc 1 194 13 is_stmt 0 view .LVU255
	ldr	r0, [sp, #52]
	.loc 1 194 5 view .LVU256
	cbnz	r0, .L48
	.loc 1 198 2 is_stmt 1 view .LVU257
	.loc 1 198 11 is_stmt 0 view .LVU258
	movs	r2, #16
	add	r1, sp, #56
	add	r0, sp, #32
	bl	memcmp
.LVL71:
	.loc 1 199 2 is_stmt 1 view .LVU259
.L48:
	.loc 1 204 1 is_stmt 0 view .LVU260
	add	sp, sp, #136
	.cfi_def_cfa_offset 16
	@ sp needed
	pop	{r4, r5, r6, pc}
.L55:
	.align	2
.L54:
	.word	.LANCHOR0
	.word	ecb_cb
	.cfi_endproc
.LFE463:
	.size	ecb_ut, .-ecb_ut
	.section	.rodata
	.align	2
	.set	.LANCHOR0,. + 0
.LC3:
	.ascii	"\000\021\"3DUfw\210\231\000\021\"3DU"
	.text
.Letext0:
	.file 8 "/home/g/zephyr-sdk-0.16.3/arm-zephyr-eabi/picolibc/include/machine/_default_types.h"
	.file 9 "/home/g/zephyr-sdk-0.16.3/arm-zephyr-eabi/lib/gcc/arm-zephyr-eabi/12.2.0/include/stddef.h"
	.file 10 "/home/g/zephyr-sdk-0.16.3/arm-zephyr-eabi/picolibc/include/sys/_stdint.h"
	.file 11 "/home/g/mise-work/zmk-firmware/zmk/modules/hal/nordic/nrfx/mdk/nrf52840.h"
	.file 12 "/home/g/mise-work/zmk-firmware/zmk/zephyr/subsys/bluetooth/controller/./hal/ecb.h"
	.file 13 "/home/g/mise-work/zmk-firmware/zmk/zephyr/include/zephyr/sys/arch_interface.h"
	.file 14 "/home/g/mise-work/zmk-firmware/zmk/zephyr/include/zephyr/arch/arm/irq.h"
	.file 15 "/home/g/mise-work/zmk-firmware/zmk/zephyr/include/zephyr/sys/__assert.h"
	.file 16 "/home/g/mise-work/zmk-firmware/zmk/zephyr/subsys/bluetooth/controller/./util/mem.h"
	.file 17 "/home/g/zephyr-sdk-0.16.3/arm-zephyr-eabi/picolibc/include/string.h"
	.file 18 "/home/g/mise-work/zmk-firmware/zmk/zephyr/include/zephyr/fatal_types.h"