	.cpu cortex-m4
	.arch armv7e-m
	.fpu fpv4-sp-d16
	.eabi_attribute 27, 1
	.eabi_attribute 28, 1
	.eabi_attribute 20, 1
	.eabi_attribute 21, 1
	.eabi_attribute 23, 3
	.eabi_attribute 24, 1
	.eabi_attribute 25, 1
	.eabi_attribute 26, 1
	.eabi_attribute 30, 2
	.eabi_attribute 34, 1
	.eabi_attribute 38, 1
	.eabi_attribute 18, 4
	.file	"ticker.c"
	.text
.Ltext0:
	.cfi_sections	.debug_frame
	.file 1 "/home/g/mise-work/zmk-firmware/zmk/zephyr/subsys/bluetooth/controller/ll_sw/nordic/hal/nrf5/ticker.c"
	.section	.rodata.hal_ticker_instance0_caller_id_get.str1.4,"aMS",%progbits,1
	.align	2
.LC0:
	.ascii	"WEST_TOPDIR/zephyr/subsys/bluetooth/controller/ll_s"
	.ascii	"w/nordic/hal/nrf5/ticker.c\000"
	.align	2
.LC1:
	.ascii	"user_id < sizeof(caller_id_lut)\000"
	.align	2
.LC2:
	.ascii	"ASSERTION FAIL [%s] @ %s:%d\012\000"
	.align	2
.LC3:
	.ascii	"caller_id != 0\000"
	.section	.text.hal_ticker_instance0_caller_id_get,"ax",%progbits
	.align	1
	.p2align 2,,3
	.global	hal_ticker_instance0_caller_id_get
	.syntax unified
	.thumb
	.thumb_func
	.type	hal_ticker_instance0_caller_id_get, %function
hal_ticker_instance0_caller_id_get:
.LVL0:
.LFB445:
	.loc 1 38 1 view -0
	.cfi_startproc
	@ args = 0, pretend = 0, frame = 0
	@ frame_needed = 0, uses_anonymous_args = 0
	.loc 1 39 2 view .LVU1
	.loc 1 41 2 view .LVU2
	.loc 1 41 7 view .LVU3
	.loc 1 41 10 is_stmt 0 view .LVU4
	cmp	r0, #3
	.loc 1 38 1 view .LVU5
	push	{r4, lr}
	.cfi_def_cfa_offset 8
	.cfi_offset 4, -8
	.cfi_offset 14, -4
	.loc 1 38 1 view .LVU6
	mov	r4, r0
	.loc 1 41 10 view .LVU7
	bhi	.L6
	.loc 1 41 219 is_stmt 1 discriminator 3 view .LVU8
	.loc 1 41 5 discriminator 3 view .LVU9
	.loc 1 43 2 discriminator 3 view .LVU10
	.loc 1 43 12 is_stmt 0 discriminator 3 view .LVU11
	ldr	r3, .L8
	ldrb	r4, [r3, r4]	@ zero_extendqisi2
.LVL1:
	.loc 1 44 2 is_stmt 1 discriminator 3 view .LVU12
	.loc 1 44 7 discriminator 3 view .LVU13
	.loc 1 44 10 is_stmt 0 discriminator 3 view .LVU14
	cbz	r4, .L7
.LVL2:
.L3:
	.loc 1 44 185 is_stmt 1 discriminator 3 view .LVU15
	.loc 1 44 5 discriminator 3 view .LVU16
	.loc 1 46 2 discriminator 3 view .LVU17
	.loc 1 47 1 is_stmt 0 discriminator 3 view .LVU18
	mov	r0, r4
	pop	{r4, pc}
.LVL3:
.L6:
	.loc 1 41 49 is_stmt 1 discriminator 1 view .LVU19
	ldr	r2, .L8+4
	ldr	r1, .L8+8
	ldr	r0, .L8+12
.LVL4:
	.loc 1 41 49 is_stmt 0 discriminator 1 view .LVU20
	movs	r3, #41
	bl	assert_print
.LVL5:
	.loc 1 41 216 is_stmt 1 discriminator 1 view .LVU21
	.loc 1 41 221 discriminator 1 view .LVU22
	.syntax unified
@ 41 "/home/g/mise-work/zmk-firmware/zmk/zephyr/subsys/bluetooth/controller/ll_sw/nordic/hal/nrf5/ticker.c" 1
	eors.n r0, r0
	msr BASEPRI, r0
	mov r0, #3
	svc #2
	
@ 0 "" 2
	.loc 1 41 219 discriminator 1 view .LVU23
	.loc 1 41 5 discriminator 1 view .LVU24
	.loc 1 43 2 discriminator 1 view .LVU25
	.loc 1 43 12 is_stmt 0 discriminator 1 view .LVU26
	.thumb
	.syntax unified
	ldr	r3, .L8
	ldrb	r4, [r3, r4]	@ zero_extendqisi2
.LVL6:
	.loc 1 44 2 is_stmt 1 discriminator 1 view .LVU27
	.loc 1 44 7 discriminator 1 view .LVU28
	.loc 1 44 10 is_stmt 0 discriminator 1 view .LVU29
	cmp	r4, #0
	bne	.L3
.L7:
	.loc 1 44 32 is_stmt 1 discriminator 1 view .LVU30
	ldr	r2, .L8+4
	ldr	r1, .L8+16
	ldr	r0, .L8+12
	movs	r3, #44
	bl	assert_print
.LVL7:
	.loc 1 44 182 discriminator 1 view .LVU31
	.loc 1 44 187 discriminator 1 view .LVU32
	.syntax unified
@ 44 "/home/g/mise-work/zmk-firmware/zmk/zephyr/subsys/bluetooth/controller/ll_sw/nordic/hal/nrf5/ticker.c" 1
	eors.n r0, r0
	msr BASEPRI, r0
	mov r0, #3
	svc #2
	
@ 0 "" 2
	.loc 1 44 185 discriminator 1 view .LVU33
	.loc 1 44 5 discriminator 1 view .LVU34
	.loc 1 46 2 discriminator 1 view .LVU35
	.loc 1 47 1 is_stmt 0 discriminator 1 view .LVU36
	.thumb
	.syntax unified
	mov	r0, r4
	pop	{r4, pc}
.LVL8:
.L9:
	.loc 1 47 1 discriminator 1 view .LVU37
	.align	2
.L8:
	.word	caller_id_lut
	.word	.LC0
	.word	.LC1
	.word	.LC2
	.word	.LC3
	.cfi_endproc
.LFE445:
	.size	hal_ticker_instance0_caller_id_get, .-hal_ticker_instance0_caller_id_get
	.section	.rodata.hal_ticker_instance0_sched.str1.4,"aMS",%progbits,1
	.align	2
.LC4:
	.ascii	"0\000"
	.section	.text.hal_ticker_instance0_sched,"ax",%progbits
	.align	1
	.p2align 2,,3
	.global	hal_ticker_instance0_sched
	.syntax unified
	.thumb
	.thumb_func
	.type	hal_ticker_instance0_sched, %function
hal_ticker_instance0_sched:
.LVL9:
.LFB446:
	.loc 1 51 1 is_stmt 1 view -0
	.cfi_startproc
	@ args = 0, pretend = 0, frame = 0
	@ frame_needed = 0, uses_anonymous_args = 0
	.loc 1 56 2 view .LVU39
	subs	r0, r0, #1
.LVL10:
	.loc 1 51 1 is_stmt 0 view .LVU40
	push	{r4, lr}
	.cfi_def_cfa_offset 8
	.cfi_offset 4, -8
	.cfi_offset 14, -4
	.loc 1 51 1 view .LVU41
	mov	r4, r3
	.loc 1 56 2 view .LVU42
	cmp	r0, #4
	bhi	.L11
	tbb	[pc, r0]
.LVL11:
.L13:
	.byte	(.L17-.L13)/2
	.byte	(.L16-.L13)/2
	.byte	(.L15-.L13)/2
	.byte	(.L14-.L13)/2
	.byte	(.L12-.L13)/2
	.p2align 1
.L12:
	.loc 1 166 3 is_stmt 1 view .LVU43
	cmp	r1, #4
	beq	.L28
	.loc 1 184 4 discriminator 1 view .LVU44
	.loc 1 184 9 discriminator 1 view .LVU45
	.loc 1 184 21 discriminator 1 view .LVU46
	ldr	r2, .L32
.LVL12:
	.loc 1 184 21 is_stmt 0 discriminator 1 view .LVU47
	ldr	r1, .L32+4
.LVL13:
	.loc 1 184 21 discriminator 1 view .LVU48
	ldr	r0, .L32+8
	movs	r3, #184
	bl	assert_print
.LVL14:
	.loc 1 184 159 is_stmt 1 discriminator 1 view .LVU49
	.loc 1 184 164 discriminator 1 view .LVU50
	.syntax unified
@ 184 "/home/g/mise-work/zmk-firmware/zmk/zephyr/subsys/bluetooth/controller/ll_sw/nordic/hal/nrf5/ticker.c" 1
	eors.n r0, r0
	msr BASEPRI, r0
	mov r0, #3
	svc #2
	
@ 0 "" 2
	.loc 1 184 162 discriminator 1 view .LVU51
	.loc 1 184 7 discriminator 1 view .LVU52
	.loc 1 185 4 discriminator 1 view .LVU53
	.loc 1 193 1 is_stmt 0 discriminator 1 view .LVU54
	.thumb
	.syntax unified
	pop	{r4, pc}
.LVL15:
.L17:
	.loc 1 58 3 is_stmt 1 view .LVU55
	cmp	r1, #4
	beq	.L29
	.loc 1 76 4 discriminator 1 view .LVU56
	.loc 1 76 9 discriminator 1 view .LVU57
	.loc 1 76 21 discriminator 1 view .LVU58
	ldr	r2, .L32
.LVL16:
	.loc 1 76 21 is_stmt 0 discriminator 1 view .LVU59
	ldr	r1, .L32+4
.LVL17:
	.loc 1 76 21 discriminator 1 view .LVU60
	ldr	r0, .L32+8
	movs	r3, #76
	bl	assert_print
.LVL18:
	.loc 1 76 158 is_stmt 1 discriminator 1 view .LVU61
	.loc 1 76 163 discriminator 1 view .LVU62
	.syntax unified
@ 76 "/home/g/mise-work/zmk-firmware/zmk/zephyr/subsys/bluetooth/controller/ll_sw/nordic/hal/nrf5/ticker.c" 1
	eors.n r0, r0
	msr BASEPRI, r0
	mov r0, #3
	svc #2
	
@ 0 "" 2
	.loc 1 76 161 discriminator 1 view .LVU63
	.loc 1 76 7 discriminator 1 view .LVU64
	.loc 1 77 4 discriminator 1 view .LVU65
	.loc 1 193 1 is_stmt 0 discriminator 1 view .LVU66
	.thumb
	.syntax unified
	pop	{r4, pc}
.LVL19:
.L16:
	.loc 1 82 3 is_stmt 1 view .LVU67
	cmp	r1, #3
	beq	.L30
	.loc 1 99 4 discriminator 1 view .LVU68
	.loc 1 99 9 discriminator 1 view .LVU69
	.loc 1 99 21 discriminator 1 view .LVU70
	ldr	r2, .L32
.LVL20:
	.loc 1 99 21 is_stmt 0 discriminator 1 view .LVU71
	ldr	r1, .L32+4
.LVL21:
	.loc 1 99 21 discriminator 1 view .LVU72
	ldr	r0, .L32+8
	movs	r3, #99
	bl	assert_print
.LVL22:
	.loc 1 99 158 is_stmt 1 discriminator 1 view .LVU73
	.loc 1 99 163 discriminator 1 view .LVU74
	.syntax unified
@ 99 "/home/g/mise-work/zmk-firmware/zmk/zephyr/subsys/bluetooth/controller/ll_sw/nordic/hal/nrf5/ticker.c" 1
	eors.n r0, r0
	msr BASEPRI, r0
	mov r0, #3
	svc #2
	
@ 0 "" 2
	.loc 1 99 161 discriminator 1 view .LVU75
	.loc 1 99 7 discriminator 1 view .LVU76
	.loc 1 100 4 discriminator 1 view .LVU77
	.loc 1 193 1 is_stmt 0 discriminator 1 view .LVU78
	.thumb
	.syntax unified
	pop	{r4, pc}
.LVL23:
.L15:
	.loc 1 105 3 is_stmt 1 view .LVU79
	cmp	r1, #4
	beq	.L31
	.loc 1 122 4 discriminator 1 view .LVU80
	.loc 1 122 9 discriminator 1 view .LVU81
	.loc 1 122 21 discriminator 1 view .LVU82
	ldr	r2, .L32
.LVL24:
	.loc 1 122 21 is_stmt 0 discriminator 1 view .LVU83
	ldr	r1, .L32+4
.LVL25:
	.loc 1 122 21 discriminator 1 view .LVU84
	ldr	r0, .L32+8
	movs	r3, #122
	bl	assert_print
.LVL26:
	.loc 1 122 159 is_stmt 1 discriminator 1 view .LVU85
	.loc 1 122 164 discriminator 1 view .LVU86
	.syntax unified
@ 122 "/home/g/mise-work/zmk-firmware/zmk/zephyr/subsys/bluetooth/controller/ll_sw/nordic/hal/nrf5/ticker.c" 1
	eors.n r0, r0
	msr BASEPRI, r0
	mov r0, #3
	svc #2
	
@ 0 "" 2
	.loc 1 122 162 discriminator 1 view .LVU87
	.loc 1 122 7 discriminator 1 view .LVU88
	.loc 1 123 4 discriminator 1 view .LVU89
	.loc 1 193 1 is_stmt 0 discriminator 1 view .LVU90
	.thumb
	.syntax unified
	pop	{r4, pc}
.LVL27:
.L14:
	.loc 1 128 3 is_stmt 1 view .LVU91
	cmp	r1, #3
	beq	.L22
	cmp	r1, #4
	beq	.L23
	.loc 1 160 4 discriminator 1 view .LVU92
	.loc 1 160 9 discriminator 1 view .LVU93
	.loc 1 160 21 discriminator 1 view .LVU94
	ldr	r2, .L32
.LVL28:
	.loc 1 160 21 is_stmt 0 discriminator 1 view .LVU95
	ldr	r1, .L32+4
.LVL29:
	.loc 1 160 21 discriminator 1 view .LVU96
	ldr	r0, .L32+8
	movs	r3, #160
	bl	assert_print
.LVL30:
	.loc 1 160 159 is_stmt 1 discriminator 1 view .LVU97
	.loc 1 160 164 discriminator 1 view .LVU98
	.syntax unified
@ 160 "/home/g/mise-work/zmk-firmware/zmk/zephyr/subsys/bluetooth/controller/ll_sw/nordic/hal/nrf5/ticker.c" 1
	eors.n r0, r0
	msr BASEPRI, r0
	mov r0, #3
	svc #2
	
@ 0 "" 2
	.loc 1 160 162 discriminator 1 view .LVU99
	.loc 1 160 7 discriminator 1 view .LVU100
	.loc 1 161 4 discriminator 1 view .LVU101
	.loc 1 193 1 is_stmt 0 discriminator 1 view .LVU102
	.thumb
	.syntax unified
	pop	{r4, pc}
.LVL31:
.L28:
.LBB2:
	.loc 1 169 4 is_stmt 1 view .LVU103
	.loc 1 170 4 view .LVU104
	.loc 1 173 4 view .LVU105
	.loc 1 173 12 is_stmt 0 view .LVU106
	ldr	r3, .L32+12
	str	r4, [r3, #8]
	.loc 1 176 4 is_stmt 1 view .LVU107
.LBE2:
	.loc 1 193 1 is_stmt 0 view .LVU108
	pop	{r4, lr}
	.cfi_remember_state
	.cfi_restore 14
	.cfi_restore 4
	.cfi_def_cfa_offset 0
.LVL32:
.LBB3:
	.loc 1 176 4 view .LVU109
	movs	r1, #2
.LVL33:
	.loc 1 176 4 view .LVU110
	movs	r0, #3
	b	mayfly_enqueue
.LVL34:
.L29:
	.cfi_restore_state
	.loc 1 176 4 view .LVU111
.LBE3:
.LBB4:
	.loc 1 61 4 is_stmt 1 view .LVU112
	.loc 1 62 4 view .LVU113
	.loc 1 65 4 view .LVU114
	.loc 1 65 12 is_stmt 0 view .LVU115
	ldr	r3, .L32+16
	str	r4, [r3, #8]
	.loc 1 68 4 is_stmt 1 view .LVU116
.LBE4:
	.loc 1 193 1 is_stmt 0 view .LVU117
	pop	{r4, lr}
	.cfi_remember_state
	.cfi_restore 14
	.cfi_restore 4
	.cfi_def_cfa_offset 0
.LVL35:
.LBB5:
	.loc 1 68 4 view .LVU118
	movs	r1, #2
.LVL36:
	.loc 1 68 4 view .LVU119
	movs	r0, #0
	b	mayfly_enqueue
.LVL37:
.L30:
	.cfi_restore_state
	.loc 1 68 4 view .LVU120
.LBE5:
.LBB6:
	.loc 1 85 4 is_stmt 1 view .LVU121
	.loc 1 86 4 view .LVU122
	.loc 1 89 4 view .LVU123
	.loc 1 89 12 is_stmt 0 view .LVU124
	ldr	r3, .L32+20
	.loc 1 91 4 view .LVU125
	movs	r1, #1
.LVL38:
	.loc 1 89 12 view .LVU126
	str	r4, [r3, #8]
	.loc 1 91 4 is_stmt 1 view .LVU127
.LBE6:
	.loc 1 193 1 is_stmt 0 view .LVU128
	pop	{r4, lr}
	.cfi_remember_state
	.cfi_restore 14
	.cfi_restore 4
	.cfi_def_cfa_offset 0
.LVL39:
.LBB7:
	.loc 1 91 4 view .LVU129
	mov	r0, r1
	b	mayfly_enqueue
.LVL40:
.L31:
	.cfi_restore_state
	.loc 1 91 4 view .LVU130
.LBE7:
.LBB8:
	.loc 1 108 4 is_stmt 1 view .LVU131
	.loc 1 109 4 view .LVU132
	.loc 1 112 4 view .LVU133
	.loc 1 112 12 is_stmt 0 view .LVU134
	ldr	r3, .L32+24
	str	r4, [r3, #8]
	.loc 1 114 4 is_stmt 1 view .LVU135
.LBE8:
	.loc 1 193 1 is_stmt 0 view .LVU136
	pop	{r4, lr}
	.cfi_remember_state
	.cfi_restore 14
	.cfi_restore 4
	.cfi_def_cfa_offset 0
.LVL41:
.LBB9:
	.loc 1 114 4 view .LVU137
	movs	r1, #2
.LVL42:
	.loc 1 114 4 view .LVU138
	movs	r0, #1
	b	mayfly_enqueue
.LVL43:
.L23:
	.cfi_restore_state
	.loc 1 114 4 view .LVU139
.LBE9:
.LBB10:
	.loc 1 146 4 is_stmt 1 view .LVU140
	.loc 1 147 4 view .LVU141
	.loc 1 150 4 view .LVU142
	.loc 1 150 12 is_stmt 0 view .LVU143
	ldr	r3, .L32+28
	.loc 1 152 4 view .LVU144
	movs	r1, #2
.LVL44:
	.loc 1 150 12 view .LVU145
	str	r4, [r3, #8]
	.loc 1 152 4 is_stmt 1 view .LVU146
.LBE10:
	.loc 1 193 1 is_stmt 0 view .LVU147
	pop	{r4, lr}
	.cfi_remember_state
	.cfi_restore 14
	.cfi_restore 4
	.cfi_def_cfa_offset 0
.LVL45:
.LBB11:
	.loc 1 152 4 view .LVU148
	mov	r0, r1
	b	mayfly_enqueue
.LVL46:
.L22:
	.cfi_restore_state
	.loc 1 152 4 view .LVU149
.LBE11:
.LBB12:
	.loc 1 131 4 is_stmt 1 view .LVU150
	.loc 1 132 4 view .LVU151
	.loc 1 135 4 view .LVU152
	.loc 1 135 12 is_stmt 0 view .LVU153
	ldr	r3, .L32+32
	str	r4, [r3, #8]
	.loc 1 137 4 is_stmt 1 view .LVU154
.LBE12:
	.loc 1 193 1 is_stmt 0 view .LVU155
	pop	{r4, lr}
	.cfi_remember_state
	.cfi_restore 14
	.cfi_restore 4
	.cfi_def_cfa_offset 0
.LVL47:
.LBB13:
	.loc 1 137 4 view .LVU156
	movs	r1, #1
.LVL48:
	.loc 1 137 4 view .LVU157
	movs	r0, #2
	b	mayfly_enqueue
.LVL49:
.L11:
	.cfi_restore_state
	.loc 1 137 4 view .LVU158
.LBE13:
	.loc 1 190 3 is_stmt 1 discriminator 1 view .LVU159
	.loc 1 190 8 discriminator 1 view .LVU160
	.loc 1 190 20 discriminator 1 view .LVU161
	ldr	r2, .L32
.LVL50:
	.loc 1 190 20 is_stmt 0 discriminator 1 view .LVU162
	ldr	r1, .L32+4
.LVL51:
	.loc 1 190 20 discriminator 1 view .LVU163
	ldr	r0, .L32+8
	movs	r3, #190
	bl	assert_print
.LVL52:
	.loc 1 190 158 is_stmt 1 discriminator 1 view .LVU164
	.loc 1 190 163 discriminator 1 view .LVU165
	.syntax unified
@ 190 "/home/g/mise-work/zmk-firmware/zmk/zephyr/subsys/bluetooth/controller/ll_sw/nordic/hal/nrf5/ticker.c" 1
	eors.n r0, r0
	msr BASEPRI, r0
	mov r0, #3
	svc #2
	
@ 0 "" 2
	.loc 1 190 161 discriminator 1 view .LVU166
	.loc 1 190 6 discriminator 1 view .LVU167
	.loc 1 191 3 discriminator 1 view .LVU168
	.loc 1 193 1 is_stmt 0 discriminator 1 view .LVU169
	.thumb
	.syntax unified
	pop	{r4, pc}
.LVL53:
.L33:
	.loc 1 193 1 discriminator 1 view .LVU170
	.align	2
.L32:
	.word	.LC0
	.word	.LC4
	.word	.LC2
	.word	m.6
	.word	m.11
	.word	m.10
	.word	m.9
	.word	m.7
	.word	m.8
	.cfi_endproc
.LFE446:
	.size	hal_ticker_instance0_sched, .-hal_ticker_instance0_sched
	.section	.text.hal_ticker_instance0_trigger_set,"ax",%progbits
	.align	1
	.p2align 2,,3
	.global	hal_ticker_instance0_trigger_set
	.syntax unified
	.thumb
	.thumb_func
	.type	hal_ticker_instance0_trigger_set, %function
hal_ticker_instance0_trigger_set:
.LVL54:
.LFB447:
	.loc 1 196 1 is_stmt 1 view -0
	.cfi_startproc
	@ args = 0, pretend = 0, frame = 0
	@ frame_needed = 0, uses_anonymous_args = 0
	@ link register save eliminated.
	.loc 1 197 2 view .LVU172
	.loc 1 196 1 is_stmt 0 view .LVU173
	mov	r1, r0
	.loc 1 197 2 view .LVU174
	movs	r0, #0
.LVL55:
	.loc 1 197 2 view .LVU175
	b	cntr_cmp_set
.LVL56:
	.loc 1 197 2 view .LVU176
	.cfi_endproc
.LFE447:
	.size	hal_ticker_instance0_trigger_set, .-hal_ticker_instance0_trigger_set
	.section	.bss.link.0,"aw",%nobits
	.align	2
	.type	link.0, %object
	.size	link.0, 8
link.0:
	.space	8
	.section	.bss.link.1,"aw",%nobits
	.align	2
	.type	link.1, %object
	.size	link.1, 8
link.1:
	.space	8
	.section	.bss.link.2,"aw",%nobits
	.align	2
	.type	link.2, %object
	.size	link.2, 8
link.2:
	.space	8
	.section	.bss.link.3,"aw",%nobits
	.align	2
	.type	link.3, %object
	.size	link.3, 8
link.3:
	.space	8
	.section	.bss.link.4,"aw",%nobits
	.align	2
	.type	link.4, %object
	.size	link.4, 8
link.4:
	.space	8
	.section	.bss.link.5,"aw",%nobits
	.align	2
	.type	link.5, %object
	.size	link.5, 8
link.5:
	.space	8
	.section	.data.m.6,"aw"
	.align	2
	.type	m.6, %object
	.size	m.6, 16
m.6:
	.byte	0
	.byte	0
	.space	2
	.word	link.5
	.word	0
	.word	ticker_job
	.section	.data.m.7,"aw"
	.align	2
	.type	m.7, %object
	.size	m.7, 16
m.7:
	.byte	0
	.byte	0
	.space	2
	.word	link.4
	.word	0
	.word	ticker_job
	.section	.data.m.8,"aw"
	.align	2
	.type	m.8, %object
	.size	m.8, 16
m.8:
	.byte	0
	.byte	0
	.space	2
	.word	link.3
	.word	0
	.word	ticker_worker
	.section	.data.m.9,"aw"
	.align	2
	.type	m.9, %object
	.size	m.9, 16
m.9:
	.byte	0
	.byte	0
	.space	2
	.word	link.2
	.word	0
	.word	ticker_job
	.section	.data.m.10,"aw"
	.align	2
	.type	m.10, %object
	.size	m.10, 16
m.10:
	.byte	0
	.byte	0
	.space	2
	.word	link.1
	.word	0
	.word	ticker_worker
	.section	.data.m.11,"aw"
	.align	2
	.type	m.11, %object
	.size	m.11, 16
m.11:
	.byte	0
	.byte	0
	.space	2
	.word	link.0
	.word	0
	.word	ticker_job
	.section	.rodata.caller_id_lut,"a"
	.align	2
	.type	caller_id_lut, %object
	.size	caller_id_lut, 4
caller_id_lut:
	.ascii	"\001\003\004\005"
	.text
.Letext0:
	.file 2 "/home/g/zephyr-sdk-0.16.3/arm-zephyr-eabi/picolibc/include/machine/_default_types.h"
	.file 3 "/home/g/zephyr-sdk-0.16.3/arm-zephyr-eabi/picolibc/include/sys/_stdint.h"
	.file 4 "/home/g/mise-work/zmk-firmware/zmk/zephyr/subsys/bluetooth/controller/./util/memq.h"
	.file 5 "/home/g/mise-work/zmk-firmware/zmk/zephyr/subsys/bluetooth/controller/./util/mayfly.h"
	.file 6 "/home/g/mise-work/zmk-firmware/zmk/zephyr/include/zephyr/fatal_types.h"
	.file 7 "/home/g/mise-work/zmk-firmware/zmk/zephyr/include/zephyr/kernel.h"
	.file 8 "/home/g/mise-work/zmk-firmware/zmk/zephyr/subsys/bluetooth/controller/./hal/cntr.h"
	.file 9 "/home/g/mise-work/zmk-firmware/zmk/zephyr/subsys/bluetooth/controller/./ticker/ticker.h"
	.file 10 "/home/g/mise-work/zmk-firmware/zmk/zephyr/include/zephyr/sys/__assert.h"