	.cpu cortex-m4
	.arch armv7e-m
	.fpu fpv4-sp-d16
	.eabi_attribute 27, 1
	.eabi_attribute 28, 1
	.eabi_attribute 20, 1
	.eabi_attribute 21, 1
	.eabi_attribute 23, 3
	.eabi_attribute 24, 1
	.eabi_attribute 25, 1
	.eabi_attribute 26, 1
	.eabi_attribute 30, 4
	.eabi_attribute 34, 1
	.eabi_attribute 38, 1
	.eabi_attribute 18, 4
	.file	"temp_nrf5.c"
	.text
.Ltext0:
	.cfi_sections	.debug_frame
	.file 1 "/home/g/mise-work/zmk-firmware/zmk/zephyr/drivers/sensor/nrf5/temp_nrf5.c"
	.section	.text.hfclk_on_callback,"ax",%progbits
	.align	1
	.syntax unified
	.thumb
	.thumb_func
	.type	hfclk_on_callback, %function
hfclk_on_callback:
.LVL0:
.LFB606:
	.loc 1 37 1 view -0
	.cfi_startproc
	@ args = 0, pretend = 0, frame = 0
	@ frame_needed = 0, uses_anonymous_args = 0
	@ link register save eliminated.
	.loc 1 38 2 view .LVU1
.LBB21:
.LBI21:
	.file 2 "/home/g/mise-work/zmk-firmware/zmk/modules/hal/nordic/nrfx/hal/nrf_temp.h"
	.loc 2 253 20 view .LVU2
.LBB22:
	.loc 2 255 5 view .LVU3
	.loc 2 255 63 is_stmt 0 view .LVU4
	ldr	r3, .L2
.LVL1:
	.loc 2 255 63 view .LVU5
	movs	r2, #1
.LVL2:
	.loc 2 255 63 view .LVU6
	str	r2, [r3]
.LVL3:
	.loc 2 255 63 view .LVU7
.LBE22:
.LBE21:
	.loc 1 39 1 view .LVU8
	bx	lr
.L3:
	.align	2
.L2:
	.word	1073790976
	.cfi_endproc
.LFE606:
	.size	hfclk_on_callback, .-hfclk_on_callback
	.section	.text.temp_nrf5_channel_get,"ax",%progbits
	.align	1
	.syntax unified
	.thumb
	.thumb_func
	.type	temp_nrf5_channel_get, %function
temp_nrf5_channel_get:
.LVL4:
.LFB608:
	.loc 1 80 1 is_stmt 1 view -0
	.cfi_startproc
	@ args = 0, pretend = 0, frame = 0
	@ frame_needed = 0, uses_anonymous_args = 0
	@ link register save eliminated.
	.loc 1 81 2 view .LVU10
	.loc 1 85 5 is_stmt 0 view .LVU11
	cmp	r1, #12
	.loc 1 81 25 view .LVU12
	ldr	r3, [r0, #16]
.LVL5:
	.loc 1 82 2 is_stmt 1 view .LVU13
	.loc 1 85 2 view .LVU14
	.loc 1 85 5 is_stmt 0 view .LVU15
	bne	.L6
	.loc 1 89 2 is_stmt 1 view .LVU16
	.loc 1 89 7 is_stmt 0 view .LVU17
	ldr	r3, [r3, #44]
.LVL6:
	.loc 1 89 7 view .LVU18
	ldr	r1, .L7
.LVL7:
	.loc 1 90 19 view .LVU19
	ldr	r0, .L7+4
.LVL8:
	.loc 1 89 7 view .LVU20
	muls	r3, r1, r3
.LVL9:
	.loc 1 90 2 is_stmt 1 view .LVU21
	.loc 1 90 19 is_stmt 0 view .LVU22
	sdiv	r1, r3, r0
	.loc 1 91 19 view .LVU23
	mls	r3, r0, r1, r3
.LVL10:
	.loc 1 90 12 view .LVU24
	str	r1, [r2]
.LVL11:
	.loc 1 91 2 is_stmt 1 view .LVU25
	.loc 1 91 12 is_stmt 0 view .LVU26
	str	r3, [r2, #4]
	.loc 1 93 2 is_stmt 1 view .LVU27
.LBB23:
	.loc 1 93 7 view .LVU28
.LBE23:
	.loc 1 93 5 view .LVU29
	.loc 1 95 2 view .LVU30
	.loc 1 95 9 is_stmt 0 view .LVU31
	movs	r0, #0
	bx	lr
.LVL12:
.L6:
	.loc 1 86 10 view .LVU32
	mvn	r0, #133
.LVL13:
	.loc 1 96 1 view .LVU33
	bx	lr
.L8:
	.align	2
.L7:
	.word	250000
	.word	1000000
	.cfi_endproc
.LFE608:
	.size	temp_nrf5_channel_get, .-temp_nrf5_channel_get
	.section	.text.temp_nrf5_isr,"ax",%progbits
	.align	1
	.syntax unified
	.thumb
	.thumb_func
	.type	temp_nrf5_isr, %function
temp_nrf5_isr:
.LVL14:
.LFB609:
	.loc 1 99 1 is_stmt 1 view -0
	.cfi_startproc
	@ args = 0, pretend = 0, frame = 0
	@ frame_needed = 0, uses_anonymous_args = 0
	@ link register save eliminated.
	.loc 1 100 2 view .LVU35
	.loc 1 101 2 view .LVU36
.LBB30:
.LBB31:
	.loc 2 266 66 is_stmt 0 view .LVU37
	ldr	r3, .L10
.LBE31:
.LBE30:
	.loc 1 101 25 view .LVU38
	ldr	r0, [r0, #16]
.LVL15:
	.loc 1 103 2 is_stmt 1 view .LVU39
.LBB35:
.LBI30:
	.loc 2 264 20 view .LVU40
.LBB34:
	.loc 2 266 5 view .LVU41
	.loc 2 266 66 is_stmt 0 view .LVU42
	movs	r2, #0
	str	r2, [r3, #256]
	.loc 2 267 5 is_stmt 1 view .LVU43
.LVL16:
.LBB32:
.LBI32:
	.file 3 "/home/g/mise-work/zmk-firmware/zmk/modules/hal/nordic/nrfx/hal/nrf_common.h"
	.loc 3 186 20 view .LVU44
.LBB33:
	.loc 3 189 5 view .LVU45
	ldr	r3, [r3, #256]
.LVL17:
	.loc 3 189 5 is_stmt 0 view .LVU46
.LBE33:
.LBE32:
.LBE34:
.LBE35:
	.loc 1 104 2 is_stmt 1 view .LVU47
.LBB36:
.LBI36:
	.file 4 "/home/g/mise-work/zmk-firmware/zmk/app/build/zephyr/include/generated/syscalls/kernel.h"
	.loc 4 1110 20 view .LVU48
.LBB37:
	.loc 4 1119 2 view .LVU49
	.loc 4 1119 7 view .LVU50
	.loc 4 1119 5 view .LVU51
	.loc 4 1120 2 view .LVU52
	b	z_impl_k_sem_give
.LVL18:
.L11:
	.loc 4 1120 2 is_stmt 0 view .LVU53
	.align	2
.L10:
	.word	1073790976
.LBE37:
.LBE36:
	.cfi_endproc
.LFE609:
	.size	temp_nrf5_isr, .-temp_nrf5_isr
	.section	.text.temp_nrf5_sample_fetch,"ax",%progbits
	.align	1
	.syntax unified
	.thumb
	.thumb_func
	.type	temp_nrf5_sample_fetch, %function
temp_nrf5_sample_fetch:
.LVL19:
.LFB607:
	.loc 1 43 1 is_stmt 1 view -0
	.cfi_startproc
	@ args = 0, pretend = 0, frame = 16
	@ frame_needed = 0, uses_anonymous_args = 0
	.loc 1 44 2 view .LVU55
	.loc 1 43 1 is_stmt 0 view .LVU56
	push	{r0, r1, r2, r3, r4, r5, r6, lr}
	.cfi_def_cfa_offset 32
	.cfi_offset 4, -16
	.cfi_offset 5, -12
	.cfi_offset 6, -8
	.cfi_offset 14, -4
	.loc 1 44 25 view .LVU57
	ldr	r5, [r0, #16]
.LVL20:
	.loc 1 45 2 is_stmt 1 view .LVU58
	.loc 1 46 2 view .LVU59
	.loc 1 49 2 view .LVU60
	.loc 1 49 5 is_stmt 0 view .LVU61
	ldr	r3, [r5, #48]
	cbz	r3, .L15
	.loc 1 53 2 is_stmt 1 view .LVU62
	.loc 1 53 5 is_stmt 0 view .LVU63
	cmp	r1, #58
	beq	.L14
	.loc 1 53 30 discriminator 1 view .LVU64
	cmp	r1, #12
	bne	.L16
.L14:
	.loc 1 57 2 is_stmt 1 view .LVU65
	add	r6, r5, #24
.LVL21:
.LBB54:
.LBI54:
	.loc 4 976 19 view .LVU66
.LBB55:
	.loc 4 985 2 view .LVU67
	.loc 4 985 7 view .LVU68
	.loc 4 985 5 view .LVU69
	.loc 4 986 2 view .LVU70
	.loc 4 986 9 is_stmt 0 view .LVU71
	mov	r2, #-1
	mov	r3, #-1
	mov	r0, r6
.LVL22:
	.loc 4 986 9 view .LVU72
	bl	z_impl_k_mutex_lock
.LVL23:
	.loc 4 986 9 view .LVU73
.LBE55:
.LBE54:
	.loc 1 59 2 is_stmt 1 view .LVU74
.LBB56:
.LBI56:
	.file 5 "/home/g/mise-work/zmk-firmware/zmk/zephyr/include/zephyr/sys/notify.h"
	.loc 5 321 20 view .LVU75
.LBB57:
	.loc 5 324 4 view .LVU76
	.loc 5 324 5 view .LVU77
	.loc 5 325 4 view .LVU78
	.loc 5 325 5 view .LVU79
	.loc 5 327 2 view .LVU80
	.loc 5 327 10 is_stmt 0 view .LVU81
	ldr	r3, .L20
	str	r3, [sp, #4]
.LBE57:
.LBE56:
	.loc 1 60 6 view .LVU82
	ldr	r0, [r5, #48]
.LBB60:
.LBB58:
	.loc 5 327 10 view .LVU83
	movs	r3, #3
	movs	r4, #0
.LBE58:
.LBE60:
	.loc 1 60 6 view .LVU84
	mov	r1, sp
.LBB61:
.LBB59:
	.loc 5 327 10 view .LVU85
	str	r4, [sp, #12]
	str	r3, [sp, #8]
.LVL24:
	.loc 5 327 10 view .LVU86
.LBE59:
.LBE61:
	.loc 1 60 2 is_stmt 1 view .LVU87
	.loc 1 60 6 is_stmt 0 view .LVU88
	bl	onoff_request
.LVL25:
	.loc 1 61 4 is_stmt 1 view .LVU89
	.loc 1 61 5 view .LVU90
	.loc 1 63 2 view .LVU91
.LBB62:
.LBI62:
	.loc 4 1093 19 view .LVU92
.LBB63:
	.loc 4 1102 2 view .LVU93
	.loc 4 1102 7 view .LVU94
	.loc 4 1102 5 view .LVU95
	.loc 4 1103 2 view .LVU96
	.loc 4 1103 9 is_stmt 0 view .LVU97
	mov	r2, #-1
	mov	r3, #-1
	mov	r0, r5
	bl	z_impl_k_sem_take
.LVL26:
	.loc 4 1103 9 view .LVU98
.LBE63:
.LBE62:
	.loc 1 65 2 is_stmt 1 view .LVU99
	.loc 1 65 6 is_stmt 0 view .LVU100
	ldr	r0, [r5, #48]
	bl	onoff_release
.LVL27:
	.loc 1 66 4 is_stmt 1 view .LVU101
	.loc 1 66 5 view .LVU102
	.loc 1 68 2 view .LVU103
.LBB64:
.LBI64:
	.loc 2 275 23 view .LVU104
.LBB65:
	.loc 2 277 5 view .LVU105
	.loc 2 277 13 is_stmt 0 view .LVU106
	ldr	r3, .L20+4
	ldr	r2, [r3, #1288]
.LVL28:
	.loc 2 287 5 is_stmt 1 view .LVU107
	.loc 2 287 5 is_stmt 0 view .LVU108
.LBE65:
.LBE64:
	.loc 1 68 15 view .LVU109
	str	r2, [r5, #44]
	.loc 1 69 2 is_stmt 1 view .LVU110
.LBB66:
	.loc 1 69 7 view .LVU111
.LBE66:
	.loc 1 69 5 view .LVU112
	.loc 1 70 2 view .LVU113
.LVL29:
.LBB67:
.LBI67:
	.loc 2 253 20 view .LVU114
.LBB68:
	.loc 2 255 5 view .LVU115
	.loc 2 255 63 is_stmt 0 view .LVU116
	movs	r2, #1
	str	r2, [r3, #4]
.LVL30:
	.loc 2 255 63 view .LVU117
.LBE68:
.LBE67:
	.loc 1 72 2 is_stmt 1 view .LVU118
.LBB69:
.LBI69:
	.loc 4 993 19 view .LVU119
.LBB70:
	.loc 4 1001 2 view .LVU120
	.loc 4 1001 7 view .LVU121
	.loc 4 1001 5 view .LVU122
	.loc 4 1002 2 view .LVU123
	.loc 4 1002 9 is_stmt 0 view .LVU124
	mov	r0, r6
	bl	z_impl_k_mutex_unlock
.LVL31:
.LBE70:
.LBE69:
	.loc 1 74 9 view .LVU125
	mov	r0, r4
.LVL32:
.L12:
	.loc 1 75 1 view .LVU126
	add	sp, sp, #16
	.cfi_remember_state
	.cfi_def_cfa_offset 16
	@ sp needed
	pop	{r4, r5, r6, pc}
.LVL33:
.L15:
	.cfi_restore_state
	.loc 1 50 10 view .LVU127
	mvn	r0, #10
.LVL34:
	.loc 1 50 10 view .LVU128
	b	.L12
.LVL35:
.L16:
	.loc 1 54 10 view .LVU129
	mvn	r0, #133
.LVL36:
	.loc 1 54 10 view .LVU130
	b	.L12
.L21:
	.align	2
.L20:
	.word	hfclk_on_callback
	.word	1073790976
	.cfi_endproc
.LFE607:
	.size	temp_nrf5_sample_fetch, .-temp_nrf5_sample_fetch
	.section	.text.temp_nrf5_init,"ax",%progbits
	.align	1
	.syntax unified
	.thumb
	.thumb_func
	.type	temp_nrf5_init, %function
temp_nrf5_init:
.LVL37:
.LFB610:
	.loc 1 113 1 is_stmt 1 view -0
	.cfi_startproc
	@ args = 0, pretend = 0, frame = 0
	@ frame_needed = 0, uses_anonymous_args = 0
	.loc 1 114 2 view .LVU132
	.loc 1 113 1 is_stmt 0 view .LVU133
	push	{r4, lr}
	.cfi_def_cfa_offset 8
	.cfi_offset 4, -8
	.cfi_offset 14, -4
	.loc 1 114 25 view .LVU134
	ldr	r4, [r0, #16]
.LVL38:
	.loc 1 117 2 is_stmt 1 view .LVU135
	.loc 1 118 3 is_stmt 0 view .LVU136
	movs	r0, #0
.LVL39:
	.loc 1 118 3 view .LVU137
	bl	z_nrf_clock_control_get_onoff
.LVL40:
	.loc 1 117 16 view .LVU138
	str	r0, [r4, #48]
	.loc 1 119 4 is_stmt 1 view .LVU139
	.loc 1 119 5 view .LVU140
	.loc 1 121 2 view .LVU141
.LVL41:
.LBB78:
.LBI78:
	.loc 4 1075 19 view .LVU142
.LBB79:
	.loc 4 1085 2 view .LVU143
	.loc 4 1085 7 view .LVU144
	.loc 4 1085 5 view .LVU145
	.loc 4 1086 2 view .LVU146
	.loc 4 1086 9 is_stmt 0 view .LVU147
	mov	r2, #-1
	movs	r1, #0
	mov	r0, r4
	bl	z_impl_k_sem_init
.LVL42:
	.loc 4 1086 9 view .LVU148
.LBE79:
.LBE78:
	.loc 1 122 2 is_stmt 1 view .LVU149
.LBB80:
.LBI80:
	.loc 4 960 19 view .LVU150
.LBB81:
	.loc 4 968 2 view .LVU151
	.loc 4 968 7 view .LVU152
	.loc 4 968 5 view .LVU153
	.loc 4 969 2 view .LVU154
	.loc 4 969 9 is_stmt 0 view .LVU155
	add	r0, r4, #24
.LVL43:
	.loc 4 969 9 view .LVU156
	bl	z_impl_k_mutex_init
.LVL44:
	.loc 4 969 9 view .LVU157
.LBE81:
.LBE80:
.LBB82:
	.loc 1 124 4 is_stmt 1 view .LVU158
	.loc 1 124 101 view .LVU159
	.loc 1 124 278 view .LVU160
	.loc 1 124 101 view .LVU161
	movs	r2, #0
	movs	r1, #1
	movs	r0, #12
	bl	z_arm_irq_priority_set
.LVL45:
.LBE82:
	.loc 1 129 5 view .LVU162
	.loc 1 130 2 view .LVU163
	movs	r0, #12
	bl	arch_irq_enable
.LVL46:
	.loc 1 132 2 view .LVU164
.LBB83:
.LBI83:
	.loc 2 232 20 view .LVU165
.LBB84:
	.loc 2 234 5 view .LVU166
	.loc 2 234 21 is_stmt 0 view .LVU167
	ldr	r3, .L23
	movs	r2, #1
	str	r2, [r3, #772]
.LVL47:
	.loc 2 234 21 view .LVU168
.LBE84:
.LBE83:
	.loc 1 134 2 is_stmt 1 view .LVU169
	.loc 1 135 1 is_stmt 0 view .LVU170
	movs	r0, #0
	pop	{r4, pc}
.LVL48:
.L24:
	.loc 1 135 1 view .LVU171
	.align	2
.L23:
	.word	1073790976
	.cfi_endproc
.LFE610:
	.size	temp_nrf5_init, .-temp_nrf5_init
	.section	.z_init_POST_KERNEL90_00117_,"a"
	.align	2
	.type	__init___device_dts_ord_117, %object
	.size	__init___device_dts_ord_117, 8
__init___device_dts_ord_117:
	.word	temp_nrf5_init
	.word	__device_dts_ord_117
	.global	__device_dts_ord_117
	.section	.rodata.str1.1,"aMS",%progbits,1
.LC0:
	.ascii	"temp@4000c000\000"
	.section	._device.static.3_90_,"a"
	.align	2
	.type	__device_dts_ord_117, %object
	.size	__device_dts_ord_117, 24
__device_dts_ord_117:
	.word	.LC0
	.word	0
	.word	temp_nrf5_driver_api
	.word	__devstate_dts_ord_117
	.word	temp_nrf5_data_0
	.word	0
	.section	.z_devstate,"aw"
	.type	__devstate_dts_ord_117, %object
	.size	__devstate_dts_ord_117, 2
__devstate_dts_ord_117:
	.space	2
	.section	.bss.temp_nrf5_data_0,"aw",%nobits
	.align	2
	.type	temp_nrf5_data_0, %object
	.size	temp_nrf5_data_0, 52
temp_nrf5_data_0:
	.space	52
	.section	.intList,"aw"
	.align	2
	.type	__isr_temp_nrf5_isr_irq_0.0, %object
	.size	__isr_temp_nrf5_isr_irq_0.0, 16
__isr_temp_nrf5_isr_irq_0.0:
	.word	12
	.word	0
	.word	temp_nrf5_isr
	.word	__device_dts_ord_117
	.section	.rodata.temp_nrf5_driver_api,"a"
	.align	2
	.type	temp_nrf5_driver_api, %object
	.size	temp_nrf5_driver_api, 28
temp_nrf5_driver_api:
	.space	12
	.word	temp_nrf5_sample_fetch
	.word	temp_nrf5_channel_get
	.space	8
	.global	log_const_temp_nrf5
	.section	.rodata.str1.1
.LC1:
	.ascii	"temp_nrf5\000"
	.section	._log_const.static.log_const_temp_nrf5_,"a"
	.align	2
	.type	log_const_temp_nrf5, %object
	.size	log_const_temp_nrf5, 8
log_const_temp_nrf5:
	.word	.LC1
	.byte	3
	.space	3
	.text
.Letext0:
	.file 6 "/home/g/zephyr-sdk-0.16.3/arm-zephyr-eabi/picolibc/include/machine/_default_types.h"
	.file 7 "/home/g/zephyr-sdk-0.16.3/arm-zephyr-eabi/picolibc/include/sys/_stdint.h"
	.file 8 "/home/g/zephyr-sdk-0.16.3/arm-zephyr-eabi/lib/gcc/arm-zephyr-eabi/12.2.0/include/stddef.h"
	.file 9 "/home/g/mise-work/zmk-firmware/zmk/zephyr/include/zephyr/init.h"
	.file 10 "/home/g/mise-work/zmk-firmware/zmk/zephyr/include/zephyr/device.h"
	.file 11 "/home/g/mise-work/zmk-firmware/zmk/zephyr/include/zephyr/sys/dlist.h"
	.file 12 "/home/g/mise-work/zmk-firmware/zmk/zephyr/include/zephyr/sys/atomic.h"
	.file 13 "/home/g/mise-work/zmk-firmware/zmk/zephyr/include/zephyr/sys/rb.h"
	.file 14 "/home/g/mise-work/zmk-firmware/zmk/zephyr/include/zephyr/sys/slist.h"
	.file 15 "/home/g/mise-work/zmk-firmware/zmk/zephyr/include/zephyr/sys/sys_heap.h"
	.file 16 "/home/g/mise-work/zmk-firmware/zmk/zephyr/include/zephyr/kernel/thread.h"
	.file 17 "/home/g/mise-work/zmk-firmware/zmk/zephyr/include/zephyr/kernel_structs.h"
	.file 18 "/home/g/mise-work/zmk-firmware/zmk/zephyr/include/zephyr/arch/arm/thread.h"
	.file 19 "/home/g/mise-work/zmk-firmware/zmk/zephyr/include/zephyr/sw_isr_table.h"
	.file 20 "/home/g/mise-work/zmk-firmware/zmk/modules/hal/nordic/nrfx/mdk/nrf52840.h"
	.file 21 "/home/g/mise-work/zmk-firmware/zmk/zephyr/include/zephyr/sys_clock.h"
	.file 22 "/home/g/mise-work/zmk-firmware/zmk/zephyr/include/zephyr/kernel.h"
	.file 23 "/home/g/mise-work/zmk-firmware/zmk/zephyr/include/zephyr/fatal_types.h"
	.file 24 "/home/g/mise-work/zmk-firmware/zmk/zephyr/include/zephyr/rtio/rtio_mpsc.h"
	.file 25 "/home/g/mise-work/zmk-firmware/zmk/zephyr/include/zephyr/rtio/rtio.h"
	.file 26 "/home/g/mise-work/zmk-firmware/zmk/zephyr/include/zephyr/drivers/sensor.h"
	.file 27 "/home/g/mise-work/zmk-firmware/zmk/zephyr/include/zephyr/drivers/clock_control.h"
	.file 28 "/home/g/mise-work/zmk-firmware/zmk/zephyr/include/zephyr/sys/onoff.h"
	.file 29 "/home/g/mise-work/zmk-firmware/zmk/zephyr/include/zephyr/drivers/clock_control/nrf_clock_control.h"
	.file 30 "/home/g/mise-work/zmk-firmware/zmk/zephyr/include/zephyr/logging/log_instance.h"
	.file 31 "/home/g/mise-work/zmk-firmware/zmk/zephyr/include/zephyr/sys/cbprintf.h"
	.file 32 "/home/g/mise-work/zmk-firmware/zmk/zephyr/include/zephyr/logging/log_msg.h"
	.file 33 "/home/g/mise-work/zmk-firmware/zmk/zephyr/include/zephyr/arch/arm/irq.h"
	.file 34 "/home/g/mise-work/zmk-firmware/zmk/zephyr/include/zephyr/spinlock.h"