	.cpu cortex-m4
	.arch armv7e-m
	.fpu fpv4-sp-d16
	.eabi_attribute 27, 1
	.eabi_attribute 28, 1
	.eabi_attribute 20, 1
	.eabi_attribute 21, 1
	.eabi_attribute 23, 3
	.eabi_attribute 24, 1
	.eabi_attribute 25, 1
	.eabi_attribute 26, 1
	.eabi_attribute 30, 4
	.eabi_attribute 34, 1
	.eabi_attribute 38, 1
	.eabi_attribute 18, 4
	.file	"buf.c"
	.text
.Ltext0:
	.cfi_sections	.debug_frame
	.file 1 "/home/g/mise-work/zmk-firmware/zmk/zephyr/subsys/net/buf.c"
	.section	.text.generic_data_ref,"ax",%progbits
	.align	1
	.syntax unified
	.thumb
	.thumb_func
	.type	generic_data_ref, %function
generic_data_ref:
.LVL0:
.LFB562:
	.loc 1 97 1 view -0
	.cfi_startproc
	@ args = 0, pretend = 0, frame = 0
	@ frame_needed = 0, uses_anonymous_args = 0
	@ link register save eliminated.
	.loc 1 98 2 view .LVU1
	.loc 1 100 2 view .LVU2
	.loc 1 101 2 view .LVU3
	.loc 1 101 14 is_stmt 0 view .LVU4
	ldrb	r3, [r1, #-4]	@ zero_extendqisi2
	adds	r3, r3, #1
	.loc 1 97 1 view .LVU5
	mov	r0, r1
.LVL1:
	.loc 1 101 14 view .LVU6
	strb	r3, [r1, #-4]
	.loc 1 103 2 is_stmt 1 view .LVU7
	.loc 1 104 1 is_stmt 0 view .LVU8
	bx	lr
	.cfi_endproc
.LFE562:
	.size	generic_data_ref, .-generic_data_ref
	.section	.text.fixed_data_unref,"ax",%progbits
	.align	1
	.syntax unified
	.thumb
	.thumb_func
	.type	fixed_data_unref, %function
fixed_data_unref:
.LVL2:
.LFB566:
	.loc 1 160 1 is_stmt 1 view -0
	.cfi_startproc
	@ args = 0, pretend = 0, frame = 0
	@ frame_needed = 0, uses_anonymous_args = 0
	@ link register save eliminated.
	.loc 1 162 1 view .LVU10
	bx	lr
	.cfi_endproc
.LFE566:
	.size	fixed_data_unref, .-fixed_data_unref
	.section	.text.mem_pool_data_unref,"ax",%progbits
	.align	1
	.syntax unified
	.thumb
	.thumb_func
	.type	mem_pool_data_unref, %function
mem_pool_data_unref:
.LVL3:
.LFB564:
	.loc 1 128 1 view -0
	.cfi_startproc
	@ args = 0, pretend = 0, frame = 0
	@ frame_needed = 0, uses_anonymous_args = 0
	@ link register save eliminated.
	.loc 1 129 2 view .LVU12
.LBB162:
.LBI162:
	.loc 1 48 22 view .LVU13
	.loc 1 50 2 view .LVU14
	.loc 1 52 2 view .LVU15
	.loc 1 52 7 view .LVU16
	.loc 1 52 62 view .LVU17
	.loc 1 52 5 view .LVU18
	.loc 1 54 2 view .LVU19
	.loc 1 54 2 is_stmt 0 view .LVU20
.LBE162:
	.loc 1 130 2 is_stmt 1 view .LVU21
	.loc 1 129 34 is_stmt 0 view .LVU22
	ldrb	r2, [r0, #10]	@ zero_extendqisi2
	.loc 1 130 32 view .LVU23
	ldr	r3, .L5
	movs	r0, #44
.LVL4:
	.loc 1 130 32 view .LVU24
	mla	r3, r0, r2, r3
	.loc 1 130 17 view .LVU25
	ldr	r3, [r3, #36]
	ldr	r0, [r3, #4]
.LVL5:
	.loc 1 131 2 is_stmt 1 view .LVU26
	.loc 1 133 2 view .LVU27
	.loc 1 134 2 view .LVU28
	.loc 1 134 6 is_stmt 0 view .LVU29
	ldrb	r3, [r1, #-4]	@ zero_extendqisi2
	subs	r3, r3, #1
	uxtb	r3, r3
	.loc 1 134 5 view .LVU30
	strb	r3, [r1, #-4]
.LVL6:
	.loc 1 134 5 view .LVU31
	cbnz	r3, .L3
	.loc 1 139 2 is_stmt 1 view .LVU32
	subs	r1, r1, #4
.LVL7:
	.loc 1 139 2 is_stmt 0 view .LVU33
	b	k_heap_free
.LVL8:
.L3:
	.loc 1 140 1 view .LVU34
	bx	lr
.L6:
	.align	2
.L5:
	.word	_net_buf_pool_list_start
	.cfi_endproc
.LFE564:
	.size	mem_pool_data_unref, .-mem_pool_data_unref
	.section	.text.mem_pool_data_alloc,"ax",%progbits
	.align	1
	.syntax unified
	.thumb
	.thumb_func
	.type	mem_pool_data_alloc, %function
mem_pool_data_alloc:
.LVL9:
.LFB563:
	.loc 1 108 1 is_stmt 1 view -0
	.cfi_startproc
	@ args = 0, pretend = 0, frame = 0
	@ frame_needed = 0, uses_anonymous_args = 0
	.loc 1 109 2 view .LVU36
.LBB163:
.LBI163:
	.loc 1 48 22 view .LVU37
	.loc 1 50 2 view .LVU38
	.loc 1 52 2 view .LVU39
	.loc 1 52 7 view .LVU40
	.loc 1 52 62 view .LVU41
	.loc 1 52 5 view .LVU42
	.loc 1 54 2 view .LVU43
	.loc 1 54 2 is_stmt 0 view .LVU44
.LBE163:
	.loc 1 110 2 is_stmt 1 view .LVU45
	.loc 1 111 2 view .LVU46
	.loc 1 114 2 view .LVU47
	.loc 1 108 1 is_stmt 0 view .LVU48
	push	{r3, r4, r5, lr}
	.cfi_def_cfa_offset 16
	.cfi_offset 3, -16
	.cfi_offset 4, -12
	.cfi_offset 5, -8
	.cfi_offset 14, -4
	.loc 1 109 34 view .LVU49
	ldrb	r4, [r0, #10]	@ zero_extendqisi2
	.loc 1 110 32 view .LVU50
	ldr	r0, .L12
.LVL10:
	.loc 1 114 12 view .LVU51
	ldr	r1, [r1]
.LVL11:
	.loc 1 110 32 view .LVU52
	movs	r5, #44
	mla	r0, r5, r4, r0
	.loc 1 114 12 view .LVU53
	adds	r1, r1, #4
	.loc 1 110 17 view .LVU54
	ldr	r0, [r0, #36]
	.loc 1 114 12 view .LVU55
	ldr	r0, [r0, #4]
	bl	k_heap_alloc
.LVL12:
	.loc 1 116 2 is_stmt 1 view .LVU56
	.loc 1 116 5 is_stmt 0 view .LVU57
	cbz	r0, .L7
	.loc 1 120 2 is_stmt 1 view .LVU58
.LVL13:
	.loc 1 121 2 view .LVU59
	.loc 1 121 13 is_stmt 0 view .LVU60
	movs	r3, #1
	strb	r3, [r0], #4
.LVL14:
	.loc 1 124 2 is_stmt 1 view .LVU61
.L7:
	.loc 1 125 1 is_stmt 0 view .LVU62
	pop	{r3, r4, r5, pc}
.L13:
	.align	2
.L12:
	.word	_net_buf_pool_list_start
	.cfi_endproc
.LFE563:
	.size	mem_pool_data_alloc, .-mem_pool_data_alloc
	.section	.text.net_buf_pool_get,"ax",%progbits
	.align	1
	.global	net_buf_pool_get
	.syntax unified
	.thumb
	.thumb_func
	.type	net_buf_pool_get, %function
net_buf_pool_get:
.LVL15:
.LFB557:
	.loc 1 49 1 is_stmt 1 view -0
	.cfi_startproc
	@ args = 0, pretend = 0, frame = 0
	@ frame_needed = 0, uses_anonymous_args = 0
	@ link register save eliminated.
	.loc 1 50 2 view .LVU64
	.loc 1 52 2 view .LVU65
.LBB164:
	.loc 1 52 7 view .LVU66
	.loc 1 52 62 view .LVU67
	.loc 1 52 62 is_stmt 0 view .LVU68
.LBE164:
	.loc 1 52 5 is_stmt 1 view .LVU69
	.loc 1 54 2 view .LVU70
	.loc 1 55 1 is_stmt 0 view .LVU71
	ldr	r3, .L15
	movs	r2, #44
	mla	r0, r2, r0, r3
.LVL16:
	.loc 1 55 1 view .LVU72
	bx	lr
.L16:
	.align	2
.L15:
	.word	_net_buf_pool_list_start
	.cfi_endproc
.LFE557:
	.size	net_buf_pool_get, .-net_buf_pool_get
	.section	.text.net_buf_id,"ax",%progbits
	.align	1
	.global	net_buf_id
	.syntax unified
	.thumb
	.thumb_func
	.type	net_buf_id, %function
net_buf_id:
.LVL17:
.LFB559:
	.loc 1 63 1 is_stmt 1 view -0
	.cfi_startproc
	@ args = 0, pretend = 0, frame = 0
	@ frame_needed = 0, uses_anonymous_args = 0
	@ link register save eliminated.
	.loc 1 64 2 view .LVU74
	.loc 1 64 30 is_stmt 0 view .LVU75
	ldrb	r2, [r0, #10]	@ zero_extendqisi2
.LVL18:
.LBB165:
.LBI165:
	.loc 1 48 22 is_stmt 1 view .LVU76
	.loc 1 50 2 view .LVU77
	.loc 1 52 2 view .LVU78
	.loc 1 52 7 view .LVU79
	.loc 1 52 62 view .LVU80
	.loc 1 52 5 view .LVU81
	.loc 1 54 2 view .LVU82
	.loc 1 54 2 is_stmt 0 view .LVU83
.LBE165:
	.loc 1 65 2 is_stmt 1 view .LVU84
	.loc 1 67 2 view .LVU85
	.loc 1 69 2 view .LVU86
	.loc 1 67 53 is_stmt 0 view .LVU87
	ldr	r3, .L18
	movs	r1, #44
	mla	r3, r1, r2, r3
.LVL19:
	.loc 1 67 12 view .LVU88
	ldr	r2, [r3, #40]
.LVL20:
	.loc 1 65 89 view .LVU89
	ldrb	r3, [r3, #28]	@ zero_extendqisi2
.LVL21:
	.loc 1 65 89 view .LVU90
	adds	r3, r3, #27
	.loc 1 67 12 view .LVU91
	subs	r0, r0, r2
.LVL22:
	.loc 1 65 9 view .LVU92
	bic	r3, r3, #3
	.loc 1 70 1 view .LVU93
	udiv	r0, r0, r3
	bx	lr
.L19:
	.align	2
.L18:
	.word	_net_buf_pool_list_start
	.cfi_endproc
.LFE559:
	.size	net_buf_id, .-net_buf_id
	.section	.text.fixed_data_alloc,"ax",%progbits
	.align	1
	.syntax unified
	.thumb
	.thumb_func
	.type	fixed_data_alloc, %function
fixed_data_alloc:
.LVL23:
.LFB565:
	.loc 1 150 1 is_stmt 1 view -0
	.cfi_startproc
	@ args = 0, pretend = 0, frame = 0
	@ frame_needed = 0, uses_anonymous_args = 0
	.loc 1 151 2 view .LVU95
.LBB166:
.LBI166:
	.loc 1 48 22 view .LVU96
	.loc 1 50 2 view .LVU97
	.loc 1 52 2 view .LVU98
	.loc 1 52 7 view .LVU99
	.loc 1 52 62 view .LVU100
	.loc 1 52 5 view .LVU101
	.loc 1 54 2 view .LVU102
	.loc 1 54 2 is_stmt 0 view .LVU103
.LBE166:
	.loc 1 152 2 is_stmt 1 view .LVU104
	.loc 1 150 1 is_stmt 0 view .LVU105
	push	{r3, r4, r5, lr}
	.cfi_def_cfa_offset 16
	.cfi_offset 3, -16
	.cfi_offset 4, -12
	.cfi_offset 5, -8
	.cfi_offset 14, -4
	.loc 1 152 47 view .LVU106
	ldr	r3, .L21
	.loc 1 151 30 view .LVU107
	ldrb	r2, [r0, #10]	@ zero_extendqisi2
.LVL24:
	.loc 1 152 47 view .LVU108
	movs	r4, #44
	mla	r3, r4, r2, r3
	.loc 1 154 63 view .LVU109
	ldr	r4, [r1]
	.loc 1 152 35 view .LVU110
	ldr	r3, [r3, #36]
	ldr	r3, [r3, #4]
.LVL25:
	.loc 1 154 2 is_stmt 1 view .LVU111
	.loc 1 154 63 is_stmt 0 view .LVU112
	ldr	r2, [r3]
	.loc 1 154 8 view .LVU113
	cmp	r4, r2
	ite	ls
	strls	r4, [r1]
	strhi	r2, [r1]
.LVL26:
	.loc 1 156 2 is_stmt 1 view .LVU114
	.loc 1 156 33 is_stmt 0 view .LVU115
	ldrd	r5, r4, [r3]
	.loc 1 156 47 view .LVU116
	bl	net_buf_id
.LVL27:
	.loc 1 157 1 view .LVU117
	mla	r0, r5, r0, r4
	pop	{r3, r4, r5, pc}
.L22:
	.align	2
.L21:
	.word	_net_buf_pool_list_start
	.cfi_endproc
.LFE565:
	.size	fixed_data_alloc, .-fixed_data_alloc
	.section	.text.net_buf_reset,"ax",%progbits
	.align	1
	.global	net_buf_reset
	.syntax unified
	.thumb
	.thumb_func
	.type	net_buf_reset, %function
net_buf_reset:
.LVL28:
.LFB561:
	.loc 1 89 1 is_stmt 1 view -0
	.cfi_startproc
	@ args = 0, pretend = 0, frame = 0
	@ frame_needed = 0, uses_anonymous_args = 0
	@ link register save eliminated.
	.loc 1 90 4 view .LVU119
	.loc 1 90 5 view .LVU120
	.loc 1 91 4 view .LVU121
	.loc 1 91 5 view .LVU122
	.loc 1 93 2 view .LVU123
.LBB167:
.LBI167:
	.file 2 "/home/g/mise-work/zmk-firmware/zmk/zephyr/include/zephyr/net/buf.h"
	.loc 2 166 20 view .LVU124
.LBB168:
	.loc 2 168 2 view .LVU125
	.loc 2 168 11 is_stmt 0 view .LVU126
	movs	r3, #0
	strh	r3, [r0, #16]	@ movhi
	.loc 2 169 2 is_stmt 1 view .LVU127
	.loc 2 169 12 is_stmt 0 view .LVU128
	ldr	r3, [r0, #20]
	str	r3, [r0, #12]
.LVL29:
	.loc 2 169 12 view .LVU129
.LBE168:
.LBE167:
	.loc 1 94 1 view .LVU130
	bx	lr
	.cfi_endproc
.LFE561:
	.size	net_buf_reset, .-net_buf_reset
	.section	.text.net_buf_alloc_len,"ax",%progbits
	.align	1
	.global	net_buf_alloc_len
	.syntax unified
	.thumb
	.thumb_func
	.type	net_buf_alloc_len, %function
net_buf_alloc_len:
.LVL30:
.LFB570:
	.loc 1 243 1 is_stmt 1 view -0
	.cfi_startproc
	@ args = 0, pretend = 0, frame = 16
	@ frame_needed = 0, uses_anonymous_args = 0
	.loc 1 244 2 view .LVU132
	.loc 1 243 1 is_stmt 0 view .LVU133
	push	{r4, r5, r6, r7, r8, r9, lr}
	.cfi_def_cfa_offset 28
	.cfi_offset 4, -28
	.cfi_offset 5, -24
	.cfi_offset 6, -20
	.cfi_offset 7, -16
	.cfi_offset 8, -12
	.cfi_offset 9, -8
	.cfi_offset 14, -4
	sub	sp, sp, #20
	.cfi_def_cfa_offset 48
	.loc 1 243 1 view .LVU134
	mov	r5, r0
	.loc 1 244 22 view .LVU135
	mov	r0, sp
.LVL31:
	.loc 1 243 1 view .LVU136
	str	r1, [sp, #12]
	mov	r8, r2
.LVL32:
	.loc 1 243 1 view .LVU137
	mov	r4, r3
	.loc 1 244 22 view .LVU138
	bl	sys_timepoint_calc
.LVL33:
	.loc 1 244 22 view .LVU139
	ldrd	r6, [sp]
.LVL34:
	.loc 1 245 2 is_stmt 1 view .LVU140
	.loc 1 246 2 view .LVU141
	.loc 1 248 4 view .LVU142
	.loc 1 248 5 view .LVU143
	.loc 1 250 2 view .LVU144
	.loc 1 255 2 view .LVU145
.LBB203:
.LBI203:
	.file 3 "/home/g/mise-work/zmk-firmware/zmk/zephyr/include/zephyr/spinlock.h"
	.loc 3 160 63 view .LVU146
.LBB204:
	.loc 3 162 2 view .LVU147
	.loc 3 163 2 view .LVU148
	.loc 3 169 2 view .LVU149
.LBB205:
.LBI205:
	.file 4 "/home/g/mise-work/zmk-firmware/zmk/zephyr/include/zephyr/arch/arm/asm_inline_gcc.h"
	.loc 4 42 59 view .LVU150
.LBB206:
	.loc 4 44 2 view .LVU151
	.loc 4 57 2 view .LVU152
	.loc 4 59 2 view .LVU153
	.syntax unified
@ 59 "/home/g/mise-work/zmk-firmware/zmk/zephyr/include/zephyr/arch/arm/asm_inline_gcc.h" 1
	mov r3, #32;mrs r9, BASEPRI;msr BASEPRI_MAX, r3;isb;
@ 0 "" 2
.LVL35:
	.loc 4 88 2 view .LVU154
	.loc 4 88 2 is_stmt 0 view .LVU155
	.thumb
	.syntax unified
.LBE206:
.LBE205:
	.loc 3 171 2 is_stmt 1 view .LVU156
	.loc 3 177 2 view .LVU157
	.loc 3 179 2 view .LVU158
	.loc 3 179 2 is_stmt 0 view .LVU159
.LBE204:
.LBE203:
	.loc 1 260 2 is_stmt 1 view .LVU160
	.loc 1 260 10 is_stmt 0 view .LVU161
	ldrh	r3, [r5, #26]
	.loc 1 260 5 view .LVU162
	cmp	r3, #0
	beq	.L25
.LBB207:
	.loc 1 261 3 is_stmt 1 view .LVU163
	.loc 1 267 3 view .LVU164
	.loc 1 267 6 is_stmt 0 view .LVU165
	ldrh	r2, [r5, #24]
	cmp	r2, r3
	bls	.L26
	.loc 1 268 4 is_stmt 1 view .LVU166
.LBB208:
	.loc 1 268 13 view .LVU167
	.loc 1 268 18 view .LVU168
	.loc 1 268 16 view .LVU169
	.loc 1 268 12 view .LVU170
.LVL36:
.LBB209:
.LBI209:
	.file 5 "/home/g/mise-work/zmk-firmware/zmk/app/build/zephyr/include/generated/syscalls/kernel.h"
	.loc 5 684 22 view .LVU171
.LBB210:
	.loc 5 693 2 view .LVU172
	.loc 5 693 7 view .LVU173
	.loc 5 693 5 view .LVU174
	.loc 5 694 2 view .LVU175
	.loc 5 694 9 is_stmt 0 view .LVU176
	movs	r2, #0
	movs	r3, #0
	mov	r0, r5
	bl	z_impl_k_queue_get
.LVL37:
	.loc 5 694 9 view .LVU177
.LBE210:
.LBE209:
	.loc 1 268 85 is_stmt 1 view .LVU178
	.loc 1 268 90 view .LVU179
	.loc 1 268 88 view .LVU180
	.loc 1 268 12 view .LVU181
	.loc 1 268 12 is_stmt 0 view .LVU182
.LBE208:
	.loc 1 269 4 is_stmt 1 view .LVU183
	.loc 1 269 7 is_stmt 0 view .LVU184
	mov	r4, r0
	cbz	r0, .L26
	.loc 1 270 5 is_stmt 1 view .LVU185
.LVL38:
.LBB211:
.LBI211:
	.loc 3 235 51 view .LVU186
	.loc 3 238 2 view .LVU187
	.loc 3 261 2 view .LVU188
.LBB212:
.LBI212:
	.loc 4 96 51 view .LVU189
.LBB213:
	.loc 4 107 2 view .LVU190
	.syntax unified
@ 107 "/home/g/mise-work/zmk-firmware/zmk/zephyr/include/zephyr/arch/arm/asm_inline_gcc.h" 1
	msr BASEPRI, r9;isb;
@ 0 "" 2
.LVL39:
	.loc 4 107 2 is_stmt 0 view .LVU191
	.thumb
	.syntax unified
.LBE213:
.LBE212:
.LBE211:
	.loc 1 271 5 is_stmt 1 view .LVU192
.L27:
	.loc 1 271 5 is_stmt 0 view .LVU193
.LBE207:
	.loc 1 319 2 is_stmt 1 view .LVU194
	.loc 1 321 2 view .LVU195
	.loc 1 321 5 is_stmt 0 view .LVU196
	ldr	r3, [sp, #12]
	cmp	r3, #0
	beq	.L29
	.loc 1 325 3 is_stmt 1 view .LVU197
	.loc 1 325 13 is_stmt 0 view .LVU198
	mov	r2, r6
.LVL40:
	.loc 1 325 13 view .LVU199
	mov	r3, r7
	mov	r0, sp
	bl	sys_timepoint_timeout
.LVL41:
	.loc 1 326 3 is_stmt 1 view .LVU200
.LBB221:
.LBI221:
	.loc 1 210 17 view .LVU201
.LBB222:
	.loc 1 212 2 view .LVU202
.LBB223:
.LBI223:
	.loc 1 48 22 view .LVU203
	.loc 1 50 2 view .LVU204
	.loc 1 52 2 view .LVU205
	.loc 1 52 7 view .LVU206
	.loc 1 52 62 view .LVU207
	.loc 1 52 5 view .LVU208
	.loc 1 54 2 view .LVU209
	.loc 1 54 2 is_stmt 0 view .LVU210
.LBE223:
	.loc 1 214 2 is_stmt 1 view .LVU211
	.loc 1 214 13 is_stmt 0 view .LVU212
	ldr	r5, .L38
.LVL42:
	.loc 1 212 30 view .LVU213
	ldrb	r3, [r4, #10]	@ zero_extendqisi2
	.loc 1 214 13 view .LVU214
	movs	r6, #44
.LVL43:
	.loc 1 214 13 view .LVU215
	mla	r3, r6, r3, r5
	.loc 1 214 9 view .LVU216
	add	r1, sp, #12
.LVL44:
	.loc 1 214 20 view .LVU217
	ldr	r3, [r3, #36]
	.loc 1 214 24 view .LVU218
	ldr	r3, [r3]
	.loc 1 214 9 view .LVU219
	mov	r0, r4
	ldr	r7, [r3]
	.loc 1 214 9 view .LVU220
	ldrd	r2, [sp]
	blx	r7
.LVL45:
	.loc 1 214 9 view .LVU221
.LBE222:
.LBE221:
	.loc 1 326 14 view .LVU222
	str	r0, [r4, #20]
	.loc 1 327 3 is_stmt 1 view .LVU223
	.loc 1 327 6 is_stmt 0 view .LVU224
	cmp	r0, #0
	bne	.L30
	.loc 1 329 20 is_stmt 1 view .LVU225
	.loc 1 330 4 view .LVU226
.LVL46:
.LBB224:
.LBI224:
	.loc 2 1357 20 view .LVU227
.LBB225:
	.loc 2 1359 2 view .LVU228
	.loc 2 1361 2 view .LVU229
.LBB226:
	.loc 2 1361 5 view .LVU230
	.loc 2 1361 10 view .LVU231
	.loc 2 1361 8 view .LVU232
	.loc 2 1361 4 view .LVU233
	ldrb	r0, [r4, #10]	@ zero_extendqisi2
.LVL47:
	.loc 2 1361 4 is_stmt 0 view .LVU234
	mov	r1, r4
	mla	r0, r0, r6, r5
.LVL48:
	.loc 2 1361 4 view .LVU235
	bl	k_queue_prepend
.LVL49:
	.loc 2 1361 50 is_stmt 1 view .LVU236
	.loc 2 1361 55 view .LVU237
	.loc 2 1361 53 view .LVU238
.LBE226:
	.loc 2 1362 1 is_stmt 0 view .LVU239
	b	.L28
.LVL50:
.L26:
	.loc 2 1362 1 view .LVU240
.LBE225:
.LBE224:
.LBB227:
	.loc 1 275 3 is_stmt 1 view .LVU241
	.loc 1 275 22 is_stmt 0 view .LVU242
	ldrh	r1, [r5, #26]
	.loc 1 275 36 view .LVU243
	subs	r3, r1, #1
	strh	r3, [r5, #26]	@ movhi
.LVL51:
	.loc 1 276 3 is_stmt 1 view .LVU244
.LBB214:
.LBI214:
	.loc 3 235 51 view .LVU245
	.loc 3 238 2 view .LVU246
	.loc 3 261 2 view .LVU247
.LBB215:
.LBI215:
	.loc 4 96 51 view .LVU248
.LBB216:
	.loc 4 107 2 view .LVU249
	.syntax unified
@ 107 "/home/g/mise-work/zmk-firmware/zmk/zephyr/include/zephyr/arch/arm/asm_inline_gcc.h" 1
	msr BASEPRI, r9;isb;
@ 0 "" 2
.LVL52:
	.loc 4 107 2 is_stmt 0 view .LVU250
	.thumb
	.syntax unified
.LBE216:
.LBE215:
.LBE214:
	.loc 1 278 3 is_stmt 1 view .LVU251
.LBB217:
.LBI217:
	.loc 1 72 31 view .LVU252
.LBB218:
	.loc 1 75 2 view .LVU253
	.loc 1 77 2 view .LVU254
	.loc 1 78 2 view .LVU255
	.loc 1 80 2 view .LVU256
	.loc 1 75 89 is_stmt 0 view .LVU257
	ldrb	r3, [r5, #28]	@ zero_extendqisi2
	.loc 1 77 28 view .LVU258
	ldrh	r2, [r5, #24]
	.loc 1 80 6 view .LVU259
	ldr	r4, [r5, #40]
	.loc 1 75 89 view .LVU260
	adds	r3, r3, #27
	.loc 1 75 9 view .LVU261
	bic	r3, r3, #3
	.loc 1 77 40 view .LVU262
	subs	r2, r2, r1
	.loc 1 80 6 view .LVU263
	mla	r4, r2, r3, r4
.LVL53:
	.loc 1 82 2 is_stmt 1 view .LVU264
.LBB219:
.LBI219:
	.loc 1 57 12 view .LVU265
.LBB220:
	.loc 1 59 2 view .LVU266
	.loc 1 59 14 is_stmt 0 view .LVU267
	ldr	r3, .L38
	ldr	r2, .L38+4
	subs	r3, r5, r3
	asrs	r3, r3, #2
	muls	r3, r2, r3
.LBE220:
.LBE219:
	.loc 1 82 15 view .LVU268
	strb	r3, [r4, #10]
.LVL54:
	.loc 1 83 2 is_stmt 1 view .LVU269
	.loc 1 83 28 is_stmt 0 view .LVU270
	ldrb	r3, [r5, #28]	@ zero_extendqisi2
	.loc 1 83 22 view .LVU271
	strb	r3, [r4, #11]
	.loc 1 85 2 is_stmt 1 view .LVU272
.LVL55:
	.loc 1 85 2 is_stmt 0 view .LVU273
.LBE218:
.LBE217:
	.loc 1 279 3 is_stmt 1 view .LVU274
	b	.L27
.LVL56:
.L25:
	.loc 1 279 3 is_stmt 0 view .LVU275
.LBE227:
	.loc 1 282 2 is_stmt 1 view .LVU276
.LBB228:
.LBI228:
	.loc 3 235 51 view .LVU277
	.loc 3 238 2 view .LVU278
	.loc 3 261 2 view .LVU279
.LBB229:
.LBI229:
	.loc 4 96 51 view .LVU280
.LBB230:
	.loc 4 107 2 view .LVU281
	.syntax unified
@ 107 "/home/g/mise-work/zmk-firmware/zmk/zephyr/include/zephyr/arch/arm/asm_inline_gcc.h" 1
	msr BASEPRI, r9;isb;
@ 0 "" 2
.LVL57:
	.loc 4 107 2 is_stmt 0 view .LVU282
	.thumb
	.syntax unified
.LBE230:
.LBE229:
.LBE228:
	.loc 1 311 2 is_stmt 1 view .LVU283
.LBB231:
	.loc 1 311 11 view .LVU284
	.loc 1 311 16 view .LVU285
	.loc 1 311 14 view .LVU286
	.loc 1 311 10 view .LVU287
.LBB232:
.LBI232:
	.loc 5 684 22 view .LVU288
.LBB233:
	.loc 5 693 2 view .LVU289
	.loc 5 693 7 view .LVU290
	.loc 5 693 5 view .LVU291
	.loc 5 694 2 view .LVU292
	.loc 5 694 9 is_stmt 0 view .LVU293
	mov	r3, r4
.LVL58:
	.loc 5 694 9 view .LVU294
	mov	r2, r8
	mov	r0, r5
	bl	z_impl_k_queue_get
.LVL59:
	.loc 5 694 9 view .LVU295
.LBE233:
.LBE232:
	.loc 1 311 71 is_stmt 1 view .LVU296
	.loc 1 311 76 view .LVU297
	.loc 1 311 74 view .LVU298
	.loc 1 311 10 view .LVU299
	.loc 1 311 10 is_stmt 0 view .LVU300
.LBE231:
	.loc 1 313 2 is_stmt 1 view .LVU301
	.loc 1 313 5 is_stmt 0 view .LVU302
	mov	r4, r0
.LVL60:
	.loc 1 313 5 view .LVU303
	cmp	r0, #0
	bne	.L27
.LVL61:
.L28:
	.loc 1 315 9 view .LVU304
	movs	r4, #0
.LVL62:
.L31:
	.loc 1 352 1 view .LVU305
	mov	r0, r4
	add	sp, sp, #20
	.cfi_remember_state
	.cfi_def_cfa_offset 28
	@ sp needed
	pop	{r4, r5, r6, r7, r8, r9, pc}
.LVL63:
.L29:
	.cfi_restore_state
	.loc 1 338 3 is_stmt 1 view .LVU306
	.loc 1 338 14 is_stmt 0 view .LVU307
	str	r3, [r4, #20]
.LVL64:
.L30:
	.loc 1 341 2 is_stmt 1 view .LVU308
	.loc 1 342 2 view .LVU309
	.loc 1 343 2 view .LVU310
	.loc 1 343 13 is_stmt 0 view .LVU311
	movs	r3, #0
	.loc 1 341 11 view .LVU312
	movs	r2, #1
	.loc 1 343 13 view .LVU313
	str	r3, [r4, #4]
	.loc 1 341 11 view .LVU314
	strh	r2, [r4, #8]	@ movhi
	.loc 1 344 2 is_stmt 1 view .LVU315
.LBB234:
.LBB235:
.LBB236:
	.loc 2 168 11 is_stmt 0 view .LVU316
	strh	r3, [r4, #16]	@ movhi
.LBE236:
.LBE235:
.LBE234:
	.loc 1 344 12 view .LVU317
	ldr	r2, [sp, #12]
.LBB241:
.LBB239:
.LBB237:
	.loc 2 169 12 view .LVU318
	ldr	r3, [r4, #20]
.LBE237:
.LBE239:
.LBE241:
	.loc 1 344 12 view .LVU319
	strh	r2, [r4, #18]	@ movhi
	.loc 1 345 2 is_stmt 1 view .LVU320
.LVL65:
.LBB242:
.LBI234:
	.loc 1 88 6 view .LVU321
	.loc 1 90 4 view .LVU322
	.loc 1 90 5 view .LVU323
	.loc 1 91 4 view .LVU324
	.loc 1 91 5 view .LVU325
	.loc 1 93 2 view .LVU326
.LBB240:
.LBI235:
	.loc 2 166 20 view .LVU327
.LBB238:
	.loc 2 168 2 view .LVU328
	.loc 2 169 2 view .LVU329
	.loc 2 169 12 is_stmt 0 view .LVU330
	str	r3, [r4, #12]
.LVL66:
	.loc 2 169 12 view .LVU331
.LBE238:
.LBE240:
.LBE242:
	.loc 1 351 2 is_stmt 1 view .LVU332
	.loc 1 351 9 is_stmt 0 view .LVU333
	b	.L31
.L39:
	.align	2
.L38:
	.word	_net_buf_pool_list_start
	.word	-1171354717
	.cfi_endproc
.LFE570:
	.size	net_buf_alloc_len, .-net_buf_alloc_len
	.section	.text.net_buf_alloc_fixed,"ax",%progbits
	.align	1
	.global	net_buf_alloc_fixed
	.syntax unified
	.thumb
	.thumb_func
	.type	net_buf_alloc_fixed, %function
net_buf_alloc_fixed:
.LVL67:
.LFB571:
	.loc 1 367 1 is_stmt 1 view -0
	.cfi_startproc
	@ args = 0, pretend = 0, frame = 0
	@ frame_needed = 0, uses_anonymous_args = 0
	@ link register save eliminated.
	.loc 1 368 2 view .LVU335
	.loc 1 370 2 view .LVU336
	.loc 1 368 35 is_stmt 0 view .LVU337
	ldr	r1, [r0, #36]
	.loc 1 370 38 view .LVU338
	ldr	r1, [r1, #4]
	.loc 1 370 9 view .LVU339
	ldr	r1, [r1]
	b	net_buf_alloc_len
.LVL68:
	.loc 1 370 9 view .LVU340
	.cfi_endproc
.LFE571:
	.size	net_buf_alloc_fixed, .-net_buf_alloc_fixed
	.section	.text.net_buf_alloc_with_data,"ax",%progbits
	.align	1
	.global	net_buf_alloc_with_data
	.syntax unified
	.thumb
	.thumb_func
	.type	net_buf_alloc_with_data, %function
net_buf_alloc_with_data:
.LVL69:
.LFB572:
	.loc 1 384 1 is_stmt 1 view -0
	.cfi_startproc
	@ args = 8, pretend = 0, frame = 0
	@ frame_needed = 0, uses_anonymous_args = 0
	.loc 1 385 2 view .LVU342
	.loc 1 390 2 view .LVU343
	.loc 1 384 1 is_stmt 0 view .LVU344
	push	{r4, r5, r6, lr}
	.cfi_def_cfa_offset 16
	.cfi_offset 4, -16
	.cfi_offset 5, -12
	.cfi_offset 6, -8
	.cfi_offset 14, -4
	.loc 1 384 1 view .LVU345
	mov	r5, r1
	mov	r6, r2
	.loc 1 390 8 view .LVU346
	movs	r1, #0
.LVL70:
	.loc 1 390 8 view .LVU347
	ldrd	r2, [sp, #16]
.LVL71:
	.loc 1 390 8 view .LVU348
	bl	net_buf_alloc_len
.LVL72:
	.loc 1 392 2 is_stmt 1 view .LVU349
	.loc 1 392 5 is_stmt 0 view .LVU350
	mov	r4, r0
	cbz	r0, .L41
	.loc 1 396 2 is_stmt 1 view .LVU351
	mov	r2, r6
	mov	r1, r5
	adds	r0, r0, #12
.LVL73:
	.loc 1 396 2 is_stmt 0 view .LVU352
	bl	net_buf_simple_init_with_data
.LVL74:
	.loc 1 397 2 is_stmt 1 view .LVU353
	.loc 1 397 13 is_stmt 0 view .LVU354
	movs	r3, #1
	strb	r3, [r4, #9]
	.loc 1 399 2 is_stmt 1 view .LVU355
.L41:
	.loc 1 400 1 is_stmt 0 view .LVU356
	mov	r0, r4
	pop	{r4, r5, r6, pc}
	.loc 1 400 1 view .LVU357
	.cfi_endproc
.LFE572:
	.size	net_buf_alloc_with_data, .-net_buf_alloc_with_data
	.section	.text.net_buf_get,"ax",%progbits
	.align	1
	.global	net_buf_get
	.syntax unified
	.thumb
	.thumb_func
	.type	net_buf_get, %function
net_buf_get:
.LVL75:
.LFB573:
	.loc 1 408 1 is_stmt 1 view -0
	.cfi_startproc
	@ args = 0, pretend = 0, frame = 0
	@ frame_needed = 0, uses_anonymous_args = 0
	@ link register save eliminated.
	.loc 1 409 2 view .LVU359
	.loc 1 411 2 view .LVU360
	.loc 1 413 2 view .LVU361
.LBB246:
	.loc 1 413 11 view .LVU362
	.loc 1 413 16 view .LVU363
	.loc 1 413 14 view .LVU364
	.loc 1 413 10 view .LVU365
.LBB247:
.LBI247:
	.loc 5 684 22 view .LVU366
.LBB248:
	.loc 5 693 2 view .LVU367
	.loc 5 693 7 view .LVU368
	.loc 5 693 5 view .LVU369
	.loc 5 694 2 view .LVU370
	.loc 5 694 9 is_stmt 0 view .LVU371
	b	z_impl_k_queue_get
.LVL76:
	.loc 5 694 9 view .LVU372
.LBE248:
.LBE247:
.LBE246:
	.cfi_endproc
.LFE573:
	.size	net_buf_get, .-net_buf_get
	.section	.text.net_buf_slist_put,"ax",%progbits
	.align	1
	.global	net_buf_slist_put
	.syntax unified
	.thumb
	.thumb_func
	.type	net_buf_slist_put, %function
net_buf_slist_put:
.LVL77:
.LFB574:
	.loc 1 426 1 is_stmt 1 view -0
	.cfi_startproc
	@ args = 0, pretend = 0, frame = 0
	@ frame_needed = 0, uses_anonymous_args = 0
	@ link register save eliminated.
	.loc 1 427 2 view .LVU374
	.loc 1 429 4 view .LVU375
	.loc 1 429 5 view .LVU376
	.loc 1 430 4 view .LVU377
	.loc 1 430 5 view .LVU378
	.loc 1 432 2 view .LVU379
.LBB270:
.LBI270:
	.loc 3 160 63 view .LVU380
.LBB271:
	.loc 3 162 2 view .LVU381
	.loc 3 163 2 view .LVU382
	.loc 3 169 2 view .LVU383
.LBB272:
.LBI272:
	.loc 4 42 59 view .LVU384
.LBB273:
	.loc 4 44 2 view .LVU385
	.loc 4 57 2 view .LVU386
	.loc 4 59 2 view .LVU387
	.syntax unified
@ 59 "/home/g/mise-work/zmk-firmware/zmk/zephyr/include/zephyr/arch/arm/asm_inline_gcc.h" 1
	mov r3, #32;mrs r2, BASEPRI;msr BASEPRI_MAX, r3;isb;
@ 0 "" 2
.LVL78:
	.loc 4 88 2 view .LVU388
	.loc 4 88 2 is_stmt 0 view .LVU389
	.thumb
	.syntax unified
.LBE273:
.LBE272:
	.loc 3 171 2 is_stmt 1 view .LVU390
	.loc 3 177 2 view .LVU391
	.loc 3 179 2 view .LVU392
	.loc 3 179 2 is_stmt 0 view .LVU393
.LBE271:
.LBE270:
	.loc 1 433 2 is_stmt 1 view .LVU394
.LBB274:
.LBI274:
	.file 6 "/home/g/mise-work/zmk-firmware/zmk/zephyr/include/zephyr/sys/slist.h"
	.loc 6 318 20 view .LVU395
.LBB275:
	.loc 6 318 77 view .LVU396
.LBB276:
.LBI276:
	.loc 6 216 20 view .LVU397
.LBB277:
	.loc 6 218 2 view .LVU398
	.loc 6 218 15 is_stmt 0 view .LVU399
	movs	r3, #0
	str	r3, [r1]
.LVL79:
	.loc 6 218 15 view .LVU400
.LBE277:
.LBE276:
	.loc 6 318 4 is_stmt 1 view .LVU401
.LBB278:
.LBI278:
	.loc 6 250 28 view .LVU402
.LBB279:
	.loc 6 252 2 view .LVU403
	.loc 6 252 13 is_stmt 0 view .LVU404
	ldr	r3, [r0, #4]
.LVL80:
	.loc 6 252 13 view .LVU405
.LBE279:
.LBE278:
	.loc 6 318 7 view .LVU406
	cbnz	r3, .L48
	.loc 6 318 5 is_stmt 1 view .LVU407
.LVL81:
.LBB280:
.LBI280:
	.loc 6 226 20 view .LVU408
.LBB281:
	.loc 6 228 2 view .LVU409
.LBE281:
.LBE280:
.LBB282:
.LBB283:
	.loc 6 223 13 is_stmt 0 view .LVU410
	strd	r1, r1, [r0]
.LVL82:
.L49:
	.loc 6 223 13 view .LVU411
.LBE283:
.LBE282:
.LBE275:
.LBE274:
	.loc 1 434 2 is_stmt 1 view .LVU412
.LBB289:
.LBI289:
	.loc 3 235 51 view .LVU413
	.loc 3 238 2 view .LVU414
	.loc 3 261 2 view .LVU415
.LBB290:
.LBI290:
	.loc 4 96 51 view .LVU416
.LBB291:
	.loc 4 107 2 view .LVU417
	.syntax unified
@ 107 "/home/g/mise-work/zmk-firmware/zmk/zephyr/include/zephyr/arch/arm/asm_inline_gcc.h" 1
	msr BASEPRI, r2;isb;
@ 0 "" 2
.LVL83:
	.loc 4 107 2 is_stmt 0 view .LVU418
	.thumb
	.syntax unified
.LBE291:
.LBE290:
.LBE289:
	.loc 1 435 1 view .LVU419
	bx	lr
.LVL84:
.L48:
.LBB292:
.LBB288:
	.loc 6 318 74 is_stmt 1 view .LVU420
.LBB284:
.LBI284:
	.loc 6 216 20 view .LVU421
.LBB285:
	.loc 6 218 2 view .LVU422
	.loc 6 218 15 is_stmt 0 view .LVU423
	str	r1, [r3]
.LVL85:
	.loc 6 218 15 view .LVU424
.LBE285:
.LBE284:
	.loc 6 318 126 is_stmt 1 view .LVU425
.LBB286:
.LBI286:
	.loc 6 226 20 view .LVU426
.LBB287:
	.loc 6 228 2 view .LVU427
	.loc 6 228 13 is_stmt 0 view .LVU428
	str	r1, [r0, #4]
	.loc 6 229 1 view .LVU429
	b	.L49
.LBE287:
.LBE286:
.LBE288:
.LBE292:
	.cfi_endproc
.LFE574:
	.size	net_buf_slist_put, .-net_buf_slist_put
	.section	.text.net_buf_slist_get,"ax",%progbits
	.align	1
	.global	net_buf_slist_get
	.syntax unified
	.thumb
	.thumb_func
	.type	net_buf_slist_get, %function
net_buf_slist_get:
.LVL86:
.LFB575:
	.loc 1 438 1 is_stmt 1 view -0
	.cfi_startproc
	@ args = 0, pretend = 0, frame = 0
	@ frame_needed = 0, uses_anonymous_args = 0
	.loc 1 439 2 view .LVU431
	.loc 1 440 2 view .LVU432
	.loc 1 442 4 view .LVU433
	.loc 1 442 5 view .LVU434
	.loc 1 444 2 view .LVU435
.LBB317:
.LBI317:
	.loc 3 160 63 view .LVU436
.LBB318:
	.loc 3 162 2 view .LVU437
	.loc 3 163 2 view .LVU438
	.loc 3 169 2 view .LVU439
.LBB319:
.LBI319:
	.loc 4 42 59 view .LVU440
.LBB320:
	.loc 4 44 2 view .LVU441
	.loc 4 57 2 view .LVU442
	.loc 4 59 2 view .LVU443
.LBE320:
.LBE319:
.LBE318:
.LBE317:
	.loc 1 438 1 is_stmt 0 view .LVU444
	push	{r4, lr}
	.cfi_def_cfa_offset 8
	.cfi_offset 4, -8
	.cfi_offset 14, -4
	.loc 1 438 1 view .LVU445
	mov	r3, r0
.LBB324:
.LBB323:
.LBB322:
.LBB321:
	.loc 4 59 2 view .LVU446
	.syntax unified
@ 59 "/home/g/mise-work/zmk-firmware/zmk/zephyr/include/zephyr/arch/arm/asm_inline_gcc.h" 1
	mov r2, #32;mrs r1, BASEPRI;msr BASEPRI_MAX, r2;isb;
@ 0 "" 2
.LVL87:
	.loc 4 88 2 is_stmt 1 view .LVU447
	.loc 4 88 2 is_stmt 0 view .LVU448
	.thumb
	.syntax unified
.LBE321:
.LBE322:
	.loc 3 171 2 is_stmt 1 view .LVU449
	.loc 3 177 2 view .LVU450
	.loc 3 179 2 view .LVU451
	.loc 3 179 2 is_stmt 0 view .LVU452
.LBE323:
.LBE324:
	.loc 1 446 2 is_stmt 1 view .LVU453
.LBB325:
.LBI325:
	.loc 6 392 29 view .LVU454
.LBB326:
	.loc 6 392 64 view .LVU455
.LBB327:
.LBI327:
	.loc 6 268 1 view .LVU456
	.loc 6 268 41 view .LVU457
.LBB328:
.LBI328:
	.loc 6 238 28 view .LVU458
.LBB329:
	.loc 6 240 2 view .LVU459
	.loc 6 240 13 is_stmt 0 view .LVU460
	ldr	r0, [r0]
.LVL88:
	.loc 6 240 13 view .LVU461
.LBE329:
.LBE328:
.LBE327:
	.loc 6 392 1 view .LVU462
	cbz	r0, .L51
.LVL89:
.LBB330:
.LBI330:
	.loc 6 379 29 is_stmt 1 view .LVU463
.LBB331:
	.loc 6 379 74 view .LVU464
	.loc 6 379 121 view .LVU465
.LBB332:
.LBI332:
	.loc 6 211 28 view .LVU466
.LBB333:
	.loc 6 213 2 view .LVU467
.LBE333:
.LBE332:
	.loc 6 379 173 is_stmt 0 view .LVU468
	ldr	r4, [r3, #4]
.LBB335:
.LBB334:
	.loc 6 213 13 view .LVU469
	ldr	r2, [r0]
.LVL90:
	.loc 6 213 13 view .LVU470
.LBE334:
.LBE335:
.LBB336:
.LBI336:
	.loc 6 221 20 is_stmt 1 view .LVU471
.LBB337:
	.loc 6 223 2 view .LVU472
	.loc 6 223 13 is_stmt 0 view .LVU473
	str	r2, [r3]
.LVL91:
	.loc 6 223 13 view .LVU474
.LBE337:
.LBE336:
	.loc 6 379 170 is_stmt 1 view .LVU475
.LBB338:
.LBI338:
	.loc 6 250 28 view .LVU476
.LBB339:
	.loc 6 252 2 view .LVU477
	.loc 6 252 2 is_stmt 0 view .LVU478
.LBE339:
.LBE338:
	.loc 6 379 173 view .LVU479
	cmp	r0, r4
	.loc 6 379 211 is_stmt 1 view .LVU480
.LVL92:
.LBB340:
.LBI340:
	.loc 6 226 20 view .LVU481
.LBB341:
	.loc 6 228 2 view .LVU482
	.loc 6 228 13 is_stmt 0 view .LVU483
	it	eq
	streq	r2, [r3, #4]
.LVL93:
.L51:
	.loc 6 228 13 view .LVU484
.LBE341:
.LBE340:
.LBE331:
.LBE330:
.LBE326:
.LBE325:
	.loc 1 448 2 is_stmt 1 view .LVU485
.LBB342:
.LBI342:
	.loc 3 235 51 view .LVU486
	.loc 3 238 2 view .LVU487
	.loc 3 261 2 view .LVU488
.LBB343:
.LBI343:
	.loc 4 96 51 view .LVU489
.LBB344:
	.loc 4 107 2 view .LVU490
	.syntax unified
@ 107 "/home/g/mise-work/zmk-firmware/zmk/zephyr/include/zephyr/arch/arm/asm_inline_gcc.h" 1
	msr BASEPRI, r1;isb;
@ 0 "" 2
.LVL94:
	.loc 4 107 2 is_stmt 0 view .LVU491
	.thumb
	.syntax unified
.LBE344:
.LBE343:
.LBE342:
	.loc 1 450 2 is_stmt 1 view .LVU492
	.loc 1 451 1 is_stmt 0 view .LVU493
	pop	{r4, pc}
	.cfi_endproc
.LFE575:
	.size	net_buf_slist_get, .-net_buf_slist_get
	.section	.text.net_buf_put,"ax",%progbits
	.align	1
	.global	net_buf_put
	.syntax unified
	.thumb
	.thumb_func
	.type	net_buf_put, %function
net_buf_put:
.LVL95:
.LFB576:
	.loc 1 454 1 is_stmt 1 view -0
	.cfi_startproc
	@ args = 0, pretend = 0, frame = 0
	@ frame_needed = 0, uses_anonymous_args = 0
	@ link register save eliminated.
	.loc 1 455 4 view .LVU495
	.loc 1 455 5 view .LVU496
	.loc 1 456 4 view .LVU497
	.loc 1 456 5 view .LVU498
	.loc 1 458 2 view .LVU499
.LBB345:
	.loc 1 458 5 view .LVU500
	.loc 1 458 10 view .LVU501
	.loc 1 458 8 view .LVU502
	.loc 1 458 4 view .LVU503
	b	k_queue_append
.LVL96:
	.loc 1 458 4 is_stmt 0 view .LVU504
.LBE345:
	.cfi_endproc
.LFE576:
	.size	net_buf_put, .-net_buf_put
	.section	.text.net_buf_unref,"ax",%progbits
	.align	1
	.global	net_buf_unref
	.syntax unified
	.thumb
	.thumb_func
	.type	net_buf_unref, %function
net_buf_unref:
.LVL97:
.LFB577:
	.loc 1 466 1 is_stmt 1 view -0
	.cfi_startproc
	@ args = 0, pretend = 0, frame = 0
	@ frame_needed = 0, uses_anonymous_args = 0
	.loc 1 467 4 view .LVU506
	.loc 1 467 5 view .LVU507
	.loc 1 469 2 view .LVU508
	.loc 1 466 1 is_stmt 0 view .LVU509
	push	{r4, r5, r6, r7, r8, lr}
	.cfi_def_cfa_offset 24
	.cfi_offset 4, -24
	.cfi_offset 5, -20
	.cfi_offset 6, -16
	.cfi_offset 7, -12
	.cfi_offset 8, -8
	.cfi_offset 14, -4
	ldr	r5, .L69
	.loc 1 466 1 view .LVU510
	mov	r4, r0
.LBB355:
	.loc 1 489 15 view .LVU511
	movs	r6, #0
.LBB356:
.LBB357:
	.loc 1 232 6 view .LVU512
	movs	r7, #44
.LVL98:
.L58:
	.loc 1 232 6 view .LVU513
.LBE357:
.LBE356:
.LBE355:
	.loc 1 469 9 is_stmt 1 view .LVU514
	cbnz	r4, .L64
.L57:
	.loc 1 510 1 is_stmt 0 view .LVU515
	pop	{r4, r5, r6, r7, r8, pc}
.LVL99:
.L64:
.LBB365:
	.loc 1 470 3 is_stmt 1 view .LVU516
	.loc 1 483 7 is_stmt 0 view .LVU517
	ldrb	r3, [r4, #8]	@ zero_extendqisi2
	.loc 1 470 19 view .LVU518
	ldr	r8, [r4, #4]
.LVL100:
	.loc 1 471 3 is_stmt 1 view .LVU519
	.loc 1 481 33 view .LVU520
	.loc 1 483 3 view .LVU521
	.loc 1 483 7 is_stmt 0 view .LVU522
	subs	r3, r3, #1
	uxtb	r3, r3
	.loc 1 483 6 view .LVU523
	strb	r3, [r4, #8]
	cmp	r3, #0
	bne	.L57
	.loc 1 487 3 is_stmt 1 view .LVU524
	.loc 1 487 10 is_stmt 0 view .LVU525
	ldr	r1, [r4, #20]
	.loc 1 487 6 view .LVU526
	cbz	r1, .L60
	.loc 1 488 4 is_stmt 1 view .LVU527
.LVL101:
.LBB360:
.LBI356:
	.loc 1 224 13 view .LVU528
.LBB359:
	.loc 1 226 2 view .LVU529
.LBB358:
.LBI358:
	.loc 1 48 22 view .LVU530
	.loc 1 50 2 view .LVU531
	.loc 1 52 2 view .LVU532
	.loc 1 52 7 view .LVU533
	.loc 1 52 62 view .LVU534
	.loc 1 52 5 view .LVU535
	.loc 1 54 2 view .LVU536
	.loc 1 54 2 is_stmt 0 view .LVU537
.LBE358:
	.loc 1 228 2 is_stmt 1 view .LVU538
	.loc 1 228 5 is_stmt 0 view .LVU539
	ldrb	r3, [r4, #9]	@ zero_extendqisi2
	lsls	r3, r3, #31
	bmi	.L61
	.loc 1 232 2 is_stmt 1 view .LVU540
	.loc 1 226 30 is_stmt 0 view .LVU541
	ldrb	r3, [r4, #10]	@ zero_extendqisi2
	.loc 1 232 6 view .LVU542
	mla	r3, r7, r3, r5
	.loc 1 232 2 view .LVU543
	mov	r0, r4
	.loc 1 232 13 view .LVU544
	ldr	r3, [r3, #36]
	.loc 1 232 17 view .LVU545
	ldr	r3, [r3]
	.loc 1 232 2 view .LVU546
	ldr	r3, [r3, #8]
	blx	r3
.LVL102:
.L61:
	.loc 1 232 2 view .LVU547
.LBE359:
.LBE360:
	.loc 1 489 4 is_stmt 1 view .LVU548
	.loc 1 489 15 is_stmt 0 view .LVU549
	str	r6, [r4, #20]
.LVL103:
.L60:
	.loc 1 492 3 is_stmt 1 view .LVU550
	.loc 1 495 30 is_stmt 0 view .LVU551
	ldrb	r0, [r4, #10]	@ zero_extendqisi2
	.loc 1 492 13 view .LVU552
	str	r6, [r4, #12]
	.loc 1 493 3 is_stmt 1 view .LVU553
	.loc 1 502 11 is_stmt 0 view .LVU554
	mla	r3, r7, r0, r5
	.loc 1 493 14 view .LVU555
	str	r6, [r4, #4]
	.loc 1 495 3 is_stmt 1 view .LVU556
.LVL104:
.LBB361:
.LBI361:
	.loc 1 48 22 view .LVU557
	.loc 1 50 2 view .LVU558
	.loc 1 52 2 view .LVU559
	.loc 1 52 7 view .LVU560
	.loc 1 52 62 view .LVU561
	.loc 1 52 5 view .LVU562
	.loc 1 54 2 view .LVU563
	.loc 1 54 2 is_stmt 0 view .LVU564
.LBE361:
	.loc 1 502 3 is_stmt 1 view .LVU565
	.loc 1 502 11 is_stmt 0 view .LVU566
	ldr	r3, [r3, #32]
	.loc 1 502 6 view .LVU567
	cbz	r3, .L62
	.loc 1 503 4 is_stmt 1 view .LVU568
	mov	r0, r4
.LVL105:
	.loc 1 503 4 is_stmt 0 view .LVU569
	blx	r3
.LVL106:
.L63:
	.loc 1 503 4 view .LVU570
.LBE365:
	.loc 1 466 1 view .LVU571
	mov	r4, r8
.LVL107:
	.loc 1 466 1 view .LVU572
	b	.L58
.LVL108:
.L62:
.LBB366:
	.loc 1 505 4 is_stmt 1 view .LVU573
.LBB362:
.LBI362:
	.loc 2 1357 20 view .LVU574
.LBB363:
	.loc 2 1359 2 view .LVU575
	.loc 2 1361 2 view .LVU576
.LBB364:
	.loc 2 1361 5 view .LVU577
	.loc 2 1361 10 view .LVU578
	.loc 2 1361 8 view .LVU579
	.loc 2 1361 4 view .LVU580
	mov	r1, r4
	mla	r0, r0, r7, r5
.LVL109:
	.loc 2 1361 4 is_stmt 0 view .LVU581
	bl	k_queue_prepend
.LVL110:
	.loc 2 1361 50 is_stmt 1 view .LVU582
	.loc 2 1361 55 view .LVU583
	.loc 2 1361 53 view .LVU584
.LBE364:
	.loc 2 1362 1 is_stmt 0 view .LVU585
	b	.L63
.L70:
	.align	2
.L69:
	.word	_net_buf_pool_list_start
.LBE363:
.LBE362:
.LBE366:
	.cfi_endproc
.LFE577:
	.size	net_buf_unref, .-net_buf_unref
	.section	.text.net_buf_ref,"ax",%progbits
	.align	1
	.global	net_buf_ref
	.syntax unified
	.thumb
	.thumb_func
	.type	net_buf_ref, %function
net_buf_ref:
.LVL111:
.LFB578:
	.loc 1 513 1 is_stmt 1 view -0
	.cfi_startproc
	@ args = 0, pretend = 0, frame = 0
	@ frame_needed = 0, uses_anonymous_args = 0
	@ link register save eliminated.
	.loc 1 514 4 view .LVU587
	.loc 1 514 5 view .LVU588
	.loc 1 517 35 view .LVU589
	.loc 1 518 2 view .LVU590
	.loc 1 518 10 is_stmt 0 view .LVU591
	ldrb	r2, [r0, #8]	@ zero_extendqisi2
	adds	r2, r2, #1
	strb	r2, [r0, #8]
	.loc 1 519 2 is_stmt 1 view .LVU592
	.loc 1 520 1 is_stmt 0 view .LVU593
	bx	lr
	.cfi_endproc
.LFE578:
	.size	net_buf_ref, .-net_buf_ref
	.section	.text.net_buf_clone,"ax",%progbits
	.align	1
	.global	net_buf_clone
	.syntax unified
	.thumb
	.thumb_func
	.type	net_buf_clone, %function
net_buf_clone:
.LVL112:
.LFB579:
	.loc 1 523 1 is_stmt 1 view -0
	.cfi_startproc
	@ args = 0, pretend = 0, frame = 16
	@ frame_needed = 0, uses_anonymous_args = 0
	.loc 1 524 2 view .LVU595
	.loc 1 523 1 is_stmt 0 view .LVU596
	push	{r4, r5, r6, r7, r8, r9, r10, fp, lr}
	.cfi_def_cfa_offset 36
	.cfi_offset 4, -36
	.cfi_offset 5, -32
	.cfi_offset 6, -28
	.cfi_offset 7, -24
	.cfi_offset 8, -20
	.cfi_offset 9, -16
	.cfi_offset 10, -12
	.cfi_offset 11, -8
	.cfi_offset 14, -4
	mov	r5, r0
	sub	sp, sp, #20
	.cfi_def_cfa_offset 56
	.loc 1 524 22 view .LVU597
	mov	r0, sp
.LVL113:
	.loc 1 523 1 view .LVU598
	mov	r4, r3
	.loc 1 523 1 view .LVU599
	mov	fp, r2
.LVL114:
.LBB385:
.LBB386:
.LBB387:
	.loc 1 52 73 view .LVU600
	ldr	r7, .L88
.LBE387:
.LBE386:
.LBE385:
	.loc 1 524 22 view .LVU601
	bl	sys_timepoint_calc
.LVL115:
	.loc 1 530 29 view .LVU602
	ldrb	r6, [r5, #10]	@ zero_extendqisi2
.LBB392:
.LBB390:
.LBB388:
	.loc 1 52 73 view .LVU603
	mov	r10, #44
	.loc 1 52 73 view .LVU604
.LBE388:
.LBE390:
.LBE392:
	.loc 1 532 10 view .LVU605
	mov	r3, r4
.LVL116:
	.loc 1 532 10 view .LVU606
	mov	r2, fp
	movs	r1, #0
	mla	r0, r6, r10, r7
	.loc 1 524 22 view .LVU607
	ldrd	r8, [sp]
.LVL117:
	.loc 1 525 2 is_stmt 1 view .LVU608
	.loc 1 526 2 view .LVU609
	.loc 1 528 4 view .LVU610
	.loc 1 528 5 view .LVU611
	.loc 1 530 2 view .LVU612
.LBB393:
.LBI385:
	.loc 1 48 22 view .LVU613
.LBB391:
	.loc 1 50 2 view .LVU614
	.loc 1 52 2 view .LVU615
.LBB389:
	.loc 1 52 7 view .LVU616
	.loc 1 52 62 view .LVU617
	.loc 1 52 62 is_stmt 0 view .LVU618
.LBE389:
	.loc 1 52 5 is_stmt 1 view .LVU619
	.loc 1 54 2 view .LVU620
	.loc 1 54 2 is_stmt 0 view .LVU621
.LBE391:
.LBE393:
	.loc 1 532 2 is_stmt 1 view .LVU622
	.loc 1 532 10 is_stmt 0 view .LVU623
	bl	net_buf_alloc_len
.LVL118:
	.loc 1 533 2 is_stmt 1 view .LVU624
	.loc 1 533 5 is_stmt 0 view .LVU625
	mov	r4, r0
.LVL119:
	.loc 1 533 5 view .LVU626
	cmp	r0, #0
	beq	.L73
	.loc 1 540 2 is_stmt 1 view .LVU627
	.loc 1 540 10 is_stmt 0 view .LVU628
	mla	r6, r10, r6, r7
.LVL120:
	.loc 1 540 17 view .LVU629
	ldr	r3, [r6, #36]
	.loc 1 540 21 view .LVU630
	ldr	r3, [r3]
	.loc 1 540 5 view .LVU631
	ldr	r3, [r3, #4]
	cbz	r3, .L74
	.loc 1 540 27 discriminator 1 view .LVU632
	ldrb	r3, [r5, #9]	@ zero_extendqisi2
	lsls	r3, r3, #31
	bmi	.L74
	.loc 1 541 3 is_stmt 1 view .LVU633
.LVL121:
.LBB394:
.LBI394:
	.loc 1 217 17 view .LVU634
.LBB395:
	.loc 1 219 2 view .LVU635
.LBB396:
.LBI396:
	.loc 1 48 22 view .LVU636
	.loc 1 50 2 view .LVU637
	.loc 1 52 2 view .LVU638
	.loc 1 52 7 view .LVU639
	.loc 1 52 62 view .LVU640
	.loc 1 52 5 view .LVU641
	.loc 1 54 2 view .LVU642
	.loc 1 54 2 is_stmt 0 view .LVU643
.LBE396:
	.loc 1 221 2 is_stmt 1 view .LVU644
	.loc 1 219 30 is_stmt 0 view .LVU645
	ldrb	r3, [r5, #10]	@ zero_extendqisi2
	.loc 1 221 9 view .LVU646
	ldr	r1, [r5, #20]
	.loc 1 221 13 view .LVU647
	mla	r3, r10, r3, r7
	.loc 1 221 9 view .LVU648
	mov	r0, r5
.LVL122:
	.loc 1 221 20 view .LVU649
	ldr	r3, [r3, #36]
	.loc 1 221 24 view .LVU650
	ldr	r3, [r3]
	.loc 1 221 9 view .LVU651
	ldr	r3, [r3, #4]
	blx	r3
.LVL123:
	.loc 1 221 9 view .LVU652
.LBE395:
.LBE394:
	.loc 1 541 16 view .LVU653
	str	r0, [r4, #20]
	.loc 1 542 3 is_stmt 1 view .LVU654
	.loc 1 542 20 is_stmt 0 view .LVU655
	ldr	r3, [r5, #12]
	.loc 1 542 15 view .LVU656
	str	r3, [r4, #12]
	.loc 1 543 3 is_stmt 1 view .LVU657
	.loc 1 543 19 is_stmt 0 view .LVU658
	ldrh	r3, [r5, #16]
	.loc 1 543 14 view .LVU659
	strh	r3, [r4, #16]	@ movhi
	.loc 1 544 3 is_stmt 1 view .LVU660
	.loc 1 544 20 is_stmt 0 view .LVU661
	ldrh	r3, [r5, #18]
	.loc 1 544 15 view .LVU662
	strh	r3, [r4, #18]	@ movhi
.LVL124:
.L75:
	.loc 1 562 1 view .LVU663
	mov	r0, r4
	add	sp, sp, #20
	.cfi_remember_state
	.cfi_def_cfa_offset 36
	@ sp needed
	pop	{r4, r5, r6, r7, r8, r9, r10, fp, pc}
.LVL125:
.L74:
	.cfi_restore_state
.LBB397:
	.loc 1 546 3 is_stmt 1 view .LVU664
	.loc 1 546 20 is_stmt 0 view .LVU665
	ldrh	r3, [r5, #18]
	str	r3, [sp, #12]
	.loc 1 548 3 is_stmt 1 view .LVU666
	.loc 1 548 13 is_stmt 0 view .LVU667
	mov	r2, r8
.LVL126:
	.loc 1 548 13 view .LVU668
	mov	r3, r9
	mov	r0, sp
.LVL127:
	.loc 1 548 13 view .LVU669
	bl	sys_timepoint_timeout
.LVL128:
	.loc 1 550 3 is_stmt 1 view .LVU670
.LBB398:
.LBI398:
	.loc 1 210 17 view .LVU671
.LBB399:
	.loc 1 212 2 view .LVU672
.LBB400:
.LBI400:
	.loc 1 48 22 view .LVU673
	.loc 1 50 2 view .LVU674
	.loc 1 52 2 view .LVU675
	.loc 1 52 7 view .LVU676
	.loc 1 52 62 view .LVU677
	.loc 1 52 5 view .LVU678
	.loc 1 54 2 view .LVU679
	.loc 1 54 2 is_stmt 0 view .LVU680
.LBE400:
	.loc 1 214 2 is_stmt 1 view .LVU681
	.loc 1 212 30 is_stmt 0 view .LVU682
	ldrb	r3, [r4, #10]	@ zero_extendqisi2
	.loc 1 214 13 view .LVU683
	movs	r2, #44
	mla	r3, r2, r3, r7
	.loc 1 214 9 view .LVU684
	add	r1, sp, #12
.LVL129:
	.loc 1 214 20 view .LVU685
	ldr	r3, [r3, #36]
	.loc 1 214 24 view .LVU686
	ldr	r3, [r3]
	.loc 1 214 9 view .LVU687
	mov	r0, r4
	ldr	r6, [r3]
	ldrd	r2, [sp]
	blx	r6
.LVL130:
	.loc 1 214 9 view .LVU688
	mov	r6, r0
.LVL131:
	.loc 1 214 9 view .LVU689
.LBE399:
.LBE398:
	.loc 1 550 16 view .LVU690
	str	r0, [r4, #20]
	.loc 1 551 3 is_stmt 1 view .LVU691
	.loc 1 551 6 is_stmt 0 view .LVU692
	cbz	r0, .L76
	.loc 1 551 29 discriminator 1 view .LVU693
	ldr	r3, [sp, #12]
	.loc 1 551 34 discriminator 1 view .LVU694
	ldrh	r2, [r5, #18]
	.loc 1 551 21 discriminator 1 view .LVU695
	cmp	r2, r3
	bls	.L77
.L76:
	.loc 1 552 4 is_stmt 1 view .LVU696
.LVL132:
.LBB401:
.LBI401:
	.loc 2 1357 20 view .LVU697
.LBB402:
	.loc 2 1359 2 view .LVU698
	.loc 2 1361 2 view .LVU699
.LBB403:
	.loc 2 1361 5 view .LVU700
	.loc 2 1361 10 view .LVU701
	.loc 2 1361 8 view .LVU702
	.loc 2 1361 4 view .LVU703
	ldrb	r0, [r4, #10]	@ zero_extendqisi2
.LVL133:
	.loc 2 1361 4 is_stmt 0 view .LVU704
	movs	r3, #44
	mov	r1, r4
	mla	r0, r0, r3, r7
.LVL134:
	.loc 2 1361 4 view .LVU705
	bl	k_queue_prepend
.LVL135:
	.loc 2 1361 50 is_stmt 1 view .LVU706
	.loc 2 1361 55 view .LVU707
	.loc 2 1361 53 view .LVU708
	.loc 2 1361 53 is_stmt 0 view .LVU709
.LBE403:
.LBE402:
.LBE401:
	.loc 1 553 4 is_stmt 1 view .LVU710
.L73:
	.loc 1 553 4 is_stmt 0 view .LVU711
.LBE397:
	.loc 1 534 9 view .LVU712
	movs	r4, #0
.LVL136:
	.loc 1 534 9 view .LVU713
	b	.L75
.LVL137:
.L77:
.LBB408:
	.loc 1 556 3 is_stmt 1 view .LVU714
	.loc 1 556 15 is_stmt 0 view .LVU715
	strh	r3, [r4, #18]	@ movhi
	.loc 1 557 3 is_stmt 1 view .LVU716
.LVL138:
.LBB404:
.LBI404:
	.loc 2 2269 22 view .LVU717
.LBB405:
	.loc 2 2271 2 view .LVU718
	.loc 2 2271 9 is_stmt 0 view .LVU719
	add	r0, r5, #12
	bl	net_buf_simple_headroom
.LVL139:
	.loc 2 2271 9 view .LVU720
.LBE405:
.LBE404:
	.loc 1 557 30 view .LVU721
	add	r6, r6, r0
	.loc 1 557 15 view .LVU722
	mov	r0, r4
	str	r6, [r0, #12]!
	.loc 1 558 3 is_stmt 1 view .LVU723
.LVL140:
.LBB406:
.LBI406:
	.loc 2 1510 21 view .LVU724
.LBB407:
	.loc 2 1513 2 view .LVU725
	.loc 2 1513 9 is_stmt 0 view .LVU726
	ldrh	r2, [r5, #16]
.LVL141:
	.loc 2 1513 9 view .LVU727
	ldr	r1, [r5, #12]
	bl	net_buf_simple_add_mem
.LVL142:
	.loc 2 1513 9 view .LVU728
.LBE407:
.LBE406:
	b	.L75
.L89:
	.align	2
.L88:
	.word	_net_buf_pool_list_start
.LBE408:
	.cfi_endproc
.LFE579:
	.size	net_buf_clone, .-net_buf_clone
	.section	.text.net_buf_frag_last,"ax",%progbits
	.align	1
	.global	net_buf_frag_last
	.syntax unified
	.thumb
	.thumb_func
	.type	net_buf_frag_last, %function
net_buf_frag_last:
.LVL143:
.LFB580:
	.loc 1 565 1 is_stmt 1 view -0
	.cfi_startproc
	@ args = 0, pretend = 0, frame = 0
	@ frame_needed = 0, uses_anonymous_args = 0
	@ link register save eliminated.
	.loc 1 565 1 is_stmt 0 view .LVU730
	mov	r3, r0
	.loc 1 566 4 is_stmt 1 view .LVU731
	.loc 1 566 5 view .LVU732
	.loc 1 568 2 view .LVU733
.L91:
.LVL144:
	.loc 1 568 9 view .LVU734
	mov	r0, r3
	.loc 1 568 12 is_stmt 0 view .LVU735
	ldr	r3, [r3, #4]
.LVL145:
	.loc 1 568 9 view .LVU736
	cmp	r3, #0
	bne	.L91
	.loc 1 572 2 is_stmt 1 view .LVU737
	.loc 1 573 1 is_stmt 0 view .LVU738
	bx	lr
	.cfi_endproc
.LFE580:
	.size	net_buf_frag_last, .-net_buf_frag_last
	.section	.text.net_buf_frag_insert,"ax",%progbits
	.align	1
	.global	net_buf_frag_insert
	.syntax unified
	.thumb
	.thumb_func
	.type	net_buf_frag_insert, %function
net_buf_frag_insert:
.LVL146:
.LFB581:
	.loc 1 576 1 is_stmt 1 view -0
	.cfi_startproc
	@ args = 0, pretend = 0, frame = 0
	@ frame_needed = 0, uses_anonymous_args = 0
	.loc 1 577 4 view .LVU740
	.loc 1 577 5 view .LVU741
	.loc 1 578 4 view .LVU742
	.loc 1 578 5 view .LVU743
	.loc 1 580 2 view .LVU744
	.loc 1 580 12 is_stmt 0 view .LVU745
	ldr	r2, [r0, #4]
	.loc 1 576 1 view .LVU746
	push	{r4, lr}
	.cfi_def_cfa_offset 8
	.cfi_offset 4, -8
	.cfi_offset 14, -4
	.loc 1 580 5 view .LVU747
	cbz	r2, .L94
	mov	r3, r1
.L95:
.LVL147:
.LBB409:
.LBB410:
	.loc 1 568 9 is_stmt 1 view .LVU748
	mov	r4, r3
	.loc 1 568 12 is_stmt 0 view .LVU749
	ldr	r3, [r3, #4]
.LVL148:
	.loc 1 568 9 view .LVU750
	cmp	r3, #0
	bne	.L95
	.loc 1 572 2 is_stmt 1 view .LVU751
.LVL149:
	.loc 1 572 2 is_stmt 0 view .LVU752
.LBE410:
.LBE409:
	.loc 1 581 34 view .LVU753
	str	r2, [r4, #4]
.L94:
	.loc 1 584 2 is_stmt 1 view .LVU754
	.loc 1 584 16 is_stmt 0 view .LVU755
	str	r1, [r0, #4]
	.loc 1 585 1 view .LVU756
	pop	{r4, pc}
	.cfi_endproc
.LFE581:
	.size	net_buf_frag_insert, .-net_buf_frag_insert
	.section	.text.net_buf_frag_add,"ax",%progbits
	.align	1
	.global	net_buf_frag_add
	.syntax unified
	.thumb
	.thumb_func
	.type	net_buf_frag_add, %function
net_buf_frag_add:
.LVL150:
.LFB582:
	.loc 1 588 1 is_stmt 1 view -0
	.cfi_startproc
	@ args = 0, pretend = 0, frame = 0
	@ frame_needed = 0, uses_anonymous_args = 0
	.loc 1 589 4 view .LVU758
	.loc 1 589 5 view .LVU759
	.loc 1 591 2 view .LVU760
	.loc 1 588 1 is_stmt 0 view .LVU761
	push	{r4, lr}
	.cfi_def_cfa_offset 8
	.cfi_offset 4, -8
	.cfi_offset 14, -4
	.loc 1 591 5 view .LVU762
	mov	r4, r0
	cbnz	r0, .L103
	.loc 1 592 3 is_stmt 1 view .LVU763
.LVL151:
.LBB420:
.LBI420:
	.loc 1 512 17 view .LVU764
.LBB421:
	.loc 1 514 4 view .LVU765
	.loc 1 514 5 view .LVU766
	.loc 1 517 35 view .LVU767
	.loc 1 518 2 view .LVU768
	.loc 1 518 10 is_stmt 0 view .LVU769
	ldrb	r3, [r1, #8]	@ zero_extendqisi2
	adds	r3, r3, #1
	strb	r3, [r1, #8]
	.loc 1 519 2 is_stmt 1 view .LVU770
.LVL152:
	.loc 1 519 2 is_stmt 0 view .LVU771
.LBE421:
.LBE420:
	.loc 1 592 10 view .LVU772
	mov	r0, r1
.LVL153:
.L100:
	.loc 1 598 1 view .LVU773
	pop	{r4, pc}
.LVL154:
.L103:
	.loc 1 598 1 view .LVU774
	mov	r3, r0
.LVL155:
.L101:
.LBB422:
.LBB423:
.LBB424:
.LBB425:
	.loc 1 568 9 is_stmt 1 view .LVU775
	mov	r0, r3
	.loc 1 568 12 is_stmt 0 view .LVU776
	ldr	r3, [r3, #4]
.LVL156:
	.loc 1 568 9 view .LVU777
	cmp	r3, #0
	bne	.L101
	.loc 1 572 2 is_stmt 1 view .LVU778
.LVL157:
	.loc 1 572 2 is_stmt 0 view .LVU779
.LBE425:
.LBE424:
	.loc 1 595 2 view .LVU780
	bl	net_buf_frag_insert
.LVL158:
	.loc 1 597 2 is_stmt 1 view .LVU781
	.loc 1 595 2 is_stmt 0 view .LVU782
	mov	r0, r4
	b	.L100
.LBE423:
.LBE422:
	.cfi_endproc
.LFE582:
	.size	net_buf_frag_add, .-net_buf_frag_add
	.section	.text.net_buf_frag_del,"ax",%progbits
	.align	1
	.global	net_buf_frag_del
	.syntax unified
	.thumb
	.thumb_func
	.type	net_buf_frag_del, %function
net_buf_frag_del:
.LVL159:
.LFB583:
	.loc 1 607 1 is_stmt 1 view -0
	.cfi_startproc
	@ args = 0, pretend = 0, frame = 0
	@ frame_needed = 0, uses_anonymous_args = 0
	.loc 1 608 2 view .LVU784
	.loc 1 610 4 view .LVU785
	.loc 1 610 5 view .LVU786
	.loc 1 612 2 view .LVU787
	.loc 1 607 1 is_stmt 0 view .LVU788
	push	{r4, lr}
	.cfi_def_cfa_offset 8
	.cfi_offset 4, -8
	.cfi_offset 14, -4
	.loc 1 612 5 view .LVU789
	cbz	r0, .L106
	.loc 1 615 23 view .LVU790
	ldr	r3, [r1, #4]
	.loc 1 613 5 is_stmt 1 view .LVU791
	.loc 1 613 6 view .LVU792
	.loc 1 614 5 view .LVU793
	.loc 1 614 6 view .LVU794
	.loc 1 615 3 view .LVU795
	.loc 1 615 17 is_stmt 0 view .LVU796
	str	r3, [r0, #4]
.L106:
	.loc 1 618 2 is_stmt 1 view .LVU797
	.loc 1 618 12 is_stmt 0 view .LVU798
	ldr	r4, [r1, #4]
.LVL160:
	.loc 1 620 2 is_stmt 1 view .LVU799
	.loc 1 620 14 is_stmt 0 view .LVU800
	movs	r3, #0
	.loc 1 625 2 view .LVU801
	mov	r0, r1
.LVL161:
	.loc 1 620 14 view .LVU802
	str	r3, [r1, #4]
	.loc 1 625 2 is_stmt 1 view .LVU803
	bl	net_buf_unref
.LVL162:
	.loc 1 628 2 view .LVU804
	.loc 1 629 1 is_stmt 0 view .LVU805
	mov	r0, r4
	pop	{r4, pc}
	.loc 1 629 1 view .LVU806
	.cfi_endproc
.LFE583:
	.size	net_buf_frag_del, .-net_buf_frag_del
	.section	.text.net_buf_linearize,"ax",%progbits
	.align	1
	.global	net_buf_linearize
	.syntax unified
	.thumb
	.thumb_func
	.type	net_buf_linearize, %function
net_buf_linearize:
.LVL163:
.LFB584:
	.loc 1 633 1 is_stmt 1 view -0
	.cfi_startproc
	@ args = 4, pretend = 0, frame = 0
	@ frame_needed = 0, uses_anonymous_args = 0
	.loc 1 633 1 is_stmt 0 view .LVU808
	push	{r4, r5, r6, r7, r8, lr}
	.cfi_def_cfa_offset 24
	.cfi_offset 4, -24
	.cfi_offset 5, -20
	.cfi_offset 6, -16
	.cfi_offset 7, -12
	.cfi_offset 8, -8
	.cfi_offset 14, -4
	mov	r7, r0
	mov	r5, r1
	mov	r4, r2
	.loc 1 634 2 is_stmt 1 view .LVU809
	.loc 1 635 2 view .LVU810
	.loc 1 636 2 view .LVU811
	.loc 1 638 2 view .LVU812
.LVL164:
	.loc 1 640 2 view .LVU813
	.loc 1 643 2 view .LVU814
.L111:
	.loc 1 643 14 view .LVU815
	cbnz	r4, .L112
	.loc 1 643 14 is_stmt 0 view .LVU816
	mov	r8, r4
.LVL165:
.L110:
	.loc 1 665 1 view .LVU817
	mov	r0, r8
	pop	{r4, r5, r6, r7, r8, pc}
.LVL166:
.L115:
	.loc 1 644 3 is_stmt 1 view .LVU818
	.loc 1 645 8 is_stmt 0 view .LVU819
	ldr	r4, [r4, #4]
.LVL167:
	.loc 1 644 10 view .LVU820
	subs	r3, r3, r2
.LVL168:
	.loc 1 645 3 is_stmt 1 view .LVU821
	.loc 1 645 3 is_stmt 0 view .LVU822
	b	.L111
.L112:
	.loc 1 643 31 discriminator 1 view .LVU823
	ldrh	r2, [r4, #16]
	.loc 1 643 14 discriminator 1 view .LVU824
	cmp	r2, r3
	bls	.L115
	.loc 1 638 6 view .LVU825
	ldr	r2, [sp, #24]
	cmp	r5, r2
	it	cs
	movcs	r5, r2
	mov	r8, #0
.LVL169:
.L114:
	.loc 1 650 14 is_stmt 1 view .LVU826
	cmp	r4, #0
	beq	.L110
	.loc 1 650 14 is_stmt 0 discriminator 1 view .LVU827
	cmp	r5, #0
	beq	.L110
	.loc 1 651 3 is_stmt 1 view .LVU828
	.loc 1 651 28 is_stmt 0 view .LVU829
	ldrh	r6, [r4, #16]
	.loc 1 652 13 view .LVU830
	ldr	r1, [r4, #12]
	.loc 1 651 34 view .LVU831
	subs	r6, r6, r3
	.loc 1 651 11 view .LVU832
	cmp	r6, r5
	it	cs
	movcs	r6, r5
.LVL170:
	.loc 1 652 2 is_stmt 1 view .LVU833
.LBB426:
.LBI426:
	.file 7 "/home/g/zephyr-sdk-0.16.3/arm-zephyr-eabi/picolibc/include/ssp/string.h"
	.loc 7 83 216 view .LVU834
.LBB427:
	.loc 7 83 292 view .LVU835
	.loc 7 83 299 is_stmt 0 view .LVU836
	add	r1, r1, r3
.LVL171:
	.loc 7 83 299 view .LVU837
	add	r0, r7, r8
.LVL172:
	.loc 7 83 299 view .LVU838
	mov	r2, r6
	bl	memcpy
.LVL173:
	.loc 7 83 299 view .LVU839
.LBE427:
.LBE426:
	.loc 1 654 3 is_stmt 1 view .LVU840
	.loc 1 654 10 is_stmt 0 view .LVU841
	add	r8, r8, r6
.LVL174:
	.loc 1 657 3 is_stmt 1 view .LVU842
	.loc 1 658 8 is_stmt 0 view .LVU843
	ldr	r4, [r4, #4]
.LVL175:
	.loc 1 657 7 view .LVU844
	subs	r5, r5, r6
.LVL176:
	.loc 1 658 3 is_stmt 1 view .LVU845
	.loc 1 661 3 view .LVU846
	.loc 1 661 10 is_stmt 0 view .LVU847
	movs	r3, #0
	b	.L114
	.cfi_endproc
.LFE584:
	.size	net_buf_linearize, .-net_buf_linearize
	.section	.text.net_buf_append_bytes,"ax",%progbits
	.align	1
	.global	net_buf_append_bytes
	.syntax unified
	.thumb
	.thumb_func
	.type	net_buf_append_bytes, %function
net_buf_append_bytes:
.LVL177:
.LFB585:
	.loc 1 674 1 is_stmt 1 view -0
	.cfi_startproc
	@ args = 16, pretend = 0, frame = 0
	@ frame_needed = 0, uses_anonymous_args = 0
	.loc 1 675 2 view .LVU849
.LBB441:
.LBI441:
	.loc 1 564 17 view .LVU850
.LBB442:
	.loc 1 566 4 view .LVU851
	.loc 1 566 5 view .LVU852
	.loc 1 568 2 view .LVU853
.LBE442:
.LBE441:
	.loc 1 674 1 is_stmt 0 view .LVU854
	push	{r3, r4, r5, r6, r7, r8, r9, r10, fp, lr}
	.cfi_def_cfa_offset 40
	.cfi_offset 3, -40
	.cfi_offset 4, -36
	.cfi_offset 5, -32
	.cfi_offset 6, -28
	.cfi_offset 7, -24
	.cfi_offset 8, -20
	.cfi_offset 9, -16
	.cfi_offset 10, -12
	.cfi_offset 11, -8
	.cfi_offset 14, -4
	.loc 1 674 1 view .LVU855
	mov	r7, r0
	mov	r6, r1
	mov	r8, r2
.LBB444:
.LBB443:
	.loc 1 568 8 view .LVU856
	mov	r5, r0
.LVL178:
.L121:
	.loc 1 568 9 is_stmt 1 view .LVU857
	mov	r1, r5
	.loc 1 568 12 is_stmt 0 view .LVU858
	ldr	r5, [r5, #4]
.LVL179:
	.loc 1 568 9 view .LVU859
	cmp	r5, #0
	bne	.L121
.LBE443:
.LBE444:
.LBB445:
.LBB446:
.LBB447:
.LBB448:
.LBB449:
	.loc 1 52 73 view .LVU860
	ldr	fp, .L136
	mov	r10, #44
.LVL180:
.L127:
	.loc 1 52 73 view .LVU861
.LBE449:
.LBE448:
.LBE447:
.LBE446:
.LBE445:
	.loc 1 679 2 is_stmt 1 view .LVU862
.LBB464:
	.loc 1 680 3 view .LVU863
.LBB456:
.LBI456:
	.loc 2 2255 22 view .LVU864
.LBB457:
	.loc 2 2257 2 view .LVU865
	.loc 2 2257 9 is_stmt 0 view .LVU866
	add	r4, r1, #12
	mov	r0, r4
	bl	net_buf_simple_tailroom
.LVL181:
	.loc 2 2257 9 view .LVU867
.LBE457:
.LBE456:
	.loc 1 680 12 view .LVU868
	cmp	r6, r0
	bcc	.L122
.LVL182:
.LBB458:
.LBI458:
	.loc 2 2255 22 is_stmt 1 view .LVU869
.LBB459:
	.loc 2 2257 2 view .LVU870
	.loc 2 2257 9 is_stmt 0 view .LVU871
	mov	r0, r4
	bl	net_buf_simple_tailroom
.LVL183:
	.loc 2 2257 9 view .LVU872
.LBE459:
.LBE458:
	.loc 1 680 12 view .LVU873
	uxth	r9, r0
.L123:
.LVL184:
	.loc 1 682 3 is_stmt 1 discriminator 4 view .LVU874
.LBB460:
.LBI460:
	.loc 2 1510 21 discriminator 4 view .LVU875
.LBB461:
	.loc 2 1513 2 discriminator 4 view .LVU876
	.loc 2 1513 9 is_stmt 0 discriminator 4 view .LVU877
	mov	r1, r8
	mov	r2, r9
	mov	r0, r4
	bl	net_buf_simple_add_mem
.LVL185:
	.loc 2 1513 9 discriminator 4 view .LVU878
.LBE461:
.LBE460:
	.loc 1 683 3 is_stmt 1 discriminator 4 view .LVU879
	.loc 1 684 3 discriminator 4 view .LVU880
	.loc 1 687 6 is_stmt 0 discriminator 4 view .LVU881
	subs	r6, r6, r9
.LVL186:
	.loc 1 684 13 discriminator 4 view .LVU882
	add	r5, r5, r9
.LVL187:
	.loc 1 685 3 is_stmt 1 discriminator 4 view .LVU883
	.loc 1 685 10 is_stmt 0 discriminator 4 view .LVU884
	add	r8, r8, r9
.LVL188:
	.loc 1 687 3 is_stmt 1 discriminator 4 view .LVU885
	.loc 1 687 6 is_stmt 0 discriminator 4 view .LVU886
	beq	.L120
	.loc 1 691 3 is_stmt 1 view .LVU887
	.loc 1 691 6 is_stmt 0 view .LVU888
	ldr	r3, [sp, #48]
	cbz	r3, .L125
	.loc 1 692 4 is_stmt 1 view .LVU889
	.loc 1 692 11 is_stmt 0 view .LVU890
	ldrd	r0, [sp, #40]
	ldr	r2, [sp, #52]
	blx	r3
.LVL189:
.L135:
.LBB462:
	.loc 1 700 11 view .LVU891
	mov	r1, r0
	.loc 1 700 11 view .LVU892
.LBE462:
	.loc 1 703 3 is_stmt 1 view .LVU893
	.loc 1 703 6 is_stmt 0 view .LVU894
	cbz	r0, .L120
	.loc 1 707 3 is_stmt 1 view .LVU895
	mov	r0, r7
.LVL190:
	.loc 1 707 3 is_stmt 0 view .LVU896
	bl	net_buf_frag_add
.LVL191:
.LBE464:
	.loc 1 679 5 is_stmt 1 view .LVU897
	b	.L127
.LVL192:
.L122:
.LBB465:
	.loc 1 680 12 is_stmt 0 discriminator 2 view .LVU898
	uxth	r9, r6
	b	.L123
.LVL193:
.L125:
.LBB463:
	.loc 1 694 4 is_stmt 1 view .LVU899
	.loc 1 699 4 view .LVU900
.LBB454:
.LBI447:
	.loc 1 48 22 view .LVU901
.LBB452:
	.loc 1 50 2 view .LVU902
	.loc 1 52 2 view .LVU903
.LBB450:
	.loc 1 52 7 view .LVU904
	.loc 1 52 62 view .LVU905
	.loc 1 52 62 is_stmt 0 view .LVU906
.LBE450:
	.loc 1 52 5 is_stmt 1 view .LVU907
	.loc 1 54 2 view .LVU908
	.loc 1 54 2 is_stmt 0 view .LVU909
.LBE452:
.LBE454:
	.loc 1 700 4 is_stmt 1 view .LVU910
.LBB455:
.LBB453:
.LBB451:
	.loc 1 52 73 is_stmt 0 view .LVU911
	ldrb	r0, [r7, #10]	@ zero_extendqisi2
.LBE451:
.LBE453:
.LBE455:
	.loc 1 700 11 view .LVU912
	ldrd	r2, [sp, #40]
	mov	r1, r6
	mla	r0, r0, r10, fp
	bl	net_buf_alloc_len
.LVL194:
	.loc 1 700 11 view .LVU913
	b	.L135
.LVL195:
.L120:
	.loc 1 700 11 view .LVU914
.LBE463:
.LBE465:
	.loc 1 712 1 view .LVU915
	mov	r0, r5
	pop	{r3, r4, r5, r6, r7, r8, r9, r10, fp, pc}
.LVL196:
.L137:
	.loc 1 712 1 view .LVU916
	.align	2
.L136:
	.word	_net_buf_pool_list_start
	.cfi_endproc
.LFE585:
	.size	net_buf_append_bytes, .-net_buf_append_bytes
	.global	net_buf_fixed_cb
	.section	.rodata.net_buf_fixed_cb,"a"
	.align	2
	.type	net_buf_fixed_cb, %object
	.size	net_buf_fixed_cb, 12
net_buf_fixed_cb:
	.word	fixed_data_alloc
	.space	4
	.word	fixed_data_unref
	.global	net_buf_var_cb
	.section	.rodata.net_buf_var_cb,"a"
	.align	2
	.type	net_buf_var_cb, %object
	.size	net_buf_var_cb, 12
net_buf_var_cb:
	.word	mem_pool_data_alloc
	.word	generic_data_ref
	.word	mem_pool_data_unref
	.global	log_const_net_buf
	.section	.rodata.str1.1,"aMS",%progbits,1
.LC0:
	.ascii	"net_buf\000"
	.section	._log_const.static.log_const_net_buf_,"a"
	.align	2
	.type	log_const_net_buf, %object
	.size	log_const_net_buf, 8
log_const_net_buf:
	.word	.LC0
	.byte	3
	.space	3
	.text
.Letext0:
	.file 8 "/home/g/zephyr-sdk-0.16.3/arm-zephyr-eabi/lib/gcc/arm-zephyr-eabi/12.2.0/include/stddef.h"
	.file 9 "/home/g/zephyr-sdk-0.16.3/arm-zephyr-eabi/picolibc/include/machine/_default_types.h"
	.file 10 "/home/g/zephyr-sdk-0.16.3/arm-zephyr-eabi/picolibc/include/sys/_stdint.h"
	.file 11 "/home/g/mise-work/zmk-firmware/zmk/zephyr/include/zephyr/logging/log_instance.h"
	.file 12 "/home/g/mise-work/zmk-firmware/zmk/zephyr/include/zephyr/sys/dlist.h"
	.file 13 "/home/g/mise-work/zmk-firmware/zmk/zephyr/include/zephyr/sys/sys_heap.h"
	.file 14 "/home/g/mise-work/zmk-firmware/zmk/zephyr/include/zephyr/kernel_structs.h"
	.file 15 "/home/g/mise-work/zmk-firmware/zmk/zephyr/include/zephyr/sys/sflist.h"
	.file 16 "/home/g/mise-work/zmk-firmware/zmk/zephyr/include/zephyr/sys_clock.h"
	.file 17 "/home/g/mise-work/zmk-firmware/zmk/zephyr/include/zephyr/kernel.h"
	.file 18 "/home/g/mise-work/zmk-firmware/zmk/zephyr/include/zephyr/fatal_types.h"
	.file 19 "<built-in>"