	.cpu cortex-m4
	.arch armv7e-m
	.fpu fpv4-sp-d16
	.eabi_attribute 27, 1
	.eabi_attribute 28, 1
	.eabi_attribute 20, 1
	.eabi_attribute 21, 1
	.eabi_attribute 23, 3
	.eabi_attribute 24, 1
	.eabi_attribute 25, 1
	.eabi_attribute 26, 1
	.eabi_attribute 30, 4
	.eabi_attribute 34, 1
	.eabi_attribute 38, 1
	.eabi_attribute 18, 4
	.file	"buf_simple.c"
	.text
.Ltext0:
	.cfi_sections	.debug_frame
	.file 1 "/home/g/mise-work/zmk-firmware/zmk/zephyr/subsys/net/buf_simple.c"
	.section	.text.sys_put_be32,"ax",%progbits
	.align	1
	.syntax unified
	.thumb
	.thumb_func
	.type	sys_put_be32, %function
sys_put_be32:
.LVL0:
.LFB296:
	.file 2 "/home/g/mise-work/zmk-firmware/zmk/zephyr/include/zephyr/sys/byteorder.h"
	.loc 2 340 1 view -0
	.cfi_startproc
	@ args = 0, pretend = 0, frame = 0
	@ frame_needed = 0, uses_anonymous_args = 0
	@ link register save eliminated.
	.loc 2 341 2 view .LVU1
	.loc 2 341 19 is_stmt 0 view .LVU2
	lsrs	r3, r0, #16
.LVL1:
.LBB142:
.LBI142:
	.loc 2 309 20 is_stmt 1 view .LVU3
.LBB143:
	.loc 2 311 2 view .LVU4
	.loc 2 311 9 is_stmt 0 view .LVU5
	lsrs	r2, r0, #24
	.loc 2 312 9 view .LVU6
	strb	r3, [r1, #1]
.LBE143:
.LBE142:
.LBB145:
.LBB146:
	.loc 2 311 9 view .LVU7
	ubfx	r3, r0, #8, #8
.LVL2:
	.loc 2 311 9 view .LVU8
.LBE146:
.LBE145:
.LBB148:
.LBB144:
	strb	r2, [r1]
	.loc 2 312 2 is_stmt 1 view .LVU9
.LVL3:
	.loc 2 312 2 is_stmt 0 view .LVU10
.LBE144:
.LBE148:
	.loc 2 342 2 is_stmt 1 view .LVU11
.LBB149:
.LBI145:
	.loc 2 309 20 view .LVU12
.LBB147:
	.loc 2 311 2 view .LVU13
	.loc 2 311 9 is_stmt 0 view .LVU14
	strb	r3, [r1, #2]
	.loc 2 312 2 is_stmt 1 view .LVU15
	.loc 2 312 9 is_stmt 0 view .LVU16
	strb	r0, [r1, #3]
.LVL4:
	.loc 2 312 9 view .LVU17
.LBE147:
.LBE149:
	.loc 2 343 1 view .LVU18
	bx	lr
	.cfi_endproc
.LFE296:
	.size	sys_put_be32, .-sys_put_be32
	.section	.text.sys_put_le32,"ax",%progbits
	.align	1
	.syntax unified
	.thumb
	.thumb_func
	.type	sys_put_le32, %function
sys_put_le32:
.LVL5:
.LFB301:
	.loc 2 415 1 is_stmt 1 view -0
	.cfi_startproc
	@ args = 0, pretend = 0, frame = 0
	@ frame_needed = 0, uses_anonymous_args = 0
	@ link register save eliminated.
	.loc 2 416 2 view .LVU20
.LBB150:
.LBI150:
	.loc 2 384 20 view .LVU21
.LBB151:
	.loc 2 386 2 view .LVU22
	.loc 2 387 9 is_stmt 0 view .LVU23
	ubfx	r3, r0, #8, #8
	.loc 2 386 9 view .LVU24
	strb	r0, [r1]
	.loc 2 387 2 is_stmt 1 view .LVU25
.LBE151:
.LBE150:
	.loc 2 417 19 is_stmt 0 view .LVU26
	lsrs	r0, r0, #16
.LVL6:
.LBB153:
.LBB154:
	.loc 2 386 9 view .LVU27
	strb	r0, [r1, #2]
	.loc 2 387 9 view .LVU28
	lsrs	r0, r0, #8
.LBE154:
.LBE153:
.LBB156:
.LBB152:
	strb	r3, [r1, #1]
.LVL7:
	.loc 2 387 9 view .LVU29
.LBE152:
.LBE156:
	.loc 2 417 2 is_stmt 1 view .LVU30
.LBB157:
.LBI153:
	.loc 2 384 20 view .LVU31
.LBB155:
	.loc 2 386 2 view .LVU32
	.loc 2 387 2 view .LVU33
	.loc 2 387 9 is_stmt 0 view .LVU34
	strb	r0, [r1, #3]
.LVL8:
	.loc 2 387 9 view .LVU35
.LBE155:
.LBE157:
	.loc 2 418 1 view .LVU36
	bx	lr
	.cfi_endproc
.LFE301:
	.size	sys_put_le32, .-sys_put_le32
	.section	.text.net_buf_simple_init_with_data,"ax",%progbits
	.align	1
	.global	net_buf_simple_init_with_data
	.syntax unified
	.thumb
	.thumb_func
	.type	net_buf_simple_init_with_data, %function
net_buf_simple_init_with_data:
.LVL9:
.LFB557:
	.loc 1 34 1 is_stmt 1 view -0
	.cfi_startproc
	@ args = 0, pretend = 0, frame = 0
	@ frame_needed = 0, uses_anonymous_args = 0
	@ link register save eliminated.
	.loc 1 35 2 view .LVU38
	.loc 1 37 12 is_stmt 0 view .LVU39
	uxth	r2, r2
.LVL10:
	.loc 1 35 13 view .LVU40
	str	r1, [r0, #8]
	.loc 1 36 2 is_stmt 1 view .LVU41
	.loc 1 36 12 is_stmt 0 view .LVU42
	str	r1, [r0]
	.loc 1 37 2 is_stmt 1 view .LVU43
	.loc 1 37 12 is_stmt 0 view .LVU44
	strh	r2, [r0, #6]	@ movhi
	.loc 1 38 2 is_stmt 1 view .LVU45
	.loc 1 38 11 is_stmt 0 view .LVU46
	strh	r2, [r0, #4]	@ movhi
	.loc 1 39 1 view .LVU47
	bx	lr
	.cfi_endproc
.LFE557:
	.size	net_buf_simple_init_with_data, .-net_buf_simple_init_with_data
	.section	.text.net_buf_simple_reserve,"ax",%progbits
	.align	1
	.global	net_buf_simple_reserve
	.syntax unified
	.thumb
	.thumb_func
	.type	net_buf_simple_reserve, %function
net_buf_simple_reserve:
.LVL11:
.LFB558:
	.loc 1 42 1 is_stmt 1 view -0
	.cfi_startproc
	@ args = 0, pretend = 0, frame = 0
	@ frame_needed = 0, uses_anonymous_args = 0
	@ link register save eliminated.
	.loc 1 43 4 view .LVU49
	.loc 1 43 5 view .LVU50
	.loc 1 44 4 view .LVU51
	.loc 1 44 5 view .LVU52
	.loc 1 45 2 view .LVU53
	.loc 1 47 2 view .LVU54
	.loc 1 47 25 is_stmt 0 view .LVU55
	ldr	r3, [r0, #8]
	add	r3, r3, r1
	.loc 1 47 12 view .LVU56
	str	r3, [r0]
	.loc 1 48 1 view .LVU57
	bx	lr
	.cfi_endproc
.LFE558:
	.size	net_buf_simple_reserve, .-net_buf_simple_reserve
	.section	.text.net_buf_simple_clone,"ax",%progbits
	.align	1
	.global	net_buf_simple_clone
	.syntax unified
	.thumb
	.thumb_func
	.type	net_buf_simple_clone, %function
net_buf_simple_clone:
.LVL12:
.LFB559:
	.loc 1 52 1 is_stmt 1 view -0
	.cfi_startproc
	@ args = 0, pretend = 0, frame = 0
	@ frame_needed = 0, uses_anonymous_args = 0
	@ link register save eliminated.
	.loc 1 53 1 view .LVU59
.LBB158:
.LBI158:
	.file 3 "/home/g/zephyr-sdk-0.16.3/arm-zephyr-eabi/picolibc/include/ssp/string.h"
	.loc 3 83 216 view .LVU60
.LBB159:
	.loc 3 83 292 view .LVU61
	.loc 3 83 299 is_stmt 0 view .LVU62
	ldr	r3, [r0]	@ unaligned
	str	r3, [r1]	@ unaligned
	ldr	r3, [r0, #4]	@ unaligned
	str	r3, [r1, #4]	@ unaligned
	ldr	r3, [r0, #8]	@ unaligned
	str	r3, [r1, #8]	@ unaligned
.LVL13:
	.loc 3 83 299 view .LVU63
.LBE159:
.LBE158:
	.loc 1 54 1 view .LVU64
	bx	lr
	.cfi_endproc
.LFE559:
	.size	net_buf_simple_clone, .-net_buf_simple_clone
	.section	.text.net_buf_simple_add,"ax",%progbits
	.align	1
	.global	net_buf_simple_add
	.syntax unified
	.thumb
	.thumb_func
	.type	net_buf_simple_add, %function
net_buf_simple_add:
.LVL14:
.LFB560:
	.loc 1 57 1 is_stmt 1 view -0
	.cfi_startproc
	@ args = 0, pretend = 0, frame = 0
	@ frame_needed = 0, uses_anonymous_args = 0
	@ link register save eliminated.
	.loc 1 58 2 view .LVU66
.LBB160:
.LBI160:
	.file 4 "/home/g/mise-work/zmk-firmware/zmk/zephyr/include/zephyr/net/buf.h"
	.loc 4 805 24 view .LVU67
.LBB161:
	.loc 4 807 2 view .LVU68
	.loc 4 807 24 is_stmt 0 view .LVU69
	ldrh	r3, [r0, #4]
	.loc 4 807 19 view .LVU70
	ldr	r2, [r0]
.LVL15:
	.loc 4 807 19 view .LVU71
.LBE161:
.LBE160:
	.loc 1 60 2 is_stmt 1 view .LVU72
	.loc 1 62 4 view .LVU73
	.loc 1 62 5 view .LVU74
	.loc 1 64 2 view .LVU75
	.loc 1 64 11 is_stmt 0 view .LVU76
	add	r1, r1, r3
.LVL16:
	.loc 1 64 11 view .LVU77
	strh	r1, [r0, #4]	@ movhi
	.loc 1 65 2 is_stmt 1 view .LVU78
	.loc 1 66 1 is_stmt 0 view .LVU79
	adds	r0, r2, r3
.LVL17:
	.loc 1 66 1 view .LVU80
	bx	lr
	.cfi_endproc
.LFE560:
	.size	net_buf_simple_add, .-net_buf_simple_add
	.section	.text.net_buf_simple_add_mem,"ax",%progbits
	.align	1
	.global	net_buf_simple_add_mem
	.syntax unified
	.thumb
	.thumb_func
	.type	net_buf_simple_add_mem, %function
net_buf_simple_add_mem:
.LVL18:
.LFB561:
	.loc 1 70 1 is_stmt 1 view -0
	.cfi_startproc
	@ args = 0, pretend = 0, frame = 0
	@ frame_needed = 0, uses_anonymous_args = 0
	@ link register save eliminated.
	.loc 1 71 2 view .LVU82
	.loc 1 73 2 view .LVU83
.LBB162:
.LBI162:
	.loc 1 56 7 view .LVU84
.LBB163:
	.loc 1 58 2 view .LVU85
.LBB164:
.LBI164:
	.loc 4 805 24 view .LVU86
.LBB165:
	.loc 4 807 2 view .LVU87
.LBE165:
.LBE164:
.LBE163:
.LBE162:
	.loc 1 70 1 is_stmt 0 view .LVU88
	push	{r4, r5}
	.cfi_def_cfa_offset 8
	.cfi_offset 4, -8
	.cfi_offset 5, -4
.LBB169:
.LBB168:
.LBB167:
.LBB166:
	.loc 4 807 24 view .LVU89
	ldrh	r4, [r0, #4]
	.loc 4 807 19 view .LVU90
	ldr	r5, [r0]
.LVL19:
	.loc 4 807 19 view .LVU91
.LBE166:
.LBE167:
	.loc 1 60 2 is_stmt 1 view .LVU92
	.loc 1 62 4 view .LVU93
	.loc 1 62 5 view .LVU94
	.loc 1 64 2 view .LVU95
	.loc 1 64 11 is_stmt 0 view .LVU96
	adds	r3, r4, r2
	strh	r3, [r0, #4]	@ movhi
	.loc 1 65 2 is_stmt 1 view .LVU97
.LVL20:
	.loc 1 65 2 is_stmt 0 view .LVU98
.LBE168:
.LBE169:
.LBB170:
.LBI170:
	.loc 3 83 216 is_stmt 1 view .LVU99
.LBB171:
	.loc 3 83 292 view .LVU100
	.loc 3 83 299 is_stmt 0 view .LVU101
	adds	r0, r5, r4
.LVL21:
	.loc 3 83 299 view .LVU102
.LBE171:
.LBE170:
	.loc 1 74 1 view .LVU103
	pop	{r4, r5}
	.cfi_restore 5
	.cfi_restore 4
	.cfi_def_cfa_offset 0
.LBB173:
.LBB172:
	.loc 3 83 299 view .LVU104
	b	memcpy
.LVL22:
	.loc 3 83 299 view .LVU105
.LBE172:
.LBE173:
	.cfi_endproc
.LFE561:
	.size	net_buf_simple_add_mem, .-net_buf_simple_add_mem
	.section	.text.net_buf_simple_add_u8,"ax",%progbits
	.align	1
	.global	net_buf_simple_add_u8
	.syntax unified
	.thumb
	.thumb_func
	.type	net_buf_simple_add_u8, %function
net_buf_simple_add_u8:
.LVL23:
.LFB562:
	.loc 1 77 1 is_stmt 1 view -0
	.cfi_startproc
	@ args = 0, pretend = 0, frame = 0
	@ frame_needed = 0, uses_anonymous_args = 0
	.loc 1 78 2 view .LVU107
	.loc 1 80 2 view .LVU108
	.loc 1 82 2 view .LVU109
.LBB174:
.LBI174:
	.loc 1 56 7 view .LVU110
.LBB175:
	.loc 1 58 2 view .LVU111
.LBB176:
.LBI176:
	.loc 4 805 24 view .LVU112
.LBB177:
	.loc 4 807 2 view .LVU113
.LBE177:
.LBE176:
.LBE175:
.LBE174:
	.loc 1 77 1 is_stmt 0 view .LVU114
	push	{r4, lr}
	.cfi_def_cfa_offset 8
	.cfi_offset 4, -8
	.cfi_offset 14, -4
.LBB181:
.LBB180:
.LBB179:
.LBB178:
	.loc 4 807 24 view .LVU115
	ldrh	r3, [r0, #4]
	.loc 4 807 19 view .LVU116
	ldr	r2, [r0]
.LVL24:
	.loc 4 807 19 view .LVU117
.LBE178:
.LBE179:
	.loc 1 60 2 is_stmt 1 view .LVU118
	.loc 1 62 4 view .LVU119
	.loc 1 62 5 view .LVU120
	.loc 1 64 2 view .LVU121
	.loc 1 64 11 is_stmt 0 view .LVU122
	adds	r4, r3, #1
	strh	r4, [r0, #4]	@ movhi
	.loc 1 65 2 is_stmt 1 view .LVU123
.LVL25:
	.loc 1 65 2 is_stmt 0 view .LVU124
.LBE180:
.LBE181:
	.loc 1 83 2 is_stmt 1 view .LVU125
	.loc 1 83 6 is_stmt 0 view .LVU126
	strb	r1, [r2, r3]
	.loc 1 85 2 is_stmt 1 view .LVU127
	.loc 1 86 1 is_stmt 0 view .LVU128
	adds	r0, r2, r3
.LVL26:
	.loc 1 86 1 view .LVU129
	pop	{r4, pc}
	.cfi_endproc
.LFE562:
	.size	net_buf_simple_add_u8, .-net_buf_simple_add_u8
	.section	.text.net_buf_simple_add_le16,"ax",%progbits
	.align	1
	.global	net_buf_simple_add_le16
	.syntax unified
	.thumb
	.thumb_func
	.type	net_buf_simple_add_le16, %function
net_buf_simple_add_le16:
.LVL27:
.LFB563:
	.loc 1 89 1 is_stmt 1 view -0
	.cfi_startproc
	@ args = 0, pretend = 0, frame = 0
	@ frame_needed = 0, uses_anonymous_args = 0
	.loc 1 90 2 view .LVU131
	.loc 1 92 2 view .LVU132
.LBB182:
.LBI182:
	.loc 1 56 7 view .LVU133
.LBB183:
	.loc 1 58 2 view .LVU134
.LBB184:
.LBI184:
	.loc 4 805 24 view .LVU135
.LBB185:
	.loc 4 807 2 view .LVU136
	.loc 4 807 24 is_stmt 0 view .LVU137
	ldrh	r3, [r0, #4]
	.loc 4 807 19 view .LVU138
	ldr	r2, [r0]
.LBE185:
.LBE184:
.LBE183:
.LBE182:
	.loc 1 89 1 view .LVU139
	push	{r4, r5, lr}
	.cfi_def_cfa_offset 12
	.cfi_offset 4, -12
	.cfi_offset 5, -8
	.cfi_offset 14, -4
.LBB189:
.LBB188:
.LBB187:
.LBB186:
	.loc 4 807 19 view .LVU140
	adds	r4, r2, r3
.LVL28:
	.loc 4 807 19 view .LVU141
.LBE186:
.LBE187:
	.loc 1 60 2 is_stmt 1 view .LVU142
	.loc 1 62 4 view .LVU143
	.loc 1 62 5 view .LVU144
	.loc 1 64 2 view .LVU145
	.loc 1 64 11 is_stmt 0 view .LVU146
	adds	r5, r3, #2
	strh	r5, [r0, #4]	@ movhi
	.loc 1 65 2 is_stmt 1 view .LVU147
.LVL29:
	.loc 1 65 2 is_stmt 0 view .LVU148
.LBE188:
.LBE189:
.LBB190:
.LBI190:
	.loc 2 384 20 is_stmt 1 view .LVU149
.LBB191:
	.loc 2 386 2 view .LVU150
	.loc 2 386 9 is_stmt 0 view .LVU151
	strb	r1, [r2, r3]
	.loc 2 387 2 is_stmt 1 view .LVU152
	.loc 2 387 9 is_stmt 0 view .LVU153
	lsrs	r1, r1, #8
.LVL30:
	.loc 2 387 9 view .LVU154
	strb	r1, [r4, #1]
.LVL31:
	.loc 2 387 9 view .LVU155
.LBE191:
.LBE190:
	.loc 1 93 1 view .LVU156
	pop	{r4, r5, pc}
	.loc 1 93 1 view .LVU157
	.cfi_endproc
.LFE563:
	.size	net_buf_simple_add_le16, .-net_buf_simple_add_le16
	.section	.text.net_buf_simple_add_be16,"ax",%progbits
	.align	1
	.global	net_buf_simple_add_be16
	.syntax unified
	.thumb
	.thumb_func
	.type	net_buf_simple_add_be16, %function
net_buf_simple_add_be16:
.LVL32:
.LFB564:
	.loc 1 96 1 is_stmt 1 view -0
	.cfi_startproc
	@ args = 0, pretend = 0, frame = 0
	@ frame_needed = 0, uses_anonymous_args = 0
	.loc 1 97 2 view .LVU159
	.loc 1 99 2 view .LVU160
.LBB192:
.LBI192:
	.loc 1 56 7 view .LVU161
.LBB193:
	.loc 1 58 2 view .LVU162
.LBB194:
.LBI194:
	.loc 4 805 24 view .LVU163
.LBB195:
	.loc 4 807 2 view .LVU164
.LBE195:
.LBE194:
.LBE193:
.LBE192:
	.loc 1 96 1 is_stmt 0 view .LVU165
	push	{r4, r5, lr}
	.cfi_def_cfa_offset 12
	.cfi_offset 4, -12
	.cfi_offset 5, -8
	.cfi_offset 14, -4
.LBB201:
.LBB200:
.LBB198:
.LBB196:
	.loc 4 807 24 view .LVU166
	ldrh	r3, [r0, #4]
	.loc 4 807 19 view .LVU167
	ldr	r2, [r0]
.LBE196:
.LBE198:
	.loc 1 64 11 view .LVU168
	adds	r5, r3, #2
	strh	r5, [r0, #4]	@ movhi
.LBB199:
.LBB197:
	.loc 4 807 19 view .LVU169
	adds	r4, r2, r3
.LVL33:
	.loc 4 807 19 view .LVU170
.LBE197:
.LBE199:
	.loc 1 60 2 is_stmt 1 view .LVU171
	.loc 1 62 4 view .LVU172
	.loc 1 62 5 view .LVU173
	.loc 1 64 2 view .LVU174
	.loc 1 65 2 view .LVU175
	.loc 1 65 2 is_stmt 0 view .LVU176
.LBE200:
.LBE201:
.LBB202:
.LBI202:
	.loc 2 309 20 is_stmt 1 view .LVU177
.LBB203:
	.loc 2 311 2 view .LVU178
	.loc 2 311 9 is_stmt 0 view .LVU179
	lsrs	r0, r1, #8
.LVL34:
	.loc 2 311 9 view .LVU180
	strb	r0, [r2, r3]
	.loc 2 312 2 is_stmt 1 view .LVU181
	.loc 2 312 9 is_stmt 0 view .LVU182
	strb	r1, [r4, #1]
.LVL35:
	.loc 2 312 9 view .LVU183
.LBE203:
.LBE202:
	.loc 1 100 1 view .LVU184
	pop	{r4, r5, pc}
	.loc 1 100 1 view .LVU185
	.cfi_endproc
.LFE564:
	.size	net_buf_simple_add_be16, .-net_buf_simple_add_be16
	.section	.text.net_buf_simple_add_le24,"ax",%progbits
	.align	1
	.global	net_buf_simple_add_le24
	.syntax unified
	.thumb
	.thumb_func
	.type	net_buf_simple_add_le24, %function
net_buf_simple_add_le24:
.LVL36:
.LFB565:
	.loc 1 103 1 is_stmt 1 view -0
	.cfi_startproc
	@ args = 0, pretend = 0, frame = 0
	@ frame_needed = 0, uses_anonymous_args = 0
	.loc 1 104 2 view .LVU187
	.loc 1 106 2 view .LVU188
.LBB212:
.LBI212:
	.loc 1 56 7 view .LVU189
.LBB213:
	.loc 1 58 2 view .LVU190
.LBB214:
.LBI214:
	.loc 4 805 24 view .LVU191
.LBB215:
	.loc 4 807 2 view .LVU192
	.loc 4 807 24 is_stmt 0 view .LVU193
	ldrh	r3, [r0, #4]
.LBE215:
.LBE214:
.LBE213:
.LBE212:
	.loc 1 103 1 view .LVU194
	push	{r4, r5, lr}
	.cfi_def_cfa_offset 12
	.cfi_offset 4, -12
	.cfi_offset 5, -8
	.cfi_offset 14, -4
.LBB221:
.LBB220:
.LBB218:
.LBB216:
	.loc 4 807 19 view .LVU195
	ldr	r4, [r0]
.LBE216:
.LBE218:
	.loc 1 64 11 view .LVU196
	adds	r5, r3, #3
.LBB219:
.LBB217:
	.loc 4 807 19 view .LVU197
	adds	r2, r4, r3
.LVL37:
	.loc 4 807 19 view .LVU198
.LBE217:
.LBE219:
	.loc 1 60 2 is_stmt 1 view .LVU199
	.loc 1 62 4 view .LVU200
	.loc 1 62 5 view .LVU201
	.loc 1 64 2 view .LVU202
	.loc 1 64 11 is_stmt 0 view .LVU203
	strh	r5, [r0, #4]	@ movhi
	.loc 1 65 2 is_stmt 1 view .LVU204
.LVL38:
	.loc 1 65 2 is_stmt 0 view .LVU205
.LBE220:
.LBE221:
.LBB222:
.LBI222:
	.loc 2 399 20 is_stmt 1 view .LVU206
.LBB223:
	.loc 2 401 2 view .LVU207
.LBB224:
.LBI224:
	.loc 2 384 20 view .LVU208
.LBB225:
	.loc 2 386 2 view .LVU209
	.loc 2 386 9 is_stmt 0 view .LVU210
	strb	r1, [r4, r3]
	.loc 2 387 2 is_stmt 1 view .LVU211
	.loc 2 387 9 is_stmt 0 view .LVU212
	ubfx	r3, r1, #8, #8
.LBE225:
.LBE224:
	.loc 2 402 15 view .LVU213
	lsrs	r1, r1, #16
.LVL39:
.LBB227:
.LBB226:
	.loc 2 387 9 view .LVU214
	strb	r3, [r2, #1]
.LVL40:
	.loc 2 387 9 view .LVU215
.LBE226:
.LBE227:
	.loc 2 402 2 is_stmt 1 view .LVU216
	.loc 2 402 9 is_stmt 0 view .LVU217
	strb	r1, [r2, #2]
.LVL41:
	.loc 2 402 9 view .LVU218
.LBE223:
.LBE222:
	.loc 1 107 1 view .LVU219
	pop	{r4, r5, pc}
	.cfi_endproc
.LFE565:
	.size	net_buf_simple_add_le24, .-net_buf_simple_add_le24
	.section	.text.net_buf_simple_add_be24,"ax",%progbits
	.align	1
	.global	net_buf_simple_add_be24
	.syntax unified
	.thumb
	.thumb_func
	.type	net_buf_simple_add_be24, %function
net_buf_simple_add_be24:
.LVL42:
.LFB566:
	.loc 1 110 1 is_stmt 1 view -0
	.cfi_startproc
	@ args = 0, pretend = 0, frame = 0
	@ frame_needed = 0, uses_anonymous_args = 0
	.loc 1 111 2 view .LVU221
	.loc 1 113 2 view .LVU222
.LBB236:
.LBI236:
	.loc 1 56 7 view .LVU223
.LBB237:
	.loc 1 58 2 view .LVU224
.LBB238:
.LBI238:
	.loc 4 805 24 view .LVU225
.LBB239:
	.loc 4 807 2 view .LVU226
.LBE239:
.LBE238:
.LBE237:
.LBE236:
	.loc 1 110 1 is_stmt 0 view .LVU227
	push	{r4, r5, lr}
	.cfi_def_cfa_offset 12
	.cfi_offset 4, -12
	.cfi_offset 5, -8
	.cfi_offset 14, -4
.LBB245:
.LBB244:
.LBB242:
.LBB240:
	.loc 4 807 24 view .LVU228
	ldrh	r3, [r0, #4]
	.loc 4 807 19 view .LVU229
	ldr	r4, [r0]
.LBE240:
.LBE242:
	.loc 1 64 11 view .LVU230
	adds	r5, r3, #3
	strh	r5, [r0, #4]	@ movhi
.LBB243:
.LBB241:
	.loc 4 807 19 view .LVU231
	adds	r2, r4, r3
.LVL43:
	.loc 4 807 19 view .LVU232
.LBE241:
.LBE243:
	.loc 1 60 2 is_stmt 1 view .LVU233
	.loc 1 62 4 view .LVU234
	.loc 1 62 5 view .LVU235
	.loc 1 64 2 view .LVU236
	.loc 1 65 2 view .LVU237
	.loc 1 65 2 is_stmt 0 view .LVU238
.LBE244:
.LBE245:
.LBB246:
.LBI246:
	.loc 2 324 20 is_stmt 1 view .LVU239
.LBB247:
	.loc 2 326 2 view .LVU240
	.loc 2 326 15 is_stmt 0 view .LVU241
	lsrs	r0, r1, #16
.LVL44:
	.loc 2 326 9 view .LVU242
	strb	r0, [r4, r3]
	.loc 2 327 2 is_stmt 1 view .LVU243
.LVL45:
.LBB248:
.LBI248:
	.loc 2 309 20 view .LVU244
.LBB249:
	.loc 2 311 2 view .LVU245
	.loc 2 311 9 is_stmt 0 view .LVU246
	ubfx	r3, r1, #8, #8
	strb	r3, [r2, #1]
	.loc 2 312 2 is_stmt 1 view .LVU247
	.loc 2 312 9 is_stmt 0 view .LVU248
	strb	r1, [r2, #2]
.LVL46:
	.loc 2 312 9 view .LVU249
.LBE249:
.LBE248:
.LBE247:
.LBE246:
	.loc 1 114 1 view .LVU250
	pop	{r4, r5, pc}
	.cfi_endproc
.LFE566:
	.size	net_buf_simple_add_be24, .-net_buf_simple_add_be24
	.section	.text.net_buf_simple_add_le32,"ax",%progbits
	.align	1
	.global	net_buf_simple_add_le32
	.syntax unified
	.thumb
	.thumb_func
	.type	net_buf_simple_add_le32, %function
net_buf_simple_add_le32:
.LVL47:
.LFB567:
	.loc 1 117 1 is_stmt 1 view -0
	.cfi_startproc
	@ args = 0, pretend = 0, frame = 0
	@ frame_needed = 0, uses_anonymous_args = 0
	@ link register save eliminated.
	.loc 1 118 2 view .LVU252
	.loc 1 120 2 view .LVU253
	.loc 1 117 1 is_stmt 0 view .LVU254
	mov	r3, r0
.LVL48:
.LBB250:
.LBI250:
	.loc 1 56 7 is_stmt 1 view .LVU255
.LBB251:
	.loc 1 58 2 view .LVU256
.LBB252:
.LBI252:
	.loc 4 805 24 view .LVU257
.LBB253:
	.loc 4 807 2 view .LVU258
.LBE253:
.LBE252:
.LBE251:
.LBE250:
	.loc 1 117 1 is_stmt 0 view .LVU259
	mov	r0, r1
.LVL49:
.LBB258:
.LBB256:
.LBB255:
.LBB254:
	.loc 4 807 24 view .LVU260
	ldrh	r2, [r3, #4]
	.loc 4 807 19 view .LVU261
	ldr	r1, [r3]
.LVL50:
	.loc 4 807 19 view .LVU262
.LBE254:
.LBE255:
	.loc 1 60 2 is_stmt 1 view .LVU263
	.loc 1 62 4 view .LVU264
	.loc 1 62 5 view .LVU265
	.loc 1 64 2 view .LVU266
.LBE256:
.LBE258:
	.loc 1 117 1 is_stmt 0 view .LVU267
	push	{r4}
	.cfi_def_cfa_offset 4
	.cfi_offset 4, -4
.LBB259:
.LBB257:
	.loc 1 64 11 view .LVU268
	adds	r4, r2, #4
	strh	r4, [r3, #4]	@ movhi
	.loc 1 65 2 is_stmt 1 view .LVU269
.LVL51:
	.loc 1 65 2 is_stmt 0 view .LVU270
.LBE257:
.LBE259:
	.loc 1 120 2 view .LVU271
	add	r1, r1, r2
.LVL52:
	.loc 1 121 1 view .LVU272
	ldr	r4, [sp], #4
	.cfi_restore 4
	.cfi_def_cfa_offset 0
	.loc 1 120 2 view .LVU273
	b	sys_put_le32
.LVL53:
	.loc 1 120 2 view .LVU274
	.cfi_endproc
.LFE567:
	.size	net_buf_simple_add_le32, .-net_buf_simple_add_le32
	.section	.text.net_buf_simple_add_be32,"ax",%progbits
	.align	1
	.global	net_buf_simple_add_be32
	.syntax unified
	.thumb
	.thumb_func
	.type	net_buf_simple_add_be32, %function
net_buf_simple_add_be32:
.LVL54:
.LFB568:
	.loc 1 124 1 is_stmt 1 view -0
	.cfi_startproc
	@ args = 0, pretend = 0, frame = 0
	@ frame_needed = 0, uses_anonymous_args = 0
	@ link register save eliminated.
	.loc 1 125 2 view .LVU276
	.loc 1 127 2 view .LVU277
	.loc 1 124 1 is_stmt 0 view .LVU278
	mov	r3, r0
.LVL55:
.LBB260:
.LBI260:
	.loc 1 56 7 is_stmt 1 view .LVU279
.LBB261:
	.loc 1 58 2 view .LVU280
.LBB262:
.LBI262:
	.loc 4 805 24 view .LVU281
.LBB263:
	.loc 4 807 2 view .LVU282
.LBE263:
.LBE262:
.LBE261:
.LBE260:
	.loc 1 124 1 is_stmt 0 view .LVU283
	mov	r0, r1
.LVL56:
.LBB268:
.LBB266:
.LBB265:
.LBB264:
	.loc 4 807 24 view .LVU284
	ldrh	r2, [r3, #4]
	.loc 4 807 19 view .LVU285
	ldr	r1, [r3]
.LVL57:
	.loc 4 807 19 view .LVU286
.LBE264:
.LBE265:
	.loc 1 60 2 is_stmt 1 view .LVU287
	.loc 1 62 4 view .LVU288
	.loc 1 62 5 view .LVU289
	.loc 1 64 2 view .LVU290
.LBE266:
.LBE268:
	.loc 1 124 1 is_stmt 0 view .LVU291
	push	{r4}
	.cfi_def_cfa_offset 4
	.cfi_offset 4, -4
.LBB269:
.LBB267:
	.loc 1 64 11 view .LVU292
	adds	r4, r2, #4
	strh	r4, [r3, #4]	@ movhi
	.loc 1 65 2 is_stmt 1 view .LVU293
.LVL58:
	.loc 1 65 2 is_stmt 0 view .LVU294
.LBE267:
.LBE269:
	.loc 1 127 2 view .LVU295
	add	r1, r1, r2
.LVL59:
	.loc 1 128 1 view .LVU296
	ldr	r4, [sp], #4
	.cfi_restore 4
	.cfi_def_cfa_offset 0
	.loc 1 127 2 view .LVU297
	b	sys_put_be32
.LVL60:
	.loc 1 127 2 view .LVU298
	.cfi_endproc
.LFE568:
	.size	net_buf_simple_add_be32, .-net_buf_simple_add_be32
	.section	.text.net_buf_simple_add_le48,"ax",%progbits
	.align	1
	.global	net_buf_simple_add_le48
	.syntax unified
	.thumb
	.thumb_func
	.type	net_buf_simple_add_le48, %function
net_buf_simple_add_le48:
.LVL61:
.LFB569:
	.loc 1 131 1 is_stmt 1 view -0
	.cfi_startproc
	@ args = 0, pretend = 0, frame = 0
	@ frame_needed = 0, uses_anonymous_args = 0
	.loc 1 132 2 view .LVU300
	.loc 1 134 2 view .LVU301
.LBB278:
.LBI278:
	.loc 1 56 7 view .LVU302
.LBB279:
	.loc 1 58 2 view .LVU303
.LBB280:
.LBI280:
	.loc 4 805 24 view .LVU304
.LBB281:
	.loc 4 807 2 view .LVU305
.LBE281:
.LBE280:
.LBE279:
.LBE278:
	.loc 1 131 1 is_stmt 0 view .LVU306
	push	{r3, r4, r5, lr}
	.cfi_def_cfa_offset 16
	.cfi_offset 3, -16
	.cfi_offset 4, -12
	.cfi_offset 5, -8
	.cfi_offset 14, -4
	.loc 1 131 1 view .LVU307
	mov	r4, r3
.LBB285:
.LBB284:
.LBB283:
.LBB282:
	.loc 4 807 19 view .LVU308
	ldr	r1, [r0]
	.loc 4 807 24 view .LVU309
	ldrh	r3, [r0, #4]
	.loc 4 807 19 view .LVU310
	add	r1, r1, r3
.LVL62:
	.loc 4 807 19 view .LVU311
.LBE282:
.LBE283:
	.loc 1 60 2 is_stmt 1 view .LVU312
	.loc 1 62 4 view .LVU313
	.loc 1 62 5 view .LVU314
	.loc 1 64 2 view .LVU315
	.loc 1 64 11 is_stmt 0 view .LVU316
	adds	r3, r3, #6
	strh	r3, [r0, #4]	@ movhi
	.loc 1 65 2 is_stmt 1 view .LVU317
.LVL63:
	.loc 1 65 2 is_stmt 0 view .LVU318
.LBE284:
.LBE285:
.LBB286:
.LBI286:
	.loc 2 429 20 is_stmt 1 view .LVU319
.LBB287:
	.loc 2 431 2 view .LVU320
	mov	r0, r2
.LVL64:
	.loc 2 431 2 is_stmt 0 view .LVU321
	bl	sys_put_le32
.LVL65:
	.loc 2 432 2 is_stmt 1 view .LVU322
.LBB288:
.LBI288:
	.loc 2 384 20 view .LVU323
.LBB289:
	.loc 2 386 2 view .LVU324
	.loc 2 386 9 is_stmt 0 view .LVU325
	strb	r4, [r1, #4]
	.loc 2 387 2 is_stmt 1 view .LVU326
	.loc 2 387 9 is_stmt 0 view .LVU327
	ubfx	r4, r4, #8, #8
.LVL66:
	.loc 2 387 9 view .LVU328
	strb	r4, [r1, #5]
.LVL67:
	.loc 2 387 9 view .LVU329
.LBE289:
.LBE288:
.LBE287:
.LBE286:
	.loc 1 135 1 view .LVU330
	pop	{r3, r4, r5, pc}
	.cfi_endproc
.LFE569:
	.size	net_buf_simple_add_le48, .-net_buf_simple_add_le48
	.section	.text.net_buf_simple_add_be48,"ax",%progbits
	.align	1
	.global	net_buf_simple_add_be48
	.syntax unified
	.thumb
	.thumb_func
	.type	net_buf_simple_add_be48, %function
net_buf_simple_add_be48:
.LVL68:
.LFB570:
	.loc 1 138 1 is_stmt 1 view -0
	.cfi_startproc
	@ args = 0, pretend = 0, frame = 0
	@ frame_needed = 0, uses_anonymous_args = 0
	@ link register save eliminated.
	.loc 1 139 2 view .LVU332
	.loc 1 141 2 view .LVU333
.LBB298:
.LBI298:
	.loc 1 56 7 view .LVU334
.LBB299:
	.loc 1 58 2 view .LVU335
.LBB300:
.LBI300:
	.loc 4 805 24 view .LVU336
.LBB301:
	.loc 4 807 2 view .LVU337
.LBE301:
.LBE300:
.LBE299:
.LBE298:
	.loc 1 138 1 is_stmt 0 view .LVU338
	push	{r4, r5, r6}
	.cfi_def_cfa_offset 12
	.cfi_offset 4, -12
	.cfi_offset 5, -8
	.cfi_offset 6, -4
.LBB308:
.LBB306:
.LBB304:
.LBB302:
	.loc 4 807 24 view .LVU339
	ldrh	r5, [r0, #4]
	.loc 4 807 19 view .LVU340
	ldr	r6, [r0]
.LBE302:
.LBE304:
.LBE306:
.LBE308:
	.loc 1 138 1 view .LVU341
	mov	r4, r0
.LBB309:
.LBB307:
	.loc 1 64 11 view .LVU342
	adds	r0, r5, #6
.LVL69:
	.loc 1 64 11 view .LVU343
	strh	r0, [r4, #4]	@ movhi
.LBB305:
.LBB303:
	.loc 4 807 19 view .LVU344
	adds	r1, r6, r5
.LVL70:
	.loc 4 807 19 view .LVU345
.LBE303:
.LBE305:
	.loc 1 60 2 is_stmt 1 view .LVU346
	.loc 1 62 4 view .LVU347
	.loc 1 62 5 view .LVU348
	.loc 1 64 2 view .LVU349
	.loc 1 65 2 view .LVU350
	.loc 1 65 2 is_stmt 0 view .LVU351
.LBE307:
.LBE309:
.LBB310:
.LBI310:
	.loc 2 354 20 is_stmt 1 view .LVU352
.LBB311:
	.loc 2 356 2 view .LVU353
.LBB312:
.LBI312:
	.loc 2 309 20 view .LVU354
.LBB313:
	.loc 2 311 2 view .LVU355
	.loc 2 311 9 is_stmt 0 view .LVU356
	ubfx	r0, r3, #8, #8
	strb	r0, [r6, r5]
	.loc 2 312 2 is_stmt 1 view .LVU357
	.loc 2 312 9 is_stmt 0 view .LVU358
	strb	r3, [r1, #1]
.LVL71:
	.loc 2 312 9 view .LVU359
.LBE313:
.LBE312:
	.loc 2 357 2 is_stmt 1 view .LVU360
.LBE311:
.LBE310:
	.loc 1 142 1 is_stmt 0 view .LVU361
	pop	{r4, r5, r6}
	.cfi_restore 6
	.cfi_restore 5
	.cfi_restore 4
	.cfi_def_cfa_offset 0
.LVL72:
.LBB315:
.LBB314:
	.loc 2 357 2 view .LVU362
	adds	r1, r1, #2
.LVL73:
	.loc 2 357 2 view .LVU363
	mov	r0, r2
	b	sys_put_be32
.LVL74:
	.loc 2 357 2 view .LVU364
.LBE314:
.LBE315:
	.cfi_endproc
.LFE570:
	.size	net_buf_simple_add_be48, .-net_buf_simple_add_be48
	.section	.text.net_buf_simple_add_le64,"ax",%progbits
	.align	1
	.global	net_buf_simple_add_le64
	.syntax unified
	.thumb
	.thumb_func
	.type	net_buf_simple_add_le64, %function
net_buf_simple_add_le64:
.LVL75:
.LFB571:
	.loc 1 145 1 is_stmt 1 view -0
	.cfi_startproc
	@ args = 0, pretend = 0, frame = 0
	@ frame_needed = 0, uses_anonymous_args = 0
	.loc 1 146 2 view .LVU366
	.loc 1 148 2 view .LVU367
.LBB322:
.LBI322:
	.loc 1 56 7 view .LVU368
.LBB323:
	.loc 1 58 2 view .LVU369
.LBB324:
.LBI324:
	.loc 4 805 24 view .LVU370
.LBB325:
	.loc 4 807 2 view .LVU371
.LBE325:
.LBE324:
.LBE323:
.LBE322:
	.loc 1 145 1 is_stmt 0 view .LVU372
	push	{r4, r5, r6, lr}
	.cfi_def_cfa_offset 16
	.cfi_offset 4, -16
	.cfi_offset 5, -12
	.cfi_offset 6, -8
	.cfi_offset 14, -4
.LBB330:
.LBB328:
.LBB327:
.LBB326:
	.loc 4 807 24 view .LVU373
	ldrh	r5, [r0, #4]
	.loc 4 807 19 view .LVU374
	ldr	r1, [r0]
	add	r1, r1, r5
.LVL76:
	.loc 4 807 19 view .LVU375
.LBE326:
.LBE327:
	.loc 1 60 2 is_stmt 1 view .LVU376
	.loc 1 62 4 view .LVU377
	.loc 1 62 5 view .LVU378
	.loc 1 64 2 view .LVU379
	.loc 1 64 11 is_stmt 0 view .LVU380
	adds	r5, r5, #8
.LBE328:
.LBE330:
	.loc 1 145 1 view .LVU381
	mov	r6, r3
.LBB331:
.LBB329:
	.loc 1 64 11 view .LVU382
	strh	r5, [r0, #4]	@ movhi
	.loc 1 65 2 is_stmt 1 view .LVU383
.LVL77:
	.loc 1 65 2 is_stmt 0 view .LVU384
.LBE329:
.LBE331:
.LBB332:
.LBI332:
	.loc 2 444 20 is_stmt 1 view .LVU385
.LBB333:
	.loc 2 446 2 view .LVU386
	mov	r0, r2
.LVL78:
	.loc 2 446 2 is_stmt 0 view .LVU387
	bl	sys_put_le32
.LVL79:
	.loc 2 447 2 is_stmt 1 view .LVU388
	mov	r0, r6
	adds	r1, r1, #4
.LVL80:
	.loc 2 447 2 is_stmt 0 view .LVU389
.LBE333:
.LBE332:
	.loc 1 149 1 view .LVU390
	pop	{r4, r5, r6, lr}
	.cfi_restore 14
	.cfi_restore 6
	.cfi_restore 5
	.cfi_restore 4
	.cfi_def_cfa_offset 0
.LVL81:
.LBB335:
.LBB334:
	.loc 2 447 2 view .LVU391
	b	sys_put_le32
.LVL82:
	.loc 2 447 2 view .LVU392
.LBE334:
.LBE335:
	.cfi_endproc
.LFE571:
	.size	net_buf_simple_add_le64, .-net_buf_simple_add_le64
	.section	.text.net_buf_simple_add_be64,"ax",%progbits
	.align	1
	.global	net_buf_simple_add_be64
	.syntax unified
	.thumb
	.thumb_func
	.type	net_buf_simple_add_be64, %function
net_buf_simple_add_be64:
.LVL83:
.LFB572:
	.loc 1 152 1 is_stmt 1 view -0
	.cfi_startproc
	@ args = 0, pretend = 0, frame = 0
	@ frame_needed = 0, uses_anonymous_args = 0
	.loc 1 153 2 view .LVU394
	.loc 1 155 2 view .LVU395
.LBB342:
.LBI342:
	.loc 1 56 7 view .LVU396
.LBB343:
	.loc 1 58 2 view .LVU397
.LBB344:
.LBI344:
	.loc 4 805 24 view .LVU398
.LBB345:
	.loc 4 807 2 view .LVU399
.LBE345:
.LBE344:
.LBE343:
.LBE342:
	.loc 1 152 1 is_stmt 0 view .LVU400
	push	{r4, r5, r6, lr}
	.cfi_def_cfa_offset 16
	.cfi_offset 4, -16
	.cfi_offset 5, -12
	.cfi_offset 6, -8
	.cfi_offset 14, -4
.LBB350:
.LBB348:
.LBB347:
.LBB346:
	.loc 4 807 24 view .LVU401
	ldrh	r5, [r0, #4]
	.loc 4 807 19 view .LVU402
	ldr	r1, [r0]
	add	r1, r1, r5
.LVL84:
	.loc 4 807 19 view .LVU403
.LBE346:
.LBE347:
	.loc 1 60 2 is_stmt 1 view .LVU404
	.loc 1 62 4 view .LVU405
	.loc 1 62 5 view .LVU406
	.loc 1 64 2 view .LVU407
	.loc 1 64 11 is_stmt 0 view .LVU408
	adds	r5, r5, #8
.LBE348:
.LBE350:
	.loc 1 152 1 view .LVU409
	mov	r6, r2
.LBB351:
.LBB349:
	.loc 1 64 11 view .LVU410
	strh	r5, [r0, #4]	@ movhi
	.loc 1 65 2 is_stmt 1 view .LVU411
.LVL85:
	.loc 1 65 2 is_stmt 0 view .LVU412
.LBE349:
.LBE351:
.LBB352:
.LBI352:
	.loc 2 369 20 is_stmt 1 view .LVU413
.LBB353:
	.loc 2 371 2 view .LVU414
	mov	r0, r3
.LVL86:
	.loc 2 371 2 is_stmt 0 view .LVU415
	bl	sys_put_be32
.LVL87:
	.loc 2 372 2 is_stmt 1 view .LVU416
	mov	r0, r6
.LVL88:
	.loc 2 372 2 is_stmt 0 view .LVU417
	adds	r1, r1, #4
.LVL89:
	.loc 2 372 2 view .LVU418
.LBE353:
.LBE352:
	.loc 1 156 1 view .LVU419
	pop	{r4, r5, r6, lr}
	.cfi_restore 14
	.cfi_restore 6
	.cfi_restore 5
	.cfi_restore 4
	.cfi_def_cfa_offset 0
.LBB355:
.LBB354:
	.loc 2 372 2 view .LVU420
	b	sys_put_be32
.LVL90:
.LBE354:
.LBE355:
	.cfi_endproc
.LFE572:
	.size	net_buf_simple_add_be64, .-net_buf_simple_add_be64
	.section	.text.net_buf_simple_remove_mem,"ax",%progbits
	.align	1
	.global	net_buf_simple_remove_mem
	.syntax unified
	.thumb
	.thumb_func
	.type	net_buf_simple_remove_mem, %function
net_buf_simple_remove_mem:
.LVL91:
.LFB573:
	.loc 1 159 1 is_stmt 1 view -0
	.cfi_startproc
	@ args = 0, pretend = 0, frame = 0
	@ frame_needed = 0, uses_anonymous_args = 0
	@ link register save eliminated.
	.loc 1 160 2 view .LVU422
	.loc 1 162 4 view .LVU423
	.loc 1 162 5 view .LVU424
	.loc 1 164 2 view .LVU425
	.loc 1 164 11 is_stmt 0 view .LVU426
	ldrh	r3, [r0, #4]
	subs	r3, r3, r1
	uxth	r3, r3
	strh	r3, [r0, #4]	@ movhi
	.loc 1 165 2 is_stmt 1 view .LVU427
	.loc 1 165 19 is_stmt 0 view .LVU428
	ldr	r0, [r0]
.LVL92:
	.loc 1 166 1 view .LVU429
	add	r0, r0, r3
	bx	lr
	.cfi_endproc
.LFE573:
	.size	net_buf_simple_remove_mem, .-net_buf_simple_remove_mem
	.section	.text.net_buf_simple_remove_u8,"ax",%progbits
	.align	1
	.global	net_buf_simple_remove_u8
	.syntax unified
	.thumb
	.thumb_func
	.type	net_buf_simple_remove_u8, %function
net_buf_simple_remove_u8:
.LVL93:
.LFB574:
	.loc 1 169 1 is_stmt 1 view -0
	.cfi_startproc
	@ args = 0, pretend = 0, frame = 0
	@ frame_needed = 0, uses_anonymous_args = 0
	@ link register save eliminated.
	.loc 1 170 2 view .LVU431
	.loc 1 171 2 view .LVU432
	.loc 1 173 2 view .LVU433
.LBB356:
.LBI356:
	.loc 1 158 7 view .LVU434
.LBB357:
	.loc 1 160 2 view .LVU435
	.loc 1 162 4 view .LVU436
	.loc 1 162 5 view .LVU437
	.loc 1 164 2 view .LVU438
	.loc 1 164 11 is_stmt 0 view .LVU439
	ldrh	r3, [r0, #4]
.LBE357:
.LBE356:
	.loc 1 174 6 view .LVU440
	ldr	r2, [r0]
.LBB359:
.LBB358:
	.loc 1 164 11 view .LVU441
	subs	r3, r3, #1
	uxth	r3, r3
	strh	r3, [r0, #4]	@ movhi
	.loc 1 165 2 is_stmt 1 view .LVU442
.LVL94:
	.loc 1 165 2 is_stmt 0 view .LVU443
.LBE358:
.LBE359:
	.loc 1 174 2 is_stmt 1 view .LVU444
	.loc 1 176 2 view .LVU445
	.loc 1 177 1 is_stmt 0 view .LVU446
	ldrb	r0, [r2, r3]	@ zero_extendqisi2
.LVL95:
	.loc 1 177 1 view .LVU447
	bx	lr
	.cfi_endproc
.LFE574:
	.size	net_buf_simple_remove_u8, .-net_buf_simple_remove_u8
	.section	.text.net_buf_simple_remove_le16,"ax",%progbits
	.align	1
	.global	net_buf_simple_remove_le16
	.syntax unified
	.thumb
	.thumb_func
	.type	net_buf_simple_remove_le16, %function
net_buf_simple_remove_le16:
.LVL96:
.LFB575:
	.loc 1 180 1 is_stmt 1 view -0
	.cfi_startproc
	@ args = 0, pretend = 0, frame = 0
	@ frame_needed = 0, uses_anonymous_args = 0
	@ link register save eliminated.
	.loc 1 181 2 view .LVU449
	.loc 1 182 2 view .LVU450
	.loc 1 184 2 view .LVU451
.LBB360:
.LBI360:
	.loc 1 158 7 view .LVU452
.LBB361:
	.loc 1 160 2 view .LVU453
	.loc 1 162 4 view .LVU454
	.loc 1 162 5 view .LVU455
	.loc 1 164 2 view .LVU456
	.loc 1 164 11 is_stmt 0 view .LVU457
	ldrh	r3, [r0, #4]
.LBE361:
.LBE360:
.LBB363:
	.loc 1 185 147 view .LVU458
	ldr	r2, [r0]
.LBE363:
.LBB364:
.LBB362:
	.loc 1 164 11 view .LVU459
	subs	r3, r3, #2
	uxth	r3, r3
	strh	r3, [r0, #4]	@ movhi
	.loc 1 165 2 is_stmt 1 view .LVU460
.LVL97:
	.loc 1 165 2 is_stmt 0 view .LVU461
.LBE362:
.LBE364:
	.loc 1 185 2 is_stmt 1 view .LVU462
.LBB365:
	.loc 1 185 25 view .LVU463
	.loc 1 185 144 view .LVU464
	.loc 1 185 144 is_stmt 0 view .LVU465
.LBE365:
	.loc 1 187 2 is_stmt 1 view .LVU466
	.loc 1 188 1 is_stmt 0 view .LVU467
	ldrh	r0, [r2, r3]	@ unaligned
.LVL98:
	.loc 1 188 1 view .LVU468
	bx	lr
	.cfi_endproc
.LFE575:
	.size	net_buf_simple_remove_le16, .-net_buf_simple_remove_le16
	.section	.text.net_buf_simple_remove_be16,"ax",%progbits
	.align	1
	.global	net_buf_simple_remove_be16
	.syntax unified
	.thumb
	.thumb_func
	.type	net_buf_simple_remove_be16, %function
net_buf_simple_remove_be16:
.LVL99:
.LFB576:
	.loc 1 191 1 is_stmt 1 view -0
	.cfi_startproc
	@ args = 0, pretend = 0, frame = 0
	@ frame_needed = 0, uses_anonymous_args = 0
	@ link register save eliminated.
	.loc 1 192 2 view .LVU470
	.loc 1 193 2 view .LVU471
	.loc 1 195 2 view .LVU472
.LBB366:
.LBI366:
	.loc 1 158 7 view .LVU473
.LBB367:
	.loc 1 160 2 view .LVU474
	.loc 1 162 4 view .LVU475
	.loc 1 162 5 view .LVU476
	.loc 1 164 2 view .LVU477
	.loc 1 164 11 is_stmt 0 view .LVU478
	ldrh	r3, [r0, #4]
.LBE367:
.LBE366:
	.loc 1 198 10 view .LVU479
	ldr	r2, [r0]
.LBB369:
.LBB368:
	.loc 1 164 11 view .LVU480
	subs	r3, r3, #2
	uxth	r3, r3
	strh	r3, [r0, #4]	@ movhi
	.loc 1 165 2 is_stmt 1 view .LVU481
.LVL100:
	.loc 1 165 2 is_stmt 0 view .LVU482
.LBE368:
.LBE369:
	.loc 1 196 2 is_stmt 1 view .LVU483
.LBB370:
	.loc 1 196 25 view .LVU484
	.loc 1 196 144 view .LVU485
	.loc 1 196 144 is_stmt 0 view .LVU486
.LBE370:
	.loc 1 198 2 is_stmt 1 view .LVU487
	.loc 1 198 10 is_stmt 0 view .LVU488
	ldrh	r0, [r2, r3]	@ unaligned
.LVL101:
	.loc 1 198 10 view .LVU489
	rev16	r0, r0
	.loc 1 199 1 view .LVU490
	uxth	r0, r0
	bx	lr
	.cfi_endproc
.LFE576:
	.size	net_buf_simple_remove_be16, .-net_buf_simple_remove_be16
	.section	.text.net_buf_simple_remove_le24,"ax",%progbits
	.align	1
	.global	net_buf_simple_remove_le24
	.syntax unified
	.thumb
	.thumb_func
	.type	net_buf_simple_remove_le24, %function
net_buf_simple_remove_le24:
.LVL102:
.LFB577:
	.loc 1 202 1 is_stmt 1 view -0
	.cfi_startproc
	@ args = 0, pretend = 0, frame = 0
	@ frame_needed = 0, uses_anonymous_args = 0
	@ link register save eliminated.
	.loc 1 203 2 view .LVU492
	.loc 1 206 2 view .LVU493
	.loc 1 208 2 view .LVU494
.LBB371:
.LBI371:
	.loc 1 158 7 view .LVU495
.LBB372:
	.loc 1 160 2 view .LVU496
	.loc 1 162 4 view .LVU497
	.loc 1 162 5 view .LVU498
	.loc 1 164 2 view .LVU499
	.loc 1 164 11 is_stmt 0 view .LVU500
	ldrh	r3, [r0, #4]
.LBE372:
.LBE371:
.LBB374:
	.loc 1 209 157 view .LVU501
	ldr	r2, [r0]
.LBE374:
.LBB375:
.LBB373:
	.loc 1 164 11 view .LVU502
	subs	r3, r3, #3
	uxth	r3, r3
	strh	r3, [r0, #4]	@ movhi
	.loc 1 165 2 is_stmt 1 view .LVU503
.LVL103:
	.loc 1 165 2 is_stmt 0 view .LVU504
.LBE373:
.LBE375:
	.loc 1 209 2 is_stmt 1 view .LVU505
.LBB376:
	.loc 1 209 25 view .LVU506
	.loc 1 209 154 view .LVU507
	.loc 1 209 154 is_stmt 0 view .LVU508
.LBE376:
	.loc 1 211 2 is_stmt 1 view .LVU509
.LBB377:
	.loc 1 209 157 is_stmt 0 view .LVU510
	ldrb	r0, [r2, r3]	@ zero_extendqisi2
.LVL104:
	.loc 1 209 157 view .LVU511
	add	r3, r3, r2
.LVL105:
	.loc 1 209 157 view .LVU512
	ldrb	r2, [r3, #1]	@ zero_extendqisi2
	orr	r2, r0, r2, lsl #8
	ldrb	r0, [r3, #2]	@ zero_extendqisi2
.LBE377:
	.loc 1 212 1 view .LVU513
	orr	r0, r2, r0, lsl #16
	bx	lr
	.cfi_endproc
.LFE577:
	.size	net_buf_simple_remove_le24, .-net_buf_simple_remove_le24
	.section	.text.net_buf_simple_remove_be24,"ax",%progbits
	.align	1
	.global	net_buf_simple_remove_be24
	.syntax unified
	.thumb
	.thumb_func
	.type	net_buf_simple_remove_be24, %function
net_buf_simple_remove_be24:
.LVL106:
.LFB578:
	.loc 1 215 1 is_stmt 1 view -0
	.cfi_startproc
	@ args = 0, pretend = 0, frame = 0
	@ frame_needed = 0, uses_anonymous_args = 0
	@ link register save eliminated.
	.loc 1 216 2 view .LVU515
	.loc 1 219 2 view .LVU516
	.loc 1 221 2 view .LVU517
.LBB378:
.LBI378:
	.loc 1 158 7 view .LVU518
.LBB379:
	.loc 1 160 2 view .LVU519
	.loc 1 162 4 view .LVU520
	.loc 1 162 5 view .LVU521
	.loc 1 164 2 view .LVU522
	.loc 1 164 11 is_stmt 0 view .LVU523
	ldrh	r3, [r0, #4]
.LBE379:
.LBE378:
.LBB381:
	.loc 1 222 157 view .LVU524
	ldr	r2, [r0]
.LBE381:
.LBB382:
.LBB380:
	.loc 1 164 11 view .LVU525
	subs	r3, r3, #3
	uxth	r3, r3
	strh	r3, [r0, #4]	@ movhi
	.loc 1 165 2 is_stmt 1 view .LVU526
.LVL107:
	.loc 1 165 2 is_stmt 0 view .LVU527
.LBE380:
.LBE382:
	.loc 1 222 2 is_stmt 1 view .LVU528
.LBB383:
	.loc 1 222 25 view .LVU529
	.loc 1 222 154 view .LVU530
	.loc 1 222 157 is_stmt 0 view .LVU531
	ldrb	r0, [r2, r3]	@ zero_extendqisi2
.LVL108:
	.loc 1 222 157 view .LVU532
	add	r3, r3, r2
.LVL109:
	.loc 1 222 157 view .LVU533
	ldrb	r2, [r3, #1]	@ zero_extendqisi2
	ldrb	r3, [r3, #2]	@ zero_extendqisi2
.LVL110:
	.loc 1 222 157 view .LVU534
.LBE383:
	.loc 1 224 2 is_stmt 1 view .LVU535
	.loc 1 224 49 is_stmt 0 view .LVU536
	orr	r3, r3, r2, lsl #8
	.loc 1 225 1 view .LVU537
	orr	r0, r3, r0, lsl #16
	bx	lr
	.cfi_endproc
.LFE578:
	.size	net_buf_simple_remove_be24, .-net_buf_simple_remove_be24
	.section	.text.net_buf_simple_remove_le32,"ax",%progbits
	.align	1
	.global	net_buf_simple_remove_le32
	.syntax unified
	.thumb
	.thumb_func
	.type	net_buf_simple_remove_le32, %function
net_buf_simple_remove_le32:
.LVL111:
.LFB579:
	.loc 1 228 1 is_stmt 1 view -0
	.cfi_startproc
	@ args = 0, pretend = 0, frame = 0
	@ frame_needed = 0, uses_anonymous_args = 0
	@ link register save eliminated.
	.loc 1 229 2 view .LVU539
	.loc 1 230 2 view .LVU540
	.loc 1 232 2 view .LVU541
.LBB384:
.LBI384:
	.loc 1 158 7 view .LVU542
.LBB385:
	.loc 1 160 2 view .LVU543
	.loc 1 162 4 view .LVU544
	.loc 1 162 5 view .LVU545
	.loc 1 164 2 view .LVU546
	.loc 1 164 11 is_stmt 0 view .LVU547
	ldrh	r3, [r0, #4]
.LBE385:
.LBE384:
.LBB387:
	.loc 1 233 147 view .LVU548
	ldr	r2, [r0]
.LBE387:
.LBB388:
.LBB386:
	.loc 1 164 11 view .LVU549
	subs	r3, r3, #4
	uxth	r3, r3
	strh	r3, [r0, #4]	@ movhi
	.loc 1 165 2 is_stmt 1 view .LVU550
.LVL112:
	.loc 1 165 2 is_stmt 0 view .LVU551
.LBE386:
.LBE388:
	.loc 1 233 2 is_stmt 1 view .LVU552
.LBB389:
	.loc 1 233 25 view .LVU553
	.loc 1 233 144 view .LVU554
	.loc 1 233 144 is_stmt 0 view .LVU555
.LBE389:
	.loc 1 235 2 is_stmt 1 view .LVU556
	.loc 1 236 1 is_stmt 0 view .LVU557
	ldr	r0, [r2, r3]	@ unaligned
.LVL113:
	.loc 1 236 1 view .LVU558
	bx	lr
	.cfi_endproc
.LFE579:
	.size	net_buf_simple_remove_le32, .-net_buf_simple_remove_le32
	.section	.text.net_buf_simple_remove_be32,"ax",%progbits
	.align	1
	.global	net_buf_simple_remove_be32
	.syntax unified
	.thumb
	.thumb_func
	.type	net_buf_simple_remove_be32, %function
net_buf_simple_remove_be32:
.LVL114:
.LFB580:
	.loc 1 239 1 is_stmt 1 view -0
	.cfi_startproc
	@ args = 0, pretend = 0, frame = 0
	@ frame_needed = 0, uses_anonymous_args = 0
	@ link register save eliminated.
	.loc 1 240 2 view .LVU560
	.loc 1 241 2 view .LVU561
	.loc 1 243 2 view .LVU562
.LBB390:
.LBI390:
	.loc 1 158 7 view .LVU563
.LBB391:
	.loc 1 160 2 view .LVU564
	.loc 1 162 4 view .LVU565
	.loc 1 162 5 view .LVU566
	.loc 1 164 2 view .LVU567
	.loc 1 164 11 is_stmt 0 view .LVU568
	ldrh	r3, [r0, #4]
	ldr	r2, [r0]
	subs	r3, r3, #4
	uxth	r3, r3
	strh	r3, [r0, #4]	@ movhi
	.loc 1 165 2 is_stmt 1 view .LVU569
.LVL115:
	.loc 1 165 2 is_stmt 0 view .LVU570
.LBE391:
.LBE390:
	.loc 1 244 2 is_stmt 1 view .LVU571
.LBB392:
	.loc 1 244 25 view .LVU572
	.loc 1 244 144 view .LVU573
	.loc 1 244 144 is_stmt 0 view .LVU574
.LBE392:
	.loc 1 246 2 is_stmt 1 view .LVU575
	ldr	r0, [r2, r3]	@ unaligned
.LVL116:
	.loc 1 247 1 is_stmt 0 view .LVU576
	rev	r0, r0
	bx	lr
	.cfi_endproc
.LFE580:
	.size	net_buf_simple_remove_be32, .-net_buf_simple_remove_be32
	.section	.text.net_buf_simple_remove_le48,"ax",%progbits
	.align	1
	.global	net_buf_simple_remove_le48
	.syntax unified
	.thumb
	.thumb_func
	.type	net_buf_simple_remove_le48, %function
net_buf_simple_remove_le48:
.LVL117:
.LFB581:
	.loc 1 250 1 is_stmt 1 view -0
	.cfi_startproc
	@ args = 0, pretend = 0, frame = 0
	@ frame_needed = 0, uses_anonymous_args = 0
	.loc 1 251 2 view .LVU578
	.loc 1 254 2 view .LVU579
	.loc 1 256 2 view .LVU580
.LBB393:
.LBI393:
	.loc 1 158 7 view .LVU581
.LBB394:
	.loc 1 160 2 view .LVU582
	.loc 1 162 4 view .LVU583
	.loc 1 162 5 view .LVU584
	.loc 1 164 2 view .LVU585
.LBE394:
.LBE393:
	.loc 1 250 1 is_stmt 0 view .LVU586
	push	{r4, lr}
	.cfi_def_cfa_offset 8
	.cfi_offset 4, -8
	.cfi_offset 14, -4
.LBB397:
.LBB395:
	.loc 1 164 11 view .LVU587
	ldrh	r3, [r0, #4]
.LBE395:
.LBE397:
.LBB398:
	.loc 1 257 157 view .LVU588
	ldr	r2, [r0]
.LBE398:
.LBB399:
.LBB396:
	.loc 1 164 11 view .LVU589
	subs	r3, r3, #6
	uxth	r3, r3
	strh	r3, [r0, #4]	@ movhi
	.loc 1 165 2 is_stmt 1 view .LVU590
.LVL118:
	.loc 1 165 2 is_stmt 0 view .LVU591
.LBE396:
.LBE399:
	.loc 1 257 2 is_stmt 1 view .LVU592
.LBB400:
	.loc 1 257 25 view .LVU593
	.loc 1 257 154 view .LVU594
	.loc 1 257 154 is_stmt 0 view .LVU595
.LBE400:
	.loc 1 259 2 is_stmt 1 view .LVU596
.LBB401:
	.loc 1 257 157 is_stmt 0 view .LVU597
	adds	r0, r2, r3
.LVL119:
	.loc 1 257 157 view .LVU598
	ldrb	r1, [r0, #4]	@ zero_extendqisi2
	ldrb	r4, [r0, #5]	@ zero_extendqisi2
.LBE401:
	.loc 1 260 1 view .LVU599
	ldr	r0, [r2, r3]	@ unaligned
	orr	r1, r1, r4, lsl #8
	pop	{r4, pc}
	.cfi_endproc
.LFE581:
	.size	net_buf_simple_remove_le48, .-net_buf_simple_remove_le48
	.section	.text.net_buf_simple_remove_be48,"ax",%progbits
	.align	1
	.global	net_buf_simple_remove_be48
	.syntax unified
	.thumb
	.thumb_func
	.type	net_buf_simple_remove_be48, %function
net_buf_simple_remove_be48:
.LVL120:
.LFB582:
	.loc 1 263 1 is_stmt 1 view -0
	.cfi_startproc
	@ args = 0, pretend = 0, frame = 0
	@ frame_needed = 0, uses_anonymous_args = 0
	.loc 1 264 2 view .LVU601
	.loc 1 267 2 view .LVU602
	.loc 1 269 2 view .LVU603
.LBB402:
.LBI402:
	.loc 1 158 7 view .LVU604
.LBB403:
	.loc 1 160 2 view .LVU605
	.loc 1 162 4 view .LVU606
	.loc 1 162 5 view .LVU607
	.loc 1 164 2 view .LVU608
.LBE403:
.LBE402:
	.loc 1 263 1 is_stmt 0 view .LVU609
	push	{r4, lr}
	.cfi_def_cfa_offset 8
	.cfi_offset 4, -8
	.cfi_offset 14, -4
.LBB406:
.LBB404:
	.loc 1 164 11 view .LVU610
	ldrh	r3, [r0, #4]
.LBE404:
.LBE406:
.LBB407:
	.loc 1 270 157 view .LVU611
	ldr	r1, [r0]
.LBE407:
.LBB408:
.LBB405:
	.loc 1 164 11 view .LVU612
	subs	r3, r3, #6
	uxth	r3, r3
	strh	r3, [r0, #4]	@ movhi
	.loc 1 165 2 is_stmt 1 view .LVU613
.LVL121:
	.loc 1 165 2 is_stmt 0 view .LVU614
.LBE405:
.LBE408:
	.loc 1 270 2 is_stmt 1 view .LVU615
.LBB409:
	.loc 1 270 25 view .LVU616
	.loc 1 270 154 view .LVU617
	.loc 1 270 157 is_stmt 0 view .LVU618
	ldr	r2, [r1, r3]	@ unaligned
	add	r3, r3, r1
.LVL122:
	.loc 1 270 157 view .LVU619
.LBE409:
	.loc 1 272 197 view .LVU620
	lsls	r0, r2, #8
.LVL123:
.LBB410:
	.loc 1 270 157 view .LVU621
	ldrb	r4, [r3, #4]	@ zero_extendqisi2
.LVL124:
	.loc 1 270 157 view .LVU622
.LBE410:
	.loc 1 272 2 is_stmt 1 view .LVU623
	.loc 1 272 63 is_stmt 0 view .LVU624
	ldrb	r3, [r3, #5]	@ zero_extendqisi2
	.loc 1 272 175 view .LVU625
	orr	r3, r3, r4, lsl #8
	.loc 1 272 94 view .LVU626
	lsrs	r4, r2, #8
	.loc 1 272 100 view .LVU627
	and	r4, r4, #16711680
	.loc 1 272 197 view .LVU628
	uxth	r1, r0
	.loc 1 272 175 view .LVU629
	orrs	r3, r3, r4
	.loc 1 272 168 view .LVU630
	ubfx	r2, r2, #8, #8
	.loc 1 272 138 view .LVU631
	and	r0, r0, #-16777216
	.loc 1 273 1 view .LVU632
	orrs	r0, r0, r3
	orrs	r1, r1, r2
	pop	{r4, pc}
	.cfi_endproc
.LFE582:
	.size	net_buf_simple_remove_be48, .-net_buf_simple_remove_be48
	.section	.text.net_buf_simple_remove_le64,"ax",%progbits
	.align	1
	.global	net_buf_simple_remove_le64
	.syntax unified
	.thumb
	.thumb_func
	.type	net_buf_simple_remove_le64, %function
net_buf_simple_remove_le64:
.LVL125:
.LFB583:
	.loc 1 276 1 is_stmt 1 view -0
	.cfi_startproc
	@ args = 0, pretend = 0, frame = 0
	@ frame_needed = 0, uses_anonymous_args = 0
	@ link register save eliminated.
	.loc 1 277 2 view .LVU634
	.loc 1 278 2 view .LVU635
	.loc 1 280 2 view .LVU636
.LBB411:
.LBI411:
	.loc 1 158 7 view .LVU637
.LBB412:
	.loc 1 160 2 view .LVU638
	.loc 1 162 4 view .LVU639
	.loc 1 162 5 view .LVU640
	.loc 1 164 2 view .LVU641
	.loc 1 164 11 is_stmt 0 view .LVU642
	ldrh	r3, [r0, #4]
.LBE412:
.LBE411:
.LBB415:
	.loc 1 281 147 view .LVU643
	ldr	r2, [r0]
.LBE415:
.LBB416:
.LBB413:
	.loc 1 164 11 view .LVU644
	subs	r3, r3, #8
	uxth	r3, r3
.LBE413:
.LBE416:
.LBB417:
	.loc 1 281 147 view .LVU645
	adds	r1, r2, r3
.LBE417:
.LBB418:
.LBB414:
	.loc 1 164 11 view .LVU646
	strh	r3, [r0, #4]	@ movhi
	.loc 1 165 2 is_stmt 1 view .LVU647
.LVL126:
	.loc 1 165 2 is_stmt 0 view .LVU648
.LBE414:
.LBE418:
	.loc 1 281 2 is_stmt 1 view .LVU649
.LBB419:
	.loc 1 281 25 view .LVU650
	.loc 1 281 144 view .LVU651
	.loc 1 281 144 is_stmt 0 view .LVU652
.LBE419:
	.loc 1 283 2 is_stmt 1 view .LVU653
	.loc 1 284 1 is_stmt 0 view .LVU654
	ldr	r0, [r2, r3]	@ unaligned
.LVL127:
	.loc 1 284 1 view .LVU655
	ldr	r1, [r1, #4]	@ unaligned
	bx	lr
	.cfi_endproc
.LFE583:
	.size	net_buf_simple_remove_le64, .-net_buf_simple_remove_le64
	.section	.text.net_buf_simple_remove_be64,"ax",%progbits
	.align	1
	.global	net_buf_simple_remove_be64
	.syntax unified
	.thumb
	.thumb_func
	.type	net_buf_simple_remove_be64, %function
net_buf_simple_remove_be64:
.LVL128:
.LFB584:
	.loc 1 287 1 is_stmt 1 view -0
	.cfi_startproc
	@ args = 0, pretend = 0, frame = 0
	@ frame_needed = 0, uses_anonymous_args = 0
	@ link register save eliminated.
	.loc 1 288 2 view .LVU657
	.loc 1 289 2 view .LVU658
	.loc 1 291 2 view .LVU659
.LBB420:
.LBI420:
	.loc 1 158 7 view .LVU660
.LBB421:
	.loc 1 160 2 view .LVU661
	.loc 1 162 4 view .LVU662
	.loc 1 162 5 view .LVU663
	.loc 1 164 2 view .LVU664
	.loc 1 164 11 is_stmt 0 view .LVU665
	ldrh	r3, [r0, #4]
	ldr	r2, [r0]
	subs	r3, r3, #8
	uxth	r3, r3
	strh	r3, [r0, #4]	@ movhi
	.loc 1 165 2 is_stmt 1 view .LVU666
.LVL129:
	.loc 1 165 2 is_stmt 0 view .LVU667
.LBE421:
.LBE420:
	.loc 1 292 2 is_stmt 1 view .LVU668
.LBB422:
	.loc 1 292 25 view .LVU669
	.loc 1 292 144 view .LVU670
	.loc 1 292 144 is_stmt 0 view .LVU671
.LBE422:
	.loc 1 294 2 is_stmt 1 view .LVU672
	adds	r0, r2, r3
.LVL130:
	.loc 1 294 2 is_stmt 0 view .LVU673
	ldr	r1, [r2, r3]	@ unaligned
	ldr	r0, [r0, #4]	@ unaligned
	.loc 1 295 1 view .LVU674
	rev	r1, r1
	rev	r0, r0
	bx	lr
	.cfi_endproc
.LFE584:
	.size	net_buf_simple_remove_be64, .-net_buf_simple_remove_be64
	.section	.text.net_buf_simple_push,"ax",%progbits
	.align	1
	.global	net_buf_simple_push
	.syntax unified
	.thumb
	.thumb_func
	.type	net_buf_simple_push, %function
net_buf_simple_push:
.LVL131:
.LFB585:
	.loc 1 298 1 is_stmt 1 view -0
	.cfi_startproc
	@ args = 0, pretend = 0, frame = 0
	@ frame_needed = 0, uses_anonymous_args = 0
	@ link register save eliminated.
	.loc 1 299 2 view .LVU676
	.loc 1 301 4 view .LVU677
	.loc 1 301 5 view .LVU678
	.loc 1 303 2 view .LVU679
	.loc 1 298 1 is_stmt 0 view .LVU680
	mov	r3, r0
	.loc 1 303 12 view .LVU681
	ldr	r0, [r0]
.LVL132:
	.loc 1 304 11 view .LVU682
	ldrh	r2, [r3, #4]
	.loc 1 303 12 view .LVU683
	subs	r0, r0, r1
	.loc 1 304 11 view .LVU684
	add	r1, r1, r2
.LVL133:
	.loc 1 303 12 view .LVU685
	str	r0, [r3]
	.loc 1 304 2 is_stmt 1 view .LVU686
	.loc 1 304 11 is_stmt 0 view .LVU687
	strh	r1, [r3, #4]	@ movhi
	.loc 1 305 2 is_stmt 1 view .LVU688
	.loc 1 306 1 is_stmt 0 view .LVU689
	bx	lr
	.cfi_endproc
.LFE585:
	.size	net_buf_simple_push, .-net_buf_simple_push
	.section	.text.net_buf_simple_push_mem,"ax",%progbits
	.align	1
	.global	net_buf_simple_push_mem
	.syntax unified
	.thumb
	.thumb_func
	.type	net_buf_simple_push_mem, %function
net_buf_simple_push_mem:
.LVL134:
.LFB586:
	.loc 1 310 1 is_stmt 1 view -0
	.cfi_startproc
	@ args = 0, pretend = 0, frame = 0
	@ frame_needed = 0, uses_anonymous_args = 0
	.loc 1 311 2 view .LVU691
	.loc 1 313 2 view .LVU692
	.loc 1 310 1 is_stmt 0 view .LVU693
	push	{r3, r4, r5, lr}
	.cfi_def_cfa_offset 16
	.cfi_offset 3, -16
	.cfi_offset 4, -12
	.cfi_offset 5, -8
	.cfi_offset 14, -4
	.loc 1 310 1 view .LVU694
	mov	r5, r1
	mov	r4, r2
	.loc 1 313 14 view .LVU695
	mov	r1, r2
.LVL135:
	.loc 1 313 14 view .LVU696
	bl	net_buf_simple_push
.LVL136:
.LBB423:
.LBI423:
	.loc 3 83 216 is_stmt 1 view .LVU697
.LBB424:
	.loc 3 83 292 view .LVU698
	.loc 3 83 299 is_stmt 0 view .LVU699
	mov	r2, r4
	mov	r1, r5
.LBE424:
.LBE423:
	.loc 1 314 1 view .LVU700
	pop	{r3, r4, r5, lr}
	.cfi_restore 14
	.cfi_restore 5
	.cfi_restore 4
	.cfi_restore 3
	.cfi_def_cfa_offset 0
.LVL137:
.LBB426:
.LBB425:
	.loc 3 83 299 view .LVU701
	b	memcpy
.LVL138:
	.loc 3 83 299 view .LVU702
.LBE425:
.LBE426:
	.cfi_endproc
.LFE586:
	.size	net_buf_simple_push_mem, .-net_buf_simple_push_mem
	.section	.text.net_buf_simple_push_le16,"ax",%progbits
	.align	1
	.global	net_buf_simple_push_le16
	.syntax unified
	.thumb
	.thumb_func
	.type	net_buf_simple_push_le16, %function
net_buf_simple_push_le16:
.LVL139:
.LFB587:
	.loc 1 317 1 is_stmt 1 view -0
	.cfi_startproc
	@ args = 0, pretend = 0, frame = 0
	@ frame_needed = 0, uses_anonymous_args = 0
	@ link register save eliminated.
	.loc 1 318 2 view .LVU704
	.loc 1 320 2 view .LVU705
.LBB427:
.LBI427:
	.loc 1 297 7 view .LVU706
.LBB428:
	.loc 1 299 2 view .LVU707
	.loc 1 301 4 view .LVU708
	.loc 1 301 5 view .LVU709
	.loc 1 303 2 view .LVU710
	.loc 1 303 5 is_stmt 0 view .LVU711
	ldr	r3, [r0]
	.loc 1 303 12 view .LVU712
	subs	r2, r3, #2
	str	r2, [r0]
	.loc 1 304 2 is_stmt 1 view .LVU713
	.loc 1 304 11 is_stmt 0 view .LVU714
	ldrh	r2, [r0, #4]
	adds	r2, r2, #2
	strh	r2, [r0, #4]	@ movhi
	.loc 1 305 2 is_stmt 1 view .LVU715
.LVL140:
	.loc 1 305 2 is_stmt 0 view .LVU716
.LBE428:
.LBE427:
.LBB429:
.LBI429:
	.loc 2 384 20 is_stmt 1 view .LVU717
.LBB430:
	.loc 2 386 2 view .LVU718
	.loc 2 386 9 is_stmt 0 view .LVU719
	strb	r1, [r3, #-2]
.LVL141:
	.loc 2 387 2 is_stmt 1 view .LVU720
	.loc 2 387 9 is_stmt 0 view .LVU721
	lsrs	r1, r1, #8
.LVL142:
	.loc 2 387 9 view .LVU722
	strb	r1, [r3, #-1]
.LVL143:
	.loc 2 387 9 view .LVU723
.LBE430:
.LBE429:
	.loc 1 321 1 view .LVU724
	bx	lr
	.cfi_endproc
.LFE587:
	.size	net_buf_simple_push_le16, .-net_buf_simple_push_le16
	.section	.text.net_buf_simple_push_be16,"ax",%progbits
	.align	1
	.global	net_buf_simple_push_be16
	.syntax unified
	.thumb
	.thumb_func
	.type	net_buf_simple_push_be16, %function
net_buf_simple_push_be16:
.LVL144:
.LFB588:
	.loc 1 324 1 is_stmt 1 view -0
	.cfi_startproc
	@ args = 0, pretend = 0, frame = 0
	@ frame_needed = 0, uses_anonymous_args = 0
	@ link register save eliminated.
	.loc 1 325 2 view .LVU726
	.loc 1 327 2 view .LVU727
.LBB431:
.LBI431:
	.loc 1 297 7 view .LVU728
.LBB432:
	.loc 1 299 2 view .LVU729
	.loc 1 301 4 view .LVU730
	.loc 1 301 5 view .LVU731
	.loc 1 303 2 view .LVU732
	.loc 1 303 5 is_stmt 0 view .LVU733
	ldr	r3, [r0]
	.loc 1 303 12 view .LVU734
	subs	r2, r3, #2
	str	r2, [r0]
	.loc 1 304 2 is_stmt 1 view .LVU735
	.loc 1 304 11 is_stmt 0 view .LVU736
	ldrh	r2, [r0, #4]
	adds	r2, r2, #2
	strh	r2, [r0, #4]	@ movhi
	.loc 1 305 2 is_stmt 1 view .LVU737
.LVL145:
	.loc 1 305 2 is_stmt 0 view .LVU738
.LBE432:
.LBE431:
.LBB433:
.LBI433:
	.loc 2 309 20 is_stmt 1 view .LVU739
.LBB434:
	.loc 2 311 2 view .LVU740
	.loc 2 311 9 is_stmt 0 view .LVU741
	lsrs	r2, r1, #8
	strb	r2, [r3, #-2]
.LVL146:
	.loc 2 312 2 is_stmt 1 view .LVU742
	.loc 2 312 9 is_stmt 0 view .LVU743
	strb	r1, [r3, #-1]
.LVL147:
	.loc 2 312 9 view .LVU744
.LBE434:
.LBE433:
	.loc 1 328 1 view .LVU745
	bx	lr
	.cfi_endproc
.LFE588:
	.size	net_buf_simple_push_be16, .-net_buf_simple_push_be16
	.section	.text.net_buf_simple_push_u8,"ax",%progbits
	.align	1
	.global	net_buf_simple_push_u8
	.syntax unified
	.thumb
	.thumb_func
	.type	net_buf_simple_push_u8, %function
net_buf_simple_push_u8:
.LVL148:
.LFB589:
	.loc 1 331 1 is_stmt 1 view -0
	.cfi_startproc
	@ args = 0, pretend = 0, frame = 0
	@ frame_needed = 0, uses_anonymous_args = 0
	@ link register save eliminated.
	.loc 1 332 2 view .LVU747
.LBB435:
.LBI435:
	.loc 1 297 7 view .LVU748
.LBB436:
	.loc 1 299 2 view .LVU749
	.loc 1 301 4 view .LVU750
	.loc 1 301 5 view .LVU751
	.loc 1 303 2 view .LVU752
	.loc 1 303 5 is_stmt 0 view .LVU753
	ldr	r2, [r0]
	.loc 1 303 12 view .LVU754
	subs	r3, r2, #1
	str	r3, [r0]
	.loc 1 304 2 is_stmt 1 view .LVU755
	.loc 1 304 11 is_stmt 0 view .LVU756
	ldrh	r3, [r0, #4]
	adds	r3, r3, #1
	strh	r3, [r0, #4]	@ movhi
	.loc 1 305 2 is_stmt 1 view .LVU757
.LVL149:
	.loc 1 305 2 is_stmt 0 view .LVU758
.LBE436:
.LBE435:
	.loc 1 334 2 is_stmt 1 view .LVU759
	.loc 1 334 8 is_stmt 0 view .LVU760
	strb	r1, [r2, #-1]
.LVL150:
	.loc 1 335 1 view .LVU761
	bx	lr
	.cfi_endproc
.LFE589:
	.size	net_buf_simple_push_u8, .-net_buf_simple_push_u8
	.section	.text.net_buf_simple_push_le24,"ax",%progbits
	.align	1
	.global	net_buf_simple_push_le24
	.syntax unified
	.thumb
	.thumb_func
	.type	net_buf_simple_push_le24, %function
net_buf_simple_push_le24:
.LVL151:
.LFB590:
	.loc 1 338 1 is_stmt 1 view -0
	.cfi_startproc
	@ args = 0, pretend = 0, frame = 0
	@ frame_needed = 0, uses_anonymous_args = 0
	@ link register save eliminated.
	.loc 1 339 2 view .LVU763
	.loc 1 341 2 view .LVU764
.LBB443:
.LBI443:
	.loc 1 297 7 view .LVU765
.LBB444:
	.loc 1 299 2 view .LVU766
	.loc 1 301 4 view .LVU767
	.loc 1 301 5 view .LVU768
	.loc 1 303 2 view .LVU769
	.loc 1 303 5 is_stmt 0 view .LVU770
	ldr	r3, [r0]
	.loc 1 303 12 view .LVU771
	subs	r2, r3, #3
	str	r2, [r0]
	.loc 1 304 2 is_stmt 1 view .LVU772
	.loc 1 304 11 is_stmt 0 view .LVU773
	ldrh	r2, [r0, #4]
	adds	r2, r2, #3
	strh	r2, [r0, #4]	@ movhi
	.loc 1 305 2 is_stmt 1 view .LVU774
.LVL152:
	.loc 1 305 2 is_stmt 0 view .LVU775
.LBE444:
.LBE443:
.LBB445:
.LBI445:
	.loc 2 399 20 is_stmt 1 view .LVU776
.LBB446:
	.loc 2 401 2 view .LVU777
.LBB447:
.LBI447:
	.loc 2 384 20 view .LVU778
.LBB448:
	.loc 2 386 2 view .LVU779
	.loc 2 387 9 is_stmt 0 view .LVU780
	ubfx	r2, r1, #8, #8
	.loc 2 386 9 view .LVU781
	strb	r1, [r3, #-3]
.LVL153:
	.loc 2 387 2 is_stmt 1 view .LVU782
.LBE448:
.LBE447:
	.loc 2 402 15 is_stmt 0 view .LVU783
	lsrs	r1, r1, #16
.LVL154:
.LBB450:
.LBB449:
	.loc 2 387 9 view .LVU784
	strb	r2, [r3, #-2]
.LVL155:
	.loc 2 387 9 view .LVU785
.LBE449:
.LBE450:
	.loc 2 402 2 is_stmt 1 view .LVU786
	.loc 2 402 9 is_stmt 0 view .LVU787
	strb	r1, [r3, #-1]
.LVL156:
	.loc 2 402 9 view .LVU788
.LBE446:
.LBE445:
	.loc 1 342 1 view .LVU789
	bx	lr
	.cfi_endproc
.LFE590:
	.size	net_buf_simple_push_le24, .-net_buf_simple_push_le24
	.section	.text.net_buf_simple_push_be24,"ax",%progbits
	.align	1
	.global	net_buf_simple_push_be24
	.syntax unified
	.thumb
	.thumb_func
	.type	net_buf_simple_push_be24, %function
net_buf_simple_push_be24:
.LVL157:
.LFB591:
	.loc 1 345 1 is_stmt 1 view -0
	.cfi_startproc
	@ args = 0, pretend = 0, frame = 0
	@ frame_needed = 0, uses_anonymous_args = 0
	@ link register save eliminated.
	.loc 1 346 2 view .LVU791
	.loc 1 348 2 view .LVU792
.LBB457:
.LBI457:
	.loc 1 297 7 view .LVU793
.LBB458:
	.loc 1 299 2 view .LVU794
	.loc 1 301 4 view .LVU795
	.loc 1 301 5 view .LVU796
	.loc 1 303 2 view .LVU797
	.loc 1 303 5 is_stmt 0 view .LVU798
	ldr	r3, [r0]
	.loc 1 303 12 view .LVU799
	subs	r2, r3, #3
	str	r2, [r0]
	.loc 1 304 2 is_stmt 1 view .LVU800
	.loc 1 304 11 is_stmt 0 view .LVU801
	ldrh	r2, [r0, #4]
	adds	r2, r2, #3
	strh	r2, [r0, #4]	@ movhi
	.loc 1 305 2 is_stmt 1 view .LVU802
.LVL158:
	.loc 1 305 2 is_stmt 0 view .LVU803
.LBE458:
.LBE457:
.LBB459:
.LBI459:
	.loc 2 324 20 is_stmt 1 view .LVU804
.LBB460:
	.loc 2 326 2 view .LVU805
	.loc 2 326 15 is_stmt 0 view .LVU806
	lsrs	r2, r1, #16
	.loc 2 326 9 view .LVU807
	strb	r2, [r3, #-3]
.LVL159:
	.loc 2 327 2 is_stmt 1 view .LVU808
.LBB461:
.LBI461:
	.loc 2 309 20 view .LVU809
.LBB462:
	.loc 2 311 2 view .LVU810
	.loc 2 311 9 is_stmt 0 view .LVU811
	ubfx	r2, r1, #8, #8
	strb	r2, [r3, #-2]
	.loc 2 312 2 is_stmt 1 view .LVU812
	.loc 2 312 9 is_stmt 0 view .LVU813
	strb	r1, [r3, #-1]
.LVL160:
	.loc 2 312 9 view .LVU814
.LBE462:
.LBE461:
.LBE460:
.LBE459:
	.loc 1 349 1 view .LVU815
	bx	lr
	.cfi_endproc
.LFE591:
	.size	net_buf_simple_push_be24, .-net_buf_simple_push_be24
	.section	.text.net_buf_simple_push_le32,"ax",%progbits
	.align	1
	.global	net_buf_simple_push_le32
	.syntax unified
	.thumb
	.thumb_func
	.type	net_buf_simple_push_le32, %function
net_buf_simple_push_le32:
.LVL161:
.LFB592:
	.loc 1 352 1 is_stmt 1 view -0
	.cfi_startproc
	@ args = 0, pretend = 0, frame = 0
	@ frame_needed = 0, uses_anonymous_args = 0
	@ link register save eliminated.
	.loc 1 353 2 view .LVU817
	.loc 1 355 2 view .LVU818
	.loc 1 352 1 is_stmt 0 view .LVU819
	mov	r3, r0
.LVL162:
.LBB463:
.LBI463:
	.loc 1 297 7 is_stmt 1 view .LVU820
.LBB464:
	.loc 1 299 2 view .LVU821
	.loc 1 301 4 view .LVU822
	.loc 1 301 5 view .LVU823
	.loc 1 303 2 view .LVU824
.LBE464:
.LBE463:
	.loc 1 352 1 is_stmt 0 view .LVU825
	mov	r0, r1
.LVL163:
.LBB466:
.LBB465:
	.loc 1 304 11 view .LVU826
	ldrh	r2, [r3, #4]
	.loc 1 303 12 view .LVU827
	ldr	r1, [r3]
.LVL164:
	.loc 1 304 11 view .LVU828
	adds	r2, r2, #4
	.loc 1 303 12 view .LVU829
	subs	r1, r1, #4
	str	r1, [r3]
	.loc 1 304 2 is_stmt 1 view .LVU830
	.loc 1 304 11 is_stmt 0 view .LVU831
	strh	r2, [r3, #4]	@ movhi
	.loc 1 305 2 is_stmt 1 view .LVU832
.LVL165:
	.loc 1 305 2 is_stmt 0 view .LVU833
.LBE465:
.LBE466:
	.loc 1 355 2 view .LVU834
	b	sys_put_le32
.LVL166:
	.loc 1 355 2 view .LVU835
	.cfi_endproc
.LFE592:
	.size	net_buf_simple_push_le32, .-net_buf_simple_push_le32
	.section	.text.net_buf_simple_push_be32,"ax",%progbits
	.align	1
	.global	net_buf_simple_push_be32
	.syntax unified
	.thumb
	.thumb_func
	.type	net_buf_simple_push_be32, %function
net_buf_simple_push_be32:
.LVL167:
.LFB593:
	.loc 1 359 1 is_stmt 1 view -0
	.cfi_startproc
	@ args = 0, pretend = 0, frame = 0
	@ frame_needed = 0, uses_anonymous_args = 0
	@ link register save eliminated.
	.loc 1 360 2 view .LVU837
	.loc 1 362 2 view .LVU838
	.loc 1 359 1 is_stmt 0 view .LVU839
	mov	r3, r0
.LVL168:
.LBB467:
.LBI467:
	.loc 1 297 7 is_stmt 1 view .LVU840
.LBB468:
	.loc 1 299 2 view .LVU841
	.loc 1 301 4 view .LVU842
	.loc 1 301 5 view .LVU843
	.loc 1 303 2 view .LVU844
.LBE468:
.LBE467:
	.loc 1 359 1 is_stmt 0 view .LVU845
	mov	r0, r1
.LVL169:
.LBB470:
.LBB469:
	.loc 1 304 11 view .LVU846
	ldrh	r2, [r3, #4]
	.loc 1 303 12 view .LVU847
	ldr	r1, [r3]
.LVL170:
	.loc 1 304 11 view .LVU848
	adds	r2, r2, #4
	.loc 1 303 12 view .LVU849
	subs	r1, r1, #4
	str	r1, [r3]
	.loc 1 304 2 is_stmt 1 view .LVU850
	.loc 1 304 11 is_stmt 0 view .LVU851
	strh	r2, [r3, #4]	@ movhi
	.loc 1 305 2 is_stmt 1 view .LVU852
.LVL171:
	.loc 1 305 2 is_stmt 0 view .LVU853
.LBE469:
.LBE470:
	.loc 1 362 2 view .LVU854
	b	sys_put_be32
.LVL172:
	.loc 1 362 2 view .LVU855
	.cfi_endproc
.LFE593:
	.size	net_buf_simple_push_be32, .-net_buf_simple_push_be32
	.section	.text.net_buf_simple_push_le48,"ax",%progbits
	.align	1
	.global	net_buf_simple_push_le48
	.syntax unified
	.thumb
	.thumb_func
	.type	net_buf_simple_push_le48, %function
net_buf_simple_push_le48:
.LVL173:
.LFB594:
	.loc 1 366 1 is_stmt 1 view -0
	.cfi_startproc
	@ args = 0, pretend = 0, frame = 0
	@ frame_needed = 0, uses_anonymous_args = 0
	.loc 1 367 2 view .LVU857
	.loc 1 369 2 view .LVU858
.LBB477:
.LBI477:
	.loc 1 297 7 view .LVU859
.LBB478:
	.loc 1 299 2 view .LVU860
	.loc 1 301 4 view .LVU861
	.loc 1 301 5 view .LVU862
	.loc 1 303 2 view .LVU863
.LBE478:
.LBE477:
	.loc 1 366 1 is_stmt 0 view .LVU864
	push	{r4, r5, r6, lr}
	.cfi_def_cfa_offset 16
	.cfi_offset 4, -16
	.cfi_offset 5, -12
	.cfi_offset 6, -8
	.cfi_offset 14, -4
	.loc 1 366 1 view .LVU865
	mov	r4, r3
.LBB480:
.LBB479:
	.loc 1 303 5 view .LVU866
	ldr	r6, [r0]
	.loc 1 304 11 view .LVU867
	ldrh	r3, [r0, #4]
	.loc 1 303 12 view .LVU868
	subs	r1, r6, #6
	.loc 1 304 11 view .LVU869
	adds	r3, r3, #6
	.loc 1 303 12 view .LVU870
	str	r1, [r0]
	.loc 1 304 2 is_stmt 1 view .LVU871
	.loc 1 304 11 is_stmt 0 view .LVU872
	strh	r3, [r0, #4]	@ movhi
	.loc 1 305 2 is_stmt 1 view .LVU873
.LVL174:
	.loc 1 305 2 is_stmt 0 view .LVU874
.LBE479:
.LBE480:
.LBB481:
.LBI481:
	.loc 2 429 20 is_stmt 1 view .LVU875
.LBB482:
	.loc 2 431 2 view .LVU876
	mov	r0, r2
.LVL175:
	.loc 2 431 2 is_stmt 0 view .LVU877
	bl	sys_put_le32
.LVL176:
	.loc 2 432 2 is_stmt 1 view .LVU878
.LBB483:
.LBI483:
	.loc 2 384 20 view .LVU879
.LBB484:
	.loc 2 386 2 view .LVU880
	.loc 2 386 9 is_stmt 0 view .LVU881
	strb	r4, [r6, #-2]
	.loc 2 387 2 is_stmt 1 view .LVU882
	.loc 2 387 9 is_stmt 0 view .LVU883
	ubfx	r4, r4, #8, #8
.LVL177:
	.loc 2 387 9 view .LVU884
	strb	r4, [r6, #-1]
.LVL178:
	.loc 2 387 9 view .LVU885
.LBE484:
.LBE483:
.LBE482:
.LBE481:
	.loc 1 370 1 view .LVU886
	pop	{r4, r5, r6, pc}
	.cfi_endproc
.LFE594:
	.size	net_buf_simple_push_le48, .-net_buf_simple_push_le48
	.section	.text.net_buf_simple_push_be48,"ax",%progbits
	.align	1
	.global	net_buf_simple_push_be48
	.syntax unified
	.thumb
	.thumb_func
	.type	net_buf_simple_push_be48, %function
net_buf_simple_push_be48:
.LVL179:
.LFB595:
	.loc 1 373 1 is_stmt 1 view -0
	.cfi_startproc
	@ args = 0, pretend = 0, frame = 0
	@ frame_needed = 0, uses_anonymous_args = 0
	@ link register save eliminated.
	.loc 1 374 2 view .LVU888
	.loc 1 376 2 view .LVU889
.LBB491:
.LBI491:
	.loc 1 297 7 view .LVU890
.LBB492:
	.loc 1 299 2 view .LVU891
	.loc 1 301 4 view .LVU892
	.loc 1 301 5 view .LVU893
	.loc 1 303 2 view .LVU894
.LBE492:
.LBE491:
	.loc 1 373 1 is_stmt 0 view .LVU895
	push	{r4, r5}
	.cfi_def_cfa_offset 8
	.cfi_offset 4, -8
	.cfi_offset 5, -4
	.loc 1 373 1 view .LVU896
	mov	r4, r0
.LBB495:
.LBB493:
	.loc 1 303 5 view .LVU897
	ldr	r1, [r0]
	.loc 1 304 11 view .LVU898
	ldrh	r5, [r4, #4]
	.loc 1 303 12 view .LVU899
	subs	r0, r1, #6
.LVL180:
	.loc 1 303 12 view .LVU900
	str	r0, [r4]
	.loc 1 304 2 is_stmt 1 view .LVU901
	.loc 1 304 11 is_stmt 0 view .LVU902
	adds	r5, r5, #6
.LBE493:
.LBE495:
.LBB496:
.LBB497:
.LBB498:
.LBB499:
	.loc 2 311 9 view .LVU903
	ubfx	r0, r3, #8, #8
.LBE499:
.LBE498:
.LBE497:
.LBE496:
.LBB504:
.LBB494:
	.loc 1 304 11 view .LVU904
	strh	r5, [r4, #4]	@ movhi
	.loc 1 305 2 is_stmt 1 view .LVU905
.LVL181:
	.loc 1 305 2 is_stmt 0 view .LVU906
.LBE494:
.LBE504:
.LBB505:
.LBI496:
	.loc 2 354 20 is_stmt 1 view .LVU907
.LBB502:
	.loc 2 356 2 view .LVU908
.LBB501:
.LBI498:
	.loc 2 309 20 view .LVU909
.LBB500:
	.loc 2 311 2 view .LVU910
	.loc 2 311 9 is_stmt 0 view .LVU911
	strb	r0, [r1, #-6]
.LVL182:
	.loc 2 312 2 is_stmt 1 view .LVU912
	.loc 2 312 9 is_stmt 0 view .LVU913
	strb	r3, [r1, #-5]
.LVL183:
	.loc 2 312 9 view .LVU914
.LBE500:
.LBE501:
	.loc 2 357 2 is_stmt 1 view .LVU915
.LBE502:
.LBE505:
	.loc 1 377 1 is_stmt 0 view .LVU916
	pop	{r4, r5}
	.cfi_restore 5
	.cfi_restore 4
	.cfi_def_cfa_offset 0
.LVL184:
.LBB506:
.LBB503:
	.loc 2 357 2 view .LVU917
	subs	r1, r1, #4
.LVL185:
	.loc 2 357 2 view .LVU918
	mov	r0, r2
	b	sys_put_be32
.LVL186:
	.loc 2 357 2 view .LVU919
.LBE503:
.LBE506:
	.cfi_endproc
.LFE595:
	.size	net_buf_simple_push_be48, .-net_buf_simple_push_be48
	.section	.text.net_buf_simple_push_le64,"ax",%progbits
	.align	1
	.global	net_buf_simple_push_le64
	.syntax unified
	.thumb
	.thumb_func
	.type	net_buf_simple_push_le64, %function
net_buf_simple_push_le64:
.LVL187:
.LFB596:
	.loc 1 380 1 is_stmt 1 view -0
	.cfi_startproc
	@ args = 0, pretend = 0, frame = 0
	@ frame_needed = 0, uses_anonymous_args = 0
	.loc 1 381 2 view .LVU921
	.loc 1 383 2 view .LVU922
.LBB511:
.LBI511:
	.loc 1 297 7 view .LVU923
.LBB512:
	.loc 1 299 2 view .LVU924
	.loc 1 301 4 view .LVU925
	.loc 1 301 5 view .LVU926
	.loc 1 303 2 view .LVU927
.LBE512:
.LBE511:
	.loc 1 380 1 is_stmt 0 view .LVU928
	push	{r4, r5, r6, lr}
	.cfi_def_cfa_offset 16
	.cfi_offset 4, -16
	.cfi_offset 5, -12
	.cfi_offset 6, -8
	.cfi_offset 14, -4
	.loc 1 380 1 view .LVU929
	mov	r5, r3
.LBB514:
.LBB513:
	.loc 1 303 5 view .LVU930
	ldr	r6, [r0]
	.loc 1 304 11 view .LVU931
	ldrh	r3, [r0, #4]
	.loc 1 303 12 view .LVU932
	sub	r1, r6, #8
	.loc 1 304 11 view .LVU933
	adds	r3, r3, #8
	.loc 1 303 12 view .LVU934
	str	r1, [r0]
	.loc 1 304 2 is_stmt 1 view .LVU935
	.loc 1 304 11 is_stmt 0 view .LVU936
	strh	r3, [r0, #4]	@ movhi
	.loc 1 305 2 is_stmt 1 view .LVU937
.LVL188:
	.loc 1 305 2 is_stmt 0 view .LVU938
.LBE513:
.LBE514:
.LBB515:
.LBI515:
	.loc 2 444 20 is_stmt 1 view .LVU939
.LBB516:
	.loc 2 446 2 view .LVU940
	mov	r0, r2
.LVL189:
	.loc 2 446 2 is_stmt 0 view .LVU941
	bl	sys_put_le32
.LVL190:
	.loc 2 447 2 is_stmt 1 view .LVU942
	subs	r1, r6, #4
.LVL191:
	.loc 2 447 2 is_stmt 0 view .LVU943
	mov	r0, r5
.LBE516:
.LBE515:
	.loc 1 384 1 view .LVU944
	pop	{r4, r5, r6, lr}
	.cfi_restore 14
	.cfi_restore 6
	.cfi_restore 5
	.cfi_restore 4
	.cfi_def_cfa_offset 0
.LVL192:
.LBB518:
.LBB517:
	.loc 2 447 2 view .LVU945
	b	sys_put_le32
.LVL193:
	.loc 2 447 2 view .LVU946
.LBE517:
.LBE518:
	.cfi_endproc
.LFE596:
	.size	net_buf_simple_push_le64, .-net_buf_simple_push_le64
	.section	.text.net_buf_simple_push_be64,"ax",%progbits
	.align	1
	.global	net_buf_simple_push_be64
	.syntax unified
	.thumb
	.thumb_func
	.type	net_buf_simple_push_be64, %function
net_buf_simple_push_be64:
.LVL194:
.LFB597:
	.loc 1 387 1 is_stmt 1 view -0
	.cfi_startproc
	@ args = 0, pretend = 0, frame = 0
	@ frame_needed = 0, uses_anonymous_args = 0
	.loc 1 388 2 view .LVU948
	.loc 1 390 2 view .LVU949
.LBB523:
.LBI523:
	.loc 1 297 7 view .LVU950
.LBB524:
	.loc 1 299 2 view .LVU951
	.loc 1 301 4 view .LVU952
	.loc 1 301 5 view .LVU953
	.loc 1 303 2 view .LVU954
.LBE524:
.LBE523:
	.loc 1 387 1 is_stmt 0 view .LVU955
	push	{r4, r5, r6, lr}
	.cfi_def_cfa_offset 16
	.cfi_offset 4, -16
	.cfi_offset 5, -12
	.cfi_offset 6, -8
	.cfi_offset 14, -4
	.loc 1 387 1 view .LVU956
	mov	r5, r2
.LBB526:
.LBB525:
	.loc 1 303 5 view .LVU957
	ldr	r6, [r0]
	.loc 1 304 11 view .LVU958
	ldrh	r2, [r0, #4]
.LVL195:
	.loc 1 303 12 view .LVU959
	sub	r1, r6, #8
	.loc 1 304 11 view .LVU960
	adds	r2, r2, #8
	.loc 1 303 12 view .LVU961
	str	r1, [r0]
	.loc 1 304 2 is_stmt 1 view .LVU962
	.loc 1 304 11 is_stmt 0 view .LVU963
	strh	r2, [r0, #4]	@ movhi
	.loc 1 305 2 is_stmt 1 view .LVU964
.LVL196:
	.loc 1 305 2 is_stmt 0 view .LVU965
.LBE525:
.LBE526:
.LBB527:
.LBI527:
	.loc 2 369 20 is_stmt 1 view .LVU966
.LBB528:
	.loc 2 371 2 view .LVU967
	mov	r0, r3
.LVL197:
	.loc 2 371 2 is_stmt 0 view .LVU968
	bl	sys_put_be32
.LVL198:
	.loc 2 372 2 is_stmt 1 view .LVU969
	subs	r1, r6, #4
.LVL199:
	.loc 2 372 2 is_stmt 0 view .LVU970
	mov	r0, r5
.LVL200:
	.loc 2 372 2 view .LVU971
.LBE528:
.LBE527:
	.loc 1 391 1 view .LVU972
	pop	{r4, r5, r6, lr}
	.cfi_restore 14
	.cfi_restore 6
	.cfi_restore 5
	.cfi_restore 4
	.cfi_def_cfa_offset 0
.LVL201:
.LBB530:
.LBB529:
	.loc 2 372 2 view .LVU973
	b	sys_put_be32
.LVL202:
.LBE529:
.LBE530:
	.cfi_endproc
.LFE597:
	.size	net_buf_simple_push_be64, .-net_buf_simple_push_be64
	.section	.text.net_buf_simple_pull,"ax",%progbits
	.align	1
	.global	net_buf_simple_pull
	.syntax unified
	.thumb
	.thumb_func
	.type	net_buf_simple_pull, %function
net_buf_simple_pull:
.LVL203:
.LFB598:
	.loc 1 394 1 is_stmt 1 view -0
	.cfi_startproc
	@ args = 0, pretend = 0, frame = 0
	@ frame_needed = 0, uses_anonymous_args = 0
	@ link register save eliminated.
	.loc 1 395 2 view .LVU975
	.loc 1 397 4 view .LVU976
	.loc 1 397 5 view .LVU977
	.loc 1 399 2 view .LVU978
	.loc 1 399 11 is_stmt 0 view .LVU979
	ldrh	r2, [r0, #4]
	subs	r2, r2, r1
	.loc 1 394 1 view .LVU980
	mov	r3, r0
	.loc 1 399 11 view .LVU981
	strh	r2, [r0, #4]	@ movhi
	.loc 1 400 2 is_stmt 1 view .LVU982
	.loc 1 400 19 is_stmt 0 view .LVU983
	ldr	r0, [r0]
.LVL204:
	.loc 1 400 19 view .LVU984
	add	r0, r0, r1
	str	r0, [r3]
	.loc 1 401 1 view .LVU985
	bx	lr
	.cfi_endproc
.LFE598:
	.size	net_buf_simple_pull, .-net_buf_simple_pull
	.section	.text.net_buf_simple_pull_mem,"ax",%progbits
	.align	1
	.global	net_buf_simple_pull_mem
	.syntax unified
	.thumb
	.thumb_func
	.type	net_buf_simple_pull_mem, %function
net_buf_simple_pull_mem:
.LVL205:
.LFB599:
	.loc 1 404 1 is_stmt 1 view -0
	.cfi_startproc
	@ args = 0, pretend = 0, frame = 0
	@ frame_needed = 0, uses_anonymous_args = 0
	@ link register save eliminated.
	.loc 1 405 2 view .LVU987
	.loc 1 404 1 is_stmt 0 view .LVU988
	mov	r3, r0
	.loc 1 405 8 view .LVU989
	ldr	r0, [r0]
.LVL206:
	.loc 1 407 2 is_stmt 1 view .LVU990
	.loc 1 409 4 view .LVU991
	.loc 1 409 5 view .LVU992
	.loc 1 411 2 view .LVU993
	.loc 1 411 11 is_stmt 0 view .LVU994
	ldrh	r2, [r3, #4]
	subs	r2, r2, r1
	.loc 1 412 12 view .LVU995
	add	r1, r1, r0
.LVL207:
	.loc 1 411 11 view .LVU996
	strh	r2, [r3, #4]	@ movhi
	.loc 1 412 2 is_stmt 1 view .LVU997
	.loc 1 412 12 is_stmt 0 view .LVU998
	str	r1, [r3]
	.loc 1 414 2 is_stmt 1 view .LVU999
	.loc 1 415 1 is_stmt 0 view .LVU1000
	bx	lr
	.cfi_endproc
.LFE599:
	.size	net_buf_simple_pull_mem, .-net_buf_simple_pull_mem
	.section	.text.net_buf_simple_pull_u8,"ax",%progbits
	.align	1
	.global	net_buf_simple_pull_u8
	.syntax unified
	.thumb
	.thumb_func
	.type	net_buf_simple_pull_u8, %function
net_buf_simple_pull_u8:
.LVL208:
.LFB600:
	.loc 1 418 1 is_stmt 1 view -0
	.cfi_startproc
	@ args = 0, pretend = 0, frame = 0
	@ frame_needed = 0, uses_anonymous_args = 0
	.loc 1 419 2 view .LVU1002
	.loc 1 421 2 view .LVU1003
	.loc 1 418 1 is_stmt 0 view .LVU1004
	push	{r4, lr}
	.cfi_def_cfa_offset 8
	.cfi_offset 4, -8
	.cfi_offset 14, -4
	.loc 1 421 6 view .LVU1005
	ldr	r3, [r0]
	ldrb	r4, [r3]	@ zero_extendqisi2
.LVL209:
	.loc 1 422 2 is_stmt 1 view .LVU1006
	movs	r1, #1
	bl	net_buf_simple_pull
.LVL210:
	.loc 1 424 2 view .LVU1007
	.loc 1 425 1 is_stmt 0 view .LVU1008
	mov	r0, r4
	pop	{r4, pc}
	.cfi_endproc
.LFE600:
	.size	net_buf_simple_pull_u8, .-net_buf_simple_pull_u8
	.section	.text.net_buf_simple_pull_le16,"ax",%progbits
	.align	1
	.global	net_buf_simple_pull_le16
	.syntax unified
	.thumb
	.thumb_func
	.type	net_buf_simple_pull_le16, %function
net_buf_simple_pull_le16:
.LVL211:
.LFB601:
	.loc 1 428 1 is_stmt 1 view -0
	.cfi_startproc
	@ args = 0, pretend = 0, frame = 0
	@ frame_needed = 0, uses_anonymous_args = 0
	.loc 1 429 2 view .LVU1010
	.loc 1 431 2 view .LVU1011
.LBB531:
	.loc 1 431 25 view .LVU1012
	.loc 1 431 156 view .LVU1013
.LBE531:
	.loc 1 428 1 is_stmt 0 view .LVU1014
	push	{r4, lr}
	.cfi_def_cfa_offset 8
	.cfi_offset 4, -8
	.cfi_offset 14, -4
.LBB532:
	.loc 1 431 159 view .LVU1015
	ldr	r3, [r0]
	ldrh	r4, [r3]	@ unaligned
.LVL212:
	.loc 1 431 159 view .LVU1016
.LBE532:
	.loc 1 432 2 is_stmt 1 view .LVU1017
	movs	r1, #2
	bl	net_buf_simple_pull
.LVL213:
	.loc 1 434 2 view .LVU1018
	.loc 1 435 1 is_stmt 0 view .LVU1019
	mov	r0, r4
	pop	{r4, pc}
	.cfi_endproc
.LFE601:
	.size	net_buf_simple_pull_le16, .-net_buf_simple_pull_le16
	.section	.text.net_buf_simple_pull_be16,"ax",%progbits
	.align	1
	.global	net_buf_simple_pull_be16
	.syntax unified
	.thumb
	.thumb_func
	.type	net_buf_simple_pull_be16, %function
net_buf_simple_pull_be16:
.LVL214:
.LFB602:
	.loc 1 438 1 is_stmt 1 view -0
	.cfi_startproc
	@ args = 0, pretend = 0, frame = 0
	@ frame_needed = 0, uses_anonymous_args = 0
	.loc 1 439 2 view .LVU1021
	.loc 1 441 2 view .LVU1022
.LBB533:
	.loc 1 441 25 view .LVU1023
	.loc 1 441 156 view .LVU1024
.LBE533:
	.loc 1 438 1 is_stmt 0 view .LVU1025
	push	{r4, lr}
	.cfi_def_cfa_offset 8
	.cfi_offset 4, -8
	.cfi_offset 14, -4
	ldr	r3, [r0]
	ldrh	r4, [r3]	@ unaligned
	rev16	r4, r4
	uxth	r4, r4
.LVL215:
	.loc 1 442 2 is_stmt 1 view .LVU1026
	movs	r1, #2
	bl	net_buf_simple_pull
.LVL216:
	.loc 1 444 2 view .LVU1027
	.loc 1 445 1 is_stmt 0 view .LVU1028
	mov	r0, r4
	pop	{r4, pc}
	.cfi_endproc
.LFE602:
	.size	net_buf_simple_pull_be16, .-net_buf_simple_pull_be16
	.section	.text.net_buf_simple_pull_le24,"ax",%progbits
	.align	1
	.global	net_buf_simple_pull_le24
	.syntax unified
	.thumb
	.thumb_func
	.type	net_buf_simple_pull_le24, %function
net_buf_simple_pull_le24:
.LVL217:
.LFB603:
	.loc 1 448 1 is_stmt 1 view -0
	.cfi_startproc
	@ args = 0, pretend = 0, frame = 0
	@ frame_needed = 0, uses_anonymous_args = 0
	.loc 1 449 2 view .LVU1030
	.loc 1 453 2 view .LVU1031
.LBB534:
	.loc 1 453 25 view .LVU1032
	.loc 1 453 166 view .LVU1033
.LBE534:
	.loc 1 448 1 is_stmt 0 view .LVU1034
	push	{r4, lr}
	.cfi_def_cfa_offset 8
	.cfi_offset 4, -8
	.cfi_offset 14, -4
.LBB535:
	.loc 1 453 169 view .LVU1035
	ldr	r3, [r0]
	ldrb	r2, [r3, #1]	@ zero_extendqisi2
	ldrb	r4, [r3]	@ zero_extendqisi2
	ldrb	r3, [r3, #2]	@ zero_extendqisi2
	orr	r4, r4, r2, lsl #8
	orr	r4, r4, r3, lsl #16
.LVL218:
	.loc 1 453 169 view .LVU1036
.LBE535:
	.loc 1 454 2 is_stmt 1 view .LVU1037
	movs	r1, #3
	bl	net_buf_simple_pull
.LVL219:
	.loc 1 456 2 view .LVU1038
	.loc 1 457 1 is_stmt 0 view .LVU1039
	mov	r0, r4
	pop	{r4, pc}
	.cfi_endproc
.LFE603:
	.size	net_buf_simple_pull_le24, .-net_buf_simple_pull_le24
	.section	.text.net_buf_simple_pull_be24,"ax",%progbits
	.align	1
	.global	net_buf_simple_pull_be24
	.syntax unified
	.thumb
	.thumb_func
	.type	net_buf_simple_pull_be24, %function
net_buf_simple_pull_be24:
.LVL220:
.LFB604:
	.loc 1 460 1 is_stmt 1 view -0
	.cfi_startproc
	@ args = 0, pretend = 0, frame = 0
	@ frame_needed = 0, uses_anonymous_args = 0
	.loc 1 461 2 view .LVU1041
	.loc 1 465 2 view .LVU1042
.LBB536:
	.loc 1 465 25 view .LVU1043
	.loc 1 465 166 view .LVU1044
.LBE536:
	.loc 1 460 1 is_stmt 0 view .LVU1045
	push	{r4, lr}
	.cfi_def_cfa_offset 8
	.cfi_offset 4, -8
	.cfi_offset 14, -4
.LBB537:
	.loc 1 465 169 view .LVU1046
	ldr	r3, [r0]
	ldrb	r2, [r3, #1]	@ zero_extendqisi2
	ldrb	r4, [r3]	@ zero_extendqisi2
	ldrb	r3, [r3, #2]	@ zero_extendqisi2
	orr	r4, r4, r2, lsl #8
	orr	r4, r4, r3, lsl #16
.LVL221:
	.loc 1 465 169 view .LVU1047
.LBE537:
	.loc 1 466 2 is_stmt 1 view .LVU1048
	movs	r1, #3
	bl	net_buf_simple_pull
.LVL222:
	.loc 1 468 2 view .LVU1049
	.loc 1 468 64 is_stmt 0 view .LVU1050
	and	r0, r4, #65280
	.loc 1 468 49 view .LVU1051
	orr	r0, r0, r4, lsr #16
	.loc 1 468 96 view .LVU1052
	lsls	r4, r4, #16
	and	r4, r4, #16711680
	.loc 1 469 1 view .LVU1053
	orrs	r0, r0, r4
	pop	{r4, pc}
	.cfi_endproc
.LFE604:
	.size	net_buf_simple_pull_be24, .-net_buf_simple_pull_be24
	.section	.text.net_buf_simple_pull_le32,"ax",%progbits
	.align	1
	.global	net_buf_simple_pull_le32
	.syntax unified
	.thumb
	.thumb_func
	.type	net_buf_simple_pull_le32, %function
net_buf_simple_pull_le32:
.LVL223:
.LFB605:
	.loc 1 472 1 is_stmt 1 view -0
	.cfi_startproc
	@ args = 0, pretend = 0, frame = 0
	@ frame_needed = 0, uses_anonymous_args = 0
	.loc 1 473 2 view .LVU1055
	.loc 1 475 2 view .LVU1056
.LBB538:
	.loc 1 475 25 view .LVU1057
	.loc 1 475 156 view .LVU1058
.LBE538:
	.loc 1 472 1 is_stmt 0 view .LVU1059
	push	{r4, lr}
	.cfi_def_cfa_offset 8
	.cfi_offset 4, -8
	.cfi_offset 14, -4
.LBB539:
	.loc 1 475 159 view .LVU1060
	ldr	r3, [r0]
	ldr	r4, [r3]	@ unaligned
.LVL224:
	.loc 1 475 159 view .LVU1061
.LBE539:
	.loc 1 476 2 is_stmt 1 view .LVU1062
	movs	r1, #4
	bl	net_buf_simple_pull
.LVL225:
	.loc 1 478 2 view .LVU1063
	.loc 1 479 1 is_stmt 0 view .LVU1064
	mov	r0, r4
	pop	{r4, pc}
	.loc 1 479 1 view .LVU1065
	.cfi_endproc
.LFE605:
	.size	net_buf_simple_pull_le32, .-net_buf_simple_pull_le32
	.section	.text.net_buf_simple_pull_be32,"ax",%progbits
	.align	1
	.global	net_buf_simple_pull_be32
	.syntax unified
	.thumb
	.thumb_func
	.type	net_buf_simple_pull_be32, %function
net_buf_simple_pull_be32:
.LVL226:
.LFB606:
	.loc 1 482 1 is_stmt 1 view -0
	.cfi_startproc
	@ args = 0, pretend = 0, frame = 0
	@ frame_needed = 0, uses_anonymous_args = 0
	.loc 1 483 2 view .LVU1067
	.loc 1 485 2 view .LVU1068
.LBB540:
	.loc 1 485 25 view .LVU1069
	.loc 1 485 156 view .LVU1070
.LBE540:
	.loc 1 482 1 is_stmt 0 view .LVU1071
	push	{r4, lr}
	.cfi_def_cfa_offset 8
	.cfi_offset 4, -8
	.cfi_offset 14, -4
	ldr	r3, [r0]
	ldr	r4, [r3]	@ unaligned
	.loc 1 486 2 view .LVU1072
	movs	r1, #4
	rev	r4, r4
.LVL227:
	.loc 1 486 2 is_stmt 1 view .LVU1073
	bl	net_buf_simple_pull
.LVL228:
	.loc 1 488 2 view .LVU1074
	.loc 1 489 1 is_stmt 0 view .LVU1075
	mov	r0, r4
	pop	{r4, pc}
	.cfi_endproc
.LFE606:
	.size	net_buf_simple_pull_be32, .-net_buf_simple_pull_be32
	.section	.text.net_buf_simple_pull_le48,"ax",%progbits
	.align	1
	.global	net_buf_simple_pull_le48
	.syntax unified
	.thumb
	.thumb_func
	.type	net_buf_simple_pull_le48, %function
net_buf_simple_pull_le48:
.LVL229:
.LFB607:
	.loc 1 492 1 is_stmt 1 view -0
	.cfi_startproc
	@ args = 0, pretend = 0, frame = 0
	@ frame_needed = 0, uses_anonymous_args = 0
	.loc 1 493 2 view .LVU1077
	.loc 1 497 2 view .LVU1078
.LBB541:
	.loc 1 497 25 view .LVU1079
	.loc 1 497 166 view .LVU1080
.LBE541:
	.loc 1 492 1 is_stmt 0 view .LVU1081
	push	{r3, r4, r5, lr}
	.cfi_def_cfa_offset 16
	.cfi_offset 3, -16
	.cfi_offset 4, -12
	.cfi_offset 5, -8
	.cfi_offset 14, -4
.LBB542:
	.loc 1 497 169 view .LVU1082
	ldr	r3, [r0]
	ldr	r5, [r3]	@ unaligned
	ldrb	r4, [r3, #4]	@ zero_extendqisi2
	ldrb	r3, [r3, #5]	@ zero_extendqisi2
.LBE542:
	.loc 1 498 2 view .LVU1083
	movs	r1, #6
.LBB543:
	.loc 1 497 169 view .LVU1084
	orr	r4, r4, r3, lsl #8
.LVL230:
	.loc 1 497 169 view .LVU1085
.LBE543:
	.loc 1 498 2 is_stmt 1 view .LVU1086
	bl	net_buf_simple_pull
.LVL231:
	.loc 1 500 2 view .LVU1087
	.loc 1 501 1 is_stmt 0 view .LVU1088
	mov	r0, r5
	mov	r1, r4
	pop	{r3, r4, r5, pc}
	.cfi_endproc
.LFE607:
	.size	net_buf_simple_pull_le48, .-net_buf_simple_pull_le48
	.section	.text.net_buf_simple_pull_be48,"ax",%progbits
	.align	1
	.global	net_buf_simple_pull_be48
	.syntax unified
	.thumb
	.thumb_func
	.type	net_buf_simple_pull_be48, %function
net_buf_simple_pull_be48:
.LVL232:
.LFB608:
	.loc 1 504 1 is_stmt 1 view -0
	.cfi_startproc
	@ args = 0, pretend = 0, frame = 0
	@ frame_needed = 0, uses_anonymous_args = 0
	.loc 1 505 2 view .LVU1090
	.loc 1 509 2 view .LVU1091
.LBB544:
	.loc 1 509 25 view .LVU1092
	.loc 1 509 166 view .LVU1093
.LBE544:
	.loc 1 504 1 is_stmt 0 view .LVU1094
	push	{r3, r4, r5, lr}
	.cfi_def_cfa_offset 16
	.cfi_offset 3, -16
	.cfi_offset 4, -12
	.cfi_offset 5, -8
	.cfi_offset 14, -4
.LBB545:
	.loc 1 509 169 view .LVU1095
	ldr	r3, [r0]
	ldr	r4, [r3]	@ unaligned
	ldrb	r5, [r3, #4]	@ zero_extendqisi2
	ldrb	r3, [r3, #5]	@ zero_extendqisi2
.LBE545:
	.loc 1 510 2 view .LVU1096
	movs	r1, #6
.LBB546:
	.loc 1 509 169 view .LVU1097
	orr	r5, r5, r3, lsl #8
.LVL233:
	.loc 1 509 169 view .LVU1098
.LBE546:
	.loc 1 510 2 is_stmt 1 view .LVU1099
	bl	net_buf_simple_pull
.LVL234:
	.loc 1 512 2 view .LVU1100
	.loc 1 512 63 is_stmt 0 view .LVU1101
	lsls	r3, r5, #8
	.loc 1 512 94 view .LVU1102
	lsrs	r2, r4, #8
	.loc 1 512 70 view .LVU1103
	and	r3, r3, #65280
	.loc 1 512 197 view .LVU1104
	lsls	r0, r4, #8
	.loc 1 512 175 view .LVU1105
	orr	r3, r3, r5, lsr #8
	.loc 1 512 100 view .LVU1106
	and	r2, r2, #16711680
	.loc 1 512 197 view .LVU1107
	uxth	r1, r0
	.loc 1 512 175 view .LVU1108
	orrs	r3, r3, r2
	.loc 1 512 168 view .LVU1109
	ubfx	r4, r4, #8, #8
	.loc 1 512 138 view .LVU1110
	and	r0, r0, #-16777216
	.loc 1 513 1 view .LVU1111
	orrs	r0, r0, r3
	orrs	r1, r1, r4
	pop	{r3, r4, r5, pc}
	.cfi_endproc
.LFE608:
	.size	net_buf_simple_pull_be48, .-net_buf_simple_pull_be48
	.section	.text.net_buf_simple_pull_le64,"ax",%progbits
	.align	1
	.global	net_buf_simple_pull_le64
	.syntax unified
	.thumb
	.thumb_func
	.type	net_buf_simple_pull_le64, %function
net_buf_simple_pull_le64:
.LVL235:
.LFB609:
	.loc 1 516 1 is_stmt 1 view -0
	.cfi_startproc
	@ args = 0, pretend = 0, frame = 0
	@ frame_needed = 0, uses_anonymous_args = 0
	.loc 1 517 2 view .LVU1113
	.loc 1 519 2 view .LVU1114
.LBB547:
	.loc 1 519 25 view .LVU1115
	.loc 1 519 156 view .LVU1116
.LBE547:
	.loc 1 516 1 is_stmt 0 view .LVU1117
	push	{r3, r4, r5, lr}
	.cfi_def_cfa_offset 16
	.cfi_offset 3, -16
	.cfi_offset 4, -12
	.cfi_offset 5, -8
	.cfi_offset 14, -4
.LBB548:
	.loc 1 519 159 view .LVU1118
	ldr	r3, [r0]
	ldr	r5, [r3]	@ unaligned
	ldr	r4, [r3, #4]	@ unaligned
.LVL236:
	.loc 1 519 159 view .LVU1119
.LBE548:
	.loc 1 520 2 is_stmt 1 view .LVU1120
	movs	r1, #8
	bl	net_buf_simple_pull
.LVL237:
	.loc 1 522 2 view .LVU1121
	.loc 1 523 1 is_stmt 0 view .LVU1122
	mov	r0, r5
	mov	r1, r4
	pop	{r3, r4, r5, pc}
	.loc 1 523 1 view .LVU1123
	.cfi_endproc
.LFE609:
	.size	net_buf_simple_pull_le64, .-net_buf_simple_pull_le64
	.section	.text.net_buf_simple_pull_be64,"ax",%progbits
	.align	1
	.global	net_buf_simple_pull_be64
	.syntax unified
	.thumb
	.thumb_func
	.type	net_buf_simple_pull_be64, %function
net_buf_simple_pull_be64:
.LVL238:
.LFB610:
	.loc 1 526 1 is_stmt 1 view -0
	.cfi_startproc
	@ args = 0, pretend = 0, frame = 0
	@ frame_needed = 0, uses_anonymous_args = 0
	.loc 1 527 2 view .LVU1125
	.loc 1 529 2 view .LVU1126
.LBB549:
	.loc 1 529 25 view .LVU1127
	.loc 1 529 156 view .LVU1128
.LBE549:
	.loc 1 526 1 is_stmt 0 view .LVU1129
	push	{r3, r4, r5, lr}
	.cfi_def_cfa_offset 16
	.cfi_offset 3, -16
	.cfi_offset 4, -12
	.cfi_offset 5, -8
	.cfi_offset 14, -4
	ldr	r3, [r0]
	ldr	r4, [r3]	@ unaligned
	ldr	r5, [r3, #4]	@ unaligned
	rev	r4, r4
	rev	r5, r5
.LVL239:
	.loc 1 530 2 is_stmt 1 view .LVU1130
	movs	r1, #8
	bl	net_buf_simple_pull
.LVL240:
	.loc 1 532 2 view .LVU1131
	.loc 1 533 1 is_stmt 0 view .LVU1132
	mov	r0, r5
	mov	r1, r4
	pop	{r3, r4, r5, pc}
	.cfi_endproc
.LFE610:
	.size	net_buf_simple_pull_be64, .-net_buf_simple_pull_be64
	.section	.text.net_buf_simple_headroom,"ax",%progbits
	.align	1
	.global	net_buf_simple_headroom
	.syntax unified
	.thumb
	.thumb_func
	.type	net_buf_simple_headroom, %function
net_buf_simple_headroom:
.LVL241:
.LFB611:
	.loc 1 536 1 is_stmt 1 view -0
	.cfi_startproc
	@ args = 0, pretend = 0, frame = 0
	@ frame_needed = 0, uses_anonymous_args = 0
	@ link register save eliminated.
	.loc 1 537 2 view .LVU1134
	.loc 1 537 19 is_stmt 0 view .LVU1135
	ldr	r2, [r0]
	ldr	r0, [r0, #8]
.LVL242:
	.loc 1 538 1 view .LVU1136
	subs	r0, r2, r0
	bx	lr
	.cfi_endproc
.LFE611:
	.size	net_buf_simple_headroom, .-net_buf_simple_headroom
	.section	.text.net_buf_simple_tailroom,"ax",%progbits
	.align	1
	.global	net_buf_simple_tailroom
	.syntax unified
	.thumb
	.thumb_func
	.type	net_buf_simple_tailroom, %function
net_buf_simple_tailroom:
.LVL243:
.LFB612:
	.loc 1 541 1 is_stmt 1 view -0
	.cfi_startproc
	@ args = 0, pretend = 0, frame = 0
	@ frame_needed = 0, uses_anonymous_args = 0
	@ link register save eliminated.
	.loc 1 542 2 view .LVU1138
.LBB550:
.LBI550:
	.loc 1 535 8 view .LVU1139
.LBB551:
	.loc 1 537 2 view .LVU1140
	.loc 1 537 2 is_stmt 0 view .LVU1141
.LBE551:
.LBE550:
	.loc 1 542 55 view .LVU1142
	ldrh	r3, [r0, #4]
	.loc 1 542 12 view .LVU1143
	ldrh	r2, [r0, #6]
.LBB554:
.LBB552:
	.loc 1 537 19 view .LVU1144
	ldr	r1, [r0, #8]
.LBE552:
.LBE554:
	.loc 1 542 50 view .LVU1145
	subs	r2, r2, r3
.LBB555:
.LBB553:
	.loc 1 537 19 view .LVU1146
	ldr	r3, [r0]
	subs	r3, r3, r1
.LBE553:
.LBE555:
	.loc 1 543 1 view .LVU1147
	subs	r0, r2, r3
.LVL244:
	.loc 1 543 1 view .LVU1148
	bx	lr
	.cfi_endproc
.LFE612:
	.size	net_buf_simple_tailroom, .-net_buf_simple_tailroom
	.section	.text.net_buf_simple_max_len,"ax",%progbits
	.align	1
	.global	net_buf_simple_max_len
	.syntax unified
	.thumb
	.thumb_func
	.type	net_buf_simple_max_len, %function
net_buf_simple_max_len:
.LVL245:
.LFB613:
	.loc 1 546 1 is_stmt 1 view -0
	.cfi_startproc
	@ args = 0, pretend = 0, frame = 0
	@ frame_needed = 0, uses_anonymous_args = 0
	@ link register save eliminated.
	.loc 1 547 2 view .LVU1150
.LBB556:
.LBI556:
	.loc 1 535 8 view .LVU1151
.LBB557:
	.loc 1 537 2 view .LVU1152
	.loc 1 537 19 is_stmt 0 view .LVU1153
	ldr	r3, [r0]
	ldr	r2, [r0, #8]
.LBE557:
.LBE556:
	.loc 1 547 19 view .LVU1154
	ldrh	r0, [r0, #6]
.LVL246:
.LBB559:
.LBB558:
	.loc 1 537 19 view .LVU1155
	subs	r3, r3, r2
.LBE558:
.LBE559:
	.loc 1 547 19 view .LVU1156
	subs	r0, r0, r3
	.loc 1 548 1 view .LVU1157
	uxth	r0, r0
	bx	lr
	.cfi_endproc
.LFE613:
	.size	net_buf_simple_max_len, .-net_buf_simple_max_len
	.global	log_const_net_buf_simple
	.section	.rodata.str1.1,"aMS",%progbits,1
.LC0:
	.ascii	"net_buf_simple\000"
	.section	._log_const.static.log_const_net_buf_simple_,"a"
	.align	2
	.type	log_const_net_buf_simple, %object
	.size	log_const_net_buf_simple, 8
log_const_net_buf_simple:
	.word	.LC0
	.byte	3
	.space	3
	.text
.Letext0:
	.file 5 "/home/g/zephyr-sdk-0.16.3/arm-zephyr-eabi/lib/gcc/arm-zephyr-eabi/12.2.0/include/stddef.h"
	.file 6 "/home/g/zephyr-sdk-0.16.3/arm-zephyr-eabi/picolibc/include/machine/_default_types.h"
	.file 7 "/home/g/zephyr-sdk-0.16.3/arm-zephyr-eabi/picolibc/include/sys/_stdint.h"
	.file 8 "/home/g/mise-work/zmk-firmware/zmk/zephyr/include/zephyr/logging/log_instance.h"
	.file 9 "/home/g/mise-work/zmk-firmware/zmk/zephyr/include/zephyr/fatal_types.h"
	.file 10 "<built-in>"