	.cpu cortex-m4
	.arch armv7e-m
	.fpu fpv4-sp-d16
	.eabi_attribute 27, 1
	.eabi_attribute 28, 1
	.eabi_attribute 20, 1
	.eabi_attribute 21, 1
	.eabi_attribute 23, 3
	.eabi_attribute 24, 1
	.eabi_attribute 25, 1
	.eabi_attribute 26, 1
	.eabi_attribute 30, 2
	.eabi_attribute 34, 1
	.eabi_attribute 38, 1
	.eabi_attribute 18, 4
	.file	"ull.c"
	.text
.Ltext0:
	.cfi_sections	.debug_frame
	.file 1 "/home/g/mise-work/zmk-firmware/zmk/zephyr/subsys/bluetooth/controller/ll_sw/ull.c"
	.section	.rodata.perform_lll_reset.str1.4,"aMS",%progbits,1
	.align	2
.LC0:
	.ascii	"WEST_TOPDIR/zephyr/subsys/bluetooth/controller/ll_s"
	.ascii	"w/ull.c\000"
	.align	2
.LC1:
	.ascii	"!err\000"
	.align	2
.LC2:
	.ascii	"ASSERTION FAIL [%s] @ %s:%d\012\000"
	.section	.text.perform_lll_reset,"ax",%progbits
	.align	1
	.p2align 2,,3
	.syntax unified
	.thumb
	.thumb_func
	.type	perform_lll_reset, %function
perform_lll_reset:
.LVL0:
.LFB561:
	.loc 1 2280 1 view -0
	.cfi_startproc
	@ args = 0, pretend = 0, frame = 0
	@ frame_needed = 0, uses_anonymous_args = 0
	.loc 1 2281 2 view .LVU1
	.loc 1 2284 2 view .LVU2
	.loc 1 2280 1 is_stmt 0 view .LVU3
	push	{r4, lr}
	.cfi_def_cfa_offset 8
	.cfi_offset 4, -8
	.cfi_offset 14, -4
	.loc 1 2280 1 view .LVU4
	mov	r4, r0
	.loc 1 2284 8 view .LVU5
	bl	lll_reset
.LVL1:
	.loc 1 2285 2 is_stmt 1 view .LVU6
	.loc 1 2285 7 view .LVU7
	.loc 1 2285 10 is_stmt 0 view .LVU8
	cbnz	r0, .L16
	.loc 1 2285 148 is_stmt 1 discriminator 3 view .LVU9
	.loc 1 2285 5 discriminator 3 view .LVU10
	.loc 1 2289 2 discriminator 3 view .LVU11
	.loc 1 2289 8 is_stmt 0 discriminator 3 view .LVU12
	bl	lll_adv_reset
.LVL2:
	.loc 1 2290 2 is_stmt 1 discriminator 3 view .LVU13
	.loc 1 2290 7 discriminator 3 view .LVU14
	.loc 1 2290 10 is_stmt 0 discriminator 3 view .LVU15
	cbnz	r0, .L17
.L3:
	.loc 1 2290 148 is_stmt 1 discriminator 3 view .LVU16
	.loc 1 2290 5 discriminator 3 view .LVU17
	.loc 1 2301 2 discriminator 3 view .LVU18
	.loc 1 2301 8 is_stmt 0 discriminator 3 view .LVU19
	bl	lll_conn_reset
.LVL3:
	.loc 1 2302 2 is_stmt 1 discriminator 3 view .LVU20
	.loc 1 2302 7 discriminator 3 view .LVU21
	.loc 1 2302 10 is_stmt 0 discriminator 3 view .LVU22
	cbnz	r0, .L18
.L4:
	.loc 1 2302 148 is_stmt 1 discriminator 3 view .LVU23
	.loc 1 2302 5 discriminator 3 view .LVU24
	.loc 1 2311 2 discriminator 3 view .LVU25
.LVL4:
.LBB217:
.LBI217:
	.file 2 "/home/g/mise-work/zmk-firmware/zmk/app/build/zephyr/include/generated/syscalls/kernel.h"
	.loc 2 1110 20 discriminator 3 view .LVU26
.LBB218:
	.loc 2 1119 2 discriminator 3 view .LVU27
	.loc 2 1119 7 discriminator 3 view .LVU28
	.loc 2 1119 5 discriminator 3 view .LVU29
	.loc 2 1120 2 discriminator 3 view .LVU30
	mov	r0, r4
.LVL5:
	.loc 2 1120 2 is_stmt 0 discriminator 3 view .LVU31
.LBE218:
.LBE217:
	.loc 1 2313 1 discriminator 3 view .LVU32
	pop	{r4, lr}
	.cfi_remember_state
	.cfi_restore 14
	.cfi_restore 4
	.cfi_def_cfa_offset 0
.LVL6:
.LBB222:
.LBB219:
	.loc 2 1120 2 discriminator 3 view .LVU33
	b	z_impl_k_sem_give
.LVL7:
.L16:
	.cfi_restore_state
	.loc 2 1120 2 discriminator 3 view .LVU34
.LBE219:
.LBE222:
	.loc 1 2285 22 is_stmt 1 discriminator 1 view .LVU35
	ldr	r2, .L19
	ldr	r1, .L19+4
	ldr	r0, .L19+8
.LVL8:
	.loc 1 2285 22 is_stmt 0 discriminator 1 view .LVU36
	movw	r3, #2285
	bl	assert_print
.LVL9:
	.loc 1 2285 145 is_stmt 1 discriminator 1 view .LVU37
	.loc 1 2285 150 discriminator 1 view .LVU38
	.syntax unified
@ 2285 "/home/g/mise-work/zmk-firmware/zmk/zephyr/subsys/bluetooth/controller/ll_sw/ull.c" 1
	eors.n r0, r0
	msr BASEPRI, r0
	mov r0, #3
	svc #2
	
@ 0 "" 2
	.loc 1 2285 148 discriminator 1 view .LVU39
	.loc 1 2285 5 discriminator 1 view .LVU40
	.loc 1 2289 2 discriminator 1 view .LVU41
	.loc 1 2289 8 is_stmt 0 discriminator 1 view .LVU42
	.thumb
	.syntax unified
	bl	lll_adv_reset
.LVL10:
	.loc 1 2290 2 is_stmt 1 discriminator 1 view .LVU43
	.loc 1 2290 7 discriminator 1 view .LVU44
	.loc 1 2290 10 is_stmt 0 discriminator 1 view .LVU45
	cmp	r0, #0
	beq	.L3
.L17:
	.loc 1 2290 22 is_stmt 1 discriminator 1 view .LVU46
	ldr	r2, .L19
	ldr	r1, .L19+4
	ldr	r0, .L19+8
.LVL11:
	.loc 1 2290 22 is_stmt 0 discriminator 1 view .LVU47
	movw	r3, #2290
	bl	assert_print
.LVL12:
	.loc 1 2290 145 is_stmt 1 discriminator 1 view .LVU48
	.loc 1 2290 150 discriminator 1 view .LVU49
	.syntax unified
@ 2290 "/home/g/mise-work/zmk-firmware/zmk/zephyr/subsys/bluetooth/controller/ll_sw/ull.c" 1
	eors.n r0, r0
	msr BASEPRI, r0
	mov r0, #3
	svc #2
	
@ 0 "" 2
	.loc 1 2290 148 discriminator 1 view .LVU50
	.loc 1 2290 5 discriminator 1 view .LVU51
	.loc 1 2301 2 discriminator 1 view .LVU52
	.loc 1 2301 8 is_stmt 0 discriminator 1 view .LVU53
	.thumb
	.syntax unified
	bl	lll_conn_reset
.LVL13:
	.loc 1 2302 2 is_stmt 1 discriminator 1 view .LVU54
	.loc 1 2302 7 discriminator 1 view .LVU55
	.loc 1 2302 10 is_stmt 0 discriminator 1 view .LVU56
	cmp	r0, #0
	beq	.L4
.L18:
	.loc 1 2302 22 is_stmt 1 discriminator 1 view .LVU57
	ldr	r2, .L19
	ldr	r1, .L19+4
	ldr	r0, .L19+8
.LVL14:
	.loc 1 2302 22 is_stmt 0 discriminator 1 view .LVU58
	movw	r3, #2302
	bl	assert_print
.LVL15:
	.loc 1 2302 145 is_stmt 1 discriminator 1 view .LVU59
	.loc 1 2302 150 discriminator 1 view .LVU60
	.syntax unified
@ 2302 "/home/g/mise-work/zmk-firmware/zmk/zephyr/subsys/bluetooth/controller/ll_sw/ull.c" 1
	eors.n r0, r0
	msr BASEPRI, r0
	mov r0, #3
	svc #2
	
@ 0 "" 2
	.loc 1 2302 148 discriminator 1 view .LVU61
	.loc 1 2302 5 discriminator 1 view .LVU62
	.loc 1 2311 2 discriminator 1 view .LVU63
.LVL16:
	.thumb
	.syntax unified
.LBB223:
	.loc 2 1110 20 discriminator 1 view .LVU64
.LBB220:
	.loc 2 1119 2 discriminator 1 view .LVU65
	.loc 2 1119 7 discriminator 1 view .LVU66
	.loc 2 1119 5 discriminator 1 view .LVU67
	.loc 2 1120 2 discriminator 1 view .LVU68
	mov	r0, r4
.LBE220:
.LBE223:
	.loc 1 2313 1 is_stmt 0 discriminator 1 view .LVU69
	pop	{r4, lr}
	.cfi_restore 14
	.cfi_restore 4
	.cfi_def_cfa_offset 0
.LVL17:
.LBB224:
.LBB221:
	.loc 2 1120 2 discriminator 1 view .LVU70
	b	z_impl_k_sem_give
.LVL18:
.L20:
	.loc 2 1120 2 discriminator 1 view .LVU71
	.align	2
.L19:
	.word	.LC0
	.word	.LC1
	.word	.LC2
.LBE221:
.LBE224:
	.cfi_endproc
.LFE561:
	.size	perform_lll_reset, .-perform_lll_reset
	.section	.text.ull_ticker_status_give,"ax",%progbits
	.align	1
	.p2align 2,,3
	.global	ull_ticker_status_give
	.syntax unified
	.thumb
	.thumb_func
	.type	ull_ticker_status_give, %function
ull_ticker_status_give:
.LVL19:
.LFB536:
	.loc 1 1804 1 is_stmt 1 view -0
	.cfi_startproc
	@ args = 0, pretend = 0, frame = 0
	@ frame_needed = 0, uses_anonymous_args = 0
	@ link register save eliminated.
	.loc 1 1805 2 view .LVU73
	.loc 1 1805 32 is_stmt 0 view .LVU74
	str	r0, [r1]
	.loc 1 1807 2 is_stmt 1 view .LVU75
.LVL20:
.LBB225:
.LBI225:
	.loc 2 1110 20 view .LVU76
.LBB226:
	.loc 2 1119 2 view .LVU77
	.loc 2 1119 7 view .LVU78
	.loc 2 1119 5 view .LVU79
	.loc 2 1120 2 view .LVU80
	ldr	r0, .L22
.LVL21:
	.loc 2 1120 2 is_stmt 0 view .LVU81
	b	z_impl_k_sem_give
.LVL22:
.L23:
	.loc 2 1120 2 view .LVU82
	.align	2
.L22:
	.word	sem_ticker_api_cb
.LBE226:
.LBE225:
	.cfi_endproc
.LFE536:
	.size	ull_ticker_status_give, .-ull_ticker_status_give
	.section	.text.disabled_cb,"ax",%progbits
	.align	1
	.p2align 2,,3
	.syntax unified
	.thumb
	.thumb_func
	.type	disabled_cb, %function
disabled_cb:
.LVL23:
.LFB575:
	.loc 1 2994 1 is_stmt 1 view -0
	.cfi_startproc
	@ args = 0, pretend = 0, frame = 0
	@ frame_needed = 0, uses_anonymous_args = 0
	@ link register save eliminated.
	.loc 1 2995 2 view .LVU84
.LBB227:
.LBI227:
	.loc 2 1110 20 view .LVU85
.LBB228:
	.loc 2 1119 2 view .LVU86
	.loc 2 1119 7 view .LVU87
	.loc 2 1119 5 view .LVU88
	.loc 2 1120 2 view .LVU89
	b	z_impl_k_sem_give
.LVL24:
	.loc 2 1120 2 is_stmt 0 view .LVU90
.LBE228:
.LBE227:
	.cfi_endproc
.LFE575:
	.size	disabled_cb, .-disabled_cb
	.section	.text.tx_cmplt_get,"ax",%progbits
	.align	1
	.p2align 2,,3
	.syntax unified
	.thumb
	.thumb_func
	.type	tx_cmplt_get, %function
tx_cmplt_get:
.LVL25:
.LFB571:
	.loc 1 2532 1 is_stmt 1 view -0
	.cfi_startproc
	@ args = 0, pretend = 0, frame = 0
	@ frame_needed = 0, uses_anonymous_args = 0
	.loc 1 2533 2 view .LVU92
	.loc 1 2534 2 view .LVU93
	.loc 1 2535 2 view .LVU94
	.loc 1 2537 2 view .LVU95
	.loc 1 2532 1 is_stmt 0 view .LVU96
	push	{r3, r4, r5, r6, r7, r8, r9, r10, fp, lr}
	.cfi_def_cfa_offset 40
	.cfi_offset 3, -40
	.cfi_offset 4, -36
	.cfi_offset 5, -32
	.cfi_offset 6, -28
	.cfi_offset 7, -24
	.cfi_offset 8, -20
	.cfi_offset 9, -16
	.cfi_offset 10, -12
	.cfi_offset 11, -8
	.cfi_offset 14, -4
	.loc 1 2538 58 view .LVU97
	ldr	r5, .L44
	.loc 1 2537 9 view .LVU98
	ldrb	r4, [r1]	@ zero_extendqisi2
.LVL26:
	.loc 1 2538 2 is_stmt 1 view .LVU99
	.loc 1 2538 7 is_stmt 0 view .LVU100
	ldrb	r3, [r5, #2]	@ zero_extendqisi2
	.loc 1 2532 1 view .LVU101
	mov	r10, r1
	.loc 1 2538 7 view .LVU102
	ldrb	r1, [r5, #4]	@ zero_extendqisi2
.LVL27:
.LBB229:
.LBB230:
	.file 3 "/home/g/mise-work/zmk-firmware/zmk/zephyr/subsys/bluetooth/controller/./util/mfifo.h"
	.loc 3 280 8 view .LVU103
	cmp	r4, r3
	it	cs
	movcs	r4, r1
.LVL28:
	.loc 3 283 5 view .LVU104
	cmp	r2, r4
.LBE230:
.LBE229:
	.loc 1 2538 7 view .LVU105
	ldrb	r1, [r5]	@ zero_extendqisi2
.LVL29:
.LBB232:
.LBI229:
	.loc 3 273 21 is_stmt 1 view .LVU106
.LBB231:
	.loc 3 276 2 view .LVU107
	.loc 3 277 2 view .LVU108
	.loc 3 279 2 view .LVU109
	.loc 3 283 2 view .LVU110
	.loc 3 283 5 is_stmt 0 view .LVU111
	beq	.L38
	.loc 3 287 2 is_stmt 1 view .LVU112
	.loc 3 292 29 is_stmt 0 view .LVU113
	smulbb	r1, r4, r1
.LVL30:
	.loc 3 292 4 view .LVU114
	add	r7, r5, #8
	.loc 3 287 4 view .LVU115
	adds	r4, r4, #1
.LVL31:
	.loc 3 287 4 view .LVU116
	uxtb	r4, r4
.LVL32:
	.loc 3 288 2 is_stmt 1 view .LVU117
	.loc 3 289 5 is_stmt 0 view .LVU118
	cmp	r3, r4
	it	eq
	moveq	r4, #0
.LVL33:
	.loc 3 292 2 is_stmt 1 view .LVU119
	.loc 3 292 4 is_stmt 0 view .LVU120
	adds	r3, r7, r1
.LVL34:
	.loc 3 294 2 is_stmt 1 view .LVU121
	.loc 3 296 2 view .LVU122
	.loc 3 296 2 is_stmt 0 view .LVU123
.LBE231:
.LBE232:
	.loc 1 2541 2 is_stmt 1 view .LVU124
	.loc 1 2545 2 view .LVU125
	.loc 1 2545 14 is_stmt 0 view .LVU126
	ldrh	r1, [r7, r1]
	.loc 1 2545 10 view .LVU127
	strh	r1, [r0]	@ movhi
	.loc 1 2546 2 is_stmt 1 view .LVU128
.LVL35:
	.loc 1 2546 2 is_stmt 0 view .LVU129
	mov	fp, r2
	mov	r9, r0
	.loc 1 2546 8 view .LVU130
	movs	r6, #0
.LBB233:
	.loc 1 2632 17 view .LVU131
	mov	r8, #1
	b	.L37
.LVL36:
.L30:
	.loc 1 2629 42 view .LVU132
	cmp	r0, #1
	beq	.L43
	.loc 1 2629 42 view .LVU133
	movs	r2, #18
	str	r2, [r3, #4]
	.loc 1 2641 4 is_stmt 1 view .LVU134
.LVL37:
.L34:
	.loc 1 2641 4 is_stmt 0 view .LVU135
.LBE233:
	.loc 1 2653 3 is_stmt 1 view .LVU136
	.loc 1 2653 10 is_stmt 0 view .LVU137
	strb	r4, [r10]
	.loc 1 2654 3 is_stmt 1 view .LVU138
	.loc 1 2654 8 is_stmt 0 view .LVU139
	ldrb	r0, [r5, #2]	@ zero_extendqisi2
	ldrb	r3, [r5, #4]	@ zero_extendqisi2
.LVL38:
	.loc 1 2654 8 view .LVU140
	ldrb	r1, [r5]	@ zero_extendqisi2
.LVL39:
.LBB234:
.LBI234:
	.loc 3 273 21 is_stmt 1 view .LVU141
.LBB235:
	.loc 3 276 2 view .LVU142
	.loc 3 277 2 view .LVU143
	.loc 3 279 2 view .LVU144
	cmp	r0, r4
	it	hi
	movhi	r3, r4
.LVL40:
	.loc 3 283 2 view .LVU145
	.loc 3 283 5 is_stmt 0 view .LVU146
	cmp	fp, r3
	beq	.L40
	.loc 3 287 2 is_stmt 1 view .LVU147
	.loc 3 292 29 is_stmt 0 view .LVU148
	smulbb	r1, r3, r1
.LVL41:
	.loc 3 287 4 view .LVU149
	adds	r3, r3, #1
.LVL42:
	.loc 3 287 4 view .LVU150
	uxtb	r4, r3
.LVL43:
	.loc 3 288 2 is_stmt 1 view .LVU151
	.loc 3 289 5 is_stmt 0 view .LVU152
	cmp	r0, r4
	it	eq
	moveq	r4, #0
.LVL44:
	.loc 3 292 2 is_stmt 1 view .LVU153
.LBE235:
.LBE234:
	.loc 1 2657 14 is_stmt 0 view .LVU154
	ldrh	ip, [r7, r1]
	ldrh	r0, [r9]
.LVL45:
	.loc 1 2657 14 view .LVU155
	cmp	ip, r0
.LBB237:
.LBB236:
	.loc 3 292 4 view .LVU156
	add	r3, r7, r1
.LVL46:
	.loc 3 294 2 is_stmt 1 view .LVU157
	.loc 3 296 2 view .LVU158
	.loc 3 296 2 is_stmt 0 view .LVU159
.LBE236:
.LBE237:
	.loc 1 2657 14 is_stmt 1 view .LVU160
	bne	.L40
.LVL47:
.L37:
	.loc 1 2547 2 view .LVU161
	.loc 1 2548 3 view .LVU162
.LBB238:
	.loc 1 2605 4 view .LVU163
	.loc 1 2606 4 view .LVU164
	.loc 1 2623 4 view .LVU165
	.loc 1 2623 12 is_stmt 0 view .LVU166
	ldr	r0, [r3, #4]
.LVL48:
	.loc 1 2624 4 is_stmt 1 view .LVU167
	.loc 1 2625 4 view .LVU168
	.loc 1 2625 7 is_stmt 0 view .LVU169
	cbz	r0, .L29
	.loc 1 2625 17 discriminator 1 view .LVU170
	cmp	r0, #255
	bls	.L30
	.loc 1 2627 47 view .LVU171
	ldrb	r1, [r0, #4]	@ zero_extendqisi2
	and	r1, r1, #3
	.loc 1 2626 41 view .LVU172
	subs	r1, r1, #1
	cmp	r1, #1
	bls	.L31
	.loc 1 2638 17 view .LVU173
	movs	r1, #18
.L32:
	.loc 1 2638 17 view .LVU174
	str	r1, [r3, #4]
	.loc 1 2641 4 is_stmt 1 view .LVU175
	.loc 1 2642 5 view .LVU176
	bl	ll_tx_mem_release
.LVL49:
	.loc 1 2642 5 is_stmt 0 view .LVU177
	b	.L34
.LVL50:
.L29:
	.loc 1 2632 5 is_stmt 1 view .LVU178
	.loc 1 2632 17 is_stmt 0 view .LVU179
	str	r8, [r3, #4]
.L43:
	.loc 1 2633 5 is_stmt 1 view .LVU180
	.loc 1 2633 10 is_stmt 0 view .LVU181
	adds	r6, r6, #1
.LVL51:
	.loc 1 2633 10 view .LVU182
	uxtb	r6, r6
.LVL52:
	.loc 1 2641 4 is_stmt 1 view .LVU183
	b	.L34
.LVL53:
.L38:
	.loc 1 2641 4 is_stmt 0 view .LVU184
.LBE238:
	.loc 1 2542 10 view .LVU185
	movs	r6, #0
.LVL54:
.L40:
	.loc 1 2660 1 view .LVU186
	mov	r0, r6
	pop	{r3, r4, r5, r6, r7, r8, r9, r10, fp, pc}
.LVL55:
.L31:
.LBB239:
	.loc 1 2632 5 is_stmt 1 view .LVU187
	.loc 1 2633 5 view .LVU188
	.loc 1 2633 10 is_stmt 0 view .LVU189
	adds	r6, r6, #1
.LVL56:
	.loc 1 2633 10 view .LVU190
	uxtb	r6, r6
.LVL57:
	.loc 1 2632 17 view .LVU191
	movs	r1, #1
	.loc 1 2633 10 view .LVU192
	b	.L32
.L45:
	.align	2
.L44:
	.word	mfifo_tx_ack
.LBE239:
	.cfi_endproc
.LFE571:
	.size	tx_cmplt_get, .-tx_cmplt_get
	.section	.text.rx_replenish,"ax",%progbits
	.align	1
	.p2align 2,,3
	.syntax unified
	.thumb
	.thumb_func
	.type	rx_replenish, %function
rx_replenish:
.LVL58:
.LFB565:
	.loc 1 2341 1 is_stmt 1 view -0
	.cfi_startproc
	@ args = 0, pretend = 0, frame = 0
	@ frame_needed = 0, uses_anonymous_args = 0
	.loc 1 2342 2 view .LVU194
	.loc 1 2344 2 view .LVU195
	.loc 1 2341 1 is_stmt 0 view .LVU196
	push	{r3, r4, r5, r6, r7, r8, r9, r10, fp, lr}
	.cfi_def_cfa_offset 40
	.cfi_offset 3, -40
	.cfi_offset 4, -36
	.cfi_offset 5, -32
	.cfi_offset 6, -28
	.cfi_offset 7, -24
	.cfi_offset 8, -20
	.cfi_offset 9, -16
	.cfi_offset 10, -12
	.cfi_offset 11, -8
	.cfi_offset 14, -4
	.loc 1 2344 23 view .LVU197
	ldr	r7, .L80
	ldrh	r3, [r7]
	.loc 1 2344 5 view .LVU198
	cmp	r0, r3
	bls	.L76
	.loc 1 2345 3 is_stmt 1 view .LVU199
.LVL59:
	.loc 1 2348 13 view .LVU200
	ands	r6, r3, #255
	beq	.L46
.LVL60:
.L47:
	.loc 1 2348 16 is_stmt 0 view .LVU201
	ldr	r5, .L80+4
.LBB240:
	.loc 1 2352 10 view .LVU202
	ldr	r8, .L80+8
.LBE240:
	.loc 1 2348 16 view .LVU203
	ldrb	r4, [r5, #5]	@ zero_extendqisi2
.LBB265:
	.loc 1 2357 8 view .LVU204
	ldr	r9, .L80+12
.LBB241:
.LBB242:
	.loc 3 124 5 view .LVU205
	add	r10, r5, #8
.L49:
.LVL61:
	.loc 3 124 5 view .LVU206
.LBE242:
.LBE241:
.LBE265:
.LBB266:
.LBB267:
	.loc 3 101 2 is_stmt 1 discriminator 1 view .LVU207
	.loc 3 87 5 is_stmt 0 discriminator 1 view .LVU208
	ldrb	r2, [r5, #2]	@ zero_extendqisi2
.LBE267:
.LBE266:
	.loc 1 2348 16 discriminator 1 view .LVU209
	ldrb	r3, [r5, #4]	@ zero_extendqisi2
.LVL62:
.LBB271:
.LBI266:
	.loc 3 82 19 is_stmt 1 discriminator 1 view .LVU210
.LBB268:
	.loc 3 86 2 discriminator 1 view .LVU211
	.loc 3 86 7 is_stmt 0 discriminator 1 view .LVU212
	adds	r4, r4, #1
	uxtb	r4, r4
.LVL63:
	.loc 3 87 2 is_stmt 1 discriminator 1 view .LVU213
	.loc 3 88 8 is_stmt 0 discriminator 1 view .LVU214
	cmp	r2, r4
	it	eq
	moveq	r4, #0
.LVL64:
	.loc 3 97 2 is_stmt 1 discriminator 1 view .LVU215
	.loc 3 102 2 discriminator 1 view .LVU216
	.loc 3 102 2 is_stmt 0 discriminator 1 view .LVU217
.LBE268:
.LBE271:
.LBB272:
	.loc 1 2349 3 is_stmt 1 discriminator 1 view .LVU218
	.loc 1 2350 3 discriminator 1 view .LVU219
	.loc 1 2352 3 discriminator 1 view .LVU220
.LBE272:
.LBB273:
.LBB269:
	.loc 3 97 5 is_stmt 0 discriminator 1 view .LVU221
	cmp	r3, r4
.LBE269:
.LBE273:
.LBB274:
	.loc 1 2352 10 discriminator 1 view .LVU222
	mov	r0, r8
.LBE274:
.LBB275:
.LBB270:
	.loc 3 97 5 discriminator 1 view .LVU223
	beq	.L53
.LBE270:
.LBE275:
.LBB276:
	.loc 1 2352 10 view .LVU224
	bl	mem_acquire
.LVL65:
	.loc 1 2357 3 is_stmt 1 view .LVU225
	.loc 1 2352 10 is_stmt 0 view .LVU226
	mov	fp, r0
.LVL66:
	.loc 1 2353 3 is_stmt 1 view .LVU227
	.loc 1 2357 8 is_stmt 0 view .LVU228
	mov	r0, r9
.LVL67:
	.loc 1 2353 6 view .LVU229
	cmp	fp, #0
	beq	.L46
	.loc 1 2357 8 view .LVU230
	bl	mem_acquire
.LVL68:
	.loc 1 2363 3 is_stmt 1 view .LVU231
	.loc 1 2358 3 view .LVU232
	.loc 1 2358 6 is_stmt 0 view .LVU233
	cmp	r0, #0
	beq	.L78
	.loc 1 2363 12 view .LVU234
	str	fp, [r0]
	.loc 1 2365 3 is_stmt 1 view .LVU235
.LVL69:
.LBB247:
.LBI241:
	.loc 3 119 20 view .LVU236
.LBB245:
	.loc 3 123 2 view .LVU237
	.loc 3 124 2 view .LVU238
	.loc 3 123 38 is_stmt 0 view .LVU239
	ldrb	r3, [r5, #5]	@ zero_extendqisi2
	ldrb	r2, [r5]	@ zero_extendqisi2
	smulbb	r3, r3, r2
	.loc 3 124 5 view .LVU240
	str	r0, [r10, r3]
.LVL70:
	.loc 3 126 2 is_stmt 1 view .LVU241
.LBB243:
.LBI243:
	.file 4 "/home/g/mise-work/zmk-firmware/zmk/zephyr/subsys/bluetooth/controller/ll_sw/nordic/hal/nrf5/cpu.h"
	.loc 4 15 20 view .LVU242
.LBB244:
	.loc 4 27 2 view .LVU243
.LBE244:
.LBE243:
	.loc 3 127 2 view .LVU244
.LBE245:
.LBE247:
.LBB248:
.LBB249:
.LBB250:
	.loc 1 1675 24 is_stmt 0 view .LVU245
	ldrh	r3, [r7]
.LBE250:
.LBE249:
.LBE248:
.LBB257:
.LBB246:
	.loc 3 127 8 view .LVU246
	strb	r4, [r5, #5]
.LVL71:
	.loc 3 127 8 view .LVU247
.LBE246:
.LBE257:
	.loc 1 2367 3 is_stmt 1 view .LVU248
.LBB258:
.LBI248:
	.loc 1 1683 13 view .LVU249
	.loc 1 1685 2 view .LVU250
.LBB254:
.LBI249:
	.loc 1 1672 13 view .LVU251
.LBB251:
	.loc 1 1674 2 view .LVU252
	.loc 1 1674 7 view .LVU253
	.loc 1 1674 266 view .LVU254
	.loc 1 1674 5 view .LVU255
	.loc 1 1675 2 view .LVU256
.LBE251:
.LBE254:
.LBE258:
	.loc 1 2369 6 is_stmt 0 view .LVU257
	subs	r6, r6, #1
.LVL72:
.LBB259:
.LBB255:
.LBB252:
	.loc 1 1675 24 view .LVU258
	subs	r3, r3, #1
.LBE252:
.LBE255:
.LBE259:
.LBE276:
	.loc 1 2348 13 view .LVU259
	ands	r6, r6, #255
.LBB277:
.LBB260:
.LBB256:
.LBB253:
	.loc 1 1675 24 view .LVU260
	strh	r3, [r7]	@ movhi
.LVL73:
	.loc 1 1675 24 view .LVU261
.LBE253:
.LBE256:
.LBE260:
	.loc 1 2369 3 is_stmt 1 view .LVU262
	.loc 1 2369 3 is_stmt 0 view .LVU263
.LBE277:
	.loc 1 2348 13 is_stmt 1 view .LVU264
	bne	.L49
.LVL74:
.L46:
	.loc 1 2404 1 is_stmt 0 view .LVU265
	pop	{r3, r4, r5, r6, r7, r8, r9, r10, fp, pc}
.LVL75:
.L53:
	.loc 1 2373 2 is_stmt 1 view .LVU266
	.loc 1 2380 31 view .LVU267
	ldrh	r3, [r7]
	cmp	r3, #0
	beq	.L46
	.loc 1 2381 9 is_stmt 0 view .LVU268
	ldr	r9, .L80+16
.LBB278:
	.loc 1 2385 10 view .LVU269
	ldr	r5, .L80+8
.LBE278:
	.loc 1 2381 9 view .LVU270
	ldrb	r4, [r9, #5]	@ zero_extendqisi2
.LBB297:
	.loc 1 2390 8 view .LVU271
	ldr	r6, .L80+12
.LVL76:
.LBB279:
.LBB280:
	.loc 3 124 5 view .LVU272
	add	r8, r9, #8
.L55:
.LBE280:
.LBE279:
.LBE297:
.LBB298:
.LBB299:
	.loc 3 101 2 is_stmt 1 discriminator 1 view .LVU273
	.loc 3 87 5 is_stmt 0 discriminator 1 view .LVU274
	ldrb	r2, [r9, #2]	@ zero_extendqisi2
.LBE299:
.LBE298:
	.loc 1 2381 9 discriminator 1 view .LVU275
	ldrb	r3, [r9, #4]	@ zero_extendqisi2
.LVL77:
.LBB303:
.LBI298:
	.loc 3 82 19 is_stmt 1 discriminator 1 view .LVU276
.LBB300:
	.loc 3 86 2 discriminator 1 view .LVU277
	.loc 3 86 7 is_stmt 0 discriminator 1 view .LVU278
	adds	r4, r4, #1
	uxtb	r4, r4
.LVL78:
	.loc 3 87 2 is_stmt 1 discriminator 1 view .LVU279
	.loc 3 88 8 is_stmt 0 discriminator 1 view .LVU280
	cmp	r2, r4
	it	eq
	moveq	r4, #0
.LVL79:
	.loc 3 97 2 is_stmt 1 discriminator 1 view .LVU281
	.loc 3 102 2 discriminator 1 view .LVU282
	.loc 3 102 2 is_stmt 0 discriminator 1 view .LVU283
.LBE300:
.LBE303:
.LBB304:
	.loc 1 2382 3 is_stmt 1 discriminator 1 view .LVU284
	.loc 1 2383 3 discriminator 1 view .LVU285
	.loc 1 2385 3 discriminator 1 view .LVU286
.LBE304:
.LBB305:
.LBB301:
	.loc 3 97 5 is_stmt 0 discriminator 1 view .LVU287
	cmp	r3, r4
.LBE301:
.LBE305:
.LBB306:
	.loc 1 2385 10 discriminator 1 view .LVU288
	mov	r0, r5
.LBE306:
.LBB307:
.LBB302:
	.loc 3 97 5 discriminator 1 view .LVU289
	beq	.L46
.LBE302:
.LBE307:
.LBB308:
	.loc 1 2385 10 view .LVU290
	bl	mem_acquire
.LVL80:
	.loc 1 2390 3 is_stmt 1 view .LVU291
	.loc 1 2385 10 is_stmt 0 view .LVU292
	mov	r10, r0
.LVL81:
	.loc 1 2386 3 is_stmt 1 view .LVU293
	.loc 1 2390 8 is_stmt 0 view .LVU294
	mov	r0, r6
.LVL82:
	.loc 1 2386 6 view .LVU295
	cmp	r10, #0
	beq	.L46
	.loc 1 2390 8 view .LVU296
	bl	mem_acquire
.LVL83:
	.loc 1 2396 3 is_stmt 1 view .LVU297
	.loc 1 2391 3 view .LVU298
	.loc 1 2396 13 is_stmt 0 view .LVU299
	movs	r3, #0
	.loc 1 2391 6 view .LVU300
	cbz	r0, .L79
	.loc 1 2396 13 view .LVU301
	str	r3, [r10, #4]
	.loc 1 2397 3 is_stmt 1 view .LVU302
	.loc 1 2397 12 is_stmt 0 view .LVU303
	str	r10, [r0]
	.loc 1 2399 3 is_stmt 1 view .LVU304
.LVL84:
.LBB285:
.LBI279:
	.loc 3 119 20 view .LVU305
.LBB283:
	.loc 3 123 2 view .LVU306
	.loc 3 124 2 view .LVU307
	.loc 3 123 38 is_stmt 0 view .LVU308
	ldrb	r3, [r9, #5]	@ zero_extendqisi2
	ldrb	r2, [r9]	@ zero_extendqisi2
	smulbb	r3, r3, r2
	.loc 3 124 5 view .LVU309
	str	r0, [r8, r3]
.LVL85:
	.loc 3 126 2 is_stmt 1 view .LVU310
.LBB281:
.LBI281:
	.loc 4 15 20 view .LVU311
.LBB282:
	.loc 4 27 2 view .LVU312
.LBE282:
.LBE281:
	.loc 3 127 2 view .LVU313
.LBE283:
.LBE285:
.LBB286:
.LBB287:
.LBB288:
	.loc 1 1675 24 is_stmt 0 view .LVU314
	ldrh	r3, [r7]
.LBE288:
.LBE287:
.LBE286:
.LBB291:
.LBB284:
	.loc 3 127 8 view .LVU315
	strb	r4, [r9, #5]
.LVL86:
	.loc 3 127 8 view .LVU316
.LBE284:
.LBE291:
	.loc 1 2401 3 is_stmt 1 view .LVU317
.LBB292:
.LBI286:
	.loc 1 1683 13 view .LVU318
	.loc 1 1685 2 view .LVU319
.LBB290:
.LBI287:
	.loc 1 1672 13 view .LVU320
.LBB289:
	.loc 1 1674 2 view .LVU321
	.loc 1 1674 7 view .LVU322
	.loc 1 1674 266 view .LVU323
	.loc 1 1674 5 view .LVU324
	.loc 1 1675 2 view .LVU325
	.loc 1 1675 24 is_stmt 0 view .LVU326
	subs	r3, r3, #1
	uxth	r3, r3
	strh	r3, [r7]	@ movhi
.LVL87:
	.loc 1 1675 24 view .LVU327
.LBE289:
.LBE290:
.LBE292:
.LBE308:
	.loc 1 2380 31 is_stmt 1 view .LVU328
	cmp	r3, #0
	bne	.L55
	b	.L46
.LVL88:
.L76:
	.loc 1 2380 31 is_stmt 0 view .LVU329
	mov	r6, r0
	b	.L47
.LVL89:
.L78:
.LBB309:
	.loc 1 2359 4 is_stmt 1 view .LVU330
.LBB261:
.LBI261:
	.loc 1 1693 6 view .LVU331
.LBB262:
	.loc 1 1695 2 view .LVU332
	mov	r0, fp
.LVL90:
	.loc 1 1695 2 is_stmt 0 view .LVU333
	ldr	r1, .L80+8
.LBE262:
.LBE261:
.LBE309:
	.loc 1 2404 1 view .LVU334
	pop	{r3, r4, r5, r6, r7, r8, r9, r10, fp, lr}
	.cfi_remember_state
	.cfi_restore 14
	.cfi_restore 11
	.cfi_restore 10
	.cfi_restore 9
	.cfi_restore 8
	.cfi_restore 7
	.cfi_restore 6
	.cfi_restore 5
	.cfi_restore 4
	.cfi_restore 3
	.cfi_def_cfa_offset 0
.LVL91:
.LBB310:
.LBB264:
.LBB263:
	.loc 1 1695 2 view .LVU335
	b	mem_release
.LVL92:
.L79:
	.cfi_restore_state
	.loc 1 1695 2 view .LVU336
.LBE263:
.LBE264:
.LBE310:
.LBB311:
	.loc 1 2392 4 is_stmt 1 view .LVU337
.LBB293:
.LBI293:
	.loc 1 1693 6 view .LVU338
.LBB294:
	.loc 1 1695 2 view .LVU339
	mov	r0, r10
.LVL93:
	.loc 1 1695 2 is_stmt 0 view .LVU340
	ldr	r1, .L80+8
.LBE294:
.LBE293:
.LBE311:
	.loc 1 2404 1 view .LVU341
	pop	{r3, r4, r5, r6, r7, r8, r9, r10, fp, lr}
	.cfi_restore 14
	.cfi_restore 11
	.cfi_restore 10
	.cfi_restore 9
	.cfi_restore 8
	.cfi_restore 7
	.cfi_restore 6
	.cfi_restore 5
	.cfi_restore 4
	.cfi_restore 3
	.cfi_def_cfa_offset 0
.LVL94:
.LBB312:
.LBB296:
.LBB295:
	.loc 1 1695 2 view .LVU342
	b	mem_release
.LVL95:
.L81:
	.loc 1 1695 2 view .LVU343
	.align	2
.L80:
	.word	mem_link_rx
	.word	mfifo_pdu_rx_free
	.word	mem_link_rx+4
	.word	mem_pdu_rx
	.word	mfifo_ll_pdu_rx_free
.LBE295:
.LBE296:
.LBE312:
	.cfi_endproc
.LFE565:
	.size	rx_replenish, .-rx_replenish
	.section	.rodata.rx_demux.str1.4,"aMS",%progbits,1
	.align	2
.LC3:
	.ascii	"rx\000"
	.align	2
.LC4:
	.ascii	"ull_ref_get(ull_hdr)\000"
	.align	2
.LC5:
	.ascii	"0\000"
	.align	2
.LC6:
	.ascii	"release == done\000"
	.section	.text.rx_demux,"ax",%progbits
	.align	1
	.p2align 2,,3
	.syntax unified
	.thumb
	.thumb_func
	.type	rx_demux, %function
rx_demux:
.LVL96:
.LFB570:
	.loc 1 2441 1 is_stmt 1 view -0
	.cfi_startproc
	@ args = 0, pretend = 0, frame = 24
	@ frame_needed = 0, uses_anonymous_args = 0
	.loc 1 2441 1 is_stmt 0 view .LVU345
	push	{r4, r5, r6, r7, r8, r9, r10, fp, lr}
	.cfi_def_cfa_offset 36
	.cfi_offset 4, -36
	.cfi_offset 5, -32
	.cfi_offset 6, -28
	.cfi_offset 7, -24
	.cfi_offset 8, -20
	.cfi_offset 9, -16
	.cfi_offset 10, -12
	.cfi_offset 11, -8
	.cfi_offset 14, -4
	ldr	r8, .L133+16
.LBB362:
.LBB363:
.LBB364:
.LBB365:
.LBB366:
.LBB367:
	.loc 1 1732 2 view .LVU346
	ldr	r9, .L133
.LBE367:
.LBE366:
.LBE365:
.LBE364:
	.loc 1 2458 22 view .LVU347
	ldr	fp, .L133+8
	ldr	r10, .L133+40
.LBE363:
.LBE362:
	.loc 1 2441 1 view .LVU348
	sub	sp, sp, #28
	.cfi_def_cfa_offset 64
.LVL97:
.L107:
	.loc 1 2442 2 is_stmt 1 view .LVU349
	.loc 1 2445 2 view .LVU350
.LBB437:
	.loc 1 2447 3 view .LVU351
	.loc 1 2449 3 view .LVU352
	.loc 1 2449 10 is_stmt 0 view .LVU353
	ldrd	r0, r1, [r8]
	add	r2, sp, #12
	bl	memq_peek
.LVL98:
	.loc 1 2451 3 is_stmt 1 view .LVU354
	.loc 1 2451 6 is_stmt 0 view .LVU355
	mov	r5, r0
	cmp	r0, #0
	beq	.L83
.L130:
.LBB431:
	.loc 1 2453 4 is_stmt 1 view .LVU356
	.loc 1 2454 4 view .LVU357
	.loc 1 2455 4 view .LVU358
	.loc 1 2458 4 view .LVU359
	.loc 1 2458 9 view .LVU360
	.loc 1 2458 13 is_stmt 0 view .LVU361
	ldr	r3, [sp, #12]
	.loc 1 2458 12 view .LVU362
	cmp	r3, #0
	beq	.L129
.LVL99:
.L84:
	.loc 1 2458 146 is_stmt 1 discriminator 3 view .LVU363
	.loc 1 2458 7 discriminator 3 view .LVU364
	.loc 1 2461 4 discriminator 3 view .LVU365
	.loc 1 2461 14 is_stmt 0 discriminator 3 view .LVU366
	ldrb	r0, [r3]	@ zero_extendqisi2
	add	r2, sp, #16
	add	r1, sp, #8
	bl	ull_conn_ack_by_last_peek
.LVL100:
	.loc 1 2463 4 is_stmt 1 discriminator 3 view .LVU367
	.loc 1 2463 7 is_stmt 0 discriminator 3 view .LVU368
	mov	r4, r0
	cmp	r0, #0
	beq	.L85
	.loc 1 2464 5 is_stmt 1 view .LVU369
	ldrd	r1, r3, [sp, #12]
	ldrh	r2, [sp, #8]
	ldrb	r7, [r1]	@ zero_extendqisi2
.LVL101:
	.loc 1 2464 5 is_stmt 0 view .LVU370
	strh	r2, [sp, #10]	@ movhi
.LVL102:
	.loc 1 2464 5 view .LVU371
	str	r3, [sp, #20]
.LVL103:
.LBB373:
.LBI364:
	.loc 1 2662 20 is_stmt 1 view .LVU372
	add	r6, sp, #20
	add	r5, sp, #10
.LVL104:
.L86:
.LBB372:
	.loc 1 2667 2 view .LVU373
	.loc 1 2670 3 view .LVU374
	bl	ull_conn_ack_dequeue
.LVL105:
	.loc 1 2673 3 view .LVU375
	mov	r1, r4
	ldr	r2, [sp, #20]
	ldrh	r0, [sp, #10]
	bl	ull_conn_tx_ack
.LVL106:
	.loc 1 2676 3 view .LVU376
	mov	r0, r4
	bl	ull_conn_link_tx_release
.LVL107:
	.loc 1 2679 3 view .LVU377
	.loc 1 2679 10 is_stmt 0 view .LVU378
	mov	r2, r6
	mov	r1, r5
	mov	r0, r7
	bl	ull_conn_ack_by_last_peek
.LVL108:
	.loc 1 2684 11 is_stmt 1 view .LVU379
	mov	r4, r0
	cmp	r0, #0
	bne	.L86
	.loc 1 2689 4 view .LVU380
.LBB371:
.LBI366:
	.loc 1 1727 6 view .LVU381
.LBB370:
	.loc 1 1732 2 view .LVU382
	ldr	r0, [r9]
.LVL109:
.LBB368:
.LBI368:
	.loc 2 1110 20 view .LVU383
.LBB369:
	.loc 2 1119 2 view .LVU384
	.loc 2 1119 7 view .LVU385
	.loc 2 1119 5 view .LVU386
	.loc 2 1120 2 view .LVU387
	bl	z_impl_k_sem_give
.LVL110:
	.loc 2 1120 2 is_stmt 0 view .LVU388
.LBE369:
.LBE368:
.LBE370:
.LBE371:
.LBE372:
.LBE373:
.LBE431:
.LBE437:
	.loc 1 2442 2 is_stmt 1 view .LVU389
	.loc 1 2445 2 view .LVU390
.LBB438:
	.loc 1 2447 3 view .LVU391
	.loc 1 2449 3 view .LVU392
	.loc 1 2449 10 is_stmt 0 view .LVU393
	ldrd	r0, r1, [r8]
	add	r2, sp, #12
	bl	memq_peek
.LVL111:
	.loc 1 2451 3 is_stmt 1 view .LVU394
	.loc 1 2451 6 is_stmt 0 view .LVU395
	mov	r5, r0
	cmp	r0, #0
	bne	.L130
.LVL112:
.L83:
.LBB432:
	.loc 1 2478 4 is_stmt 1 view .LVU396
	.loc 1 2479 4 view .LVU397
	.loc 1 2480 4 view .LVU398
	.loc 1 2482 4 view .LVU399
	.loc 1 2482 11 is_stmt 0 view .LVU400
	add	r2, sp, #16
	add	r1, sp, #8
	add	r0, sp, #7
.LVL113:
	.loc 1 2482 11 view .LVU401
	bl	ull_conn_ack_peek
.LVL114:
	.loc 1 2483 4 is_stmt 1 view .LVU402
	.loc 1 2483 7 is_stmt 0 view .LVU403
	mov	r4, r0
	cmp	r0, #0
	beq	.L125
	.loc 1 2484 5 is_stmt 1 view .LVU404
	ldr	r3, [sp, #16]
	str	r3, [sp, #20]
	ldrb	r7, [sp, #7]	@ zero_extendqisi2
.LVL115:
.LBB433:
.LBI433:
	.loc 1 2662 20 view .LVU405
	ldrh	r3, [sp, #8]
.LVL116:
	.loc 1 2662 20 is_stmt 0 view .LVU406
	strh	r3, [sp, #10]	@ movhi
.LVL117:
	.loc 1 2662 20 view .LVU407
	add	r6, sp, #20
	add	r5, sp, #10
.LVL118:
.L106:
.LBB434:
	.loc 1 2667 2 is_stmt 1 view .LVU408
	.loc 1 2670 3 view .LVU409
	bl	ull_conn_ack_dequeue
.LVL119:
	.loc 1 2673 3 view .LVU410
	mov	r1, r4
	ldr	r2, [sp, #20]
	ldrh	r0, [sp, #10]
	bl	ull_conn_tx_ack
.LVL120:
	.loc 1 2676 3 view .LVU411
	mov	r0, r4
	bl	ull_conn_link_tx_release
.LVL121:
	.loc 1 2679 3 view .LVU412
	.loc 1 2679 10 is_stmt 0 view .LVU413
	mov	r2, r6
	mov	r1, r5
	mov	r0, r7
	bl	ull_conn_ack_by_last_peek
.LVL122:
	.loc 1 2684 11 is_stmt 1 view .LVU414
	mov	r4, r0
	cmp	r0, #0
	bne	.L106
.LBE434:
.LBE433:
.LBE432:
.LBB435:
.LBB374:
.LBB375:
.LBB376:
.LBB377:
	.loc 1 1738 2 view .LVU415
.LBB378:
.LBI378:
	.loc 1 1727 6 view .LVU416
.LBB379:
	.loc 1 1732 2 view .LVU417
	ldr	r3, .L133
	ldr	r0, [r3]
.LVL123:
.LBB380:
.LBI380:
	.loc 2 1110 20 view .LVU418
.LBB381:
	.loc 2 1119 2 view .LVU419
	.loc 2 1119 7 view .LVU420
	.loc 2 1119 5 view .LVU421
	.loc 2 1120 2 view .LVU422
	bl	z_impl_k_sem_give
.LVL124:
	.loc 2 1120 2 is_stmt 0 view .LVU423
.LBE381:
.LBE380:
.LBE379:
.LBE378:
	.loc 1 1739 1 view .LVU424
	b	.L107
.LVL125:
.L85:
	.loc 1 1739 1 view .LVU425
.LBE377:
.LBE376:
.LBE375:
.LBE374:
	.loc 1 2469 5 is_stmt 1 view .LVU426
	ldr	r3, [sp, #12]
.LVL126:
	.loc 1 2469 5 is_stmt 0 view .LVU427
	str	r3, [sp, #20]
.LVL127:
.LBB429:
.LBI374:
	.loc 1 2699 20 is_stmt 1 view .LVU428
.LBB427:
	.loc 1 2702 2 view .LVU429
	ldrb	r3, [r3, #4]	@ zero_extendqisi2
.LVL128:
	.loc 1 2702 2 is_stmt 0 view .LVU430
	subs	r3, r3, #1
	cmp	r3, #23
	bhi	.L88
	tbb	[pc, r3]
.L90:
	.byte	(.L89-.L90)/2
	.byte	(.L93-.L90)/2
	.byte	(.L92-.L90)/2
	.byte	(.L88-.L90)/2
	.byte	(.L88-.L90)/2
	.byte	(.L88-.L90)/2
	.byte	(.L88-.L90)/2
	.byte	(.L88-.L90)/2
	.byte	(.L88-.L90)/2
	.byte	(.L88-.L90)/2
	.byte	(.L88-.L90)/2
	.byte	(.L88-.L90)/2
	.byte	(.L88-.L90)/2
	.byte	(.L88-.L90)/2
	.byte	(.L88-.L90)/2
	.byte	(.L88-.L90)/2
	.byte	(.L88-.L90)/2
	.byte	(.L88-.L90)/2
	.byte	(.L88-.L90)/2
	.byte	(.L88-.L90)/2
	.byte	(.L88-.L90)/2
	.byte	(.L88-.L90)/2
	.byte	(.L91-.L90)/2
	.byte	(.L89-.L90)/2
.LVL129:
	.p2align 1
.L129:
	.loc 1 2702 2 view .LVU431
.LBE427:
.LBE429:
	.loc 1 2458 22 is_stmt 1 discriminator 1 view .LVU432
	ldr	r0, .L133+4
.LVL130:
	.loc 1 2458 22 is_stmt 0 discriminator 1 view .LVU433
	movw	r3, #2458
	mov	r2, fp
	mov	r1, r10
	bl	assert_print
.LVL131:
	.loc 1 2458 143 is_stmt 1 discriminator 1 view .LVU434
	.loc 1 2458 148 discriminator 1 view .LVU435
	.syntax unified
@ 2458 "/home/g/mise-work/zmk-firmware/zmk/zephyr/subsys/bluetooth/controller/ll_sw/ull.c" 1
	eors.n r0, r0
	msr BASEPRI, r0
	mov r0, #3
	svc #2
	
@ 0 "" 2
	.loc 1 2461 42 is_stmt 0 discriminator 1 view .LVU436
	.thumb
	.syntax unified
	ldr	r3, [sp, #12]
	b	.L84
.LVL132:
.L125:
	.loc 1 2461 42 discriminator 1 view .LVU437
.LBE435:
.LBE438:
	.loc 1 2498 1 view .LVU438
	add	sp, sp, #28
	.cfi_remember_state
	.cfi_def_cfa_offset 36
	@ sp needed
	pop	{r4, r5, r6, r7, r8, r9, r10, fp, pc}
.LVL133:
.L88:
	.cfi_restore_state
.LBB439:
.LBB436:
.LBB430:
.LBB428:
	.loc 1 2866 3 is_stmt 1 view .LVU439
	.loc 1 2866 8 view .LVU440
	.loc 1 2866 20 view .LVU441
	ldr	r2, .L133+8
	ldr	r1, .L133+12
	ldr	r0, .L133+4
.LVL134:
	.loc 1 2866 20 is_stmt 0 view .LVU442
	movw	r3, #2866
	bl	assert_print
.LVL135:
	.loc 1 2866 140 is_stmt 1 view .LVU443
	.loc 1 2866 145 view .LVU444
	.syntax unified
@ 2866 "/home/g/mise-work/zmk-firmware/zmk/zephyr/subsys/bluetooth/controller/ll_sw/ull.c" 1
	eors.n r0, r0
	msr BASEPRI, r0
	mov r0, #3
	svc #2
	
@ 0 "" 2
	.loc 1 2866 143 view .LVU445
	.loc 1 2866 6 view .LVU446
	.loc 1 2869 2 view .LVU447
.LVL136:
	.loc 1 2869 2 is_stmt 0 view .LVU448
	.thumb
	.syntax unified
	b	.L107
.LVL137:
.L89:
	.loc 1 2845 3 is_stmt 1 view .LVU449
	.loc 1 2845 9 is_stmt 0 view .LVU450
	ldr	r1, .L133+16
	ldr	r0, [r8, #4]
.LVL138:
	.loc 1 2845 9 view .LVU451
	movs	r2, #0
	bl	memq_dequeue
.LVL139:
	.loc 1 2846 3 is_stmt 1 view .LVU452
.LBB395:
.LBB392:
.LBB385:
.LBB386:
	.loc 1 1716 33 is_stmt 0 view .LVU453
	ldr	r3, .L133+20
.LBE386:
.LBE385:
.LBE392:
.LBE395:
	.loc 1 2846 3 view .LVU454
	ldr	r1, [sp, #20]
.LBB396:
.LBB393:
.LBB389:
.LBB387:
	.loc 1 1716 33 view .LVU455
	ldrb	r3, [r3, #5]	@ zero_extendqisi2
	.loc 1 1720 2 view .LVU456
	mov	r0, r5
.LVL140:
.L127:
	.loc 1 1720 2 view .LVU457
.LBE387:
.LBE389:
.LBE393:
.LBI376:
	.loc 1 1735 6 is_stmt 1 view .LVU458
.LBB394:
	.loc 1 1737 2 view .LVU459
.LBB390:
.LBI385:
	.loc 1 1708 6 view .LVU460
.LBB388:
	.loc 1 1711 2 view .LVU461
	.loc 1 1716 2 view .LVU462
	.loc 1 1716 19 is_stmt 0 view .LVU463
	strb	r3, [r1]
	.loc 1 1720 2 is_stmt 1 view .LVU464
	ldr	r2, .L133+24
	bl	memq_enqueue
.LVL141:
	.loc 1 1720 2 is_stmt 0 view .LVU465
.LBE388:
.LBE390:
	.loc 1 1738 2 is_stmt 1 view .LVU466
.LBB391:
	.loc 1 1727 6 view .LVU467
.LBB384:
	.loc 1 1732 2 view .LVU468
	ldr	r3, .L133
	ldr	r0, [r3]
.LVL142:
.LBB383:
	.loc 2 1110 20 view .LVU469
.LBB382:
	.loc 2 1119 2 view .LVU470
	.loc 2 1119 7 view .LVU471
	.loc 2 1119 5 view .LVU472
	.loc 2 1120 2 view .LVU473
	bl	z_impl_k_sem_give
.LVL143:
	.loc 2 1120 2 is_stmt 0 view .LVU474
	b	.L107
.LVL144:
.L93:
	.loc 2 1120 2 view .LVU475
.LBE382:
.LBE383:
.LBE384:
.LBE391:
.LBE394:
.LBE396:
	.loc 1 2705 3 is_stmt 1 view .LVU476
	.loc 1 2705 9 is_stmt 0 view .LVU477
	ldr	r1, .L133+16
	ldr	r0, [r8, #4]
.LVL145:
	.loc 1 2705 9 view .LVU478
	movs	r2, #0
	bl	memq_dequeue
.LVL146:
	.loc 1 2706 3 is_stmt 1 view .LVU479
	ldr	r6, [sp, #20]
.LVL147:
.LBB397:
.LBI397:
	.loc 1 2873 20 view .LVU480
.LBB398:
	.loc 1 2876 2 view .LVU481
	.loc 1 2877 2 view .LVU482
	.loc 1 2878 2 view .LVU483
	.loc 1 2881 2 view .LVU484
	.loc 1 2881 10 is_stmt 0 view .LVU485
	ldr	r4, [r6, #28]
.LVL148:
	.loc 1 2882 2 is_stmt 1 view .LVU486
	.loc 1 2882 5 is_stmt 0 view .LVU487
	cbz	r4, .L94
	.loc 1 2883 3 is_stmt 1 view .LVU488
	.loc 1 2883 8 view .LVU489
.LVL149:
.LBB399:
.LBI399:
	.file 5 "/home/g/mise-work/zmk-firmware/zmk/zephyr/subsys/bluetooth/controller/ll_sw/ull_internal.h"
	.loc 5 48 23 view .LVU490
.LBB400:
	.loc 5 50 2 view .LVU491
	.loc 5 50 12 is_stmt 0 view .LVU492
	ldrb	r3, [r4]	@ zero_extendqisi2
.LBE400:
.LBE399:
	.loc 1 2883 11 view .LVU493
	cmp	r3, #0
	beq	.L131
.L95:
	.loc 1 2883 181 is_stmt 1 view .LVU494
	.loc 1 2883 6 view .LVU495
	.loc 1 2884 3 view .LVU496
.LVL150:
.LBB401:
.LBI401:
	.loc 5 58 23 view .LVU497
.LBB402:
	.loc 5 60 2 view .LVU498
	.loc 5 60 12 is_stmt 0 view .LVU499
	ldrb	r3, [r4]	@ zero_extendqisi2
	.loc 5 60 17 view .LVU500
	subs	r3, r3, #1
	uxtb	r3, r3
	strb	r3, [r4]
.LVL151:
.L94:
	.loc 5 60 17 view .LVU501
.LBE402:
.LBE401:
	.loc 1 2888 2 is_stmt 1 view .LVU502
	.loc 1 2888 21 is_stmt 0 view .LVU503
	ldrb	r3, [r6, #32]	@ zero_extendqisi2
	.loc 1 2888 2 view .LVU504
	cbz	r3, .L96
	cmp	r3, #1
	bne	.L97
	.loc 1 2891 3 is_stmt 1 view .LVU505
	mov	r0, r6
	bl	ull_conn_done
.LVL152:
	.loc 1 2892 3 view .LVU506
.L96:
	.loc 1 2975 2 view .LVU507
	.loc 1 2976 41 is_stmt 0 view .LVU508
	ldr	r2, .L133+28
	.loc 1 2975 19 view .LVU509
	movs	r3, #0
	strb	r3, [r6, #32]
	.loc 1 2976 2 is_stmt 1 view .LVU510
.LBB403:
.LBB404:
.LBB405:
.LBB406:
	.loc 3 86 7 is_stmt 0 view .LVU511
	ldrb	r3, [r2, #5]	@ zero_extendqisi2
	.loc 3 87 5 view .LVU512
	ldrb	r1, [r2, #2]	@ zero_extendqisi2
.LBE406:
.LBE405:
.LBE404:
.LBE403:
	.loc 1 2976 12 view .LVU513
	ldrb	r0, [r2, #4]	@ zero_extendqisi2
.LBB417:
.LBB415:
.LBB409:
.LBB407:
	.loc 3 86 7 view .LVU514
	adds	r3, r3, #1
	uxtb	r3, r3
	.loc 3 88 8 view .LVU515
	cmp	r1, r3
	it	eq
	moveq	r3, #0
	.loc 3 97 5 view .LVU516
	cmp	r0, r3
.LBE407:
.LBE409:
.LBE415:
.LBE417:
	.loc 1 2976 12 view .LVU517
	ldrb	r1, [r2]	@ zero_extendqisi2
.LVL153:
.LBB418:
.LBI403:
	.loc 1 3034 7 is_stmt 1 view .LVU518
.LBB416:
	.loc 1 3037 2 view .LVU519
	.loc 1 3039 2 view .LVU520
.LBB410:
.LBI405:
	.loc 3 82 19 view .LVU521
.LBB408:
	.loc 3 86 2 view .LVU522
	.loc 3 87 2 view .LVU523
	.loc 3 97 2 view .LVU524
	.loc 3 97 5 is_stmt 0 view .LVU525
	beq	.L132
	.loc 3 101 2 is_stmt 1 view .LVU526
.LVL154:
	.loc 3 102 2 view .LVU527
	.loc 3 102 2 is_stmt 0 view .LVU528
.LBE408:
.LBE410:
	.loc 1 3043 2 is_stmt 1 view .LVU529
	.loc 1 3043 11 is_stmt 0 view .LVU530
	str	r5, [r6]
.LVL155:
	.loc 1 3045 2 is_stmt 1 view .LVU531
.LBB411:
.LBI411:
	.loc 3 119 20 view .LVU532
.LBB412:
	.loc 3 123 2 view .LVU533
	.loc 3 124 2 view .LVU534
	.loc 3 123 38 is_stmt 0 view .LVU535
	ldrb	r0, [r2, #5]	@ zero_extendqisi2
.LVL156:
	.loc 3 124 5 view .LVU536
	mla	r1, r0, r1, r2
.LVL157:
	.loc 3 124 5 view .LVU537
	str	r6, [r1, #8]
	.loc 3 126 2 is_stmt 1 view .LVU538
.LBB413:
.LBI413:
	.loc 4 15 20 view .LVU539
.LBB414:
	.loc 4 27 2 view .LVU540
.LBE414:
.LBE413:
	.loc 3 127 2 view .LVU541
	.loc 3 127 8 is_stmt 0 view .LVU542
	strb	r3, [r2, #5]
.LVL158:
	.loc 3 127 8 view .LVU543
.LBE412:
.LBE411:
	.loc 1 3047 2 is_stmt 1 view .LVU544
	.loc 1 3047 2 is_stmt 0 view .LVU545
.LBE416:
.LBE418:
	.loc 1 2977 2 is_stmt 1 view .LVU546
	.loc 1 2977 7 view .LVU547
.L100:
	.loc 1 2977 170 view .LVU548
	.loc 1 2977 5 view .LVU549
	.loc 1 2988 2 view .LVU550
	.loc 1 2988 5 is_stmt 0 view .LVU551
	cmp	r4, #0
	beq	.L107
.LVL159:
.LBB419:
.LBI419:
	.loc 5 48 23 is_stmt 1 view .LVU552
.LBB420:
	.loc 5 50 2 view .LVU553
	.loc 5 50 12 is_stmt 0 view .LVU554
	ldrb	r3, [r4]	@ zero_extendqisi2
.LBE420:
.LBE419:
	.loc 1 2988 14 view .LVU555
	cmp	r3, #0
	bne	.L107
	.loc 1 2988 49 view .LVU556
	ldr	r3, [r4, #20]
	.loc 1 2988 39 view .LVU557
	cmp	r3, #0
	beq	.L107
	.loc 1 2989 3 is_stmt 1 view .LVU558
	ldr	r0, [r4, #24]
	blx	r3
.LVL160:
	b	.L107
.LVL161:
.L91:
	.loc 1 2989 3 is_stmt 0 view .LVU559
.LBE398:
.LBE397:
	.loc 1 2784 3 is_stmt 1 view .LVU560
	.loc 1 2784 9 is_stmt 0 view .LVU561
	ldr	r1, .L133+16
	ldr	r0, [r8, #4]
.LVL162:
	.loc 1 2784 9 view .LVU562
	movs	r2, #0
	bl	memq_dequeue
.LVL163:
	.loc 1 2785 3 is_stmt 1 view .LVU563
	ldr	r1, [sp, #20]
	mov	r0, r5
	bl	ull_conn_setup
.LVL164:
	.loc 1 2787 2 view .LVU564
	b	.L107
.LVL165:
.L92:
	.loc 1 2791 3 view .LVU565
	add	r1, sp, #20
	mov	r0, r5
.LVL166:
	.loc 1 2791 3 is_stmt 0 view .LVU566
	bl	ull_conn_rx
.LVL167:
	.loc 1 2793 3 is_stmt 1 view .LVU567
	.loc 1 2793 9 is_stmt 0 view .LVU568
	ldr	r1, .L133+16
	ldr	r0, [r8, #4]
	movs	r2, #0
	bl	memq_dequeue
.LVL168:
	.loc 1 2796 3 is_stmt 1 view .LVU569
	.loc 1 2796 7 is_stmt 0 view .LVU570
	ldr	r1, [sp, #20]
	.loc 1 2796 6 view .LVU571
	cmp	r1, #0
	beq	.L107
	.loc 1 2796 10 view .LVU572
	ldrb	r3, [r1, #4]	@ zero_extendqisi2
	cmp	r3, #44
	beq	.L107
	.loc 1 2797 4 is_stmt 1 view .LVU573
.LVL169:
.LBB422:
.LBI422:
	.loc 1 1735 6 view .LVU574
.LBB423:
	.loc 1 1737 2 view .LVU575
.LBB424:
.LBI424:
	.loc 1 1708 6 view .LVU576
.LBB425:
	.loc 1 1711 2 view .LVU577
	.loc 1 1716 2 view .LVU578
	.loc 1 1716 33 is_stmt 0 view .LVU579
	ldr	r3, .L133+20
	.loc 1 1720 2 view .LVU580
	mov	r0, r5
	.loc 1 1716 33 view .LVU581
	ldrb	r3, [r3, #5]	@ zero_extendqisi2
	b	.L127
.LVL170:
.L132:
	.loc 1 1716 33 view .LVU582
.LBE425:
.LBE424:
.LBE423:
.LBE422:
.LBB426:
.LBB421:
	.loc 1 2977 2 is_stmt 1 view .LVU583
	.loc 1 2977 7 view .LVU584
	.loc 1 2977 33 view .LVU585
	ldr	r2, .L133+8
	ldr	r1, .L133+32
	ldr	r0, .L133+4
	movw	r3, #2977
	bl	assert_print
.LVL171:
	.loc 1 2977 167 view .LVU586
	.loc 1 2977 172 view .LVU587
	.syntax unified
@ 2977 "/home/g/mise-work/zmk-firmware/zmk/zephyr/subsys/bluetooth/controller/ll_sw/ull.c" 1
	eors.n r0, r0
	msr BASEPRI, r0
	mov r0, #3
	svc #2
	
@ 0 "" 2
	.thumb
	.syntax unified
	b	.L100
.LVL172:
.L97:
	.loc 1 2970 3 view .LVU588
	.loc 1 2970 8 view .LVU589
	.loc 1 2970 20 view .LVU590
	ldr	r2, .L133+8
	ldr	r1, .L133+12
	ldr	r0, .L133+4
	movw	r3, #2970
	bl	assert_print
.LVL173:
	.loc 1 2970 140 view .LVU591
	.loc 1 2970 145 view .LVU592
	.syntax unified
@ 2970 "/home/g/mise-work/zmk-firmware/zmk/zephyr/subsys/bluetooth/controller/ll_sw/ull.c" 1
	eors.n r0, r0
	msr BASEPRI, r0
	mov r0, #3
	svc #2
	
@ 0 "" 2
	.loc 1 2970 143 view .LVU593
	.loc 1 2970 6 view .LVU594
	.loc 1 2971 3 view .LVU595
	.thumb
	.syntax unified
	b	.L96
.L131:
	.loc 1 2883 39 view .LVU596
	ldr	r2, .L133+8
	ldr	r1, .L133+36
	ldr	r0, .L133+4
	movw	r3, #2883
	bl	assert_print
.LVL174:
	.loc 1 2883 178 view .LVU597
	.loc 1 2883 183 view .LVU598
	.syntax unified
@ 2883 "/home/g/mise-work/zmk-firmware/zmk/zephyr/subsys/bluetooth/controller/ll_sw/ull.c" 1
	eors.n r0, r0
	msr BASEPRI, r0
	mov r0, #3
	svc #2
	
@ 0 "" 2
	.thumb
	.syntax unified
	b	.L95
.L134:
	.align	2
.L133:
	.word	sem_recv
	.word	.LC2
	.word	.LC0
	.word	.LC5
	.word	memq_ull_rx
	.word	mfifo_tx_ack
	.word	memq_ll_rx+4
	.word	mfifo_done
	.word	.LC6
	.word	.LC4
	.word	.LC3
.LBE421:
.LBE426:
.LBE428:
.LBE430:
.LBE436:
.LBE439:
	.cfi_endproc
.LFE570:
	.size	rx_demux, .-rx_demux
	.section	.rodata.ll_rx_get.str1.4,"aMS",%progbits,1
	.align	2
.LC7:
	.ascii	"delta <= 0 || mem_link_rx.quota_pdu < ((3 + 0 + 1) "
	.ascii	"+ (2 * (5)))\000"
	.section	.text.ll_rx_get,"ax",%progbits
	.align	1
	.p2align 2,,3
	.global	ll_rx_get
	.syntax unified
	.thumb
	.thumb_func
	.type	ll_rx_get, %function
ll_rx_get:
.LVL175:
.LFB516:
	.loc 1 920 1 view -0
	.cfi_startproc
	@ args = 0, pretend = 0, frame = 8
	@ frame_needed = 0, uses_anonymous_args = 0
	.loc 1 921 2 view .LVU600
	.loc 1 922 2 view .LVU601
	.loc 1 923 2 view .LVU602
	.loc 1 920 1 is_stmt 0 view .LVU603
	push	{r4, r5, r6, r7, r8, r9, r10, lr}
	.cfi_def_cfa_offset 32
	.cfi_offset 4, -32
	.cfi_offset 5, -28
	.cfi_offset 6, -24
	.cfi_offset 7, -20
	.cfi_offset 8, -16
	.cfi_offset 9, -12
	.cfi_offset 10, -8
	.cfi_offset 14, -4
	.loc 1 941 11 view .LVU604
	ldr	r10, .L145+28
	ldr	r7, .L145
	.loc 1 920 1 view .LVU605
	sub	sp, sp, #8
	.cfi_def_cfa_offset 40
	.loc 1 920 1 view .LVU606
	mov	r8, r0
	mov	r9, r1
.LBB455:
	.loc 1 947 20 view .LVU607
	sub	r5, r10, #4
.LVL176:
.L136:
	.loc 1 947 20 view .LVU608
.LBE455:
	.loc 1 936 2 is_stmt 1 view .LVU609
	.loc 1 936 11 is_stmt 0 view .LVU610
	movs	r3, #0
	str	r3, [r8]
	.loc 1 938 2 is_stmt 1 view .LVU611
	.loc 1 938 9 is_stmt 0 view .LVU612
	ldrd	r0, r1, [r7]
	add	r2, sp, #4
	bl	memq_peek
.LVL177:
	.loc 1 939 2 is_stmt 1 view .LVU613
	.loc 1 939 5 is_stmt 0 view .LVU614
	mov	r6, r0
	cmp	r0, #0
	beq	.L137
	.loc 1 941 3 is_stmt 1 view .LVU615
	.loc 1 941 11 is_stmt 0 view .LVU616
	ldr	r3, [sp, #4]
	mov	r1, r10
	ldrb	r2, [r3]	@ zero_extendqisi2
	mov	r0, r9
.LVL178:
	.loc 1 941 11 view .LVU617
	bl	tx_cmplt_get
.LVL179:
	.loc 1 942 3 is_stmt 1 view .LVU618
	.loc 1 942 6 is_stmt 0 view .LVU619
	mov	r3, r0
	cmp	r0, #0
	bne	.L138
.LBB484:
	.loc 1 943 4 is_stmt 1 view .LVU620
	.loc 1 944 4 view .LVU621
	.loc 1 946 4 view .LVU622
.LVL180:
	.loc 1 947 4 view .LVU623
	.loc 1 947 6 is_stmt 0 view .LVU624
	ldrb	r2, [r5, #4]	@ zero_extendqisi2
	strb	r2, [sp, #1]
.LVL181:
.L139:
	.loc 1 948 4 is_stmt 1 discriminator 3 view .LVU625
	.loc 1 949 5 discriminator 3 view .LVU626
	.loc 1 950 5 discriminator 3 view .LVU627
	.loc 1 950 18 is_stmt 0 discriminator 3 view .LVU628
	ldrb	r2, [r5, #5]	@ zero_extendqisi2
	add	r1, sp, #1
	add	r0, sp, #2
	mov	r4, r3
	bl	tx_cmplt_get
.LVL182:
	.loc 1 950 18 discriminator 3 view .LVU629
	orr	r2, r4, r0
	.loc 1 952 32 discriminator 3 view .LVU630
	ands	r2, r2, #255
	.loc 1 950 18 discriminator 3 view .LVU631
	mov	r3, r0
.LVL183:
	.loc 1 952 32 is_stmt 1 discriminator 3 view .LVU632
	.loc 1 952 32 is_stmt 0 discriminator 3 view .LVU633
	bne	.L139
	.loc 1 956 4 is_stmt 1 view .LVU634
	.loc 1 962 11 view .LVU635
	.loc 1 962 17 is_stmt 0 view .LVU636
	ldr	r3, [sp, #4]
	.loc 1 962 14 view .LVU637
	ldrb	r1, [r3, #4]	@ zero_extendqisi2
	cmp	r1, #1
	bne	.L140
	.loc 1 963 5 is_stmt 1 view .LVU638
.LVL184:
.LBB456:
.LBI456:
	.loc 1 2427 13 view .LVU639
.LBB457:
	.loc 1 2429 2 view .LVU640
.LBB458:
.LBB459:
.LBB460:
	.loc 1 1674 38 is_stmt 0 view .LVU641
	ldr	r4, .L145+4
.LVL185:
	.loc 1 1674 38 view .LVU642
.LBE460:
.LBE459:
.LBE458:
	.loc 1 2429 8 view .LVU643
	ldr	r0, [r7, #4]
.LVL186:
	.loc 1 2429 8 view .LVU644
	mov	r1, r7
	bl	memq_dequeue
.LVL187:
	.loc 1 2431 2 is_stmt 1 view .LVU645
.LBB467:
.LBI467:
	.loc 1 1693 6 view .LVU646
.LBB468:
	.loc 1 1695 2 view .LVU647
	adds	r1, r4, #4
	mov	r0, r6
	bl	mem_release
.LVL188:
	.loc 1 1695 2 is_stmt 0 view .LVU648
.LBE468:
.LBE467:
	.loc 1 2432 2 is_stmt 1 view .LVU649
.LBB469:
.LBI458:
	.loc 1 1678 13 view .LVU650
	.loc 1 1680 2 view .LVU651
.LBB464:
.LBI459:
	.loc 1 1672 13 view .LVU652
.LBB461:
	.loc 1 1674 2 view .LVU653
	.loc 1 1674 7 view .LVU654
	.loc 1 1674 38 is_stmt 0 view .LVU655
	ldrh	r3, [r4]
	.loc 1 1674 11 view .LVU656
	cmp	r3, #13
	bhi	.L144
.L141:
	.loc 1 1674 266 is_stmt 1 view .LVU657
	.loc 1 1674 5 view .LVU658
	.loc 1 1675 2 view .LVU659
.LBE461:
.LBE464:
.LBE469:
.LBE457:
.LBE456:
.LBB474:
.LBB475:
.LBB476:
	.loc 1 1705 2 is_stmt 0 view .LVU660
	ldr	r0, [sp, #4]
	ldr	r1, .L145+8
.LBE476:
.LBE475:
.LBE474:
.LBB481:
.LBB472:
.LBB470:
.LBB465:
.LBB462:
	.loc 1 1675 24 view .LVU661
	adds	r3, r3, #1
	strh	r3, [r4]	@ movhi
.LVL189:
	.loc 1 1675 24 view .LVU662
.LBE462:
.LBE465:
.LBE470:
.LBE472:
.LBE481:
	.loc 1 964 5 is_stmt 1 view .LVU663
.LBB482:
.LBI474:
	.loc 1 2421 13 view .LVU664
	.loc 1 2423 2 view .LVU665
.LBB478:
.LBI475:
	.loc 1 1703 6 view .LVU666
.LBB477:
	.loc 1 1705 2 view .LVU667
	bl	mem_release
.LVL190:
	.loc 1 1705 2 is_stmt 0 view .LVU668
.LBE477:
.LBE478:
	.loc 1 2424 2 is_stmt 1 view .LVU669
.LBB479:
.LBI479:
	.loc 1 2416 13 view .LVU670
.LBB480:
	.loc 1 2418 2 view .LVU671
	movs	r0, #1
	bl	rx_replenish
.LVL191:
	.loc 1 2418 2 is_stmt 0 view .LVU672
.LBE480:
.LBE479:
.LBE482:
	.loc 1 966 5 is_stmt 1 view .LVU673
	b	.L136
.LVL192:
.L144:
.LBB483:
.LBB473:
.LBB471:
.LBB466:
.LBB463:
	.loc 1 1674 81 view .LVU674
	ldr	r2, .L145+12
	ldr	r1, .L145+16
	ldr	r0, .L145+20
	movw	r3, #1674
	bl	assert_print
.LVL193:
	.loc 1 1674 263 view .LVU675
	.loc 1 1674 268 view .LVU676
	.syntax unified
@ 1674 "/home/g/mise-work/zmk-firmware/zmk/zephyr/subsys/bluetooth/controller/ll_sw/ull.c" 1
	eors.n r0, r0
	msr BASEPRI, r0
	mov r0, #3
	svc #2
	
@ 0 "" 2
	.loc 1 1675 13 is_stmt 0 view .LVU677
	.thumb
	.syntax unified
	ldrh	r3, [r4]
	b	.L141
.LVL194:
.L137:
	.loc 1 1675 13 view .LVU678
.LBE463:
.LBE466:
.LBE471:
.LBE473:
.LBE483:
.LBE484:
	.loc 1 1018 3 is_stmt 1 view .LVU679
	.loc 1 1018 11 is_stmt 0 view .LVU680
	ldr	r1, .L145+24
	mov	r0, r9
.LVL195:
	.loc 1 1018 11 view .LVU681
	ldrb	r2, [r1, #5]	@ zero_extendqisi2
	adds	r1, r1, #4
	bl	tx_cmplt_get
.LVL196:
	mov	r3, r0
.LVL197:
.L138:
	.loc 1 1022 2 is_stmt 1 view .LVU682
	.loc 1 1023 1 is_stmt 0 view .LVU683
	mov	r0, r3
	add	sp, sp, #8
	.cfi_remember_state
	.cfi_def_cfa_offset 32
	@ sp needed
	pop	{r4, r5, r6, r7, r8, r9, r10, pc}
.LVL198:
.L140:
	.cfi_restore_state
.LBB485:
	.loc 1 1013 4 is_stmt 1 discriminator 1 view .LVU684
	.loc 1 1013 13 is_stmt 0 discriminator 1 view .LVU685
	str	r3, [r8]
.LBE485:
	.loc 1 941 11 discriminator 1 view .LVU686
	mov	r3, r2
.LVL199:
	.loc 1 1022 2 is_stmt 1 discriminator 1 view .LVU687
	.loc 1 1023 1 is_stmt 0 discriminator 1 view .LVU688
	mov	r0, r3
.LVL200:
	.loc 1 1023 1 discriminator 1 view .LVU689
	add	sp, sp, #8
	.cfi_def_cfa_offset 32
	@ sp needed
	pop	{r4, r5, r6, r7, r8, r9, r10, pc}
.LVL201:
.L146:
	.loc 1 1023 1 discriminator 1 view .LVU690
	.align	2
.L145:
	.word	memq_ll_rx
	.word	mem_link_rx
	.word	mem_pdu_rx
	.word	.LC0
	.word	.LC7
	.word	.LC2
	.word	mfifo_tx_ack
	.word	mfifo_tx_ack+4
	.cfi_endproc
.LFE516:
	.size	ll_rx_get, .-ll_rx_get
	.section	.rodata.ll_rx_dequeue.str1.4,"aMS",%progbits,1
	.align	2
.LC8:
	.ascii	"link\000"
	.align	2
.LC9:
	.ascii	"conn_lll\000"
	.align	2
.LC10:
	.ascii	"!conn_lll->link_tx_free\000"
	.align	2
.LC11:
	.ascii	"memq_link\000"
	.align	2
.LC12:
	.ascii	"rx->type != NODE_RX_TYPE_NONE\000"
	.section	.text.ll_rx_dequeue,"ax",%progbits
	.align	1
	.p2align 2,,3
	.global	ll_rx_dequeue
	.syntax unified
	.thumb
	.thumb_func
	.type	ll_rx_dequeue, %function
ll_rx_dequeue:
.LFB517:
	.loc 1 1030 1 is_stmt 1 view -0
	.cfi_startproc
	@ args = 0, pretend = 0, frame = 8
	@ frame_needed = 0, uses_anonymous_args = 0
	.loc 1 1031 2 view .LVU692
	.loc 1 1030 1 is_stmt 0 view .LVU693
	push	{r4, r5, r6, lr}
	.cfi_def_cfa_offset 16
	.cfi_offset 4, -16
	.cfi_offset 5, -12
	.cfi_offset 6, -8
	.cfi_offset 14, -4
	.loc 1 1034 9 view .LVU694
	ldr	r1, .L174
	.loc 1 1030 1 view .LVU695
	sub	sp, sp, #8
	.cfi_def_cfa_offset 24
	.loc 1 1031 22 view .LVU696
	movs	r3, #0
	.loc 1 1034 9 view .LVU697
	ldr	r0, [r1, #4]
	.loc 1 1031 22 view .LVU698
	str	r3, [sp, #4]
	.loc 1 1032 2 is_stmt 1 view .LVU699
	.loc 1 1034 2 view .LVU700
	.loc 1 1034 9 is_stmt 0 view .LVU701
	add	r2, sp, #4
	bl	memq_dequeue
.LVL202:
	.loc 1 1036 2 is_stmt 1 view .LVU702
	.loc 1 1036 7 view .LVU703
	.loc 1 1036 10 is_stmt 0 view .LVU704
	mov	r4, r0
	cmp	r0, #0
	beq	.L170
.LVL203:
.L148:
	.loc 1 1036 148 is_stmt 1 discriminator 3 view .LVU705
	.loc 1 1036 5 discriminator 3 view .LVU706
	.loc 1 1038 2 discriminator 3 view .LVU707
.LBB486:
.LBI486:
	.loc 1 1693 6 discriminator 3 view .LVU708
.LBB487:
	.loc 1 1695 2 discriminator 3 view .LVU709
	ldr	r1, .L174+4
	mov	r0, r4
	bl	mem_release
.LVL204:
	.loc 1 1695 2 is_stmt 0 discriminator 3 view .LVU710
.LBE487:
.LBE486:
	.loc 1 1041 2 is_stmt 1 discriminator 3 view .LVU711
	.loc 1 1041 12 is_stmt 0 discriminator 3 view .LVU712
	ldr	r2, [sp, #4]
	ldrb	r3, [r2, #4]	@ zero_extendqisi2
	.loc 1 1041 2 discriminator 3 view .LVU713
	cmp	r3, #29
	bhi	.L149
	tbb	[pc, r3]
.L151:
	.byte	(.L150-.L151)/2
	.byte	(.L149-.L151)/2
	.byte	(.L149-.L151)/2
	.byte	(.L150-.L151)/2
	.byte	(.L149-.L151)/2
	.byte	(.L149-.L151)/2
	.byte	(.L149-.L151)/2
	.byte	(.L149-.L151)/2
	.byte	(.L149-.L151)/2
	.byte	(.L149-.L151)/2
	.byte	(.L149-.L151)/2
	.byte	(.L149-.L151)/2
	.byte	(.L149-.L151)/2
	.byte	(.L149-.L151)/2
	.byte	(.L149-.L151)/2
	.byte	(.L149-.L151)/2
	.byte	(.L149-.L151)/2
	.byte	(.L149-.L151)/2
	.byte	(.L149-.L151)/2
	.byte	(.L149-.L151)/2
	.byte	(.L149-.L151)/2
	.byte	(.L149-.L151)/2
	.byte	(.L149-.L151)/2
	.byte	(.L152-.L151)/2
	.byte	(.L150-.L151)/2
	.byte	(.L150-.L151)/2
	.byte	(.L150-.L151)/2
	.byte	(.L150-.L151)/2
	.byte	(.L150-.L151)/2
	.byte	(.L150-.L151)/2
	.p2align 1
.L149:
	.loc 1 1346 3 is_stmt 1 discriminator 1 view .LVU714
	.loc 1 1346 8 discriminator 1 view .LVU715
	.loc 1 1346 20 discriminator 1 view .LVU716
	ldr	r2, .L174+8
	ldr	r1, .L174+12
	ldr	r0, .L174+16
	movw	r3, #1346
	bl	assert_print
.LVL205:
	.loc 1 1346 140 discriminator 1 view .LVU717
	.loc 1 1346 145 discriminator 1 view .LVU718
	.syntax unified
@ 1346 "/home/g/mise-work/zmk-firmware/zmk/zephyr/subsys/bluetooth/controller/ll_sw/ull.c" 1
	eors.n r0, r0
	msr BASEPRI, r0
	mov r0, #3
	svc #2
	
@ 0 "" 2
	.loc 1 1346 143 discriminator 1 view .LVU719
	.loc 1 1346 6 discriminator 1 view .LVU720
	.loc 1 1347 3 discriminator 1 view .LVU721
	.loc 1 1351 2 discriminator 1 view .LVU722
	.loc 1 1368 2 discriminator 1 view .LVU723
.LVL206:
	.thumb
	.syntax unified
.L147:
	.loc 1 1369 1 is_stmt 0 view .LVU724
	add	sp, sp, #8
	.cfi_remember_state
	.cfi_def_cfa_offset 16
	@ sp needed
	pop	{r4, r5, r6, pc}
.LVL207:
.L150:
	.cfi_restore_state
	.loc 1 1342 3 is_stmt 1 view .LVU725
	.loc 1 1342 8 view .LVU726
	.loc 1 1342 11 is_stmt 0 view .LVU727
	cmp	r3, #0
	bne	.L147
	.loc 1 1342 48 is_stmt 1 discriminator 1 view .LVU728
	ldr	r2, .L174+8
	ldr	r1, .L174+20
	ldr	r0, .L174+16
	movw	r3, #1342
	bl	assert_print
.LVL208:
	.loc 1 1342 196 discriminator 1 view .LVU729
	.loc 1 1342 201 discriminator 1 view .LVU730
	.syntax unified
@ 1342 "/home/g/mise-work/zmk-firmware/zmk/zephyr/subsys/bluetooth/controller/ll_sw/ull.c" 1
	eors.n r0, r0
	msr BASEPRI, r0
	mov r0, #3
	svc #2
	
@ 0 "" 2
	.loc 1 1369 1 is_stmt 0 discriminator 1 view .LVU731
	.thumb
	.syntax unified
	add	sp, sp, #8
	.cfi_remember_state
	.cfi_def_cfa_offset 16
	@ sp needed
	pop	{r4, r5, r6, pc}
.LVL209:
.L152:
	.cfi_restore_state
.LBB488:
	.loc 1 1134 3 is_stmt 1 view .LVU732
	.loc 1 1135 3 view .LVU733
	.loc 1 1137 3 view .LVU734
	.loc 1 1140 10 view .LVU735
	.loc 1 1140 13 is_stmt 0 view .LVU736
	ldrb	r3, [r2, #28]	@ zero_extendqisi2
	cmp	r3, #60
	beq	.L171
	.loc 1 1140 35 discriminator 1 view .LVU737
	ldrb	r3, [r2, #29]	@ zero_extendqisi2
	cbz	r3, .L156
.LBB489:
	.loc 1 1141 4 is_stmt 1 view .LVU738
	.loc 1 1142 4 view .LVU739
	.loc 1 1145 4 view .LVU740
.LVL210:
	.loc 1 1146 4 view .LVU741
	.loc 1 1146 8 is_stmt 0 view .LVU742
	ldr	r3, [r2, #8]
	ldr	r4, [r3]
.LVL211:
	.loc 1 1148 4 is_stmt 1 view .LVU743
	.loc 1 1167 5 view .LVU744
	.loc 1 1167 12 is_stmt 0 view .LVU745
	ldr	r0, [r4, #100]
	.loc 1 1167 8 view .LVU746
	cbz	r0, .L158
.LBB490:
	.loc 1 1168 6 is_stmt 1 view .LVU747
	.loc 1 1170 6 view .LVU748
.LVL212:
	.loc 1 1171 6 view .LVU749
	.loc 1 1171 27 is_stmt 0 view .LVU750
	movs	r3, #0
.LBB491:
.LBB492:
	.loc 1 1705 2 view .LVU751
	ldr	r1, .L174+24
.LBE492:
.LBE491:
	.loc 1 1171 27 view .LVU752
	str	r3, [r4, #100]
.LVL213:
	.loc 1 1173 6 is_stmt 1 view .LVU753
.LBB494:
.LBI491:
	.loc 1 1703 6 view .LVU754
.LBB493:
	.loc 1 1705 2 view .LVU755
	bl	mem_release
.LVL214:
.L158:
	.loc 1 1705 2 is_stmt 0 view .LVU756
.LBE493:
.LBE494:
.LBE490:
	.loc 1 1194 4 is_stmt 1 view .LVU757
	.loc 1 1194 20 is_stmt 0 view .LVU758
	ldrb	r3, [r4, #106]	@ zero_extendqisi2
	bfc	r3, #0, #1
	strb	r3, [r4, #106]
.LVL215:
.L162:
	.loc 1 1194 20 view .LVU759
.LBE489:
	.loc 1 1225 144 is_stmt 1 view .LVU760
	.loc 1 1225 7 view .LVU761
	.loc 1 1229 3 view .LVU762
.LBB497:
	.loc 1 1230 4 view .LVU763
	.loc 1 1235 4 view .LVU764
	.loc 1 1236 12 is_stmt 0 view .LVU765
	movs	r0, #0
	bl	ull_adv_is_enabled
.LVL216:
	.loc 1 1238 4 is_stmt 1 view .LVU766
	.loc 1 1238 7 is_stmt 0 view .LVU767
	ands	r0, r0, #255
.LVL217:
	.loc 1 1238 7 view .LVU768
	bne	.L147
	.loc 1 1239 5 is_stmt 1 view .LVU769
	bl	ull_filter_adv_scan_state_cb
.LVL218:
.LBE497:
.LBE488:
	.loc 1 1369 1 is_stmt 0 view .LVU770
	add	sp, sp, #8
	.cfi_remember_state
	.cfi_def_cfa_offset 16
	@ sp needed
	pop	{r4, r5, r6, pc}
.LVL219:
.L156:
	.cfi_restore_state
.LBB499:
	.loc 1 1225 4 is_stmt 1 discriminator 1 view .LVU771
	.loc 1 1225 9 discriminator 1 view .LVU772
	.loc 1 1225 21 discriminator 1 view .LVU773
	ldr	r2, .L174+8
.LVL220:
	.loc 1 1225 21 is_stmt 0 discriminator 1 view .LVU774
	ldr	r1, .L174+12
	ldr	r0, .L174+16
	movw	r3, #1225
	bl	assert_print
.LVL221:
	.loc 1 1225 141 is_stmt 1 discriminator 1 view .LVU775
	.loc 1 1225 146 discriminator 1 view .LVU776
	.syntax unified
@ 1225 "/home/g/mise-work/zmk-firmware/zmk/zephyr/subsys/bluetooth/controller/ll_sw/ull.c" 1
	eors.n r0, r0
	msr BASEPRI, r0
	mov r0, #3
	svc #2
	
@ 0 "" 2
	.thumb
	.syntax unified
	b	.L162
.LVL222:
.L170:
	.loc 1 1225 146 is_stmt 0 discriminator 1 view .LVU777
.LBE499:
	.loc 1 1036 22 is_stmt 1 discriminator 1 view .LVU778
	ldr	r2, .L174+8
	ldr	r1, .L174+28
	ldr	r0, .L174+16
.LVL223:
	.loc 1 1036 22 is_stmt 0 discriminator 1 view .LVU779
	movw	r3, #1036
	bl	assert_print
.LVL224:
	.loc 1 1036 145 is_stmt 1 discriminator 1 view .LVU780
	.loc 1 1036 150 discriminator 1 view .LVU781
	.syntax unified
@ 1036 "/home/g/mise-work/zmk-firmware/zmk/zephyr/subsys/bluetooth/controller/ll_sw/ull.c" 1
	eors.n r0, r0
	msr BASEPRI, r0
	mov r0, #3
	svc #2
	
@ 0 "" 2
	.thumb
	.syntax unified
	b	.L148
.LVL225:
.L171:
.LBB500:
.LBB498:
	.loc 1 1141 4 view .LVU782
	.loc 1 1142 4 view .LVU783
	.loc 1 1145 4 view .LVU784
	.loc 1 1145 8 is_stmt 0 view .LVU785
	ldr	r6, [r2, #8]
.LVL226:
	.loc 1 1146 4 is_stmt 1 view .LVU786
	.loc 1 1146 8 is_stmt 0 view .LVU787
	ldrd	r4, r5, [r6]
.LVL227:
	.loc 1 1148 4 is_stmt 1 view .LVU788
.LBB495:
	.loc 1 1149 5 view .LVU789
	.loc 1 1150 5 view .LVU790
	.loc 1 1151 5 view .LVU791
	.loc 1 1153 5 view .LVU792
	.loc 1 1154 5 view .LVU793
	.loc 1 1154 10 view .LVU794
	.loc 1 1154 13 is_stmt 0 view .LVU795
	cbz	r5, .L172
.LVL228:
.L155:
	.loc 1 1154 159 is_stmt 1 discriminator 3 view .LVU796
	.loc 1 1154 8 discriminator 3 view .LVU797
	.loc 1 1155 5 discriminator 3 view .LVU798
	.loc 1 1155 15 is_stmt 0 discriminator 3 view .LVU799
	movs	r3, #0
	str	r3, [r6, #4]
	.loc 1 1157 5 is_stmt 1 discriminator 3 view .LVU800
	.loc 1 1157 10 discriminator 3 view .LVU801
	.loc 1 1157 13 is_stmt 0 discriminator 3 view .LVU802
	ldr	r3, [r5, #108]
	cbz	r3, .L159
	.loc 1 1157 44 is_stmt 1 discriminator 1 view .LVU803
	ldr	r2, .L174+8
	ldr	r1, .L174+32
	ldr	r0, .L174+16
	movw	r3, #1157
	bl	assert_print
.LVL229:
	.loc 1 1157 186 discriminator 1 view .LVU804
	.loc 1 1157 191 discriminator 1 view .LVU805
	.syntax unified
@ 1157 "/home/g/mise-work/zmk-firmware/zmk/zephyr/subsys/bluetooth/controller/ll_sw/ull.c" 1
	eors.n r0, r0
	msr BASEPRI, r0
	mov r0, #3
	svc #2
	
@ 0 "" 2
	.thumb
	.syntax unified
.L159:
	.loc 1 1157 189 discriminator 3 view .LVU806
	.loc 1 1157 8 discriminator 3 view .LVU807
	.loc 1 1158 5 discriminator 3 view .LVU808
	.loc 1 1158 17 is_stmt 0 discriminator 3 view .LVU809
	add	r1, r5, #96
	add	r0, r5, #92
	bl	memq_deinit
.LVL230:
	.loc 1 1160 5 is_stmt 1 discriminator 3 view .LVU810
	.loc 1 1160 10 discriminator 3 view .LVU811
	.loc 1 1160 13 is_stmt 0 discriminator 3 view .LVU812
	mov	r6, r0
.LVL231:
	.loc 1 1160 13 discriminator 3 view .LVU813
	cbz	r0, .L173
.LVL232:
.L160:
	.loc 1 1160 161 is_stmt 1 discriminator 3 view .LVU814
	.loc 1 1160 8 discriminator 3 view .LVU815
	.loc 1 1161 5 discriminator 3 view .LVU816
	.loc 1 1164 5 is_stmt 0 discriminator 3 view .LVU817
	ldr	r0, [r5]
	.loc 1 1161 28 discriminator 3 view .LVU818
	str	r6, [r5, #108]
	.loc 1 1163 5 is_stmt 1 discriminator 3 view .LVU819
.LVL233:
	.loc 1 1164 5 discriminator 3 view .LVU820
	bl	ll_conn_release
.LVL234:
	.loc 1 1164 5 is_stmt 0 discriminator 3 view .LVU821
.LBE495:
	b	.L158
.LVL235:
.L172:
.LBB496:
	.loc 1 1154 29 is_stmt 1 discriminator 1 view .LVU822
	ldr	r2, .L174+8
.LVL236:
	.loc 1 1154 29 is_stmt 0 discriminator 1 view .LVU823
	ldr	r1, .L174+36
	ldr	r0, .L174+16
	movw	r3, #1154
	bl	assert_print
.LVL237:
	.loc 1 1154 156 is_stmt 1 discriminator 1 view .LVU824
	.loc 1 1154 161 discriminator 1 view .LVU825
	.syntax unified
@ 1154 "/home/g/mise-work/zmk-firmware/zmk/zephyr/subsys/bluetooth/controller/ll_sw/ull.c" 1
	eors.n r0, r0
	msr BASEPRI, r0
	mov r0, #3
	svc #2
	
@ 0 "" 2
	.thumb
	.syntax unified
	b	.L155
.LVL238:
.L173:
	.loc 1 1160 30 discriminator 1 view .LVU826
	ldr	r2, .L174+8
	ldr	r1, .L174+40
	ldr	r0, .L174+16
.LVL239:
	.loc 1 1160 30 is_stmt 0 discriminator 1 view .LVU827
	mov	r3, #1160
	bl	assert_print
.LVL240:
	.loc 1 1160 158 is_stmt 1 discriminator 1 view .LVU828
	.loc 1 1160 163 discriminator 1 view .LVU829
	.syntax unified
@ 1160 "/home/g/mise-work/zmk-firmware/zmk/zephyr/subsys/bluetooth/controller/ll_sw/ull.c" 1
	eors.n r0, r0
	msr BASEPRI, r0
	mov r0, #3
	svc #2
	
@ 0 "" 2
	.thumb
	.syntax unified
	b	.L160
.L175:
	.align	2
.L174:
	.word	memq_ll_rx
	.word	mem_link_rx+4
	.word	.LC0
	.word	.LC5
	.word	.LC2
	.word	.LC12
	.word	mem_pdu_rx
	.word	.LC8
	.word	.LC10
	.word	.LC9
	.word	.LC11
.LBE496:
.LBE498:
.LBE500:
	.cfi_endproc
.LFE517:
	.size	ll_rx_dequeue, .-ll_rx_dequeue
	.section	.rodata.ll_rx_mem_release.str1.4,"aMS",%progbits,1
	.align	2
.LC13:
	.ascii	"!cc->status\000"
	.align	2
.LC14:
	.ascii	"rx_free->type != NODE_RX_TYPE_NONE\000"
	.align	2
.LC15:
	.ascii	"!conn->lll.link_tx_free\000"
	.section	.text.ll_rx_mem_release,"ax",%progbits
	.align	1
	.p2align 2,,3
	.global	ll_rx_mem_release
	.syntax unified
	.thumb
	.thumb_func
	.type	ll_rx_mem_release, %function
ll_rx_mem_release:
.LVL241:
.LFB518:
	.loc 1 1372 1 view -0
	.cfi_startproc
	@ args = 0, pretend = 0, frame = 0
	@ frame_needed = 0, uses_anonymous_args = 0
	.loc 1 1373 2 view .LVU831
	.loc 1 1375 2 view .LVU832
	.loc 1 1372 1 is_stmt 0 view .LVU833
	push	{r4, r5, r6, r7, r8, r9, r10, lr}
	.cfi_def_cfa_offset 32
	.cfi_offset 4, -32
	.cfi_offset 5, -28
	.cfi_offset 6, -24
	.cfi_offset 7, -20
	.cfi_offset 8, -16
	.cfi_offset 9, -12
	.cfi_offset 10, -8
	.cfi_offset 14, -4
	.loc 1 1375 5 view .LVU834
	ldr	r4, [r0]
.LVL242:
	.loc 1 1376 2 is_stmt 1 view .LVU835
	.loc 1 1376 9 view .LVU836
	.loc 1 1372 1 is_stmt 0 view .LVU837
	mov	r8, r0
	.loc 1 1376 9 view .LVU838
	cbz	r4, .L191
.LBB514:
	.loc 1 1662 21 view .LVU839
	ldr	r7, .L202
	ldr	r9, .L202+32
	ldr	r6, .L202+4
.LVL243:
.L177:
	.loc 1 1377 3 is_stmt 1 view .LVU840
	.loc 1 1379 3 view .LVU841
	.loc 1 1380 3 view .LVU842
	mov	r5, r4
	.loc 1 1380 6 is_stmt 0 view .LVU843
	ldr	r4, [r4]
.LVL244:
	.loc 1 1382 3 is_stmt 1 view .LVU844
	.loc 1 1382 18 is_stmt 0 view .LVU845
	ldrb	r3, [r5, #4]	@ zero_extendqisi2
	.loc 1 1382 3 view .LVU846
	cmp	r3, #29
	bhi	.L178
	tbb	[pc, r3]
.L180:
	.byte	(.L179-.L180)/2
	.byte	(.L178-.L180)/2
	.byte	(.L178-.L180)/2
	.byte	(.L179-.L180)/2
	.byte	(.L178-.L180)/2
	.byte	(.L178-.L180)/2
	.byte	(.L178-.L180)/2
	.byte	(.L178-.L180)/2
	.byte	(.L178-.L180)/2
	.byte	(.L178-.L180)/2
	.byte	(.L178-.L180)/2
	.byte	(.L178-.L180)/2
	.byte	(.L178-.L180)/2
	.byte	(.L178-.L180)/2
	.byte	(.L178-.L180)/2
	.byte	(.L178-.L180)/2
	.byte	(.L178-.L180)/2
	.byte	(.L178-.L180)/2
	.byte	(.L178-.L180)/2
	.byte	(.L178-.L180)/2
	.byte	(.L178-.L180)/2
	.byte	(.L178-.L180)/2
	.byte	(.L178-.L180)/2
	.byte	(.L182-.L180)/2
	.byte	(.L181-.L180)/2
	.byte	(.L179-.L180)/2
	.byte	(.L179-.L180)/2
	.byte	(.L179-.L180)/2
	.byte	(.L179-.L180)/2
	.byte	(.L179-.L180)/2
	.p2align 1
.L178:
	.loc 1 1662 4 is_stmt 1 discriminator 1 view .LVU847
	.loc 1 1662 9 discriminator 1 view .LVU848
	.loc 1 1662 21 discriminator 1 view .LVU849
	movw	r3, #1662
	mov	r2, r7
	mov	r1, r9
	mov	r0, r6
	bl	assert_print
.LVL245:
	.loc 1 1662 141 discriminator 1 view .LVU850
	.loc 1 1662 146 discriminator 1 view .LVU851
	.syntax unified
@ 1662 "/home/g/mise-work/zmk-firmware/zmk/zephyr/subsys/bluetooth/controller/ll_sw/ull.c" 1
	eors.n r0, r0
	msr BASEPRI, r0
	mov r0, #3
	svc #2
	
@ 0 "" 2
	.loc 1 1662 144 discriminator 1 view .LVU852
	.loc 1 1662 7 discriminator 1 view .LVU853
	.loc 1 1663 4 discriminator 1 view .LVU854
	.thumb
	.syntax unified
.L184:
	.loc 1 1663 4 is_stmt 0 discriminator 1 view .LVU855
.LBE514:
	.loc 1 1376 9 is_stmt 1 view .LVU856
	cmp	r4, #0
	bne	.L177
.LVL246:
.L191:
	.loc 1 1667 2 view .LVU857
	.loc 1 1667 11 is_stmt 0 view .LVU858
	movs	r3, #0
	str	r3, [r8]
	.loc 1 1669 2 is_stmt 1 view .LVU859
.LBB535:
.LBI535:
	.loc 1 2406 13 view .LVU860
.LBB536:
	.loc 1 2408 2 view .LVU861
.LBE536:
.LBE535:
	.loc 1 1670 1 is_stmt 0 view .LVU862
	pop	{r4, r5, r6, r7, r8, r9, r10, lr}
	.cfi_remember_state
	.cfi_restore 14
	.cfi_restore 10
	.cfi_restore 9
	.cfi_restore 8
	.cfi_restore 7
	.cfi_restore 6
	.cfi_restore 5
	.cfi_restore 4
	.cfi_def_cfa_offset 0
.LVL247:
.LBB538:
.LBB537:
	.loc 1 2408 2 view .LVU863
	movs	r0, #255
	b	rx_replenish
.LVL248:
.L182:
	.cfi_restore_state
	.loc 1 2408 2 view .LVU864
.LBE537:
.LBE538:
.LBB539:
.LBB515:
	.loc 1 1418 4 is_stmt 1 view .LVU865
	.loc 1 1421 4 view .LVU866
	.loc 1 1424 11 view .LVU867
	.loc 1 1424 17 is_stmt 0 view .LVU868
	ldrb	r3, [r5, #28]	@ zero_extendqisi2
	.loc 1 1424 14 view .LVU869
	cmp	r3, #60
	beq	.L199
	.loc 1 1446 5 is_stmt 1 view .LVU870
	.loc 1 1446 10 view .LVU871
	.loc 1 1446 13 is_stmt 0 view .LVU872
	cbz	r3, .L186
	.loc 1 1446 32 is_stmt 1 discriminator 1 view .LVU873
	ldr	r2, .L202
	ldr	r1, .L202+8
	ldr	r0, .L202+4
	movw	r3, #1446
	bl	assert_print
.LVL249:
	.loc 1 1446 162 discriminator 1 view .LVU874
	.loc 1 1446 167 discriminator 1 view .LVU875
	.syntax unified
@ 1446 "/home/g/mise-work/zmk-firmware/zmk/zephyr/subsys/bluetooth/controller/ll_sw/ull.c" 1
	eors.n r0, r0
	msr BASEPRI, r0
	mov r0, #3
	svc #2
	
@ 0 "" 2
	.thumb
	.syntax unified
.LBE515:
	.loc 1 1532 22 is_stmt 0 discriminator 1 view .LVU876
	ldrb	r3, [r5, #4]	@ zero_extendqisi2
.LVL250:
.L179:
.LBB518:
	.loc 1 1446 165 is_stmt 1 discriminator 3 view .LVU877
	.loc 1 1446 8 discriminator 3 view .LVU878
.LBE518:
	.loc 1 1450 3 discriminator 3 view .LVU879
	.loc 1 1532 4 discriminator 3 view .LVU880
	.loc 1 1532 9 discriminator 3 view .LVU881
	.loc 1 1532 12 is_stmt 0 discriminator 3 view .LVU882
	cbnz	r3, .L186
	.loc 1 1532 54 is_stmt 1 discriminator 1 view .LVU883
	ldr	r1, .L202+12
	movw	r3, #1532
	mov	r2, r7
	mov	r0, r6
	bl	assert_print
.LVL251:
	.loc 1 1532 207 discriminator 1 view .LVU884
	.loc 1 1532 212 discriminator 1 view .LVU885
	.syntax unified
@ 1532 "/home/g/mise-work/zmk-firmware/zmk/zephyr/subsys/bluetooth/controller/ll_sw/ull.c" 1
	eors.n r0, r0
	msr BASEPRI, r0
	mov r0, #3
	svc #2
	
@ 0 "" 2
	.thumb
	.syntax unified
.L186:
	.loc 1 1532 210 discriminator 3 view .LVU886
	.loc 1 1532 7 discriminator 3 view .LVU887
	.loc 1 1533 4 discriminator 3 view .LVU888
.LBB519:
.LBI519:
	.loc 1 1678 13 discriminator 3 view .LVU889
	.loc 1 1680 2 discriminator 3 view .LVU890
.LBB520:
.LBI520:
	.loc 1 1672 13 discriminator 3 view .LVU891
.LVL252:
.LBB521:
	.loc 1 1674 2 discriminator 3 view .LVU892
	.loc 1 1674 7 discriminator 3 view .LVU893
	.loc 1 1674 38 is_stmt 0 discriminator 3 view .LVU894
	ldr	r10, .L202+36
	ldrh	r3, [r10]
	.loc 1 1674 11 discriminator 3 view .LVU895
	cmp	r3, #13
	bhi	.L200
.L188:
	.loc 1 1674 266 is_stmt 1 view .LVU896
	.loc 1 1674 5 view .LVU897
	.loc 1 1675 2 view .LVU898
	.loc 1 1675 24 is_stmt 0 view .LVU899
	adds	r3, r3, #1
.LBE521:
.LBE520:
.LBE519:
.LBB526:
.LBB527:
	.loc 1 1705 2 view .LVU900
	ldr	r1, .L202+16
.LBE527:
.LBE526:
.LBB529:
.LBB524:
.LBB522:
	.loc 1 1675 24 view .LVU901
	strh	r3, [r10]	@ movhi
.LVL253:
	.loc 1 1675 24 view .LVU902
.LBE522:
.LBE524:
.LBE529:
	.loc 1 1534 4 is_stmt 1 view .LVU903
.LBB530:
.LBI526:
	.loc 1 1703 6 view .LVU904
.LBB528:
	.loc 1 1705 2 view .LVU905
	mov	r0, r5
	bl	mem_release
.LVL254:
	.loc 1 1705 2 is_stmt 0 view .LVU906
.LBE528:
.LBE530:
.LBE539:
	.loc 1 1376 9 is_stmt 1 view .LVU907
	cmp	r4, #0
	bne	.L177
	b	.L191
.L181:
.LBB540:
	.loc 1 1639 4 view .LVU908
	.loc 1 1639 17 is_stmt 0 view .LVU909
	ldrh	r0, [r5, #6]
	.loc 1 1639 7 view .LVU910
	cmp	r0, #4
	bhi	.L184
.LBB531:
	.loc 1 1640 5 is_stmt 1 view .LVU911
	.loc 1 1641 5 view .LVU912
	.loc 1 1643 5 view .LVU913
	.loc 1 1643 12 is_stmt 0 view .LVU914
	bl	ll_conn_get
.LVL255:
	.loc 1 1645 13 view .LVU915
	ldr	r3, [r0, #136]
	.loc 1 1643 12 view .LVU916
	mov	r5, r0
.LVL256:
	.loc 1 1645 5 is_stmt 1 view .LVU917
	.loc 1 1645 10 view .LVU918
	.loc 1 1645 13 is_stmt 0 view .LVU919
	cbz	r3, .L189
	.loc 1 1645 44 is_stmt 1 discriminator 1 view .LVU920
	ldr	r2, .L202
	ldr	r1, .L202+20
	ldr	r0, .L202+4
.LVL257:
	.loc 1 1645 44 is_stmt 0 discriminator 1 view .LVU921
	movw	r3, #1645
	bl	assert_print
.LVL258:
	.loc 1 1645 186 is_stmt 1 discriminator 1 view .LVU922
	.loc 1 1645 191 discriminator 1 view .LVU923
	.syntax unified
@ 1645 "/home/g/mise-work/zmk-firmware/zmk/zephyr/subsys/bluetooth/controller/ll_sw/ull.c" 1
	eors.n r0, r0
	msr BASEPRI, r0
	mov r0, #3
	svc #2
	
@ 0 "" 2
	.thumb
	.syntax unified
.L189:
	.loc 1 1645 189 discriminator 3 view .LVU924
	.loc 1 1645 8 discriminator 3 view .LVU925
	.loc 1 1646 5 discriminator 3 view .LVU926
	.loc 1 1646 12 is_stmt 0 discriminator 3 view .LVU927
	add	r1, r5, #124
	add	r0, r5, #120
	bl	memq_deinit
.LVL259:
	.loc 1 1648 5 is_stmt 1 discriminator 3 view .LVU928
	.loc 1 1648 10 discriminator 3 view .LVU929
	.loc 1 1648 13 is_stmt 0 discriminator 3 view .LVU930
	mov	r10, r0
	cbz	r0, .L201
.LVL260:
.L190:
	.loc 1 1648 151 is_stmt 1 discriminator 3 view .LVU931
	.loc 1 1648 8 discriminator 3 view .LVU932
	.loc 1 1649 5 discriminator 3 view .LVU933
	.loc 1 1649 28 is_stmt 0 discriminator 3 view .LVU934
	str	r10, [r5, #136]
	.loc 1 1651 5 is_stmt 1 discriminator 3 view .LVU935
	mov	r0, r5
	bl	ll_conn_release
.LVL261:
	.loc 1 1651 5 is_stmt 0 discriminator 3 view .LVU936
.LBE531:
.LBE540:
	.loc 1 1376 9 is_stmt 1 discriminator 3 view .LVU937
	cmp	r4, #0
	bne	.L177
	b	.L191
.LVL262:
.L200:
.LBB541:
.LBB532:
.LBB525:
.LBB523:
	.loc 1 1674 81 view .LVU938
	ldr	r1, .L202+24
	movw	r3, #1674
	mov	r2, r7
	mov	r0, r6
	bl	assert_print
.LVL263:
	.loc 1 1674 263 view .LVU939
	.loc 1 1674 268 view .LVU940
	.syntax unified
@ 1674 "/home/g/mise-work/zmk-firmware/zmk/zephyr/subsys/bluetooth/controller/ll_sw/ull.c" 1
	eors.n r0, r0
	msr BASEPRI, r0
	mov r0, #3
	svc #2
	
@ 0 "" 2
	.loc 1 1675 13 is_stmt 0 view .LVU941
	.thumb
	.syntax unified
	ldrh	r3, [r10]
	b	.L188
.LVL264:
.L199:
	.loc 1 1675 13 view .LVU942
.LBE523:
.LBE525:
.LBE532:
.LBB533:
	.loc 1 1425 5 is_stmt 1 view .LVU943
.LBB516:
.LBI516:
	.loc 1 1703 6 view .LVU944
.LBB517:
	.loc 1 1705 2 view .LVU945
	ldr	r1, .L202+16
	mov	r0, r5
	bl	mem_release
.LVL265:
	.loc 1 1705 2 is_stmt 0 view .LVU946
.LBE517:
.LBE516:
.LBE533:
.LBE541:
	.loc 1 1376 9 is_stmt 1 view .LVU947
	cmp	r4, #0
	bne	.L177
	b	.L191
.LVL266:
.L201:
.LBB542:
.LBB534:
	.loc 1 1648 25 discriminator 1 view .LVU948
	ldr	r2, .L202
	ldr	r1, .L202+28
	ldr	r0, .L202+4
.LVL267:
	.loc 1 1648 25 is_stmt 0 discriminator 1 view .LVU949
	mov	r3, #1648
	bl	assert_print
.LVL268:
	.loc 1 1648 148 is_stmt 1 discriminator 1 view .LVU950
	.loc 1 1648 153 discriminator 1 view .LVU951
	.syntax unified
@ 1648 "/home/g/mise-work/zmk-firmware/zmk/zephyr/subsys/bluetooth/controller/ll_sw/ull.c" 1
	eors.n r0, r0
	msr BASEPRI, r0
	mov r0, #3
	svc #2
	
@ 0 "" 2
	.thumb
	.syntax unified
	b	.L190
.L203:
	.align	2
.L202:
	.word	.LC0
	.word	.LC2
	.word	.LC13
	.word	.LC14
	.word	mem_pdu_rx
	.word	.LC15
	.word	.LC7
	.word	.LC8
	.word	.LC5
	.word	mem_link_rx
.LBE534:
.LBE542:
	.cfi_endproc
.LFE518:
	.size	ll_rx_mem_release, .-ll_rx_mem_release
	.section	.text.ll_rx_link_alloc,"ax",%progbits
	.align	1
	.p2align 2,,3
	.global	ll_rx_link_alloc
	.syntax unified
	.thumb
	.thumb_func
	.type	ll_rx_link_alloc, %function
ll_rx_link_alloc:
.LFB522:
	.loc 1 1689 1 view -0
	.cfi_startproc
	@ args = 0, pretend = 0, frame = 0
	@ frame_needed = 0, uses_anonymous_args = 0
	@ link register save eliminated.
	.loc 1 1690 2 view .LVU953
	.loc 1 1690 9 is_stmt 0 view .LVU954
	ldr	r0, .L205
	b	mem_acquire
.LVL269:
.L206:
	.align	2
.L205:
	.word	mem_link_rx+4
	.cfi_endproc
.LFE522:
	.size	ll_rx_link_alloc, .-ll_rx_link_alloc
	.section	.text.ll_rx_link_release,"ax",%progbits
	.align	1
	.p2align 2,,3
	.global	ll_rx_link_release
	.syntax unified
	.thumb
	.thumb_func
	.type	ll_rx_link_release, %function
ll_rx_link_release:
.LVL270:
.LFB523:
	.loc 1 1694 1 is_stmt 1 view -0
	.cfi_startproc
	@ args = 0, pretend = 0, frame = 0
	@ frame_needed = 0, uses_anonymous_args = 0
	@ link register save eliminated.
	.loc 1 1695 2 view .LVU956
	ldr	r1, .L208
	b	mem_release
.LVL271:
.L209:
	.loc 1 1695 2 is_stmt 0 view .LVU957
	.align	2
.L208:
	.word	mem_link_rx+4
	.cfi_endproc
.LFE523:
	.size	ll_rx_link_release, .-ll_rx_link_release
	.section	.text.ll_rx_alloc,"ax",%progbits
	.align	1
	.p2align 2,,3
	.global	ll_rx_alloc
	.syntax unified
	.thumb
	.thumb_func
	.type	ll_rx_alloc, %function
ll_rx_alloc:
.LFB524:
	.loc 1 1699 1 is_stmt 1 view -0
	.cfi_startproc
	@ args = 0, pretend = 0, frame = 0
	@ frame_needed = 0, uses_anonymous_args = 0
	@ link register save eliminated.
	.loc 1 1700 2 view .LVU959
	.loc 1 1700 9 is_stmt 0 view .LVU960
	ldr	r0, .L211
	b	mem_acquire
.LVL272:
.L212:
	.align	2
.L211:
	.word	mem_pdu_rx
	.cfi_endproc
.LFE524:
	.size	ll_rx_alloc, .-ll_rx_alloc
	.section	.text.ll_rx_release,"ax",%progbits
	.align	1
	.p2align 2,,3
	.global	ll_rx_release
	.syntax unified
	.thumb
	.thumb_func
	.type	ll_rx_release, %function
ll_rx_release:
.LVL273:
.LFB525:
	.loc 1 1704 1 is_stmt 1 view -0
	.cfi_startproc
	@ args = 0, pretend = 0, frame = 0
	@ frame_needed = 0, uses_anonymous_args = 0
	@ link register save eliminated.
	.loc 1 1705 2 view .LVU962
	ldr	r1, .L214
	b	mem_release
.LVL274:
.L215:
	.loc 1 1705 2 is_stmt 0 view .LVU963
	.align	2
.L214:
	.word	mem_pdu_rx
	.cfi_endproc
.LFE525:
	.size	ll_rx_release, .-ll_rx_release
	.section	.text.ll_rx_put,"ax",%progbits
	.align	1
	.p2align 2,,3
	.global	ll_rx_put
	.syntax unified
	.thumb
	.thumb_func
	.type	ll_rx_put, %function
ll_rx_put:
.LVL275:
.LFB526:
	.loc 1 1709 1 is_stmt 1 view -0
	.cfi_startproc
	@ args = 0, pretend = 0, frame = 0
	@ frame_needed = 0, uses_anonymous_args = 0
	@ link register save eliminated.
	.loc 1 1711 2 view .LVU965
	.loc 1 1716 33 is_stmt 0 view .LVU966
	ldr	r3, .L217
.LVL276:
	.loc 1 1716 2 is_stmt 1 view .LVU967
	.loc 1 1720 2 is_stmt 0 view .LVU968
	ldr	r2, .L217+4
	.loc 1 1716 33 view .LVU969
	ldrb	r3, [r3, #5]	@ zero_extendqisi2
	.loc 1 1716 19 view .LVU970
	strb	r3, [r1]
	.loc 1 1720 2 is_stmt 1 view .LVU971
	b	memq_enqueue
.LVL277:
.L218:
	.loc 1 1720 2 is_stmt 0 view .LVU972
	.align	2
.L217:
	.word	mfifo_tx_ack
	.word	memq_ll_rx+4
	.cfi_endproc
.LFE526:
	.size	ll_rx_put, .-ll_rx_put
	.section	.text.ll_rx_sched,"ax",%progbits
	.align	1
	.p2align 2,,3
	.global	ll_rx_sched
	.syntax unified
	.thumb
	.thumb_func
	.type	ll_rx_sched, %function
ll_rx_sched:
.LFB527:
	.loc 1 1728 1 is_stmt 1 view -0
	.cfi_startproc
	@ args = 0, pretend = 0, frame = 0
	@ frame_needed = 0, uses_anonymous_args = 0
	@ link register save eliminated.
	.loc 1 1732 2 view .LVU974
	ldr	r3, .L220
	ldr	r0, [r3]
.LVL278:
.LBB543:
.LBI543:
	.loc 2 1110 20 view .LVU975
.LBB544:
	.loc 2 1119 2 view .LVU976
	.loc 2 1119 7 view .LVU977
	.loc 2 1119 5 view .LVU978
	.loc 2 1120 2 view .LVU979
	b	z_impl_k_sem_give
.LVL279:
.L221:
	.loc 2 1120 2 is_stmt 0 view .LVU980
	.align	2
.L220:
	.word	sem_recv
.LBE544:
.LBE543:
	.cfi_endproc
.LFE527:
	.size	ll_rx_sched, .-ll_rx_sched
	.section	.text.ll_rx_put_sched,"ax",%progbits
	.align	1
	.p2align 2,,3
	.global	ll_rx_put_sched
	.syntax unified
	.thumb
	.thumb_func
	.type	ll_rx_put_sched, %function
ll_rx_put_sched:
.LVL280:
.LFB528:
	.loc 1 1736 1 is_stmt 1 view -0
	.cfi_startproc
	@ args = 0, pretend = 0, frame = 0
	@ frame_needed = 0, uses_anonymous_args = 0
	.loc 1 1737 2 view .LVU982
	.loc 1 1736 1 is_stmt 0 view .LVU983
	push	{r3, lr}
	.cfi_def_cfa_offset 8
	.cfi_offset 3, -8
	.cfi_offset 14, -4
.LBB545:
.LBB546:
	.loc 1 1716 33 view .LVU984
	ldr	r3, .L224
.LVL281:
	.loc 1 1716 33 view .LVU985
.LBE546:
.LBI545:
	.loc 1 1708 6 is_stmt 1 view .LVU986
.LBB547:
	.loc 1 1711 2 view .LVU987
	.loc 1 1716 2 view .LVU988
	.loc 1 1720 2 is_stmt 0 view .LVU989
	ldr	r2, .L224+4
	.loc 1 1716 33 view .LVU990
	ldrb	r3, [r3, #5]	@ zero_extendqisi2
	.loc 1 1716 19 view .LVU991
	strb	r3, [r1]
	.loc 1 1720 2 is_stmt 1 view .LVU992
	bl	memq_enqueue
.LVL282:
	.loc 1 1720 2 is_stmt 0 view .LVU993
.LBE547:
.LBE545:
	.loc 1 1738 2 is_stmt 1 view .LVU994
.LBB548:
.LBI548:
	.loc 1 1727 6 view .LVU995
.LBB549:
	.loc 1 1732 2 view .LVU996
	ldr	r3, .L224+8
	ldr	r0, [r3]
.LVL283:
.LBB550:
.LBI550:
	.loc 2 1110 20 view .LVU997
.LBB551:
	.loc 2 1119 2 view .LVU998
	.loc 2 1119 7 view .LVU999
	.loc 2 1119 5 view .LVU1000
	.loc 2 1120 2 view .LVU1001
.LBE551:
.LBE550:
.LBE549:
.LBE548:
	.loc 1 1739 1 is_stmt 0 view .LVU1002
	pop	{r3, lr}
	.cfi_restore 14
	.cfi_restore 3
	.cfi_def_cfa_offset 0
.LBB555:
.LBB554:
.LBB553:
.LBB552:
	.loc 2 1120 2 view .LVU1003
	b	z_impl_k_sem_give
.LVL284:
.L225:
	.loc 2 1120 2 view .LVU1004
	.align	2
.L224:
	.word	mfifo_tx_ack
	.word	memq_ll_rx+4
	.word	sem_recv
.LBE552:
.LBE553:
.LBE554:
.LBE555:
	.cfi_endproc
.LFE528:
	.size	ll_rx_put_sched, .-ll_rx_put_sched
	.section	.text.ll_pdu_rx_alloc_peek,"ax",%progbits
	.align	1
	.p2align 2,,3
	.global	ll_pdu_rx_alloc_peek
	.syntax unified
	.thumb
	.thumb_func
	.type	ll_pdu_rx_alloc_peek, %function
ll_pdu_rx_alloc_peek:
.LVL285:
.LFB529:
	.loc 1 1743 1 is_stmt 1 view -0
	.cfi_startproc
	@ args = 0, pretend = 0, frame = 0
	@ frame_needed = 0, uses_anonymous_args = 0
	@ link register save eliminated.
	.loc 1 1744 2 view .LVU1006
	.loc 1 1744 14 is_stmt 0 view .LVU1007
	ldr	r1, .L236
	ldrb	r3, [r1, #4]	@ zero_extendqisi2
	ldrb	r2, [r1, #5]	@ zero_extendqisi2
.LVL286:
.LBB556:
.LBI556:
	.loc 3 211 23 is_stmt 1 view .LVU1008
.LBB557:
	.loc 3 213 2 view .LVU1009
	.loc 3 213 5 is_stmt 0 view .LVU1010
	cmp	r3, r2
	bhi	.L227
	.loc 3 214 3 is_stmt 1 view .LVU1011
.LVL287:
	.loc 3 214 15 is_stmt 0 view .LVU1012
	sub	ip, r2, r3
.LBE557:
.LBE556:
	.loc 1 1744 5 view .LVU1013
	uxtb	ip, ip
	cmp	r0, ip
	bhi	.L233
	.loc 1 1748 2 is_stmt 1 view .LVU1014
.LVL288:
.LBB560:
.LBI560:
	.loc 3 254 21 view .LVU1015
.LBB561:
	.loc 3 257 2 view .LVU1016
	.loc 3 257 5 is_stmt 0 view .LVU1017
	cmp	r3, r2
	beq	.L233
.LVL289:
.L235:
	.loc 3 257 5 view .LVU1018
.LBE561:
.LBE560:
	.loc 1 1748 9 view .LVU1019
	ldrb	r1, [r1]	@ zero_extendqisi2
.LBB563:
.LBB562:
	.loc 3 262 2 is_stmt 1 view .LVU1020
	.loc 3 262 9 is_stmt 0 view .LVU1021
	ldr	r2, .L236+4
	.loc 3 262 34 view .LVU1022
	smulbb	r3, r3, r1
	.loc 3 262 9 view .LVU1023
	ldr	r0, [r2, r3]
.LVL290:
	.loc 3 262 9 view .LVU1024
	bx	lr
.LVL291:
.L227:
	.loc 3 262 9 view .LVU1025
.LBE562:
.LBE563:
.LBB564:
.LBB558:
	.loc 3 216 3 is_stmt 1 view .LVU1026
	.loc 3 216 3 is_stmt 0 view .LVU1027
.LBE558:
.LBE564:
	.loc 1 1744 14 view .LVU1028
	ldrh	ip, [r1, #2]
.LBB565:
.LBB559:
	.loc 3 216 16 view .LVU1029
	sub	ip, ip, r3
	.loc 3 216 24 view .LVU1030
	add	r2, r2, ip
.LBE559:
.LBE565:
	.loc 1 1744 5 view .LVU1031
	uxtb	r2, r2
	cmp	r0, r2
	bls	.L235
.L233:
	.loc 1 1745 9 view .LVU1032
	movs	r0, #0
.LVL292:
	.loc 1 1749 1 view .LVU1033
	bx	lr
.L237:
	.align	2
.L236:
	.word	mfifo_ll_pdu_rx_free
	.word	mfifo_ll_pdu_rx_free+8
	.cfi_endproc
.LFE529:
	.size	ll_pdu_rx_alloc_peek, .-ll_pdu_rx_alloc_peek
	.section	.text.ll_pdu_rx_alloc,"ax",%progbits
	.align	1
	.p2align 2,,3
	.global	ll_pdu_rx_alloc
	.syntax unified
	.thumb
	.thumb_func
	.type	ll_pdu_rx_alloc, %function
ll_pdu_rx_alloc:
.LFB530:
	.loc 1 1752 1 is_stmt 1 view -0
	.cfi_startproc
	@ args = 0, pretend = 0, frame = 0
	@ frame_needed = 0, uses_anonymous_args = 0
	@ link register save eliminated.
	.loc 1 1753 2 view .LVU1035
	.loc 1 1753 67 is_stmt 0 view .LVU1036
	ldr	r3, .L242
.LBB566:
.LBB567:
	.loc 3 317 10 view .LVU1037
	ldrb	r1, [r3, #4]	@ zero_extendqisi2
	.loc 3 321 5 view .LVU1038
	ldrb	r2, [r3, #5]	@ zero_extendqisi2
.LBE567:
.LBE566:
	.loc 1 1753 9 view .LVU1039
	ldrb	r0, [r3]	@ zero_extendqisi2
	ldrb	ip, [r3, #2]	@ zero_extendqisi2
.LVL293:
.LBB569:
.LBI566:
	.loc 3 314 21 is_stmt 1 view .LVU1040
.LBB568:
	.loc 3 317 2 view .LVU1041
	.loc 3 318 2 view .LVU1042
	.loc 3 321 2 view .LVU1043
	.loc 3 321 5 is_stmt 0 view .LVU1044
	cmp	r2, r1
	beq	.L241
	.loc 3 328 2 is_stmt 1 view .LVU1045
	.loc 3 331 9 is_stmt 0 view .LVU1046
	adds	r2, r1, #1
	.loc 3 328 6 view .LVU1047
	mla	r0, r1, r0, r3
.LVL294:
	.loc 3 331 9 view .LVU1048
	uxtb	r2, r2
	.loc 3 333 10 view .LVU1049
	cmp	ip, r2
	it	eq
	moveq	r2, #0
	.loc 3 328 6 view .LVU1050
	ldr	r0, [r0, #8]
.LVL295:
	.loc 3 331 2 is_stmt 1 view .LVU1051
	.loc 3 332 2 view .LVU1052
	.loc 3 336 2 view .LVU1053
	.loc 3 336 9 is_stmt 0 view .LVU1054
	strb	r2, [r3, #4]
	.loc 3 338 2 is_stmt 1 view .LVU1055
	.loc 3 338 9 is_stmt 0 view .LVU1056
	bx	lr
.LVL296:
.L241:
	.loc 3 322 9 view .LVU1057
	movs	r0, #0
.LVL297:
	.loc 3 322 9 view .LVU1058
.LBE568:
.LBE569:
	.loc 1 1754 1 view .LVU1059
	bx	lr
.L243:
	.align	2
.L242:
	.word	mfifo_ll_pdu_rx_free
	.cfi_endproc
.LFE530:
	.size	ll_pdu_rx_alloc, .-ll_pdu_rx_alloc
	.section	.rodata.ll_tx_ack_put.str1.4,"aMS",%progbits,1
	.align	2
.LC16:
	.ascii	"tx\000"
	.section	.text.ll_tx_ack_put,"ax",%progbits
	.align	1
	.p2align 2,,3
	.global	ll_tx_ack_put
	.syntax unified
	.thumb
	.thumb_func
	.type	ll_tx_ack_put, %function
ll_tx_ack_put:
.LVL298:
.LFB531:
	.loc 1 1759 1 is_stmt 1 view -0
	.cfi_startproc
	@ args = 0, pretend = 0, frame = 0
	@ frame_needed = 0, uses_anonymous_args = 0
	.loc 1 1760 2 view .LVU1061
	.loc 1 1761 2 view .LVU1062
	.loc 1 1763 2 view .LVU1063
	.loc 1 1759 1 is_stmt 0 view .LVU1064
	push	{r3, r4, r5, lr}
	.cfi_def_cfa_offset 16
	.cfi_offset 3, -16
	.cfi_offset 4, -12
	.cfi_offset 5, -8
	.cfi_offset 14, -4
	.loc 1 1763 54 view .LVU1065
	ldr	r4, .L249
	.loc 1 1763 8 view .LVU1066
	ldrb	r2, [r4, #5]	@ zero_extendqisi2
.LVL299:
.LBB570:
.LBB571:
.LBB572:
.LBB573:
	.loc 3 87 5 view .LVU1067
	ldrb	lr, [r4, #2]	@ zero_extendqisi2
.LBE573:
.LBE572:
.LBE571:
.LBE570:
	.loc 1 1763 8 view .LVU1068
	ldrb	ip, [r4, #4]	@ zero_extendqisi2
	ldrb	r5, [r4]	@ zero_extendqisi2
.LVL300:
.LBB578:
.LBI570:
	.loc 3 145 23 is_stmt 1 view .LVU1069
.LBB576:
	.loc 3 148 2 view .LVU1070
	.loc 3 151 2 view .LVU1071
.LBB575:
.LBI572:
	.loc 3 82 19 view .LVU1072
.LBB574:
	.loc 3 86 2 view .LVU1073
	.loc 3 86 7 is_stmt 0 view .LVU1074
	adds	r3, r2, #1
	uxtb	r3, r3
.LVL301:
	.loc 3 87 2 is_stmt 1 view .LVU1075
	.loc 3 88 8 is_stmt 0 view .LVU1076
	cmp	lr, r3
	it	eq
	moveq	r3, #0
.LVL302:
	.loc 3 97 2 is_stmt 1 view .LVU1077
	.loc 3 97 5 is_stmt 0 view .LVU1078
	cmp	ip, r3
	beq	.L248
	.loc 3 101 2 is_stmt 1 view .LVU1079
.LVL303:
	.loc 3 102 2 view .LVU1080
	.loc 3 102 2 is_stmt 0 view .LVU1081
.LBE574:
.LBE575:
	.loc 3 161 2 is_stmt 1 view .LVU1082
	.loc 3 161 30 is_stmt 0 view .LVU1083
	smulbb	r2, r2, r5
.LVL304:
	.loc 3 161 23 view .LVU1084
	add	ip, r4, #8
.LVL305:
	.loc 3 161 23 view .LVU1085
.LBE576:
.LBE578:
	.loc 1 1766 13 view .LVU1086
	strh	r0, [ip, r2]	@ movhi
.LVL306:
.LBB579:
.LBB577:
	.loc 3 161 23 view .LVU1087
	add	r2, r2, ip
.LVL307:
	.loc 3 163 2 is_stmt 1 view .LVU1088
	.loc 3 163 2 is_stmt 0 view .LVU1089
.LBE577:
.LBE579:
	.loc 1 1764 2 is_stmt 1 view .LVU1090
	.loc 1 1764 7 view .LVU1091
	.loc 1 1764 144 view .LVU1092
	.loc 1 1764 5 view .LVU1093
	.loc 1 1766 2 view .LVU1094
	.loc 1 1767 2 view .LVU1095
	.loc 1 1767 11 is_stmt 0 view .LVU1096
	str	r1, [r2, #4]
	.loc 1 1769 2 is_stmt 1 view .LVU1097
.LVL308:
.LBB580:
.LBI580:
	.loc 3 191 20 view .LVU1098
.LBB581:
	.loc 3 193 2 view .LVU1099
.LBB582:
.LBI582:
	.loc 4 15 20 view .LVU1100
.LBB583:
	.loc 4 27 2 view .LVU1101
.LBE583:
.LBE582:
	.loc 3 194 2 view .LVU1102
	.loc 3 194 8 is_stmt 0 view .LVU1103
	strb	r3, [r4, #5]
.LVL309:
	.loc 3 194 8 view .LVU1104
.LBE581:
.LBE580:
	.loc 1 1770 1 view .LVU1105
	pop	{r3, r4, r5, pc}
.LVL310:
.L248:
	.loc 1 1764 2 is_stmt 1 view .LVU1106
	.loc 1 1764 7 view .LVU1107
	.loc 1 1764 20 view .LVU1108
	ldr	r2, .L249+4
	ldr	r1, .L249+8
.LVL311:
	.loc 1 1764 20 is_stmt 0 view .LVU1109
	ldr	r0, .L249+12
.LVL312:
	.loc 1 1764 20 view .LVU1110
	movw	r3, #1764
	bl	assert_print
.LVL313:
	.loc 1 1764 141 is_stmt 1 view .LVU1111
	.loc 1 1764 146 view .LVU1112
	.syntax unified
@ 1764 "/home/g/mise-work/zmk-firmware/zmk/zephyr/subsys/bluetooth/controller/ll_sw/ull.c" 1
	eors.n r0, r0
	msr BASEPRI, r0
	mov r0, #3
	svc #2
	
@ 0 "" 2
	.loc 1 1764 144 view .LVU1113
	.loc 1 1764 5 view .LVU1114
	.loc 1 1766 2 view .LVU1115
	.loc 1 1766 13 is_stmt 0 view .LVU1116
	.thumb
	.syntax unified
	movs	r3, #0
	strh	r3, [r3]	@ movhi
	.inst	0xdeff
.L250:
	.align	2
.L249:
	.word	mfifo_tx_ack
	.word	.LC0
	.word	.LC16
	.word	.LC2
	.cfi_endproc
.LFE531:
	.size	ll_tx_ack_put, .-ll_tx_ack_put
	.section	.text.ll_timeslice_ticker_id_get,"ax",%progbits
	.align	1
	.p2align 2,,3
	.global	ll_timeslice_ticker_id_get
	.syntax unified
	.thumb
	.thumb_func
	.type	ll_timeslice_ticker_id_get, %function
ll_timeslice_ticker_id_get:
.LVL314:
.LFB532:
	.loc 1 1775 1 is_stmt 1 view -0
	.cfi_startproc
	@ args = 0, pretend = 0, frame = 0
	@ frame_needed = 0, uses_anonymous_args = 0
	@ link register save eliminated.
	.loc 1 1776 2 view .LVU1118
	.loc 1 1776 18 is_stmt 0 view .LVU1119
	movs	r2, #0
	.loc 1 1777 13 view .LVU1120
	movs	r3, #8
	.loc 1 1776 18 view .LVU1121
	strb	r2, [r0]
	.loc 1 1777 2 is_stmt 1 view .LVU1122
	.loc 1 1777 13 is_stmt 0 view .LVU1123
	strb	r3, [r1]
	.loc 1 1778 1 view .LVU1124
	bx	lr
	.cfi_endproc
.LFE532:
	.size	ll_timeslice_ticker_id_get, .-ll_timeslice_ticker_id_get
	.section	.text.ll_coex_ticker_id_get,"ax",%progbits
	.align	1
	.p2align 2,,3
	.global	ll_coex_ticker_id_get
	.syntax unified
	.thumb
	.thumb_func
	.type	ll_coex_ticker_id_get, %function
ll_coex_ticker_id_get:
.LVL315:
.LFB533:
	.loc 1 1782 1 is_stmt 1 view -0
	.cfi_startproc
	@ args = 0, pretend = 0, frame = 0
	@ frame_needed = 0, uses_anonymous_args = 0
	@ link register save eliminated.
	.loc 1 1783 2 view .LVU1126
	.loc 1 1783 18 is_stmt 0 view .LVU1127
	movs	r2, #0
	.loc 1 1784 13 view .LVU1128
	movs	r3, #10
	.loc 1 1783 18 view .LVU1129
	strb	r2, [r0]
	.loc 1 1784 2 is_stmt 1 view .LVU1130
	.loc 1 1784 13 is_stmt 0 view .LVU1131
	strb	r3, [r1]
	.loc 1 1785 1 view .LVU1132
	bx	lr
	.cfi_endproc
.LFE533:
	.size	ll_coex_ticker_id_get, .-ll_coex_ticker_id_get
	.section	.rodata.ll_radio_state_abort.str1.4,"aMS",%progbits,1
	.align	2
.LC17:
	.ascii	"!ret\000"
	.section	.text.ll_radio_state_abort,"ax",%progbits
	.align	1
	.p2align 2,,3
	.global	ll_radio_state_abort
	.syntax unified
	.thumb
	.thumb_func
	.type	ll_radio_state_abort, %function
ll_radio_state_abort:
.LFB534:
	.loc 1 1788 1 is_stmt 1 view -0
	.cfi_startproc
	@ args = 0, pretend = 0, frame = 0
	@ frame_needed = 0, uses_anonymous_args = 0
	.loc 1 1789 2 view .LVU1134
	.loc 1 1790 2 view .LVU1135
	.loc 1 1791 2 view .LVU1136
	.loc 1 1793 2 view .LVU1137
	.loc 1 1793 8 is_stmt 0 view .LVU1138
	movs	r2, #0
	.loc 1 1788 1 view .LVU1139
	push	{r3, lr}
	.cfi_def_cfa_offset 8
	.cfi_offset 3, -8
	.cfi_offset 14, -4
	.loc 1 1793 8 view .LVU1140
	mov	r1, r2
	ldr	r3, .L260
	movs	r0, #1
	bl	mayfly_enqueue
.LVL316:
	.loc 1 1795 2 is_stmt 1 view .LVU1141
	.loc 1 1795 7 view .LVU1142
	.loc 1 1795 10 is_stmt 0 view .LVU1143
	cbnz	r0, .L259
	.loc 1 1796 1 view .LVU1144
	pop	{r3, pc}
.L259:
	.loc 1 1795 22 is_stmt 1 discriminator 1 view .LVU1145
	ldr	r2, .L260+4
	ldr	r1, .L260+8
	ldr	r0, .L260+12
.LVL317:
	.loc 1 1795 22 is_stmt 0 discriminator 1 view .LVU1146
	movw	r3, #1795
	bl	assert_print
.LVL318:
	.loc 1 1795 145 is_stmt 1 discriminator 1 view .LVU1147
	.loc 1 1795 150 discriminator 1 view .LVU1148
	.syntax unified
@ 1795 "/home/g/mise-work/zmk-firmware/zmk/zephyr/subsys/bluetooth/controller/ll_sw/ull.c" 1
	eors.n r0, r0
	msr BASEPRI, r0
	mov r0, #3
	svc #2
	
@ 0 "" 2
	.loc 1 1795 148 discriminator 1 view .LVU1149
	.loc 1 1795 5 discriminator 1 view .LVU1150
	.loc 1 1796 1 is_stmt 0 discriminator 1 view .LVU1151
	.thumb
	.syntax unified
	pop	{r3, pc}
.L261:
	.align	2
.L260:
	.word	mfy.7
	.word	.LC0
	.word	.LC17
	.word	.LC2
	.cfi_endproc
.LFE534:
	.size	ll_radio_state_abort, .-ll_radio_state_abort
	.section	.text.ll_radio_state_is_idle,"ax",%progbits
	.align	1
	.p2align 2,,3
	.global	ll_radio_state_is_idle
	.syntax unified
	.thumb
	.thumb_func
	.type	ll_radio_state_is_idle, %function
ll_radio_state_is_idle:
.LFB535:
	.loc 1 1799 1 is_stmt 1 view -0
	.cfi_startproc
	@ args = 0, pretend = 0, frame = 0
	@ frame_needed = 0, uses_anonymous_args = 0
	@ link register save eliminated.
	.loc 1 1800 2 view .LVU1153
	.loc 1 1800 9 is_stmt 0 view .LVU1154
	b	lll_radio_is_idle
.LVL319:
	.cfi_endproc
.LFE535:
	.size	ll_radio_state_is_idle, .-ll_radio_state_is_idle
	.section	.text.ull_ticker_status_take,"ax",%progbits
	.align	1
	.p2align 2,,3
	.global	ull_ticker_status_take
	.syntax unified
	.thumb
	.thumb_func
	.type	ull_ticker_status_take, %function
ull_ticker_status_take:
.LVL320:
.LFB537:
	.loc 1 1847 1 is_stmt 1 view -0
	.cfi_startproc
	@ args = 0, pretend = 0, frame = 0
	@ frame_needed = 0, uses_anonymous_args = 0
	.loc 1 1848 2 view .LVU1156
	.loc 1 1848 5 is_stmt 0 view .LVU1157
	cmp	r0, #2
	.loc 1 1847 1 view .LVU1158
	push	{r4, lr}
	.cfi_def_cfa_offset 8
	.cfi_offset 4, -8
	.cfi_offset 14, -4
	.loc 1 1847 1 view .LVU1159
	mov	r4, r1
	.loc 1 1848 5 view .LVU1160
	beq	.L264
	.loc 1 1848 21 discriminator 1 view .LVU1161
	ldr	r3, [r1]
	.loc 1 1848 17 discriminator 1 view .LVU1162
	cmp	r3, #2
	beq	.L263
.L264:
.LVL321:
.LBB589:
.LBI589:
	.loc 1 1846 10 is_stmt 1 view .LVU1163
.LBB590:
	.loc 1 1853 3 view .LVU1164
.LBB591:
.LBI591:
	.loc 2 1093 19 view .LVU1165
.LBB592:
	.loc 2 1102 2 view .LVU1166
	.loc 2 1102 7 view .LVU1167
	.loc 2 1102 5 view .LVU1168
	.loc 2 1103 2 view .LVU1169
	.loc 2 1103 9 is_stmt 0 view .LVU1170
	ldr	r0, .L271
.LVL322:
	.loc 2 1103 9 view .LVU1171
	mov	r2, #-1
	mov	r3, #-1
	bl	z_impl_k_sem_take
.LVL323:
	.loc 2 1103 9 view .LVU1172
.LBE592:
.LBE591:
	.loc 1 1854 3 is_stmt 1 view .LVU1173
	.loc 1 1854 10 is_stmt 0 view .LVU1174
	ldr	r0, [r4]
.LVL324:
.L263:
	.loc 1 1854 10 view .LVU1175
.LBE590:
.LBE589:
	.loc 1 1858 1 view .LVU1176
	pop	{r4, pc}
.LVL325:
.L272:
	.loc 1 1858 1 view .LVU1177
	.align	2
.L271:
	.word	sem_ticker_api_cb
	.cfi_endproc
.LFE537:
	.size	ull_ticker_status_take, .-ull_ticker_status_take
	.section	.text.ull_disable_mark,"ax",%progbits
	.align	1
	.p2align 2,,3
	.global	ull_disable_mark
	.syntax unified
	.thumb
	.thumb_func
	.type	ull_disable_mark, %function
ull_disable_mark:
.LVL326:
.LFB538:
	.loc 1 1861 1 is_stmt 1 view -0
	.cfi_startproc
	@ args = 0, pretend = 0, frame = 0
	@ frame_needed = 0, uses_anonymous_args = 0
	@ link register save eliminated.
	.loc 1 1862 2 view .LVU1179
.LBB593:
.LBB594:
	.loc 1 2317 7 is_stmt 0 view .LVU1180
	ldr	r1, .L276
	ldr	r2, [r1]
.LVL327:
	.loc 1 2317 7 view .LVU1181
.LBE594:
.LBI593:
	.loc 1 2315 21 is_stmt 1 view .LVU1182
.LBB595:
	.loc 1 2317 2 view .LVU1183
	.loc 1 2317 5 is_stmt 0 view .LVU1184
	cbz	r2, .L275
.LBE595:
.LBE593:
	.loc 1 1863 1 view .LVU1185
	mov	r0, r2
.LVL328:
	.loc 1 1863 1 view .LVU1186
	bx	lr
.LVL329:
.L275:
.LBB597:
.LBB596:
	.loc 1 2318 3 is_stmt 1 view .LVU1187
	.loc 1 2318 6 is_stmt 0 view .LVU1188
	mov	r2, r0
	.loc 1 2321 2 is_stmt 1 view .LVU1189
.LVL330:
	.loc 1 2318 6 is_stmt 0 view .LVU1190
	str	r0, [r1]
.LBE596:
.LBE597:
	.loc 1 1863 1 view .LVU1191
	mov	r0, r2
	.loc 1 1863 1 view .LVU1192
	bx	lr
.L277:
	.align	2
.L276:
	.word	mark_disable
	.cfi_endproc
.LFE538:
	.size	ull_disable_mark, .-ull_disable_mark
	.section	.text.ull_disable_unmark,"ax",%progbits
	.align	1
	.p2align 2,,3
	.global	ull_disable_unmark
	.syntax unified
	.thumb
	.thumb_func
	.type	ull_disable_unmark, %function
ull_disable_unmark:
.LVL331:
.LFB539:
	.loc 1 1866 1 is_stmt 1 view -0
	.cfi_startproc
	@ args = 0, pretend = 0, frame = 0
	@ frame_needed = 0, uses_anonymous_args = 0
	@ link register save eliminated.
	.loc 1 1867 2 view .LVU1194
.LBB598:
.LBB599:
	.loc 1 2326 6 is_stmt 0 view .LVU1195
	ldr	r2, .L284
	ldr	r3, [r2]
.LVL332:
	.loc 1 2326 6 view .LVU1196
.LBE599:
.LBI598:
	.loc 1 2324 21 is_stmt 1 view .LVU1197
.LBB600:
	.loc 1 2326 2 view .LVU1198
	.loc 1 2326 5 is_stmt 0 view .LVU1199
	cbz	r3, .L278
	.loc 1 2326 9 view .LVU1200
	cmp	r0, r3
	.loc 1 2327 3 is_stmt 1 view .LVU1201
	.loc 1 2327 6 is_stmt 0 view .LVU1202
	itte	eq
	moveq	r1, #0
	streq	r1, [r2]
	.loc 1 2329 3 is_stmt 1 view .LVU1203
	.loc 1 2332 8 is_stmt 0 view .LVU1204
	movne	r3, #0
.LVL333:
.L278:
	.loc 1 2332 8 view .LVU1205
.LBE600:
.LBE598:
	.loc 1 1868 1 view .LVU1206
	mov	r0, r3
.LVL334:
	.loc 1 1868 1 view .LVU1207
	bx	lr
.L285:
	.align	2
.L284:
	.word	mark_disable
	.cfi_endproc
.LFE539:
	.size	ull_disable_unmark, .-ull_disable_unmark
	.section	.text.ull_disable_mark_get,"ax",%progbits
	.align	1
	.p2align 2,,3
	.global	ull_disable_mark_get
	.syntax unified
	.thumb
	.thumb_func
	.type	ull_disable_mark_get, %function
ull_disable_mark_get:
.LFB540:
	.loc 1 1871 1 is_stmt 1 view -0
	.cfi_startproc
	@ args = 0, pretend = 0, frame = 0
	@ frame_needed = 0, uses_anonymous_args = 0
	@ link register save eliminated.
	.loc 1 1872 2 view .LVU1209
	.loc 1 1872 9 is_stmt 0 view .LVU1210
	ldr	r3, .L287
	.loc 1 1873 1 view .LVU1211
	ldr	r0, [r3]
	bx	lr
.L288:
	.align	2
.L287:
	.word	mark_disable
	.cfi_endproc
.LFE540:
	.size	ull_disable_mark_get, .-ull_disable_mark_get
	.section	.text.ull_update_mark,"ax",%progbits
	.align	1
	.p2align 2,,3
	.global	ull_update_mark
	.syntax unified
	.thumb
	.thumb_func
	.type	ull_update_mark, %function
ull_update_mark:
.LVL335:
.LFB542:
	.loc 1 1927 1 is_stmt 1 view -0
	.cfi_startproc
	@ args = 0, pretend = 0, frame = 0
	@ frame_needed = 0, uses_anonymous_args = 0
	@ link register save eliminated.
	.loc 1 1928 2 view .LVU1213
.LBB601:
.LBB602:
	.loc 1 2317 7 is_stmt 0 view .LVU1214
	ldr	r1, .L292
	ldr	r2, [r1]
.LVL336:
	.loc 1 2317 7 view .LVU1215
.LBE602:
.LBI601:
	.loc 1 2315 21 is_stmt 1 view .LVU1216
.LBB603:
	.loc 1 2317 2 view .LVU1217
	.loc 1 2317 5 is_stmt 0 view .LVU1218
	cbz	r2, .L291
.LBE603:
.LBE601:
	.loc 1 1929 1 view .LVU1219
	mov	r0, r2
.LVL337:
	.loc 1 1929 1 view .LVU1220
	bx	lr
.LVL338:
.L291:
.LBB605:
.LBB604:
	.loc 1 2318 3 is_stmt 1 view .LVU1221
	.loc 1 2318 6 is_stmt 0 view .LVU1222
	mov	r2, r0
	.loc 1 2321 2 is_stmt 1 view .LVU1223
.LVL339:
	.loc 1 2318 6 is_stmt 0 view .LVU1224
	str	r0, [r1]
.LBE604:
.LBE605:
	.loc 1 1929 1 view .LVU1225
	mov	r0, r2
	.loc 1 1929 1 view .LVU1226
	bx	lr
.L293:
	.align	2
.L292:
	.word	mark_update
	.cfi_endproc
.LFE542:
	.size	ull_update_mark, .-ull_update_mark
	.section	.text.ull_update_unmark,"ax",%progbits
	.align	1
	.p2align 2,,3
	.global	ull_update_unmark
	.syntax unified
	.thumb
	.thumb_func
	.type	ull_update_unmark, %function
ull_update_unmark:
.LVL340:
.LFB543:
	.loc 1 1932 1 is_stmt 1 view -0
	.cfi_startproc
	@ args = 0, pretend = 0, frame = 0
	@ frame_needed = 0, uses_anonymous_args = 0
	@ link register save eliminated.
	.loc 1 1933 2 view .LVU1228
.LBB606:
.LBB607:
	.loc 1 2326 6 is_stmt 0 view .LVU1229
	ldr	r2, .L300
	ldr	r3, [r2]
.LVL341:
	.loc 1 2326 6 view .LVU1230
.LBE607:
.LBI606:
	.loc 1 2324 21 is_stmt 1 view .LVU1231
.LBB608:
	.loc 1 2326 2 view .LVU1232
	.loc 1 2326 5 is_stmt 0 view .LVU1233
	cbz	r3, .L294
	.loc 1 2326 9 view .LVU1234
	cmp	r0, r3
	.loc 1 2327 3 is_stmt 1 view .LVU1235
	.loc 1 2327 6 is_stmt 0 view .LVU1236
	itte	eq
	moveq	r1, #0
	streq	r1, [r2]
	.loc 1 2329 3 is_stmt 1 view .LVU1237
	.loc 1 2332 8 is_stmt 0 view .LVU1238
	movne	r3, #0
.LVL342:
.L294:
	.loc 1 2332 8 view .LVU1239
.LBE608:
.LBE606:
	.loc 1 1934 1 view .LVU1240
	mov	r0, r3
.LVL343:
	.loc 1 1934 1 view .LVU1241
	bx	lr
.L301:
	.align	2
.L300:
	.word	mark_update
	.cfi_endproc
.LFE543:
	.size	ull_update_unmark, .-ull_update_unmark
	.section	.text.ull_update_mark_get,"ax",%progbits
	.align	1
	.p2align 2,,3
	.global	ull_update_mark_get
	.syntax unified
	.thumb
	.thumb_func
	.type	ull_update_mark_get, %function
ull_update_mark_get:
.LFB544:
	.loc 1 1937 1 is_stmt 1 view -0
	.cfi_startproc
	@ args = 0, pretend = 0, frame = 0
	@ frame_needed = 0, uses_anonymous_args = 0
	@ link register save eliminated.
	.loc 1 1938 2 view .LVU1243
	.loc 1 1938 9 is_stmt 0 view .LVU1244
	ldr	r3, .L303
	.loc 1 1939 1 view .LVU1245
	ldr	r0, [r3]
	bx	lr
.L304:
	.align	2
.L303:
	.word	mark_update
	.cfi_endproc
.LFE544:
	.size	ull_update_mark_get, .-ull_update_mark_get
	.section	.text.ull_disable,"ax",%progbits
	.align	1
	.p2align 2,,3
	.global	ull_disable
	.syntax unified
	.thumb
	.thumb_func
	.type	ull_disable, %function
ull_disable:
.LVL344:
.LFB545:
	.loc 1 1943 1 is_stmt 1 view -0
	.cfi_startproc
	@ args = 0, pretend = 0, frame = 24
	@ frame_needed = 0, uses_anonymous_args = 0
	.loc 1 1944 2 view .LVU1247
	.loc 1 1945 2 view .LVU1248
	.loc 1 1946 2 view .LVU1249
	.loc 1 1947 2 view .LVU1250
	.loc 1 1948 2 view .LVU1251
	.loc 1 1950 2 view .LVU1252
	.loc 1 1943 1 is_stmt 0 view .LVU1253
	push	{r4, r5, lr}
	.cfi_def_cfa_offset 12
	.cfi_offset 4, -12
	.cfi_offset 5, -8
	.cfi_offset 14, -4
	.loc 1 1950 6 view .LVU1254
	ldr	r5, [r0]
.LVL345:
	.loc 1 1951 2 is_stmt 1 view .LVU1255
.LBB609:
.LBI609:
	.loc 5 48 23 view .LVU1256
.LBB610:
	.loc 5 50 2 view .LVU1257
	.loc 5 50 12 is_stmt 0 view .LVU1258
	ldrb	r3, [r5]	@ zero_extendqisi2
.LBE610:
.LBE609:
	.loc 1 1943 1 view .LVU1259
	sub	sp, sp, #28
	.cfi_def_cfa_offset 40
	.loc 1 1951 5 view .LVU1260
	cbz	r3, .L308
	.loc 1 1955 2 is_stmt 1 view .LVU1261
.LVL346:
.LBB611:
.LBI611:
	.loc 2 1075 19 view .LVU1262
.LBB612:
	.loc 2 1085 2 view .LVU1263
	.loc 2 1085 7 view .LVU1264
	mov	r4, r0
	.loc 2 1085 5 view .LVU1265
	.loc 2 1086 2 view .LVU1266
	.loc 2 1086 9 is_stmt 0 view .LVU1267
	movs	r2, #1
	movs	r1, #0
	mov	r0, sp
.LVL347:
	.loc 2 1086 9 view .LVU1268
	bl	z_impl_k_sem_init
.LVL348:
	.loc 2 1086 9 view .LVU1269
.LBE612:
.LBE611:
	.loc 1 1957 2 is_stmt 1 view .LVU1270
.LBB613:
.LBB614:
	.loc 5 50 12 is_stmt 0 view .LVU1271
	ldrb	r3, [r5]	@ zero_extendqisi2
.LBE614:
.LBE613:
	.loc 1 1958 19 view .LVU1272
	ldr	r2, .L318
	.loc 1 1957 22 view .LVU1273
	str	sp, [r5, #24]
	.loc 1 1958 2 is_stmt 1 view .LVU1274
	.loc 1 1958 19 is_stmt 0 view .LVU1275
	str	r2, [r5, #20]
	.loc 1 1969 2 is_stmt 1 view .LVU1276
.LVL349:
.LBB616:
.LBI613:
	.loc 5 48 23 view .LVU1277
.LBB615:
	.loc 5 50 2 view .LVU1278
	.loc 5 50 2 is_stmt 0 view .LVU1279
.LBE615:
.LBE616:
	.loc 1 1969 5 view .LVU1280
	cbz	r3, .L308
	.loc 1 1973 2 is_stmt 1 view .LVU1281
	.loc 1 1973 12 is_stmt 0 view .LVU1282
	ldr	r3, .L318+4
	.loc 1 1974 8 view .LVU1283
	movs	r2, #0
	mov	r1, r2
	movs	r0, #3
	.loc 1 1973 12 view .LVU1284
	str	r4, [r3, #8]
	.loc 1 1974 2 is_stmt 1 view .LVU1285
	.loc 1 1974 8 is_stmt 0 view .LVU1286
	bl	mayfly_enqueue
.LVL350:
	.loc 1 1976 2 is_stmt 1 view .LVU1287
	.loc 1 1976 7 view .LVU1288
	.loc 1 1976 10 is_stmt 0 view .LVU1289
	cbnz	r0, .L317
.LVL351:
.L309:
	.loc 1 1976 148 is_stmt 1 discriminator 3 view .LVU1290
	.loc 1 1976 5 discriminator 3 view .LVU1291
	.loc 1 1978 2 discriminator 3 view .LVU1292
.LBB617:
.LBI617:
	.loc 2 1093 19 discriminator 3 view .LVU1293
.LBB618:
	.loc 2 1102 2 discriminator 3 view .LVU1294
	.loc 2 1102 7 discriminator 3 view .LVU1295
	.loc 2 1102 5 discriminator 3 view .LVU1296
	.loc 2 1103 2 discriminator 3 view .LVU1297
	.loc 2 1103 9 is_stmt 0 discriminator 3 view .LVU1298
	mov	r2, #32768
	movs	r3, #0
	mov	r0, sp
	bl	z_impl_k_sem_take
.LVL352:
.L305:
	.loc 2 1103 9 discriminator 3 view .LVU1299
.LBE618:
.LBE617:
	.loc 1 1979 1 view .LVU1300
	add	sp, sp, #28
	.cfi_remember_state
	.cfi_def_cfa_offset 12
	@ sp needed
	pop	{r4, r5, pc}
.LVL353:
.L317:
	.cfi_restore_state
	.loc 1 1976 22 is_stmt 1 discriminator 1 view .LVU1301
	ldr	r2, .L318+8
	ldr	r1, .L318+12
	ldr	r0, .L318+16
.LVL354:
	.loc 1 1976 22 is_stmt 0 discriminator 1 view .LVU1302
	mov	r3, #1976
	bl	assert_print
.LVL355:
	.loc 1 1976 145 is_stmt 1 discriminator 1 view .LVU1303
	.loc 1 1976 150 discriminator 1 view .LVU1304
	.syntax unified
@ 1976 "/home/g/mise-work/zmk-firmware/zmk/zephyr/subsys/bluetooth/controller/ll_sw/ull.c" 1
	eors.n r0, r0
	msr BASEPRI, r0
	mov r0, #3
	svc #2
	
@ 0 "" 2
	.thumb
	.syntax unified
	b	.L309
.LVL356:
.L308:
	.loc 1 1952 10 is_stmt 0 view .LVU1305
	mvn	r0, #119
	b	.L305
.L319:
	.align	2
.L318:
	.word	disabled_cb
	.word	mfy.5
	.word	.LC0
	.word	.LC17
	.word	.LC2
	.cfi_endproc
.LFE545:
	.size	ull_disable, .-ull_disable
	.section	.text.ull_ticker_stop_with_mark,"ax",%progbits
	.align	1
	.p2align 2,,3
	.global	ull_ticker_stop_with_mark
	.syntax unified
	.thumb
	.thumb_func
	.type	ull_ticker_stop_with_mark, %function
ull_ticker_stop_with_mark:
.LVL357:
.LFB541:
	.loc 1 1886 1 is_stmt 1 view -0
	.cfi_startproc
	@ args = 0, pretend = 0, frame = 8
	@ frame_needed = 0, uses_anonymous_args = 0
	.loc 1 1887 2 view .LVU1307
	.loc 1 1888 2 view .LVU1308
	.loc 1 1889 2 view .LVU1309
	.loc 1 1890 2 view .LVU1310
	.loc 1 1892 2 view .LVU1311
	.loc 1 1886 1 is_stmt 0 view .LVU1312
	push	{r4, r5, r6, r7, lr}
	.cfi_def_cfa_offset 20
	.cfi_offset 4, -20
	.cfi_offset 5, -16
	.cfi_offset 6, -12
	.cfi_offset 7, -8
	.cfi_offset 14, -4
.LBB635:
.LBB636:
.LBB637:
	.loc 1 2317 7 view .LVU1313
	ldr	r6, .L354
	ldr	r3, [r6]
.LBE637:
.LBE636:
.LBE635:
	.loc 1 1886 1 view .LVU1314
	sub	sp, sp, #20
	.cfi_def_cfa_offset 40
	.loc 1 1886 1 view .LVU1315
	mov	r4, r1
.LVL358:
.LBB644:
.LBI635:
	.loc 1 1860 7 is_stmt 1 view .LVU1316
	.loc 1 1862 2 view .LVU1317
.LBB641:
.LBI636:
	.loc 1 2315 21 view .LVU1318
.LBB638:
	.loc 1 2317 2 view .LVU1319
.LBE638:
.LBE641:
.LBE644:
	.loc 1 1886 1 is_stmt 0 view .LVU1320
	mov	r7, r2
.LBB645:
.LBB642:
.LBB639:
	.loc 1 2317 5 view .LVU1321
	cmp	r3, #0
	beq	.L349
	.loc 1 2321 2 is_stmt 1 view .LVU1322
.LVL359:
	.loc 1 2321 2 is_stmt 0 view .LVU1323
.LBE639:
.LBE642:
.LBE645:
	.loc 1 1893 2 is_stmt 1 view .LVU1324
	.loc 1 1893 5 is_stmt 0 view .LVU1325
	cmp	r1, r3
	bne	.L328
.LVL360:
.L322:
	.loc 1 1897 2 is_stmt 1 view .LVU1326
	.loc 1 1897 9 is_stmt 0 view .LVU1327
	movs	r3, #2
	str	r3, [sp, #12]
	.loc 1 1898 2 is_stmt 1 view .LVU1328
	.loc 1 1898 8 is_stmt 0 view .LVU1329
	add	r3, sp, #12
	mov	r2, r0
.LVL361:
	.loc 1 1898 8 view .LVU1330
	str	r3, [sp]
	movs	r1, #3
.LVL362:
	.loc 1 1898 8 view .LVU1331
	ldr	r3, .L354+4
	movs	r0, #0
.LVL363:
	.loc 1 1898 8 view .LVU1332
	bl	ticker_stop
.LVL364:
.LBB646:
.LBB647:
	.loc 1 1848 5 view .LVU1333
	cmp	r0, #2
.LBE647:
.LBE646:
	.loc 1 1898 8 view .LVU1334
	mov	r5, r0
.LVL365:
	.loc 1 1901 2 is_stmt 1 view .LVU1335
.LBB654:
.LBI646:
	.loc 1 1846 10 view .LVU1336
.LBB652:
	.loc 1 1848 2 view .LVU1337
	.loc 1 1848 5 is_stmt 0 view .LVU1338
	beq	.L324
	.loc 1 1848 21 view .LVU1339
	ldr	r3, [sp, #12]
	.loc 1 1848 17 view .LVU1340
	cmp	r3, #2
	bne	.L324
.LVL366:
	.loc 1 1848 17 view .LVU1341
.LBE652:
.LBE654:
	.loc 1 1902 2 is_stmt 1 view .LVU1342
	.loc 1 1902 5 is_stmt 0 view .LVU1343
	cbz	r5, .L326
.LVL367:
.L351:
	.loc 1 1903 3 is_stmt 1 view .LVU1344
.LBB655:
.LBI655:
	.loc 1 1865 7 view .LVU1345
	.loc 1 1867 2 view .LVU1346
.LBB656:
.LBI656:
	.loc 1 2324 21 view .LVU1347
.LBB657:
	.loc 1 2326 2 view .LVU1348
	.loc 1 2326 6 is_stmt 0 view .LVU1349
	ldr	r3, [r6]
	.loc 1 2326 5 view .LVU1350
	cbz	r3, .L327
	.loc 1 2326 9 view .LVU1351
	cmp	r4, r3
	beq	.L350
.L327:
.LVL368:
	.loc 1 2326 9 view .LVU1352
.LBE657:
.LBE656:
.LBE655:
	.loc 1 1904 3 is_stmt 1 view .LVU1353
	.loc 1 1904 6 is_stmt 0 view .LVU1354
	cbz	r4, .L329
.LVL369:
.L328:
	.loc 1 1894 10 view .LVU1355
	mvn	r0, #45
.L320:
	.loc 1 1923 1 view .LVU1356
	add	sp, sp, #20
	.cfi_remember_state
	.cfi_def_cfa_offset 20
	@ sp needed
	pop	{r4, r5, r6, r7, pc}
.LVL370:
.L324:
	.cfi_restore_state
.LBB660:
.LBB653:
.LBB648:
.LBI648:
	.loc 1 1846 10 is_stmt 1 view .LVU1357
.LBB649:
	.loc 1 1853 3 view .LVU1358
.LBB650:
.LBI650:
	.loc 2 1093 19 view .LVU1359
.LBB651:
	.loc 2 1102 2 view .LVU1360
	.loc 2 1102 7 view .LVU1361
	.loc 2 1102 5 view .LVU1362
	.loc 2 1103 2 view .LVU1363
	.loc 2 1103 9 is_stmt 0 view .LVU1364
	ldr	r0, .L354+8
.LVL371:
	.loc 2 1103 9 view .LVU1365
	mov	r2, #-1
	mov	r3, #-1
	bl	z_impl_k_sem_take
.LVL372:
	.loc 2 1103 9 view .LVU1366
.LBE651:
.LBE650:
	.loc 1 1854 3 is_stmt 1 view .LVU1367
	.loc 1 1854 10 is_stmt 0 view .LVU1368
	ldr	r5, [sp, #12]
.LVL373:
	.loc 1 1854 10 view .LVU1369
.LBE649:
.LBE648:
.LBE653:
.LBE660:
	.loc 1 1902 2 is_stmt 1 view .LVU1370
	.loc 1 1902 5 is_stmt 0 view .LVU1371
	cmp	r5, #0
	bne	.L351
.L326:
	.loc 1 1911 2 is_stmt 1 view .LVU1372
	.loc 1 1911 8 is_stmt 0 view .LVU1373
	mov	r0, r7
	bl	ull_disable
.LVL374:
.LBB661:
.LBB662:
.LBB663:
	.loc 1 2326 6 view .LVU1374
	ldr	r3, [r6]
.LVL375:
	.loc 1 2326 6 view .LVU1375
.LBE663:
.LBE662:
.LBE661:
	.loc 1 1913 2 is_stmt 1 view .LVU1376
.LBB668:
.LBI661:
	.loc 1 1865 7 view .LVU1377
	.loc 1 1867 2 view .LVU1378
.LBB666:
.LBI662:
	.loc 1 2324 21 view .LVU1379
.LBB664:
	.loc 1 2326 2 view .LVU1380
	.loc 1 2326 5 is_stmt 0 view .LVU1381
	cbz	r3, .L330
	.loc 1 2326 9 view .LVU1382
	cmp	r4, r3
	beq	.L352
.L330:
.LVL376:
	.loc 1 2326 9 view .LVU1383
.LBE664:
.LBE666:
.LBE668:
	.loc 1 1914 2 is_stmt 1 view .LVU1384
	.loc 1 1914 5 is_stmt 0 view .LVU1385
	cmp	r4, #0
	bne	.L328
	.loc 1 1918 2 is_stmt 1 view .LVU1386
	.loc 1 1918 5 is_stmt 0 view .LVU1387
	cmp	r0, #0
	beq	.L320
.LVL377:
.L353:
	.loc 1 1922 9 discriminator 1 view .LVU1388
	cmn	r0, #120
	it	eq
	moveq	r0, #0
.LVL378:
	.loc 1 1923 1 discriminator 1 view .LVU1389
	add	sp, sp, #20
	.cfi_remember_state
	.cfi_def_cfa_offset 20
	@ sp needed
	pop	{r4, r5, r6, r7, pc}
.LVL379:
.L349:
	.cfi_restore_state
.LBB669:
.LBB643:
.LBB640:
	.loc 1 2318 3 is_stmt 1 view .LVU1390
	.loc 1 2318 6 is_stmt 0 view .LVU1391
	str	r1, [r6]
	.loc 1 2321 2 is_stmt 1 view .LVU1392
.LVL380:
	.loc 1 2321 2 is_stmt 0 view .LVU1393
.LBE640:
.LBE643:
.LBE669:
	.loc 1 1893 2 is_stmt 1 view .LVU1394
	b	.L322
.LVL381:
.L350:
.LBB670:
.LBB659:
.LBB658:
	.loc 1 2327 3 view .LVU1395
	.loc 1 2327 6 is_stmt 0 view .LVU1396
	movs	r3, #0
	str	r3, [r6]
	.loc 1 2329 3 is_stmt 1 view .LVU1397
.LVL382:
	.loc 1 2329 3 is_stmt 0 view .LVU1398
.LBE658:
.LBE659:
.LBE670:
	.loc 1 1904 3 is_stmt 1 view .LVU1399
.L329:
	.loc 1 1908 10 is_stmt 0 view .LVU1400
	mvn	r0, #119
	.loc 1 1923 1 view .LVU1401
	add	sp, sp, #20
	.cfi_remember_state
	.cfi_def_cfa_offset 20
	@ sp needed
	pop	{r4, r5, r6, r7, pc}
.LVL383:
.L352:
	.cfi_restore_state
.LBB671:
.LBB667:
.LBB665:
	.loc 1 2327 3 is_stmt 1 view .LVU1402
	.loc 1 2327 6 is_stmt 0 view .LVU1403
	str	r5, [r6]
	.loc 1 2329 3 is_stmt 1 view .LVU1404
.LVL384:
	.loc 1 2329 3 is_stmt 0 view .LVU1405
.LBE665:
.LBE667:
.LBE671:
	.loc 1 1914 2 is_stmt 1 view .LVU1406
	.loc 1 1918 2 view .LVU1407
	.loc 1 1918 5 is_stmt 0 view .LVU1408
	cmp	r0, #0
	beq	.L320
	b	.L353
.L355:
	.align	2
.L354:
	.word	mark_disable
	.word	ull_ticker_status_give
	.word	sem_ticker_api_cb
	.cfi_endproc
.LFE541:
	.size	ull_ticker_stop_with_mark, .-ull_ticker_stop_with_mark
	.section	.text.ull_pdu_rx_alloc_peek,"ax",%progbits
	.align	1
	.p2align 2,,3
	.global	ull_pdu_rx_alloc_peek
	.syntax unified
	.thumb
	.thumb_func
	.type	ull_pdu_rx_alloc_peek, %function
ull_pdu_rx_alloc_peek:
.LVL385:
.LFB546:
	.loc 1 1982 1 is_stmt 1 view -0
	.cfi_startproc
	@ args = 0, pretend = 0, frame = 0
	@ frame_needed = 0, uses_anonymous_args = 0
	@ link register save eliminated.
	.loc 1 1983 2 view .LVU1410
	.loc 1 1983 14 is_stmt 0 view .LVU1411
	ldr	r1, .L366
	ldrb	r3, [r1, #4]	@ zero_extendqisi2
	ldrb	r2, [r1, #5]	@ zero_extendqisi2
.LVL386:
.LBB672:
.LBI672:
	.loc 3 211 23 is_stmt 1 view .LVU1412
.LBB673:
	.loc 3 213 2 view .LVU1413
	.loc 3 213 5 is_stmt 0 view .LVU1414
	cmp	r3, r2
	bhi	.L357
	.loc 3 214 3 is_stmt 1 view .LVU1415
.LVL387:
	.loc 3 214 15 is_stmt 0 view .LVU1416
	sub	ip, r2, r3
.LBE673:
.LBE672:
	.loc 1 1983 5 view .LVU1417
	uxtb	ip, ip
	cmp	r0, ip
	bhi	.L363
	.loc 1 1987 2 is_stmt 1 view .LVU1418
.LVL388:
.LBB676:
.LBI676:
	.loc 3 254 21 view .LVU1419
.LBB677:
	.loc 3 257 2 view .LVU1420
	.loc 3 257 5 is_stmt 0 view .LVU1421
	cmp	r3, r2
	beq	.L363
.LVL389:
.L365:
	.loc 3 257 5 view .LVU1422
.LBE677:
.LBE676:
	.loc 1 1987 9 view .LVU1423
	ldrb	r1, [r1]	@ zero_extendqisi2
.LBB679:
.LBB678:
	.loc 3 262 2 is_stmt 1 view .LVU1424
	.loc 3 262 9 is_stmt 0 view .LVU1425
	ldr	r2, .L366+4
	.loc 3 262 34 view .LVU1426
	smulbb	r3, r3, r1
	.loc 3 262 9 view .LVU1427
	ldr	r0, [r2, r3]
.LVL390:
	.loc 3 262 9 view .LVU1428
	bx	lr
.LVL391:
.L357:
	.loc 3 262 9 view .LVU1429
.LBE678:
.LBE679:
.LBB680:
.LBB674:
	.loc 3 216 3 is_stmt 1 view .LVU1430
	.loc 3 216 3 is_stmt 0 view .LVU1431
.LBE674:
.LBE680:
	.loc 1 1983 14 view .LVU1432
	ldrh	ip, [r1, #2]
.LBB681:
.LBB675:
	.loc 3 216 16 view .LVU1433
	sub	ip, ip, r3
	.loc 3 216 24 view .LVU1434
	add	r2, r2, ip
.LBE675:
.LBE681:
	.loc 1 1983 5 view .LVU1435
	uxtb	r2, r2
	cmp	r0, r2
	bls	.L365
.L363:
	.loc 1 1984 9 view .LVU1436
	movs	r0, #0
.LVL392:
	.loc 1 1988 1 view .LVU1437
	bx	lr
.L367:
	.align	2
.L366:
	.word	mfifo_pdu_rx_free
	.word	mfifo_pdu_rx_free+8
	.cfi_endproc
.LFE546:
	.size	ull_pdu_rx_alloc_peek, .-ull_pdu_rx_alloc_peek
	.section	.text.ull_pdu_rx_alloc_peek_iter,"ax",%progbits
	.align	1
	.p2align 2,,3
	.global	ull_pdu_rx_alloc_peek_iter
	.syntax unified
	.thumb
	.thumb_func
	.type	ull_pdu_rx_alloc_peek_iter, %function
ull_pdu_rx_alloc_peek_iter:
.LVL393:
.LFB547:
	.loc 1 1991 1 is_stmt 1 view -0
	.cfi_startproc
	@ args = 0, pretend = 0, frame = 0
	@ frame_needed = 0, uses_anonymous_args = 0
	.loc 1 1992 2 view .LVU1439
	.loc 1 1991 1 is_stmt 0 view .LVU1440
	push	{lr}
	.cfi_def_cfa_offset 4
	.cfi_offset 14, -4
	.loc 1 1992 80 view .LVU1441
	ldr	r2, .L376
.LBB682:
.LBB683:
	.loc 3 279 6 view .LVU1442
	ldrb	r3, [r0]	@ zero_extendqisi2
.LBE683:
.LBE682:
	.loc 1 1992 19 view .LVU1443
	ldrb	r1, [r2, #2]	@ zero_extendqisi2
	ldrb	ip, [r2, #5]	@ zero_extendqisi2
.LVL394:
	.loc 1 1992 19 view .LVU1444
	ldrb	lr, [r2]	@ zero_extendqisi2
.LVL395:
.LBB687:
.LBI682:
	.loc 3 273 21 is_stmt 1 view .LVU1445
.LBB684:
	.loc 3 276 2 view .LVU1446
	.loc 3 277 2 view .LVU1447
	.loc 3 279 2 view .LVU1448
	.loc 3 279 5 is_stmt 0 view .LVU1449
	cmp	r1, r3
.LBE684:
.LBE687:
	.loc 1 1992 19 view .LVU1450
	itt	ls
	ldrbls	r3, [r2, #4]	@ zero_extendqisi2
.LBB688:
.LBB685:
	.loc 3 280 3 is_stmt 1 view .LVU1451
	.loc 3 280 8 is_stmt 0 view .LVU1452
	strbls	r3, [r0]
.LVL396:
	.loc 3 283 2 is_stmt 1 view .LVU1453
	.loc 3 283 5 is_stmt 0 view .LVU1454
	cmp	ip, r3
	beq	.L375
	.loc 3 287 2 is_stmt 1 view .LVU1455
	.loc 3 287 4 is_stmt 0 view .LVU1456
	adds	r2, r3, #1
	uxtb	r2, r2
.LVL397:
	.loc 3 288 2 is_stmt 1 view .LVU1457
	.loc 3 289 5 is_stmt 0 view .LVU1458
	cmp	r1, r2
	it	eq
	moveq	r2, #0
.LVL398:
	.loc 3 292 2 is_stmt 1 view .LVU1459
	.loc 3 294 2 view .LVU1460
	.loc 3 292 29 is_stmt 0 view .LVU1461
	smulbb	r3, r3, lr
.LVL399:
	.loc 3 292 29 view .LVU1462
.LBE685:
.LBE688:
	.loc 1 1992 9 view .LVU1463
	ldr	r1, .L376+4
.LVL400:
.LBB689:
.LBB686:
	.loc 3 294 7 view .LVU1464
	strb	r2, [r0]
	.loc 3 296 2 is_stmt 1 view .LVU1465
.LVL401:
	.loc 3 296 2 is_stmt 0 view .LVU1466
.LBE686:
.LBE689:
	.loc 1 1992 9 view .LVU1467
	ldr	r0, [r1, r3]
.LVL402:
	.loc 1 1993 1 view .LVU1468
	ldr	pc, [sp], #4
.LVL403:
.L375:
	.loc 1 1992 9 view .LVU1469
	movs	r3, #0
	ldr	r3, [r3]
	.inst	0xdeff
.L377:
	.align	2
.L376:
	.word	mfifo_pdu_rx_free
	.word	mfifo_pdu_rx_free+8
	.cfi_endproc
.LFE547:
	.size	ull_pdu_rx_alloc_peek_iter, .-ull_pdu_rx_alloc_peek_iter
	.section	.text.ull_pdu_rx_alloc,"ax",%progbits
	.align	1
	.p2align 2,,3
	.global	ull_pdu_rx_alloc
	.syntax unified
	.thumb
	.thumb_func
	.type	ull_pdu_rx_alloc, %function
ull_pdu_rx_alloc:
.LFB548:
	.loc 1 1996 1 is_stmt 1 view -0
	.cfi_startproc
	@ args = 0, pretend = 0, frame = 0
	@ frame_needed = 0, uses_anonymous_args = 0
	@ link register save eliminated.
	.loc 1 1997 2 view .LVU1471
	.loc 1 1997 61 is_stmt 0 view .LVU1472
	ldr	r3, .L382
.LBB690:
.LBB691:
	.loc 3 317 10 view .LVU1473
	ldrb	r1, [r3, #4]	@ zero_extendqisi2
	.loc 3 321 5 view .LVU1474
	ldrb	r2, [r3, #5]	@ zero_extendqisi2
.LBE691:
.LBE690:
	.loc 1 1997 9 view .LVU1475
	ldrb	r0, [r3]	@ zero_extendqisi2
	ldrb	ip, [r3, #2]	@ zero_extendqisi2
.LVL404:
.LBB693:
.LBI690:
	.loc 3 314 21 is_stmt 1 view .LVU1476
.LBB692:
	.loc 3 317 2 view .LVU1477
	.loc 3 318 2 view .LVU1478
	.loc 3 321 2 view .LVU1479
	.loc 3 321 5 is_stmt 0 view .LVU1480
	cmp	r2, r1
	beq	.L381
	.loc 3 328 2 is_stmt 1 view .LVU1481
	.loc 3 331 9 is_stmt 0 view .LVU1482
	adds	r2, r1, #1
	.loc 3 328 6 view .LVU1483
	mla	r0, r1, r0, r3
.LVL405:
	.loc 3 331 9 view .LVU1484
	uxtb	r2, r2
	.loc 3 333 10 view .LVU1485
	cmp	ip, r2
	it	eq
	moveq	r2, #0
	.loc 3 328 6 view .LVU1486
	ldr	r0, [r0, #8]
.LVL406:
	.loc 3 331 2 is_stmt 1 view .LVU1487
	.loc 3 332 2 view .LVU1488
	.loc 3 336 2 view .LVU1489
	.loc 3 336 9 is_stmt 0 view .LVU1490
	strb	r2, [r3, #4]
	.loc 3 338 2 is_stmt 1 view .LVU1491
	.loc 3 338 9 is_stmt 0 view .LVU1492
	bx	lr
.LVL407:
.L381:
	.loc 3 322 9 view .LVU1493
	movs	r0, #0
.LVL408:
	.loc 3 322 9 view .LVU1494
.LBE692:
.LBE693:
	.loc 1 1998 1 view .LVU1495
	bx	lr
.L383:
	.align	2
.L382:
	.word	mfifo_pdu_rx_free
	.cfi_endproc
.LFE548:
	.size	ull_pdu_rx_alloc, .-ull_pdu_rx_alloc
	.section	.text.ull_rx_put,"ax",%progbits
	.align	1
	.p2align 2,,3
	.global	ull_rx_put
	.syntax unified
	.thumb
	.thumb_func
	.type	ull_rx_put, %function
ull_rx_put:
.LVL409:
.LFB549:
	.loc 1 2001 1 is_stmt 1 view -0
	.cfi_startproc
	@ args = 0, pretend = 0, frame = 0
	@ frame_needed = 0, uses_anonymous_args = 0
	.loc 1 2003 2 view .LVU1497
	.loc 1 2001 1 is_stmt 0 view .LVU1498
	push	{r3, r4, r5, lr}
	.cfi_def_cfa_offset 16
	.cfi_offset 3, -16
	.cfi_offset 4, -12
	.cfi_offset 5, -8
	.cfi_offset 14, -4
	.loc 1 2001 1 view .LVU1499
	mov	r4, r1
.LVL410:
	.loc 1 2008 2 is_stmt 1 view .LVU1500
	.loc 1 2001 1 is_stmt 0 view .LVU1501
	mov	r5, r0
	.loc 1 2008 21 view .LVU1502
	bl	ull_conn_ack_last_idx_get
.LVL411:
	.loc 1 2008 19 view .LVU1503
	strb	r0, [r4]
	.loc 1 2012 2 is_stmt 1 view .LVU1504
	mov	r1, r4
	mov	r0, r5
	ldr	r2, .L386
	.loc 1 2013 1 is_stmt 0 view .LVU1505
	pop	{r3, r4, r5, lr}
	.cfi_restore 14
	.cfi_restore 5
	.cfi_restore 4
	.cfi_restore 3
	.cfi_def_cfa_offset 0
.LVL412:
	.loc 1 2012 2 view .LVU1506
	b	memq_enqueue
.LVL413:
.L387:
	.loc 1 2012 2 view .LVU1507
	.align	2
.L386:
	.word	memq_ull_rx+4
	.cfi_endproc
.LFE549:
	.size	ull_rx_put, .-ull_rx_put
	.section	.text.ull_rx_sched,"ax",%progbits
	.align	1
	.p2align 2,,3
	.global	ull_rx_sched
	.syntax unified
	.thumb
	.thumb_func
	.type	ull_rx_sched, %function
ull_rx_sched:
.LFB550:
	.loc 1 2016 1 is_stmt 1 view -0
	.cfi_startproc
	@ args = 0, pretend = 0, frame = 0
	@ frame_needed = 0, uses_anonymous_args = 0
	@ link register save eliminated.
	.loc 1 2017 2 view .LVU1509
	.loc 1 2018 2 view .LVU1510
	.loc 1 2021 2 view .LVU1511
	movs	r2, #1
	ldr	r3, .L389
	mov	r1, r2
	movs	r0, #0
	b	mayfly_enqueue
.LVL414:
.L390:
	.align	2
.L389:
	.word	mfy.3
	.cfi_endproc
.LFE550:
	.size	ull_rx_sched, .-ull_rx_sched
	.section	.text.ull_rx_put_sched,"ax",%progbits
	.align	1
	.p2align 2,,3
	.global	ull_rx_put_sched
	.syntax unified
	.thumb
	.thumb_func
	.type	ull_rx_put_sched, %function
ull_rx_put_sched:
.LVL415:
.LFB551:
	.loc 1 2025 1 view -0
	.cfi_startproc
	@ args = 0, pretend = 0, frame = 0
	@ frame_needed = 0, uses_anonymous_args = 0
	.loc 1 2026 2 view .LVU1513
	.loc 1 2025 1 is_stmt 0 view .LVU1514
	push	{r4, r5, r6, lr}
	.cfi_def_cfa_offset 16
	.cfi_offset 4, -16
	.cfi_offset 5, -12
	.cfi_offset 6, -8
	.cfi_offset 14, -4
	.loc 1 2025 1 view .LVU1515
	mov	r4, r1
	mov	r5, r0
.LVL416:
.LBB698:
.LBI698:
	.loc 1 2000 6 is_stmt 1 view .LVU1516
.LBB699:
	.loc 1 2003 2 view .LVU1517
	.loc 1 2008 2 view .LVU1518
	.loc 1 2008 21 is_stmt 0 view .LVU1519
	bl	ull_conn_ack_last_idx_get
.LVL417:
	.loc 1 2012 2 view .LVU1520
	mov	r1, r4
	.loc 1 2008 19 view .LVU1521
	strb	r0, [r4]
	.loc 1 2012 2 is_stmt 1 view .LVU1522
	ldr	r2, .L393
	mov	r0, r5
	bl	memq_enqueue
.LVL418:
	.loc 1 2012 2 is_stmt 0 view .LVU1523
.LBE699:
.LBE698:
	.loc 1 2027 2 is_stmt 1 view .LVU1524
.LBB700:
.LBI700:
	.loc 1 2015 6 view .LVU1525
.LBB701:
	.loc 1 2017 2 view .LVU1526
	.loc 1 2018 2 view .LVU1527
	.loc 1 2021 2 view .LVU1528
	movs	r2, #1
.LBE701:
.LBE700:
	.loc 1 2028 1 is_stmt 0 view .LVU1529
	pop	{r4, r5, r6, lr}
	.cfi_restore 14
	.cfi_restore 6
	.cfi_restore 5
	.cfi_restore 4
	.cfi_def_cfa_offset 0
.LVL419:
.LBB703:
.LBB702:
	.loc 1 2021 2 view .LVU1530
	ldr	r3, .L393+4
	mov	r1, r2
	movs	r0, #0
	b	mayfly_enqueue
.LVL420:
.L394:
	.align	2
.L393:
	.word	memq_ull_rx+4
	.word	mfy.3
.LBE702:
.LBE703:
	.cfi_endproc
.LFE551:
	.size	ull_rx_put_sched, .-ull_rx_put_sched
	.section	.text.ull_prepare_enqueue,"ax",%progbits
	.align	1
	.p2align 2,,3
	.global	ull_prepare_enqueue
	.syntax unified
	.thumb
	.thumb_func
	.type	ull_prepare_enqueue, %function
ull_prepare_enqueue:
.LVL421:
.LFB552:
	.loc 1 2035 1 is_stmt 1 view -0
	.cfi_startproc
	@ args = 4, pretend = 0, frame = 0
	@ frame_needed = 0, uses_anonymous_args = 0
	.loc 1 2036 2 view .LVU1532
	.loc 1 2037 2 view .LVU1533
	.loc 1 2039 2 view .LVU1534
	.loc 1 2035 1 is_stmt 0 view .LVU1535
	push	{r4, r5, r6, r7, r8, r9, lr}
	.cfi_def_cfa_offset 28
	.cfi_offset 4, -28
	.cfi_offset 5, -24
	.cfi_offset 6, -20
	.cfi_offset 7, -16
	.cfi_offset 8, -12
	.cfi_offset 9, -8
	.cfi_offset 14, -4
	.loc 1 2039 50 view .LVU1536
	ldr	r4, .L400
	.loc 1 2035 1 view .LVU1537
	ldrb	r6, [sp, #28]	@ zero_extendqisi2
	.loc 1 2039 8 view .LVU1538
	ldrb	ip, [r4, #5]	@ zero_extendqisi2
.LVL422:
	.loc 1 2039 8 view .LVU1539
	ldrb	r7, [r4]	@ zero_extendqisi2
.LVL423:
	.loc 1 2035 1 view .LVU1540
	mov	r5, r0
.LBB704:
.LBB705:
.LBB706:
.LBB707:
	.loc 3 86 7 view .LVU1541
	add	lr, ip, #1
	.loc 3 87 5 view .LVU1542
	ldrb	r0, [r4, #2]	@ zero_extendqisi2
.LVL424:
	.loc 3 86 7 view .LVU1543
	uxtb	lr, lr
	.loc 3 88 8 view .LVU1544
	cmp	r0, lr
	it	eq
	moveq	lr, #0
.LBE707:
.LBE706:
.LBE705:
.LBE704:
	.loc 1 2039 8 view .LVU1545
	ldrb	r0, [r4, #4]	@ zero_extendqisi2
.LVL425:
.LBB712:
.LBI704:
	.loc 3 145 23 is_stmt 1 view .LVU1546
.LBB710:
	.loc 3 148 2 view .LVU1547
	.loc 3 151 2 view .LVU1548
.LBB709:
.LBI706:
	.loc 3 82 19 view .LVU1549
.LBB708:
	.loc 3 86 2 view .LVU1550
	.loc 3 87 2 view .LVU1551
	.loc 3 97 2 view .LVU1552
	.loc 3 97 5 is_stmt 0 view .LVU1553
	cmp	r0, lr
	beq	.L398
	.loc 3 101 2 is_stmt 1 view .LVU1554
.LVL426:
	.loc 3 102 2 view .LVU1555
	.loc 3 102 2 is_stmt 0 view .LVU1556
.LBE708:
.LBE709:
	.loc 3 161 2 is_stmt 1 view .LVU1557
	.loc 3 161 30 is_stmt 0 view .LVU1558
	smulbb	ip, ip, r7
.LVL427:
	.loc 3 161 23 view .LVU1559
	add	r0, r4, #8
.LVL428:
	.loc 3 161 23 view .LVU1560
.LBE710:
.LBE712:
.LBB713:
.LBB714:
	.file 6 "/home/g/zephyr-sdk-0.16.3/arm-zephyr-eabi/picolibc/include/ssp/string.h"
	.loc 6 83 299 view .LVU1561
	ldr	r9, [r2]	@ unaligned
	ldr	r8, [r2, #4]	@ unaligned
	ldr	r7, [r2, #8]	@ unaligned
.LVL429:
	.loc 6 83 299 view .LVU1562
	ldr	r2, [r2, #12]	@ unaligned
.LVL430:
	.loc 6 83 299 view .LVU1563
	str	r9, [r0, ip]	@ unaligned
.LVL431:
	.loc 6 83 299 view .LVU1564
.LBE714:
.LBE713:
.LBB718:
.LBB711:
	.loc 3 161 23 view .LVU1565
	add	r0, r0, ip
.LVL432:
	.loc 3 163 2 is_stmt 1 view .LVU1566
	.loc 3 163 2 is_stmt 0 view .LVU1567
.LBE711:
.LBE718:
	.loc 1 2040 2 is_stmt 1 view .LVU1568
	.loc 1 2044 1 view .LVU1569
.LBB719:
.LBI713:
	.loc 6 83 216 view .LVU1570
.LBB715:
	.loc 6 83 292 view .LVU1571
.LBE715:
.LBE719:
	.loc 1 2046 17 is_stmt 0 view .LVU1572
	strd	r3, r5, [r0, #16]
	.loc 1 2048 15 view .LVU1573
	ldrb	r3, [r0, #28]	@ zero_extendqisi2
.LVL433:
.LBB720:
.LBB716:
	.loc 6 83 299 view .LVU1574
	str	r8, [r0, #4]	@ unaligned
.LBE716:
.LBE720:
	.loc 1 2048 15 view .LVU1575
	and	r6, r6, #1
	bic	r3, r3, #3
	orrs	r3, r3, r6
.LBB721:
.LBB717:
	.loc 6 83 299 view .LVU1576
	str	r7, [r0, #8]	@ unaligned
	str	r2, [r0, #12]	@ unaligned
.LVL434:
	.loc 6 83 299 view .LVU1577
.LBE717:
.LBE721:
	.loc 1 2045 2 is_stmt 1 view .LVU1578
	.loc 1 2047 2 view .LVU1579
	.loc 1 2047 14 is_stmt 0 view .LVU1580
	str	r1, [r0, #24]
	.loc 1 2048 2 is_stmt 1 view .LVU1581
	.loc 1 2049 2 view .LVU1582
	.loc 1 2048 15 is_stmt 0 view .LVU1583
	strb	r3, [r0, #28]
	.loc 1 2051 2 is_stmt 1 view .LVU1584
.LVL435:
.LBB722:
.LBI722:
	.loc 3 191 20 view .LVU1585
.LBB723:
	.loc 3 193 2 view .LVU1586
.LBB724:
.LBI724:
	.loc 4 15 20 view .LVU1587
.LBB725:
	.loc 4 27 2 view .LVU1588
.LBE725:
.LBE724:
	.loc 3 194 2 view .LVU1589
	.loc 3 194 8 is_stmt 0 view .LVU1590
	strb	lr, [r4, #5]
.LVL436:
	.loc 3 194 8 view .LVU1591
.LBE723:
.LBE722:
	.loc 1 2053 2 is_stmt 1 view .LVU1592
	.loc 1 2054 1 is_stmt 0 view .LVU1593
	pop	{r4, r5, r6, r7, r8, r9, pc}
.LVL437:
.L398:
	.loc 1 2041 9 view .LVU1594
	movs	r0, #0
.LVL438:
	.loc 1 2054 1 view .LVU1595
	pop	{r4, r5, r6, r7, r8, r9, pc}
.LVL439:
.L401:
	.loc 1 2054 1 view .LVU1596
	.align	2
.L400:
	.word	mfifo_prep
	.cfi_endproc
.LFE552:
	.size	ull_prepare_enqueue, .-ull_prepare_enqueue
	.section	.text.ull_prepare_dequeue_get,"ax",%progbits
	.align	1
	.p2align 2,,3
	.global	ull_prepare_dequeue_get
	.syntax unified
	.thumb
	.thumb_func
	.type	ull_prepare_dequeue_get, %function
ull_prepare_dequeue_get:
.LFB553:
	.loc 1 2057 1 is_stmt 1 view -0
	.cfi_startproc
	@ args = 0, pretend = 0, frame = 0
	@ frame_needed = 0, uses_anonymous_args = 0
	@ link register save eliminated.
	.loc 1 2058 2 view .LVU1598
	.loc 1 2058 51 is_stmt 0 view .LVU1599
	ldr	r0, .L405
	.loc 1 2058 9 view .LVU1600
	ldrb	r2, [r0, #4]	@ zero_extendqisi2
.LVL440:
.LBB726:
.LBB727:
	.loc 3 235 5 view .LVU1601
	ldrb	r1, [r0, #5]	@ zero_extendqisi2
.LBE727:
.LBE726:
	.loc 1 2058 9 view .LVU1602
	ldrb	ip, [r0]	@ zero_extendqisi2
.LVL441:
.LBB729:
.LBI726:
	.loc 3 232 21 is_stmt 1 view .LVU1603
.LBB728:
	.loc 3 235 2 view .LVU1604
	.loc 3 240 2 view .LVU1605
	.loc 3 235 5 is_stmt 0 view .LVU1606
	cmp	r1, r2
	.loc 3 240 9 view .LVU1607
	itte	ne
	addne	r0, r0, #8
	mlane	r0, r2, ip, r0
	.loc 3 236 9 view .LVU1608
	moveq	r0, #0
.LVL442:
	.loc 3 236 9 view .LVU1609
.LBE728:
.LBE729:
	.loc 1 2059 1 view .LVU1610
	bx	lr
.L406:
	.align	2
.L405:
	.word	mfifo_prep
	.cfi_endproc
.LFE553:
	.size	ull_prepare_dequeue_get, .-ull_prepare_dequeue_get
	.section	.text.ull_prepare_dequeue_iter,"ax",%progbits
	.align	1
	.p2align 2,,3
	.global	ull_prepare_dequeue_iter
	.syntax unified
	.thumb
	.thumb_func
	.type	ull_prepare_dequeue_iter, %function
ull_prepare_dequeue_iter:
.LVL443:
.LFB554:
	.loc 1 2062 1 is_stmt 1 view -0
	.cfi_startproc
	@ args = 0, pretend = 0, frame = 0
	@ frame_needed = 0, uses_anonymous_args = 0
	.loc 1 2063 2 view .LVU1612
	.loc 1 2062 1 is_stmt 0 view .LVU1613
	push	{lr}
	.cfi_def_cfa_offset 4
	.cfi_offset 14, -4
	.loc 1 2063 56 view .LVU1614
	ldr	r3, .L413
.LBB730:
.LBB731:
	.loc 3 279 6 view .LVU1615
	ldrb	r2, [r0]	@ zero_extendqisi2
.LBE731:
.LBE730:
	.loc 1 2063 9 view .LVU1616
	ldrb	r1, [r3, #2]	@ zero_extendqisi2
	ldrb	ip, [r3, #5]	@ zero_extendqisi2
.LVL444:
	.loc 1 2063 9 view .LVU1617
	ldrb	lr, [r3]	@ zero_extendqisi2
.LVL445:
.LBB735:
.LBI730:
	.loc 3 273 21 is_stmt 1 view .LVU1618
.LBB732:
	.loc 3 276 2 view .LVU1619
	.loc 3 277 2 view .LVU1620
	.loc 3 279 2 view .LVU1621
	.loc 3 279 5 is_stmt 0 view .LVU1622
	cmp	r1, r2
.LBE732:
.LBE735:
	.loc 1 2063 9 view .LVU1623
	itt	ls
	ldrbls	r2, [r3, #4]	@ zero_extendqisi2
.LBB736:
.LBB733:
	.loc 3 280 3 is_stmt 1 view .LVU1624
	.loc 3 280 8 is_stmt 0 view .LVU1625
	strbls	r2, [r0]
.LVL446:
	.loc 3 283 2 is_stmt 1 view .LVU1626
	.loc 3 283 5 is_stmt 0 view .LVU1627
	cmp	ip, r2
	beq	.L411
	.loc 3 287 2 is_stmt 1 view .LVU1628
	.loc 3 287 4 is_stmt 0 view .LVU1629
	adds	r3, r2, #1
	uxtb	r3, r3
.LVL447:
	.loc 3 288 2 is_stmt 1 view .LVU1630
	.loc 3 289 5 is_stmt 0 view .LVU1631
	cmp	r1, r3
	it	eq
	moveq	r3, #0
.LVL448:
	.loc 3 292 2 is_stmt 1 view .LVU1632
	.loc 3 292 4 is_stmt 0 view .LVU1633
	ldr	r1, .L413+4
.LVL449:
	.loc 3 294 7 view .LVU1634
	strb	r3, [r0]
	.loc 3 292 4 view .LVU1635
	mla	r0, r2, lr, r1
.LVL450:
	.loc 3 294 2 is_stmt 1 view .LVU1636
	.loc 3 296 2 view .LVU1637
.L407:
	.loc 3 296 2 is_stmt 0 view .LVU1638
.LBE733:
.LBE736:
	.loc 1 2064 1 view .LVU1639
	ldr	pc, [sp], #4
.LVL451:
.L411:
.LBB737:
.LBB734:
	.loc 3 284 9 view .LVU1640
	movs	r0, #0
.LVL452:
	.loc 3 284 9 view .LVU1641
.LBE734:
.LBE737:
	.loc 1 2063 9 view .LVU1642
	b	.L407
.L414:
	.align	2
.L413:
	.word	mfifo_prep
	.word	mfifo_prep+8
	.cfi_endproc
.LFE554:
	.size	ull_prepare_dequeue_iter, .-ull_prepare_dequeue_iter
	.section	.text.ull_prepare_dequeue,"ax",%progbits
	.align	1
	.p2align 2,,3
	.global	ull_prepare_dequeue
	.syntax unified
	.thumb
	.thumb_func
	.type	ull_prepare_dequeue, %function
ull_prepare_dequeue:
.LVL453:
.LFB555:
	.loc 1 2067 1 is_stmt 1 view -0
	.cfi_startproc
	@ args = 0, pretend = 0, frame = 8
	@ frame_needed = 0, uses_anonymous_args = 0
	.loc 1 2068 2 view .LVU1644
	.loc 1 2069 2 view .LVU1645
	.loc 1 2070 2 view .LVU1646
	.loc 1 2072 2 view .LVU1647
.LBB738:
.LBI738:
	.loc 1 2056 7 view .LVU1648
.LBB739:
	.loc 1 2058 2 view .LVU1649
.LBE739:
.LBE738:
	.loc 1 2067 1 is_stmt 0 view .LVU1650
	push	{r4, r5, r6, r7, r8, r9, r10, fp, lr}
	.cfi_def_cfa_offset 36
	.cfi_offset 4, -36
	.cfi_offset 5, -32
	.cfi_offset 6, -28
	.cfi_offset 7, -24
	.cfi_offset 8, -20
	.cfi_offset 9, -16
	.cfi_offset 10, -12
	.cfi_offset 11, -8
	.cfi_offset 14, -4
.LBB757:
.LBB752:
	.loc 1 2058 51 view .LVU1651
	ldr	r4, .L436
	.loc 1 2058 9 view .LVU1652
	ldrb	r2, [r4, #4]	@ zero_extendqisi2
.LVL454:
.LBB740:
.LBB741:
	.loc 3 235 5 view .LVU1653
	ldrb	r1, [r4, #5]	@ zero_extendqisi2
.LBE741:
.LBE740:
	.loc 1 2058 9 view .LVU1654
	ldrb	r3, [r4]	@ zero_extendqisi2
.LVL455:
.LBB747:
.LBI740:
	.loc 3 232 21 is_stmt 1 view .LVU1655
.LBB742:
	.loc 3 235 2 view .LVU1656
.LBE742:
.LBE747:
.LBE752:
.LBE757:
	.loc 1 2067 1 is_stmt 0 view .LVU1657
	sub	sp, sp, #12
	.cfi_def_cfa_offset 48
.LBB758:
.LBB753:
.LBB748:
.LBB743:
	.loc 3 235 5 view .LVU1658
	cmp	r1, r2
.LBE743:
.LBE748:
.LBE753:
.LBE758:
	.loc 1 2067 1 view .LVU1659
	str	r0, [sp, #4]
.LBB759:
.LBB754:
.LBB749:
.LBB744:
	.loc 3 235 5 view .LVU1660
	beq	.L415
	.loc 3 240 2 is_stmt 1 view .LVU1661
	.loc 3 240 9 is_stmt 0 view .LVU1662
	add	r9, r4, #8
	mov	r8, #0
.LBE744:
.LBE749:
.LBE754:
.LBE759:
.LBB760:
.LBB761:
	.loc 1 2087 14 view .LVU1663
	ldr	fp, .L436+4
.LBE761:
.LBE760:
.LBB778:
.LBB755:
.LBB750:
.LBB745:
	.loc 3 240 9 view .LVU1664
	mla	r3, r2, r3, r9
.LVL456:
	.loc 3 240 9 view .LVU1665
.LBE745:
.LBE750:
.LBE755:
.LBE778:
	.loc 1 2073 9 is_stmt 1 view .LVU1666
.LBB779:
.LBB756:
.LBB751:
.LBB746:
	.loc 3 240 9 is_stmt 0 view .LVU1667
	mov	r10, r8
.LVL457:
.L423:
	.loc 3 240 9 view .LVU1668
.LBE746:
.LBE751:
.LBE756:
.LBE779:
.LBB780:
	.loc 1 2074 3 is_stmt 1 view .LVU1669
	.loc 1 2075 28 is_stmt 0 view .LVU1670
	ldrb	r2, [r3, #28]	@ zero_extendqisi2
	.loc 1 2074 9 view .LVU1671
	ldr	r7, [r3, #12]
.LVL458:
	.loc 1 2075 3 is_stmt 1 view .LVU1672
	.loc 1 2081 6 is_stmt 0 view .LVU1673
	lsls	r1, r2, #30
	.loc 1 2075 11 view .LVU1674
	ubfx	r5, r2, #1, #1
.LVL459:
	.loc 1 2076 3 is_stmt 1 view .LVU1675
	.loc 1 2076 27 is_stmt 0 view .LVU1676
	and	r6, r2, #1
.LVL460:
	.loc 1 2081 3 is_stmt 1 view .LVU1677
	.loc 1 2081 6 is_stmt 0 view .LVU1678
	bpl	.L435
.LVL461:
.L418:
.LBB762:
	.loc 1 2090 150 is_stmt 1 discriminator 3 view .LVU1679
	.loc 1 2090 7 discriminator 3 view .LVU1680
.LBE762:
	.loc 1 2093 3 discriminator 3 view .LVU1681
	ldrb	r1, [r4, #5]	@ zero_extendqisi2
.LVL462:
.LBB763:
.LBB764:
	.loc 3 317 10 is_stmt 0 discriminator 3 view .LVU1682
	ldrb	r3, [r4, #4]	@ zero_extendqisi2
.LBE764:
.LBE763:
	.loc 1 2093 3 discriminator 3 view .LVU1683
	ldrb	r2, [r4]	@ zero_extendqisi2
.LVL463:
	.loc 1 2093 3 discriminator 3 view .LVU1684
	ldrb	r0, [r4, #2]	@ zero_extendqisi2
.LVL464:
.LBB767:
.LBI763:
	.loc 3 314 21 is_stmt 1 discriminator 3 view .LVU1685
.LBB765:
	.loc 3 317 2 discriminator 3 view .LVU1686
	.loc 3 318 2 discriminator 3 view .LVU1687
	.loc 3 321 2 discriminator 3 view .LVU1688
	.loc 3 321 5 is_stmt 0 discriminator 3 view .LVU1689
	cmp	r1, r3
	beq	.L415
	.loc 3 328 2 is_stmt 1 view .LVU1690
.LVL465:
	.loc 3 331 2 view .LVU1691
	.loc 3 331 9 is_stmt 0 view .LVU1692
	adds	r3, r3, #1
.LVL466:
	.loc 3 331 9 view .LVU1693
	uxtb	r3, r3
.LVL467:
	.loc 3 332 2 is_stmt 1 view .LVU1694
	.loc 3 333 10 is_stmt 0 view .LVU1695
	cmp	r0, r3
	it	eq
	moveq	r3, #0
.LVL468:
	.loc 3 336 2 is_stmt 1 view .LVU1696
.LBE765:
.LBE767:
.LBB768:
.LBB769:
.LBB770:
.LBB771:
	.loc 3 235 5 is_stmt 0 view .LVU1697
	cmp	r1, r3
.LBE771:
.LBE770:
.LBE769:
.LBE768:
.LBB775:
.LBB766:
	.loc 3 336 9 view .LVU1698
	strb	r3, [r4, #4]
.LVL469:
	.loc 3 338 2 is_stmt 1 view .LVU1699
	.loc 3 338 2 is_stmt 0 view .LVU1700
.LBE766:
.LBE775:
	.loc 1 2096 3 is_stmt 1 view .LVU1701
.LBB776:
.LBI768:
	.loc 1 2056 7 view .LVU1702
.LBB774:
	.loc 1 2058 2 view .LVU1703
.LBB773:
.LBI770:
	.loc 3 232 21 view .LVU1704
.LBB772:
	.loc 3 235 2 view .LVU1705
	.loc 3 235 5 is_stmt 0 view .LVU1706
	beq	.L415
	.loc 3 240 2 is_stmt 1 view .LVU1707
	.loc 3 240 9 is_stmt 0 view .LVU1708
	mla	r3, r3, r2, r9
.LVL470:
	.loc 3 240 9 view .LVU1709
.LBE772:
.LBE773:
.LBE774:
.LBE776:
	.loc 1 2097 3 is_stmt 1 view .LVU1710
	.loc 1 2104 3 view .LVU1711
	.loc 1 2104 6 is_stmt 0 view .LVU1712
	cmp	r5, #0
	bne	.L423
	.loc 1 2109 4 is_stmt 1 view .LVU1713
	.loc 1 2109 7 is_stmt 0 view .LVU1714
	cbz	r6, .L415
	.loc 1 2118 4 is_stmt 1 view .LVU1715
	.loc 1 2118 7 is_stmt 0 view .LVU1716
	cmp	r10, #0
	beq	.L424
	.loc 1 2120 11 is_stmt 1 view .LVU1717
	.loc 1 2121 23 is_stmt 0 view .LVU1718
	cmp	r8, #0
	it	eq
	moveq	r8, r7
.LVL471:
.L422:
	.loc 1 2128 4 is_stmt 1 view .LVU1719
	.loc 1 2128 8 is_stmt 0 view .LVU1720
	ldrb	r2, [r3, #28]	@ zero_extendqisi2
	.loc 1 2128 7 view .LVU1721
	lsls	r2, r2, #31
	bpl	.L423
	.loc 1 2129 29 discriminator 1 view .LVU1722
	ldr	r2, [r3, #12]
	.loc 1 2128 24 discriminator 1 view .LVU1723
	cmp	r10, r2
	beq	.L415
	.loc 1 2130 29 view .LVU1724
	cmp	r8, r2
	bne	.L423
.LVL472:
.L415:
	.loc 1 2130 29 view .LVU1725
.LBE780:
	.loc 1 2137 1 view .LVU1726
	add	sp, sp, #12
	.cfi_remember_state
	.cfi_def_cfa_offset 36
	@ sp needed
	pop	{r4, r5, r6, r7, r8, r9, r10, fp, pc}
.LVL473:
.L435:
	.cfi_restore_state
.LBB781:
.LBB777:
	.loc 1 2082 4 is_stmt 1 view .LVU1727
	.loc 1 2083 4 view .LVU1728
	.loc 1 2085 4 view .LVU1729
	.loc 1 2087 4 view .LVU1730
	.loc 1 2087 14 is_stmt 0 view .LVU1731
	str	r3, [fp, #8]
	.loc 1 2088 4 is_stmt 1 view .LVU1732
	.loc 1 2088 10 is_stmt 0 view .LVU1733
	ldr	r0, [sp, #4]
	ldr	r3, .L436+4
.LVL474:
	.loc 1 2088 10 view .LVU1734
	mov	r2, r5
.LVL475:
	.loc 1 2088 10 view .LVU1735
	mov	r1, r5
	bl	mayfly_enqueue
.LVL476:
	.loc 1 2090 4 is_stmt 1 view .LVU1736
	.loc 1 2090 9 view .LVU1737
	.loc 1 2090 12 is_stmt 0 view .LVU1738
	cmp	r0, #0
	beq	.L418
	.loc 1 2090 24 is_stmt 1 discriminator 1 view .LVU1739
	ldr	r2, .L436+8
	ldr	r1, .L436+12
	ldr	r0, .L436+16
.LVL477:
	.loc 1 2090 24 is_stmt 0 discriminator 1 view .LVU1740
	movw	r3, #2090
	bl	assert_print
.LVL478:
	.loc 1 2090 147 is_stmt 1 discriminator 1 view .LVU1741
	.loc 1 2090 152 discriminator 1 view .LVU1742
	.syntax unified
@ 2090 "/home/g/mise-work/zmk-firmware/zmk/zephyr/subsys/bluetooth/controller/ll_sw/ull.c" 1
	eors.n r0, r0
	msr BASEPRI, r0
	mov r0, #3
	svc #2
	
@ 0 "" 2
	.thumb
	.syntax unified
	b	.L418
.LVL479:
.L424:
	.loc 1 2090 152 is_stmt 0 discriminator 1 view .LVU1743
.LBE777:
	.loc 1 2119 23 view .LVU1744
	mov	r10, r7
.LVL480:
	.loc 1 2119 23 view .LVU1745
	b	.L422
.L437:
	.align	2
.L436:
	.word	mfifo_prep
	.word	mfy.1
	.word	.LC0
	.word	.LC17
	.word	.LC2
.LBE781:
	.cfi_endproc
.LFE555:
	.size	ull_prepare_dequeue, .-ull_prepare_dequeue
	.section	.text.ull_event_done_extra_get,"ax",%progbits
	.align	1
	.p2align 2,,3
	.global	ull_event_done_extra_get
	.syntax unified
	.thumb
	.thumb_func
	.type	ull_event_done_extra_get, %function
ull_event_done_extra_get:
.LFB556:
	.loc 1 2140 1 is_stmt 1 view -0
	.cfi_startproc
	@ args = 0, pretend = 0, frame = 0
	@ frame_needed = 0, uses_anonymous_args = 0
	@ link register save eliminated.
	.loc 1 2141 2 view .LVU1747
	.loc 1 2143 2 view .LVU1748
	.loc 1 2143 54 is_stmt 0 view .LVU1749
	ldr	r3, .L444
	.loc 1 2143 11 view .LVU1750
	ldrb	r2, [r3, #4]	@ zero_extendqisi2
.LVL481:
.LBB784:
.LBB785:
	.loc 3 257 5 view .LVU1751
	ldrb	r1, [r3, #5]	@ zero_extendqisi2
.LBE785:
.LBE784:
	.loc 1 2143 11 view .LVU1752
	ldrb	r0, [r3]	@ zero_extendqisi2
.LVL482:
.LBB787:
.LBI784:
	.loc 3 254 21 is_stmt 1 view .LVU1753
.LBB786:
	.loc 3 257 2 view .LVU1754
	.loc 3 257 5 is_stmt 0 view .LVU1755
	cmp	r1, r2
	beq	.L440
	.loc 3 262 2 is_stmt 1 view .LVU1756
	.loc 3 262 9 is_stmt 0 view .LVU1757
	mla	r3, r2, r0, r3
	ldr	r0, [r3, #8]
.LVL483:
	.loc 3 262 9 view .LVU1758
.LBE786:
.LBE787:
	.loc 1 2144 2 is_stmt 1 view .LVU1759
	.loc 1 2144 5 is_stmt 0 view .LVU1760
	cbz	r0, .L438
	.loc 1 2148 2 is_stmt 1 view .LVU1761
	.loc 1 2148 9 is_stmt 0 view .LVU1762
	adds	r0, r0, #32
.LVL484:
	.loc 1 2148 9 view .LVU1763
	bx	lr
.LVL485:
.L440:
	.loc 1 2145 9 view .LVU1764
	movs	r0, #0
.LVL486:
.L438:
	.loc 1 2149 1 view .LVU1765
	bx	lr
.L445:
	.align	2
.L444:
	.word	mfifo_done
	.cfi_endproc
.LFE556:
	.size	ull_event_done_extra_get, .-ull_event_done_extra_get
	.section	.text.ull_done_extra_type_set,"ax",%progbits
	.align	1
	.p2align 2,,3
	.global	ull_done_extra_type_set
	.syntax unified
	.thumb
	.thumb_func
	.type	ull_done_extra_type_set, %function
ull_done_extra_type_set:
.LVL487:
.LFB557:
	.loc 1 2152 1 is_stmt 1 view -0
	.cfi_startproc
	@ args = 0, pretend = 0, frame = 0
	@ frame_needed = 0, uses_anonymous_args = 0
	.loc 1 2153 2 view .LVU1767
	.loc 1 2155 2 view .LVU1768
.LBB792:
.LBI792:
	.loc 1 2139 26 view .LVU1769
.LBB793:
	.loc 1 2141 2 view .LVU1770
	.loc 1 2143 2 view .LVU1771
.LBE793:
.LBE792:
	.loc 1 2152 1 is_stmt 0 view .LVU1772
	push	{lr}
	.cfi_def_cfa_offset 4
	.cfi_offset 14, -4
.LBB800:
.LBB798:
	.loc 1 2143 54 view .LVU1773
	ldr	r3, .L451
	.loc 1 2143 11 view .LVU1774
	ldrb	r1, [r3, #4]	@ zero_extendqisi2
.LVL488:
.LBB794:
.LBB795:
	.loc 3 257 5 view .LVU1775
	ldrb	ip, [r3, #5]	@ zero_extendqisi2
.LBE795:
.LBE794:
	.loc 1 2143 11 view .LVU1776
	ldrb	lr, [r3]	@ zero_extendqisi2
.LVL489:
.LBB797:
.LBI794:
	.loc 3 254 21 is_stmt 1 view .LVU1777
.LBB796:
	.loc 3 257 2 view .LVU1778
	.loc 3 257 5 is_stmt 0 view .LVU1779
	cmp	ip, r1
	beq	.L448
	.loc 3 262 2 is_stmt 1 view .LVU1780
	.loc 3 262 9 is_stmt 0 view .LVU1781
	mla	r3, r1, lr, r3
	ldr	r3, [r3, #8]
.LVL490:
	.loc 3 262 9 view .LVU1782
.LBE796:
.LBE797:
	.loc 1 2144 2 is_stmt 1 view .LVU1783
	.loc 1 2144 5 is_stmt 0 view .LVU1784
	cbz	r3, .L449
	mov	r2, r0
	.loc 1 2148 2 is_stmt 1 view .LVU1785
.LBE798:
.LBE800:
	.loc 1 2160 14 is_stmt 0 view .LVU1786
	strb	r2, [r3, #32]
.LBB801:
.LBB799:
	.loc 1 2148 9 view .LVU1787
	add	r0, r3, #32
.LVL491:
	.loc 1 2148 9 view .LVU1788
.LBE799:
.LBE801:
	.loc 1 2156 2 is_stmt 1 view .LVU1789
	.loc 1 2160 2 view .LVU1790
	.loc 1 2162 2 view .LVU1791
.L446:
	.loc 1 2163 1 is_stmt 0 view .LVU1792
	ldr	pc, [sp], #4
.LVL492:
.L448:
	.loc 1 2157 9 view .LVU1793
	movs	r0, #0
.LVL493:
	.loc 1 2157 9 view .LVU1794
	b	.L446
.LVL494:
.L449:
	.loc 1 2157 9 view .LVU1795
	mov	r0, r3
.LVL495:
	.loc 1 2157 9 view .LVU1796
	b	.L446
.L452:
	.align	2
.L451:
	.word	mfifo_done
	.cfi_endproc
.LFE557:
	.size	ull_done_extra_type_set, .-ull_done_extra_type_set
	.section	.text.ull_event_done,"ax",%progbits
	.align	1
	.p2align 2,,3
	.global	ull_event_done
	.syntax unified
	.thumb
	.thumb_func
	.type	ull_event_done, %function
ull_event_done:
.LVL496:
.LFB558:
	.loc 1 2166 1 is_stmt 1 view -0
	.cfi_startproc
	@ args = 0, pretend = 0, frame = 0
	@ frame_needed = 0, uses_anonymous_args = 0
	.loc 1 2167 2 view .LVU1798
	.loc 1 2168 2 view .LVU1799
	.loc 1 2175 2 view .LVU1800
	.loc 1 2166 1 is_stmt 0 view .LVU1801
	push	{r4, r5, r6, lr}
	.cfi_def_cfa_offset 16
	.cfi_offset 4, -16
	.cfi_offset 5, -12
	.cfi_offset 6, -8
	.cfi_offset 14, -4
	.loc 1 2175 49 view .LVU1802
	ldr	r2, .L462
.LBB810:
.LBB811:
	.loc 3 317 10 view .LVU1803
	ldrb	r3, [r2, #4]	@ zero_extendqisi2
	.loc 3 321 5 view .LVU1804
	ldrb	r4, [r2, #5]	@ zero_extendqisi2
.LBE811:
.LBE810:
	.loc 1 2175 11 view .LVU1805
	ldrb	r1, [r2]	@ zero_extendqisi2
	ldrb	r5, [r2, #2]	@ zero_extendqisi2
.LVL497:
.LBB813:
.LBI810:
	.loc 3 314 21 is_stmt 1 view .LVU1806
.LBB812:
	.loc 3 317 2 view .LVU1807
	.loc 3 318 2 view .LVU1808
	.loc 3 321 2 view .LVU1809
	.loc 3 321 5 is_stmt 0 view .LVU1810
	cmp	r4, r3
	beq	.L457
	.loc 3 328 2 is_stmt 1 view .LVU1811
	.loc 3 328 6 is_stmt 0 view .LVU1812
	mla	r1, r3, r1, r2
.LVL498:
	.loc 3 331 9 view .LVU1813
	adds	r3, r3, #1
.LVL499:
	.loc 3 328 6 view .LVU1814
	ldr	r4, [r1, #8]
.LVL500:
	.loc 3 331 2 is_stmt 1 view .LVU1815
	.loc 3 331 9 is_stmt 0 view .LVU1816
	uxtb	r3, r3
.LVL501:
	.loc 3 332 2 is_stmt 1 view .LVU1817
	.loc 3 333 10 is_stmt 0 view .LVU1818
	cmp	r5, r3
	it	eq
	moveq	r3, #0
.LVL502:
	.loc 3 336 2 is_stmt 1 view .LVU1819
	.loc 3 336 9 is_stmt 0 view .LVU1820
	strb	r3, [r2, #4]
	.loc 3 338 2 is_stmt 1 view .LVU1821
.LVL503:
	.loc 3 338 2 is_stmt 0 view .LVU1822
.LBE812:
.LBE813:
	.loc 1 2176 2 is_stmt 1 view .LVU1823
	.loc 1 2176 5 is_stmt 0 view .LVU1824
	cbz	r4, .L457
	.loc 1 2184 2 is_stmt 1 view .LVU1825
	.loc 1 2187 19 is_stmt 0 view .LVU1826
	movs	r3, #2
	.loc 1 2185 19 view .LVU1827
	movs	r5, #0
	.loc 1 2184 7 view .LVU1828
	ldr	r6, [r4]
.LVL504:
	.loc 1 2185 2 is_stmt 1 view .LVU1829
	.loc 1 2187 19 is_stmt 0 view .LVU1830
	strb	r3, [r4, #4]
	.loc 1 2185 19 view .LVU1831
	str	r5, [r4]
	.loc 1 2187 2 is_stmt 1 view .LVU1832
	.loc 1 2188 2 view .LVU1833
	.loc 1 2188 16 is_stmt 0 view .LVU1834
	str	r0, [r4, #28]
	.loc 1 2190 2 is_stmt 1 view .LVU1835
.LVL505:
.LBB814:
.LBI814:
	.loc 1 2024 6 view .LVU1836
	.loc 1 2026 2 view .LVU1837
.LBB815:
.LBI815:
	.loc 1 2000 6 view .LVU1838
.LBB816:
	.loc 1 2003 2 view .LVU1839
	.loc 1 2008 2 view .LVU1840
	.loc 1 2008 21 is_stmt 0 view .LVU1841
	bl	ull_conn_ack_last_idx_get
.LVL506:
	.loc 1 2012 2 view .LVU1842
	ldr	r2, .L462+4
	.loc 1 2008 19 view .LVU1843
	strb	r0, [r4]
	.loc 1 2012 2 is_stmt 1 view .LVU1844
	mov	r1, r4
	mov	r0, r6
	bl	memq_enqueue
.LVL507:
	.loc 1 2012 2 is_stmt 0 view .LVU1845
.LBE816:
.LBE815:
	.loc 1 2027 2 is_stmt 1 view .LVU1846
.LBB817:
.LBI817:
	.loc 1 2015 6 view .LVU1847
.LBB818:
	.loc 1 2017 2 view .LVU1848
	.loc 1 2018 2 view .LVU1849
	.loc 1 2021 2 view .LVU1850
	movs	r2, #1
	ldr	r3, .L462+8
	mov	r1, r2
	mov	r0, r5
	bl	mayfly_enqueue
.LVL508:
.L453:
	.loc 1 2021 2 is_stmt 0 view .LVU1851
.LBE818:
.LBE817:
.LBE814:
	.loc 1 2193 1 view .LVU1852
	mov	r0, r4
	pop	{r4, r5, r6, pc}
.LVL509:
.L457:
	.loc 1 2181 9 view .LVU1853
	movs	r4, #0
	b	.L453
.L463:
	.align	2
.L462:
	.word	mfifo_done
	.word	memq_ull_rx+4
	.word	mfy.3
	.cfi_endproc
.LFE558:
	.size	ull_event_done, .-ull_event_done
	.global	__aeabi_uldivmod
	.global	__aeabi_ldivmod
	.section	.text.ull_drift_ticks_get,"ax",%progbits
	.align	1
	.p2align 2,,3
	.global	ull_drift_ticks_get
	.syntax unified
	.thumb
	.thumb_func
	.type	ull_drift_ticks_get, %function
ull_drift_ticks_get:
.LVL510:
.LFB559:
	.loc 1 2206 1 is_stmt 1 view -0
	.cfi_startproc
	@ args = 0, pretend = 0, frame = 0
	@ frame_needed = 0, uses_anonymous_args = 0
	.loc 1 2207 2 view .LVU1855
	.loc 1 2208 2 view .LVU1856
	.loc 1 2209 2 view .LVU1857
	.loc 1 2210 2 view .LVU1858
	.loc 1 2212 2 view .LVU1859
	.loc 1 2206 1 is_stmt 0 view .LVU1860
	push	{r3, r4, r5, r6, r7, r8, r9, lr}
	.cfi_def_cfa_offset 32
	.cfi_offset 3, -32
	.cfi_offset 4, -28
	.cfi_offset 5, -24
	.cfi_offset 6, -20
	.cfi_offset 7, -16
	.cfi_offset 8, -12
	.cfi_offset 9, -8
	.cfi_offset 14, -4
	.loc 1 2216 22 view .LVU1861
	ldrd	r3, r5, [r0, #48]
	.loc 1 2212 29 view .LVU1862
	ldr	r8, [r0, #44]
.LVL511:
	.loc 1 2214 2 is_stmt 1 view .LVU1863
	.loc 1 2216 2 view .LVU1864
	.loc 1 2219 2 view .LVU1865
	.loc 1 2221 37 is_stmt 0 view .LVU1866
	adds	r4, r3, r5
	.loc 1 2219 31 view .LVU1867
	adds	r4, r4, #48
.LVL512:
	.loc 1 2224 2 is_stmt 1 view .LVU1868
	.loc 1 2224 5 is_stmt 0 view .LVU1869
	cmp	r8, r4
	.loc 1 2206 1 view .LVU1870
	mov	r7, r1
	mov	r6, r2
	.loc 1 2224 5 view .LVU1871
	bhi	.L465
	.loc 1 2225 3 is_stmt 1 view .LVU1872
	.loc 1 2226 57 is_stmt 0 view .LVU1873
	ldr	r5, .L468+8
.LVL513:
	.loc 1 2226 73 view .LVU1874
	umull	r0, r1, r3, r5
.LVL514:
	.loc 1 2226 73 view .LVU1875
	adr	r3, .L468
	ldrd	r2, [r3]
.LVL515:
	.loc 1 2226 73 view .LVU1876
	bl	__aeabi_uldivmod
.LVL516:
	.loc 1 2226 73 view .LVU1877
	mov	r3, r0
	.loc 1 2228 61 view .LVU1878
	sub	r0, r4, r8
	.loc 1 2228 108 view .LVU1879
	umull	r0, r1, r0, r5
	.loc 1 2226 91 view .LVU1880
	bic	r4, r3, #-16777216
.LVL517:
	.loc 1 2227 3 is_stmt 1 view .LVU1881
	.loc 1 2228 108 is_stmt 0 view .LVU1882
	adr	r3, .L468
	ldrd	r2, [r3]
	bl	__aeabi_uldivmod
.LVL518:
	.loc 1 2228 126 view .LVU1883
	bic	r0, r0, #-16777216
	.loc 1 2225 21 view .LVU1884
	str	r4, [r7]
	.loc 1 2227 22 view .LVU1885
	str	r0, [r6]
	.loc 1 2238 1 view .LVU1886
	pop	{r3, r4, r5, r6, r7, r8, r9, pc}
.LVL519:
.L465:
	.loc 1 2231 3 is_stmt 1 view .LVU1887
	.loc 1 2232 59 is_stmt 0 view .LVU1888
	ldr	r9, .L468+8
	.loc 1 2232 75 view .LVU1889
	adr	r3, .L468
	ldrd	r2, [r3]
.LVL520:
	.loc 1 2232 75 view .LVU1890
	umull	r0, r1, r8, r9
.LVL521:
	.loc 1 2232 75 view .LVU1891
	bl	__aeabi_uldivmod
.LVL522:
	.loc 1 2232 75 view .LVU1892
	mov	r4, r0
.LVL523:
	.loc 1 2234 39 view .LVU1893
	add	r0, r5, #48
	.loc 1 2234 78 view .LVU1894
	adr	r3, .L468
	ldrd	r2, [r3]
	umull	r0, r1, r0, r9
	bl	__aeabi_uldivmod
.LVL524:
	.loc 1 2232 93 view .LVU1895
	bic	r4, r4, #-16777216
	.loc 1 2233 3 is_stmt 1 view .LVU1896
	.loc 1 2234 96 is_stmt 0 view .LVU1897
	bic	r0, r0, #-16777216
	.loc 1 2225 21 view .LVU1898
	str	r4, [r7]
	.loc 1 2227 22 view .LVU1899
	str	r0, [r6]
	.loc 1 2238 1 view .LVU1900
	pop	{r3, r4, r5, r6, r7, r8, r9, pc}
.LVL525:
.L469:
	.loc 1 2238 1 view .LVU1901
	.align	3
.L468:
	.word	452807053
	.word	7
	.word	1000000000
	.cfi_endproc
.LFE559:
	.size	ull_drift_ticks_get, .-ull_drift_ticks_get
	.section	.text.ull_rxfifo_alloc,"ax",%progbits
	.align	1
	.p2align 2,,3
	.global	ull_rxfifo_alloc
	.syntax unified
	.thumb
	.thumb_func
	.type	ull_rxfifo_alloc, %function
ull_rxfifo_alloc:
.LVL526:
.LFB576:
	.loc 1 3005 1 is_stmt 1 view -0
	.cfi_startproc
	@ args = 16, pretend = 0, frame = 8
	@ frame_needed = 0, uses_anonymous_args = 0
	.loc 1 3006 2 view .LVU1903
	.loc 1 3008 2 view .LVU1904
	.loc 1 3005 1 is_stmt 0 view .LVU1905
	push	{r4, r5, r6, r7, r8, r9, r10, fp, lr}
	.cfi_def_cfa_offset 36
	.cfi_offset 4, -36
	.cfi_offset 5, -32
	.cfi_offset 6, -28
	.cfi_offset 7, -24
	.cfi_offset 8, -20
	.cfi_offset 9, -16
	.cfi_offset 10, -12
	.cfi_offset 11, -8
	.cfi_offset 14, -4
	sub	sp, sp, #12
	.cfi_def_cfa_offset 48
	.loc 1 3005 1 view .LVU1906
	mov	r5, r3
	ldrb	r3, [sp, #60]	@ zero_extendqisi2
.LVL527:
	.loc 1 3008 17 is_stmt 1 view .LVU1907
	.loc 1 3005 1 is_stmt 0 view .LVU1908
	ldr	r4, [sp, #48]
	ldr	r9, [sp, #56]
	str	r4, [sp, #4]
	mov	r7, r2
	ldr	r2, [sp, #52]
.LVL528:
	.loc 1 3005 1 view .LVU1909
	str	r2, [sp]
.LVL529:
	.loc 1 3008 17 view .LVU1910
	cbz	r3, .L470
	subs	r4, r3, #1
	.loc 1 3008 20 view .LVU1911
	ldrb	r10, [r5]	@ zero_extendqisi2
	mov	r8, r0
	mov	r6, r1
	uxtb	r4, r4
.LVL530:
.L473:
.LBB819:
.LBI819:
	.loc 3 82 19 is_stmt 1 discriminator 1 view .LVU1912
.LBB820:
	.loc 3 86 2 discriminator 1 view .LVU1913
	.loc 3 101 2 discriminator 1 view .LVU1914
	.loc 3 86 7 is_stmt 0 discriminator 1 view .LVU1915
	add	r3, r10, #1
	uxtb	r10, r3
.LVL531:
	.loc 3 87 2 is_stmt 1 discriminator 1 view .LVU1916
	.loc 3 88 8 is_stmt 0 discriminator 1 view .LVU1917
	cmp	r6, r10
	it	eq
	moveq	r10, #0
.LVL532:
	.loc 3 97 2 is_stmt 1 discriminator 1 view .LVU1918
	.loc 3 102 2 discriminator 1 view .LVU1919
	.loc 3 102 2 is_stmt 0 discriminator 1 view .LVU1920
.LBE820:
.LBE819:
.LBB823:
	.loc 1 3009 3 is_stmt 1 discriminator 1 view .LVU1921
	.loc 1 3010 3 discriminator 1 view .LVU1922
	.loc 1 3012 3 discriminator 1 view .LVU1923
.LBE823:
.LBB830:
.LBB821:
	.loc 3 97 5 is_stmt 0 discriminator 1 view .LVU1924
	cmp	r7, r10
.LBE821:
.LBE830:
.LBB831:
	.loc 1 3012 10 discriminator 1 view .LVU1925
	mov	r0, r9
.LBE831:
.LBB832:
.LBB822:
	.loc 3 97 5 discriminator 1 view .LVU1926
	beq	.L470
.LBE822:
.LBE832:
.LBB833:
	.loc 1 3012 10 view .LVU1927
	bl	mem_acquire
.LVL533:
	.loc 1 3017 3 is_stmt 1 view .LVU1928
	.loc 1 3012 10 is_stmt 0 view .LVU1929
	mov	fp, r0
.LVL534:
	.loc 1 3013 3 is_stmt 1 view .LVU1930
	.loc 1 3017 8 is_stmt 0 view .LVU1931
	ldr	r0, [sp]
.LVL535:
	.loc 1 3013 6 view .LVU1932
	cmp	fp, #0
	beq	.L470
	.loc 1 3017 8 view .LVU1933
	bl	mem_acquire
.LVL536:
	.loc 1 3023 3 is_stmt 1 view .LVU1934
	.loc 1 3018 3 view .LVU1935
	.loc 1 3018 6 is_stmt 0 view .LVU1936
	cbz	r0, .L486
	.loc 1 3023 13 view .LVU1937
	movs	r3, #0
	str	r3, [fp, #4]
	.loc 1 3024 3 is_stmt 1 view .LVU1938
	.loc 1 3024 12 is_stmt 0 view .LVU1939
	str	fp, [r0]
	.loc 1 3026 3 is_stmt 1 view .LVU1940
.LVL537:
.LBB824:
.LBI824:
	.loc 3 119 20 view .LVU1941
.LBB825:
	.loc 3 123 2 view .LVU1942
	.loc 3 124 2 view .LVU1943
	.loc 3 123 38 is_stmt 0 view .LVU1944
	ldrb	r2, [r5]	@ zero_extendqisi2
	.loc 3 124 5 view .LVU1945
	ldr	r3, [sp, #4]
	.loc 3 123 38 view .LVU1946
	smulbb	r2, r2, r8
	.loc 3 124 5 view .LVU1947
	str	r0, [r3, r2]
.LVL538:
	.loc 3 126 2 is_stmt 1 view .LVU1948
.LBB826:
.LBI826:
	.loc 4 15 20 view .LVU1949
.LBB827:
	.loc 4 27 2 view .LVU1950
.LBE827:
.LBE826:
	.loc 3 127 2 view .LVU1951
.LBE825:
.LBE824:
.LBE833:
	.loc 1 3008 13 is_stmt 0 view .LVU1952
	subs	r4, r4, #1
.LVL539:
	.loc 1 3008 13 view .LVU1953
	uxtb	r4, r4
	.loc 1 3008 17 view .LVU1954
	cmp	r4, #255
.LBB834:
.LBB829:
.LBB828:
	.loc 3 127 8 view .LVU1955
	strb	r10, [r5]
.LVL540:
	.loc 3 127 8 view .LVU1956
.LBE828:
.LBE829:
.LBE834:
	.loc 1 3008 17 is_stmt 1 view .LVU1957
	.loc 1 3008 17 is_stmt 0 view .LVU1958
	bne	.L473
.LVL541:
.L470:
	.loc 1 3028 1 view .LVU1959
	add	sp, sp, #12
	.cfi_remember_state
	.cfi_def_cfa_offset 36
	@ sp needed
	pop	{r4, r5, r6, r7, r8, r9, r10, fp, pc}
.LVL542:
.L486:
	.cfi_restore_state
.LBB835:
	.loc 1 3019 4 is_stmt 1 view .LVU1960
	mov	r1, r9
	mov	r0, fp
.LVL543:
	.loc 1 3019 4 is_stmt 0 view .LVU1961
.LBE835:
	.loc 1 3028 1 view .LVU1962
	add	sp, sp, #12
	.cfi_def_cfa_offset 36
	@ sp needed
	pop	{r4, r5, r6, r7, r8, r9, r10, fp, lr}
	.cfi_restore 14
	.cfi_restore 11
	.cfi_restore 10
	.cfi_restore 9
	.cfi_restore 8
	.cfi_restore 7
	.cfi_restore 6
	.cfi_restore 5
	.cfi_restore 4
	.cfi_def_cfa_offset 0
.LVL544:
.LBB836:
	.loc 1 3019 4 view .LVU1963
	b	mem_release
.LVL545:
	.loc 1 3019 4 view .LVU1964
.LBE836:
	.cfi_endproc
.LFE576:
	.size	ull_rxfifo_alloc, .-ull_rxfifo_alloc
	.section	.text.init_reset,"ax",%progbits
	.align	1
	.p2align 2,,3
	.syntax unified
	.thumb
	.thumb_func
	.type	init_reset, %function
init_reset:
.LFB560:
	.loc 1 2242 1 is_stmt 1 view -0
	.cfi_startproc
	@ args = 0, pretend = 0, frame = 0
	@ frame_needed = 0, uses_anonymous_args = 0
	.loc 1 2243 2 view .LVU1966
	.loc 1 2246 2 view .LVU1967
	.loc 1 2242 1 is_stmt 0 view .LVU1968
	push	{r4, r5, r6, lr}
	.cfi_def_cfa_offset 16
	.cfi_offset 4, -16
	.cfi_offset 5, -12
	.cfi_offset 6, -8
	.cfi_offset 14, -4
	.loc 1 2246 35 view .LVU1969
	ldr	r4, .L493
	.loc 1 2246 15 view .LVU1970
	ldr	r5, .L493+4
	.loc 1 2246 35 view .LVU1971
	ldrb	r2, [r4, #6]	@ zero_extendqisi2
	ldrh	r1, [r4, #4]
	.loc 1 2246 107 view .LVU1972
	ldr	r6, .L493+8
	.loc 1 2246 15 view .LVU1973
	movs	r0, #0
	.loc 1 2242 1 view .LVU1974
	sub	sp, sp, #16
	.cfi_def_cfa_offset 32
	.loc 1 2246 35 view .LVU1975
	mov	r3, r4
	.loc 1 2246 15 view .LVU1976
	strh	r0, [r5, #4]	@ movhi
	.loc 1 2246 35 is_stmt 1 view .LVU1977
	add	r0, r4, #8
	bl	mem_init
.LVL546:
	.loc 1 2246 107 view .LVU1978
	.loc 1 2246 182 is_stmt 0 view .LVU1979
	ldrb	r3, [r4, #7]	@ zero_extendqisi2
	.loc 1 2246 165 view .LVU1980
	ldrb	r2, [r4, #6]	@ zero_extendqisi2
	.loc 1 2246 107 view .LVU1981
	adds	r0, r6, #4
	add	r2, r2, r3
	movs	r1, #8
	mov	r3, r6
	bl	mem_init
.LVL547:
	.loc 1 2246 218 is_stmt 1 view .LVU1982
	str	r6, [sp, #8]
	mov	r6, r5
	ldrb	r3, [r4, #6]	@ zero_extendqisi2
	ldrb	r0, [r6], #8	@ zero_extendqisi2
	str	r3, [sp, #12]
	ldrb	r2, [r5, #4]	@ zero_extendqisi2
	ldrb	r1, [r5, #2]	@ zero_extendqisi2
	adds	r3, r5, #5
	strd	r6, r4, [sp]
	bl	ull_rxfifo_alloc
.LVL548:
	.loc 1 2249 2 view .LVU1983
	ldr	r3, .L493+12
	movs	r2, #16
	adds	r0, r3, #4
	movs	r1, #100
	bl	mem_init
.LVL549:
	.loc 1 2254 2 view .LVU1984
	ldr	r3, .L493+16
	movs	r2, #22
	adds	r0, r3, #4
	movs	r1, #8
	bl	mem_init
.LVL550:
	.loc 1 2259 2 view .LVU1985
	.loc 1 2259 9 is_stmt 0 view .LVU1986
	ldr	r0, .L493+16
	bl	mem_acquire
.LVL551:
	.loc 1 2260 2 is_stmt 1 view .LVU1987
	.loc 1 2260 7 view .LVU1988
	.loc 1 2260 10 is_stmt 0 view .LVU1989
	mov	r4, r0
	cbz	r0, .L491
.LVL552:
.L488:
	.loc 1 2260 148 is_stmt 1 discriminator 3 view .LVU1990
	.loc 1 2260 5 discriminator 3 view .LVU1991
	.loc 1 2263 2 discriminator 3 view .LVU1992
	ldr	r2, .L493+20
	mov	r0, r4
	subs	r1, r2, #4
	bl	memq_init
.LVL553:
	.loc 1 2266 2 discriminator 3 view .LVU1993
	.loc 1 2266 9 is_stmt 0 discriminator 3 view .LVU1994
	ldr	r0, .L493+16
	bl	mem_acquire
.LVL554:
	.loc 1 2267 2 is_stmt 1 discriminator 3 view .LVU1995
	.loc 1 2267 7 discriminator 3 view .LVU1996
	.loc 1 2267 10 is_stmt 0 discriminator 3 view .LVU1997
	mov	r4, r0
	cbz	r0, .L492
.LVL555:
.L489:
	.loc 1 2267 148 is_stmt 1 discriminator 3 view .LVU1998
	.loc 1 2267 5 discriminator 3 view .LVU1999
	.loc 1 2270 2 discriminator 3 view .LVU2000
	ldr	r2, .L493+24
	mov	r0, r4
	subs	r1, r2, #4
	bl	memq_init
.LVL556:
	.loc 1 2273 2 discriminator 3 view .LVU2001
	.loc 1 2273 24 is_stmt 0 discriminator 3 view .LVU2002
	ldr	r3, .L493+28
	movs	r2, #14
.LBB837:
.LBB838:
	.loc 1 2408 2 discriminator 3 view .LVU2003
	movs	r0, #255
.LBE838:
.LBE837:
	.loc 1 2273 24 discriminator 3 view .LVU2004
	strh	r2, [r3]	@ movhi
	.loc 1 2274 2 is_stmt 1 discriminator 3 view .LVU2005
.LBB840:
.LBI837:
	.loc 1 2406 13 discriminator 3 view .LVU2006
.LBB839:
	.loc 1 2408 2 discriminator 3 view .LVU2007
	bl	rx_replenish
.LVL557:
.LBE839:
.LBE840:
	.loc 1 2276 2 discriminator 3 view .LVU2008
	.loc 1 2277 1 is_stmt 0 discriminator 3 view .LVU2009
	movs	r0, #0
	add	sp, sp, #16
	.cfi_remember_state
	.cfi_def_cfa_offset 16
	@ sp needed
	pop	{r4, r5, r6, pc}
.LVL558:
.L491:
	.cfi_restore_state
	.loc 1 2260 22 is_stmt 1 discriminator 1 view .LVU2010
	ldr	r2, .L493+32
	ldr	r1, .L493+36
	ldr	r0, .L493+40
.LVL559:
	.loc 1 2260 22 is_stmt 0 discriminator 1 view .LVU2011
	movw	r3, #2260
	bl	assert_print
.LVL560:
	.loc 1 2260 145 is_stmt 1 discriminator 1 view .LVU2012
	.loc 1 2260 150 discriminator 1 view .LVU2013
	.syntax unified
@ 2260 "/home/g/mise-work/zmk-firmware/zmk/zephyr/subsys/bluetooth/controller/ll_sw/ull.c" 1
	eors.n r0, r0
	msr BASEPRI, r0
	mov r0, #3
	svc #2
	
@ 0 "" 2
	.thumb
	.syntax unified
	b	.L488
.LVL561:
.L492:
	.loc 1 2267 22 discriminator 1 view .LVU2014
	ldr	r2, .L493+32
	ldr	r1, .L493+36
	ldr	r0, .L493+40
.LVL562:
	.loc 1 2267 22 is_stmt 0 discriminator 1 view .LVU2015
	movw	r3, #2267
	bl	assert_print
.LVL563:
	.loc 1 2267 145 is_stmt 1 discriminator 1 view .LVU2016
	.loc 1 2267 150 discriminator 1 view .LVU2017
	.syntax unified
@ 2267 "/home/g/mise-work/zmk-firmware/zmk/zephyr/subsys/bluetooth/controller/ll_sw/ull.c" 1
	eors.n r0, r0
	msr BASEPRI, r0
	mov r0, #3
	svc #2
	
@ 0 "" 2
	.thumb
	.syntax unified
	b	.L489
.L494:
	.align	2
.L493:
	.word	mem_done
	.word	mfifo_done
	.word	mem_link_done
	.word	mem_pdu_rx
	.word	mem_link_rx+4
	.word	memq_ull_rx+4
	.word	memq_ll_rx+4
	.word	mem_link_rx
	.word	.LC0
	.word	.LC8
	.word	.LC2
	.cfi_endproc
.LFE560:
	.size	init_reset, .-init_reset
	.section	.text.ll_init,"ax",%progbits
	.align	1
	.p2align 2,,3
	.global	ll_init
	.syntax unified
	.thumb
	.thumb_func
	.type	ll_init, %function
ll_init:
.LVL564:
.LFB513:
	.loc 1 559 1 view -0
	.cfi_startproc
	@ args = 0, pretend = 0, frame = 0
	@ frame_needed = 0, uses_anonymous_args = 0
	.loc 1 560 2 view .LVU2019
	.loc 1 561 2 view .LVU2020
	.loc 1 564 2 view .LVU2021
	.loc 1 559 1 is_stmt 0 view .LVU2022
	push	{r4, r5, lr}
	.cfi_def_cfa_offset 12
	.cfi_offset 4, -12
	.cfi_offset 5, -8
	.cfi_offset 14, -4
	.loc 1 564 11 view .LVU2023
	ldr	r3, .L506
	.loc 1 583 6 view .LVU2024
	ldr	r4, .L506+4
	.loc 1 564 11 view .LVU2025
	str	r0, [r3]
	.loc 1 568 2 is_stmt 1 view .LVU2026
	.loc 1 559 1 is_stmt 0 view .LVU2027
	sub	sp, sp, #28
	.cfi_def_cfa_offset 40
	.loc 1 568 2 view .LVU2028
	bl	cntr_init
.LVL565:
	.loc 1 583 2 is_stmt 1 view .LVU2029
	.loc 1 583 5 is_stmt 0 view .LVU2030
	ldrb	r3, [r4]	@ zero_extendqisi2
	cmp	r3, #0
	beq	.L503
.L496:
	.loc 1 590 2 is_stmt 1 view .LVU2031
	.loc 1 590 21 is_stmt 0 view .LVU2032
	ldr	r1, .L506+8
	.loc 1 595 8 view .LVU2033
	ldr	r2, .L506+12
	ldr	r5, .L506+16
	str	r5, [sp, #20]
	.loc 1 591 21 view .LVU2034
	mov	ip, #5
	strb	ip, [r1, #8]
	.loc 1 595 8 view .LVU2035
	ldr	r4, .L506+20
	str	r2, [sp, #16]
	ldr	r2, .L506+24
	.loc 1 592 21 view .LVU2036
	movs	r0, #2
	.loc 1 595 8 view .LVU2037
	strd	r2, r4, [sp, #8]
	.loc 1 590 21 view .LVU2038
	movs	r3, #4
	.loc 1 595 8 view .LVU2039
	movs	r4, #13
	strd	r1, r4, [sp]
	ldr	r2, .L506+28
	.loc 1 592 21 view .LVU2040
	strb	r0, [r1, #16]
	.loc 1 593 21 view .LVU2041
	strb	r0, [r1, #24]
	.loc 1 590 21 view .LVU2042
	strb	r3, [r1]
	.loc 1 591 2 is_stmt 1 view .LVU2043
	.loc 1 592 2 view .LVU2044
	.loc 1 593 2 view .LVU2045
	.loc 1 595 2 view .LVU2046
	.loc 1 595 8 is_stmt 0 view .LVU2047
	movs	r0, #0
	movs	r1, #10
	bl	ticker_init
.LVL566:
	.loc 1 602 2 is_stmt 1 view .LVU2048
	.loc 1 602 7 view .LVU2049
	.loc 1 602 10 is_stmt 0 view .LVU2050
	cbnz	r0, .L504
.LVL567:
.L497:
	.loc 1 602 147 is_stmt 1 discriminator 3 view .LVU2051
	.loc 1 602 5 discriminator 3 view .LVU2052
	.loc 1 605 2 discriminator 3 view .LVU2053
.LBB841:
.LBI841:
	.loc 2 1075 19 discriminator 3 view .LVU2054
.LBB842:
	.loc 2 1085 2 discriminator 3 view .LVU2055
	.loc 2 1085 7 discriminator 3 view .LVU2056
	.loc 2 1085 5 discriminator 3 view .LVU2057
	.loc 2 1086 2 discriminator 3 view .LVU2058
	.loc 2 1086 9 is_stmt 0 discriminator 3 view .LVU2059
	movs	r2, #1
	movs	r1, #0
	ldr	r0, .L506+32
	bl	z_impl_k_sem_init
.LVL568:
	.loc 2 1086 9 discriminator 3 view .LVU2060
.LBE842:
.LBE841:
	.loc 1 608 2 is_stmt 1 discriminator 3 view .LVU2061
	.loc 1 608 8 is_stmt 0 discriminator 3 view .LVU2062
	bl	lll_init
.LVL569:
	.loc 1 609 2 is_stmt 1 discriminator 3 view .LVU2063
	.loc 1 609 5 is_stmt 0 discriminator 3 view .LVU2064
	mov	r4, r0
	cbz	r0, .L505
.LVL570:
.L495:
	.loc 1 743 1 view .LVU2065
	mov	r0, r4
	add	sp, sp, #28
	.cfi_remember_state
	.cfi_def_cfa_offset 12
	@ sp needed
	pop	{r4, r5, pc}
.LVL571:
.L505:
	.cfi_restore_state
	.loc 1 617 2 is_stmt 1 view .LVU2066
	.loc 1 617 8 is_stmt 0 view .LVU2067
	bl	init_reset
.LVL572:
	.loc 1 618 2 is_stmt 1 view .LVU2068
	.loc 1 618 5 is_stmt 0 view .LVU2069
	mov	r4, r0
	cmp	r0, #0
	bne	.L495
	.loc 1 623 2 is_stmt 1 view .LVU2070
	.loc 1 623 8 is_stmt 0 view .LVU2071
	bl	lll_adv_init
.LVL573:
	.loc 1 624 2 is_stmt 1 view .LVU2072
	.loc 1 624 5 is_stmt 0 view .LVU2073
	mov	r4, r0
	cmp	r0, #0
	bne	.L495
	.loc 1 628 2 is_stmt 1 view .LVU2074
	.loc 1 628 8 is_stmt 0 view .LVU2075
	bl	ull_adv_init
.LVL574:
	.loc 1 629 2 is_stmt 1 view .LVU2076
	.loc 1 629 5 is_stmt 0 view .LVU2077
	mov	r4, r0
	cmp	r0, #0
	bne	.L495
	.loc 1 666 2 is_stmt 1 view .LVU2078
	.loc 1 666 8 is_stmt 0 view .LVU2079
	bl	lll_conn_init
.LVL575:
	.loc 1 667 2 is_stmt 1 view .LVU2080
	.loc 1 667 5 is_stmt 0 view .LVU2081
	mov	r4, r0
	cmp	r0, #0
	bne	.L495
	.loc 1 671 2 is_stmt 1 view .LVU2082
	.loc 1 671 8 is_stmt 0 view .LVU2083
	bl	ull_conn_init
.LVL576:
	.loc 1 672 2 is_stmt 1 view .LVU2084
	.loc 1 672 5 is_stmt 0 view .LVU2085
	mov	r4, r0
	cmp	r0, #0
	bne	.L495
	.loc 1 734 2 is_stmt 1 view .LVU2086
	.loc 1 735 3 view .LVU2087
	movs	r0, #1
.LVL577:
	.loc 1 735 3 is_stmt 0 view .LVU2088
	bl	ull_filter_reset
.LVL578:
	.loc 1 742 2 is_stmt 1 view .LVU2089
	.loc 1 742 9 is_stmt 0 view .LVU2090
	b	.L495
.LVL579:
.L504:
	.loc 1 602 22 is_stmt 1 discriminator 1 view .LVU2091
	ldr	r2, .L506+36
	ldr	r1, .L506+40
	ldr	r0, .L506+44
.LVL580:
	.loc 1 602 22 is_stmt 0 discriminator 1 view .LVU2092
	movw	r3, #602
	bl	assert_print
.LVL581:
	.loc 1 602 144 is_stmt 1 discriminator 1 view .LVU2093
	.loc 1 602 149 discriminator 1 view .LVU2094
	.syntax unified
@ 602 "/home/g/mise-work/zmk-firmware/zmk/zephyr/subsys/bluetooth/controller/ll_sw/ull.c" 1
	eors.n r0, r0
	msr BASEPRI, r0
	mov r0, #3
	svc #2
	
@ 0 "" 2
	.thumb
	.syntax unified
	b	.L497
.LVL582:
.L503:
	.loc 1 584 3 view .LVU2095
	bl	mayfly_init
.LVL583:
	.loc 1 585 3 view .LVU2096
	.loc 1 585 22 is_stmt 0 view .LVU2097
	movs	r3, #1
	strb	r3, [r4]
	b	.L496
.L507:
	.align	2
.L506:
	.word	sem_recv
	.word	mayfly_initialized.10
	.word	ticker_users
	.word	hal_ticker_instance0_sched
	.word	hal_ticker_instance0_trigger_set
	.word	hal_ticker_instance0_caller_id_get
	.word	ticker_user_ops
	.word	ticker_nodes
	.word	sem_ticker_api_cb
	.word	.LC0
	.word	.LC1
	.word	.LC2
	.cfi_endproc
.LFE513:
	.size	ll_init, .-ll_init
	.section	.rodata.ll_reset.str1.4,"aMS",%progbits,1
	.align	2
.LC18:
	.ascii	"!retval\000"
	.section	.text.ll_reset,"ax",%progbits
	.align	1
	.p2align 2,,3
	.global	ll_reset
	.syntax unified
	.thumb
	.thumb_func
	.type	ll_reset, %function
ll_reset:
.LFB515:
	.loc 1 752 1 is_stmt 1 view -0
	.cfi_startproc
	@ args = 0, pretend = 0, frame = 24
	@ frame_needed = 0, uses_anonymous_args = 0
	.loc 1 753 2 view .LVU2099
	.loc 1 767 2 view .LVU2100
	.loc 1 752 1 is_stmt 0 view .LVU2101
	push	{r4, lr}
	.cfi_def_cfa_offset 8
	.cfi_offset 4, -8
	.cfi_offset 14, -4
	sub	sp, sp, #24
	.cfi_def_cfa_offset 32
	.loc 1 767 8 view .LVU2102
	bl	ull_adv_reset
.LVL584:
	.loc 1 768 2 is_stmt 1 view .LVU2103
	.loc 1 768 7 view .LVU2104
	.loc 1 768 10 is_stmt 0 view .LVU2105
	cmp	r0, #0
	bne	.L530
	.loc 1 768 147 is_stmt 1 discriminator 3 view .LVU2106
	.loc 1 768 5 discriminator 3 view .LVU2107
	.loc 1 817 2 discriminator 3 view .LVU2108
	.loc 1 817 8 is_stmt 0 discriminator 3 view .LVU2109
	bl	ull_conn_reset
.LVL585:
	.loc 1 818 2 is_stmt 1 discriminator 3 view .LVU2110
	.loc 1 818 7 discriminator 3 view .LVU2111
	.loc 1 818 10 is_stmt 0 discriminator 3 view .LVU2112
	cmp	r0, #0
	bne	.L531
.LVL586:
.L510:
	.loc 1 818 147 is_stmt 1 discriminator 3 view .LVU2113
	.loc 1 818 5 discriminator 3 view .LVU2114
	.loc 1 820 2 discriminator 3 view .LVU2115
	.loc 1 820 17 is_stmt 0 discriminator 3 view .LVU2116
	movs	r4, #0
	ldr	r3, .L535
	.loc 1 825 3 discriminator 3 view .LVU2117
	mov	r0, r4
	.loc 1 820 17 discriminator 3 view .LVU2118
	strh	r4, [r3, #4]	@ movhi
	.loc 1 824 2 is_stmt 1 discriminator 3 view .LVU2119
	.loc 1 825 3 discriminator 3 view .LVU2120
	bl	ull_filter_reset
.LVL587:
	.loc 1 831 2 discriminator 3 view .LVU2121
	.loc 1 831 15 is_stmt 0 discriminator 3 view .LVU2122
	ldr	r1, .L535+4
	.loc 1 834 22 discriminator 3 view .LVU2123
	ldr	r2, .L535+8
	.loc 1 838 25 discriminator 3 view .LVU2124
	ldr	r3, .L535+12
	.loc 1 831 15 discriminator 3 view .LVU2125
	strh	r4, [r1, #4]	@ movhi
	.loc 1 834 2 is_stmt 1 discriminator 3 view .LVU2126
	.loc 1 834 22 is_stmt 0 discriminator 3 view .LVU2127
	strh	r4, [r2, #4]	@ movhi
	.loc 1 838 2 is_stmt 1 discriminator 3 view .LVU2128
	.loc 1 838 25 is_stmt 0 discriminator 3 view .LVU2129
	strh	r4, [r3, #4]	@ movhi
.LBB843:
	.loc 1 843 3 is_stmt 1 discriminator 3 view .LVU2130
	.loc 1 844 3 discriminator 3 view .LVU2131
	.loc 1 846 3 discriminator 3 view .LVU2132
	.loc 1 857 3 discriminator 3 view .LVU2133
	.loc 1 859 3 discriminator 3 view .LVU2134
.LVL588:
.LBB844:
.LBI844:
	.loc 2 1075 19 discriminator 3 view .LVU2135
.LBB845:
	.loc 2 1085 2 discriminator 3 view .LVU2136
	.loc 2 1085 7 discriminator 3 view .LVU2137
	.loc 2 1085 5 discriminator 3 view .LVU2138
	.loc 2 1086 2 discriminator 3 view .LVU2139
	.loc 2 1086 9 is_stmt 0 discriminator 3 view .LVU2140
	movs	r2, #1
	mov	r1, r4
	mov	r0, sp
	bl	z_impl_k_sem_init
.LVL589:
	.loc 2 1086 9 discriminator 3 view .LVU2141
.LBE845:
.LBE844:
	.loc 1 860 3 is_stmt 1 discriminator 3 view .LVU2142
	.loc 1 860 13 is_stmt 0 discriminator 3 view .LVU2143
	ldr	r3, .L535+16
	.loc 1 863 12 discriminator 3 view .LVU2144
	mov	r2, r4
	mov	r1, r4
	movs	r0, #3
	.loc 1 860 13 discriminator 3 view .LVU2145
	str	sp, [r3, #8]
	.loc 1 863 3 is_stmt 1 discriminator 3 view .LVU2146
	.loc 1 863 12 is_stmt 0 discriminator 3 view .LVU2147
	bl	mayfly_enqueue
.LVL590:
	.loc 1 865 3 is_stmt 1 discriminator 3 view .LVU2148
	.loc 1 865 8 discriminator 3 view .LVU2149
	.loc 1 865 11 is_stmt 0 discriminator 3 view .LVU2150
	cmp	r0, #0
	bne	.L532
.LVL591:
.L511:
	.loc 1 865 154 is_stmt 1 discriminator 3 view .LVU2151
	.loc 1 865 6 discriminator 3 view .LVU2152
	.loc 1 871 3 discriminator 3 view .LVU2153
.LBB846:
.LBI846:
	.loc 2 1093 19 discriminator 3 view .LVU2154
.LBB847:
	.loc 2 1102 2 discriminator 3 view .LVU2155
	.loc 2 1102 7 discriminator 3 view .LVU2156
	.loc 2 1102 5 discriminator 3 view .LVU2157
	.loc 2 1103 2 discriminator 3 view .LVU2158
	.loc 2 1103 9 is_stmt 0 discriminator 3 view .LVU2159
	mov	r2, #-1
	mov	r3, #-1
	mov	r0, sp
	bl	z_impl_k_sem_take
.LVL592:
	.loc 2 1103 9 discriminator 3 view .LVU2160
.LBE847:
.LBE846:
.LBE843:
	.loc 1 877 2 is_stmt 1 discriminator 3 view .LVU2161
	.loc 1 877 8 is_stmt 0 discriminator 3 view .LVU2162
	bl	ull_adv_reset_finalize
.LVL593:
	.loc 1 878 2 is_stmt 1 discriminator 3 view .LVU2163
	.loc 1 878 7 discriminator 3 view .LVU2164
	.loc 1 878 10 is_stmt 0 discriminator 3 view .LVU2165
	cmp	r0, #0
	bne	.L533
.LVL594:
.L512:
	.loc 1 878 147 is_stmt 1 view .LVU2166
	.loc 1 878 5 view .LVU2167
	.loc 1 882 2 view .LVU2168
	.loc 1 890 2 view .LVU2169
	.loc 1 890 8 is_stmt 0 view .LVU2170
	bl	init_reset
.LVL595:
	.loc 1 891 2 is_stmt 1 view .LVU2171
	.loc 1 891 7 view .LVU2172
	.loc 1 891 10 is_stmt 0 view .LVU2173
	cbnz	r0, .L534
.LVL596:
.L513:
	.loc 1 891 147 is_stmt 1 discriminator 3 view .LVU2174
	.loc 1 891 5 discriminator 3 view .LVU2175
	.loc 1 907 2 discriminator 3 view .LVU2176
	.loc 1 907 8 is_stmt 0 discriminator 3 view .LVU2177
	movs	r1, #0
	movs	r0, #1
	.loc 1 908 1 discriminator 3 view .LVU2178
	add	sp, sp, #24
	.cfi_remember_state
	.cfi_def_cfa_offset 8
	@ sp needed
	pop	{r4, lr}
	.cfi_restore 14
	.cfi_restore 4
	.cfi_def_cfa_offset 0
	.loc 1 907 8 discriminator 3 view .LVU2179
	b	ll_addr_set
.LVL597:
.L530:
	.cfi_restore_state
	.loc 1 768 22 is_stmt 1 discriminator 1 view .LVU2180
	ldr	r2, .L535+20
	ldr	r1, .L535+24
	ldr	r0, .L535+28
.LVL598:
	.loc 1 768 22 is_stmt 0 discriminator 1 view .LVU2181
	mov	r3, #768
	bl	assert_print
.LVL599:
	.loc 1 768 144 is_stmt 1 discriminator 1 view .LVU2182
	.loc 1 768 149 discriminator 1 view .LVU2183
	.syntax unified
@ 768 "/home/g/mise-work/zmk-firmware/zmk/zephyr/subsys/bluetooth/controller/ll_sw/ull.c" 1
	eors.n r0, r0
	msr BASEPRI, r0
	mov r0, #3
	svc #2
	
@ 0 "" 2
	.loc 1 768 147 discriminator 1 view .LVU2184
	.loc 1 768 5 discriminator 1 view .LVU2185
	.loc 1 817 2 discriminator 1 view .LVU2186
	.loc 1 817 8 is_stmt 0 discriminator 1 view .LVU2187
	.thumb
	.syntax unified
	bl	ull_conn_reset
.LVL600:
	.loc 1 818 2 is_stmt 1 discriminator 1 view .LVU2188
	.loc 1 818 7 discriminator 1 view .LVU2189
	.loc 1 818 10 is_stmt 0 discriminator 1 view .LVU2190
	cmp	r0, #0
	beq	.L510
.L531:
	.loc 1 818 22 is_stmt 1 discriminator 1 view .LVU2191
	ldr	r2, .L535+20
	ldr	r1, .L535+24
	ldr	r0, .L535+28
.LVL601:
	.loc 1 818 22 is_stmt 0 discriminator 1 view .LVU2192
	movw	r3, #818
	bl	assert_print
.LVL602:
	.loc 1 818 144 is_stmt 1 discriminator 1 view .LVU2193
	.loc 1 818 149 discriminator 1 view .LVU2194
	.syntax unified
@ 818 "/home/g/mise-work/zmk-firmware/zmk/zephyr/subsys/bluetooth/controller/ll_sw/ull.c" 1
	eors.n r0, r0
	msr BASEPRI, r0
	mov r0, #3
	svc #2
	
@ 0 "" 2
	.thumb
	.syntax unified
	b	.L510
.LVL603:
.L534:
	.loc 1 891 22 discriminator 1 view .LVU2195
	ldr	r2, .L535+20
	ldr	r1, .L535+24
	ldr	r0, .L535+28
.LVL604:
	.loc 1 891 22 is_stmt 0 discriminator 1 view .LVU2196
	movw	r3, #891
	bl	assert_print
.LVL605:
	.loc 1 891 144 is_stmt 1 discriminator 1 view .LVU2197
	.loc 1 891 149 discriminator 1 view .LVU2198
	.syntax unified
@ 891 "/home/g/mise-work/zmk-firmware/zmk/zephyr/subsys/bluetooth/controller/ll_sw/ull.c" 1
	eors.n r0, r0
	msr BASEPRI, r0
	mov r0, #3
	svc #2
	
@ 0 "" 2
	.thumb
	.syntax unified
	b	.L513
.LVL606:
.L533:
	.loc 1 878 22 discriminator 1 view .LVU2199
	ldr	r2, .L535+20
	ldr	r1, .L535+24
	ldr	r0, .L535+28
.LVL607:
	.loc 1 878 22 is_stmt 0 discriminator 1 view .LVU2200
	movw	r3, #878
	bl	assert_print
.LVL608:
	.loc 1 878 144 is_stmt 1 discriminator 1 view .LVU2201
	.loc 1 878 149 discriminator 1 view .LVU2202
	.syntax unified
@ 878 "/home/g/mise-work/zmk-firmware/zmk/zephyr/subsys/bluetooth/controller/ll_sw/ull.c" 1
	eors.n r0, r0
	msr BASEPRI, r0
	mov r0, #3
	svc #2
	
@ 0 "" 2
	.thumb
	.syntax unified
	b	.L512
.LVL609:
.L532:
.LBB848:
	.loc 1 865 26 discriminator 1 view .LVU2203
	ldr	r2, .L535+20
	ldr	r1, .L535+32
	ldr	r0, .L535+28
.LVL610:
	.loc 1 865 26 is_stmt 0 discriminator 1 view .LVU2204
	movw	r3, #865
	bl	assert_print
.LVL611:
	.loc 1 865 151 is_stmt 1 discriminator 1 view .LVU2205
	.loc 1 865 156 discriminator 1 view .LVU2206
	.syntax unified
@ 865 "/home/g/mise-work/zmk-firmware/zmk/zephyr/subsys/bluetooth/controller/ll_sw/ull.c" 1
	eors.n r0, r0
	msr BASEPRI, r0
	mov r0, #3
	svc #2
	
@ 0 "" 2
	.thumb
	.syntax unified
	b	.L511
.L536:
	.align	2
.L535:
	.word	mfifo_tx_ack
	.word	mfifo_prep
	.word	mfifo_pdu_rx_free
	.word	mfifo_ll_pdu_rx_free
	.word	mfy.9
	.word	.LC0
	.word	.LC1
	.word	.LC2
	.word	.LC18
.LBE848:
	.cfi_endproc
.LFE515:
	.size	ll_reset, .-ll_reset
	.section	.text.ll_deinit,"ax",%progbits
	.align	1
	.p2align 2,,3
	.global	ll_deinit
	.syntax unified
	.thumb
	.thumb_func
	.type	ll_deinit, %function
ll_deinit:
.LFB514:
	.loc 1 746 1 view -0
	.cfi_startproc
	@ args = 0, pretend = 0, frame = 0
	@ frame_needed = 0, uses_anonymous_args = 0
	.loc 1 747 2 view .LVU2208
	.loc 1 746 1 is_stmt 0 view .LVU2209
	push	{r3, lr}
	.cfi_def_cfa_offset 8
	.cfi_offset 3, -8
	.cfi_offset 14, -4
	.loc 1 747 2 view .LVU2210
	bl	ll_reset
.LVL612:
	.loc 1 748 2 is_stmt 1 view .LVU2211
	.loc 1 749 1 is_stmt 0 view .LVU2212
	pop	{r3, lr}
	.cfi_restore 14
	.cfi_restore 3
	.cfi_def_cfa_offset 0
	.loc 1 748 9 view .LVU2213
	b	lll_deinit
.LVL613:
	.cfi_endproc
.LFE514:
	.size	ll_deinit, .-ll_deinit
	.section	.text.ull_rxfifo_release,"ax",%progbits
	.align	1
	.p2align 2,,3
	.global	ull_rxfifo_release
	.syntax unified
	.thumb
	.thumb_func
	.type	ull_rxfifo_release, %function
ull_rxfifo_release:
.LVL614:
.LFB577:
	.loc 1 3036 1 is_stmt 1 view -0
	.cfi_startproc
	@ args = 12, pretend = 0, frame = 0
	@ frame_needed = 0, uses_anonymous_args = 0
	@ link register save eliminated.
	.loc 1 3037 2 view .LVU2215
	.loc 1 3039 2 view .LVU2216
.LBB849:
.LBI849:
	.loc 3 82 19 view .LVU2217
.LBB850:
	.loc 3 86 2 view .LVU2218
	.loc 3 86 7 is_stmt 0 view .LVU2219
	ldrb	ip, [r3]	@ zero_extendqisi2
	add	ip, ip, #1
	uxtb	ip, ip
.LVL615:
	.loc 3 87 2 is_stmt 1 view .LVU2220
	.loc 3 88 8 is_stmt 0 view .LVU2221
	cmp	r1, ip
	it	eq
	moveq	ip, #0
.LVL616:
	.loc 3 97 2 is_stmt 1 view .LVU2222
.LBE850:
.LBE849:
	.loc 1 3036 1 is_stmt 0 view .LVU2223
	push	{r4}
	.cfi_def_cfa_offset 4
	.cfi_offset 4, -4
.LBB853:
.LBB851:
	.loc 3 97 5 view .LVU2224
	cmp	r2, ip
.LBE851:
.LBE853:
	.loc 1 3036 1 view .LVU2225
	ldr	r4, [sp, #12]
.LBB854:
.LBB852:
	.loc 3 97 5 view .LVU2226
	beq	.L542
	.loc 3 101 2 is_stmt 1 view .LVU2227
.LVL617:
	.loc 3 102 2 view .LVU2228
	.loc 3 102 2 is_stmt 0 view .LVU2229
.LBE852:
.LBE854:
	.loc 1 3043 2 is_stmt 1 view .LVU2230
	.loc 1 3043 11 is_stmt 0 view .LVU2231
	ldr	r2, [sp, #8]
.LVL618:
	.loc 1 3043 11 view .LVU2232
	str	r2, [r4]
	.loc 1 3045 2 is_stmt 1 view .LVU2233
.LVL619:
.LBB855:
.LBI855:
	.loc 3 119 20 view .LVU2234
.LBB856:
	.loc 3 123 2 view .LVU2235
	.loc 3 124 2 view .LVU2236
	.loc 3 123 38 is_stmt 0 view .LVU2237
	ldrb	r2, [r3]	@ zero_extendqisi2
	.loc 3 124 5 view .LVU2238
	ldr	r1, [sp, #4]
.LVL620:
	.loc 3 123 38 view .LVU2239
	smulbb	r2, r2, r0
	.loc 3 124 5 view .LVU2240
	str	r4, [r1, r2]
.LVL621:
	.loc 3 126 2 is_stmt 1 view .LVU2241
.LBB857:
.LBI857:
	.loc 4 15 20 view .LVU2242
.LBB858:
	.loc 4 27 2 view .LVU2243
.LBE858:
.LBE857:
	.loc 3 127 2 view .LVU2244
.LBE856:
.LBE855:
	.loc 1 3047 9 is_stmt 0 view .LVU2245
	mov	r0, r4
.LVL622:
.LBB860:
.LBB859:
	.loc 3 127 8 view .LVU2246
	strb	ip, [r3]
.LVL623:
	.loc 3 127 8 view .LVU2247
.LBE859:
.LBE860:
	.loc 1 3047 2 is_stmt 1 view .LVU2248
	.loc 1 3048 1 is_stmt 0 view .LVU2249
	ldr	r4, [sp], #4
	.cfi_remember_state
	.cfi_restore 4
	.cfi_def_cfa_offset 0
.LVL624:
	.loc 1 3048 1 view .LVU2250
	bx	lr
.LVL625:
.L542:
	.cfi_restore_state
	.loc 1 3040 9 view .LVU2251
	movs	r0, #0
.LVL626:
	.loc 1 3048 1 view .LVU2252
	ldr	r4, [sp], #4
	.cfi_restore 4
	.cfi_def_cfa_offset 0
.LVL627:
	.loc 1 3048 1 view .LVU2253
	bx	lr
	.cfi_endproc
.LFE577:
	.size	ull_rxfifo_release, .-ull_rxfifo_release
	.section	.bss.link.0,"aw",%nobits
	.align	2
	.type	link.0, %object
	.size	link.0, 8
link.0:
	.space	8
	.section	.data.mfy.1,"aw"
	.align	2
	.type	mfy.1, %object
	.size	mfy.1, 16
mfy.1:
	.byte	0
	.byte	0
	.space	2
	.word	link.0
	.word	0
	.word	lll_resume
	.section	.bss.link.2,"aw",%nobits
	.align	2
	.type	link.2, %object
	.size	link.2, 8
link.2:
	.space	8
	.section	.data.mfy.3,"aw"
	.align	2
	.type	mfy.3, %object
	.size	mfy.3, 16
mfy.3:
	.byte	0
	.byte	0
	.space	2
	.word	link.2
	.word	0
	.word	rx_demux
	.section	.bss.link.4,"aw",%nobits
	.align	2
	.type	link.4, %object
	.size	link.4, 8
link.4:
	.space	8
	.section	.data.mfy.5,"aw"
	.align	2
	.type	mfy.5, %object
	.size	mfy.5, 16
mfy.5:
	.byte	0
	.byte	0
	.space	2
	.word	link.4
	.word	0
	.word	lll_disable
	.section	.bss.link.6,"aw",%nobits
	.align	2
	.type	link.6, %object
	.size	link.6, 8
link.6:
	.space	8
	.section	.data.mfy.7,"aw"
	.align	2
	.type	mfy.7, %object
	.size	mfy.7, 16
mfy.7:
	.byte	0
	.byte	0
	.space	2
	.word	link.6
	.word	0
	.word	lll_disable
	.section	.bss.link.8,"aw",%nobits
	.align	2
	.type	link.8, %object
	.size	link.8, 8
link.8:
	.space	8
	.section	.data.mfy.9,"aw"
	.align	2
	.type	mfy.9, %object
	.size	mfy.9, 16
mfy.9:
	.byte	0
	.byte	0
	.space	2
	.word	link.8
	.word	0
	.word	perform_lll_reset
	.section	.bss.mayfly_initialized.10,"aw",%nobits
	.type	mayfly_initialized.10, %object
	.size	mayfly_initialized.10, 1
mayfly_initialized.10:
	.space	1
	.section	.bss.mark_disable,"aw",%nobits
	.align	2
	.type	mark_disable, %object
	.size	mark_disable, 4
mark_disable:
	.space	4
	.section	.data.mfifo_tx_ack,"aw"
	.align	2
	.type	mfifo_tx_ack, %object
	.size	mfifo_tx_ack, 40
mfifo_tx_ack:
	.short	8
	.short	4
	.byte	0
	.byte	0
	.space	34
	.section	.bss.mark_update,"aw",%nobits
	.align	2
	.type	mark_update, %object
	.size	mark_update, 4
mark_update:
	.space	4
	.section	.data.mfifo_ll_pdu_rx_free,"aw"
	.align	2
	.type	mfifo_ll_pdu_rx_free, %object
	.size	mfifo_ll_pdu_rx_free, 52
mfifo_ll_pdu_rx_free:
	.short	4
	.short	11
	.byte	0
	.byte	0
	.space	46
	.section	.bss.memq_ll_rx,"aw",%nobits
	.align	2
	.type	memq_ll_rx, %object
	.size	memq_ll_rx, 8
memq_ll_rx:
	.space	8
	.section	.bss.memq_ull_rx,"aw",%nobits
	.align	2
	.type	memq_ull_rx, %object
	.size	memq_ull_rx, 8
memq_ull_rx:
	.space	8
	.section	.bss.mem_link_rx,"aw",%nobits
	.align	2
	.type	mem_link_rx, %object
	.size	mem_link_rx, 184
mem_link_rx:
	.space	184
	.section	.bss.mem_pdu_rx,"aw",%nobits
	.align	2
	.type	mem_pdu_rx, %object
	.size	mem_pdu_rx, 1604
mem_pdu_rx:
	.space	1604
	.section	.data.mfifo_pdu_rx_free,"aw"
	.align	2
	.type	mfifo_pdu_rx_free, %object
	.size	mfifo_pdu_rx_free, 28
mfifo_pdu_rx_free:
	.short	4
	.short	5
	.byte	0
	.byte	0
	.space	22
	.section	.bss.mem_link_done,"aw",%nobits
	.align	2
	.type	mem_link_done, %object
	.size	mem_link_done, 36
mem_link_done:
	.space	36
	.section	.data.mem_done,"aw"
	.align	2
	.type	mem_done, %object
	.size	mem_done, 232
mem_done:
	.space	4
	.short	56
	.byte	4
	.byte	0
	.space	224
	.section	.data.mfifo_done,"aw"
	.align	2
	.type	mfifo_done, %object
	.size	mfifo_done, 28
mfifo_done:
	.short	4
	.short	5
	.byte	0
	.byte	0
	.space	22
	.section	.data.mfifo_prep,"aw"
	.align	2
	.type	mfifo_prep, %object
	.size	mfifo_prep, 264
mfifo_prep:
	.short	32
	.short	8
	.byte	0
	.byte	0
	.space	258
	.section	.bss.sem_recv,"aw",%nobits
	.align	2
	.type	sem_recv, %object
	.size	sem_recv, 4
sem_recv:
	.space	4
	.section	.bss.sem_ticker_api_cb,"aw",%nobits
	.align	2
	.type	sem_ticker_api_cb, %object
	.size	sem_ticker_api_cb, 24
sem_ticker_api_cb:
	.space	24
	.section	.bss.ticker_user_ops,"aw",%nobits
	.align	2
	.type	ticker_user_ops, %object
	.size	ticker_user_ops, 624
ticker_user_ops:
	.space	624
	.section	.bss.ticker_users,"aw",%nobits
	.align	2
	.type	ticker_users, %object
	.size	ticker_users, 32
ticker_users:
	.space	32
	.section	.bss.ticker_nodes,"aw",%nobits
	.align	2
	.type	ticker_nodes, %object
	.size	ticker_nodes, 480
ticker_nodes:
	.space	480
	.text
.Letext0:
	.file 7 "/home/g/zephyr-sdk-0.16.3/arm-zephyr-eabi/lib/gcc/arm-zephyr-eabi/12.2.0/include/stddef.h"
	.file 8 "/home/g/zephyr-sdk-0.16.3/arm-zephyr-eabi/picolibc/include/machine/_default_types.h"
	.file 9 "/home/g/zephyr-sdk-0.16.3/arm-zephyr-eabi/picolibc/include/sys/_stdint.h"
	.file 10 "/home/g/mise-work/zmk-firmware/zmk/zephyr/include/zephyr/sys/dlist.h"
	.file 11 "/home/g/mise-work/zmk-firmware/zmk/zephyr/include/zephyr/sys/slist.h"
	.file 12 "/home/g/mise-work/zmk-firmware/zmk/zephyr/include/zephyr/kernel_structs.h"
	.file 13 "/home/g/mise-work/zmk-firmware/zmk/zephyr/include/zephyr/sys_clock.h"
	.file 14 "/home/g/mise-work/zmk-firmware/zmk/zephyr/include/zephyr/kernel.h"
	.file 15 "/home/g/mise-work/zmk-firmware/zmk/zephyr/include/zephyr/fatal_types.h"
	.file 16 "/home/g/mise-work/zmk-firmware/zmk/zephyr/subsys/bluetooth/controller/./hal/ccm.h"
	.file 17 "/home/g/mise-work/zmk-firmware/zmk/zephyr/subsys/bluetooth/controller/./util/memq.h"
	.file 18 "/home/g/mise-work/zmk-firmware/zmk/zephyr/subsys/bluetooth/controller/./util/mayfly.h"
	.file 19 "/home/g/mise-work/zmk-firmware/zmk/zephyr/subsys/bluetooth/controller/./ticker/ticker.h"
	.file 20 "/home/g/mise-work/zmk-firmware/zmk/zephyr/subsys/bluetooth/controller/ll_sw/pdu_df.h"
	.file 21 "/home/g/mise-work/zmk-firmware/zmk/zephyr/subsys/bluetooth/controller/ll_sw/nordic/lll/pdu_vendor.h"
	.file 22 "/home/g/mise-work/zmk-firmware/zmk/zephyr/subsys/bluetooth/controller/ll_sw/pdu.h"
	.file 23 "/home/g/mise-work/zmk-firmware/zmk/zephyr/subsys/bluetooth/controller/ll_sw/lll.h"
	.file 24 "/home/g/mise-work/zmk-firmware/zmk/zephyr/subsys/bluetooth/controller/ll_sw/nordic/lll/lll_df_types.h"
	.file 25 "/home/g/mise-work/zmk-firmware/zmk/zephyr/subsys/bluetooth/controller/ll_sw/nordic/lll/lll_adv_types.h"
	.file 26 "/home/g/mise-work/zmk-firmware/zmk/zephyr/subsys/bluetooth/controller/ll_sw/lll_adv.h"
	.file 27 "/home/g/mise-work/zmk-firmware/zmk/zephyr/subsys/bluetooth/controller/ll_sw/lll_conn.h"
	.file 28 "/home/g/mise-work/zmk-firmware/zmk/zephyr/subsys/bluetooth/controller/ll_sw/ull_adv_types.h"
	.file 29 "/home/g/mise-work/zmk-firmware/zmk/zephyr/subsys/bluetooth/controller/./ll_sw/ull_tx_queue.h"
	.file 30 "/home/g/mise-work/zmk-firmware/zmk/zephyr/subsys/bluetooth/controller/ll_sw/ull_conn_types.h"
	.file 31 "/home/g/mise-work/zmk-firmware/zmk/zephyr/subsys/bluetooth/controller/ll_sw/ull_conn_internal.h"
	.file 32 "/home/g/mise-work/zmk-firmware/zmk/zephyr/subsys/bluetooth/controller/./util/mem.h"
	.file 33 "/home/g/mise-work/zmk-firmware/zmk/zephyr/subsys/bluetooth/controller/ll_sw/ull_filter.h"
	.file 34 "/home/g/mise-work/zmk-firmware/zmk/zephyr/subsys/bluetooth/controller/ll_sw/ull_adv_internal.h"
	.file 35 "/home/g/mise-work/zmk-firmware/zmk/zephyr/subsys/bluetooth/controller/include/ll.h"
	.file 36 "/home/g/mise-work/zmk-firmware/zmk/zephyr/include/zephyr/sys/__assert.h"
	.file 37 "/home/g/mise-work/zmk-firmware/zmk/zephyr/subsys/bluetooth/controller/./hal/ticker.h"
	.file 38 "/home/g/mise-work/zmk-firmware/zmk/zephyr/subsys/bluetooth/controller/./hal/cntr.h"