	.cpu cortex-m4
	.arch armv7e-m
	.fpu fpv4-sp-d16
	.eabi_attribute 27, 1
	.eabi_attribute 28, 1
	.eabi_attribute 20, 1
	.eabi_attribute 21, 1
	.eabi_attribute 23, 3
	.eabi_attribute 24, 1
	.eabi_attribute 25, 1
	.eabi_attribute 26, 1
	.eabi_attribute 30, 2
	.eabi_attribute 34, 1
	.eabi_attribute 38, 1
	.eabi_attribute 18, 4
	.file	"ull_chan.c"
	.text
.Ltext0:
	.cfi_sections	.debug_frame
	.file 1 "/home/g/mise-work/zmk-firmware/zmk/zephyr/subsys/bluetooth/controller/ll_sw/ull_chan.c"
	.section	.text.ll_chm_update,"ax",%progbits
	.align	1
	.p2align 2,,3
	.global	ll_chm_update
	.syntax unified
	.thumb
	.thumb_func
	.type	ll_chm_update, %function
ll_chm_update:
.LVL0:
.LFB31:
	.loc 1 48 1 view -0
	.cfi_startproc
	@ args = 0, pretend = 0, frame = 0
	@ frame_needed = 0, uses_anonymous_args = 0
	.loc 1 49 2 view .LVU1
	.loc 1 48 1 is_stmt 0 view .LVU2
	push	{r3, lr}
	.cfi_def_cfa_offset 8
	.cfi_offset 3, -8
	.cfi_offset 14, -4
.LBB6:
.LBB7:
	.loc 1 95 29 view .LVU3
	ldr	r2, .L4
.LBE7:
.LBE6:
	.loc 1 48 1 view .LVU4
	mov	r3, r0
.LVL1:
.LBB9:
.LBI6:
	.loc 1 93 13 is_stmt 1 view .LVU5
.LBB8:
	.loc 1 95 2 view .LVU6
	.loc 1 95 29 is_stmt 0 view .LVU7
	ldr	r0, [r0]	@ unaligned
.LVL2:
	.loc 1 95 29 view .LVU8
	str	r0, [r2]
	ldrb	r3, [r3, #4]	@ zero_extendqisi2
.LVL3:
	.loc 1 95 29 view .LVU9
	strb	r3, [r2, #4]
	.loc 1 96 2 is_stmt 1 view .LVU10
	.loc 1 96 10 is_stmt 0 view .LVU11
	movs	r1, #5
	mov	r0, r2
	bl	util_ones_count_get
.LVL4:
	.loc 1 96 8 view .LVU12
	ldr	r3, .L4+4
	.loc 1 96 10 view .LVU13
	mov	r2, r0
	.loc 1 96 8 view .LVU14
	strb	r2, [r3]
.LVL5:
	.loc 1 96 8 view .LVU15
.LBE8:
.LBE9:
	.loc 1 70 2 is_stmt 1 view .LVU16
	.loc 1 71 1 is_stmt 0 view .LVU17
	movs	r0, #0
	pop	{r3, pc}
.L5:
	.align	2
.L4:
	.word	map
	.word	count
	.cfi_endproc
.LFE31:
	.size	ll_chm_update, .-ll_chm_update
	.section	.text.ull_chan_reset,"ax",%progbits
	.align	1
	.p2align 2,,3
	.global	ull_chan_reset
	.syntax unified
	.thumb
	.thumb_func
	.type	ull_chan_reset, %function
ull_chan_reset:
.LFB32:
	.loc 1 74 1 is_stmt 1 view -0
	.cfi_startproc
	@ args = 0, pretend = 0, frame = 0
	@ frame_needed = 0, uses_anonymous_args = 0
	@ link register save eliminated.
	.loc 1 76 2 view .LVU19
	.loc 1 77 2 view .LVU20
	.loc 1 78 2 view .LVU21
	.loc 1 79 2 view .LVU22
	.loc 1 76 9 is_stmt 0 view .LVU23
	ldr	r3, .L8
	.loc 1 81 8 view .LVU24
	ldr	r2, .L8+4
	.loc 1 74 1 view .LVU25
	push	{r4}
	.cfi_def_cfa_offset 4
	.cfi_offset 4, -4
	.loc 1 80 9 view .LVU26
	movs	r0, #31
	.loc 1 76 9 view .LVU27
	mov	r4, #-1
	.loc 1 81 8 view .LVU28
	movs	r1, #37
	.loc 1 80 9 view .LVU29
	strb	r0, [r3, #4]
	.loc 1 76 9 view .LVU30
	str	r4, [r3]
	.loc 1 80 2 is_stmt 1 view .LVU31
	.loc 1 81 2 view .LVU32
	.loc 1 81 8 is_stmt 0 view .LVU33
	strb	r1, [r2]
	.loc 1 83 2 is_stmt 1 view .LVU34
	.loc 1 84 1 is_stmt 0 view .LVU35
	movs	r0, #0
	ldr	r4, [sp], #4
	.cfi_restore 4
	.cfi_def_cfa_offset 0
	bx	lr
.L9:
	.align	2
.L8:
	.word	map
	.word	count
	.cfi_endproc
.LFE32:
	.size	ull_chan_reset, .-ull_chan_reset
	.section	.text.ull_chan_map_get,"ax",%progbits
	.align	1
	.p2align 2,,3
	.global	ull_chan_map_get
	.syntax unified
	.thumb
	.thumb_func
	.type	ull_chan_map_get, %function
ull_chan_map_get:
.LVL6:
.LFB33:
	.loc 1 87 1 is_stmt 1 view -0
	.cfi_startproc
	@ args = 0, pretend = 0, frame = 0
	@ frame_needed = 0, uses_anonymous_args = 0
	@ link register save eliminated.
	.loc 1 88 2 view .LVU37
.LBB10:
.LBB11:
	.file 2 "/home/g/zephyr-sdk-0.16.3/arm-zephyr-eabi/picolibc/include/ssp/string.h"
	.loc 2 83 299 is_stmt 0 view .LVU38
	ldr	r2, .L11
.LBE11:
.LBE10:
	.loc 1 90 9 view .LVU39
	ldr	r1, .L11+4
	.loc 1 87 1 view .LVU40
	mov	r3, r0
.LVL7:
.LBB14:
.LBI10:
	.loc 2 83 216 is_stmt 1 view .LVU41
.LBB12:
	.loc 2 83 292 view .LVU42
	.loc 2 83 299 is_stmt 0 view .LVU43
	ldr	r0, [r2]
.LVL8:
	.loc 2 83 299 view .LVU44
	str	r0, [r3]	@ unaligned
	ldrb	r2, [r2, #4]	@ zero_extendqisi2
.LBE12:
.LBE14:
	.loc 1 91 1 view .LVU45
	ldrb	r0, [r1]	@ zero_extendqisi2
.LBB15:
.LBB13:
	.loc 2 83 299 view .LVU46
	strb	r2, [r3, #4]
.LVL9:
	.loc 2 83 299 view .LVU47
.LBE13:
.LBE15:
	.loc 1 90 2 is_stmt 1 view .LVU48
	.loc 1 91 1 is_stmt 0 view .LVU49
	bx	lr
.L12:
	.align	2
.L11:
	.word	map
	.word	count
	.cfi_endproc
.LFE33:
	.size	ull_chan_map_get, .-ull_chan_map_get
	.section	.data.count,"aw"
	.type	count, %object
	.size	count, 1
count:
	.byte	37
	.section	.data.map,"aw"
	.align	2
	.type	map, %object
	.size	map, 5
map:
	.ascii	"\377\377\377\377\037"
	.text
.Letext0:
	.file 3 "/home/g/zephyr-sdk-0.16.3/arm-zephyr-eabi/picolibc/include/machine/_default_types.h"
	.file 4 "/home/g/zephyr-sdk-0.16.3/arm-zephyr-eabi/picolibc/include/sys/_stdint.h"
	.file 5 "/home/g/zephyr-sdk-0.16.3/arm-zephyr-eabi/lib/gcc/arm-zephyr-eabi/12.2.0/include/stddef.h"
	.file 6 "/home/g/mise-work/zmk-firmware/zmk/zephyr/subsys/bluetooth/controller/./util/util.h"