	.cpu cortex-m4
	.arch armv7e-m
	.fpu fpv4-sp-d16
	.eabi_attribute 27, 1
	.eabi_attribute 28, 1
	.eabi_attribute 20, 1
	.eabi_attribute 21, 1
	.eabi_attribute 23, 3
	.eabi_attribute 24, 1
	.eabi_attribute 25, 1
	.eabi_attribute 26, 1
	.eabi_attribute 30, 2
	.eabi_attribute 34, 1
	.eabi_attribute 38, 1
	.eabi_attribute 18, 4
	.file	"ull_llcp_enc.c"
	.text
.Ltext0:
	.cfi_sections	.debug_frame
	.file 1 "/home/g/mise-work/zmk-firmware/zmk/zephyr/subsys/bluetooth/controller/ll_sw/ull_llcp_enc.c"
	.section	.rodata.llcp_rp_enc_tx.str1.4,"aMS",%progbits,1
	.align	2
.LC0:
	.ascii	"WEST_TOPDIR/zephyr/subsys/bluetooth/controller/ll_s"
	.ascii	"w/ull_llcp_enc.c\000"
	.align	2
.LC1:
	.ascii	"tx\000"
	.align	2
.LC2:
	.ascii	"ASSERTION FAIL [%s] @ %s:%d\012\000"
	.align	2
.LC3:
	.ascii	"0\000"
	.section	.text.llcp_rp_enc_tx,"ax",%progbits
	.align	1
	.p2align 2,,3
	.syntax unified
	.thumb
	.thumb_func
	.type	llcp_rp_enc_tx, %function
llcp_rp_enc_tx:
.LVL0:
.LFB525:
	.loc 1 683 1 view -0
	.cfi_startproc
	@ args = 0, pretend = 0, frame = 0
	@ frame_needed = 0, uses_anonymous_args = 0
	.loc 1 684 2 view .LVU1
	.loc 1 685 2 view .LVU2
	.loc 1 688 2 view .LVU3
	.loc 1 683 1 is_stmt 0 view .LVU4
	push	{r3, r4, r5, r6, r7, lr}
	.cfi_def_cfa_offset 24
	.cfi_offset 3, -24
	.cfi_offset 4, -20
	.cfi_offset 5, -16
	.cfi_offset 6, -12
	.cfi_offset 7, -8
	.cfi_offset 14, -4
	.loc 1 683 1 view .LVU5
	mov	r6, r0
	mov	r7, r1
	mov	r5, r2
	.loc 1 688 7 view .LVU6
	bl	llcp_tx_alloc
.LVL1:
	.loc 1 689 2 is_stmt 1 view .LVU7
	.loc 1 689 7 view .LVU8
	.loc 1 689 10 is_stmt 0 view .LVU9
	mov	r4, r0
	cmp	r0, #0
	beq	.L17
.LVL2:
.L2:
	.loc 1 689 152 is_stmt 1 discriminator 3 view .LVU10
	.loc 1 689 5 discriminator 3 view .LVU11
	.loc 1 691 2 discriminator 3 view .LVU12
	.loc 1 694 2 is_stmt 0 discriminator 3 view .LVU13
	subs	r2, r5, #4
	.loc 1 691 6 discriminator 3 view .LVU14
	adds	r0, r4, #4
.LVL3:
	.loc 1 694 2 is_stmt 1 discriminator 3 view .LVU15
	cmp	r2, #9
	bhi	.L3
	tbb	[pc, r2]
.L5:
	.byte	(.L9-.L5)/2
	.byte	(.L8-.L5)/2
	.byte	(.L7-.L5)/2
	.byte	(.L3-.L5)/2
	.byte	(.L3-.L5)/2
	.byte	(.L3-.L5)/2
	.byte	(.L3-.L5)/2
	.byte	(.L6-.L5)/2
	.byte	(.L3-.L5)/2
	.byte	(.L4-.L5)/2
	.p2align 1
.L3:
	.loc 1 716 3 discriminator 1 view .LVU16
	.loc 1 716 8 discriminator 1 view .LVU17
	.loc 1 716 20 discriminator 1 view .LVU18
	ldr	r2, .L19
	ldr	r1, .L19+4
	ldr	r0, .L19+8
.LVL4:
	.loc 1 716 20 is_stmt 0 discriminator 1 view .LVU19
	mov	r3, #716
	bl	assert_print
.LVL5:
	.loc 1 716 148 is_stmt 1 discriminator 1 view .LVU20
	.loc 1 716 153 discriminator 1 view .LVU21
	.syntax unified
@ 716 "/home/g/mise-work/zmk-firmware/zmk/zephyr/subsys/bluetooth/controller/ll_sw/ull_llcp_enc.c" 1
	eors.n r0, r0
	msr BASEPRI, r0
	mov r0, #3
	svc #2
	
@ 0 "" 2
	.thumb
	.syntax unified
.L10:
	.loc 1 716 151 discriminator 3 view .LVU22
	.loc 1 716 6 discriminator 3 view .LVU23
	.loc 1 719 2 discriminator 3 view .LVU24
	.loc 1 719 30 is_stmt 0 discriminator 3 view .LVU25
	ldrb	r3, [r4, #7]	@ zero_extendqisi2
	.loc 1 719 17 discriminator 3 view .LVU26
	strb	r3, [r7, #13]
	.loc 1 722 2 is_stmt 1 discriminator 3 view .LVU27
	mov	r1, r4
	mov	r0, r6
	bl	llcp_tx_enqueue
.LVL6:
	.loc 1 725 2 discriminator 3 view .LVU28
	mov	r0, r6
	bl	llcp_rr_prt_restart
.LVL7:
	.loc 1 727 2 discriminator 3 view .LVU29
	.loc 1 728 1 is_stmt 0 discriminator 3 view .LVU30
	mov	r0, r4
	pop	{r3, r4, r5, r6, r7, pc}
.LVL8:
.L9:
	.loc 1 696 3 is_stmt 1 view .LVU31
	bl	llcp_pdu_encode_enc_rsp
.LVL9:
	.loc 1 697 3 view .LVU32
	b	.L10
.LVL10:
.L8:
	.loc 1 699 3 view .LVU33
	bl	llcp_pdu_encode_start_enc_req
.LVL11:
	.loc 1 700 3 view .LVU34
	b	.L10
.LVL12:
.L7:
	.loc 1 702 3 view .LVU35
	bl	llcp_pdu_encode_start_enc_rsp
.LVL13:
	.loc 1 703 3 view .LVU36
	b	.L10
.LVL14:
.L6:
	.loc 1 705 3 view .LVU37
	bl	llcp_pdu_encode_pause_enc_rsp
.LVL15:
	.loc 1 706 3 view .LVU38
	b	.L10
.LVL16:
.L4:
	.loc 1 708 3 view .LVU39
	.loc 1 708 6 is_stmt 0 view .LVU40
	ldrb	r3, [r6, #288]	@ zero_extendqisi2
	.loc 1 709 4 view .LVU41
	ldrb	r1, [r7, #86]	@ zero_extendqisi2
	.loc 1 708 6 view .LVU42
	cbz	r3, .L11
.LVL17:
.LBB40:
.LBI40:
	.file 2 "/home/g/mise-work/zmk-firmware/zmk/zephyr/subsys/bluetooth/controller/ll_sw/ull_llcp_features.h"
	.loc 2 35 19 is_stmt 1 view .LVU43
.LBB41:
	.loc 2 38 2 view .LVU44
	.loc 2 38 39 is_stmt 0 view .LVU45
	ldr	r3, [r6, #304]
.LBE41:
.LBE40:
	.loc 1 708 28 view .LVU46
	lsls	r3, r3, #29
	bmi	.L18
.L11:
	.loc 1 712 4 is_stmt 1 view .LVU47
	bl	llcp_pdu_encode_reject_ind
.LVL18:
	.loc 1 712 4 is_stmt 0 view .LVU48
	b	.L10
.LVL19:
.L17:
	.loc 1 689 20 is_stmt 1 discriminator 1 view .LVU49
	ldr	r2, .L19
	ldr	r1, .L19+12
	ldr	r0, .L19+8
.LVL20:
	.loc 1 689 20 is_stmt 0 discriminator 1 view .LVU50
	movw	r3, #689
	bl	assert_print
.LVL21:
	.loc 1 689 149 is_stmt 1 discriminator 1 view .LVU51
	.loc 1 689 154 discriminator 1 view .LVU52
	.syntax unified
@ 689 "/home/g/mise-work/zmk-firmware/zmk/zephyr/subsys/bluetooth/controller/ll_sw/ull_llcp_enc.c" 1
	eors.n r0, r0
	msr BASEPRI, r0
	mov r0, #3
	svc #2
	
@ 0 "" 2
	.thumb
	.syntax unified
	b	.L2
.LVL22:
.L18:
	.loc 1 709 4 view .LVU53
	mov	r2, r1
	ldrb	r1, [r7, #85]	@ zero_extendqisi2
	bl	llcp_pdu_encode_reject_ext_ind
.LVL23:
	.loc 1 709 4 is_stmt 0 view .LVU54
	b	.L10
.L20:
	.align	2
.L19:
	.word	.LC0
	.word	.LC3
	.word	.LC2
	.word	.LC1
	.cfi_endproc
.LFE525:
	.size	llcp_rp_enc_tx, .-llcp_rp_enc_tx
	.section	.rodata.rp_enc_send_enc_rsp.part.0.str1.4,"aMS",%progbits,1
	.align	2
.LC4:
	.ascii	"ntf\000"
	.section	.text.rp_enc_send_enc_rsp.part.0,"ax",%progbits
	.align	1
	.p2align 2,,3
	.syntax unified
	.thumb
	.thumb_func
	.type	rp_enc_send_enc_rsp.part.0, %function
rp_enc_send_enc_rsp.part.0:
.LVL24:
.LFB557:
	.loc 1 803 13 is_stmt 1 view -0
	.cfi_startproc
	@ args = 0, pretend = 0, frame = 0
	@ frame_needed = 0, uses_anonymous_args = 0
	.loc 1 813 3 view .LVU56
	.loc 1 803 13 is_stmt 0 view .LVU57
	push	{r3, r4, r5, r6, r7, lr}
	.cfi_def_cfa_offset 24
	.cfi_offset 3, -24
	.cfi_offset 4, -20
	.cfi_offset 5, -16
	.cfi_offset 6, -12
	.cfi_offset 7, -8
	.cfi_offset 14, -4
	.loc 1 813 8 view .LVU58
	movs	r2, #4
	.loc 1 803 13 view .LVU59
	mov	r4, r1
	mov	r6, r0
	.loc 1 813 8 view .LVU60
	bl	llcp_rp_enc_tx
.LVL25:
	.loc 1 814 3 is_stmt 1 view .LVU61
.LBB50:
.LBI50:
	.loc 1 792 13 view .LVU62
.LBB51:
	.loc 1 795 1 view .LVU63
.LBB52:
.LBI52:
	.file 3 "/home/g/zephyr-sdk-0.16.3/arm-zephyr-eabi/picolibc/include/ssp/string.h"
	.loc 3 83 216 view .LVU64
.LBB53:
	.loc 3 83 292 view .LVU65
	.loc 3 83 299 is_stmt 0 view .LVU66
	ldr	r3, [r0, #8]	@ unaligned
	ldr	r2, [r0, #12]	@ unaligned
	str	r2, [r4, #79]	@ unaligned
.LVL26:
	.loc 3 83 299 view .LVU67
.LBE53:
.LBE52:
	.loc 1 800 1 is_stmt 1 view .LVU68
.LBB55:
.LBI55:
	.loc 3 83 216 view .LVU69
.LBB56:
	.loc 3 83 292 view .LVU70
.LBE56:
.LBE55:
.LBB58:
.LBB54:
	.loc 3 83 299 is_stmt 0 view .LVU71
	str	r3, [r4, #75]	@ unaligned
.LBE54:
.LBE58:
.LBB59:
.LBB57:
	ldr	r3, [r0, #16]	@ unaligned
	str	r3, [r6, #172]	@ unaligned
.LVL27:
	.loc 3 83 299 view .LVU72
.LBE57:
.LBE59:
.LBE51:
.LBE50:
	.loc 1 816 3 is_stmt 1 view .LVU73
.LBB60:
.LBI60:
	.loc 1 730 13 view .LVU74
.LBB61:
	.loc 1 732 2 view .LVU75
	.loc 1 733 2 view .LVU76
	.loc 1 734 2 view .LVU77
	.loc 1 737 2 view .LVU78
	.loc 1 737 6 is_stmt 0 view .LVU79
	ldr	r5, [r4, #28]
.LVL28:
	.loc 1 738 2 is_stmt 1 view .LVU80
	.loc 1 738 19 is_stmt 0 view .LVU81
	movs	r3, #0
	str	r3, [r4, #28]
	.loc 1 739 2 is_stmt 1 view .LVU82
	.loc 1 739 7 view .LVU83
	.loc 1 739 10 is_stmt 0 view .LVU84
	cbz	r5, .L25
.LVL29:
.L22:
	.loc 1 739 154 is_stmt 1 view .LVU85
	.loc 1 739 5 view .LVU86
	.loc 1 741 2 view .LVU87
	.loc 1 743 16 is_stmt 0 view .LVU88
	movs	r3, #3
	.loc 1 741 24 view .LVU89
	ldrb	r7, [r5, #4]	@ zero_extendqisi2
.LVL30:
	.loc 1 743 2 is_stmt 1 view .LVU90
	.loc 1 743 16 is_stmt 0 view .LVU91
	strb	r3, [r5, #4]
.LVL31:
	.loc 1 744 2 is_stmt 1 view .LVU92
	.loc 1 744 29 is_stmt 0 view .LVU93
	ldrh	r3, [r6, #40]
	.loc 1 744 18 view .LVU94
	strh	r3, [r5, #6]	@ movhi
	.loc 1 745 2 is_stmt 1 view .LVU95
	.loc 1 747 2 view .LVU96
	add	r1, r5, #28
	mov	r0, r4
	bl	llcp_ntf_encode_enc_req
.LVL32:
	.loc 1 749 2 view .LVU97
	.loc 1 749 5 is_stmt 0 view .LVU98
	cmp	r7, #44
	beq	.L26
.LVL33:
	.loc 1 749 5 view .LVU99
.LBE61:
.LBE60:
	.loc 1 817 3 is_stmt 1 view .LVU100
	.loc 1 817 14 is_stmt 0 view .LVU101
	movs	r3, #3
	strb	r3, [r4, #10]
	.loc 1 819 1 view .LVU102
	pop	{r3, r4, r5, r6, r7, pc}
.LVL34:
.L26:
.LBB64:
.LBB62:
	.loc 1 751 3 is_stmt 1 view .LVU103
	ldr	r0, [r5]
	mov	r1, r5
	bl	ll_rx_put_sched
.LVL35:
	.loc 1 751 3 is_stmt 0 view .LVU104
.LBE62:
.LBE64:
	.loc 1 817 3 is_stmt 1 view .LVU105
	.loc 1 817 14 is_stmt 0 view .LVU106
	movs	r3, #3
	strb	r3, [r4, #10]
	.loc 1 819 1 view .LVU107
	pop	{r3, r4, r5, r6, r7, pc}
.LVL36:
.L25:
.LBB65:
.LBB63:
	.loc 1 739 21 is_stmt 1 view .LVU108
	ldr	r2, .L27
	ldr	r1, .L27+4
	ldr	r0, .L27+8
.LVL37:
	.loc 1 739 21 is_stmt 0 view .LVU109
	movw	r3, #739
	bl	assert_print
.LVL38:
	.loc 1 739 151 is_stmt 1 view .LVU110
	.loc 1 739 156 view .LVU111
	.syntax unified
@ 739 "/home/g/mise-work/zmk-firmware/zmk/zephyr/subsys/bluetooth/controller/ll_sw/ull_llcp_enc.c" 1
	eors.n r0, r0
	msr BASEPRI, r0
	mov r0, #3
	svc #2
	
@ 0 "" 2
	.thumb
	.syntax unified
	b	.L22
.L28:
	.align	2
.L27:
	.word	.LC0
	.word	.LC4
	.word	.LC2
.LBE63:
.LBE65:
	.cfi_endproc
.LFE557:
	.size	rp_enc_send_enc_rsp.part.0, .-rp_enc_send_enc_rsp.part.0
	.section	.text.rp_enc_send_start_enc_req.constprop.0,"ax",%progbits
	.align	1
	.p2align 2,,3
	.syntax unified
	.thumb
	.thumb_func
	.type	rp_enc_send_start_enc_req.constprop.0, %function
rp_enc_send_start_enc_req.constprop.0:
.LVL39:
.LFB560:
	.loc 1 821 13 view -0
	.cfi_startproc
	@ args = 0, pretend = 0, frame = 0
	@ frame_needed = 0, uses_anonymous_args = 0
	.loc 1 824 2 view .LVU113
	.loc 1 821 13 is_stmt 0 view .LVU114
	push	{r4, r5, r6, lr}
	.cfi_def_cfa_offset 16
	.cfi_offset 4, -16
	.cfi_offset 5, -12
	.cfi_offset 6, -8
	.cfi_offset 14, -4
	.loc 1 821 13 view .LVU115
	mov	r4, r0
	mov	r5, r1
	.loc 1 824 7 view .LVU116
	bl	llcp_tx_alloc_peek
.LVL40:
	.loc 1 824 5 view .LVU117
	cbnz	r0, .L30
	.loc 1 825 3 is_stmt 1 view .LVU118
	.loc 1 825 14 is_stmt 0 view .LVU119
	movs	r3, #5
	strb	r3, [r5, #10]
	.loc 1 836 1 view .LVU120
	pop	{r4, r5, r6, pc}
.LVL41:
.L30:
.LBB78:
.LBI78:
	.loc 1 821 13 is_stmt 1 view .LVU121
.LBB79:
	.loc 1 827 3 view .LVU122
.LBB80:
.LBI80:
	.loc 1 146 13 view .LVU123
.LBB81:
	.loc 1 151 2 view .LVU124
	add	r6, r4, #143
	mov	r3, r6
	movs	r2, #0
	add	r1, r5, #67
	add	r0, r5, #51
	bl	ecb_encrypt
.LVL42:
	.loc 1 154 1 view .LVU125
.LBB82:
.LBI82:
	.loc 3 83 216 view .LVU126
.LBB83:
	.loc 3 83 292 view .LVU127
	.loc 3 83 299 is_stmt 0 view .LVU128
	ldr	r1, [r4, #155]	@ unaligned
	str	r1, [r4, #188]	@ unaligned
.LVL43:
	.loc 3 83 299 view .LVU129
.LBE83:
.LBE82:
	.loc 1 157 1 is_stmt 1 view .LVU130
.LBB88:
.LBI88:
	.loc 3 83 216 view .LVU131
.LBB89:
	.loc 3 83 292 view .LVU132
.LBE89:
.LBE88:
.LBB93:
.LBB84:
	.loc 3 83 299 is_stmt 0 view .LVU133
	ldr	r1, [r4, #143]	@ unaligned
	str	r1, [r4, #176]	@ unaligned
.LBE84:
.LBE93:
.LBB94:
.LBB90:
	ldr	r1, [r4, #168]	@ unaligned
.LBE90:
.LBE94:
.LBB95:
.LBB85:
	ldr	r2, [r4, #147]	@ unaligned
	ldr	r3, [r4, #151]	@ unaligned
.LBE85:
.LBE95:
.LBB96:
.LBB91:
	str	r1, [r4, #201]	@ unaligned
.LBE91:
.LBE96:
	.loc 1 160 27 view .LVU134
	movs	r0, #0
	movs	r1, #0
	strd	r0, [r4, #192]
.LBB97:
.LBB86:
	.loc 3 83 299 view .LVU135
	str	r2, [r4, #180]	@ unaligned
.LBE86:
.LBE97:
	.loc 1 168 30 view .LVU136
	ldrb	r1, [r4, #200]	@ zero_extendqisi2
	.loc 1 169 30 view .LVU137
	ldrb	r2, [r4, #167]	@ zero_extendqisi2
.LBB98:
.LBB87:
	.loc 3 83 299 view .LVU138
	str	r3, [r4, #184]	@ unaligned
.LBE87:
.LBE98:
.LBB99:
.LBB92:
	ldr	r3, [r4, #172]	@ unaligned
	str	r3, [r4, #205]	@ unaligned
.LVL44:
	.loc 3 83 299 view .LVU139
.LBE92:
.LBE99:
	.loc 1 160 2 is_stmt 1 view .LVU140
	.loc 1 161 2 view .LVU141
	.loc 1 161 27 is_stmt 0 view .LVU142
	movs	r3, #0
	.loc 1 168 30 view .LVU143
	bfi	r1, r3, #0, #1
	.loc 1 161 27 view .LVU144
	strb	r3, [r4, #159]
	strb	r3, [r4, #160]
	strb	r3, [r4, #161]
	strb	r3, [r4, #162]
	strb	r3, [r4, #163]
	strb	r3, [r4, #164]
	strb	r3, [r4, #165]
	strb	r3, [r4, #166]
	.loc 1 167 2 is_stmt 1 view .LVU145
	.loc 1 168 3 view .LVU146
	.loc 1 169 30 is_stmt 0 view .LVU147
	orr	r3, r2, #1
	.loc 1 168 30 view .LVU148
	strb	r1, [r4, #200]
	.loc 1 169 3 is_stmt 1 view .LVU149
	.loc 1 169 30 is_stmt 0 view .LVU150
	strb	r3, [r4, #167]
.LVL45:
	.loc 1 169 30 view .LVU151
.LBE81:
.LBE80:
	.loc 1 828 3 is_stmt 1 view .LVU152
	movs	r2, #5
	mov	r1, r5
	mov	r0, r4
	bl	llcp_rp_enc_tx
.LVL46:
	.loc 1 830 3 view .LVU153
	.loc 1 831 3 view .LVU154
	.loc 1 831 14 is_stmt 0 view .LVU155
	movw	r3, #1543
	strh	r3, [r5, #10]	@ movhi
	.loc 1 834 3 is_stmt 1 view .LVU156
	.loc 1 834 20 is_stmt 0 view .LVU157
	ldrb	r3, [r4, #142]	@ zero_extendqisi2
	orr	r3, r3, #8
	strb	r3, [r4, #142]
.LVL47:
	.loc 1 834 20 view .LVU158
.LBE79:
.LBE78:
	.loc 1 836 1 view .LVU159
	pop	{r4, r5, r6, pc}
	.loc 1 836 1 view .LVU160
	.cfi_endproc
.LFE560:
	.size	rp_enc_send_start_enc_req.constprop.0, .-rp_enc_send_start_enc_req.constprop.0
	.section	.text.rp_enc_execute_fsm,"ax",%progbits
	.align	1
	.p2align 2,,3
	.syntax unified
	.thumb
	.thumb_func
	.type	rp_enc_execute_fsm, %function
rp_enc_execute_fsm:
.LVL48:
.LFB549:
	.loc 1 1152 1 is_stmt 1 view -0
	.cfi_startproc
	@ args = 0, pretend = 0, frame = 8
	@ frame_needed = 0, uses_anonymous_args = 0
	.loc 1 1152 1 is_stmt 0 view .LVU162
	push	{r4, r5, r6, lr}
	.cfi_def_cfa_offset 16
	.cfi_offset 4, -16
	.cfi_offset 5, -12
	.cfi_offset 6, -8
	.cfi_offset 14, -4
	mov	r4, r1
	.loc 1 1153 2 view .LVU163
	ldrb	r1, [r1, #10]	@ zero_extendqisi2
.LVL49:
	.loc 1 1152 1 view .LVU164
	sub	sp, sp, #8
	.cfi_def_cfa_offset 24
	.loc 1 1152 1 view .LVU165
	mov	r6, r0
	mov	r5, r2
	.loc 1 1153 2 is_stmt 1 view .LVU166
	cmp	r1, #12
	bhi	.L34
	tbb	[pc, r1]
.LVL50:
.L36:
	.byte	(.L47-.L36)/2
	.byte	(.L46-.L36)/2
	.byte	(.L45-.L36)/2
	.byte	(.L44-.L36)/2
	.byte	(.L43-.L36)/2
	.byte	(.L43-.L36)/2
	.byte	(.L42-.L36)/2
	.byte	(.L41-.L36)/2
	.byte	(.L40-.L36)/2
	.byte	(.L39-.L36)/2
	.byte	(.L38-.L36)/2
	.byte	(.L37-.L36)/2
	.byte	(.L35-.L36)/2
	.p2align 1
.L43:
	.loc 1 1168 3 view .LVU167
.LBB160:
.LBI160:
	.loc 1 1001 13 view .LVU168
.LBB161:
	.loc 1 1004 2 view .LVU169
	cmp	r5, #0
	beq	.L72
.LVL51:
.L33:
	.loc 1 1004 2 is_stmt 0 view .LVU170
.LBE161:
.LBE160:
	.loc 1 1199 1 view .LVU171
	add	sp, sp, #8
	.cfi_remember_state
	.cfi_def_cfa_offset 16
	@ sp needed
	pop	{r4, r5, r6, pc}
.LVL52:
.L42:
	.cfi_restore_state
	.loc 1 1174 3 is_stmt 1 view .LVU172
.LBB164:
.LBI164:
	.loc 1 1027 13 view .LVU173
.LBB165:
	.loc 1 1030 2 view .LVU174
	cmp	r5, #0
	bne	.L33
	.loc 1 1032 3 view .LVU175
.LVL53:
.LBB166:
.LBI166:
	.loc 1 838 13 view .LVU176
.LBB167:
	.loc 1 841 2 view .LVU177
	.loc 1 841 7 is_stmt 0 view .LVU178
	mov	r1, r4
	bl	llcp_tx_alloc_peek
.LVL54:
	.loc 1 841 5 view .LVU179
	cmp	r0, #0
	bne	.L55
	.loc 1 842 3 is_stmt 1 view .LVU180
	.loc 1 842 14 is_stmt 0 view .LVU181
	movs	r3, #6
	strb	r3, [r4, #10]
	b	.L33
.LVL55:
.L41:
	.loc 1 842 14 view .LVU182
.LBE167:
.LBE166:
.LBE165:
.LBE164:
	.loc 1 1177 3 is_stmt 1 view .LVU183
.LBB177:
.LBI177:
	.loc 1 1040 13 view .LVU184
.LBB178:
	.loc 1 1043 2 view .LVU185
	cmp	r5, #2
	bne	.L33
	.loc 1 1045 3 view .LVU186
.LVL56:
.LBB179:
.LBI179:
	.loc 1 786 13 view .LVU187
	.loc 1 788 2 view .LVU188
.LBB180:
.LBI180:
	.loc 1 756 13 view .LVU189
.LBB181:
	.loc 1 758 2 view .LVU190
	.loc 1 759 2 view .LVU191
	.loc 1 762 2 view .LVU192
	.loc 1 762 6 is_stmt 0 view .LVU193
	ldr	r5, [r4, #28]
.LVL57:
	.loc 1 763 2 is_stmt 1 view .LVU194
	.loc 1 763 19 is_stmt 0 view .LVU195
	movs	r3, #0
.LVL58:
	.loc 1 763 19 view .LVU196
	str	r3, [r4, #28]
	.loc 1 764 2 is_stmt 1 view .LVU197
	.loc 1 764 7 view .LVU198
	.loc 1 764 10 is_stmt 0 view .LVU199
	cmp	r5, #0
	beq	.L73
.LVL59:
.L57:
	.loc 1 764 154 is_stmt 1 view .LVU200
	.loc 1 764 5 view .LVU201
	.loc 1 766 2 view .LVU202
	.loc 1 766 16 is_stmt 0 view .LVU203
	movs	r3, #3
	strb	r3, [r5, #4]
	.loc 1 767 2 is_stmt 1 view .LVU204
	.loc 1 767 29 is_stmt 0 view .LVU205
	ldrh	r3, [r6, #40]
	.loc 1 767 18 view .LVU206
	strh	r3, [r5, #6]	@ movhi
	.loc 1 768 2 is_stmt 1 view .LVU207
.LVL60:
	.loc 1 770 2 view .LVU208
	.loc 1 770 9 is_stmt 0 view .LVU209
	ldrb	r3, [r4, #8]	@ zero_extendqisi2
	.loc 1 770 5 view .LVU210
	cmp	r3, #5
	beq	.L74
	.loc 1 774 9 is_stmt 1 view .LVU211
	.loc 1 774 12 is_stmt 0 view .LVU212
	cmp	r3, #6
	bne	.L60
	.loc 1 776 3 is_stmt 1 view .LVU213
	.loc 1 776 17 is_stmt 0 view .LVU214
	movs	r3, #26
	strb	r3, [r5, #4]
.LVL61:
.L59:
	.loc 1 779 151 is_stmt 1 view .LVU215
	.loc 1 779 6 view .LVU216
.LBE181:
.LBE180:
	.loc 1 789 2 view .LVU217
.LBB183:
.LBI183:
	.loc 1 873 13 view .LVU218
.LBB184:
	.loc 1 876 2 view .LVU219
	.loc 1 876 7 is_stmt 0 view .LVU220
	mov	r1, r4
	mov	r0, r6
	bl	llcp_tx_alloc_peek
.LVL62:
	.loc 1 876 5 view .LVU221
	cmp	r0, #0
	bne	.L61
	.loc 1 877 3 is_stmt 1 view .LVU222
	.loc 1 877 14 is_stmt 0 view .LVU223
	movs	r3, #8
	strb	r3, [r4, #10]
	b	.L33
.LVL63:
.L40:
	.loc 1 877 14 view .LVU224
.LBE184:
.LBE183:
.LBE179:
.LBE178:
.LBE177:
	.loc 1 1180 3 is_stmt 1 view .LVU225
.LBB194:
.LBI194:
	.loc 1 1053 13 view .LVU226
.LBB195:
	.loc 1 1056 2 view .LVU227
	cmp	r5, #0
	bne	.L33
	b	.L59
.LVL64:
.L39:
	.loc 1 1056 2 is_stmt 0 view .LVU228
.LBE195:
.LBE194:
	.loc 1 1184 3 is_stmt 1 view .LVU229
.LBB196:
.LBI196:
	.loc 1 1066 13 view .LVU230
.LBB197:
	.loc 1 1069 2 view .LVU231
	cmp	r5, #0
	bne	.L33
	.loc 1 1071 3 view .LVU232
	.loc 1 1071 14 is_stmt 0 view .LVU233
	movs	r3, #10
.LVL65:
	.loc 1 1071 14 view .LVU234
	strb	r3, [r4, #10]
	.loc 1 1072 3 is_stmt 1 view .LVU235
	b	.L33
.LVL66:
.L38:
	.loc 1 1072 3 is_stmt 0 view .LVU236
.LBE197:
.LBE196:
	.loc 1 1187 3 is_stmt 1 view .LVU237
.LBB198:
.LBI198:
	.loc 1 1079 13 view .LVU238
.LBB199:
	.loc 1 1082 2 view .LVU239
	cmp	r5, #7
	bne	.L33
	.loc 1 1105 3 view .LVU240
	movs	r1, #1
	bl	llcp_tx_pause_data
.LVL67:
	.loc 1 1110 3 view .LVU241
	mov	r0, r6
	bl	ull_conn_pause_rx_data
.LVL68:
.L71:
	.loc 1 1111 3 view .LVU242
.LBB200:
.LBI200:
	.loc 1 896 13 view .LVU243
.LBB201:
	.loc 1 899 2 view .LVU244
	.loc 1 899 7 is_stmt 0 view .LVU245
	mov	r1, r4
	mov	r0, r6
	bl	llcp_tx_alloc_peek
.LVL69:
	.loc 1 899 5 view .LVU246
	cmp	r0, #0
	bne	.L63
	.loc 1 900 3 is_stmt 1 view .LVU247
	.loc 1 900 14 is_stmt 0 view .LVU248
	movs	r3, #11
	strb	r3, [r4, #10]
	b	.L33
.LVL70:
.L37:
	.loc 1 900 14 view .LVU249
.LBE201:
.LBE200:
.LBE199:
.LBE198:
	.loc 1 1190 3 is_stmt 1 view .LVU250
.LBB207:
.LBI207:
	.loc 1 1119 13 view .LVU251
.LBB208:
	.loc 1 1122 2 view .LVU252
	cmp	r5, #0
	bne	.L33
	b	.L71
.LVL71:
.L35:
	.loc 1 1122 2 is_stmt 0 view .LVU253
.LBE208:
.LBE207:
	.loc 1 1193 3 is_stmt 1 view .LVU254
.LBB209:
.LBI209:
	.loc 1 1132 13 view .LVU255
.LBB210:
	.loc 1 1135 2 view .LVU256
	cmp	r5, #8
	bne	.L33
	.loc 1 1139 3 view .LVU257
	.loc 1 1140 3 view .LVU258
	.loc 1 1140 14 is_stmt 0 view .LVU259
	movw	r3, #769
.LVL72:
	.loc 1 1140 14 view .LVU260
	strh	r3, [r4, #10]	@ movhi
	.loc 1 1143 3 is_stmt 1 view .LVU261
	.loc 1 1143 20 is_stmt 0 view .LVU262
	ldrb	r3, [r0, #142]	@ zero_extendqisi2
	bfc	r3, #4, #1
	strb	r3, [r0, #142]
	.loc 1 1144 3 is_stmt 1 view .LVU263
	b	.L33
.LVL73:
.L47:
	.loc 1 1144 3 is_stmt 0 view .LVU264
.LBE210:
.LBE209:
	.loc 1 1156 3 is_stmt 1 view .LVU265
.LBB211:
.LBI211:
	.loc 1 912 13 view .LVU266
.LBB212:
	.loc 1 915 2 view .LVU267
	cmp	r5, #0
	bne	.L33
	.loc 1 917 3 view .LVU268
	.loc 1 917 14 is_stmt 0 view .LVU269
	movs	r3, #1
.LVL74:
	.loc 1 917 14 view .LVU270
	strb	r3, [r4, #10]
	.loc 1 918 3 is_stmt 1 view .LVU271
	b	.L33
.LVL75:
.L46:
	.loc 1 918 3 is_stmt 0 view .LVU272
.LBE212:
.LBE211:
	.loc 1 1159 3 is_stmt 1 view .LVU273
.LBB213:
.LBI213:
	.loc 1 944 13 view .LVU274
.LBB214:
	.loc 1 947 2 view .LVU275
	cmp	r5, #1
	bne	.L33
	.loc 1 950 3 view .LVU276
	mov	r1, r5
	str	r3, [sp, #4]
	bl	llcp_tx_pause_data
.LVL76:
	.loc 1 952 3 view .LVU277
	mov	r0, r6
	bl	ull_conn_pause_rx_data
.LVL77:
	.loc 1 955 3 view .LVU278
	mov	r0, r6
	bl	llcp_lr_pause
.LVL78:
	.loc 1 957 3 view .LVU279
.LBB215:
.LBI215:
	.loc 1 925 13 view .LVU280
.LBB216:
	.loc 1 928 1 view .LVU281
.LBB217:
.LBI217:
	.loc 3 83 216 view .LVU282
.LBB218:
	.loc 3 83 292 view .LVU283
	.loc 3 83 299 is_stmt 0 view .LVU284
	ldr	r3, [sp, #4]
	ldr	r2, [r3, #4]	@ unaligned
	ldr	r1, [r3, #8]	@ unaligned
	str	r1, [r4, #45]	@ unaligned
.LVL79:
	.loc 3 83 299 view .LVU285
.LBE218:
.LBE217:
	.loc 1 931 2 is_stmt 1 view .LVU286
.LBB220:
.LBB219:
	.loc 3 83 299 is_stmt 0 view .LVU287
	str	r2, [r4, #41]	@ unaligned
.LBE219:
.LBE220:
	.loc 1 931 50 view .LVU288
	ldrb	r2, [r3, #12]	@ zero_extendqisi2
	.loc 1 931 24 view .LVU289
	strb	r2, [r4, #49]
	.loc 1 932 2 is_stmt 1 view .LVU290
	.loc 1 932 50 is_stmt 0 view .LVU291
	ldrb	r2, [r3, #13]	@ zero_extendqisi2
	.loc 1 932 24 view .LVU292
	strb	r2, [r4, #50]
	.loc 1 935 1 is_stmt 1 view .LVU293
.LVL80:
.LBB221:
.LBI221:
	.loc 3 83 216 view .LVU294
.LBB222:
	.loc 3 83 292 view .LVU295
	.loc 3 83 299 is_stmt 0 view .LVU296
	ldr	r2, [r3, #14]	@ unaligned
	ldr	r1, [r3, #18]	@ unaligned
	str	r1, [r4, #71]	@ unaligned
.LVL81:
	.loc 3 83 299 view .LVU297
.LBE222:
.LBE221:
	.loc 1 941 1 is_stmt 1 view .LVU298
.LBB224:
.LBI224:
	.loc 3 83 216 view .LVU299
.LBB225:
	.loc 3 83 292 view .LVU300
.LBE225:
.LBE224:
.LBB227:
.LBB223:
	.loc 3 83 299 is_stmt 0 view .LVU301
	str	r2, [r4, #67]	@ unaligned
.LBE223:
.LBE227:
.LBB228:
.LBB226:
	ldr	r3, [r3, #22]	@ unaligned
	str	r3, [r6, #168]	@ unaligned
.LVL82:
.L70:
	.loc 3 83 299 view .LVU302
.LBE226:
.LBE228:
.LBE216:
.LBE215:
	.loc 1 959 3 is_stmt 1 view .LVU303
.LBB229:
.LBI229:
	.loc 1 803 13 view .LVU304
.LBB230:
	.loc 1 806 2 view .LVU305
	.loc 1 808 2 view .LVU306
	.loc 1 808 7 is_stmt 0 view .LVU307
	mov	r1, r4
	mov	r0, r6
	bl	llcp_tx_alloc_peek
.LVL83:
	.loc 1 808 5 view .LVU308
	cbnz	r0, .L51
	.loc 1 810 3 is_stmt 1 view .LVU309
	mov	r0, r4
	bl	llcp_rx_node_retain
.LVL84:
	.loc 1 811 3 view .LVU310
	.loc 1 811 14 is_stmt 0 view .LVU311
	movs	r3, #2
	strb	r3, [r4, #10]
	b	.L33
.LVL85:
.L45:
	.loc 1 811 14 view .LVU312
.LBE230:
.LBE229:
.LBE214:
.LBE213:
	.loc 1 1162 3 is_stmt 1 view .LVU313
.LBB237:
.LBI237:
	.loc 1 967 13 view .LVU314
.LBB238:
	.loc 1 970 2 view .LVU315
	cmp	r5, #0
	bne	.L33
	b	.L70
.LVL86:
.L44:
	.loc 1 970 2 is_stmt 0 view .LVU316
.LBE238:
.LBE237:
	.loc 1 1165 3 is_stmt 1 view .LVU317
.LBB239:
.LBI239:
	.loc 1 980 13 view .LVU318
.LBB240:
	.loc 1 983 2 view .LVU319
	cmp	r5, #3
	beq	.L53
	cmp	r5, #4
	bne	.L33
	.loc 1 989 3 view .LVU320
	.loc 1 989 23 is_stmt 0 view .LVU321
	movs	r3, #6
.LVL87:
	.loc 1 990 37 view .LVU322
	movw	r2, #1539
	.loc 1 989 23 view .LVU323
	strb	r3, [r4, #40]
	.loc 1 990 3 is_stmt 1 view .LVU324
	.loc 1 991 3 view .LVU325
	.loc 1 990 37 is_stmt 0 view .LVU326
	strh	r2, [r4, #85]	@ unaligned
	.loc 1 993 3 is_stmt 1 view .LVU327
	.loc 1 993 14 is_stmt 0 view .LVU328
	strb	r3, [r4, #10]
	.loc 1 994 3 is_stmt 1 view .LVU329
	b	.L33
.LVL88:
.L53:
	.loc 1 986 3 view .LVU330
	.loc 1 986 14 is_stmt 0 view .LVU331
	movs	r3, #4
.LVL89:
	.loc 1 986 14 view .LVU332
	strb	r3, [r4, #10]
	.loc 1 987 3 is_stmt 1 view .LVU333
	b	.L33
.LVL90:
.L72:
	.loc 1 987 3 is_stmt 0 view .LVU334
.LBE240:
.LBE239:
.LBB241:
.LBB162:
	.loc 1 1006 3 is_stmt 1 view .LVU335
	mov	r1, r4
.LBE162:
.LBE241:
	.loc 1 1199 1 is_stmt 0 view .LVU336
	add	sp, sp, #8
	.cfi_remember_state
	.cfi_def_cfa_offset 16
	@ sp needed
	pop	{r4, r5, r6, lr}
	.cfi_restore 14
	.cfi_restore 6
	.cfi_restore 5
	.cfi_restore 4
	.cfi_def_cfa_offset 0
.LVL91:
.LBB242:
.LBB163:
	.loc 1 1006 3 view .LVU337
	b	rp_enc_send_start_enc_req.constprop.0
.LVL92:
.L51:
	.cfi_restore_state
	.loc 1 1006 3 view .LVU338
.LBE163:
.LBE242:
.LBB243:
.LBB235:
.LBB233:
.LBB231:
	mov	r1, r4
	mov	r0, r6
.LBE231:
.LBE233:
.LBE235:
.LBE243:
	.loc 1 1199 1 view .LVU339
	add	sp, sp, #8
	.cfi_remember_state
	.cfi_def_cfa_offset 16
	@ sp needed
	pop	{r4, r5, r6, lr}
	.cfi_restore 14
	.cfi_restore 6
	.cfi_restore 5
	.cfi_restore 4
	.cfi_def_cfa_offset 0
.LVL93:
.LBB244:
.LBB236:
.LBB234:
.LBB232:
	.loc 1 1199 1 view .LVU340
	b	rp_enc_send_enc_rsp.part.0
.LVL94:
.L63:
	.cfi_restore_state
	.loc 1 1199 1 view .LVU341
.LBE232:
.LBE234:
.LBE236:
.LBE244:
.LBB245:
.LBB206:
.LBB205:
.LBB204:
.LBB202:
.LBI202:
	.loc 1 896 13 is_stmt 1 view .LVU342
.LBB203:
	.loc 1 902 3 view .LVU343
	movs	r2, #11
	mov	r1, r4
	mov	r0, r6
	bl	llcp_rp_enc_tx
.LVL95:
	.loc 1 904 3 view .LVU344
	.loc 1 905 3 view .LVU345
	.loc 1 905 14 is_stmt 0 view .LVU346
	movw	r3, #2828
	strh	r3, [r4, #10]	@ movhi
	.loc 1 908 3 is_stmt 1 view .LVU347
	.loc 1 908 20 is_stmt 0 view .LVU348
	ldrb	r3, [r6, #142]	@ zero_extendqisi2
	bfc	r3, #3, #1
	strb	r3, [r6, #142]
	.loc 1 910 1 view .LVU349
	b	.L33
.LVL96:
.L61:
	.loc 1 910 1 view .LVU350
.LBE203:
.LBE202:
.LBE204:
.LBE205:
.LBE206:
.LBE245:
.LBB246:
.LBB192:
.LBB190:
.LBB188:
.LBB187:
.LBB185:
.LBI185:
	.loc 1 873 13 is_stmt 1 view .LVU351
.LBB186:
	.loc 1 879 3 view .LVU352
	movs	r2, #6
	mov	r1, r4
	mov	r0, r6
	bl	llcp_rp_enc_tx
.LVL97:
	.loc 1 880 3 view .LVU353
	mov	r0, r6
	bl	llcp_rr_complete
.LVL98:
	.loc 1 881 3 view .LVU354
	.loc 1 881 14 is_stmt 0 view .LVU355
	movs	r3, #0
	strb	r3, [r4, #10]
	.loc 1 884 3 is_stmt 1 view .LVU356
	movs	r1, #1
	mov	r0, r6
	bl	llcp_tx_resume_data
.LVL99:
	.loc 1 886 3 view .LVU357
	mov	r0, r6
	bl	ull_conn_resume_rx_data
.LVL100:
	.loc 1 889 3 view .LVU358
	mov	r0, r6
	bl	llcp_lr_resume
.LVL101:
	.loc 1 892 3 view .LVU359
	.loc 1 892 20 is_stmt 0 view .LVU360
	ldrb	r3, [r6, #142]	@ zero_extendqisi2
	orr	r3, r3, #16
	strb	r3, [r6, #142]
	.loc 1 894 1 view .LVU361
	b	.L33
.LVL102:
.L55:
	.loc 1 894 1 view .LVU362
.LBE186:
.LBE185:
.LBE187:
.LBE188:
.LBE190:
.LBE192:
.LBE246:
.LBB247:
.LBB174:
.LBB171:
.LBB168:
	.loc 1 844 3 is_stmt 1 view .LVU363
	movs	r2, #13
	mov	r1, r4
	mov	r0, r6
	bl	llcp_rp_enc_tx
.LVL103:
	.loc 1 845 3 view .LVU364
	mov	r0, r6
	bl	llcp_rr_complete
.LVL104:
	.loc 1 847 3 view .LVU365
	.loc 1 847 20 is_stmt 0 view .LVU366
	ldrb	r3, [r4, #40]	@ zero_extendqisi2
	.loc 1 847 6 view .LVU367
	cmp	r3, #6
	beq	.L75
	.loc 1 861 10 is_stmt 1 view .LVU368
	.loc 1 861 13 is_stmt 0 view .LVU369
	cmp	r3, #36
	beq	.L33
	.loc 1 868 4 is_stmt 1 view .LVU370
	.loc 1 868 9 view .LVU371
	.loc 1 868 21 view .LVU372
	ldr	r2, .L76
	ldr	r1, .L76+4
	ldr	r0, .L76+8
	mov	r3, #868
	bl	assert_print
.LVL105:
	.loc 1 868 149 view .LVU373
	.loc 1 868 154 view .LVU374
	.syntax unified
@ 868 "/home/g/mise-work/zmk-firmware/zmk/zephyr/subsys/bluetooth/controller/ll_sw/ull_llcp_enc.c" 1
	eors.n r0, r0
	msr BASEPRI, r0
	mov r0, #3
	svc #2
	
@ 0 "" 2
	.thumb
	.syntax unified
	b	.L33
.LVL106:
.L60:
	.loc 1 868 154 is_stmt 0 view .LVU375
.LBE168:
.LBE171:
.LBE174:
.LBE247:
.LBB248:
.LBB193:
.LBB191:
.LBB189:
.LBB182:
	.loc 1 779 3 is_stmt 1 view .LVU376
	.loc 1 779 8 view .LVU377
	.loc 1 779 20 view .LVU378
	ldr	r2, .L76
	ldr	r1, .L76+4
	ldr	r0, .L76+8
	movw	r3, #779
	bl	assert_print
.LVL107:
	.loc 1 779 148 view .LVU379
	.loc 1 779 153 view .LVU380
	.syntax unified
@ 779 "/home/g/mise-work/zmk-firmware/zmk/zephyr/subsys/bluetooth/controller/ll_sw/ull_llcp_enc.c" 1
	eors.n r0, r0
	msr BASEPRI, r0
	mov r0, #3
	svc #2
	
@ 0 "" 2
	.thumb
	.syntax unified
	b	.L59
.L74:
	.loc 1 773 3 view .LVU381
	add	r0, r5, #28
	bl	llcp_pdu_encode_start_enc_rsp
.LVL108:
	b	.L59
.LVL109:
.L73:
	.loc 1 764 21 view .LVU382
	ldr	r2, .L76
	ldr	r1, .L76+12
	ldr	r0, .L76+8
.LVL110:
	.loc 1 764 21 is_stmt 0 view .LVU383
	mov	r3, #764
	bl	assert_print
.LVL111:
	.loc 1 764 151 is_stmt 1 view .LVU384
	.loc 1 764 156 view .LVU385
	.syntax unified
@ 764 "/home/g/mise-work/zmk-firmware/zmk/zephyr/subsys/bluetooth/controller/ll_sw/ull_llcp_enc.c" 1
	eors.n r0, r0
	msr BASEPRI, r0
	mov r0, #3
	svc #2
	
@ 0 "" 2
	.thumb
	.syntax unified
	b	.L57
.LVL112:
.L75:
	.loc 1 764 156 is_stmt 0 view .LVU386
.LBE182:
.LBE189:
.LBE191:
.LBE193:
.LBE248:
.LBB249:
.LBB175:
.LBB172:
.LBB169:
	.loc 1 853 4 is_stmt 1 view .LVU387
	.loc 1 856 4 is_stmt 0 view .LVU388
	movs	r1, #1
	mov	r0, r6
	.loc 1 853 15 view .LVU389
	strb	r5, [r4, #10]
	.loc 1 856 4 is_stmt 1 view .LVU390
	bl	llcp_tx_resume_data
.LVL113:
	.loc 1 858 4 view .LVU391
	mov	r0, r6
	bl	ull_conn_resume_rx_data
.LVL114:
	.loc 1 860 4 view .LVU392
	mov	r0, r6
.LBE169:
.LBE172:
.LBE175:
.LBE249:
	.loc 1 1199 1 is_stmt 0 view .LVU393
	add	sp, sp, #8
	.cfi_remember_state
	.cfi_def_cfa_offset 16
	@ sp needed
	pop	{r4, r5, r6, lr}
	.cfi_restore 14
	.cfi_restore 6
	.cfi_restore 5
	.cfi_restore 4
	.cfi_def_cfa_offset 0
.LVL115:
.LBB250:
.LBB176:
.LBB173:
.LBB170:
	.loc 1 860 4 view .LVU394
	b	llcp_lr_resume
.LVL116:
.L34:
	.cfi_restore_state
	.loc 1 860 4 view .LVU395
.LBE170:
.LBE173:
.LBE176:
.LBE250:
	.loc 1 1197 3 is_stmt 1 discriminator 1 view .LVU396
	.loc 1 1197 8 discriminator 1 view .LVU397
	.loc 1 1197 20 discriminator 1 view .LVU398
	ldr	r2, .L76
	ldr	r1, .L76+4
	ldr	r0, .L76+8
.LVL117:
	.loc 1 1197 20 is_stmt 0 discriminator 1 view .LVU399
	movw	r3, #1197
.LVL118:
	.loc 1 1197 20 discriminator 1 view .LVU400
	bl	assert_print
.LVL119:
	.loc 1 1197 149 is_stmt 1 discriminator 1 view .LVU401
	.loc 1 1197 154 discriminator 1 view .LVU402
	.syntax unified
@ 1197 "/home/g/mise-work/zmk-firmware/zmk/zephyr/subsys/bluetooth/controller/ll_sw/ull_llcp_enc.c" 1
	eors.n r0, r0
	msr BASEPRI, r0
	mov r0, #3
	svc #2
	
@ 0 "" 2
	.loc 1 1197 152 discriminator 1 view .LVU403
	.loc 1 1197 6 discriminator 1 view .LVU404
	.loc 1 1199 1 is_stmt 0 discriminator 1 view .LVU405
	.thumb
	.syntax unified
	b	.L33
.L77:
	.align	2
.L76:
	.word	.LC0
	.word	.LC3
	.word	.LC2
	.word	.LC4
	.cfi_endproc
.LFE549:
	.size	rp_enc_execute_fsm, .-rp_enc_execute_fsm
	.section	.text.llcp_rp_enc_rx,"ax",%progbits
	.align	1
	.p2align 2,,3
	.global	llcp_rp_enc_rx
	.syntax unified
	.thumb
	.thumb_func
	.type	llcp_rp_enc_rx, %function
llcp_rp_enc_rx:
.LVL120:
.LFB550:
	.loc 1 1202 1 is_stmt 1 view -0
	.cfi_startproc
	@ args = 0, pretend = 0, frame = 0
	@ frame_needed = 0, uses_anonymous_args = 0
	@ link register save eliminated.
	.loc 1 1203 2 view .LVU407
	.loc 1 1205 2 is_stmt 0 view .LVU408
	ldrb	ip, [r2, #31]	@ zero_extendqisi2
	sub	ip, ip, #3
	.loc 1 1203 19 view .LVU409
	add	r3, r2, #28
.LVL121:
	.loc 1 1205 2 is_stmt 1 view .LVU410
	cmp	ip, #8
	bhi	.L79
	tbb	[pc, ip]
.LVL122:
.L81:
	.byte	(.L84-.L81)/2
	.byte	(.L79-.L81)/2
	.byte	(.L79-.L81)/2
	.byte	(.L83-.L81)/2
	.byte	(.L79-.L81)/2
	.byte	(.L79-.L81)/2
	.byte	(.L79-.L81)/2
	.byte	(.L82-.L81)/2
	.byte	(.L80-.L81)/2
	.p2align 1
.L79:
	.loc 1 1236 3 view .LVU411
	.loc 1 1236 37 is_stmt 0 view .LVU412
	movs	r3, #61
.LVL123:
	.loc 1 1236 37 view .LVU413
	strb	r3, [r0, #336]
	.loc 1 1238 1 view .LVU414
	bx	lr
.LVL124:
.L80:
	.loc 1 1216 3 is_stmt 1 view .LVU415
	movs	r2, #8
	b	rp_enc_execute_fsm
.LVL125:
.L82:
	.loc 1 1213 3 view .LVU416
	movs	r2, #7
	b	rp_enc_execute_fsm
.LVL126:
.L83:
	.loc 1 1210 3 view .LVU417
	movs	r2, #2
	b	rp_enc_execute_fsm
.LVL127:
.L84:
	.loc 1 1207 3 view .LVU418
	movs	r2, #1
	b	rp_enc_execute_fsm
.LVL128:
	.loc 1 1207 3 is_stmt 0 view .LVU419
	.cfi_endproc
.LFE550:
	.size	llcp_rp_enc_rx, .-llcp_rp_enc_rx
	.section	.text.llcp_rp_enc_init_proc,"ax",%progbits
	.align	1
	.p2align 2,,3
	.global	llcp_rp_enc_init_proc
	.syntax unified
	.thumb
	.thumb_func
	.type	llcp_rp_enc_init_proc, %function
llcp_rp_enc_init_proc:
.LVL129:
.LFB551:
	.loc 1 1241 1 is_stmt 1 view -0
	.cfi_startproc
	@ args = 0, pretend = 0, frame = 0
	@ frame_needed = 0, uses_anonymous_args = 0
	.loc 1 1242 2 view .LVU421
	.loc 1 1241 1 is_stmt 0 view .LVU422
	push	{r3, lr}
	.cfi_def_cfa_offset 8
	.cfi_offset 3, -8
	.cfi_offset 14, -4
	.loc 1 1242 13 view .LVU423
	ldrb	r3, [r0, #8]	@ zero_extendqisi2
	.loc 1 1242 2 view .LVU424
	cmp	r3, #5
	beq	.L86
	cmp	r3, #6
	beq	.L87
	.loc 1 1250 3 is_stmt 1 discriminator 1 view .LVU425
	.loc 1 1250 8 discriminator 1 view .LVU426
	.loc 1 1250 20 discriminator 1 view .LVU427
	ldr	r2, .L92
	ldr	r1, .L92+4
	ldr	r0, .L92+8
.LVL130:
	.loc 1 1250 20 is_stmt 0 discriminator 1 view .LVU428
	movw	r3, #1250
	bl	assert_print
.LVL131:
	.loc 1 1250 149 is_stmt 1 discriminator 1 view .LVU429
	.loc 1 1250 154 discriminator 1 view .LVU430
	.syntax unified
@ 1250 "/home/g/mise-work/zmk-firmware/zmk/zephyr/subsys/bluetooth/controller/ll_sw/ull_llcp_enc.c" 1
	eors.n r0, r0
	msr BASEPRI, r0
	mov r0, #3
	svc #2
	
@ 0 "" 2
	.loc 1 1250 152 discriminator 1 view .LVU431
	.loc 1 1250 6 discriminator 1 view .LVU432
	.loc 1 1252 1 is_stmt 0 discriminator 1 view .LVU433
	.thumb
	.syntax unified
	pop	{r3, pc}
.LVL132:
.L86:
	.loc 1 1244 3 is_stmt 1 view .LVU434
	.loc 1 1244 14 is_stmt 0 view .LVU435
	movs	r3, #0
	strb	r3, [r0, #10]
	.loc 1 1245 3 is_stmt 1 view .LVU436
	.loc 1 1252 1 is_stmt 0 view .LVU437
	pop	{r3, pc}
.L87:
	.loc 1 1247 3 is_stmt 1 view .LVU438
	.loc 1 1247 14 is_stmt 0 view .LVU439
	movs	r3, #9
	strb	r3, [r0, #10]
	.loc 1 1248 3 is_stmt 1 view .LVU440
	.loc 1 1252 1 is_stmt 0 view .LVU441
	pop	{r3, pc}
.L93:
	.align	2
.L92:
	.word	.LC0
	.word	.LC3
	.word	.LC2
	.cfi_endproc
.LFE551:
	.size	llcp_rp_enc_init_proc, .-llcp_rp_enc_init_proc
	.section	.text.llcp_rp_enc_ltk_req_reply,"ax",%progbits
	.align	1
	.p2align 2,,3
	.global	llcp_rp_enc_ltk_req_reply
	.syntax unified
	.thumb
	.thumb_func
	.type	llcp_rp_enc_ltk_req_reply, %function
llcp_rp_enc_ltk_req_reply:
.LVL133:
.LFB552:
	.loc 1 1255 1 is_stmt 1 view -0
	.cfi_startproc
	@ args = 0, pretend = 0, frame = 0
	@ frame_needed = 0, uses_anonymous_args = 0
	@ link register save eliminated.
	.loc 1 1256 2 view .LVU443
	movs	r3, #0
	movs	r2, #3
	b	rp_enc_execute_fsm
.LVL134:
	.loc 1 1256 2 is_stmt 0 view .LVU444
	.cfi_endproc
.LFE552:
	.size	llcp_rp_enc_ltk_req_reply, .-llcp_rp_enc_ltk_req_reply
	.section	.text.llcp_rp_enc_ltk_req_neg_reply,"ax",%progbits
	.align	1
	.p2align 2,,3
	.global	llcp_rp_enc_ltk_req_neg_reply
	.syntax unified
	.thumb
	.thumb_func
	.type	llcp_rp_enc_ltk_req_neg_reply, %function
llcp_rp_enc_ltk_req_neg_reply:
.LVL135:
.LFB553:
	.loc 1 1260 1 is_stmt 1 view -0
	.cfi_startproc
	@ args = 0, pretend = 0, frame = 0
	@ frame_needed = 0, uses_anonymous_args = 0
	@ link register save eliminated.
	.loc 1 1261 2 view .LVU446
	movs	r3, #0
	movs	r2, #4
	b	rp_enc_execute_fsm
.LVL136:
	.loc 1 1261 2 is_stmt 0 view .LVU447
	.cfi_endproc
.LFE553:
	.size	llcp_rp_enc_ltk_req_neg_reply, .-llcp_rp_enc_ltk_req_neg_reply
	.section	.text.llcp_rp_enc_ltk_req_reply_allowed,"ax",%progbits
	.align	1
	.p2align 2,,3
	.global	llcp_rp_enc_ltk_req_reply_allowed
	.syntax unified
	.thumb
	.thumb_func
	.type	llcp_rp_enc_ltk_req_reply_allowed, %function
llcp_rp_enc_ltk_req_reply_allowed:
.LVL137:
.LFB554:
	.loc 1 1265 1 is_stmt 1 view -0
	.cfi_startproc
	@ args = 0, pretend = 0, frame = 0
	@ frame_needed = 0, uses_anonymous_args = 0
	@ link register save eliminated.
	.loc 1 1266 2 view .LVU449
	.loc 1 1266 21 is_stmt 0 view .LVU450
	ldrb	r0, [r1, #10]	@ zero_extendqisi2
.LVL138:
	.loc 1 1267 1 view .LVU451
	sub	r0, #3
	clz	r0, r0
	lsrs	r0, r0, #5
	bx	lr
	.cfi_endproc
.LFE554:
	.size	llcp_rp_enc_ltk_req_reply_allowed, .-llcp_rp_enc_ltk_req_reply_allowed
	.section	.text.llcp_rp_enc_run,"ax",%progbits
	.align	1
	.p2align 2,,3
	.global	llcp_rp_enc_run
	.syntax unified
	.thumb
	.thumb_func
	.type	llcp_rp_enc_run, %function
llcp_rp_enc_run:
.LVL139:
.LFB555:
	.loc 1 1270 1 is_stmt 1 view -0
	.cfi_startproc
	@ args = 0, pretend = 0, frame = 0
	@ frame_needed = 0, uses_anonymous_args = 0
	@ link register save eliminated.
	.loc 1 1271 2 view .LVU453
	.loc 1 1270 1 is_stmt 0 view .LVU454
	mov	r3, r2
	.loc 1 1271 2 view .LVU455
	movs	r2, #0
.LVL140:
	.loc 1 1271 2 view .LVU456
	b	rp_enc_execute_fsm
.LVL141:
	.loc 1 1271 2 view .LVU457
	.cfi_endproc
.LFE555:
	.size	llcp_rp_enc_run, .-llcp_rp_enc_run
	.text
.Letext0:
	.file 4 "/home/g/zephyr-sdk-0.16.3/arm-zephyr-eabi/lib/gcc/arm-zephyr-eabi/12.2.0/include/stddef.h"
	.file 5 "/home/g/zephyr-sdk-0.16.3/arm-zephyr-eabi/picolibc/include/machine/_default_types.h"
	.file 6 "/home/g/zephyr-sdk-0.16.3/arm-zephyr-eabi/picolibc/include/sys/_stdint.h"
	.file 7 "/home/g/mise-work/zmk-firmware/zmk/zephyr/include/zephyr/sys/slist.h"
	.file 8 "/home/g/mise-work/zmk-firmware/zmk/zephyr/subsys/bluetooth/controller/./hal/ccm.h"
	.file 9 "/home/g/mise-work/zmk-firmware/zmk/zephyr/subsys/bluetooth/controller/./util/memq.h"
	.file 10 "/home/g/mise-work/zmk-firmware/zmk/zephyr/subsys/bluetooth/controller/ll_sw/pdu_df.h"
	.file 11 "/home/g/mise-work/zmk-firmware/zmk/zephyr/subsys/bluetooth/controller/ll_sw/nordic/lll/pdu_vendor.h"
	.file 12 "/home/g/mise-work/zmk-firmware/zmk/zephyr/include/zephyr/fatal_types.h"
	.file 13 "/home/g/mise-work/zmk-firmware/zmk/zephyr/subsys/bluetooth/controller/ll_sw/pdu.h"
	.file 14 "/home/g/mise-work/zmk-firmware/zmk/zephyr/subsys/bluetooth/controller/ll_sw/lll.h"
	.file 15 "/home/g/mise-work/zmk-firmware/zmk/zephyr/subsys/bluetooth/controller/ll_sw/nordic/lll/lll_df_types.h"
	.file 16 "/home/g/mise-work/zmk-firmware/zmk/zephyr/subsys/bluetooth/controller/ll_sw/lll_conn.h"
	.file 17 "/home/g/mise-work/zmk-firmware/zmk/zephyr/subsys/bluetooth/controller/ll_sw/ull_tx_queue.h"
	.file 18 "/home/g/mise-work/zmk-firmware/zmk/zephyr/subsys/bluetooth/controller/ll_sw/ull_conn_types.h"
	.file 19 "/home/g/mise-work/zmk-firmware/zmk/zephyr/subsys/bluetooth/controller/ll_sw/ull_llcp_internal.h"
	.file 20 "/home/g/mise-work/zmk-firmware/zmk/zephyr/subsys/bluetooth/controller/ll_sw/ull_conn_internal.h"
	.file 21 "/home/g/mise-work/zmk-firmware/zmk/zephyr/subsys/bluetooth/controller/./hal/ecb.h"
	.file 22 "/home/g/mise-work/zmk-firmware/zmk/zephyr/subsys/bluetooth/controller/ll_sw/ull_internal.h"
	.file 23 "/home/g/mise-work/zmk-firmware/zmk/zephyr/include/zephyr/sys/__assert.h"