	.cpu cortex-m4
	.arch armv7e-m
	.fpu fpv4-sp-d16
	.eabi_attribute 27, 1
	.eabi_attribute 28, 1
	.eabi_attribute 20, 1
	.eabi_attribute 21, 1
	.eabi_attribute 23, 3
	.eabi_attribute 24, 1
	.eabi_attribute 25, 1
	.eabi_attribute 26, 1
	.eabi_attribute 30, 2
	.eabi_attribute 34, 1
	.eabi_attribute 38, 1
	.eabi_attribute 18, 4
	.file	"ull_filter.c"
	.text
.Ltext0:
	.cfi_sections	.debug_frame
	.file 1 "/home/g/mise-work/zmk-firmware/zmk/zephyr/subsys/bluetooth/controller/ll_sw/ull_filter.c"
	.section	.text.rl_update,"ax",%progbits
	.align	1
	.p2align 2,,3
	.syntax unified
	.thumb
	.thumb_func
	.type	rl_update, %function
rl_update:
.LFB643:
	.loc 1 1131 1 view -0
	.cfi_startproc
	@ args = 0, pretend = 0, frame = 0
	@ frame_needed = 0, uses_anonymous_args = 0
	.loc 1 1132 2 view .LVU1
	.loc 1 1135 2 view .LVU2
.LVL0:
	.loc 1 1135 17 view .LVU3
	ldr	r1, .L11
	ldr	r0, .L11+4
	.loc 1 1131 1 is_stmt 0 view .LVU4
	push	{r4, r5, r6, r7, r8, lr}
	.cfi_def_cfa_offset 24
	.cfi_offset 4, -24
	.cfi_offset 5, -20
	.cfi_offset 6, -16
	.cfi_offset 7, -12
	.cfi_offset 8, -8
	.cfi_offset 14, -4
	.loc 1 1131 1 view .LVU5
	movs	r3, #0
	subs	r5, r0, #1
.LBB93:
.LBB94:
	.loc 1 1350 25 view .LVU6
	sub	ip, r1, #2
	.loc 1 1350 33 view .LVU7
	movs	r6, #1
	b	.L3
.LVL1:
.L2:
	.loc 1 1350 33 view .LVU8
.LBE94:
.LBE93:
	.loc 1 1135 17 discriminator 2 view .LVU9
	adds	r3, r3, #1
.LVL2:
	.loc 1 1135 17 discriminator 2 view .LVU10
	cmp	r3, #8
	add	r1, r1, #6
	add	r0, r0, #40
	beq	.L10
.LVL3:
.L3:
	.loc 1 1136 3 is_stmt 1 view .LVU11
	.loc 1 1135 23 view .LVU12
	.loc 1 1135 17 view .LVU13
	.loc 1 1136 12 is_stmt 0 view .LVU14
	add	r2, r3, r3, lsl #2
	ldrb	r2, [r5, r2, lsl #3]	@ zero_extendqisi2
	.loc 1 1136 6 view .LVU15
	lsls	r4, r2, #31
	bpl	.L2
	.loc 1 1137 4 is_stmt 1 view .LVU16
.LBB108:
.LBB103:
	.loc 1 1350 25 is_stmt 0 view .LVU17
	ldrb	r4, [ip]	@ zero_extendqisi2
	.loc 1 1351 28 view .LVU18
	ldrb	lr, [ip, #1]	@ zero_extendqisi2
.LBB95:
.LBB96:
	.file 2 "/home/g/zephyr-sdk-0.16.3/arm-zephyr-eabi/picolibc/include/ssp/string.h"
	.loc 2 83 299 view .LVU19
	ldr	r8, [r0]	@ unaligned
.LBE96:
.LBE95:
.LBE103:
.LBE108:
	.loc 1 1137 38 view .LVU20
	ubfx	r2, r2, #6, #1
.LVL4:
.LBB109:
.LBI93:
	.loc 1 1347 13 is_stmt 1 view .LVU21
.LBB104:
	.loc 1 1350 2 view .LVU22
	.loc 1 1350 33 is_stmt 0 view .LVU23
	lsl	r7, r6, r3
	.loc 1 1351 51 view .LVU24
	lsls	r2, r2, r3
.LBE104:
.LBE109:
	.loc 1 1135 17 view .LVU25
	adds	r3, r3, #1
.LVL5:
.LBB110:
.LBB105:
	.loc 1 1350 25 view .LVU26
	orrs	r4, r4, r7
	.loc 1 1351 28 view .LVU27
	orr	r2, lr, r2
.LBB100:
.LBB97:
	.loc 2 83 299 view .LVU28
	ldrh	r7, [r0, #4]	@ unaligned
	strh	r7, [r1, #4]	@ unaligned
.LVL6:
	.loc 2 83 299 view .LVU29
.LBE97:
.LBE100:
.LBE105:
.LBE110:
	.loc 1 1135 17 view .LVU30
	cmp	r3, #8
.LBB111:
.LBB106:
	.loc 1 1350 25 view .LVU31
	strb	r4, [ip]
	.loc 1 1351 2 is_stmt 1 view .LVU32
	.loc 1 1351 28 is_stmt 0 view .LVU33
	strb	r2, [ip, #1]
	.loc 1 1352 2 is_stmt 1 view .LVU34
.LVL7:
.LBB101:
.LBI95:
	.loc 2 83 216 view .LVU35
.LBB98:
	.loc 2 83 292 view .LVU36
	.loc 2 83 292 is_stmt 0 view .LVU37
.LBE98:
.LBE101:
.LBE106:
.LBE111:
	.loc 1 1135 17 view .LVU38
	add	r1, r1, #6
.LBB112:
.LBB107:
.LBB102:
.LBB99:
	.loc 2 83 299 view .LVU39
	str	r8, [r1, #-6]	@ unaligned
.LBE99:
.LBE102:
.LBE107:
.LBE112:
	.loc 1 1135 17 view .LVU40
	add	r0, r0, #40
.LVL8:
	.loc 1 1135 17 view .LVU41
	bne	.L3
.LVL9:
.L10:
	.loc 1 1141 1 view .LVU42
	pop	{r4, r5, r6, r7, r8, pc}
.L12:
	.align	2
.L11:
	.word	rl_filter+2
	.word	rl+1
	.cfi_endproc
.LFE643:
	.size	rl_update, .-rl_update
	.section	.text.fal_update,"ax",%progbits
	.align	1
	.p2align 2,,3
	.syntax unified
	.thumb
	.thumb_func
	.type	fal_update, %function
fal_update:
.LFB642:
	.loc 1 1109 1 is_stmt 1 view -0
	.cfi_startproc
	@ args = 0, pretend = 0, frame = 0
	@ frame_needed = 0, uses_anonymous_args = 0
	.loc 1 1110 2 view .LVU44
	.loc 1 1113 2 view .LVU45
.LVL10:
	.loc 1 1113 17 view .LVU46
	ldr	r0, .L31
	ldr	r2, .L31+4
	.loc 1 1109 1 is_stmt 0 view .LVU47
	push	{r4, r5, r6, r7, r8, r9, r10, lr}
	.cfi_def_cfa_offset 32
	.cfi_offset 4, -32
	.cfi_offset 5, -28
	.cfi_offset 6, -24
	.cfi_offset 7, -20
	.cfi_offset 8, -16
	.cfi_offset 9, -12
	.cfi_offset 10, -8
	.cfi_offset 14, -4
.LBB118:
	.loc 1 1122 7 view .LVU48
	ldr	r7, .L31+8
	.loc 1 1122 186 view .LVU49
	ldr	r8, .L31+12
.LBE118:
	.loc 1 1109 1 view .LVU50
	movs	r3, #0
	subs	r5, r2, #2
.LBB133:
.LBB119:
.LBB120:
	.loc 1 1350 25 view .LVU51
	sub	ip, r0, #2
	.loc 1 1350 33 view .LVU52
	movs	r6, #1
.LVL11:
.L16:
	.loc 1 1350 33 view .LVU53
.LBE120:
.LBE119:
	.loc 1 1114 3 is_stmt 1 view .LVU54
	.loc 1 1116 3 view .LVU55
	.loc 1 1120 3 view .LVU56
	.loc 1 1124 4 view .LVU57
.LBE133:
	.loc 1 1113 23 view .LVU58
	.loc 1 1113 17 view .LVU59
.LBB134:
	.loc 1 1116 14 is_stmt 0 view .LVU60
	ldrb	r1, [r5, r3, lsl #3]	@ zero_extendqisi2
	.loc 1 1116 6 view .LVU61
	lsls	r1, r1, #31
.LBB130:
.LBB127:
	.loc 1 1350 33 view .LVU62
	lsl	r9, r6, r3
.LBE127:
.LBE130:
	.loc 1 1116 6 view .LVU63
	bpl	.L14
	.loc 1 1122 6 view .LVU64
	ldrb	r4, [r7]	@ zero_extendqisi2
	.loc 1 1120 5 view .LVU65
	ldrb	r1, [r2, #-1]	@ zero_extendqisi2
.LVL12:
	.loc 1 1122 3 is_stmt 1 view .LVU66
	.loc 1 1122 6 is_stmt 0 view .LVU67
	cbz	r4, .L15
	.loc 1 1122 18 discriminator 1 view .LVU68
	cmp	r1, #7
	.loc 1 1122 186 discriminator 1 view .LVU69
	add	r4, r1, r1, lsl #2
	.loc 1 1122 18 discriminator 1 view .LVU70
	bhi	.L15
	.loc 1 1122 186 discriminator 2 view .LVU71
	ldrb	r1, [r8, r4, lsl #3]	@ zero_extendqisi2
.LVL13:
	.loc 1 1122 177 discriminator 2 view .LVU72
	lsls	r4, r1, #29
	bpl	.L15
	.loc 1 1122 192 discriminator 3 view .LVU73
	lsls	r1, r1, #27
	bpl	.L14
.L15:
	.loc 1 1124 40 view .LVU74
	ldrb	r1, [r5, r3, lsl #3]	@ zero_extendqisi2
.LBB131:
.LBB128:
	.loc 1 1351 28 view .LVU75
	ldrb	lr, [ip, #1]	@ zero_extendqisi2
	.loc 1 1350 25 view .LVU76
	ldrb	r4, [ip]	@ zero_extendqisi2
.LBB121:
.LBB122:
	.loc 2 83 299 view .LVU77
	ldr	r10, [r2]	@ unaligned
.LBE122:
.LBE121:
.LBE128:
.LBE131:
	.loc 1 1124 40 view .LVU78
	ubfx	r1, r1, #1, #1
.LVL14:
.LBB132:
.LBI119:
	.loc 1 1347 13 is_stmt 1 view .LVU79
.LBB129:
	.loc 1 1350 2 view .LVU80
	.loc 1 1351 51 is_stmt 0 view .LVU81
	lsls	r1, r1, r3
	.loc 1 1351 28 view .LVU82
	orr	r1, lr, r1
	.loc 1 1350 25 view .LVU83
	orr	r4, r4, r9
.LBB125:
.LBB123:
	.loc 2 83 299 view .LVU84
	ldrh	lr, [r2, #4]	@ unaligned
.LBE123:
.LBE125:
	.loc 1 1350 25 view .LVU85
	strb	r4, [ip]
.LVL15:
	.loc 1 1351 2 is_stmt 1 view .LVU86
	.loc 1 1351 28 is_stmt 0 view .LVU87
	strb	r1, [ip, #1]
	.loc 1 1352 2 is_stmt 1 view .LVU88
.LVL16:
.LBB126:
.LBI121:
	.loc 2 83 216 view .LVU89
.LBB124:
	.loc 2 83 292 view .LVU90
	.loc 2 83 299 is_stmt 0 view .LVU91
	strh	lr, [r0, #4]	@ unaligned
	str	r10, [r0]	@ unaligned
.LVL17:
.L14:
	.loc 2 83 299 view .LVU92
.LBE124:
.LBE126:
.LBE129:
.LBE132:
.LBE134:
	.loc 1 1113 17 discriminator 2 view .LVU93
	adds	r3, r3, #1
.LVL18:
	.loc 1 1113 17 discriminator 2 view .LVU94
	cmp	r3, #8
	add	r0, r0, #6
	add	r2, r2, #8
	bne	.L16
	.loc 1 1128 1 view .LVU95
	pop	{r4, r5, r6, r7, r8, r9, r10, pc}
.L32:
	.align	2
.L31:
	.word	fal_filter+2
	.word	fal+2
	.word	rl_enable
	.word	rl
	.cfi_endproc
.LFE642:
	.size	fal_update, .-fal_update
	.section	.text.ll_fal_size_get,"ax",%progbits
	.align	1
	.p2align 2,,3
	.global	ll_fal_size_get
	.syntax unified
	.thumb
	.thumb_func
	.type	ll_fal_size_get, %function
ll_fal_size_get:
.LFB601:
	.loc 1 200 1 is_stmt 1 view -0
	.cfi_startproc
	@ args = 0, pretend = 0, frame = 0
	@ frame_needed = 0, uses_anonymous_args = 0
	@ link register save eliminated.
	.loc 1 201 2 view .LVU97
	.loc 1 202 1 is_stmt 0 view .LVU98
	movs	r0, #8
	bx	lr
	.cfi_endproc
.LFE601:
	.size	ll_fal_size_get, .-ll_fal_size_get
	.section	.text.ll_fal_clear,"ax",%progbits
	.align	1
	.p2align 2,,3
	.global	ll_fal_clear
	.syntax unified
	.thumb
	.thumb_func
	.type	ll_fal_clear, %function
ll_fal_clear:
.LFB602:
	.loc 1 205 1 is_stmt 1 view -0
	.cfi_startproc
	@ args = 0, pretend = 0, frame = 0
	@ frame_needed = 0, uses_anonymous_args = 0
	.loc 1 207 2 view .LVU100
	.loc 1 205 1 is_stmt 0 view .LVU101
	push	{r3, r4, r5, lr}
	.cfi_def_cfa_offset 16
	.cfi_offset 3, -16
	.cfi_offset 4, -12
	.cfi_offset 5, -8
	.cfi_offset 14, -4
	.loc 1 207 6 view .LVU102
	movs	r0, #0
	bl	ull_adv_filter_pol_get
.LVL19:
	.loc 1 207 5 view .LVU103
	cbnz	r0, .L38
	ldr	r4, .L41
.LBB139:
.LBB140:
.LBB141:
	.loc 1 1032 14 view .LVU104
	ldr	r5, .L41+4
	subs	r2, r4, #1
.L37:
.LVL20:
	.loc 1 1029 3 is_stmt 1 view .LVU105
	.loc 1 1032 4 view .LVU106
	.loc 1 1034 3 view .LVU107
	.loc 1 1029 11 is_stmt 0 view .LVU108
	ldrb	r3, [r4, r0, lsl #3]	@ zero_extendqisi2
.LVL21:
	.loc 1 1031 3 is_stmt 1 view .LVU109
	.loc 1 1031 6 is_stmt 0 view .LVU110
	cmp	r3, #7
	.loc 1 1032 14 view .LVU111
	add	r1, r3, r3, lsl #2
	.loc 1 1031 6 view .LVU112
	bhi	.L36
	.loc 1 1032 14 view .LVU113
	ldrb	r3, [r5, r1, lsl #3]	@ zero_extendqisi2
.LVL22:
	.loc 1 1032 14 view .LVU114
	bfc	r3, #5, #1
	strb	r3, [r5, r1, lsl #3]
.L36:
	.loc 1 1034 16 view .LVU115
	ldrb	r3, [r2, r0, lsl #3]	@ zero_extendqisi2
	bfc	r3, #0, #1
	strb	r3, [r2, r0, lsl #3]
.LVL23:
	.loc 1 1034 16 view .LVU116
.LBE141:
	.loc 1 1028 26 is_stmt 1 view .LVU117
	adds	r0, r0, #1
.LVL24:
	.loc 1 1028 20 view .LVU118
	cmp	r0, #8
	bne	.L37
.LBE140:
.LBE139:
	.loc 1 224 9 is_stmt 0 view .LVU119
	movs	r0, #0
.LVL25:
	.loc 1 225 1 view .LVU120
	pop	{r3, r4, r5, pc}
.L38:
	.loc 1 208 10 view .LVU121
	movs	r0, #12
	.loc 1 225 1 view .LVU122
	pop	{r3, r4, r5, pc}
.L42:
	.align	2
.L41:
	.word	fal+1
	.word	rl
	.cfi_endproc
.LFE602:
	.size	ll_fal_clear, .-ll_fal_clear
	.section	.text.ll_fal_add,"ax",%progbits
	.align	1
	.p2align 2,,3
	.global	ll_fal_add
	.syntax unified
	.thumb
	.thumb_func
	.type	ll_fal_add, %function
ll_fal_add:
.LVL26:
.LFB603:
	.loc 1 228 1 is_stmt 1 view -0
	.cfi_startproc
	@ args = 0, pretend = 0, frame = 8
	@ frame_needed = 0, uses_anonymous_args = 0
	.loc 1 230 2 view .LVU124
	.loc 1 228 1 is_stmt 0 view .LVU125
	push	{r4, r5, r6, r7, r8, r9, r10, fp, lr}
	.cfi_def_cfa_offset 36
	.cfi_offset 4, -36
	.cfi_offset 5, -32
	.cfi_offset 6, -28
	.cfi_offset 7, -24
	.cfi_offset 8, -20
	.cfi_offset 9, -16
	.cfi_offset 10, -12
	.cfi_offset 11, -8
	.cfi_offset 14, -4
	mov	r8, r0
	sub	sp, sp, #12
	.cfi_def_cfa_offset 48
	.loc 1 230 6 view .LVU126
	movs	r0, #0
.LVL27:
	.loc 1 230 6 view .LVU127
	bl	ull_adv_filter_pol_get
.LVL28:
	.loc 1 230 5 view .LVU128
	cmp	r0, #0
	bne	.L54
	.loc 1 241 10 view .LVU129
	ldrb	r3, [r8]	@ zero_extendqisi2
	.loc 1 241 5 view .LVU130
	cmp	r3, #255
	mov	r5, r0
	.loc 1 241 2 is_stmt 1 view .LVU131
	.loc 1 241 5 is_stmt 0 view .LVU132
	beq	.L44
	.loc 1 246 2 is_stmt 1 view .LVU133
.LVL29:
.LBB154:
.LBI154:
	.loc 1 1059 17 view .LVU134
.LBB155:
	.loc 1 1061 2 view .LVU135
	.loc 1 1063 2 view .LVU136
	ldr	r6, .L70
	.loc 1 1063 40 is_stmt 0 view .LVU137
	add	r9, r8, #1
.LVL30:
.LBB156:
.LBI156:
	.loc 1 1038 16 is_stmt 1 view .LVU138
.LBB157:
	.loc 1 1041 2 view .LVU139
	.loc 1 1043 2 view .LVU140
	.loc 1 1044 3 view .LVU141
	.loc 1 1047 16 view .LVU142
	.loc 1 1044 13 is_stmt 0 view .LVU143
	mov	r10, #255
.LBE157:
.LBE156:
	.loc 1 1063 40 view .LVU144
	mov	r4, r0
	subs	r7, r6, #2
.LBB160:
.LBB158:
	.loc 1 1048 59 view .LVU145
	and	fp, r3, #1
	b	.L48
.LVL31:
.L68:
	.loc 1 1048 21 view .LVU146
	cmp	r1, fp
	beq	.L66
.L46:
	.loc 1 1047 22 is_stmt 1 view .LVU147
	adds	r4, r4, #1
.LVL32:
	.loc 1 1047 16 view .LVU148
	cmp	r4, #8
	add	r6, r6, #8
	beq	.L67
.LVL33:
.L48:
	.loc 1 1048 3 view .LVU149
	.loc 1 1050 10 view .LVU150
	.loc 1 1048 14 is_stmt 0 view .LVU151
	ldrb	r2, [r7, r4, lsl #3]	@ zero_extendqisi2
	.loc 1 1048 31 view .LVU152
	ubfx	r1, r2, #1, #1
	.loc 1 1048 6 view .LVU153
	lsls	r2, r2, #31
	bmi	.L68
	.loc 1 1050 40 view .LVU154
	cmp	r10, #255
	.loc 1 1052 4 is_stmt 1 view .LVU155
	it	eq
	uxtbeq	r10, r4
.LVL34:
	.loc 1 1047 22 view .LVU156
	adds	r4, r4, #1
.LVL35:
	.loc 1 1047 16 view .LVU157
	cmp	r4, #8
	add	r6, r6, #8
	bne	.L48
.L67:
.LVL36:
	.loc 1 1047 16 is_stmt 0 view .LVU158
.LBE158:
.LBE160:
	.loc 1 1066 2 is_stmt 1 view .LVU159
	.loc 1 1068 9 view .LVU160
	.loc 1 1068 12 is_stmt 0 view .LVU161
	cmp	r10, #7
	bhi	.L56
	.loc 1 1072 2 is_stmt 1 view .LVU162
.LVL37:
	.loc 1 1074 2 view .LVU163
	.loc 1 1074 22 is_stmt 0 view .LVU164
	ldrb	r2, [r7, r10, lsl #3]	@ zero_extendqisi2
	bfi	r2, r3, #1, #1
	strb	r2, [r7, r10, lsl #3]
	.loc 1 1075 2 is_stmt 1 view .LVU165
.LVL38:
.LBB161:
.LBI161:
	.file 3 "/home/g/mise-work/zmk-firmware/zmk/zephyr/include/zephyr/bluetooth/addr.h"
	.loc 3 127 20 view .LVU166
	.loc 3 129 1 view .LVU167
.LBB162:
.LBI162:
	.loc 3 127 20 view .LVU168
.LBB163:
.LBI163:
	.loc 2 83 216 view .LVU169
.LBB164:
	.loc 2 83 292 view .LVU170
.LBE164:
.LBE163:
.LBE162:
.LBE161:
	.loc 1 1075 2 is_stmt 0 view .LVU171
	movs	r3, #2
	smlabb	r4, r4, r10, r3
.LBB171:
.LBB169:
.LBB167:
.LBB165:
	.loc 2 83 299 view .LVU172
	ldr	r3, [r8, #1]	@ unaligned
	str	r3, [r7, r4]	@ unaligned
.LBE165:
.LBE167:
.LBE169:
.LBE171:
	.loc 1 1075 2 view .LVU173
	add	r4, r4, r7
.LBB172:
.LBB170:
.LBB168:
.LBB166:
	.loc 2 83 299 view .LVU174
	ldrh	r3, [r9, #4]	@ unaligned
	strh	r3, [r4, #4]	@ unaligned
.LVL39:
	.loc 2 83 299 view .LVU175
.LBE166:
.LBE168:
.LBE170:
.LBE172:
	.loc 1 1077 2 is_stmt 1 view .LVU176
	.loc 1 1077 6 is_stmt 0 view .LVU177
	ldrb	fp, [r8]	@ zero_extendqisi2
.LVL40:
.LBB173:
.LBI173:
	.loc 1 826 9 is_stmt 1 view .LVU178
.LBB174:
	.loc 1 829 2 view .LVU179
	.loc 1 831 2 view .LVU180
	.loc 1 835 17 view .LVU181
	ldr	r4, .L70+4
	.loc 1 836 60 is_stmt 0 view .LVU182
	and	fp, fp, #1
.LVL41:
	.loc 1 836 60 view .LVU183
	subs	r6, r4, #1
	b	.L52
.LVL42:
.L50:
	.loc 1 838 10 is_stmt 1 view .LVU184
	.loc 1 835 23 view .LVU185
	.loc 1 835 17 view .LVU186
	adds	r5, r5, #1
.LVL43:
	.loc 1 835 17 is_stmt 0 view .LVU187
	cmp	r5, #8
	add	r4, r4, #40
	beq	.L69
.LVL44:
.L52:
	.loc 1 836 3 is_stmt 1 view .LVU188
	.loc 1 836 13 is_stmt 0 view .LVU189
	add	r3, r5, r5, lsl #2
	lsl	r8, r3, #3
	ldrb	r3, [r6, r3, lsl #3]	@ zero_extendqisi2
	.loc 1 836 29 view .LVU190
	ubfx	r2, r3, #6, #1
	.loc 1 836 6 view .LVU191
	lsls	r3, r3, #31
	bpl	.L50
	.loc 1 836 20 view .LVU192
	cmp	r2, fp
	bne	.L50
	.loc 1 836 72 view .LVU193
	mov	r0, r4
	movs	r2, #6
	mov	r1, r9
	bl	memcmp
.LVL45:
	.loc 1 836 68 view .LVU194
	cmp	r0, #0
	bne	.L50
.LBE174:
.LBE173:
	.loc 1 1080 13 view .LVU195
	ldrb	r3, [r6, r8]	@ zero_extendqisi2
	orr	r3, r3, #32
	strb	r3, [r6, r8]
	uxtb	r5, r5
.LVL46:
	.loc 1 1078 2 is_stmt 1 view .LVU196
	.loc 1 1079 3 view .LVU197
	.loc 1 1080 3 view .LVU198
.L53:
	.loc 1 1084 15 is_stmt 0 view .LVU199
	ldrb	r3, [r7, r10, lsl #3]	@ zero_extendqisi2
	add	r2, r7, r10, lsl #3
	orr	r3, r3, #1
	strb	r3, [r7, r10, lsl #3]
	strb	r5, [r2, #1]
	.loc 1 1084 2 is_stmt 1 view .LVU200
	.loc 1 1086 2 view .LVU201
.LVL47:
.L47:
	.loc 1 1082 17 is_stmt 0 view .LVU202
	movs	r0, #0
.LVL48:
.L44:
	.loc 1 1082 17 view .LVU203
.LBE155:
.LBE154:
	.loc 1 250 1 view .LVU204
	add	sp, sp, #12
	.cfi_remember_state
	.cfi_def_cfa_offset 36
	@ sp needed
	pop	{r4, r5, r6, r7, r8, r9, r10, fp, pc}
.LVL49:
.L66:
	.cfi_restore_state
.LBB178:
.LBB176:
.LBB175:
.LBB159:
	.loc 1 1048 71 view .LVU205
	mov	r0, r6
	movs	r2, #6
	mov	r1, r9
	str	r3, [sp, #4]
	bl	memcmp
.LVL50:
	.loc 1 1048 67 view .LVU206
	ldr	r3, [sp, #4]
	cmp	r0, #0
	bne	.L46
.LVL51:
	.loc 1 1048 67 view .LVU207
	b	.L47
.LVL52:
.L54:
	.loc 1 1048 67 view .LVU208
.LBE159:
.LBE175:
.LBE176:
.LBE178:
	.loc 1 231 10 view .LVU209
	movs	r0, #12
	.loc 1 250 1 view .LVU210
	add	sp, sp, #12
	.cfi_remember_state
	.cfi_def_cfa_offset 36
	@ sp needed
	pop	{r4, r5, r6, r7, r8, r9, r10, fp, pc}
.LVL53:
.L69:
	.cfi_restore_state
.LBB179:
.LBB177:
	.loc 1 1082 17 view .LVU211
	movs	r5, #255
	b	.L53
.LVL54:
.L56:
	.loc 1 1082 17 view .LVU212
	movs	r0, #7
.LVL55:
	.loc 1 1082 17 view .LVU213
.LBE177:
.LBE179:
	.loc 1 250 1 view .LVU214
	add	sp, sp, #12
	.cfi_def_cfa_offset 36
	@ sp needed
	pop	{r4, r5, r6, r7, r8, r9, r10, fp, pc}
.LVL56:
.L71:
	.loc 1 250 1 view .LVU215
	.align	2
.L70:
	.word	fal+2
	.word	rl+1
	.cfi_endproc
.LFE603:
	.size	ll_fal_add, .-ll_fal_add
	.section	.text.ll_fal_remove,"ax",%progbits
	.align	1
	.p2align 2,,3
	.global	ll_fal_remove
	.syntax unified
	.thumb
	.thumb_func
	.type	ll_fal_remove, %function
ll_fal_remove:
.LVL57:
.LFB604:
	.loc 1 253 1 is_stmt 1 view -0
	.cfi_startproc
	@ args = 0, pretend = 0, frame = 0
	@ frame_needed = 0, uses_anonymous_args = 0
	.loc 1 255 2 view .LVU217
	.loc 1 253 1 is_stmt 0 view .LVU218
	push	{r4, r5, r6, r7, r8, lr}
	.cfi_def_cfa_offset 24
	.cfi_offset 4, -24
	.cfi_offset 5, -20
	.cfi_offset 6, -16
	.cfi_offset 7, -12
	.cfi_offset 8, -8
	.cfi_offset 14, -4
	.loc 1 253 1 view .LVU219
	mov	r6, r0
	.loc 1 255 6 view .LVU220
	movs	r0, #0
.LVL58:
	.loc 1 255 6 view .LVU221
	bl	ull_adv_filter_pol_get
.LVL59:
	.loc 1 255 5 view .LVU222
	cbnz	r0, .L79
	.loc 1 266 10 view .LVU223
	ldrb	r8, [r6]	@ zero_extendqisi2
	.loc 1 266 5 view .LVU224
	cmp	r8, #255
	mov	r4, r0
	.loc 1 266 2 is_stmt 1 view .LVU225
	.loc 1 266 5 is_stmt 0 view .LVU226
	beq	.L73
	.loc 1 271 2 is_stmt 1 view .LVU227
.LVL60:
.LBB185:
.LBI185:
	.loc 1 1089 17 view .LVU228
.LBB186:
	.loc 1 1092 2 view .LVU229
	ldr	r5, .L87
	.loc 1 1092 48 is_stmt 0 view .LVU230
	adds	r6, r6, #1
.LVL61:
.LBB187:
.LBI187:
	.loc 1 1038 16 is_stmt 1 view .LVU231
.LBB188:
	.loc 1 1041 2 view .LVU232
	.loc 1 1043 2 view .LVU233
	.loc 1 1047 16 view .LVU234
	subs	r7, r5, #2
	.loc 1 1048 59 is_stmt 0 view .LVU235
	and	r8, r8, #1
.LVL62:
	.loc 1 1048 59 view .LVU236
	b	.L77
.LVL63:
.L74:
	.loc 1 1050 10 is_stmt 1 view .LVU237
	.loc 1 1047 22 view .LVU238
	adds	r4, r4, #1
.LVL64:
	.loc 1 1047 16 view .LVU239
	cmp	r4, #8
	add	r5, r5, #8
	beq	.L86
.LVL65:
.L77:
	.loc 1 1048 3 view .LVU240
	.loc 1 1048 14 is_stmt 0 view .LVU241
	ldrb	r3, [r7, r4, lsl #3]	@ zero_extendqisi2
	.loc 1 1048 31 view .LVU242
	ubfx	r2, r3, #1, #1
	.loc 1 1048 6 view .LVU243
	lsls	r3, r3, #31
	bpl	.L74
	.loc 1 1048 21 view .LVU244
	cmp	r2, r8
	bne	.L74
	.loc 1 1048 71 view .LVU245
	movs	r2, #6
	mov	r0, r5
	mov	r1, r6
	bl	memcmp
.LVL66:
	.loc 1 1048 67 view .LVU246
	cmp	r0, #0
	bne	.L74
	.loc 1 1049 4 is_stmt 1 view .LVU247
.LVL67:
	.loc 1 1049 4 is_stmt 0 view .LVU248
.LBE188:
.LBE187:
	.loc 1 1094 2 is_stmt 1 view .LVU249
.LBB190:
	.loc 1 1095 3 view .LVU250
	.loc 1 1095 11 is_stmt 0 view .LVU251
	add	r3, r7, r4, lsl #3
	ldrb	r3, [r3, #1]	@ zero_extendqisi2
.LVL68:
	.loc 1 1097 3 is_stmt 1 view .LVU252
	.loc 1 1097 6 is_stmt 0 view .LVU253
	cmp	r3, #7
	bhi	.L76
	.loc 1 1098 4 is_stmt 1 view .LVU254
	.loc 1 1098 14 is_stmt 0 view .LVU255
	ldr	r2, .L87+4
	add	r3, r3, r3, lsl #2
.LVL69:
	.loc 1 1098 14 view .LVU256
	ldrb	r1, [r2, r3, lsl #3]	@ zero_extendqisi2
	bfi	r1, r0, #5, #1
	strb	r1, [r2, r3, lsl #3]
.L76:
	.loc 1 1100 3 is_stmt 1 view .LVU257
	.loc 1 1100 16 is_stmt 0 view .LVU258
	ldrb	r3, [r7, r4, lsl #3]	@ zero_extendqisi2
	bfc	r3, #0, #1
	strb	r3, [r7, r4, lsl #3]
	.loc 1 1102 3 is_stmt 1 view .LVU259
.LVL70:
	.loc 1 1102 10 is_stmt 0 view .LVU260
	movs	r0, #0
.LVL71:
.L73:
	.loc 1 1102 10 view .LVU261
.LBE190:
.LBE186:
.LBE185:
	.loc 1 275 1 view .LVU262
	pop	{r4, r5, r6, r7, r8, pc}
.LVL72:
.L86:
.LBB193:
.LBB192:
.LBB191:
.LBB189:
	.loc 1 275 1 view .LVU263
	movs	r0, #2
.LBE189:
.LBE191:
.LBE192:
.LBE193:
	pop	{r4, r5, r6, r7, r8, pc}
.LVL73:
.L79:
	.loc 1 256 10 view .LVU264
	movs	r0, #12
	.loc 1 275 1 view .LVU265
	pop	{r4, r5, r6, r7, r8, pc}
.LVL74:
.L88:
	.loc 1 275 1 view .LVU266
	.align	2
.L87:
	.word	fal+2
	.word	rl
	.cfi_endproc
.LFE604:
	.size	ll_fal_remove, .-ll_fal_remove
	.section	.rodata.ll_rl_id_addr_get.str1.4,"aMS",%progbits,1
	.align	2
.LC0:
	.ascii	"WEST_TOPDIR/zephyr/subsys/bluetooth/controller/ll_s"
	.ascii	"w/ull_filter.c\000"
	.align	2
.LC1:
	.ascii	"rl_idx < 8\000"
	.align	2
.LC2:
	.ascii	"ASSERTION FAIL [%s] @ %s:%d\012\000"
	.align	2
.LC3:
	.ascii	"rl[rl_idx].taken\000"
	.section	.text.ll_rl_id_addr_get,"ax",%progbits
	.align	1
	.p2align 2,,3
	.global	ll_rl_id_addr_get
	.syntax unified
	.thumb
	.thumb_func
	.type	ll_rl_id_addr_get, %function
ll_rl_id_addr_get:
.LVL75:
.LFB605:
	.loc 1 279 1 is_stmt 1 view -0
	.cfi_startproc
	@ args = 0, pretend = 0, frame = 0
	@ frame_needed = 0, uses_anonymous_args = 0
	.loc 1 280 2 view .LVU268
	.loc 1 280 7 view .LVU269
	.loc 1 280 10 is_stmt 0 view .LVU270
	cmp	r0, #7
	.loc 1 279 1 view .LVU271
	push	{r4, r5, r6, r7, r8, lr}
	.cfi_def_cfa_offset 24
	.cfi_offset 4, -24
	.cfi_offset 5, -20
	.cfi_offset 6, -16
	.cfi_offset 7, -12
	.cfi_offset 8, -8
	.cfi_offset 14, -4
	.loc 1 279 1 view .LVU272
	mov	r4, r0
	mov	r7, r1
	mov	r5, r2
	.loc 1 280 10 view .LVU273
	bhi	.L93
.LVL76:
.L90:
	.loc 1 280 166 is_stmt 1 discriminator 3 view .LVU274
	.loc 1 280 5 discriminator 3 view .LVU275
	.loc 1 281 2 discriminator 3 view .LVU276
	.loc 1 281 7 discriminator 3 view .LVU277
	.loc 1 281 23 is_stmt 0 discriminator 3 view .LVU278
	ldr	r6, .L95
	add	r3, r4, r4, lsl #2
	lsl	r8, r4, #2
	ldrb	r3, [r6, r3, lsl #3]	@ zero_extendqisi2
	.loc 1 281 10 discriminator 3 view .LVU279
	lsls	r3, r3, #31
	bpl	.L94
.L91:
	.loc 1 281 178 is_stmt 1 discriminator 3 view .LVU280
	.loc 1 281 5 discriminator 3 view .LVU281
	.loc 1 283 2 discriminator 3 view .LVU282
	.loc 1 283 28 is_stmt 0 discriminator 3 view .LVU283
	add	r8, r8, r4
	.loc 1 284 25 discriminator 3 view .LVU284
	movs	r2, #1
	.loc 1 283 28 discriminator 3 view .LVU285
	ldrb	r3, [r6, r8, lsl #3]	@ zero_extendqisi2
	ubfx	r3, r3, #6, #1
	.loc 1 283 16 discriminator 3 view .LVU286
	strb	r3, [r7]
	.loc 1 284 2 is_stmt 1 discriminator 3 view .LVU287
.LVL77:
.LBB194:
.LBI194:
	.loc 2 83 216 discriminator 3 view .LVU288
.LBB195:
	.loc 2 83 292 discriminator 3 view .LVU289
.LBE195:
.LBE194:
	.loc 1 284 25 is_stmt 0 discriminator 3 view .LVU290
	movs	r3, #40
	smlabb	r3, r3, r4, r2
	adds	r2, r6, r3
.LBB197:
.LBB196:
	.loc 2 83 299 discriminator 3 view .LVU291
	ldr	r3, [r6, r3]	@ unaligned
	str	r3, [r5]	@ unaligned
	ldrh	r3, [r2, #4]	@ unaligned
	strh	r3, [r5, #4]	@ unaligned
.LVL78:
	.loc 2 83 299 discriminator 3 view .LVU292
.LBE196:
.LBE197:
	.loc 1 285 1 discriminator 3 view .LVU293
	pop	{r4, r5, r6, r7, r8, pc}
.LVL79:
.L93:
	.loc 1 280 28 is_stmt 1 discriminator 1 view .LVU294
	ldr	r2, .L95+4
.LVL80:
	.loc 1 280 28 is_stmt 0 discriminator 1 view .LVU295
	ldr	r1, .L95+8
.LVL81:
	.loc 1 280 28 discriminator 1 view .LVU296
	ldr	r0, .L95+12
.LVL82:
	.loc 1 280 28 discriminator 1 view .LVU297
	mov	r3, #280
	bl	assert_print
.LVL83:
	.loc 1 280 163 is_stmt 1 discriminator 1 view .LVU298
	.loc 1 280 168 discriminator 1 view .LVU299
	.syntax unified
@ 280 "/home/g/mise-work/zmk-firmware/zmk/zephyr/subsys/bluetooth/controller/ll_sw/ull_filter.c" 1
	eors.n r0, r0
	msr BASEPRI, r0
	mov r0, #3
	svc #2
	
@ 0 "" 2
	.thumb
	.syntax unified
	b	.L90
.L94:
	.loc 1 281 34 discriminator 1 view .LVU300
	ldr	r2, .L95+4
	ldr	r1, .L95+16
	ldr	r0, .L95+12
	movw	r3, #281
	bl	assert_print
.LVL84:
	.loc 1 281 175 discriminator 1 view .LVU301
	.loc 1 281 180 discriminator 1 view .LVU302
	.syntax unified
@ 281 "/home/g/mise-work/zmk-firmware/zmk/zephyr/subsys/bluetooth/controller/ll_sw/ull_filter.c" 1
	eors.n r0, r0
	msr BASEPRI, r0
	mov r0, #3
	svc #2
	
@ 0 "" 2
	.thumb
	.syntax unified
	b	.L91
.L96:
	.align	2
.L95:
	.word	rl
	.word	.LC0
	.word	.LC1
	.word	.LC2
	.word	.LC3
	.cfi_endproc
.LFE605:
	.size	ll_rl_id_addr_get, .-ll_rl_id_addr_get
	.section	.text.ll_rl_size_get,"ax",%progbits
	.align	1
	.p2align 2,,3
	.global	ll_rl_size_get
	.syntax unified
	.thumb
	.thumb_func
	.type	ll_rl_size_get, %function
ll_rl_size_get:
.LFB656:
	.cfi_startproc
	.loc 1 287 9 view -0
	@ args = 0, pretend = 0, frame = 0
	@ frame_needed = 0, uses_anonymous_args = 0
	@ link register save eliminated.
	movs	r0, #8
	bx	lr
	.cfi_endproc
.LFE656:
	.size	ll_rl_size_get, .-ll_rl_size_get
	.section	.text.ll_rl_clear,"ax",%progbits
	.align	1
	.p2align 2,,3
	.global	ll_rl_clear
	.syntax unified
	.thumb
	.thumb_func
	.type	ll_rl_clear, %function
ll_rl_clear:
.LFB607:
	.loc 1 293 1 view -0
	.cfi_startproc
	@ args = 0, pretend = 0, frame = 0
	@ frame_needed = 0, uses_anonymous_args = 0
	.loc 1 294 2 view .LVU305
.LVL85:
.LBB198:
.LBI198:
	.loc 1 1253 12 view .LVU306
.LBB199:
	.loc 1 1255 2 view .LVU307
	.loc 1 1265 2 view .LVU308
.LBE199:
.LBE198:
	.loc 1 293 1 is_stmt 0 view .LVU309
	push	{r4, lr}
	.cfi_def_cfa_offset 8
	.cfi_offset 4, -8
	.cfi_offset 14, -4
.LBB201:
.LBB200:
	.loc 1 1265 16 view .LVU310
	movs	r0, #0
	bl	ull_adv_is_enabled
.LVL86:
	.loc 1 1265 16 view .LVU311
.LBE200:
.LBE201:
	.loc 1 294 5 view .LVU312
	cbnz	r0, .L100
.LVL87:
.LBB202:
.LBB203:
.LBB204:
	.loc 1 1247 3 is_stmt 1 view .LVU313
	.loc 1 1247 15 is_stmt 0 view .LVU314
	ldr	r3, .L102
.LBE204:
	.loc 1 1250 17 view .LVU315
	ldr	r4, .L102+4
.LBB205:
	.loc 1 1247 15 view .LVU316
	ldrb	r1, [r3]	@ zero_extendqisi2
	ldrb	r2, [r3, #40]	@ zero_extendqisi2
.LBE205:
	.loc 1 1250 17 view .LVU317
	strb	r0, [r4]
.LBB206:
	.loc 1 1247 15 view .LVU318
	bfi	r1, r0, #0, #1
	bfi	r2, r0, #0, #1
	strb	r1, [r3]
	.loc 1 1246 30 is_stmt 1 view .LVU319
.LVL88:
	.loc 1 1246 24 view .LVU320
	.loc 1 1247 3 view .LVU321
	.loc 1 1247 15 is_stmt 0 view .LVU322
	strb	r2, [r3, #40]
	.loc 1 1246 30 is_stmt 1 view .LVU323
.LVL89:
	.loc 1 1246 24 view .LVU324
	.loc 1 1247 3 view .LVU325
	.loc 1 1247 15 is_stmt 0 view .LVU326
	ldrb	r1, [r3, #80]	@ zero_extendqisi2
	ldrb	r2, [r3, #120]	@ zero_extendqisi2
	bfi	r1, r0, #0, #1
	bfi	r2, r0, #0, #1
	strb	r1, [r3, #80]
	.loc 1 1246 30 is_stmt 1 view .LVU327
.LVL90:
	.loc 1 1246 24 view .LVU328
	.loc 1 1247 3 view .LVU329
	.loc 1 1247 15 is_stmt 0 view .LVU330
	strb	r2, [r3, #120]
	.loc 1 1246 30 is_stmt 1 view .LVU331
.LVL91:
	.loc 1 1246 24 view .LVU332
	.loc 1 1247 3 view .LVU333
	.loc 1 1247 15 is_stmt 0 view .LVU334
	ldrb	r1, [r3, #160]	@ zero_extendqisi2
	ldrb	r2, [r3, #200]	@ zero_extendqisi2
	bfi	r1, r0, #0, #1
	bfi	r2, r0, #0, #1
	strb	r1, [r3, #160]
	.loc 1 1246 30 is_stmt 1 view .LVU335
.LVL92:
	.loc 1 1246 24 view .LVU336
	.loc 1 1247 3 view .LVU337
	.loc 1 1247 15 is_stmt 0 view .LVU338
	strb	r2, [r3, #200]
	.loc 1 1246 30 is_stmt 1 view .LVU339
.LVL93:
	.loc 1 1246 24 view .LVU340
	.loc 1 1247 3 view .LVU341
	.loc 1 1247 15 is_stmt 0 view .LVU342
	ldrb	r1, [r3, #240]	@ zero_extendqisi2
	ldrb	r2, [r3, #280]	@ zero_extendqisi2
	bfi	r1, r0, #0, #1
	bfi	r2, r0, #0, #1
	strb	r1, [r3, #240]
	.loc 1 1246 30 is_stmt 1 view .LVU343
.LVL94:
	.loc 1 1246 24 view .LVU344
	.loc 1 1247 3 view .LVU345
	.loc 1 1247 15 is_stmt 0 view .LVU346
	strb	r2, [r3, #280]
	.loc 1 1246 30 is_stmt 1 view .LVU347
.LVL95:
	.loc 1 1246 24 view .LVU348
.LBE206:
	.loc 1 1250 2 view .LVU349
	.loc 1 1250 2 is_stmt 0 view .LVU350
.LBE203:
.LBE202:
	.loc 1 300 2 is_stmt 1 view .LVU351
	.loc 1 301 1 is_stmt 0 view .LVU352
	pop	{r4, pc}
.L100:
	.loc 1 295 10 view .LVU353
	movs	r0, #12
	.loc 1 301 1 view .LVU354
	pop	{r4, pc}
.L103:
	.align	2
.L102:
	.word	rl
	.word	peer_irk_count
	.cfi_endproc
.LFE607:
	.size	ll_rl_clear, .-ll_rl_clear
	.section	.text.ll_rl_remove,"ax",%progbits
	.align	1
	.p2align 2,,3
	.global	ll_rl_remove
	.syntax unified
	.thumb
	.thumb_func
	.type	ll_rl_remove, %function
ll_rl_remove:
.LVL96:
.LFB609:
	.loc 1 377 1 is_stmt 1 view -0
	.cfi_startproc
	@ args = 0, pretend = 0, frame = 8
	@ frame_needed = 0, uses_anonymous_args = 0
	.loc 1 378 2 view .LVU356
	.loc 1 380 2 view .LVU357
.LBB217:
.LBI217:
	.loc 1 1253 12 view .LVU358
.LBB218:
	.loc 1 1255 2 view .LVU359
	.loc 1 1265 2 view .LVU360
.LBE218:
.LBE217:
	.loc 1 377 1 is_stmt 0 view .LVU361
	push	{r4, r5, r6, r7, r8, r9, r10, fp, lr}
	.cfi_def_cfa_offset 36
	.cfi_offset 4, -36
	.cfi_offset 5, -32
	.cfi_offset 6, -28
	.cfi_offset 7, -24
	.cfi_offset 8, -20
	.cfi_offset 9, -16
	.cfi_offset 10, -12
	.cfi_offset 11, -8
	.cfi_offset 14, -4
	sub	sp, sp, #12
	.cfi_def_cfa_offset 48
	.loc 1 377 1 view .LVU362
	mov	fp, r0
.LBB221:
.LBB219:
	.loc 1 1265 16 view .LVU363
	movs	r0, #0
.LVL97:
	.loc 1 1265 16 view .LVU364
.LBE219:
.LBE221:
	.loc 1 377 1 view .LVU365
	str	fp, [sp]
.LBB222:
.LBB220:
	.loc 1 1265 16 view .LVU366
	bl	ull_adv_is_enabled
.LVL98:
	.loc 1 1265 16 view .LVU367
.LBE220:
.LBE222:
	.loc 1 380 5 view .LVU368
	cmp	r0, #0
	bne	.L116
	.loc 1 385 2 is_stmt 1 view .LVU369
	.loc 1 385 6 is_stmt 0 view .LVU370
	ldrb	r2, [fp], #1	@ zero_extendqisi2
.LVL99:
.LBB223:
.LBI223:
	.loc 1 826 9 is_stmt 1 view .LVU371
.LBB224:
	.loc 1 829 2 view .LVU372
	.loc 1 831 2 view .LVU373
	.loc 1 835 17 view .LVU374
	ldr	r9, .L141+12
	.loc 1 836 60 is_stmt 0 view .LVU375
	str	r2, [sp, #4]
	and	r3, r2, #1
	mov	r4, r0
	add	r8, r9, #-1
	mov	r6, r3
	b	.L108
.LVL100:
.L106:
	.loc 1 838 10 is_stmt 1 view .LVU376
	.loc 1 835 23 view .LVU377
	.loc 1 835 17 view .LVU378
	adds	r4, r4, #1
.LVL101:
	.loc 1 835 17 is_stmt 0 view .LVU379
	cmp	r4, #8
	add	r9, r9, #40
	beq	.L139
.LVL102:
.L108:
	.loc 1 836 3 is_stmt 1 view .LVU380
	.loc 1 836 13 is_stmt 0 view .LVU381
	add	r2, r4, r4, lsl #2
	add	r5, r8, r2, lsl #3
	ldrb	r7, [r8, r2, lsl #3]	@ zero_extendqisi2
	.loc 1 836 6 view .LVU382
	lsls	r3, r7, #31
	.loc 1 836 13 view .LVU383
	lsl	r10, r4, #2
	.loc 1 836 29 view .LVU384
	ubfx	r2, r7, #6, #1
	.loc 1 836 6 view .LVU385
	bpl	.L106
	.loc 1 836 20 view .LVU386
	cmp	r2, r6
	bne	.L106
	.loc 1 836 72 view .LVU387
	mov	r0, r9
	movs	r2, #6
	mov	r1, fp
	bl	memcmp
.LVL103:
	.loc 1 836 68 view .LVU388
	cmp	r0, #0
	bne	.L106
.LVL104:
	.loc 1 836 68 view .LVU389
.LBE224:
.LBE223:
	.loc 1 386 2 is_stmt 1 view .LVU390
.LBB225:
	.loc 1 387 3 view .LVU391
	.loc 1 389 3 view .LVU392
	.loc 1 389 6 is_stmt 0 view .LVU393
	mov	r6, r7
	lsls	r6, r6, #29
	ldr	r2, [sp, #4]
	mov	r7, r0
	bpl	.L109
.LBB226:
	.loc 1 391 4 is_stmt 1 view .LVU394
.LVL105:
	.loc 1 391 53 is_stmt 0 view .LVU395
	ldr	ip, .L141+16
	.loc 1 391 33 view .LVU396
	ldrb	r6, [ip]	@ zero_extendqisi2
	subs	r6, r6, #1
.LVL106:
	.loc 1 393 4 is_stmt 1 view .LVU397
	.loc 1 393 7 is_stmt 0 view .LVU398
	ands	r6, r6, #255
.LVL107:
	.loc 1 393 7 view .LVU399
	beq	.L110
	.loc 1 391 12 discriminator 1 view .LVU400
	ldrb	r9, [r5, #23]	@ zero_extendqisi2
	.loc 1 393 11 discriminator 1 view .LVU401
	cmp	r9, r6
	beq	.L110
	.loc 1 394 5 is_stmt 1 view .LVU402
.LVL108:
.LBB227:
.LBI227:
	.loc 2 83 216 view .LVU403
.LBB228:
	.loc 2 83 292 view .LVU404
.LBE228:
.LBE227:
	.loc 1 394 19 is_stmt 0 view .LVU405
	ldr	r2, .L141
.LBB232:
.LBB229:
	.loc 2 83 299 view .LVU406
	str	r0, [sp, #4]
.LBE229:
.LBE232:
	.loc 1 394 19 view .LVU407
	add	r3, r2, r6, lsl #4
	.loc 1 394 19 view .LVU408
	add	r2, r2, r9, lsl #4
	mov	r5, r2
.LBB233:
.LBB230:
	.loc 2 83 299 view .LVU409
	ldm	r3, {r0, r1, r2, r3}
	ldr	lr, .L141+20
	stm	r5, {r0, r1, r2, r3}
.LVL109:
	.loc 2 83 299 view .LVU410
.LBE230:
.LBE233:
	.loc 1 396 5 is_stmt 1 view .LVU411
	.loc 1 397 12 view .LVU412
.LBB234:
.LBB231:
	.loc 2 83 299 is_stmt 0 view .LVU413
	mov	r5, r7
.LVL110:
.L112:
	.loc 2 83 299 view .LVU414
.LBE231:
.LBE234:
	.loc 1 400 6 is_stmt 1 view .LVU415
	.loc 1 398 11 view .LVU416
	.loc 1 397 12 view .LVU417
	.loc 1 400 15 is_stmt 0 view .LVU418
	add	r3, r5, r5, lsl #2
	add	r2, r8, r3, lsl #3
	ldrb	r3, [r8, r3, lsl #3]	@ zero_extendqisi2
	.loc 1 400 9 view .LVU419
	lsls	r0, r3, #31
	bpl	.L111
	.loc 1 400 22 discriminator 1 view .LVU420
	lsls	r1, r3, #29
	bpl	.L111
	.loc 1 400 36 discriminator 2 view .LVU421
	ldrb	r3, [lr, #23]	@ zero_extendqisi2
	cmp	r3, r6
	beq	.L140
.L111:
	.loc 1 397 12 view .LVU422
	adds	r5, r5, #1
.LVL111:
	.loc 1 397 12 view .LVU423
	cmp	r5, #8
	add	lr, lr, #40
	bne	.L112
.LBE226:
	.loc 1 412 7 view .LVU424
	ldr	r3, [sp]
	ldrb	r2, [r3]	@ zero_extendqisi2
.LVL112:
.L110:
.LBB235:
	.loc 1 408 4 is_stmt 1 view .LVU425
	.loc 1 408 18 is_stmt 0 view .LVU426
	strb	r6, [ip]
.LVL113:
.L109:
	.loc 1 408 18 view .LVU427
.LBE235:
	.loc 1 412 3 is_stmt 1 view .LVU428
.LBB236:
.LBI236:
	.loc 1 1038 16 view .LVU429
.LBB237:
	.loc 1 1041 2 view .LVU430
	.loc 1 1043 2 view .LVU431
	.loc 1 1047 16 view .LVU432
	ldr	r5, .L141+4
	.loc 1 1048 59 is_stmt 0 view .LVU433
	and	r9, r2, #1
	subs	r6, r5, #2
	b	.L115
.LVL114:
.L113:
	.loc 1 1050 10 is_stmt 1 view .LVU434
	.loc 1 1047 22 view .LVU435
	adds	r7, r7, #1
.LVL115:
	.loc 1 1047 16 view .LVU436
	cmp	r7, #8
	add	r5, r5, #8
	beq	.L114
.LVL116:
.L115:
	.loc 1 1048 3 view .LVU437
	.loc 1 1048 14 is_stmt 0 view .LVU438
	ldrb	r3, [r6, r7, lsl #3]	@ zero_extendqisi2
	.loc 1 1048 31 view .LVU439
	ubfx	r2, r3, #1, #1
	.loc 1 1048 6 view .LVU440
	lsls	r3, r3, #31
	bpl	.L113
	.loc 1 1048 21 view .LVU441
	cmp	r2, r9
	bne	.L113
	.loc 1 1048 71 view .LVU442
	movs	r2, #6
	mov	r0, r5
	mov	r1, fp
	bl	memcmp
.LVL117:
	.loc 1 1048 67 view .LVU443
	cmp	r0, #0
	bne	.L113
	.loc 1 1049 4 is_stmt 1 view .LVU444
.LVL118:
	.loc 1 1049 4 is_stmt 0 view .LVU445
.LBE237:
.LBE236:
	.loc 1 413 3 is_stmt 1 view .LVU446
	.loc 1 414 4 view .LVU447
	.loc 1 414 18 is_stmt 0 view .LVU448
	add	r6, r6, r7, lsl #3
	movs	r3, #255
	strb	r3, [r6, #1]
.LVL119:
.L114:
	.loc 1 425 3 is_stmt 1 view .LVU449
	.loc 1 425 15 is_stmt 0 view .LVU450
	add	r10, r10, r4
	.loc 1 427 10 view .LVU451
	movs	r0, #0
	.loc 1 425 15 view .LVU452
	ldrb	r3, [r8, r10, lsl #3]	@ zero_extendqisi2
	bfc	r3, #0, #1
	strb	r3, [r8, r10, lsl #3]
	.loc 1 427 3 is_stmt 1 view .LVU453
.LVL120:
	.loc 1 427 3 is_stmt 0 view .LVU454
.LBE225:
	.loc 1 431 1 view .LVU455
	add	sp, sp, #12
	.cfi_remember_state
	.cfi_def_cfa_offset 36
.LVL121:
	.loc 1 431 1 view .LVU456
	@ sp needed
	pop	{r4, r5, r6, r7, r8, r9, r10, fp, pc}
.LVL122:
.L139:
	.cfi_restore_state
	.loc 1 430 9 view .LVU457
	movs	r0, #2
.LVL123:
	.loc 1 431 1 view .LVU458
	add	sp, sp, #12
	.cfi_remember_state
	.cfi_def_cfa_offset 36
.LVL124:
	.loc 1 431 1 view .LVU459
	@ sp needed
	pop	{r4, r5, r6, r7, r8, r9, r10, fp, pc}
.LVL125:
.L116:
	.cfi_restore_state
	.loc 1 381 10 view .LVU460
	movs	r0, #12
	.loc 1 431 1 view .LVU461
	add	sp, sp, #12
	.cfi_remember_state
	.cfi_def_cfa_offset 36
	@ sp needed
	pop	{r4, r5, r6, r7, r8, r9, r10, fp, pc}
.LVL126:
.L140:
	.cfi_restore_state
.LBB241:
.LBB238:
	.loc 1 402 7 is_stmt 1 view .LVU462
.LBE238:
	.loc 1 412 7 is_stmt 0 view .LVU463
	ldr	r3, [sp]
.LBB239:
	.loc 1 402 22 view .LVU464
	strb	r9, [r2, #23]
.LVL127:
	.loc 1 403 7 is_stmt 1 view .LVU465
.LBE239:
	.loc 1 412 7 is_stmt 0 view .LVU466
	ldrb	r2, [r3]	@ zero_extendqisi2
.LBB240:
	.loc 1 403 27 view .LVU467
	ldr	r3, .L141+8
	strb	r5, [r3, r9]
	.loc 1 404 7 is_stmt 1 view .LVU468
	b	.L110
.L142:
	.align	2
.L141:
	.word	peer_irks
	.word	fal+2
	.word	peer_irk_rl_ids
	.word	rl+1
	.word	peer_irk_count
	.word	rl
.LBE240:
.LBE241:
	.cfi_endproc
.LFE609:
	.size	ll_rl_remove, .-ll_rl_remove
	.section	.text.ll_rl_crpa_set,"ax",%progbits
	.align	1
	.p2align 2,,3
	.global	ll_rl_crpa_set
	.syntax unified
	.thumb
	.thumb_func
	.type	ll_rl_crpa_set, %function
ll_rl_crpa_set:
.LVL128:
.LFB610:
	.loc 1 435 1 view -0
	.cfi_startproc
	@ args = 0, pretend = 0, frame = 0
	@ frame_needed = 0, uses_anonymous_args = 0
	.loc 1 435 1 is_stmt 0 view .LVU470
	push	{r3, r4, r5, r6, r7, r8, r9, lr}
	.cfi_def_cfa_offset 32
	.cfi_offset 3, -32
	.cfi_offset 4, -28
	.cfi_offset 5, -24
	.cfi_offset 6, -20
	.cfi_offset 7, -16
	.cfi_offset 8, -12
	.cfi_offset 9, -8
	.cfi_offset 14, -4
	.loc 1 435 1 view .LVU471
	mov	r5, r3
	.loc 1 436 5 view .LVU472
	ldrb	r3, [r3, #5]	@ zero_extendqisi2
.LVL129:
	.loc 1 436 5 view .LVU473
	and	r3, r3, #192
	.loc 1 436 2 is_stmt 1 view .LVU474
	.loc 1 436 5 is_stmt 0 view .LVU475
	cmp	r3, #64
	beq	.L167
.LVL130:
.L143:
	.loc 1 452 1 view .LVU476
	pop	{r3, r4, r5, r6, r7, r8, r9, pc}
.LVL131:
.L167:
	.loc 1 438 3 is_stmt 1 view .LVU477
	mov	r7, r1
	.loc 1 438 6 is_stmt 0 view .LVU478
	cbz	r1, .L146
	.loc 1 438 6 view .LVU479
	ldr	r9, .L168
	movs	r4, #0
.LBB251:
.LBB252:
	.loc 1 836 60 view .LVU480
	and	r6, r0, #1
	add	r8, r9, #-1
	b	.L148
.LVL132:
.L147:
	.loc 1 838 10 is_stmt 1 view .LVU481
	.loc 1 835 23 view .LVU482
	.loc 1 835 17 view .LVU483
	adds	r4, r4, #1
.LVL133:
	.loc 1 835 17 is_stmt 0 view .LVU484
	cmp	r4, #8
	add	r9, r9, #40
	beq	.L143
.LVL134:
.L148:
	.loc 1 836 3 is_stmt 1 view .LVU485
	.loc 1 836 13 is_stmt 0 view .LVU486
	add	r3, r4, r4, lsl #2
	ldrb	r3, [r8, r3, lsl #3]	@ zero_extendqisi2
	.loc 1 836 6 view .LVU487
	lsls	r1, r3, #31
	.loc 1 836 29 view .LVU488
	ubfx	r2, r3, #6, #1
	.loc 1 836 6 view .LVU489
	bpl	.L147
	.loc 1 836 20 view .LVU490
	cmp	r2, r6
	bne	.L147
	.loc 1 836 72 view .LVU491
	movs	r2, #6
	mov	r0, r9
	mov	r1, r7
	bl	memcmp
.LVL135:
	.loc 1 836 68 view .LVU492
	cmp	r0, #0
	bne	.L147
	uxtb	r2, r4
.LVL136:
.L146:
	.loc 1 836 68 view .LVU493
.LBE252:
.LBE251:
	.loc 1 444 3 is_stmt 1 view .LVU494
	.loc 1 444 6 is_stmt 0 view .LVU495
	cmp	r2, #7
	bhi	.L143
	.loc 1 444 180 discriminator 1 view .LVU496
	ldr	r8, .L168+4
	add	r3, r2, r2, lsl #2
	ldrb	r3, [r8, r3, lsl #3]	@ zero_extendqisi2
	.loc 1 444 167 discriminator 1 view .LVU497
	lsls	r3, r3, #31
	bpl	.L143
	.loc 1 445 4 is_stmt 1 view .LVU498
	add	r2, r2, r2, lsl #2
	lsls	r4, r2, #3
	.loc 1 445 28 is_stmt 0 view .LVU499
	add	r3, r4, #24
.LBB253:
.LBB254:
	.loc 2 83 299 view .LVU500
	ldr	r0, [r5]	@ unaligned
	str	r0, [r8, r3]
.LBE254:
.LBE253:
	.loc 1 445 28 view .LVU501
	add	r9, r8, r3
.LVL137:
.LBB257:
.LBI253:
	.loc 2 83 216 is_stmt 1 view .LVU502
.LBB255:
	.loc 2 83 292 view .LVU503
	.loc 2 83 299 is_stmt 0 view .LVU504
	ldrh	r3, [r5, #4]	@ unaligned
	strh	r3, [r9, #4]	@ unaligned
.LVL138:
	.loc 2 83 299 view .LVU505
.LBE255:
.LBE257:
	.loc 1 448 4 is_stmt 1 view .LVU506
.LBB258:
.LBI258:
	.loc 1 1474 13 view .LVU507
.LBB259:
	.loc 1 1476 2 view .LVU508
	.loc 1 1478 2 view .LVU509
	.loc 1 1478 27 view .LVU510
.LBE259:
.LBE258:
.LBB267:
.LBB256:
	.loc 2 83 299 is_stmt 0 view .LVU511
	movs	r6, #0
	b	.L151
.LVL139:
.L150:
	.loc 2 83 299 view .LVU512
.LBE256:
.LBE267:
.LBB268:
.LBB266:
	.loc 1 1478 38 is_stmt 1 view .LVU513
	.loc 1 1478 27 view .LVU514
	cmp	r6, #5
	beq	.L143
.LVL140:
.L151:
.LBB260:
	.loc 1 1479 3 view .LVU515
	.loc 1 1479 26 is_stmt 0 view .LVU516
	uxth	r0, r6
	bl	ll_connected_get
.LVL141:
	.loc 1 1484 3 is_stmt 1 view .LVU517
.LBE260:
	.loc 1 1478 27 is_stmt 0 view .LVU518
	adds	r6, r6, #1
.LVL142:
.LBB265:
	.loc 1 1484 16 view .LVU519
	movs	r2, #6
	mov	r1, r9
	.loc 1 1484 6 view .LVU520
	mov	r5, r0
	.loc 1 1484 27 view .LVU521
	addw	r7, r0, #417
	.loc 1 1484 6 view .LVU522
	cmp	r0, #0
	beq	.L150
	.loc 1 1484 16 view .LVU523
	mov	r0, r7
.LVL143:
	.loc 1 1484 16 view .LVU524
	bl	memcmp
.LVL144:
	.loc 1 1484 12 view .LVU525
	cmp	r0, #0
	bne	.L150
	.loc 1 1486 4 is_stmt 1 view .LVU526
.LVL145:
.LBB261:
.LBI261:
	.loc 2 83 216 view .LVU527
.LBB262:
	.loc 2 83 292 view .LVU528
.LBE262:
.LBE261:
	.loc 1 1486 27 is_stmt 0 view .LVU529
	adds	r4, r4, #1
.LVL146:
	.loc 1 1486 27 view .LVU530
	add	r3, r8, r4
.LBB264:
.LBB263:
	.loc 2 83 299 view .LVU531
	ldr	r2, [r8, r4]	@ unaligned
	str	r2, [r5, #417]	@ unaligned
	ldrh	r3, [r3, #4]	@ unaligned
	strh	r3, [r5, #421]	@ unaligned
.LVL147:
	.loc 2 83 299 view .LVU532
	b	.L143
.L169:
	.align	2
.L168:
	.word	rl+1
	.word	rl
.LBE263:
.LBE264:
.LBE265:
.LBE266:
.LBE268:
	.cfi_endproc
.LFE610:
	.size	ll_rl_crpa_set, .-ll_rl_crpa_set
	.section	.text.ll_rl_crpa_get,"ax",%progbits
	.align	1
	.p2align 2,,3
	.global	ll_rl_crpa_get
	.syntax unified
	.thumb
	.thumb_func
	.type	ll_rl_crpa_get, %function
ll_rl_crpa_get:
.LVL148:
.LFB611:
	.loc 1 455 1 is_stmt 1 view -0
	.cfi_startproc
	@ args = 0, pretend = 0, frame = 0
	@ frame_needed = 0, uses_anonymous_args = 0
	.loc 1 456 2 view .LVU534
	.loc 1 459 2 view .LVU535
	.loc 1 455 1 is_stmt 0 view .LVU536
	push	{r3, r4, r5, r6, r7, r8, r9, r10, fp, lr}
	.cfi_def_cfa_offset 40
	.cfi_offset 3, -40
	.cfi_offset 4, -36
	.cfi_offset 5, -32
	.cfi_offset 6, -28
	.cfi_offset 7, -24
	.cfi_offset 8, -20
	.cfi_offset 9, -16
	.cfi_offset 10, -12
	.cfi_offset 11, -8
	.cfi_offset 14, -4
	.loc 1 459 6 view .LVU537
	mov	r10, r0
	ldr	r6, .L182
	ldrb	r8, [r10], #1	@ zero_extendqisi2
.LVL149:
.LBB277:
.LBI277:
	.loc 1 826 9 is_stmt 1 view .LVU538
.LBB278:
	.loc 1 829 2 view .LVU539
	.loc 1 831 2 view .LVU540
	.loc 1 835 17 view .LVU541
.LBE278:
.LBE277:
	.loc 1 455 1 is_stmt 0 view .LVU542
	mov	r9, r1
	.loc 1 459 50 view .LVU543
	movs	r4, #0
.LBB280:
.LBB279:
	.loc 1 836 60 view .LVU544
	and	r8, r8, #1
.LVL150:
	.loc 1 836 60 view .LVU545
	subs	r7, r6, #1
	b	.L173
.LVL151:
.L171:
	.loc 1 838 10 is_stmt 1 view .LVU546
	.loc 1 835 23 view .LVU547
	.loc 1 835 17 view .LVU548
	cmp	r4, #8
	add	r6, r6, #40
	beq	.L174
.L173:
.LVL152:
	.loc 1 836 3 view .LVU549
	.loc 1 836 13 is_stmt 0 view .LVU550
	add	r2, r4, r4, lsl #2
	lsls	r5, r2, #3
	ldrb	r3, [r7, r2, lsl #3]	@ zero_extendqisi2
	.loc 1 836 29 view .LVU551
	ubfx	r2, r3, #6, #1
	.loc 1 836 6 view .LVU552
	lsls	r3, r3, #31
	.loc 1 836 13 view .LVU553
	add	r4, r4, #1
.LVL153:
	.loc 1 836 6 view .LVU554
	bpl	.L171
	.loc 1 836 20 view .LVU555
	cmp	r2, r8
	bne	.L171
	.loc 1 836 72 view .LVU556
	movs	r2, #6
	mov	r1, r10
	mov	r0, r6
	bl	memcmp
.LVL154:
	.loc 1 836 68 view .LVU557
	mov	fp, r0
	cmp	r0, #0
	bne	.L171
.LVL155:
	.loc 1 836 68 view .LVU558
.LBE279:
.LBE280:
	.loc 1 460 2 is_stmt 1 view .LVU559
	.loc 1 461 27 is_stmt 0 view .LVU560
	adds	r5, r5, #24
	adds	r4, r7, r5
	.loc 1 461 6 view .LVU561
	movs	r1, #6
	mov	r0, r4
	bl	mem_nz
.LVL156:
	.loc 1 460 161 view .LVU562
	cbnz	r0, .L175
.LVL157:
.L174:
	.loc 1 466 9 view .LVU563
	movs	r0, #2
	.loc 1 467 1 view .LVU564
	pop	{r3, r4, r5, r6, r7, r8, r9, r10, fp, pc}
.LVL158:
.L175:
	.loc 1 462 3 is_stmt 1 view .LVU565
.LBB281:
.LBI281:
	.loc 3 127 20 view .LVU566
.LBB282:
	.loc 3 129 1 view .LVU567
.LBB283:
.LBI283:
	.loc 3 127 20 view .LVU568
.LBB284:
.LBI284:
	.loc 2 83 216 view .LVU569
.LBB285:
	.loc 2 83 292 view .LVU570
	.loc 2 83 299 is_stmt 0 view .LVU571
	ldr	r0, [r7, r5]
	str	r0, [r9]	@ unaligned
	ldrh	r3, [r4, #4]	@ unaligned
	strh	r3, [r9, #4]	@ unaligned
.LVL159:
	.loc 2 83 299 view .LVU572
.LBE285:
.LBE284:
.LBE283:
.LBE282:
.LBE281:
	.loc 1 463 10 view .LVU573
	mov	r0, fp
.LVL160:
	.loc 1 467 1 view .LVU574
	pop	{r3, r4, r5, r6, r7, r8, r9, r10, fp, pc}
.LVL161:
.L183:
	.loc 1 467 1 view .LVU575
	.align	2
.L182:
	.word	rl+1
	.cfi_endproc
.LFE611:
	.size	ll_rl_crpa_get, .-ll_rl_crpa_get
	.section	.text.ll_rl_lrpa_get,"ax",%progbits
	.align	1
	.p2align 2,,3
	.global	ll_rl_lrpa_get
	.syntax unified
	.thumb
	.thumb_func
	.type	ll_rl_lrpa_get, %function
ll_rl_lrpa_get:
.LVL162:
.LFB612:
	.loc 1 470 1 is_stmt 1 view -0
	.cfi_startproc
	@ args = 0, pretend = 0, frame = 0
	@ frame_needed = 0, uses_anonymous_args = 0
	.loc 1 471 2 view .LVU577
	.loc 1 474 2 view .LVU578
	.loc 1 470 1 is_stmt 0 view .LVU579
	push	{r4, r5, r6, r7, r8, r9, r10, lr}
	.cfi_def_cfa_offset 32
	.cfi_offset 4, -32
	.cfi_offset 5, -28
	.cfi_offset 6, -24
	.cfi_offset 7, -20
	.cfi_offset 8, -16
	.cfi_offset 9, -12
	.cfi_offset 10, -8
	.cfi_offset 14, -4
	.loc 1 474 6 view .LVU580
	mov	r10, r0
	ldr	r6, .L195
	ldrb	r8, [r10], #1	@ zero_extendqisi2
.LVL163:
.LBB294:
.LBI294:
	.loc 1 826 9 is_stmt 1 view .LVU581
.LBB295:
	.loc 1 829 2 view .LVU582
	.loc 1 831 2 view .LVU583
	.loc 1 835 17 view .LVU584
.LBE295:
.LBE294:
	.loc 1 470 1 is_stmt 0 view .LVU585
	mov	r9, r1
	.loc 1 474 50 view .LVU586
	movs	r4, #0
.LBB297:
.LBB296:
	.loc 1 836 60 view .LVU587
	and	r8, r8, #1
.LVL164:
	.loc 1 836 60 view .LVU588
	subs	r7, r6, #1
	b	.L187
.LVL165:
.L185:
	.loc 1 838 10 is_stmt 1 view .LVU589
	.loc 1 835 23 view .LVU590
	.loc 1 835 17 view .LVU591
	cmp	r4, #8
	add	r6, r6, #40
	beq	.L194
.LVL166:
.L187:
	.loc 1 836 3 view .LVU592
	.loc 1 836 13 is_stmt 0 view .LVU593
	add	r2, r4, r4, lsl #2
	add	r5, r7, r2, lsl #3
	ldrb	r3, [r7, r2, lsl #3]	@ zero_extendqisi2
	.loc 1 836 29 view .LVU594
	ubfx	r2, r3, #6, #1
	.loc 1 836 6 view .LVU595
	lsls	r3, r3, #31
	.loc 1 836 13 view .LVU596
	add	r4, r4, #1
	.loc 1 836 6 view .LVU597
	bpl	.L185
	.loc 1 836 20 view .LVU598
	cmp	r2, r8
	bne	.L185
	.loc 1 836 72 view .LVU599
	movs	r2, #6
	mov	r1, r10
	mov	r0, r6
	bl	memcmp
.LVL167:
	.loc 1 836 68 view .LVU600
	cmp	r0, #0
	bne	.L185
.LVL168:
	.loc 1 836 68 view .LVU601
.LBE296:
.LBE297:
	.loc 1 475 2 is_stmt 1 view .LVU602
	.loc 1 476 3 view .LVU603
.LBB298:
.LBI298:
	.loc 3 127 20 view .LVU604
.LBB299:
	.loc 3 129 1 view .LVU605
.LBB300:
.LBI300:
	.loc 3 127 20 view .LVU606
.LBB301:
.LBI301:
	.loc 2 83 216 view .LVU607
.LBB302:
	.loc 2 83 292 view .LVU608
	.loc 2 83 299 is_stmt 0 view .LVU609
	ldr	r3, [r5, #36]
	ldr	r2, [r3]	@ unaligned
	str	r2, [r9]	@ unaligned
	.loc 2 83 299 view .LVU610
	ldrh	r3, [r3, #4]	@ unaligned
	strh	r3, [r9, #4]	@ unaligned
.LVL169:
	.loc 2 83 299 view .LVU611
.LBE302:
.LBE301:
.LBE300:
.LBE299:
.LBE298:
	.loc 1 481 1 view .LVU612
	pop	{r4, r5, r6, r7, r8, r9, r10, pc}
.LVL170:
.L194:
	.loc 1 480 9 view .LVU613
	movs	r0, #2
.LVL171:
	.loc 1 481 1 view .LVU614
	pop	{r4, r5, r6, r7, r8, r9, r10, pc}
.LVL172:
.L196:
	.loc 1 481 1 view .LVU615
	.align	2
.L195:
	.word	rl+1
	.cfi_endproc
.LFE612:
	.size	ll_rl_lrpa_get, .-ll_rl_lrpa_get
	.section	.text.ll_rl_enable,"ax",%progbits
	.align	1
	.p2align 2,,3
	.global	ll_rl_enable
	.syntax unified
	.thumb
	.thumb_func
	.type	ll_rl_enable, %function
ll_rl_enable:
.LVL173:
.LFB613:
	.loc 1 484 1 is_stmt 1 view -0
	.cfi_startproc
	@ args = 0, pretend = 0, frame = 0
	@ frame_needed = 0, uses_anonymous_args = 0
	.loc 1 485 2 view .LVU617
.LBB303:
.LBI303:
	.loc 1 1253 12 view .LVU618
.LBB304:
	.loc 1 1255 2 view .LVU619
	.loc 1 1265 2 view .LVU620
.LBE304:
.LBE303:
	.loc 1 484 1 is_stmt 0 view .LVU621
	push	{r4, lr}
	.cfi_def_cfa_offset 8
	.cfi_offset 4, -8
	.cfi_offset 14, -4
	.loc 1 484 1 view .LVU622
	mov	r4, r0
.LBB306:
.LBB305:
	.loc 1 1265 16 view .LVU623
	movs	r0, #0
.LVL174:
	.loc 1 1265 16 view .LVU624
	bl	ull_adv_is_enabled
.LVL175:
	.loc 1 1265 16 view .LVU625
.LBE305:
.LBE306:
	.loc 1 485 5 view .LVU626
	cbnz	r0, .L200
	.loc 1 489 2 is_stmt 1 view .LVU627
	cbz	r4, .L199
	cmp	r4, #1
	beq	.L199
	movs	r0, #18
	.loc 1 501 1 is_stmt 0 view .LVU628
	pop	{r4, pc}
.L199:
	.loc 1 491 13 view .LVU629
	ldr	r3, .L206
	strb	r4, [r3]
	.loc 1 500 9 view .LVU630
	movs	r0, #0
	.loc 1 501 1 view .LVU631
	pop	{r4, pc}
.L200:
	.loc 1 486 10 view .LVU632
	movs	r0, #12
	.loc 1 501 1 view .LVU633
	pop	{r4, pc}
.L207:
	.align	2
.L206:
	.word	rl_enable
	.cfi_endproc
.LFE613:
	.size	ll_rl_enable, .-ll_rl_enable
	.section	.text.ll_rl_timeout_set,"ax",%progbits
	.align	1
	.p2align 2,,3
	.global	ll_rl_timeout_set
	.syntax unified
	.thumb
	.thumb_func
	.type	ll_rl_timeout_set, %function
ll_rl_timeout_set:
.LVL176:
.LFB614:
	.loc 1 504 1 is_stmt 1 view -0
	.cfi_startproc
	@ args = 0, pretend = 0, frame = 0
	@ frame_needed = 0, uses_anonymous_args = 0
	@ link register save eliminated.
	.loc 1 505 2 view .LVU635
	.loc 1 505 17 is_stmt 0 view .LVU636
	ldr	r3, .L209
	.loc 1 505 27 view .LVU637
	mov	r2, #1000
	mul	r0, r2, r0
.LVL177:
	.loc 1 505 17 view .LVU638
	str	r0, [r3]
	.loc 1 506 1 view .LVU639
	bx	lr
.L210:
	.align	2
.L209:
	.word	rpa_timeout_ms
	.cfi_endproc
.LFE614:
	.size	ll_rl_timeout_set, .-ll_rl_timeout_set
	.section	.text.ll_priv_mode_set,"ax",%progbits
	.align	1
	.p2align 2,,3
	.global	ll_priv_mode_set
	.syntax unified
	.thumb
	.thumb_func
	.type	ll_priv_mode_set, %function
ll_priv_mode_set:
.LVL178:
.LFB615:
	.loc 1 509 1 is_stmt 1 view -0
	.cfi_startproc
	@ args = 0, pretend = 0, frame = 0
	@ frame_needed = 0, uses_anonymous_args = 0
	.loc 1 510 2 view .LVU641
	.loc 1 512 2 view .LVU642
.LBB311:
.LBI311:
	.loc 1 1253 12 view .LVU643
.LBB312:
	.loc 1 1255 2 view .LVU644
	.loc 1 1265 2 view .LVU645
.LBE312:
.LBE311:
	.loc 1 509 1 is_stmt 0 view .LVU646
	push	{r4, r5, r6, r7, r8, r9, r10, lr}
	.cfi_def_cfa_offset 32
	.cfi_offset 4, -32
	.cfi_offset 5, -28
	.cfi_offset 6, -24
	.cfi_offset 7, -20
	.cfi_offset 8, -16
	.cfi_offset 9, -12
	.cfi_offset 10, -8
	.cfi_offset 14, -4
	.loc 1 509 1 view .LVU647
	mov	r10, r0
.LBB315:
.LBB313:
	.loc 1 1265 16 view .LVU648
	movs	r0, #0
.LVL179:
	.loc 1 1265 16 view .LVU649
.LBE313:
.LBE315:
	.loc 1 509 1 view .LVU650
	mov	r8, r1
.LBB316:
.LBB314:
	.loc 1 1265 16 view .LVU651
	bl	ull_adv_is_enabled
.LVL180:
	.loc 1 1265 16 view .LVU652
.LBE314:
.LBE316:
	.loc 1 512 5 view .LVU653
	cbnz	r0, .L219
	.loc 1 517 2 is_stmt 1 view .LVU654
	ldr	r6, .L227
	.loc 1 517 6 is_stmt 0 view .LVU655
	ldrb	r9, [r10], #1	@ zero_extendqisi2
.LVL181:
.LBB317:
.LBI317:
	.loc 1 826 9 is_stmt 1 view .LVU656
.LBB318:
	.loc 1 829 2 view .LVU657
	.loc 1 831 2 view .LVU658
	.loc 1 835 17 view .LVU659
	mov	r4, r0
	.loc 1 836 60 is_stmt 0 view .LVU660
	and	r9, r9, #1
.LVL182:
	.loc 1 836 60 view .LVU661
	subs	r7, r6, #1
	b	.L215
.LVL183:
.L213:
	.loc 1 838 10 is_stmt 1 view .LVU662
	.loc 1 835 23 view .LVU663
	.loc 1 835 17 view .LVU664
	cmp	r4, #8
	add	r6, r6, #40
	beq	.L225
.L215:
.LVL184:
	.loc 1 836 3 view .LVU665
	.loc 1 836 13 is_stmt 0 view .LVU666
	add	r2, r4, r4, lsl #2
	lsls	r5, r2, #3
	ldrb	r3, [r7, r2, lsl #3]	@ zero_extendqisi2
	.loc 1 836 29 view .LVU667
	ubfx	r2, r3, #6, #1
	.loc 1 836 6 view .LVU668
	lsls	r3, r3, #31
	.loc 1 836 13 view .LVU669
	add	r4, r4, #1
.LVL185:
	.loc 1 836 6 view .LVU670
	bpl	.L213
	.loc 1 836 20 view .LVU671
	cmp	r2, r9
	bne	.L213
	.loc 1 836 72 view .LVU672
	mov	r0, r6
	movs	r2, #6
	mov	r1, r10
	bl	memcmp
.LVL186:
	.loc 1 836 68 view .LVU673
	cmp	r0, #0
	bne	.L213
.LVL187:
	.loc 1 836 68 view .LVU674
.LBE318:
.LBE317:
	.loc 1 518 2 is_stmt 1 view .LVU675
	.loc 1 519 3 view .LVU676
	cmp	r8, #0
	beq	.L216
	cmp	r8, #1
	bne	.L226
	.loc 1 524 4 view .LVU677
	.loc 1 524 14 is_stmt 0 view .LVU678
	ldrb	r3, [r7, r5]	@ zero_extendqisi2
	orr	r3, r3, #16
	strb	r3, [r7, r5]
	.loc 1 525 4 is_stmt 1 view .LVU679
.L218:
	.loc 1 533 9 is_stmt 0 view .LVU680
	movs	r0, #0
.LVL188:
	.loc 1 534 1 view .LVU681
	pop	{r4, r5, r6, r7, r8, r9, r10, pc}
.LVL189:
.L225:
	.loc 1 530 10 view .LVU682
	movs	r0, #2
.LVL190:
	.loc 1 534 1 view .LVU683
	pop	{r4, r5, r6, r7, r8, r9, r10, pc}
.LVL191:
.L226:
	.loc 1 519 3 view .LVU684
	movs	r0, #18
.LVL192:
	.loc 1 534 1 view .LVU685
	pop	{r4, r5, r6, r7, r8, r9, r10, pc}
.LVL193:
.L219:
	.loc 1 513 10 view .LVU686
	movs	r0, #12
	.loc 1 534 1 view .LVU687
	pop	{r4, r5, r6, r7, r8, r9, r10, pc}
.LVL194:
.L216:
	.loc 1 521 4 is_stmt 1 view .LVU688
	.loc 1 521 14 is_stmt 0 view .LVU689
	ldrb	r3, [r7, r5]	@ zero_extendqisi2
	bfi	r3, r8, #4, #1
	strb	r3, [r7, r5]
	.loc 1 522 4 is_stmt 1 view .LVU690
	b	.L218
.L228:
	.align	2
.L227:
	.word	rl+1
	.cfi_endproc
.LFE615:
	.size	ll_priv_mode_set, .-ll_priv_mode_set
	.section	.text.ull_filter_reset,"ax",%progbits
	.align	1
	.p2align 2,,3
	.global	ull_filter_reset
	.syntax unified
	.thumb
	.thumb_func
	.type	ull_filter_reset, %function
ull_filter_reset:
.LVL195:
.LFB616:
	.loc 1 627 1 view -0
	.cfi_startproc
	@ args = 0, pretend = 0, frame = 0
	@ frame_needed = 0, uses_anonymous_args = 0
	.loc 1 633 2 view .LVU692
.LBB326:
.LBI326:
	.loc 1 1026 13 view .LVU693
	.loc 1 1028 2 view .LVU694
.LBB327:
	.loc 1 1028 7 view .LVU695
	.loc 1 1028 20 view .LVU696
.LBE327:
.LBE326:
	.loc 1 627 1 is_stmt 0 view .LVU697
	push	{r4, lr}
	.cfi_def_cfa_offset 8
	.cfi_offset 4, -8
	.cfi_offset 14, -4
	ldr	r4, .L235+8
	ldr	r1, .L235+12
.LBB330:
.LBB329:
	.loc 1 1028 11 view .LVU698
	movs	r3, #0
	add	ip, r4, #-1
.LVL196:
.L231:
.LBB328:
	.loc 1 1029 3 is_stmt 1 view .LVU699
	.loc 1 1032 4 view .LVU700
	.loc 1 1034 3 view .LVU701
	.loc 1 1029 11 is_stmt 0 view .LVU702
	ldrb	r2, [r4, r3, lsl #3]	@ zero_extendqisi2
.LVL197:
	.loc 1 1031 3 is_stmt 1 view .LVU703
	.loc 1 1031 6 is_stmt 0 view .LVU704
	cmp	r2, #7
	.loc 1 1032 14 view .LVU705
	add	lr, r2, r2, lsl #2
	.loc 1 1031 6 view .LVU706
	bhi	.L230
	.loc 1 1032 14 view .LVU707
	ldrb	r2, [r1, lr, lsl #3]	@ zero_extendqisi2
.LVL198:
	.loc 1 1032 14 view .LVU708
	bfc	r2, #5, #1
	strb	r2, [r1, lr, lsl #3]
.L230:
	.loc 1 1034 16 view .LVU709
	ldrb	r2, [ip, r3, lsl #3]	@ zero_extendqisi2
	bfc	r2, #0, #1
	strb	r2, [ip, r3, lsl #3]
.LVL199:
	.loc 1 1034 16 view .LVU710
.LBE328:
	.loc 1 1028 26 is_stmt 1 view .LVU711
	adds	r3, r3, #1
.LVL200:
	.loc 1 1028 20 view .LVU712
	cmp	r3, #8
	bne	.L231
.LVL201:
	.loc 1 1028 20 is_stmt 0 view .LVU713
.LBE329:
.LBE330:
	.loc 1 635 2 is_stmt 1 view .LVU714
	.loc 1 635 12 is_stmt 0 view .LVU715
	ldr	r2, .L235+16
	.loc 1 636 17 view .LVU716
	ldr	r4, .L235+20
	.loc 1 635 12 view .LVU717
	movs	r3, #0
	strb	r3, [r2]
	.loc 1 636 2 is_stmt 1 view .LVU718
.LBB331:
.LBB332:
.LBB333:
	.loc 1 1247 15 is_stmt 0 view .LVU719
	ldrb	r2, [r1]	@ zero_extendqisi2
	bfi	r2, r3, #0, #1
	strb	r2, [r1]
	ldrb	r2, [r1, #40]	@ zero_extendqisi2
	bfi	r2, r3, #0, #1
	strb	r2, [r1, #40]
	ldrb	r2, [r1, #80]	@ zero_extendqisi2
	bfi	r2, r3, #0, #1
	strb	r2, [r1, #80]
	ldrb	r2, [r1, #120]	@ zero_extendqisi2
	bfi	r2, r3, #0, #1
	strb	r2, [r1, #120]
	ldrb	r2, [r1, #160]	@ zero_extendqisi2
	bfi	r2, r3, #0, #1
	strb	r2, [r1, #160]
	ldrb	r2, [r1, #200]	@ zero_extendqisi2
	bfi	r2, r3, #0, #1
	strb	r2, [r1, #200]
	ldrb	r2, [r1, #240]	@ zero_extendqisi2
	bfi	r2, r3, #0, #1
	strb	r2, [r1, #240]
	ldrb	r2, [r1, #280]	@ zero_extendqisi2
	bfi	r2, r3, #0, #1
	strb	r2, [r1, #280]
.LBE333:
	.loc 1 1250 17 view .LVU720
	ldr	r2, .L235+24
.LBE332:
.LBE331:
	.loc 1 637 14 view .LVU721
	vldr.64	d7, .L235	@ int
.LBB337:
.LBB335:
	.loc 1 1250 17 view .LVU722
	strb	r3, [r2]
.LBE335:
.LBE337:
	.loc 1 637 14 view .LVU723
	ldr	r3, .L235+28
	vstr.64	d7, [r3]	@ int
	.loc 1 636 17 view .LVU724
	ldr	r3, .L235+32
	str	r3, [r4]
	.loc 1 637 2 is_stmt 1 view .LVU725
	.loc 1 638 2 view .LVU726
.LBB338:
.LBI331:
	.loc 1 1244 13 view .LVU727
.LBB336:
	.loc 1 1246 2 view .LVU728
.LBB334:
	.loc 1 1246 7 view .LVU729
.LVL202:
	.loc 1 1246 24 view .LVU730
	.loc 1 1247 3 view .LVU731
	.loc 1 1246 30 view .LVU732
	.loc 1 1246 24 view .LVU733
	.loc 1 1247 3 view .LVU734
	.loc 1 1246 30 view .LVU735
	.loc 1 1246 24 view .LVU736
	.loc 1 1247 3 view .LVU737
	.loc 1 1246 30 view .LVU738
	.loc 1 1246 24 view .LVU739
	.loc 1 1247 3 view .LVU740
	.loc 1 1246 30 view .LVU741
	.loc 1 1246 24 view .LVU742
	.loc 1 1247 3 view .LVU743
	.loc 1 1246 30 view .LVU744
	.loc 1 1246 24 view .LVU745
	.loc 1 1247 3 view .LVU746
	.loc 1 1246 30 view .LVU747
	.loc 1 1246 24 view .LVU748
	.loc 1 1247 3 view .LVU749
	.loc 1 1246 30 view .LVU750
	.loc 1 1246 24 view .LVU751
	.loc 1 1247 3 view .LVU752
	.loc 1 1246 30 view .LVU753
	.loc 1 1246 24 view .LVU754
.LBE334:
	.loc 1 1250 2 view .LVU755
	.loc 1 1250 2 is_stmt 0 view .LVU756
.LBE336:
.LBE338:
	.loc 1 643 2 is_stmt 1 view .LVU757
	.loc 1 643 5 is_stmt 0 view .LVU758
	cbz	r0, .L232
	.loc 1 644 3 is_stmt 1 view .LVU759
	.loc 1 655 1 is_stmt 0 view .LVU760
	pop	{r4, lr}
	.cfi_remember_state
	.cfi_restore 14
	.cfi_restore 4
	.cfi_def_cfa_offset 0
	.loc 1 644 3 view .LVU761
	ldr	r1, .L235+36
	ldr	r0, .L235+40
.LVL203:
	.loc 1 644 3 view .LVU762
	b	k_work_init_delayable
.LVL204:
.L232:
	.cfi_restore_state
	.loc 1 650 3 is_stmt 1 view .LVU763
	.loc 1 655 1 is_stmt 0 view .LVU764
	pop	{r4, lr}
	.cfi_restore 14
	.cfi_restore 4
	.cfi_def_cfa_offset 0
	.loc 1 650 3 view .LVU765
	ldr	r0, .L235+40
.LVL205:
	.loc 1 650 3 view .LVU766
	b	k_work_cancel_delayable
.LVL206:
.L236:
	.align	3
.L235:
	.word	-1
	.word	-1
	.word	fal+1
	.word	rl
	.word	rl_enable
	.word	rpa_timeout_ms
	.word	peer_irk_count
	.word	rpa_last_ms
	.word	900000
	.word	rpa_timeout
	.word	rpa_work
	.cfi_endproc
.LFE616:
	.size	ull_filter_reset, .-ull_filter_reset
	.section	.text.ull_filter_lll_get,"ax",%progbits
	.align	1
	.p2align 2,,3
	.global	ull_filter_lll_get
	.syntax unified
	.thumb
	.thumb_func
	.type	ull_filter_lll_get, %function
ull_filter_lll_get:
.LVL207:
.LFB617:
	.loc 1 659 1 is_stmt 1 view -0
	.cfi_startproc
	@ args = 0, pretend = 0, frame = 0
	@ frame_needed = 0, uses_anonymous_args = 0
	@ link register save eliminated.
	.loc 1 661 2 view .LVU768
	.loc 1 664 9 is_stmt 0 view .LVU769
	ldr	r2, .L240
	ldr	r3, .L240+4
	.loc 1 669 1 view .LVU770
	cmp	r0, #0
	ite	ne
	movne	r0, r2
	moveq	r0, r3
.LVL208:
	.loc 1 669 1 view .LVU771
	bx	lr
.L241:
	.align	2
.L240:
	.word	fal_filter
	.word	rl_filter
	.cfi_endproc
.LFE617:
	.size	ull_filter_lll_get, .-ull_filter_lll_get
	.section	.text.ull_filter_lll_fal_match,"ax",%progbits
	.align	1
	.p2align 2,,3
	.global	ull_filter_lll_fal_match
	.syntax unified
	.thumb
	.thumb_func
	.type	ull_filter_lll_fal_match, %function
ull_filter_lll_fal_match:
.LVL209:
.LFB618:
	.loc 1 674 1 is_stmt 1 view -0
	.cfi_startproc
	@ args = 0, pretend = 0, frame = 0
	@ frame_needed = 0, uses_anonymous_args = 0
	.loc 1 675 2 view .LVU773
	.loc 1 674 1 is_stmt 0 view .LVU774
	push	{r4, r5, r6, r7, r8, r9, r10, lr}
	.cfi_def_cfa_offset 32
	.cfi_offset 4, -32
	.cfi_offset 5, -28
	.cfi_offset 6, -24
	.cfi_offset 7, -20
	.cfi_offset 8, -16
	.cfi_offset 9, -12
	.cfi_offset 10, -8
	.cfi_offset 14, -4
.LBB341:
.LBB342:
	.loc 1 1330 13 view .LVU775
	ldrb	r6, [r0]	@ zero_extendqisi2
.LVL210:
	.loc 1 1330 13 view .LVU776
.LBE342:
.LBI341:
	.loc 1 1325 17 is_stmt 1 view .LVU777
.LBB343:
	.loc 1 1328 2 view .LVU778
	.loc 1 1330 2 view .LVU779
.LBE343:
.LBE341:
	.loc 1 674 1 is_stmt 0 view .LVU780
	mov	r8, r3
.LBB348:
.LBB344:
	.loc 1 1330 5 view .LVU781
	cbz	r6, .L246
	mov	r7, r0
	mov	r9, r1
	mov	r10, r2
	add	r5, r0, #44
	.loc 1 1335 14 view .LVU782
	movs	r4, #7
.LVL211:
.L245:
	.loc 1 1336 3 is_stmt 1 view .LVU783
	.loc 1 1336 7 is_stmt 0 view .LVU784
	lsr	r3, r6, r4
	.loc 1 1336 6 view .LVU785
	lsls	r2, r3, #31
	bpl	.L244
	.loc 1 1337 16 view .LVU786
	ldrb	ip, [r7, #1]	@ zero_extendqisi2
	.loc 1 1337 36 view .LVU787
	asr	ip, ip, r4
	.loc 1 1337 54 view .LVU788
	eor	ip, ip, r9
	.loc 1 1336 51 view .LVU789
	tst	ip, #1
	.loc 1 1339 8 view .LVU790
	mov	r0, r5
	mov	r2, #6
	mov	r1, r10
	.loc 1 1336 51 view .LVU791
	bne	.L244
.LVL212:
	.loc 1 1339 8 view .LVU792
	bl	memcmp
.LVL213:
	.loc 1 1338 28 view .LVU793
	cbz	r0, .L252
.L244:
	.loc 1 1335 9 is_stmt 1 view .LVU794
	.loc 1 1335 14 is_stmt 0 view .LVU795
	subs	r4, r4, #1
.LVL214:
	.loc 1 1335 9 view .LVU796
	adds	r3, r4, #1
	sub	r5, r5, #6
	bne	.L245
	movs	r6, #0
	movs	r4, #255
.LVL215:
.L243:
	.loc 1 1335 9 view .LVU797
.LBE344:
.LBE348:
	.loc 1 675 15 view .LVU798
	strb	r4, [r8]
	.loc 1 677 2 is_stmt 1 view .LVU799
	.loc 1 678 1 is_stmt 0 view .LVU800
	mov	r0, r6
	pop	{r4, r5, r6, r7, r8, r9, r10, pc}
.LVL216:
.L246:
.LBB349:
.LBB345:
	.loc 1 678 1 view .LVU801
	movs	r4, #255
.LVL217:
	.loc 1 678 1 view .LVU802
.LBE345:
.LBE349:
	.loc 1 675 15 view .LVU803
	strb	r4, [r8]
	.loc 1 677 2 is_stmt 1 view .LVU804
	.loc 1 678 1 is_stmt 0 view .LVU805
	mov	r0, r6
.LVL218:
	.loc 1 678 1 view .LVU806
	pop	{r4, r5, r6, r7, r8, r9, r10, pc}
.LVL219:
.L252:
.LBB350:
.LBB346:
	.loc 1 1340 4 is_stmt 1 view .LVU807
.LBE346:
.LBE350:
	.loc 1 675 15 is_stmt 0 view .LVU808
	uxtb	r4, r4
.LVL220:
.LBB351:
.LBB347:
	.loc 1 1340 11 view .LVU809
	movs	r6, #1
	b	.L243
.LBE347:
.LBE351:
	.cfi_endproc
.LFE618:
	.size	ull_filter_lll_fal_match, .-ull_filter_lll_fal_match
	.global	__aeabi_uldivmod
	.global	__aeabi_ldivmod
	.section	.text.ull_filter_adv_scan_state_cb,"ax",%progbits
	.align	1
	.p2align 2,,3
	.global	ull_filter_adv_scan_state_cb
	.syntax unified
	.thumb
	.thumb_func
	.type	ull_filter_adv_scan_state_cb, %function
ull_filter_adv_scan_state_cb:
.LVL221:
.LFB619:
	.loc 1 682 1 is_stmt 1 view -0
	.cfi_startproc
	@ args = 0, pretend = 0, frame = 0
	@ frame_needed = 0, uses_anonymous_args = 0
	.loc 1 683 2 view .LVU811
	.loc 1 683 5 is_stmt 0 view .LVU812
	cbz	r0, .L254
	.loc 1 684 3 is_stmt 1 view .LVU813
.LBB360:
.LBI360:
	.loc 1 1277 13 view .LVU814
.LBB361:
	.loc 1 1279 2 view .LVU815
.LBB362:
	.loc 1 1279 7 view .LVU816
.LBE362:
	.loc 1 1279 5 view .LVU817
	.loc 1 1280 2 view .LVU818
.LBE361:
.LBE360:
	.loc 1 682 1 is_stmt 0 view .LVU819
	push	{r4, lr}
	.cfi_def_cfa_offset 8
	.cfi_offset 4, -8
	.cfi_offset 14, -4
.LBB365:
.LBB363:
	.loc 1 1280 34 view .LVU820
	ldr	r2, .L258
	.loc 1 1280 107 view .LVU821
	ldr	r2, [r2]
	mov	r3, #32768
	movw	r0, #999
.LVL222:
	.loc 1 1280 107 view .LVU822
	movs	r1, #0
	.loc 1 1280 49 view .LVU823
	umlal	r0, r1, r2, r3
	mov	r2, #1000
	movs	r3, #0
	bl	__aeabi_uldivmod
.LVL223:
.LBE363:
.LBE365:
	.loc 1 688 1 view .LVU824
	pop	{r4, lr}
	.cfi_restore 14
	.cfi_restore 4
	.cfi_def_cfa_offset 0
.LBB366:
.LBB364:
	.loc 1 1280 49 view .LVU825
	mov	r2, r0
	mov	r3, r1
	.loc 1 1280 2 view .LVU826
	ldr	r0, .L258+4
	b	k_work_schedule
.LVL224:
.L254:
	.loc 1 1280 2 view .LVU827
.LBE364:
.LBE366:
	.loc 1 686 3 is_stmt 1 view .LVU828
.LBB367:
.LBI367:
	.loc 1 1283 13 view .LVU829
.LBB368:
	.loc 1 1285 2 view .LVU830
	ldr	r0, .L258+4
.LVL225:
	.loc 1 1285 2 is_stmt 0 view .LVU831
	b	k_work_cancel_delayable
.LVL226:
.L259:
	.align	2
.L258:
	.word	rpa_timeout_ms
	.word	rpa_work
.LBE368:
.LBE367:
	.cfi_endproc
.LFE619:
	.size	ull_filter_adv_scan_state_cb, .-ull_filter_adv_scan_state_cb
	.section	.text.ull_filter_adv_update,"ax",%progbits
	.align	1
	.p2align 2,,3
	.global	ull_filter_adv_update
	.syntax unified
	.thumb
	.thumb_func
	.type	ull_filter_adv_update, %function
ull_filter_adv_update:
.LVL227:
.LFB620:
	.loc 1 691 1 is_stmt 1 view -0
	.cfi_startproc
	@ args = 0, pretend = 0, frame = 0
	@ frame_needed = 0, uses_anonymous_args = 0
	.loc 1 693 2 view .LVU833
.LBB369:
.LBI369:
	.loc 1 1355 13 view .LVU834
.LBB370:
	.loc 1 1357 2 view .LVU835
	.loc 1 1358 2 view .LVU836
.LBE370:
.LBE369:
	.loc 1 691 1 is_stmt 0 view .LVU837
	push	{r3, lr}
	.cfi_def_cfa_offset 8
	.cfi_offset 3, -8
	.cfi_offset 14, -4
.LBB372:
.LBB371:
	.loc 1 1357 25 view .LVU838
	ldr	r3, .L269
	movs	r2, #0
	strh	r2, [r3]	@ movhi
.LVL228:
	.loc 1 1357 25 view .LVU839
.LBE371:
.LBE372:
	.loc 1 696 2 is_stmt 1 view .LVU840
	.loc 1 696 5 is_stmt 0 view .LVU841
	cbnz	r0, .L267
.LVL229:
.L261:
	.loc 1 704 2 is_stmt 1 view .LVU842
.LBB373:
.LBI373:
	.loc 1 1355 13 view .LVU843
.LBB374:
	.loc 1 1357 2 view .LVU844
	.loc 1 1358 2 view .LVU845
.LBE374:
.LBE373:
	.loc 1 706 16 is_stmt 0 view .LVU846
	ldr	r3, .L269+4
.LBB377:
.LBB375:
	.loc 1 1357 25 view .LVU847
	ldr	r2, .L269+8
.LBE375:
.LBE377:
	.loc 1 706 5 view .LVU848
	ldrb	r3, [r3]	@ zero_extendqisi2
.LBB378:
.LBB376:
	.loc 1 1357 25 view .LVU849
	movs	r1, #0
	strh	r1, [r2]	@ movhi
.LVL230:
	.loc 1 1357 25 view .LVU850
.LBE376:
.LBE378:
	.loc 1 706 2 is_stmt 1 view .LVU851
	.loc 1 706 5 is_stmt 0 view .LVU852
	cbnz	r3, .L268
	.loc 1 711 1 view .LVU853
	pop	{r3, pc}
.LVL231:
.L267:
	.loc 1 700 3 is_stmt 1 view .LVU854
	bl	fal_update
.LVL232:
	.loc 1 700 3 is_stmt 0 view .LVU855
	b	.L261
.L268:
	.loc 1 709 3 is_stmt 1 view .LVU856
	.loc 1 711 1 is_stmt 0 view .LVU857
	pop	{r3, lr}
	.cfi_restore 14
	.cfi_restore 3
	.cfi_def_cfa_offset 0
	.loc 1 709 3 view .LVU858
	b	rl_update
.LVL233:
.L270:
	.align	2
.L269:
	.word	fal_filter
	.word	rl_enable
	.word	rl_filter
	.cfi_endproc
.LFE620:
	.size	ull_filter_adv_update, .-ull_filter_adv_update
	.section	.text.ull_filter_scan_update,"ax",%progbits
	.align	1
	.p2align 2,,3
	.global	ull_filter_scan_update
	.syntax unified
	.thumb
	.thumb_func
	.type	ull_filter_scan_update, %function
ull_filter_scan_update:
.LVL234:
.LFB621:
	.loc 1 714 1 is_stmt 1 view -0
	.cfi_startproc
	@ args = 0, pretend = 0, frame = 0
	@ frame_needed = 0, uses_anonymous_args = 0
	.loc 1 716 2 view .LVU860
.LBB379:
.LBI379:
	.loc 1 1355 13 view .LVU861
.LBB380:
	.loc 1 1357 2 view .LVU862
	.loc 1 1358 2 view .LVU863
	.loc 1 1357 25 is_stmt 0 view .LVU864
	ldr	r2, .L281
.LBE380:
.LBE379:
	.loc 1 714 1 view .LVU865
	push	{r3, lr}
	.cfi_def_cfa_offset 8
	.cfi_offset 3, -8
	.cfi_offset 14, -4
.LBB382:
.LBB381:
	.loc 1 1357 25 view .LVU866
	movs	r3, #0
	strh	r3, [r2]	@ movhi
.LVL235:
	.loc 1 1357 25 view .LVU867
.LBE381:
.LBE382:
	.loc 1 719 2 is_stmt 1 view .LVU868
	.loc 1 719 5 is_stmt 0 view .LVU869
	lsls	r2, r0, #31
	bmi	.L279
.LVL236:
.L273:
	.loc 1 727 2 is_stmt 1 view .LVU870
.LBB383:
.LBI383:
	.loc 1 1355 13 view .LVU871
.LBB384:
	.loc 1 1357 2 view .LVU872
	.loc 1 1358 2 view .LVU873
.LBE384:
.LBE383:
	.loc 1 729 6 is_stmt 0 view .LVU874
	ldr	r3, .L281+4
.LBB387:
.LBB385:
	.loc 1 1357 25 view .LVU875
	ldr	r2, .L281+8
.LBE385:
.LBE387:
	.loc 1 729 5 view .LVU876
	ldrb	r3, [r3]	@ zero_extendqisi2
.LBB388:
.LBB386:
	.loc 1 1357 25 view .LVU877
	movs	r0, #0
	strh	r0, [r2]	@ movhi
.LVL237:
	.loc 1 1357 25 view .LVU878
.LBE386:
.LBE388:
	.loc 1 729 2 is_stmt 1 view .LVU879
	.loc 1 729 5 is_stmt 0 view .LVU880
	cbnz	r3, .L280
.L271:
	.loc 1 734 1 view .LVU881
	pop	{r3, pc}
.L280:
	.loc 1 730 14 discriminator 1 view .LVU882
	bl	ull_adv_is_enabled
.LVL238:
	.loc 1 729 16 discriminator 1 view .LVU883
	cmp	r0, #0
	bne	.L271
	.loc 1 732 3 is_stmt 1 view .LVU884
	.loc 1 734 1 is_stmt 0 view .LVU885
	pop	{r3, lr}
	.cfi_remember_state
	.cfi_restore 14
	.cfi_restore 3
	.cfi_def_cfa_offset 0
	.loc 1 732 3 view .LVU886
	b	rl_update
.LVL239:
.L279:
	.cfi_restore_state
	.loc 1 721 8 discriminator 1 view .LVU887
	mov	r0, r3
.LVL240:
	.loc 1 721 8 discriminator 1 view .LVU888
	bl	ull_adv_filter_pol_get
.LVL241:
	.loc 1 719 22 discriminator 1 view .LVU889
	cmp	r0, #0
	bne	.L273
	.loc 1 723 3 is_stmt 1 view .LVU890
	bl	fal_update
.LVL242:
	b	.L273
.L282:
	.align	2
.L281:
	.word	fal_filter
	.word	rl_enable
	.word	rl_filter
	.cfi_endproc
.LFE621:
	.size	ull_filter_scan_update, .-ull_filter_scan_update
	.section	.rodata.ull_filter_rpa_update.str1.4,"aMS",%progbits,1
	.align	2
.LC4:
	.ascii	"!err\000"
	.section	.text.ull_filter_rpa_update,"ax",%progbits
	.align	1
	.p2align 2,,3
	.global	ull_filter_rpa_update
	.syntax unified
	.thumb
	.thumb_func
	.type	ull_filter_rpa_update, %function
ull_filter_rpa_update:
.LVL243:
.LFB622:
	.loc 1 737 1 view -0
	.cfi_startproc
	@ args = 0, pretend = 0, frame = 24
	@ frame_needed = 0, uses_anonymous_args = 0
	.loc 1 738 2 view .LVU892
	.loc 1 739 2 view .LVU893
	.loc 1 740 2 view .LVU894
.LBB421:
.LBI421:
	.file 4 "/home/g/mise-work/zmk-firmware/zmk/zephyr/include/zephyr/kernel.h"
	.loc 4 1757 23 view .LVU895
.LBB422:
	.loc 4 1759 2 view .LVU896
.LBB423:
.LBI423:
	.file 5 "/home/g/mise-work/zmk-firmware/zmk/app/build/zephyr/include/generated/syscalls/kernel.h"
	.loc 5 599 23 view .LVU897
.LBB424:
	.loc 5 608 2 view .LVU898
	.loc 5 608 7 view .LVU899
.LBE424:
.LBE423:
.LBE422:
.LBE421:
	.loc 1 737 1 is_stmt 0 view .LVU900
	push	{r4, r5, r6, r7, r8, r9, r10, fp, lr}
	.cfi_def_cfa_offset 36
	.cfi_offset 4, -36
	.cfi_offset 5, -32
	.cfi_offset 6, -28
	.cfi_offset 7, -24
	.cfi_offset 8, -20
	.cfi_offset 9, -16
	.cfi_offset 10, -12
	.cfi_offset 11, -8
	.cfi_offset 14, -4
	mov	fp, r0
	sub	sp, sp, #28
	.cfi_def_cfa_offset 64
.LBB428:
.LBB427:
.LBB426:
.LBB425:
	.loc 5 608 7 view .LVU901
	.loc 5 608 5 is_stmt 1 view .LVU902
	.loc 5 609 2 view .LVU903
	.loc 5 609 9 is_stmt 0 view .LVU904
	bl	z_impl_k_uptime_ticks
.LVL244:
	.loc 5 609 9 view .LVU905
.LBE425:
.LBE426:
	.loc 4 1759 51 view .LVU906
	lsls	r2, r1, #5
	lsls	r3, r0, #5
	subs	r3, r3, r0
	orr	r2, r2, r0, lsr #27
	sbc	r2, r2, r1
	lsls	r2, r2, #2
	orr	r2, r2, r3, lsr #30
	lsls	r3, r3, #2
	adds	r3, r3, r0
	adc	r9, r1, r2
	lsl	r9, r9, #3
	orr	r9, r9, r3, lsr #29
	.loc 4 1759 44 view .LVU907
	ubfx	r3, r3, #12, #17
	orr	r3, r3, r9, lsl #17
	lsr	r9, r9, #15
.LVL245:
	.loc 4 1759 44 view .LVU908
.LBE427:
.LBE428:
	.loc 1 741 1 is_stmt 1 view .LVU909
	.loc 1 741 43 is_stmt 0 view .LVU910
	cmp	fp, #0
	bne	.L300
	.loc 1 741 36 discriminator 2 view .LVU911
	ldr	r2, .L332
	ldrd	r1, r2, [r2]
	.loc 1 741 20 discriminator 2 view .LVU912
	cmp	r2, #-1
	it	eq
	cmpeq	r1, #-1
	beq	.L300
	.loc 1 742 25 discriminator 4 view .LVU913
	ldr	r0, .L332+4
	ldr	r0, [r0]
	.loc 1 742 11 discriminator 4 view .LVU914
	subs	r1, r3, r1
	sbc	r2, r9, r2
	.loc 1 741 43 discriminator 4 view .LVU915
	cmp	r1, r0
	sbcs	r2, r2, #0
	ite	ge
	movge	r10, #1
	movlt	r10, #0
	b	.L284
.L300:
	.loc 1 741 43 view .LVU916
	mov	r10, #1
.L284:
.LVL246:
	.loc 1 743 2 is_stmt 1 discriminator 8 view .LVU917
.LBB429:
	.loc 1 743 7 discriminator 8 view .LVU918
.LBE429:
	.loc 1 743 5 discriminator 8 view .LVU919
	.loc 1 745 2 discriminator 8 view .LVU920
	.loc 1 745 17 discriminator 8 view .LVU921
	ldr	r6, .L332+8
	str	fp, [sp, #4]
	ldr	r8, .L332+28
	.loc 1 741 43 is_stmt 0 discriminator 8 view .LVU922
	movs	r4, #0
	subs	r7, r6, #7
	mov	fp, r3
	b	.L292
.LVL247:
.L290:
	.loc 1 779 4 is_stmt 1 view .LVU923
	.loc 1 779 21 is_stmt 0 view .LVU924
	add	r5, r5, r4
	ldrb	r3, [r7, r5, lsl #3]	@ zero_extendqisi2
	orr	r3, r3, #2
	strb	r3, [r7, r5, lsl #3]
.L285:
	.loc 1 745 23 is_stmt 1 discriminator 2 view .LVU925
.LVL248:
	.loc 1 745 17 discriminator 2 view .LVU926
	adds	r4, r4, #1
.LVL249:
	.loc 1 745 17 is_stmt 0 discriminator 2 view .LVU927
	cmp	r4, #8
	add	r8, r8, #6
	add	r6, r6, #40
	beq	.L328
.LVL250:
.L292:
	.loc 1 746 3 is_stmt 1 view .LVU928
	.loc 1 746 13 is_stmt 0 view .LVU929
	add	r3, r4, r4, lsl #2
	lsls	r5, r4, #2
	ldrb	r3, [r7, r3, lsl #3]	@ zero_extendqisi2
	.loc 1 746 6 view .LVU930
	lsls	r2, r3, #31
	bpl	.L285
	.loc 1 746 21 discriminator 1 view .LVU931
	cmp	r10, #0
	bne	.L286
	.loc 1 746 29 discriminator 2 view .LVU932
	lsls	r0, r3, #30
	bmi	.L285
.L286:
	.loc 1 748 4 is_stmt 1 view .LVU933
	.loc 1 748 13 is_stmt 0 view .LVU934
	adds	r3, r5, r4
	ldrb	r3, [r7, r3, lsl #3]	@ zero_extendqisi2
	.loc 1 748 7 view .LVU935
	lsls	r1, r3, #29
	bmi	.L329
.L287:
	.loc 1 765 4 is_stmt 1 view .LVU936
	.loc 1 765 13 is_stmt 0 view .LVU937
	adds	r3, r5, r4
	ldrb	r3, [r7, r3, lsl #3]	@ zero_extendqisi2
	.loc 1 765 7 view .LVU938
	lsls	r2, r3, #28
	bpl	.L290
.LBB430:
	.loc 1 766 5 is_stmt 1 view .LVU939
	.loc 1 768 5 view .LVU940
	.loc 1 768 11 is_stmt 0 view .LVU941
	add	r1, sp, #8
	mov	r0, r6
	bl	bt_rpa_create
.LVL251:
	.loc 1 769 5 is_stmt 1 view .LVU942
	.loc 1 769 10 view .LVU943
	.loc 1 769 13 is_stmt 0 view .LVU944
	cmp	r0, #0
	bne	.L330
.LVL252:
.L291:
	.loc 1 769 157 is_stmt 1 discriminator 3 view .LVU945
	.loc 1 769 8 discriminator 3 view .LVU946
	.loc 1 774 5 discriminator 3 view .LVU947
	.loc 1 775 5 discriminator 3 view .LVU948
.LBB431:
.LBI431:
	.loc 3 127 20 discriminator 3 view .LVU949
	.loc 3 129 1 discriminator 3 view .LVU950
.LBB432:
.LBI432:
	.loc 3 127 20 discriminator 3 view .LVU951
.LBB433:
.LBI433:
	.loc 2 83 216 discriminator 3 view .LVU952
.LBB434:
	.loc 2 83 292 discriminator 3 view .LVU953
	.loc 2 83 299 is_stmt 0 discriminator 3 view .LVU954
	ldrh	r3, [sp, #12]	@ unaligned
	ldr	r0, [sp, #8]
	strh	r3, [r8, #4]	@ unaligned
.LVL253:
	.loc 2 83 299 discriminator 3 view .LVU955
.LBE434:
.LBE433:
.LBE432:
.LBE431:
	.loc 1 776 5 is_stmt 1 discriminator 3 view .LVU956
	.loc 1 776 21 is_stmt 0 discriminator 3 view .LVU957
	str	r8, [r6, #29]
.LBB438:
.LBB437:
.LBB436:
.LBB435:
	.loc 2 83 299 discriminator 3 view .LVU958
	str	r0, [r8]	@ unaligned
	b	.L290
.LVL254:
.L328:
	.loc 2 83 299 discriminator 3 view .LVU959
.LBE435:
.LBE436:
.LBE437:
.LBE438:
.LBE430:
	.loc 1 783 2 is_stmt 1 view .LVU960
	.loc 1 783 5 is_stmt 0 view .LVU961
	mov	r3, fp
	ldr	fp, [sp, #4]
.LVL255:
	.loc 1 783 5 view .LVU962
	cmp	r10, #0
	beq	.L293
	.loc 1 784 3 is_stmt 1 view .LVU963
	.loc 1 784 15 is_stmt 0 view .LVU964
	ldr	r2, .L332
	strd	r3, r9, [r2]
.L293:
	.loc 1 787 2 is_stmt 1 view .LVU965
	.loc 1 787 5 is_stmt 0 view .LVU966
	cmp	fp, #0
	beq	.L283
.LVL256:
.LBB439:
	.loc 1 791 28 is_stmt 1 view .LVU967
.LBB440:
	.loc 1 792 4 view .LVU968
	.loc 1 794 4 view .LVU969
	.loc 1 794 10 is_stmt 0 view .LVU970
	movs	r0, #0
	bl	ull_adv_is_enabled_get
.LVL257:
	.loc 1 795 4 is_stmt 1 view .LVU971
	.loc 1 795 7 is_stmt 0 view .LVU972
	mov	r4, r0
	cbz	r0, .L283
	.loc 1 796 5 is_stmt 1 view .LVU973
.LVL258:
.LBB441:
.LBI441:
	.loc 1 1144 13 view .LVU974
.LBB442:
	.loc 1 1146 2 view .LVU975
	.loc 1 1147 2 view .LVU976
	.loc 1 1148 2 view .LVU977
	.loc 1 1149 2 view .LVU978
	.loc 1 1150 2 view .LVU979
	.loc 1 1156 2 view .LVU980
	.loc 1 1156 5 is_stmt 0 view .LVU981
	ldrb	r3, [r4, #106]	@ zero_extendqisi2
	lsls	r3, r3, #29
	bmi	.L331
.LVL259:
.L283:
	.loc 1 1156 5 view .LVU982
.LBE442:
.LBE441:
.LBE440:
.LBE439:
	.loc 1 801 1 view .LVU983
	add	sp, sp, #28
	.cfi_remember_state
	.cfi_def_cfa_offset 36
	@ sp needed
	pop	{r4, r5, r6, r7, r8, r9, r10, fp, pc}
.LVL260:
.L331:
	.cfi_restore_state
.LBB462:
.LBB461:
.LBB460:
.LBB459:
	.loc 1 1161 2 is_stmt 1 view .LVU984
	.loc 1 1162 2 view .LVU985
	.loc 1 1162 5 is_stmt 0 view .LVU986
	ldrb	r3, [r4, #38]	@ zero_extendqisi2
	cmp	r3, #7
	bhi	.L283
	.loc 1 1167 2 is_stmt 1 view .LVU987
	.loc 1 1167 10 is_stmt 0 view .LVU988
	movs	r3, #255
	strb	r3, [sp, #8]
	.loc 1 1168 2 is_stmt 1 view .LVU989
.LVL261:
	.loc 1 1169 2 view .LVU990
	.loc 1 1170 2 view .LVU991
.LBB443:
.LBI443:
	.file 6 "/home/g/mise-work/zmk-firmware/zmk/zephyr/subsys/bluetooth/controller/ll_sw/nordic/lll/lll_adv_pdu.h"
	.loc 6 43 31 view .LVU992
.LBB444:
	.loc 6 45 2 view .LVU993
	.loc 6 45 48 is_stmt 0 view .LVU994
	ldrb	r3, [r4, #41]	@ zero_extendqisi2
	.loc 6 45 9 view .LVU995
	add	r3, r4, r3, lsl #2
.LBE444:
.LBE443:
.LBB446:
.LBB447:
	.loc 6 35 9 view .LVU996
	add	r1, sp, #8
.LBE447:
.LBE446:
.LBB450:
.LBB445:
	.loc 6 45 9 view .LVU997
	ldr	r6, [r3, #44]
.LVL262:
	.loc 6 45 9 view .LVU998
.LBE445:
.LBE450:
	.loc 1 1172 2 is_stmt 1 view .LVU999
	.loc 1 1224 3 view .LVU1000
.LBB451:
.LBI446:
	.loc 6 32 31 view .LVU1001
.LBB448:
	.loc 6 35 2 view .LVU1002
	.loc 6 35 9 is_stmt 0 view .LVU1003
	add	r0, r4, #40
.LVL263:
	.loc 6 35 9 view .LVU1004
	bl	lll_adv_pdu_alloc
.LVL264:
	.loc 6 35 9 view .LVU1005
.LBE448:
.LBE451:
	.loc 1 1225 16 view .LVU1006
	ldrb	r2, [r6, #1]	@ zero_extendqisi2
.LBB452:
.LBB449:
	.loc 6 35 9 view .LVU1007
	mov	r5, r0
.LVL265:
	.loc 6 35 9 view .LVU1008
.LBE449:
.LBE452:
	.loc 1 1225 3 is_stmt 1 view .LVU1009
.LBB453:
.LBI453:
	.loc 2 83 216 view .LVU1010
.LBB454:
	.loc 2 83 292 view .LVU1011
	.loc 2 83 299 is_stmt 0 view .LVU1012
	adds	r2, r2, #2
.LVL266:
	.loc 2 83 299 view .LVU1013
	mov	r1, r6
	bl	memcpy
.LVL267:
	.loc 2 83 299 view .LVU1014
.LBE454:
.LBE453:
	.loc 1 1228 2 is_stmt 1 view .LVU1015
	.loc 1 1229 3 view .LVU1016
	mov	r1, r5
	mov	r0, r4
	bl	ull_adv_pdu_update_addrs
.LVL268:
	.loc 1 1231 3 view .LVU1017
	.loc 1 1231 15 is_stmt 0 view .LVU1018
	ldrb	r3, [sp, #8]	@ zero_extendqisi2
	.loc 1 1231 6 view .LVU1019
	cmp	r3, #255
	beq	.L283
	.loc 1 1232 4 is_stmt 1 view .LVU1020
.LVL269:
.LBB455:
.LBI455:
	.loc 6 38 20 view .LVU1021
.LBB456:
	.loc 6 40 2 view .LVU1022
.LBB457:
.LBI457:
	.loc 6 24 20 view .LVU1023
.LBB458:
	.loc 6 26 2 view .LVU1024
	.loc 6 26 12 is_stmt 0 view .LVU1025
	strb	r3, [r4, #41]
.LVL270:
	.loc 6 26 12 view .LVU1026
.LBE458:
.LBE457:
.LBE456:
.LBE455:
.LBE459:
.LBE460:
.LBE461:
	.loc 1 791 28 is_stmt 1 view .LVU1027
.LBE462:
	.loc 1 801 1 is_stmt 0 view .LVU1028
	add	sp, sp, #28
	.cfi_remember_state
	.cfi_def_cfa_offset 36
	@ sp needed
	pop	{r4, r5, r6, r7, r8, r9, r10, fp, pc}
.LVL271:
.L329:
	.cfi_restore_state
.LBB463:
	.loc 1 749 5 is_stmt 1 view .LVU1029
	.loc 1 752 5 view .LVU1030
.LBB464:
.LBI464:
	.file 7 "/home/g/mise-work/zmk-firmware/zmk/zephyr/include/zephyr/sys/byteorder.h"
	.loc 7 613 20 view .LVU1031
.LBB465:
	.loc 7 615 2 view .LVU1032
	.loc 7 616 2 view .LVU1033
	.loc 7 618 4 view .LVU1034
	.loc 7 620 54 view .LVU1035
	.loc 7 622 2 view .LVU1036
	.loc 7 622 7 is_stmt 0 view .LVU1037
	ldrb	r1, [r6, #16]	@ zero_extendqisi2
	ldr	r3, .L332+12
	movs	r2, #15
	add	r2, r2, r1, lsl #4
	add	r2, r2, r3
.LVL272:
	.loc 7 624 2 is_stmt 1 view .LVU1038
	.loc 7 624 16 view .LVU1039
	add	r0, sp, #23
	add	r3, sp, #7
.LVL273:
.L288:
	.loc 7 625 3 view .LVU1040
	.loc 7 625 11 is_stmt 0 view .LVU1041
	ldrb	r1, [r2], #-1	@ zero_extendqisi2
.LVL274:
	.loc 7 625 11 view .LVU1042
	strb	r1, [r3, #1]!
.LVL275:
	.loc 7 624 27 is_stmt 1 view .LVU1043
	.loc 7 624 16 view .LVU1044
	cmp	r3, r0
	bne	.L288
.LVL276:
	.loc 7 624 16 is_stmt 0 view .LVU1045
.LBE465:
.LBE464:
	.loc 1 754 5 is_stmt 1 view .LVU1046
	.loc 1 754 11 is_stmt 0 view .LVU1047
	add	r1, r6, #23
	add	r0, sp, #8
	bl	bt_rpa_create
.LVL277:
	.loc 1 755 5 is_stmt 1 view .LVU1048
	.loc 1 755 10 view .LVU1049
	.loc 1 755 13 is_stmt 0 view .LVU1050
	cmp	r0, #0
	beq	.L287
	.loc 1 755 25 is_stmt 1 discriminator 1 view .LVU1051
	ldr	r2, .L332+16
	ldr	r1, .L332+20
	ldr	r0, .L332+24
.LVL278:
	.loc 1 755 25 is_stmt 0 discriminator 1 view .LVU1052
	movw	r3, #755
	bl	assert_print
.LVL279:
	.loc 1 755 154 is_stmt 1 discriminator 1 view .LVU1053
	.loc 1 755 159 discriminator 1 view .LVU1054
	.syntax unified
@ 755 "/home/g/mise-work/zmk-firmware/zmk/zephyr/subsys/bluetooth/controller/ll_sw/ull_filter.c" 1
	eors.n r0, r0
	msr BASEPRI, r0
	mov r0, #3
	svc #2
	
@ 0 "" 2
	.loc 1 755 157 discriminator 1 view .LVU1055
	.loc 1 755 8 discriminator 1 view .LVU1056
	.thumb
	.syntax unified
	b	.L287
.LVL280:
.L330:
	.loc 1 755 8 is_stmt 0 discriminator 1 view .LVU1057
.LBE463:
.LBB466:
	.loc 1 769 25 is_stmt 1 discriminator 1 view .LVU1058
	ldr	r2, .L332+16
	ldr	r1, .L332+20
	ldr	r0, .L332+24
.LVL281:
	.loc 1 769 25 is_stmt 0 discriminator 1 view .LVU1059
	movw	r3, #769
	bl	assert_print
.LVL282:
	.loc 1 769 154 is_stmt 1 discriminator 1 view .LVU1060
	.loc 1 769 159 discriminator 1 view .LVU1061
	.syntax unified
@ 769 "/home/g/mise-work/zmk-firmware/zmk/zephyr/subsys/bluetooth/controller/ll_sw/ull_filter.c" 1
	eors.n r0, r0
	msr BASEPRI, r0
	mov r0, #3
	svc #2
	
@ 0 "" 2
	.thumb
	.syntax unified
	b	.L291
.L333:
	.align	2
.L332:
	.word	rpa_last_ms
	.word	rpa_timeout_ms
	.word	rl+7
	.word	peer_irks
	.word	.LC0
	.word	.LC4
	.word	.LC2
	.word	local_rpas
.LBE466:
	.cfi_endproc
.LFE622:
	.size	ull_filter_rpa_update, .-ull_filter_rpa_update
	.section	.text.rpa_timeout,"ax",%progbits
	.align	1
	.p2align 2,,3
	.syntax unified
	.thumb
	.thumb_func
	.type	rpa_timeout, %function
rpa_timeout:
.LVL283:
.LFB647:
	.loc 1 1272 1 view -0
	.cfi_startproc
	@ args = 0, pretend = 0, frame = 0
	@ frame_needed = 0, uses_anonymous_args = 0
	.loc 1 1273 2 view .LVU1063
	.loc 1 1272 1 is_stmt 0 view .LVU1064
	push	{r4, lr}
	.cfi_def_cfa_offset 8
	.cfi_offset 4, -8
	.cfi_offset 14, -4
	.loc 1 1273 2 view .LVU1065
	movs	r0, #1
.LVL284:
	.loc 1 1273 2 view .LVU1066
	bl	ull_filter_rpa_update
.LVL285:
	.loc 1 1274 2 is_stmt 1 view .LVU1067
	.loc 1 1274 34 is_stmt 0 view .LVU1068
	ldr	r2, .L336
	.loc 1 1274 107 view .LVU1069
	ldr	r2, [r2]
	mov	r3, #32768
	movw	r0, #999
	movs	r1, #0
	.loc 1 1274 49 view .LVU1070
	umlal	r0, r1, r2, r3
	mov	r2, #1000
	movs	r3, #0
	bl	__aeabi_uldivmod
.LVL286:
	.loc 1 1275 1 view .LVU1071
	pop	{r4, lr}
	.cfi_restore 14
	.cfi_restore 4
	.cfi_def_cfa_offset 0
	.loc 1 1274 49 view .LVU1072
	mov	r2, r0
	mov	r3, r1
	.loc 1 1274 2 view .LVU1073
	ldr	r0, .L336+4
	b	k_work_schedule
.LVL287:
.L337:
	.align	2
.L336:
	.word	rpa_timeout_ms
	.word	rpa_work
	.cfi_endproc
.LFE647:
	.size	rpa_timeout, .-rpa_timeout
	.section	.rodata.ull_filter_adva_get.str1.4,"aMS",%progbits,1
	.align	2
.LC5:
	.ascii	"rl[rl_idx].rpas_ready\000"
	.section	.text.ull_filter_adva_get,"ax",%progbits
	.align	1
	.p2align 2,,3
	.global	ull_filter_adva_get
	.syntax unified
	.thumb
	.thumb_func
	.type	ull_filter_adva_get, %function
ull_filter_adva_get:
.LVL288:
.LFB623:
	.loc 1 805 1 is_stmt 1 view -0
	.cfi_startproc
	@ args = 0, pretend = 0, frame = 0
	@ frame_needed = 0, uses_anonymous_args = 0
	.loc 1 807 2 view .LVU1075
	.loc 1 807 5 is_stmt 0 view .LVU1076
	cmp	r0, #7
	bhi	.L341
	.loc 1 805 1 discriminator 1 view .LVU1077
	push	{r4, r5, r6, lr}
	.cfi_def_cfa_offset 16
	.cfi_offset 4, -16
	.cfi_offset 5, -12
	.cfi_offset 6, -8
	.cfi_offset 14, -4
	.loc 1 807 179 discriminator 1 view .LVU1078
	add	r3, r0, r0, lsl #2
	ldr	r5, .L348
	ldrb	r3, [r5, r3, lsl #3]	@ zero_extendqisi2
	.loc 1 807 166 discriminator 1 view .LVU1079
	lsls	r2, r3, #28
	mov	r4, r0
	.loc 1 807 179 discriminator 1 view .LVU1080
	lsl	r6, r0, #2
	.loc 1 807 166 discriminator 1 view .LVU1081
	ubfx	r0, r3, #3, #1
.LVL289:
	.loc 1 807 166 discriminator 1 view .LVU1082
	bpl	.L338
	.loc 1 808 3 is_stmt 1 view .LVU1083
	.loc 1 808 8 view .LVU1084
	.loc 1 808 11 is_stmt 0 view .LVU1085
	lsls	r3, r3, #30
	bpl	.L347
.L340:
	.loc 1 808 189 is_stmt 1 discriminator 3 view .LVU1086
	.loc 1 808 6 discriminator 3 view .LVU1087
	.loc 1 809 3 discriminator 3 view .LVU1088
	.loc 1 809 20 is_stmt 0 discriminator 3 view .LVU1089
	add	r6, r6, r4
	add	r5, r5, r6, lsl #3
	.loc 1 809 10 discriminator 3 view .LVU1090
	ldr	r0, [r5, #36]
.L338:
	.loc 1 813 1 view .LVU1091
	pop	{r4, r5, r6, pc}
.LVL290:
.L341:
	.cfi_def_cfa_offset 0
	.cfi_restore 4
	.cfi_restore 5
	.cfi_restore 6
	.cfi_restore 14
	.loc 1 812 8 view .LVU1092
	movs	r0, #0
.LVL291:
	.loc 1 813 1 view .LVU1093
	bx	lr
.L347:
	.cfi_def_cfa_offset 16
	.cfi_offset 4, -16
	.cfi_offset 5, -12
	.cfi_offset 6, -8
	.cfi_offset 14, -4
	.loc 1 808 40 is_stmt 1 discriminator 1 view .LVU1094
	ldr	r2, .L348+4
	ldr	r1, .L348+8
	ldr	r0, .L348+12
	mov	r3, #808
	bl	assert_print
.LVL292:
	.loc 1 808 186 discriminator 1 view .LVU1095
	.loc 1 808 191 discriminator 1 view .LVU1096
	.syntax unified
@ 808 "/home/g/mise-work/zmk-firmware/zmk/zephyr/subsys/bluetooth/controller/ll_sw/ull_filter.c" 1
	eors.n r0, r0
	msr BASEPRI, r0
	mov r0, #3
	svc #2
	
@ 0 "" 2
	.thumb
	.syntax unified
	b	.L340
.L349:
	.align	2
.L348:
	.word	rl
	.word	.LC0
	.word	.LC5
	.word	.LC2
	.cfi_endproc
.LFE623:
	.size	ull_filter_adva_get, .-ull_filter_adva_get
	.section	.text.ull_filter_tgta_get,"ax",%progbits
	.align	1
	.p2align 2,,3
	.global	ull_filter_tgta_get
	.syntax unified
	.thumb
	.thumb_func
	.type	ull_filter_tgta_get, %function
ull_filter_tgta_get:
.LVL293:
.LFB624:
	.loc 1 816 1 view -0
	.cfi_startproc
	@ args = 0, pretend = 0, frame = 0
	@ frame_needed = 0, uses_anonymous_args = 0
	@ link register save eliminated.
	.loc 1 818 2 view .LVU1098
	.loc 1 818 5 is_stmt 0 view .LVU1099
	cmp	r0, #7
	bhi	.L352
	.loc 1 818 179 discriminator 1 view .LVU1100
	add	r3, r0, r0, lsl #2
	ldr	r2, .L354
	ldrb	r1, [r2, r3, lsl #3]	@ zero_extendqisi2
	.loc 1 818 166 discriminator 1 view .LVU1101
	lsls	r3, r1, #29
	bpl	.L352
	.loc 1 819 3 is_stmt 1 view .LVU1102
	.loc 1 819 10 is_stmt 0 view .LVU1103
	movs	r3, #40
	mla	r2, r3, r0, r2
	add	r0, r2, #30
.LVL294:
	.loc 1 819 10 view .LVU1104
	bx	lr
.LVL295:
.L352:
	.loc 1 822 8 view .LVU1105
	movs	r0, #0
.LVL296:
	.loc 1 822 8 view .LVU1106
	bx	lr
.L355:
	.align	2
.L354:
	.word	rl
	.cfi_endproc
.LFE624:
	.size	ull_filter_tgta_get, .-ull_filter_tgta_get
	.section	.text.ull_filter_rl_find,"ax",%progbits
	.align	1
	.p2align 2,,3
	.global	ull_filter_rl_find
	.syntax unified
	.thumb
	.thumb_func
	.type	ull_filter_rl_find, %function
ull_filter_rl_find:
.LVL297:
.LFB625:
	.loc 1 828 1 is_stmt 1 view -0
	.cfi_startproc
	@ args = 0, pretend = 0, frame = 0
	@ frame_needed = 0, uses_anonymous_args = 0
	.loc 1 829 2 view .LVU1108
	.loc 1 831 2 view .LVU1109
	.loc 1 828 1 is_stmt 0 view .LVU1110
	push	{r4, r5, r6, r7, r8, r9, r10, lr}
	.cfi_def_cfa_offset 32
	.cfi_offset 4, -32
	.cfi_offset 5, -28
	.cfi_offset 6, -24
	.cfi_offset 7, -20
	.cfi_offset 8, -16
	.cfi_offset 9, -12
	.cfi_offset 10, -8
	.cfi_offset 14, -4
	.loc 1 828 1 view .LVU1111
	mov	r9, r1
	.loc 1 831 5 view .LVU1112
	mov	r6, r2
	cbz	r2, .L357
	.loc 1 832 3 is_stmt 1 view .LVU1113
	.loc 1 832 13 is_stmt 0 view .LVU1114
	movs	r3, #255
	strb	r3, [r2]
.LVL298:
	.loc 1 835 17 is_stmt 1 view .LVU1115
.L357:
	.loc 1 835 17 is_stmt 0 view .LVU1116
	ldr	r5, .L373
	.loc 1 828 1 view .LVU1117
	movs	r4, #0
	.loc 1 836 60 view .LVU1118
	and	r8, r0, #1
	add	r10, r5, #-1
	b	.L362
.LVL299:
.L372:
	.loc 1 838 13 view .LVU1119
	cbz	r6, .L360
	.loc 1 838 39 discriminator 2 view .LVU1120
	ldrb	r3, [r6]	@ zero_extendqisi2
	cmp	r3, #255
	.loc 1 840 4 is_stmt 1 discriminator 2 view .LVU1121
	.loc 1 840 14 is_stmt 0 discriminator 2 view .LVU1122
	it	eq
	strbeq	r7, [r6]
.L360:
	.loc 1 835 23 is_stmt 1 discriminator 2 view .LVU1123
.LVL300:
	.loc 1 835 17 discriminator 2 view .LVU1124
	adds	r4, r4, #1
.LVL301:
	.loc 1 835 17 is_stmt 0 discriminator 2 view .LVU1125
	cmp	r4, #8
	add	r5, r5, #40
	beq	.L371
.LVL302:
.L362:
	.loc 1 838 10 is_stmt 1 view .LVU1126
	.loc 1 836 13 is_stmt 0 view .LVU1127
	add	r3, r4, r4, lsl #2
	uxtb	r7, r4
.LVL303:
	.loc 1 836 3 is_stmt 1 view .LVU1128
	.loc 1 836 13 is_stmt 0 view .LVU1129
	ldrb	r3, [r10, r3, lsl #3]	@ zero_extendqisi2
	.loc 1 836 29 view .LVU1130
	ubfx	r2, r3, #6, #1
	.loc 1 836 6 view .LVU1131
	lsls	r3, r3, #31
	bpl	.L372
	.loc 1 836 20 discriminator 1 view .LVU1132
	cmp	r2, r8
	bne	.L360
	.loc 1 836 72 discriminator 2 view .LVU1133
	movs	r2, #6
	mov	r0, r5
	mov	r1, r9
	bl	memcmp
.LVL304:
	.loc 1 836 68 discriminator 2 view .LVU1134
	cmp	r0, #0
	bne	.L360
	.loc 1 845 1 view .LVU1135
	mov	r0, r7
	pop	{r4, r5, r6, r7, r8, r9, r10, pc}
.LVL305:
.L371:
	.loc 1 844 9 view .LVU1136
	movs	r7, #255
.LVL306:
	.loc 1 845 1 view .LVU1137
	mov	r0, r7
	pop	{r4, r5, r6, r7, r8, r9, r10, pc}
.LVL307:
.L374:
	.loc 1 845 1 view .LVU1138
	.align	2
.L373:
	.word	rl+1
	.cfi_endproc
.LFE625:
	.size	ull_filter_rl_find, .-ull_filter_rl_find
	.section	.text.ll_rl_add,"ax",%progbits
	.align	1
	.p2align 2,,3
	.global	ll_rl_add
	.syntax unified
	.thumb
	.thumb_func
	.type	ll_rl_add, %function
ll_rl_add:
.LVL308:
.LFB608:
	.loc 1 305 1 is_stmt 1 view -0
	.cfi_startproc
	@ args = 0, pretend = 0, frame = 16
	@ frame_needed = 0, uses_anonymous_args = 0
	.loc 1 306 2 view .LVU1140
	.loc 1 308 2 view .LVU1141
.LBB483:
.LBI483:
	.loc 1 1253 12 view .LVU1142
.LBB484:
	.loc 1 1255 2 view .LVU1143
	.loc 1 1265 2 view .LVU1144
.LBE484:
.LBE483:
	.loc 1 305 1 is_stmt 0 view .LVU1145
	push	{r4, r5, r6, r7, r8, r9, r10, fp, lr}
	.cfi_def_cfa_offset 36
	.cfi_offset 4, -36
	.cfi_offset 5, -32
	.cfi_offset 6, -28
	.cfi_offset 7, -24
	.cfi_offset 8, -20
	.cfi_offset 9, -16
	.cfi_offset 10, -12
	.cfi_offset 11, -8
	.cfi_offset 14, -4
	mov	r7, r0
	sub	sp, sp, #20
	.cfi_def_cfa_offset 56
.LBB487:
.LBB485:
	.loc 1 1265 16 view .LVU1146
	movs	r0, #0
.LVL309:
	.loc 1 1265 16 view .LVU1147
.LBE485:
.LBE487:
	.loc 1 305 1 view .LVU1148
	mov	r6, r1
	mov	r8, r2
.LBB488:
.LBB486:
	.loc 1 1265 16 view .LVU1149
	bl	ull_adv_is_enabled
.LVL310:
	.loc 1 1265 16 view .LVU1150
.LBE486:
.LBE488:
	.loc 1 308 5 view .LVU1151
	cmp	r0, #0
	bne	.L385
	.loc 1 312 2 is_stmt 1 view .LVU1152
	.loc 1 312 50 is_stmt 0 view .LVU1153
	mov	r10, r7
	mov	r4, r0
	.loc 1 312 6 view .LVU1154
	ldrb	r0, [r10], #1	@ zero_extendqisi2
	add	r2, sp, #15
	mov	r1, r10
	bl	ull_filter_rl_find
.LVL311:
	.loc 1 315 2 is_stmt 1 view .LVU1155
	.loc 1 315 5 is_stmt 0 view .LVU1156
	cmp	r0, #7
	bls	.L386
	.loc 1 317 9 is_stmt 1 view .LVU1157
	.loc 1 317 15 is_stmt 0 view .LVU1158
	ldrb	r9, [sp, #15]	@ zero_extendqisi2
	.loc 1 317 12 view .LVU1159
	cmp	r9, #7
	bhi	.L387
	.loc 1 322 2 is_stmt 1 view .LVU1160
.LVL312:
	.loc 1 324 2 view .LVU1161
	add	r2, r9, r9, lsl #2
	lsls	r2, r2, #3
.LVL313:
.LBB489:
.LBI489:
	.loc 3 127 20 view .LVU1162
	.loc 3 129 1 view .LVU1163
.LBB490:
.LBI490:
	.loc 3 127 20 view .LVU1164
.LBB491:
.LBI491:
	.loc 2 83 216 view .LVU1165
.LBB492:
	.loc 2 83 292 view .LVU1166
.LBE492:
.LBE491:
.LBE490:
.LBE489:
	.loc 1 324 2 is_stmt 0 view .LVU1167
	ldr	r5, .L395
.LBB502:
.LBB499:
.LBB496:
.LBB493:
	.loc 2 83 299 view .LVU1168
	ldr	r1, [r7, #1]	@ unaligned
.LBE493:
.LBE496:
.LBE499:
.LBE502:
	.loc 1 324 2 view .LVU1169
	str	r2, [sp, #4]
	adds	r3, r2, #1
	.loc 1 325 21 view .LVU1170
	add	fp, r9, r9, lsl #2
.LBB503:
.LBB500:
.LBB497:
.LBB494:
	.loc 2 83 299 view .LVU1171
	str	r1, [r5, r3]	@ unaligned
.LBE494:
.LBE497:
.LBE500:
.LBE503:
	.loc 1 324 2 view .LVU1172
	add	r3, r3, r5
.LBB504:
.LBB501:
.LBB498:
.LBB495:
	.loc 2 83 299 view .LVU1173
	ldrh	r1, [r10, #4]	@ unaligned
	strh	r1, [r3, #4]	@ unaligned
.LVL314:
	.loc 2 83 299 view .LVU1174
.LBE495:
.LBE498:
.LBE501:
.LBE504:
	.loc 1 325 2 is_stmt 1 view .LVU1175
	.loc 1 325 21 is_stmt 0 view .LVU1176
	ldrb	r3, [r7]	@ zero_extendqisi2
	ldrb	r1, [r5, fp, lsl #3]	@ zero_extendqisi2
	str	r2, [sp]
	.loc 1 326 2 is_stmt 1 view .LVU1177
	.loc 1 325 21 is_stmt 0 view .LVU1178
	bfi	r1, r3, #6, #1
	strb	r1, [r5, r2]
	.loc 1 326 15 view .LVU1179
	mov	r0, r6
	movs	r1, #16
	bl	mem_nz
.LVL315:
	.loc 1 326 13 view .LVU1180
	ldr	r3, [sp]
	ldrb	r1, [r5, r3]	@ zero_extendqisi2
	bfi	r1, r0, #2, #1
	strb	r1, [r5, r3]
	.loc 1 327 2 is_stmt 1 view .LVU1181
	.loc 1 327 15 is_stmt 0 view .LVU1182
	mov	r0, r8
	movs	r1, #16
	bl	mem_nz
.LVL316:
	.loc 1 327 13 view .LVU1183
	ldr	r3, [sp]
	.loc 1 328 5 view .LVU1184
	ldr	r2, [sp, #4]
	.loc 1 327 13 view .LVU1185
	ldrb	r1, [r5, r3]	@ zero_extendqisi2
	.loc 1 327 15 view .LVU1186
	and	r0, r0, #1
	.loc 1 327 13 view .LVU1187
	bfi	r1, r0, #3, #1
	.loc 1 328 5 view .LVU1188
	tst	r1, #4
	.loc 1 327 13 view .LVU1189
	strb	r1, [r5, r3]
	.loc 1 328 2 is_stmt 1 view .LVU1190
	.loc 1 325 21 is_stmt 0 view .LVU1191
	add	fp, r5, fp, lsl #3
	lsl	r3, r9, #2
	.loc 1 328 5 view .LVU1192
	beq	.L381
	.loc 1 330 3 is_stmt 1 view .LVU1193
	.loc 1 330 18 is_stmt 0 view .LVU1194
	ldr	lr, .L395+8
	.loc 1 331 35 view .LVU1195
	ldr	ip, .L395+12
	.loc 1 330 18 view .LVU1196
	ldrb	r1, [lr]	@ zero_extendqisi2
	strb	r1, [fp, #23]
	.loc 1 331 3 is_stmt 1 view .LVU1197
	.loc 1 331 35 is_stmt 0 view .LVU1198
	strb	r9, [ip, r1]
	.loc 1 333 3 is_stmt 1 view .LVU1199
	ldr	fp, .L395+16
	mov	ip, #-1
	add	ip, ip, r1, lsl #4
	.loc 1 333 43 is_stmt 0 view .LVU1200
	adds	r1, r1, #1
	strb	r1, [lr]
	add	ip, ip, fp
.LVL317:
.LBB505:
.LBI505:
	.loc 7 613 20 is_stmt 1 view .LVU1201
.LBB506:
	.loc 7 615 2 view .LVU1202
	.loc 7 616 2 view .LVU1203
	.loc 7 618 4 view .LVU1204
	.loc 7 620 54 view .LVU1205
	.loc 7 622 2 view .LVU1206
	.loc 7 622 7 is_stmt 0 view .LVU1207
	add	r1, r6, #15
.LVL318:
	.loc 7 624 2 is_stmt 1 view .LVU1208
	.loc 7 624 16 view .LVU1209
	subs	r6, r6, #1
.LVL319:
.L380:
	.loc 7 625 3 view .LVU1210
	.loc 7 625 13 is_stmt 0 view .LVU1211
	ldrb	lr, [r1], #-1	@ zero_extendqisi2
.LVL320:
	.loc 7 625 11 view .LVU1212
	strb	lr, [ip, #1]!
.LVL321:
	.loc 7 624 27 is_stmt 1 view .LVU1213
	.loc 7 624 16 view .LVU1214
	cmp	r1, r6
	bne	.L380
.LVL322:
.L381:
	.loc 7 624 16 is_stmt 0 view .LVU1215
.LBE506:
.LBE505:
	.loc 1 340 2 is_stmt 1 view .LVU1216
	.loc 1 340 5 is_stmt 0 view .LVU1217
	cmp	r0, #0
	bne	.L378
.LVL323:
.L379:
	.loc 1 344 1 is_stmt 1 view .LVU1218
.LBB507:
.LBI507:
	.loc 2 86 189 view .LVU1219
.LBB508:
	.loc 2 86 238 view .LVU1220
.LBE508:
.LBE507:
	.loc 1 344 15 is_stmt 0 view .LVU1221
	adds	r2, r2, #24
.LVL324:
.LBB511:
.LBB509:
	.loc 2 86 245 view .LVU1222
	movs	r1, #0
	str	r1, [r5, r2]
.LBE509:
.LBE511:
	.loc 1 344 15 view .LVU1223
	add	r2, r2, r5
	ldr	r6, .L395+4
.LBB512:
.LBB510:
	.loc 2 86 245 view .LVU1224
	strh	r1, [r2, #4]	@ movhi
.LVL325:
	.loc 2 86 245 view .LVU1225
.LBE510:
.LBE512:
	.loc 1 345 2 is_stmt 1 view .LVU1226
	.loc 1 350 2 view .LVU1227
	add	r2, r3, r9
	.loc 1 345 19 is_stmt 0 view .LVU1228
	ldrb	r1, [r5, r2, lsl #3]	@ zero_extendqisi2
	bic	r1, r1, #18
	strb	r1, [r5, r2, lsl #3]
	.loc 1 352 2 is_stmt 1 view .LVU1229
	.loc 1 352 6 is_stmt 0 view .LVU1230
	ldrb	r8, [r7]	@ zero_extendqisi2
.LVL326:
.LBB513:
.LBI513:
	.loc 1 1038 16 is_stmt 1 view .LVU1231
.LBB514:
	.loc 1 1041 2 view .LVU1232
	.loc 1 1043 2 view .LVU1233
	.loc 1 1047 16 view .LVU1234
	subs	r7, r6, #2
.LVL327:
	.loc 1 1048 59 is_stmt 0 view .LVU1235
	and	r8, r8, #1
.LVL328:
	.loc 1 1048 59 view .LVU1236
	b	.L384
.LVL329:
.L382:
	.loc 1 1050 10 is_stmt 1 view .LVU1237
	.loc 1 1047 22 view .LVU1238
	adds	r4, r4, #1
.LVL330:
	.loc 1 1047 16 view .LVU1239
	cmp	r4, #8
	add	r6, r6, #8
	beq	.L394
.LVL331:
.L384:
	.loc 1 1048 3 view .LVU1240
	.loc 1 1048 14 is_stmt 0 view .LVU1241
	ldrb	r2, [r7, r4, lsl #3]	@ zero_extendqisi2
	.loc 1 1048 6 view .LVU1242
	ands	fp, r2, #1
	.loc 1 1048 31 view .LVU1243
	ubfx	r1, r2, #1, #1
	.loc 1 1048 6 view .LVU1244
	beq	.L382
	.loc 1 1048 21 view .LVU1245
	cmp	r1, r8
	bne	.L382
	.loc 1 1048 71 view .LVU1246
	mov	r0, r6
	movs	r2, #6
	mov	r1, r10
	str	r3, [sp]
	bl	memcmp
.LVL332:
	.loc 1 1048 67 view .LVU1247
	ldr	r3, [sp]
	cmp	r0, #0
	bne	.L382
	.loc 1 1049 4 is_stmt 1 view .LVU1248
.LVL333:
	.loc 1 1049 4 is_stmt 0 view .LVU1249
.LBE514:
.LBE513:
	.loc 1 353 2 is_stmt 1 view .LVU1250
	.loc 1 354 3 view .LVU1251
	.loc 1 354 17 is_stmt 0 view .LVU1252
	add	r7, r7, r4, lsl #3
	strb	r9, [r7, #1]
	.loc 1 355 3 is_stmt 1 view .LVU1253
	b	.L383
.LVL334:
.L385:
	.loc 1 309 10 is_stmt 0 view .LVU1254
	movs	r0, #12
	.loc 1 374 1 view .LVU1255
	add	sp, sp, #20
	.cfi_remember_state
	.cfi_def_cfa_offset 36
	@ sp needed
	pop	{r4, r5, r6, r7, r8, r9, r10, fp, pc}
.LVL335:
.L394:
	.cfi_restore_state
.LBB516:
.LBB515:
	.loc 1 374 1 view .LVU1256
	mov	fp, #0
.LVL336:
.L383:
	.loc 1 374 1 view .LVU1257
.LBE515:
.LBE516:
	.loc 1 371 2 is_stmt 1 view .LVU1258
	add	r3, r3, r9
	.loc 1 371 14 is_stmt 0 view .LVU1259
	lsl	r2, fp, #5
	ldrb	r1, [r5, r3, lsl #3]	@ zero_extendqisi2
	orr	r2, r2, #1
	bic	r1, r1, #33
	orrs	r2, r2, r1
	.loc 1 373 9 view .LVU1260
	movs	r0, #0
	.loc 1 371 14 view .LVU1261
	strb	r2, [r5, r3, lsl #3]
	.loc 1 373 2 is_stmt 1 view .LVU1262
	.loc 1 374 1 is_stmt 0 view .LVU1263
	add	sp, sp, #20
	.cfi_remember_state
	.cfi_def_cfa_offset 36
	@ sp needed
	pop	{r4, r5, r6, r7, r8, r9, r10, fp, pc}
.LVL337:
.L387:
	.cfi_restore_state
	.loc 1 318 10 view .LVU1264
	movs	r0, #7
.LVL338:
	.loc 1 374 1 view .LVU1265
	add	sp, sp, #20
	.cfi_remember_state
	.cfi_def_cfa_offset 36
	@ sp needed
	pop	{r4, r5, r6, r7, r8, r9, r10, fp, pc}
.LVL339:
.L378:
	.cfi_restore_state
	.loc 1 341 3 is_stmt 1 view .LVU1266
.LBB517:
.LBI517:
	.loc 2 83 216 view .LVU1267
.LBB518:
	.loc 2 83 292 view .LVU1268
.LBE518:
.LBE517:
	.loc 1 341 13 is_stmt 0 view .LVU1269
	adds	r6, r2, #7
	adds	r0, r5, r6
	.loc 1 342 19 view .LVU1270
	add	r1, r3, r9
.LBB521:
.LBB519:
	.loc 2 83 299 view .LVU1271
	ldr	fp, [r8]	@ unaligned
	ldr	lr, [r8, #4]	@ unaligned
	ldr	ip, [r8, #8]	@ unaligned
	ldr	r8, [r8, #12]	@ unaligned
.LVL340:
	.loc 2 83 299 view .LVU1272
	str	fp, [r5, r6]	@ unaligned
.LBE519:
.LBE521:
	.loc 1 342 19 view .LVU1273
	add	r1, r5, r1, lsl #3
.LBB522:
.LBB520:
	.loc 2 83 299 view .LVU1274
	str	lr, [r0, #4]	@ unaligned
	str	ip, [r0, #8]	@ unaligned
	str	r8, [r0, #12]	@ unaligned
.LVL341:
	.loc 2 83 299 view .LVU1275
.LBE520:
.LBE522:
	.loc 1 342 3 is_stmt 1 view .LVU1276
	.loc 1 342 19 is_stmt 0 view .LVU1277
	movs	r0, #0
	str	r0, [r1, #36]
	b	.L379
.LVL342:
.L386:
	.loc 1 316 10 view .LVU1278
	movs	r0, #18
.LVL343:
	.loc 1 374 1 view .LVU1279
	add	sp, sp, #20
	.cfi_def_cfa_offset 36
	@ sp needed
	pop	{r4, r5, r6, r7, r8, r9, r10, fp, pc}
.LVL344:
.L396:
	.loc 1 374 1 view .LVU1280
	.align	2
.L395:
	.word	rl
	.word	fal+2
	.word	peer_irk_count
	.word	peer_irk_rl_ids
	.word	peer_irks
	.cfi_endproc
.LFE608:
	.size	ll_rl_add, .-ll_rl_add
	.section	.text.ull_filter_lll_lrpa_used,"ax",%progbits
	.align	1
	.p2align 2,,3
	.global	ull_filter_lll_lrpa_used
	.syntax unified
	.thumb
	.thumb_func
	.type	ull_filter_lll_lrpa_used, %function
ull_filter_lll_lrpa_used:
.LVL345:
.LFB626:
	.loc 1 848 1 is_stmt 1 view -0
	.cfi_startproc
	@ args = 0, pretend = 0, frame = 0
	@ frame_needed = 0, uses_anonymous_args = 0
	@ link register save eliminated.
	.loc 1 849 2 view .LVU1282
	.loc 1 849 169 is_stmt 0 view .LVU1283
	cmp	r0, #7
	bhi	.L399
	.loc 1 849 182 discriminator 1 view .LVU1284
	ldr	r3, .L400
	add	r0, r0, r0, lsl #2
.LVL346:
	.loc 1 849 182 discriminator 1 view .LVU1285
	ldrb	r0, [r3, r0, lsl #3]	@ zero_extendqisi2
	ubfx	r0, r0, #3, #1
	bx	lr
.LVL347:
.L399:
	.loc 1 849 182 discriminator 1 view .LVU1286
	movs	r0, #0
.LVL348:
	.loc 1 850 1 view .LVU1287
	bx	lr
.L401:
	.align	2
.L400:
	.word	rl
	.cfi_endproc
.LFE626:
	.size	ull_filter_lll_lrpa_used, .-ull_filter_lll_lrpa_used
	.section	.text.ull_filter_lll_lrpa_get,"ax",%progbits
	.align	1
	.p2align 2,,3
	.global	ull_filter_lll_lrpa_get
	.syntax unified
	.thumb
	.thumb_func
	.type	ull_filter_lll_lrpa_get, %function
ull_filter_lll_lrpa_get:
.LVL349:
.LFB627:
	.loc 1 853 1 is_stmt 1 view -0
	.cfi_startproc
	@ args = 0, pretend = 0, frame = 0
	@ frame_needed = 0, uses_anonymous_args = 0
	@ link register save eliminated.
	.loc 1 854 2 view .LVU1289
	.loc 1 854 5 is_stmt 0 view .LVU1290
	cmp	r0, #7
	bhi	.L404
	.loc 1 854 183 discriminator 1 view .LVU1291
	add	r0, r0, r0, lsl #2
.LVL350:
	.loc 1 854 183 discriminator 1 view .LVU1292
	ldr	r2, .L407
	ldrb	r3, [r2, r0, lsl #3]	@ zero_extendqisi2
	.loc 1 854 169 discriminator 1 view .LVU1293
	tst	r3, #8
	.loc 1 854 183 discriminator 1 view .LVU1294
	lsl	r1, r0, #3
	.loc 1 854 169 discriminator 1 view .LVU1295
	ubfx	r0, r3, #3, #1
	beq	.L402
	.loc 1 854 189 discriminator 2 view .LVU1296
	ubfx	r0, r3, #1, #1
	lsls	r3, r3, #30
	bpl	.L402
	.loc 1 859 2 is_stmt 1 view .LVU1297
	.loc 1 859 19 is_stmt 0 view .LVU1298
	add	r2, r2, r1
	ldr	r0, [r2, #36]
	bx	lr
.LVL351:
.L404:
	.loc 1 856 9 view .LVU1299
	movs	r0, #0
.LVL352:
.L402:
	.loc 1 860 1 view .LVU1300
	bx	lr
.L408:
	.align	2
.L407:
	.word	rl
	.cfi_endproc
.LFE627:
	.size	ull_filter_lll_lrpa_get, .-ull_filter_lll_lrpa_get
	.section	.text.ull_filter_lll_irks_get,"ax",%progbits
	.align	1
	.p2align 2,,3
	.global	ull_filter_lll_irks_get
	.syntax unified
	.thumb
	.thumb_func
	.type	ull_filter_lll_irks_get, %function
ull_filter_lll_irks_get:
.LVL353:
.LFB628:
	.loc 1 863 1 is_stmt 1 view -0
	.cfi_startproc
	@ args = 0, pretend = 0, frame = 0
	@ frame_needed = 0, uses_anonymous_args = 0
	@ link register save eliminated.
	.loc 1 864 2 view .LVU1302
	.loc 1 864 9 is_stmt 0 view .LVU1303
	ldr	r3, .L410
	ldrb	r3, [r3]	@ zero_extendqisi2
	strb	r3, [r0]
	.loc 1 865 2 is_stmt 1 view .LVU1304
	.loc 1 866 1 is_stmt 0 view .LVU1305
	ldr	r0, .L410+4
.LVL354:
	.loc 1 866 1 view .LVU1306
	bx	lr
.L411:
	.align	2
.L410:
	.word	peer_irk_count
	.word	peer_irks
	.cfi_endproc
.LFE628:
	.size	ull_filter_lll_irks_get, .-ull_filter_lll_irks_get
	.section	.rodata.ull_filter_lll_rl_idx.str1.4,"aMS",%progbits,1
	.align	2
.LC6:
	.ascii	"devmatch_id < ((size_t) (((int) sizeof(char[1 - 2 *"
	.ascii	" !(!__builtin_types_compatible_p(__typeof__(fal), _"
	.ascii	"_typeof__(&(fal)[0])))]) - 1) + (sizeof(fal) / size"
	.ascii	"of((fal)[0]))))\000"
	.align	2
.LC7:
	.ascii	"fal[devmatch_id].taken\000"
	.align	2
.LC8:
	.ascii	"devmatch_id < ((size_t) (((int) sizeof(char[1 - 2 *"
	.ascii	" !(!__builtin_types_compatible_p(__typeof__(rl), __"
	.ascii	"typeof__(&(rl)[0])))]) - 1) + (sizeof(rl) / sizeof("
	.ascii	"(rl)[0]))))\000"
	.align	2
.LC9:
	.ascii	"rl[i].taken\000"
	.section	.text.ull_filter_lll_rl_idx,"ax",%progbits
	.align	1
	.p2align 2,,3
	.global	ull_filter_lll_rl_idx
	.syntax unified
	.thumb
	.thumb_func
	.type	ull_filter_lll_rl_idx, %function
ull_filter_lll_rl_idx:
.LVL355:
.LFB629:
	.loc 1 869 1 is_stmt 1 view -0
	.cfi_startproc
	@ args = 0, pretend = 0, frame = 0
	@ frame_needed = 0, uses_anonymous_args = 0
	.loc 1 870 2 view .LVU1308
	.loc 1 872 2 view .LVU1309
	.loc 1 869 1 is_stmt 0 view .LVU1310
	push	{r3, r4, r5, lr}
	.cfi_def_cfa_offset 16
	.cfi_offset 3, -16
	.cfi_offset 4, -12
	.cfi_offset 5, -8
	.cfi_offset 14, -4
	.loc 1 869 1 view .LVU1311
	mov	r4, r1
	.loc 1 872 5 view .LVU1312
	cbz	r0, .L413
	.loc 1 873 3 is_stmt 1 view .LVU1313
	.loc 1 873 8 view .LVU1314
	.loc 1 873 11 is_stmt 0 view .LVU1315
	cmp	r1, #7
	bhi	.L420
	.loc 1 873 483 is_stmt 1 discriminator 3 view .LVU1316
	.loc 1 873 6 discriminator 3 view .LVU1317
	.loc 1 874 3 discriminator 3 view .LVU1318
	.loc 1 874 8 discriminator 3 view .LVU1319
	.loc 1 874 30 is_stmt 0 discriminator 3 view .LVU1320
	ldr	r5, .L425
	ldrb	r3, [r5, r4, lsl #3]	@ zero_extendqisi2
	.loc 1 874 11 discriminator 3 view .LVU1321
	lsls	r2, r3, #31
	bpl	.L421
.LVL356:
.L415:
	.loc 1 874 191 is_stmt 1 discriminator 3 view .LVU1322
	.loc 1 874 6 discriminator 3 view .LVU1323
	.loc 1 875 3 discriminator 3 view .LVU1324
	.loc 1 875 5 is_stmt 0 discriminator 3 view .LVU1325
	add	r5, r5, r4, lsl #3
	ldrb	r0, [r5, #1]	@ zero_extendqisi2
.LVL357:
.L416:
	.loc 1 879 169 is_stmt 1 discriminator 3 view .LVU1326
	.loc 1 879 6 discriminator 3 view .LVU1327
	.loc 1 882 2 discriminator 3 view .LVU1328
	.loc 1 883 1 is_stmt 0 discriminator 3 view .LVU1329
	pop	{r3, r4, r5, pc}
.LVL358:
.L413:
	.loc 1 877 3 is_stmt 1 view .LVU1330
	.loc 1 877 8 view .LVU1331
	.loc 1 877 11 is_stmt 0 view .LVU1332
	cmp	r1, #7
	bhi	.L422
.LVL359:
.L417:
	.loc 1 877 475 is_stmt 1 discriminator 3 view .LVU1333
	.loc 1 877 6 discriminator 3 view .LVU1334
	.loc 1 878 3 discriminator 3 view .LVU1335
	.loc 1 879 3 discriminator 3 view .LVU1336
	.loc 1 879 8 discriminator 3 view .LVU1337
	.loc 1 879 19 is_stmt 0 discriminator 3 view .LVU1338
	ldr	r3, .L425+4
	add	r2, r4, r4, lsl #2
	ldrb	r3, [r3, r2, lsl #3]	@ zero_extendqisi2
	.loc 1 879 11 discriminator 3 view .LVU1339
	lsls	r3, r3, #31
	bpl	.L423
	.loc 1 869 1 view .LVU1340
	mov	r0, r4
.L424:
.LVL360:
	.loc 1 879 169 is_stmt 1 view .LVU1341
	.loc 1 879 6 view .LVU1342
	.loc 1 882 2 view .LVU1343
	.loc 1 883 1 is_stmt 0 view .LVU1344
	pop	{r3, r4, r5, pc}
.LVL361:
.L420:
	.loc 1 873 187 is_stmt 1 discriminator 1 view .LVU1345
	ldr	r2, .L425+8
	ldr	r1, .L425+12
.LVL362:
	.loc 1 873 187 is_stmt 0 discriminator 1 view .LVU1346
	ldr	r0, .L425+16
.LVL363:
	.loc 1 873 187 discriminator 1 view .LVU1347
	movw	r3, #873
	bl	assert_print
.LVL364:
	.loc 1 873 480 is_stmt 1 discriminator 1 view .LVU1348
	.loc 1 873 485 discriminator 1 view .LVU1349
	.syntax unified
@ 873 "/home/g/mise-work/zmk-firmware/zmk/zephyr/subsys/bluetooth/controller/ll_sw/ull_filter.c" 1
	eors.n r0, r0
	msr BASEPRI, r0
	mov r0, #3
	svc #2
	
@ 0 "" 2
	.loc 1 873 483 discriminator 1 view .LVU1350
	.loc 1 873 6 discriminator 1 view .LVU1351
	.loc 1 874 3 discriminator 1 view .LVU1352
	.loc 1 874 8 discriminator 1 view .LVU1353
	.loc 1 874 30 is_stmt 0 discriminator 1 view .LVU1354
	.thumb
	.syntax unified
	ldr	r5, .L425
	ldrb	r3, [r5, r4, lsl #3]	@ zero_extendqisi2
	.loc 1 874 11 discriminator 1 view .LVU1355
	lsls	r2, r3, #31
	bmi	.L415
.L421:
	.loc 1 874 41 is_stmt 1 discriminator 1 view .LVU1356
	ldr	r2, .L425+8
	ldr	r1, .L425+20
	ldr	r0, .L425+16
	movw	r3, #874
	bl	assert_print
.LVL365:
	.loc 1 874 188 discriminator 1 view .LVU1357
	.loc 1 874 193 discriminator 1 view .LVU1358
	.syntax unified
@ 874 "/home/g/mise-work/zmk-firmware/zmk/zephyr/subsys/bluetooth/controller/ll_sw/ull_filter.c" 1
	eors.n r0, r0
	msr BASEPRI, r0
	mov r0, #3
	svc #2
	
@ 0 "" 2
	.loc 1 874 191 discriminator 1 view .LVU1359
	.loc 1 874 6 discriminator 1 view .LVU1360
	.loc 1 875 3 discriminator 1 view .LVU1361
	.loc 1 875 5 is_stmt 0 discriminator 1 view .LVU1362
	.thumb
	.syntax unified
	add	r5, r5, r4, lsl #3
	ldrb	r0, [r5, #1]	@ zero_extendqisi2
.LVL366:
	.loc 1 875 5 discriminator 1 view .LVU1363
	b	.L416
.LVL367:
.L422:
	.loc 1 877 183 is_stmt 1 discriminator 1 view .LVU1364
	ldr	r2, .L425+8
	ldr	r1, .L425+24
.LVL368:
	.loc 1 877 183 is_stmt 0 discriminator 1 view .LVU1365
	ldr	r0, .L425+16
.LVL369:
	.loc 1 877 183 discriminator 1 view .LVU1366
	movw	r3, #877
	bl	assert_print
.LVL370:
	.loc 1 877 472 is_stmt 1 discriminator 1 view .LVU1367
	.loc 1 877 477 discriminator 1 view .LVU1368
	.syntax unified
@ 877 "/home/g/mise-work/zmk-firmware/zmk/zephyr/subsys/bluetooth/controller/ll_sw/ull_filter.c" 1
	eors.n r0, r0
	msr BASEPRI, r0
	mov r0, #3
	svc #2
	
@ 0 "" 2
	.thumb
	.syntax unified
	b	.L417
.LVL371:
.L423:
	.loc 1 879 30 discriminator 1 view .LVU1369
	ldr	r2, .L425+8
	ldr	r1, .L425+28
	ldr	r0, .L425+16
	movw	r3, #879
	bl	assert_print
.LVL372:
	.loc 1 879 166 discriminator 1 view .LVU1370
	.loc 1 879 171 discriminator 1 view .LVU1371
	.syntax unified
@ 879 "/home/g/mise-work/zmk-firmware/zmk/zephyr/subsys/bluetooth/controller/ll_sw/ull_filter.c" 1
	eors.n r0, r0
	msr BASEPRI, r0
	mov r0, #3
	svc #2
	
@ 0 "" 2
	.loc 1 869 1 is_stmt 0 discriminator 1 view .LVU1372
	.thumb
	.syntax unified
	mov	r0, r4
	b	.L424
.L426:
	.align	2
.L425:
	.word	fal
	.word	rl
	.word	.LC0
	.word	.LC6
	.word	.LC2
	.word	.LC7
	.word	.LC8
	.word	.LC9
	.cfi_endproc
.LFE629:
	.size	ull_filter_lll_rl_idx, .-ull_filter_lll_rl_idx
	.section	.rodata.ull_filter_lll_rl_irk_idx.str1.4,"aMS",%progbits,1
	.align	2
.LC10:
	.ascii	"irkmatch_id < peer_irk_count\000"
	.align	2
.LC11:
	.ascii	"i < 8\000"
	.section	.text.ull_filter_lll_rl_irk_idx,"ax",%progbits
	.align	1
	.p2align 2,,3
	.global	ull_filter_lll_rl_irk_idx
	.syntax unified
	.thumb
	.thumb_func
	.type	ull_filter_lll_rl_irk_idx, %function
ull_filter_lll_rl_irk_idx:
.LVL373:
.LFB630:
	.loc 1 886 1 is_stmt 1 view -0
	.cfi_startproc
	@ args = 0, pretend = 0, frame = 0
	@ frame_needed = 0, uses_anonymous_args = 0
	.loc 1 887 2 view .LVU1374
	.loc 1 889 2 view .LVU1375
	.loc 1 889 7 view .LVU1376
	.loc 1 886 1 is_stmt 0 view .LVU1377
	push	{r4, lr}
	.cfi_def_cfa_offset 8
	.cfi_offset 4, -8
	.cfi_offset 14, -4
	.loc 1 889 11 view .LVU1378
	ldr	r3, .L435
	.loc 1 889 10 view .LVU1379
	ldrb	r3, [r3]	@ zero_extendqisi2
	cmp	r3, r0
	.loc 1 886 1 view .LVU1380
	mov	r4, r0
	.loc 1 889 10 view .LVU1381
	bls	.L432
	.loc 1 889 202 is_stmt 1 discriminator 3 view .LVU1382
	.loc 1 889 5 discriminator 3 view .LVU1383
	.loc 1 890 2 discriminator 3 view .LVU1384
	.loc 1 890 4 is_stmt 0 discriminator 3 view .LVU1385
	ldr	r3, .L435+4
	ldrb	r4, [r3, r4]	@ zero_extendqisi2
.LVL374:
	.loc 1 891 2 is_stmt 1 discriminator 3 view .LVU1386
	.loc 1 891 7 discriminator 3 view .LVU1387
	.loc 1 891 10 is_stmt 0 discriminator 3 view .LVU1388
	cmp	r4, #7
	bhi	.L433
.LVL375:
.L429:
	.loc 1 891 156 is_stmt 1 discriminator 3 view .LVU1389
	.loc 1 891 5 discriminator 3 view .LVU1390
	.loc 1 892 2 discriminator 3 view .LVU1391
	.loc 1 892 7 discriminator 3 view .LVU1392
	.loc 1 892 18 is_stmt 0 discriminator 3 view .LVU1393
	ldr	r3, .L435+8
	add	r2, r4, r4, lsl #2
	ldrb	r3, [r3, r2, lsl #3]	@ zero_extendqisi2
	.loc 1 892 10 discriminator 3 view .LVU1394
	lsls	r3, r3, #31
	bpl	.L434
	.loc 1 892 168 is_stmt 1 discriminator 3 view .LVU1395
	.loc 1 892 5 discriminator 3 view .LVU1396
	.loc 1 894 2 discriminator 3 view .LVU1397
	.loc 1 895 1 is_stmt 0 discriminator 3 view .LVU1398
	mov	r0, r4
	pop	{r4, pc}
.LVL376:
.L432:
	.loc 1 889 46 is_stmt 1 discriminator 1 view .LVU1399
	ldr	r2, .L435+12
	ldr	r1, .L435+16
	ldr	r0, .L435+20
.LVL377:
	.loc 1 889 46 is_stmt 0 discriminator 1 view .LVU1400
	movw	r3, #889
	bl	assert_print
.LVL378:
	.loc 1 889 199 is_stmt 1 discriminator 1 view .LVU1401
	.loc 1 889 204 discriminator 1 view .LVU1402
	.syntax unified
@ 889 "/home/g/mise-work/zmk-firmware/zmk/zephyr/subsys/bluetooth/controller/ll_sw/ull_filter.c" 1
	eors.n r0, r0
	msr BASEPRI, r0
	mov r0, #3
	svc #2
	
@ 0 "" 2
	.loc 1 889 202 discriminator 1 view .LVU1403
	.loc 1 889 5 discriminator 1 view .LVU1404
	.loc 1 890 2 discriminator 1 view .LVU1405
	.loc 1 890 4 is_stmt 0 discriminator 1 view .LVU1406
	.thumb
	.syntax unified
	ldr	r3, .L435+4
	ldrb	r4, [r3, r4]	@ zero_extendqisi2
.LVL379:
	.loc 1 891 2 is_stmt 1 discriminator 1 view .LVU1407
	.loc 1 891 7 discriminator 1 view .LVU1408
	.loc 1 891 10 is_stmt 0 discriminator 1 view .LVU1409
	cmp	r4, #7
	bls	.L429
.L433:
	.loc 1 891 23 is_stmt 1 discriminator 1 view .LVU1410
	ldr	r2, .L435+12
	ldr	r1, .L435+24
	ldr	r0, .L435+20
	movw	r3, #891
	bl	assert_print
.LVL380:
	.loc 1 891 153 discriminator 1 view .LVU1411
	.loc 1 891 158 discriminator 1 view .LVU1412
	.syntax unified
@ 891 "/home/g/mise-work/zmk-firmware/zmk/zephyr/subsys/bluetooth/controller/ll_sw/ull_filter.c" 1
	eors.n r0, r0
	msr BASEPRI, r0
	mov r0, #3
	svc #2
	
@ 0 "" 2
	.thumb
	.syntax unified
	b	.L429
.L434:
	.loc 1 892 29 discriminator 1 view .LVU1413
	ldr	r2, .L435+12
	ldr	r1, .L435+28
	ldr	r0, .L435+20
	mov	r3, #892
	bl	assert_print
.LVL381:
	.loc 1 892 165 discriminator 1 view .LVU1414
	.loc 1 892 170 discriminator 1 view .LVU1415
	.syntax unified
@ 892 "/home/g/mise-work/zmk-firmware/zmk/zephyr/subsys/bluetooth/controller/ll_sw/ull_filter.c" 1
	eors.n r0, r0
	msr BASEPRI, r0
	mov r0, #3
	svc #2
	
@ 0 "" 2
	.loc 1 892 168 discriminator 1 view .LVU1416
	.loc 1 892 5 discriminator 1 view .LVU1417
	.loc 1 894 2 discriminator 1 view .LVU1418
	.loc 1 895 1 is_stmt 0 discriminator 1 view .LVU1419
	.thumb
	.syntax unified
	mov	r0, r4
	pop	{r4, pc}
.LVL382:
.L436:
	.loc 1 895 1 discriminator 1 view .LVU1420
	.align	2
.L435:
	.word	peer_irk_count
	.word	peer_irk_rl_ids
	.word	rl
	.word	.LC0
	.word	.LC10
	.word	.LC2
	.word	.LC11
	.word	.LC9
	.cfi_endproc
.LFE630:
	.size	ull_filter_lll_rl_irk_idx, .-ull_filter_lll_rl_irk_idx
	.section	.text.ull_filter_lll_irk_in_fal,"ax",%progbits
	.align	1
	.p2align 2,,3
	.global	ull_filter_lll_irk_in_fal
	.syntax unified
	.thumb
	.thumb_func
	.type	ull_filter_lll_irk_in_fal, %function
ull_filter_lll_irk_in_fal:
.LVL383:
.LFB631:
	.loc 1 898 1 is_stmt 1 view -0
	.cfi_startproc
	@ args = 0, pretend = 0, frame = 0
	@ frame_needed = 0, uses_anonymous_args = 0
	.loc 1 899 2 view .LVU1422
	.loc 1 899 5 is_stmt 0 view .LVU1423
	cmp	r0, #7
	bhi	.L440
	.loc 1 903 2 is_stmt 1 view .LVU1424
	.loc 1 903 7 view .LVU1425
	.loc 1 898 1 is_stmt 0 view .LVU1426
	push	{r4, r5, r6, lr}
	.cfi_def_cfa_offset 16
	.cfi_offset 4, -16
	.cfi_offset 5, -12
	.cfi_offset 6, -8
	.cfi_offset 14, -4
	.loc 1 903 23 view .LVU1427
	add	r3, r0, r0, lsl #2
	ldr	r6, .L446
	ldrb	r3, [r6, r3, lsl #3]	@ zero_extendqisi2
	.loc 1 903 10 view .LVU1428
	lsls	r3, r3, #31
	mov	r4, r0
	.loc 1 903 23 view .LVU1429
	lsl	r5, r0, #2
	.loc 1 903 10 view .LVU1430
	bpl	.L445
	.loc 1 903 178 is_stmt 1 discriminator 3 view .LVU1431
	.loc 1 903 5 discriminator 3 view .LVU1432
	.loc 1 905 2 discriminator 3 view .LVU1433
	.loc 1 905 19 is_stmt 0 discriminator 3 view .LVU1434
	add	r5, r5, r4
	ldrb	r0, [r6, r5, lsl #3]	@ zero_extendqisi2
.LVL384:
	.loc 1 905 19 discriminator 3 view .LVU1435
	ubfx	r0, r0, #5, #1
	.loc 1 906 1 discriminator 3 view .LVU1436
	pop	{r4, r5, r6, pc}
.LVL385:
.L445:
	.loc 1 903 34 is_stmt 1 discriminator 1 view .LVU1437
	ldr	r2, .L446+4
	ldr	r1, .L446+8
	ldr	r0, .L446+12
.LVL386:
	.loc 1 903 34 is_stmt 0 discriminator 1 view .LVU1438
	movw	r3, #903
	bl	assert_print
.LVL387:
	.loc 1 903 175 is_stmt 1 discriminator 1 view .LVU1439
	.loc 1 903 180 discriminator 1 view .LVU1440
	.syntax unified
@ 903 "/home/g/mise-work/zmk-firmware/zmk/zephyr/subsys/bluetooth/controller/ll_sw/ull_filter.c" 1
	eors.n r0, r0
	msr BASEPRI, r0
	mov r0, #3
	svc #2
	
@ 0 "" 2
	.loc 1 903 178 discriminator 1 view .LVU1441
	.loc 1 903 5 discriminator 1 view .LVU1442
	.loc 1 905 2 discriminator 1 view .LVU1443
	.loc 1 905 19 is_stmt 0 discriminator 1 view .LVU1444
	.thumb
	.syntax unified
	add	r5, r5, r4
	ldrb	r0, [r6, r5, lsl #3]	@ zero_extendqisi2
	ubfx	r0, r0, #5, #1
	.loc 1 906 1 discriminator 1 view .LVU1445
	pop	{r4, r5, r6, pc}
.LVL388:
.L440:
	.cfi_def_cfa_offset 0
	.cfi_restore 4
	.cfi_restore 5
	.cfi_restore 6
	.cfi_restore 14
	.loc 1 900 9 view .LVU1446
	movs	r0, #0
.LVL389:
	.loc 1 906 1 view .LVU1447
	bx	lr
.L447:
	.align	2
.L446:
	.word	rl
	.word	.LC0
	.word	.LC3
	.word	.LC2
	.cfi_endproc
.LFE631:
	.size	ull_filter_lll_irk_in_fal, .-ull_filter_lll_irk_in_fal
	.section	.text.ull_filter_lll_fal_get,"ax",%progbits
	.align	1
	.p2align 2,,3
	.global	ull_filter_lll_fal_get
	.syntax unified
	.thumb
	.thumb_func
	.type	ull_filter_lll_fal_get, %function
ull_filter_lll_fal_get:
.LFB632:
	.loc 1 909 1 is_stmt 1 view -0
	.cfi_startproc
	@ args = 0, pretend = 0, frame = 0
	@ frame_needed = 0, uses_anonymous_args = 0
	@ link register save eliminated.
	.loc 1 910 2 view .LVU1449
	.loc 1 911 1 is_stmt 0 view .LVU1450
	ldr	r0, .L449
	bx	lr
.L450:
	.align	2
.L449:
	.word	fal
	.cfi_endproc
.LFE632:
	.size	ull_filter_lll_fal_get, .-ull_filter_lll_fal_get
	.section	.text.ull_filter_lll_resolve_list_get,"ax",%progbits
	.align	1
	.p2align 2,,3
	.global	ull_filter_lll_resolve_list_get
	.syntax unified
	.thumb
	.thumb_func
	.type	ull_filter_lll_resolve_list_get, %function
ull_filter_lll_resolve_list_get:
.LFB633:
	.loc 1 914 1 is_stmt 1 view -0
	.cfi_startproc
	@ args = 0, pretend = 0, frame = 0
	@ frame_needed = 0, uses_anonymous_args = 0
	@ link register save eliminated.
	.loc 1 915 2 view .LVU1452
	.loc 1 916 1 is_stmt 0 view .LVU1453
	ldr	r0, .L452
	bx	lr
.L453:
	.align	2
.L452:
	.word	rl
	.cfi_endproc
.LFE633:
	.size	ull_filter_lll_resolve_list_get, .-ull_filter_lll_resolve_list_get
	.section	.text.ull_filter_lll_rl_idx_allowed,"ax",%progbits
	.align	1
	.p2align 2,,3
	.global	ull_filter_lll_rl_idx_allowed
	.syntax unified
	.thumb
	.thumb_func
	.type	ull_filter_lll_rl_idx_allowed, %function
ull_filter_lll_rl_idx_allowed:
.LVL390:
.LFB634:
	.loc 1 919 1 is_stmt 1 view -0
	.cfi_startproc
	@ args = 0, pretend = 0, frame = 0
	@ frame_needed = 0, uses_anonymous_args = 0
	.loc 1 923 2 view .LVU1455
	.loc 1 923 6 is_stmt 0 view .LVU1456
	ldr	r3, .L468
	.loc 1 923 5 view .LVU1457
	ldrb	r3, [r3]	@ zero_extendqisi2
	cbz	r3, .L458
	.loc 1 923 17 discriminator 1 view .LVU1458
	cmp	r1, #7
	.loc 1 919 1 discriminator 1 view .LVU1459
	push	{r4, r5, r6, lr}
	.cfi_def_cfa_offset 16
	.cfi_offset 4, -16
	.cfi_offset 5, -12
	.cfi_offset 6, -8
	.cfi_offset 14, -4
	mov	r4, r1
	.loc 1 923 17 discriminator 1 view .LVU1460
	bhi	.L460
	.loc 1 923 181 discriminator 2 view .LVU1461
	cbnz	r0, .L460
	.loc 1 927 2 is_stmt 1 discriminator 3 view .LVU1462
	.loc 1 927 7 discriminator 3 view .LVU1463
	.loc 1 927 166 discriminator 3 view .LVU1464
	.loc 1 927 5 discriminator 3 view .LVU1465
	.loc 1 928 2 discriminator 3 view .LVU1466
	.loc 1 928 7 discriminator 3 view .LVU1467
	.loc 1 928 23 is_stmt 0 discriminator 3 view .LVU1468
	ldr	r6, .L468+4
	add	r3, r1, r1, lsl #2
	lsls	r5, r1, #2
	ldrb	r3, [r6, r3, lsl #3]	@ zero_extendqisi2
	.loc 1 928 10 discriminator 3 view .LVU1469
	lsls	r2, r3, #31
	bpl	.L466
.LVL391:
.L456:
	.loc 1 928 178 is_stmt 1 discriminator 3 view .LVU1470
	.loc 1 928 5 discriminator 3 view .LVU1471
	.loc 1 930 2 discriminator 3 view .LVU1472
	.loc 1 930 20 is_stmt 0 discriminator 3 view .LVU1473
	add	r5, r5, r4
	ldrb	r0, [r6, r5, lsl #3]	@ zero_extendqisi2
	.loc 1 930 26 discriminator 3 view .LVU1474
	lsls	r3, r0, #29
	bmi	.L467
.L460:
	.loc 1 924 9 view .LVU1475
	movs	r0, #1
	.loc 1 931 1 view .LVU1476
	pop	{r4, r5, r6, pc}
.LVL392:
.L458:
	.cfi_def_cfa_offset 0
	.cfi_restore 4
	.cfi_restore 5
	.cfi_restore 6
	.cfi_restore 14
	.loc 1 924 9 view .LVU1477
	movs	r0, #1
.LVL393:
	.loc 1 931 1 view .LVU1478
	bx	lr
.LVL394:
.L467:
	.cfi_def_cfa_offset 16
	.cfi_offset 4, -16
	.cfi_offset 5, -12
	.cfi_offset 6, -8
	.cfi_offset 14, -4
	.loc 1 930 39 discriminator 2 view .LVU1479
	ubfx	r0, r0, #4, #1
	.loc 1 931 1 discriminator 2 view .LVU1480
	pop	{r4, r5, r6, pc}
.LVL395:
.L466:
	.loc 1 928 34 is_stmt 1 discriminator 1 view .LVU1481
	ldr	r2, .L468+8
	ldr	r1, .L468+12
.LVL396:
	.loc 1 928 34 is_stmt 0 discriminator 1 view .LVU1482
	ldr	r0, .L468+16
.LVL397:
	.loc 1 928 34 discriminator 1 view .LVU1483
	mov	r3, #928
	bl	assert_print
.LVL398:
	.loc 1 928 175 is_stmt 1 discriminator 1 view .LVU1484
	.loc 1 928 180 discriminator 1 view .LVU1485
	.syntax unified
@ 928 "/home/g/mise-work/zmk-firmware/zmk/zephyr/subsys/bluetooth/controller/ll_sw/ull_filter.c" 1
	eors.n r0, r0
	msr BASEPRI, r0
	mov r0, #3
	svc #2
	
@ 0 "" 2
	.thumb
	.syntax unified
	b	.L456
.L469:
	.align	2
.L468:
	.word	rl_enable
	.word	rl
	.word	.LC0
	.word	.LC3
	.word	.LC2
	.cfi_endproc
.LFE634:
	.size	ull_filter_lll_rl_idx_allowed, .-ull_filter_lll_rl_idx_allowed
	.section	.text.ull_filter_lll_rl_addr_allowed,"ax",%progbits
	.align	1
	.p2align 2,,3
	.global	ull_filter_lll_rl_addr_allowed
	.syntax unified
	.thumb
	.thumb_func
	.type	ull_filter_lll_rl_addr_allowed, %function
ull_filter_lll_rl_addr_allowed:
.LVL399:
.LFB635:
	.loc 1 936 1 view -0
	.cfi_startproc
	@ args = 0, pretend = 0, frame = 0
	@ frame_needed = 0, uses_anonymous_args = 0
	.loc 1 937 2 view .LVU1487
	.loc 1 942 2 view .LVU1488
	.loc 1 942 5 is_stmt 0 view .LVU1489
	ldrb	r3, [r2]	@ zero_extendqisi2
	cmp	r3, #255
	bne	.L476
	.loc 1 936 1 view .LVU1490
	push	{r4, r5, r6, r7, r8, r9, r10, lr}
	.cfi_def_cfa_offset 32
	.cfi_offset 4, -32
	.cfi_offset 5, -28
	.cfi_offset 6, -24
	.cfi_offset 7, -20
	.cfi_offset 8, -16
	.cfi_offset 9, -12
	.cfi_offset 10, -8
	.cfi_offset 14, -4
	ldr	r5, .L490
	mov	r4, r0
	mov	lr, r5
	.loc 1 942 5 view .LVU1491
	movs	r3, #0
.LVL400:
.L475:
	.loc 1 947 3 is_stmt 1 view .LVU1492
	.loc 1 947 12 is_stmt 0 view .LVU1493
	add	ip, r3, r3, lsl #2
	lsls	r6, r3, #2
	ldrb	ip, [r5, ip, lsl #3]	@ zero_extendqisi2
	.loc 1 947 6 view .LVU1494
	ands	r0, ip, #1
	beq	.L472
	.loc 1 947 28 discriminator 1 view .LVU1495
	ubfx	ip, ip, #6, #1
	.loc 1 947 19 discriminator 1 view .LVU1496
	cmp	ip, r4
	beq	.L489
.L472:
	.loc 1 946 23 is_stmt 1 discriminator 2 view .LVU1497
.LVL401:
	.loc 1 946 17 discriminator 2 view .LVU1498
	adds	r3, r3, #1
.LVL402:
	.loc 1 946 17 is_stmt 0 discriminator 2 view .LVU1499
	cmp	r3, #8
	add	lr, lr, #40
	bne	.L475
	.loc 1 943 9 view .LVU1500
	movs	r0, #1
.LVL403:
.L471:
	.loc 1 964 1 view .LVU1501
	pop	{r4, r5, r6, r7, r8, r9, r10, pc}
.LVL404:
.L476:
	.cfi_def_cfa_offset 0
	.cfi_restore 4
	.cfi_restore 5
	.cfi_restore 6
	.cfi_restore 7
	.cfi_restore 8
	.cfi_restore 9
	.cfi_restore 10
	.cfi_restore 14
	.loc 1 943 9 view .LVU1502
	movs	r0, #1
.LVL405:
	.loc 1 964 1 view .LVU1503
	bx	lr
.LVL406:
.L489:
	.cfi_def_cfa_offset 32
	.cfi_offset 4, -32
	.cfi_offset 5, -28
	.cfi_offset 6, -24
	.cfi_offset 7, -20
	.cfi_offset 8, -16
	.cfi_offset 9, -12
	.cfi_offset 10, -8
	.cfi_offset 14, -4
.LBB523:
	.loc 1 948 4 is_stmt 1 view .LVU1504
	.loc 1 950 4 view .LVU1505
	.loc 1 950 19 view .LVU1506
	add	r8, r1, #-1
.LBE523:
	.loc 1 947 19 is_stmt 0 view .LVU1507
	mov	r7, lr
	mov	ip, #0
.LVL407:
.L473:
.LBB524:
	.loc 1 951 5 is_stmt 1 view .LVU1508
	.loc 1 950 25 view .LVU1509
	.loc 1 950 19 view .LVU1510
	.loc 1 951 8 is_stmt 0 view .LVU1511
	ldrb	r10, [r7, #1]!	@ zero_extendqisi2
	ldrb	r9, [r8, #1]!	@ zero_extendqisi2
	cmp	r10, r9
	.loc 1 950 19 view .LVU1512
	add	ip, ip, #1
.LVL408:
	.loc 1 951 8 view .LVU1513
	bne	.L472
	.loc 1 950 19 discriminator 2 view .LVU1514
	cmp	ip, #6
	bne	.L473
	.loc 1 957 5 is_stmt 1 view .LVU1515
	.loc 1 958 18 is_stmt 0 view .LVU1516
	add	r6, r6, r3
	.loc 1 957 13 view .LVU1517
	strb	r3, [r2]
	.loc 1 958 5 is_stmt 1 view .LVU1518
	.loc 1 958 18 is_stmt 0 view .LVU1519
	ldrb	r3, [r5, r6, lsl #3]	@ zero_extendqisi2
.LVL409:
	.loc 1 958 24 view .LVU1520
	lsls	r2, r3, #29
.LVL410:
	.loc 1 958 24 view .LVU1521
	bpl	.L471
	.loc 1 958 32 discriminator 2 view .LVU1522
	ubfx	r0, r3, #4, #1
	.loc 1 958 24 discriminator 2 view .LVU1523
	b	.L471
.L491:
	.align	2
.L490:
	.word	rl
.LBE524:
	.cfi_endproc
.LFE635:
	.size	ull_filter_lll_rl_addr_allowed, .-ull_filter_lll_rl_addr_allowed
	.section	.text.ull_filter_lll_rl_addr_resolve,"ax",%progbits
	.align	1
	.p2align 2,,3
	.global	ull_filter_lll_rl_addr_resolve
	.syntax unified
	.thumb
	.thumb_func
	.type	ull_filter_lll_rl_addr_resolve, %function
ull_filter_lll_rl_addr_resolve:
.LVL411:
.LFB636:
	.loc 1 968 1 is_stmt 1 view -0
	.cfi_startproc
	@ args = 0, pretend = 0, frame = 0
	@ frame_needed = 0, uses_anonymous_args = 0
	@ link register save eliminated.
	.loc 1 970 2 view .LVU1525
	.loc 1 968 1 is_stmt 0 view .LVU1526
	push	{r4}
	.cfi_def_cfa_offset 4
	.cfi_offset 4, -4
	.loc 1 970 6 view .LVU1527
	ldr	r3, .L505
	.loc 1 970 5 view .LVU1528
	ldrb	r4, [r3]	@ zero_extendqisi2
	cbz	r4, .L493
	.loc 1 970 17 discriminator 1 view .LVU1529
	cmp	r2, #7
	bhi	.L493
	.loc 1 970 195 discriminator 2 view .LVU1530
	ldr	r4, .L505+4
	add	ip, r2, r2, lsl #2
	ldrb	ip, [r4, ip, lsl #3]	@ zero_extendqisi2
	.loc 1 970 181 discriminator 2 view .LVU1531
	tst	ip, #8
	beq	.L493
	.loc 1 974 2 is_stmt 1 view .LVU1532
	.loc 1 974 5 is_stmt 0 view .LVU1533
	cbz	r0, .L493
	.loc 1 974 27 discriminator 1 view .LVU1534
	ldrb	r3, [r1, #5]	@ zero_extendqisi2
	and	r3, r3, #192
	cmp	r3, #64
	beq	.L504
.L493:
	.loc 1 980 1 view .LVU1535
	movs	r0, #0
.LVL412:
	.loc 1 980 1 view .LVU1536
	ldr	r4, [sp], #4
	.cfi_remember_state
	.cfi_restore 4
	.cfi_def_cfa_offset 0
	bx	lr
.LVL413:
.L504:
	.cfi_restore_state
	.loc 1 975 3 is_stmt 1 view .LVU1537
	.loc 1 975 39 is_stmt 0 view .LVU1538
	movs	r3, #40
	mla	r0, r3, r2, r4
.LVL414:
	.loc 1 975 10 view .LVU1539
	adds	r0, r0, #7
	.loc 1 980 1 view .LVU1540
	ldr	r4, [sp], #4
	.cfi_restore 4
	.cfi_def_cfa_offset 0
	.loc 1 975 10 view .LVU1541
	b	bt_rpa_irk_matches
.LVL415:
.L506:
	.loc 1 975 10 view .LVU1542
	.align	2
.L505:
	.word	rl_enable
	.word	rl
	.cfi_endproc
.LFE636:
	.size	ull_filter_lll_rl_addr_resolve, .-ull_filter_lll_rl_addr_resolve
	.section	.text.ull_filter_lll_rl_enabled,"ax",%progbits
	.align	1
	.p2align 2,,3
	.global	ull_filter_lll_rl_enabled
	.syntax unified
	.thumb
	.thumb_func
	.type	ull_filter_lll_rl_enabled, %function
ull_filter_lll_rl_enabled:
.LFB637:
	.loc 1 983 1 is_stmt 1 view -0
	.cfi_startproc
	@ args = 0, pretend = 0, frame = 0
	@ frame_needed = 0, uses_anonymous_args = 0
	@ link register save eliminated.
	.loc 1 984 2 view .LVU1544
	.loc 1 984 9 is_stmt 0 view .LVU1545
	ldr	r3, .L508
	ldrb	r0, [r3]	@ zero_extendqisi2
	.loc 1 985 1 view .LVU1546
	subs	r0, r0, #0
	it	ne
	movne	r0, #1
	bx	lr
.L509:
	.align	2
.L508:
	.word	rl_enable
	.cfi_endproc
.LFE637:
	.size	ull_filter_lll_rl_enabled, .-ull_filter_lll_rl_enabled
	.section	.bss.rpa_work,"aw",%nobits
	.align	3
	.type	rpa_work, %object
	.size	rpa_work, 48
rpa_work:
	.space	48
	.section	.bss.rpa_last_ms,"aw",%nobits
	.align	3
	.type	rpa_last_ms, %object
	.size	rpa_last_ms, 8
rpa_last_ms:
	.space	8
	.section	.bss.rpa_timeout_ms,"aw",%nobits
	.align	2
	.type	rpa_timeout_ms, %object
	.size	rpa_timeout_ms, 4
rpa_timeout_ms:
	.space	4
	.section	.bss.rl_filter,"aw",%nobits
	.align	2
	.type	rl_filter, %object
	.size	rl_filter, 50
rl_filter:
	.space	50
	.section	.bss.local_rpas,"aw",%nobits
	.align	2
	.type	local_rpas, %object
	.size	local_rpas, 48
local_rpas:
	.space	48
	.section	.bss.peer_irk_count,"aw",%nobits
	.type	peer_irk_count, %object
	.size	peer_irk_count, 1
peer_irk_count:
	.space	1
	.section	.bss.peer_irk_rl_ids,"aw",%nobits
	.align	2
	.type	peer_irk_rl_ids, %object
	.size	peer_irk_rl_ids, 8
peer_irk_rl_ids:
	.space	8
	.section	.bss.peer_irks,"aw",%nobits
	.align	2
	.type	peer_irks, %object
	.size	peer_irks, 128
peer_irks:
	.space	128
	.section	.bss.rl_enable,"aw",%nobits
	.type	rl_enable, %object
	.size	rl_enable, 1
rl_enable:
	.space	1
	.section	.bss.rl,"aw",%nobits
	.align	2
	.type	rl, %object
	.size	rl, 320
rl:
	.space	320
	.section	.bss.fal,"aw",%nobits
	.align	2
	.type	fal, %object
	.size	fal, 64
fal:
	.space	64
	.section	.bss.fal_filter,"aw",%nobits
	.align	2
	.type	fal_filter, %object
	.size	fal_filter, 50
fal_filter:
	.space	50
	.global	log_const_bt_ctlr_ull_filter
	.section	.rodata.str1.4,"aMS",%progbits,1
	.align	2
.LC12:
	.ascii	"bt_ctlr_ull_filter\000"
	.section	._log_const.static.log_const_bt_ctlr_ull_filter_,"a"
	.align	2
	.type	log_const_bt_ctlr_ull_filter, %object
	.size	log_const_bt_ctlr_ull_filter, 8
log_const_bt_ctlr_ull_filter:
	.word	.LC12
	.byte	3
	.space	3
	.text
.Letext0:
	.file 8 "/home/g/zephyr-sdk-0.16.3/arm-zephyr-eabi/picolibc/include/machine/_default_types.h"
	.file 9 "/home/g/zephyr-sdk-0.16.3/arm-zephyr-eabi/lib/gcc/arm-zephyr-eabi/12.2.0/include/stddef.h"
	.file 10 "/home/g/zephyr-sdk-0.16.3/arm-zephyr-eabi/picolibc/include/sys/_stdint.h"
	.file 11 "/home/g/mise-work/zmk-firmware/zmk/zephyr/include/zephyr/sys/dlist.h"
	.file 12 "/home/g/mise-work/zmk-firmware/zmk/zephyr/include/zephyr/sys/rb.h"
	.file 13 "/home/g/mise-work/zmk-firmware/zmk/zephyr/include/zephyr/sys/slist.h"
	.file 14 "/home/g/mise-work/zmk-firmware/zmk/zephyr/include/zephyr/sys/sys_heap.h"
	.file 15 "/home/g/mise-work/zmk-firmware/zmk/zephyr/include/zephyr/kernel/thread.h"
	.file 16 "/home/g/mise-work/zmk-firmware/zmk/zephyr/include/zephyr/kernel_structs.h"
	.file 17 "/home/g/mise-work/zmk-firmware/zmk/zephyr/include/zephyr/arch/arm/thread.h"
	.file 18 "/home/g/mise-work/zmk-firmware/zmk/zephyr/include/zephyr/sys_clock.h"
	.file 19 "/home/g/mise-work/zmk-firmware/zmk/zephyr/include/zephyr/fatal_types.h"
	.file 20 "/home/g/mise-work/zmk-firmware/zmk/zephyr/subsys/bluetooth/controller/./hal/ccm.h"
	.file 21 "/home/g/mise-work/zmk-firmware/zmk/zephyr/subsys/bluetooth/controller/./util/memq.h"
	.file 22 "/home/g/mise-work/zmk-firmware/zmk/zephyr/subsys/bluetooth/controller/ll_sw/pdu_df.h"
	.file 23 "/home/g/mise-work/zmk-firmware/zmk/zephyr/subsys/bluetooth/controller/ll_sw/pdu.h"
	.file 24 "/home/g/mise-work/zmk-firmware/zmk/zephyr/subsys/bluetooth/controller/ll_sw/lll.h"
	.file 25 "/home/g/mise-work/zmk-firmware/zmk/zephyr/subsys/bluetooth/controller/ll_sw/nordic/lll/lll_df_types.h"
	.file 26 "/home/g/mise-work/zmk-firmware/zmk/zephyr/subsys/bluetooth/controller/ll_sw/nordic/lll/lll_adv_types.h"
	.file 27 "/home/g/mise-work/zmk-firmware/zmk/zephyr/subsys/bluetooth/controller/ll_sw/lll_adv.h"
	.file 28 "/home/g/mise-work/zmk-firmware/zmk/zephyr/subsys/bluetooth/controller/ll_sw/lll_conn.h"
	.file 29 "/home/g/mise-work/zmk-firmware/zmk/zephyr/subsys/bluetooth/controller/ll_sw/lll_filter.h"
	.file 30 "/home/g/mise-work/zmk-firmware/zmk/zephyr/subsys/bluetooth/controller/./ll_sw/ull_tx_queue.h"
	.file 31 "/home/g/mise-work/zmk-firmware/zmk/zephyr/subsys/bluetooth/controller/ll_sw/ull_adv_types.h"
	.file 32 "/home/g/mise-work/zmk-firmware/zmk/zephyr/subsys/bluetooth/controller/ll_sw/ull_conn_types.h"
	.file 33 "/home/g/mise-work/zmk-firmware/zmk/zephyr/include/zephyr/logging/log_instance.h"
	.file 34 "/home/g/mise-work/zmk-firmware/zmk/zephyr/include/zephyr/sys/cbprintf.h"
	.file 35 "/home/g/mise-work/zmk-firmware/zmk/zephyr/include/zephyr/logging/log_msg.h"
	.file 36 "/home/g/mise-work/zmk-firmware/zmk/zephyr/subsys/bluetooth/common/rpa.h"
	.file 37 "/home/g/mise-work/zmk-firmware/zmk/zephyr/subsys/bluetooth/controller/ll_sw/ull_adv_internal.h"
	.file 38 "/home/g/mise-work/zmk-firmware/zmk/zephyr/subsys/bluetooth/controller/ll_sw/ull_conn_internal.h"
	.file 39 "/home/g/mise-work/zmk-firmware/zmk/zephyr/subsys/bluetooth/controller/./util/mem.h"
	.file 40 "/home/g/mise-work/zmk-firmware/zmk/zephyr/include/zephyr/sys/__assert.h"
	.file 41 "/home/g/zephyr-sdk-0.16.3/arm-zephyr-eabi/picolibc/include/string.h"
	.file 42 "<built-in>"
	.file 43 "/home/g/mise-work/zmk-firmware/zmk/zephyr/include/zephyr/spinlock.h"