	.cpu cortex-m4
	.arch armv7e-m
	.fpu fpv4-sp-d16
	.eabi_attribute 27, 1
	.eabi_attribute 28, 1
	.eabi_attribute 20, 1
	.eabi_attribute 21, 1
	.eabi_attribute 23, 3
	.eabi_attribute 24, 1
	.eabi_attribute 25, 1
	.eabi_attribute 26, 1
	.eabi_attribute 30, 2
	.eabi_attribute 34, 1
	.eabi_attribute 38, 1
	.eabi_attribute 18, 4
	.file	"ull_llcp_phy.c"
	.text
.Ltext0:
	.cfi_sections	.debug_frame
	.file 1 "/home/g/mise-work/zmk-firmware/zmk/zephyr/subsys/bluetooth/controller/ll_sw/ull_llcp_phy.c"
	.section	.text.pu_check_update_ind,"ax",%progbits
	.align	1
	.p2align 2,,3
	.syntax unified
	.thumb
	.thumb_func
	.type	pu_check_update_ind, %function
pu_check_update_ind:
.LVL0:
.LFB528:
	.loc 1 202 1 view -0
	.cfi_startproc
	@ args = 0, pretend = 0, frame = 0
	@ frame_needed = 0, uses_anonymous_args = 0
	.loc 1 203 2 view .LVU1
	.loc 1 206 2 view .LVU2
	.loc 1 202 1 is_stmt 0 view .LVU3
	push	{r4, r5, r6, lr}
	.cfi_def_cfa_offset 16
	.cfi_offset 4, -16
	.cfi_offset 5, -12
	.cfi_offset 6, -8
	.cfi_offset 14, -4
	.loc 1 206 7 view .LVU4
	ldrb	r3, [r1, #52]	@ zero_extendqisi2
.LVL1:
.LBB94:
.LBI94:
	.loc 1 193 19 is_stmt 1 view .LVU5
.LBB95:
	.loc 1 198 2 view .LVU6
.LBE95:
.LBE94:
	.loc 1 206 46 is_stmt 0 view .LVU7
	ldrb	r2, [r1, #53]	@ zero_extendqisi2
.LBB98:
.LBB96:
	.loc 1 198 18 view .LVU8
	cmp	r3, #4
.LBE96:
.LBE98:
	.loc 1 202 1 view .LVU9
	mov	r4, r1
.LBB99:
.LBB97:
	.loc 1 198 18 view .LVU10
	bhi	.L2
	cmp	r3, #3
	beq	.L2
.LVL2:
	.loc 1 198 18 view .LVU11
.LBE97:
.LBE99:
.LBB100:
.LBI100:
	.loc 1 193 19 is_stmt 1 view .LVU12
.LBB101:
	.loc 1 198 2 view .LVU13
	.loc 1 198 18 is_stmt 0 view .LVU14
	cmp	r2, #4
	bls	.L16
.LVL3:
.L2:
	.loc 1 198 18 view .LVU15
.LBE101:
.LBE100:
	.loc 1 208 3 is_stmt 1 view .LVU16
	.loc 1 213 60 is_stmt 0 view .LVU17
	orrs	r3, r3, r2
	.loc 1 208 22 view .LVU18
	movs	r1, #17
.LVL4:
	.loc 1 213 5 view .LVU19
	ands	r3, r3, #7
	.loc 1 208 22 view .LVU20
	strb	r1, [r4, #48]
	.loc 1 209 3 is_stmt 1 view .LVU21
.LVL5:
	.loc 1 209 7 is_stmt 0 view .LVU22
	mov	r5, #1
.LVL6:
	.loc 1 213 2 is_stmt 1 view .LVU23
	.loc 1 213 5 is_stmt 0 view .LVU24
	bne	.L4
.LVL7:
.L5:
	.loc 1 221 23 view .LVU25
	strb	r3, [r4, #48]
	.loc 1 216 7 view .LVU26
	movs	r5, #1
.L6:
.LVL8:
	.loc 1 225 2 is_stmt 1 view .LVU27
	.loc 1 226 1 is_stmt 0 view .LVU28
	mov	r0, r5
	pop	{r4, r5, r6, pc}
.LVL9:
.L16:
.LBB103:
.LBB102:
	.loc 1 198 18 view .LVU29
	cmp	r2, #3
	beq	.L17
.LBE102:
.LBE103:
	.loc 1 213 60 view .LVU30
	orrs	r3, r3, r2
	.loc 1 213 5 view .LVU31
	ands	r3, r3, #7
	.loc 1 203 10 view .LVU32
	mov	r5, #0
.LVL10:
	.loc 1 213 2 is_stmt 1 view .LVU33
	.loc 1 213 5 is_stmt 0 view .LVU34
	beq	.L5
.LVL11:
.L4:
	.loc 1 219 3 is_stmt 1 view .LVU35
	.loc 1 219 7 is_stmt 0 view .LVU36
	ldrh	r6, [r4, #50]
	bl	ull_conn_event_counter
.LVL12:
	.loc 1 219 6 view .LVU37
	subs	r0, r0, r6
	lsls	r3, r0, #16
	bmi	.L6
	movs	r3, #40
	b	.L5
.LVL13:
.L17:
	.loc 1 208 3 is_stmt 1 view .LVU38
	.loc 1 208 22 is_stmt 0 view .LVU39
	movs	r3, #17
	strb	r3, [r1, #48]
	.loc 1 209 3 is_stmt 1 view .LVU40
.LVL14:
	.loc 1 213 2 view .LVU41
	.loc 1 209 7 is_stmt 0 view .LVU42
	movs	r5, #1
	b	.L4
	.cfi_endproc
.LFE528:
	.size	pu_check_update_ind, .-pu_check_update_ind
	.section	.text.pu_update_eff_times,"ax",%progbits
	.align	1
	.p2align 2,,3
	.syntax unified
	.thumb
	.thumb_func
	.type	pu_update_eff_times, %function
pu_update_eff_times:
.LVL15:
.LFB531:
	.loc 1 285 1 is_stmt 1 view -0
	.cfi_startproc
	@ args = 0, pretend = 0, frame = 8
	@ frame_needed = 0, uses_anonymous_args = 0
	.loc 1 286 2 view .LVU44
	.loc 1 285 1 is_stmt 0 view .LVU45
	push	{r4, r5, r6, r7, lr}
	.cfi_def_cfa_offset 20
	.cfi_offset 4, -20
	.cfi_offset 5, -16
	.cfi_offset 6, -12
	.cfi_offset 7, -8
	.cfi_offset 14, -4
	mov	r6, r1
	sub	sp, sp, #12
	.cfi_def_cfa_offset 32
	.loc 1 291 2 view .LVU46
	add	r2, sp, #6
	add	r1, sp, #4
.LVL16:
	.loc 1 287 11 view .LVU47
	ldrh	r5, [r0, #108]
	.loc 1 288 11 view .LVU48
	ldrh	r7, [r0, #110]
	.loc 1 285 1 view .LVU49
	mov	r4, r0
.LVL17:
	.loc 1 287 2 is_stmt 1 view .LVU50
	.loc 1 288 2 view .LVU51
	.loc 1 289 2 view .LVU52
	.loc 1 291 2 view .LVU53
	bl	ull_dle_max_time_get
.LVL18:
	.loc 1 293 2 view .LVU54
	.loc 1 293 19 is_stmt 0 view .LVU55
	ldrb	r2, [r6, #53]	@ zero_extendqisi2
	.loc 1 293 5 view .LVU56
	cmp	r2, #0
	bne	.L19
	.loc 1 293 55 view .LVU57
	ldrb	r3, [r6, #52]	@ zero_extendqisi2
	cbnz	r3, .L40
.LVL19:
.L20:
	.loc 1 304 2 is_stmt 1 view .LVU58
	.loc 1 304 33 is_stmt 0 view .LVU59
	ldrh	r3, [r4, #108]
	.loc 1 304 5 view .LVU60
	cmp	r3, r5
	bcc	.L25
	.loc 1 304 47 discriminator 1 view .LVU61
	ldrh	r2, [sp, #6]
	cmp	r2, r3
	bcc	.L25
	.loc 1 306 33 view .LVU62
	ldrh	r3, [r4, #110]
	.loc 1 305 47 view .LVU63
	cmp	r3, r7
	bcc	.L25
	.loc 1 306 47 view .LVU64
	ldrh	r2, [sp, #4]
	cmp	r2, r3
	bcc	.L25
	.loc 1 316 9 view .LVU65
	movs	r0, #0
	.loc 1 317 1 view .LVU66
	add	sp, sp, #12
	.cfi_remember_state
	.cfi_def_cfa_offset 20
	@ sp needed
	pop	{r4, r5, r6, r7, pc}
.LVL20:
.L25:
	.cfi_restore_state
	.loc 1 308 3 is_stmt 1 view .LVU67
	.loc 1 311 20 is_stmt 0 view .LVU68
	ldrb	r3, [r4, #209]	@ zero_extendqisi2
	.loc 1 308 28 view .LVU69
	strh	r5, [r4, #108]	@ movhi
	.loc 1 309 3 is_stmt 1 view .LVU70
	.loc 1 311 20 is_stmt 0 view .LVU71
	orr	r3, r3, #1
	.loc 1 313 10 view .LVU72
	movs	r0, #1
	.loc 1 309 28 view .LVU73
	strh	r7, [r4, #110]	@ movhi
	.loc 1 311 3 is_stmt 1 view .LVU74
	.loc 1 311 20 is_stmt 0 view .LVU75
	strb	r3, [r4, #209]
	.loc 1 313 3 is_stmt 1 view .LVU76
	.loc 1 317 1 is_stmt 0 view .LVU77
	add	sp, sp, #12
	.cfi_remember_state
	.cfi_def_cfa_offset 20
	@ sp needed
	pop	{r4, r5, r6, r7, pc}
.LVL21:
.L40:
	.cfi_restore_state
	.loc 1 294 31 view .LVU78
	ldrsb	r0, [r4, #57]
	cmp	r0, #0
	blt	.L22
.L21:
	.loc 1 295 3 is_stmt 1 view .LVU79
	.loc 1 296 52 is_stmt 0 view .LVU80
	ldrb	r1, [r4, #118]	@ zero_extendqisi2
.LVL22:
.LBB104:
.LBI104:
	.loc 1 270 17 is_stmt 1 view .LVU81
.LBB105:
	.loc 1 272 2 view .LVU82
	.loc 1 273 2 view .LVU83
	.loc 1 275 2 view .LVU84
	.loc 1 272 55 is_stmt 0 view .LVU85
	ldrb	r5, [r4, #104]	@ zero_extendqisi2
.LVL23:
	.loc 1 272 37 view .LVU86
	and	r3, r1, #3
	.loc 1 272 55 view .LVU87
	add	r3, r3, r5
	.loc 1 272 84 view .LVU88
	adds	r3, r3, #13
	.loc 1 272 91 view .LVU89
	lsls	r3, r3, #3
	.loc 1 272 127 view .LVU90
	ubfx	r1, r1, #1, #1
.LVL24:
	.loc 1 272 97 view .LVU91
	lsrs	r3, r3, r1
	.loc 1 275 11 view .LVU92
	uxth	r3, r3
	.loc 1 276 11 view .LVU93
	ldrh	r5, [sp, #6]
	.loc 1 275 11 view .LVU94
	cmp	r3, #328
	it	cc
	movcc	r3, #328
.LVL25:
	.loc 1 276 2 is_stmt 1 view .LVU95
	.loc 1 276 11 is_stmt 0 view .LVU96
	cmp	r5, r3
	it	cs
	movcs	r5, r3
.LVL26:
	.loc 1 281 2 is_stmt 1 view .LVU97
	.loc 1 281 2 is_stmt 0 view .LVU98
.LBE105:
.LBE104:
	.loc 1 298 2 is_stmt 1 view .LVU99
	.loc 1 298 5 is_stmt 0 view .LVU100
	cbz	r2, .L23
.LVL27:
	.loc 1 298 31 discriminator 1 view .LVU101
	cmp	r0, #0
	bge	.L22
	.loc 1 298 55 view .LVU102
	ldrb	r3, [r6, #52]	@ zero_extendqisi2
	cmp	r3, #0
	beq	.L20
.L22:
	.loc 1 300 3 is_stmt 1 view .LVU103
	.loc 1 301 52 is_stmt 0 view .LVU104
	ldrb	r2, [r4, #119]	@ zero_extendqisi2
.LVL28:
.LBB106:
.LBI106:
	.loc 1 270 17 is_stmt 1 view .LVU105
.LBB107:
	.loc 1 272 2 view .LVU106
	.loc 1 273 2 view .LVU107
	.loc 1 275 2 view .LVU108
	.loc 1 272 55 is_stmt 0 view .LVU109
	ldrb	r1, [r4, #106]	@ zero_extendqisi2
	.loc 1 276 11 view .LVU110
	ldrh	r7, [sp, #4]
.LVL29:
	.loc 1 272 37 view .LVU111
	and	r3, r2, #3
	.loc 1 272 55 view .LVU112
	add	r3, r3, r1
	.loc 1 272 84 view .LVU113
	adds	r3, r3, #13
	.loc 1 272 91 view .LVU114
	lsls	r3, r3, #3
	.loc 1 272 127 view .LVU115
	ubfx	r2, r2, #1, #1
.LVL30:
	.loc 1 272 97 view .LVU116
	lsrs	r3, r3, r2
	.loc 1 275 11 view .LVU117
	uxth	r3, r3
	cmp	r3, #328
	it	cc
	movcc	r3, #328
.LVL31:
	.loc 1 276 2 is_stmt 1 view .LVU118
	.loc 1 276 11 is_stmt 0 view .LVU119
	cmp	r7, r3
	it	cs
	movcs	r7, r3
.LVL32:
	.loc 1 281 2 is_stmt 1 view .LVU120
	.loc 1 281 2 is_stmt 0 view .LVU121
	b	.L20
.LVL33:
.L19:
	.loc 1 281 2 view .LVU122
.LBE107:
.LBE106:
	.loc 1 293 31 discriminator 1 view .LVU123
	ldrsb	r0, [r4, #57]
	cmp	r0, #0
	blt	.L21
	.loc 1 293 55 view .LVU124
	ldrb	r3, [r6, #52]	@ zero_extendqisi2
	cmp	r3, #0
	beq	.L22
	b	.L21
.L23:
.LVL34:
	.loc 1 298 55 discriminator 3 view .LVU125
	ldrb	r3, [r6, #52]	@ zero_extendqisi2
	cmp	r3, #0
	beq	.L20
	.loc 1 299 31 view .LVU126
	cmp	r0, #0
	bge	.L20
	b	.L22
	.cfi_endproc
.LFE531:
	.size	pu_update_eff_times, .-pu_update_eff_times
	.section	.rodata.pu_ntf.str1.4,"aMS",%progbits,1
	.align	2
.LC0:
	.ascii	"WEST_TOPDIR/zephyr/subsys/bluetooth/controller/ll_s"
	.ascii	"w/ull_llcp_phy.c\000"
	.align	2
.LC1:
	.ascii	"ntf\000"
	.align	2
.LC2:
	.ascii	"ASSERTION FAIL [%s] @ %s:%d\012\000"
	.align	2
.LC3:
	.ascii	"ntf->hdr.type == NODE_RX_TYPE_RETAIN\000"
	.section	.text.pu_ntf,"ax",%progbits
	.align	1
	.p2align 2,,3
	.syntax unified
	.thumb
	.thumb_func
	.type	pu_ntf, %function
pu_ntf:
.LVL35:
.LFB535:
	.loc 1 430 1 is_stmt 1 view -0
	.cfi_startproc
	@ args = 0, pretend = 0, frame = 0
	@ frame_needed = 0, uses_anonymous_args = 0
	.loc 1 431 2 view .LVU128
	.loc 1 432 2 view .LVU129
	.loc 1 435 2 view .LVU130
	.loc 1 430 1 is_stmt 0 view .LVU131
	push	{r4, r5, r6, lr}
	.cfi_def_cfa_offset 16
	.cfi_offset 4, -16
	.cfi_offset 5, -12
	.cfi_offset 6, -8
	.cfi_offset 14, -4
	.loc 1 435 6 view .LVU132
	ldr	r5, [r1, #28]
.LVL36:
	.loc 1 436 2 is_stmt 1 view .LVU133
	.loc 1 436 7 view .LVU134
	.loc 1 430 1 is_stmt 0 view .LVU135
	mov	r4, r1
	mov	r6, r0
	.loc 1 436 10 view .LVU136
	cmp	r5, #0
	beq	.L50
.LVL37:
.L42:
	.loc 1 436 154 is_stmt 1 discriminator 3 view .LVU137
	.loc 1 436 5 discriminator 3 view .LVU138
	.loc 1 438 2 discriminator 3 view .LVU139
	.loc 1 438 6 is_stmt 0 discriminator 3 view .LVU140
	ldrb	r3, [r4, #41]	@ zero_extendqisi2
	.loc 1 438 5 discriminator 3 view .LVU141
	lsls	r3, r3, #31
	bpl	.L43
	.loc 1 439 3 is_stmt 1 view .LVU142
	.loc 1 439 8 view .LVU143
	.loc 1 439 11 is_stmt 0 view .LVU144
	ldrb	r3, [r5, #4]	@ zero_extendqisi2
	cmp	r3, #44
	bne	.L51
.L44:
	.loc 1 439 221 is_stmt 1 discriminator 3 view .LVU145
	.loc 1 439 6 discriminator 3 view .LVU146
	.loc 1 440 3 discriminator 3 view .LVU147
	.loc 1 440 17 is_stmt 0 discriminator 3 view .LVU148
	movs	r3, #29
	strb	r3, [r5, #4]
	.loc 1 441 3 is_stmt 1 discriminator 3 view .LVU149
	.loc 1 441 30 is_stmt 0 discriminator 3 view .LVU150
	ldrh	r3, [r6, #40]
	.loc 1 441 19 discriminator 3 view .LVU151
	strh	r3, [r5, #6]	@ movhi
	.loc 1 442 3 is_stmt 1 discriminator 3 view .LVU152
.LVL38:
	.loc 1 444 3 discriminator 3 view .LVU153
	.loc 1 444 29 is_stmt 0 discriminator 3 view .LVU154
	ldrb	r3, [r4, #48]	@ zero_extendqisi2
	.loc 1 444 15 discriminator 3 view .LVU155
	strb	r3, [r5, #28]
	.loc 1 445 3 is_stmt 1 discriminator 3 view .LVU156
	.loc 1 445 22 is_stmt 0 discriminator 3 view .LVU157
	ldrb	r3, [r6, #119]	@ zero_extendqisi2
	ubfx	r3, r3, #0, #3
	.loc 1 445 11 discriminator 3 view .LVU158
	strb	r3, [r5, #30]
	.loc 1 446 3 is_stmt 1 discriminator 3 view .LVU159
	.loc 1 446 22 is_stmt 0 discriminator 3 view .LVU160
	ldrb	r3, [r6, #118]	@ zero_extendqisi2
	ubfx	r3, r3, #0, #3
	.loc 1 446 11 discriminator 3 view .LVU161
	strb	r3, [r5, #29]
.LVL39:
.L45:
	.loc 1 454 2 is_stmt 1 view .LVU162
	ldr	r0, [r5]
	mov	r1, r5
	bl	ll_rx_put
.LVL40:
	.loc 1 459 2 view .LVU163
	.loc 1 459 22 is_stmt 0 view .LVU164
	ldrb	r3, [r4, #41]	@ zero_extendqisi2
	.loc 1 460 19 view .LVU165
	movs	r2, #0
	.loc 1 459 22 view .LVU166
	bfc	r3, #0, #1
	strb	r3, [r4, #41]
	.loc 1 460 2 is_stmt 1 view .LVU167
	.loc 1 460 19 is_stmt 0 view .LVU168
	str	r2, [r4, #28]
	.loc 1 461 1 view .LVU169
	pop	{r4, r5, r6, pc}
.LVL41:
.L43:
	.loc 1 448 3 is_stmt 1 view .LVU170
	.loc 1 448 17 is_stmt 0 view .LVU171
	movs	r3, #1
	strb	r3, [r5, #4]
	b	.L45
.L51:
	.loc 1 439 55 is_stmt 1 discriminator 1 view .LVU172
	ldr	r2, .L52
	ldr	r1, .L52+4
	ldr	r0, .L52+8
	movw	r3, #439
	bl	assert_print
.LVL42:
	.loc 1 439 218 discriminator 1 view .LVU173
	.loc 1 439 223 discriminator 1 view .LVU174
	.syntax unified
@ 439 "/home/g/mise-work/zmk-firmware/zmk/zephyr/subsys/bluetooth/controller/ll_sw/ull_llcp_phy.c" 1
	eors.n r0, r0
	msr BASEPRI, r0
	mov r0, #3
	svc #2
	
@ 0 "" 2
	.thumb
	.syntax unified
	b	.L44
.LVL43:
.L50:
	.loc 1 436 21 discriminator 1 view .LVU175
	ldr	r2, .L52
	ldr	r1, .L52+12
.LVL44:
	.loc 1 436 21 is_stmt 0 discriminator 1 view .LVU176
	ldr	r0, .L52+8
.LVL45:
	.loc 1 436 21 discriminator 1 view .LVU177
	mov	r3, #436
	bl	assert_print
.LVL46:
	.loc 1 436 151 is_stmt 1 discriminator 1 view .LVU178
	.loc 1 436 156 discriminator 1 view .LVU179
	.syntax unified
@ 436 "/home/g/mise-work/zmk-firmware/zmk/zephyr/subsys/bluetooth/controller/ll_sw/ull_llcp_phy.c" 1
	eors.n r0, r0
	msr BASEPRI, r0
	mov r0, #3
	svc #2
	
@ 0 "" 2
	.thumb
	.syntax unified
	b	.L42
.L53:
	.align	2
.L52:
	.word	.LC0
	.word	.LC3
	.word	.LC2
	.word	.LC1
	.cfi_endproc
.LFE535:
	.size	pu_ntf, .-pu_ntf
	.section	.text.pu_dle_ntf,"ax",%progbits
	.align	1
	.p2align 2,,3
	.syntax unified
	.thumb
	.thumb_func
	.type	pu_dle_ntf, %function
pu_dle_ntf:
.LVL47:
.LFB536:
	.loc 1 465 1 view -0
	.cfi_startproc
	@ args = 0, pretend = 0, frame = 0
	@ frame_needed = 0, uses_anonymous_args = 0
	.loc 1 466 2 view .LVU181
	.loc 1 467 2 view .LVU182
	.loc 1 470 2 view .LVU183
	.loc 1 465 1 is_stmt 0 view .LVU184
	push	{r4, r5, r6, lr}
	.cfi_def_cfa_offset 16
	.cfi_offset 4, -16
	.cfi_offset 5, -12
	.cfi_offset 6, -8
	.cfi_offset 14, -4
	.loc 1 472 6 view .LVU185
	ldrb	r3, [r1, #41]	@ zero_extendqisi2
	.loc 1 470 6 view .LVU186
	ldr	r5, [r1, #44]
.LVL48:
	.loc 1 472 2 is_stmt 1 view .LVU187
	.loc 1 472 5 is_stmt 0 view .LVU188
	lsls	r3, r3, #30
	.loc 1 465 1 view .LVU189
	mov	r4, r1
	.loc 1 472 5 view .LVU190
	bmi	.L55
	.loc 1 473 3 is_stmt 1 view .LVU191
	.loc 1 473 6 is_stmt 0 view .LVU192
	cbz	r5, .L54
	.loc 1 481 3 is_stmt 1 view .LVU193
	.loc 1 481 17 is_stmt 0 view .LVU194
	movs	r3, #1
	strb	r3, [r5, #4]
	b	.L57
.L55:
	.loc 1 483 3 is_stmt 1 view .LVU195
	.loc 1 483 8 view .LVU196
	mov	r6, r0
	.loc 1 483 11 is_stmt 0 view .LVU197
	cbz	r5, .L63
.LVL49:
.L58:
	.loc 1 483 155 is_stmt 1 discriminator 3 view .LVU198
	.loc 1 483 6 discriminator 3 view .LVU199
	.loc 1 485 3 discriminator 3 view .LVU200
	.loc 1 485 17 is_stmt 0 discriminator 3 view .LVU201
	movs	r3, #3
	strb	r3, [r5, #4]
	.loc 1 486 3 is_stmt 1 discriminator 3 view .LVU202
	.loc 1 486 30 is_stmt 0 discriminator 3 view .LVU203
	ldrh	r3, [r6, #40]
	.loc 1 486 19 discriminator 3 view .LVU204
	strh	r3, [r5, #6]	@ movhi
	.loc 1 487 3 is_stmt 1 discriminator 3 view .LVU205
	.loc 1 489 3 discriminator 3 view .LVU206
	add	r1, r5, #28
	mov	r0, r6
	bl	llcp_ntf_encode_length_change
.LVL50:
.L57:
	.loc 1 493 2 view .LVU207
	ldr	r0, [r5]
	mov	r1, r5
	bl	ll_rx_put_sched
.LVL51:
	.loc 1 495 2 view .LVU208
	.loc 1 495 23 is_stmt 0 view .LVU209
	ldrb	r3, [r4, #41]	@ zero_extendqisi2
	.loc 1 496 28 view .LVU210
	movs	r2, #0
	.loc 1 495 23 view .LVU211
	bfc	r3, #1, #1
	strb	r3, [r4, #41]
	.loc 1 496 2 is_stmt 1 view .LVU212
	.loc 1 496 28 is_stmt 0 view .LVU213
	str	r2, [r4, #44]
.L54:
	.loc 1 497 1 view .LVU214
	pop	{r4, r5, r6, pc}
.LVL52:
.L63:
	.loc 1 483 22 is_stmt 1 discriminator 1 view .LVU215
	ldr	r2, .L64
	ldr	r1, .L64+4
.LVL53:
	.loc 1 483 22 is_stmt 0 discriminator 1 view .LVU216
	ldr	r0, .L64+8
.LVL54:
	.loc 1 483 22 discriminator 1 view .LVU217
	movw	r3, #483
	bl	assert_print
.LVL55:
	.loc 1 483 152 is_stmt 1 discriminator 1 view .LVU218
	.loc 1 483 157 discriminator 1 view .LVU219
	.syntax unified
@ 483 "/home/g/mise-work/zmk-firmware/zmk/zephyr/subsys/bluetooth/controller/ll_sw/ull_llcp_phy.c" 1
	eors.n r0, r0
	msr BASEPRI, r0
	mov r0, #3
	svc #2
	
@ 0 "" 2
	.thumb
	.syntax unified
	b	.L58
.L65:
	.align	2
.L64:
	.word	.LC0
	.word	.LC1
	.word	.LC2
	.cfi_endproc
.LFE536:
	.size	pu_dle_ntf, .-pu_dle_ntf
	.section	.rodata.rp_pu_tx.constprop.0.str1.4,"aMS",%progbits,1
	.align	2
.LC4:
	.ascii	"ctx->node_ref.tx\000"
	.align	2
.LC5:
	.ascii	"ctx->data.pu.ntf_dle_node\000"
	.align	2
.LC6:
	.ascii	"0\000"
	.section	.text.rp_pu_tx.constprop.0,"ax",%progbits
	.align	1
	.p2align 2,,3
	.syntax unified
	.thumb
	.thumb_func
	.type	rp_pu_tx.constprop.0, %function
rp_pu_tx.constprop.0:
.LVL56:
.LFB583:
	.loc 1 934 13 view -0
	.cfi_startproc
	@ args = 0, pretend = 0, frame = 0
	@ frame_needed = 0, uses_anonymous_args = 0
	.loc 1 936 2 view .LVU221
	.loc 1 937 2 view .LVU222
	.loc 1 939 2 view .LVU223
	.loc 1 939 7 view .LVU224
	.loc 1 934 13 is_stmt 0 view .LVU225
	push	{r4, r5, r6, lr}
	.cfi_def_cfa_offset 16
	.cfi_offset 4, -16
	.cfi_offset 5, -12
	.cfi_offset 6, -8
	.cfi_offset 14, -4
	.loc 1 939 10 view .LVU226
	ldr	r3, [r1, #32]
	.loc 1 934 13 view .LVU227
	mov	r4, r1
	mov	r5, r0
	.loc 1 939 10 view .LVU228
	cbz	r3, .L75
.LVL57:
.L67:
	.loc 1 939 180 is_stmt 1 view .LVU229
	.loc 1 939 5 view .LVU230
	.loc 1 942 2 view .LVU231
	.loc 1 942 7 is_stmt 0 view .LVU232
	bl	llcp_ntf_alloc_is_available
.LVL58:
	.loc 1 942 5 view .LVU233
	cbnz	r0, .L68
	.loc 1 944 3 is_stmt 1 view .LVU234
	.loc 1 944 14 is_stmt 0 view .LVU235
	movs	r3, #7
	strb	r3, [r4, #10]
	.loc 1 945 3 is_stmt 1 view .LVU236
	.loc 1 984 1 is_stmt 0 view .LVU237
	pop	{r4, r5, r6, pc}
.LVL59:
.L68:
.LBB110:
.LBI110:
	.loc 1 934 13 is_stmt 1 view .LVU238
.LBB111:
	.loc 1 948 2 view .LVU239
	.loc 1 948 30 is_stmt 0 view .LVU240
	bl	llcp_ntf_alloc
.LVL60:
	.loc 1 948 28 view .LVU241
	str	r0, [r4, #44]
	.loc 1 949 2 is_stmt 1 view .LVU242
	.loc 1 949 7 view .LVU243
	.loc 1 949 10 is_stmt 0 view .LVU244
	cmp	r0, #0
	beq	.L76
.L70:
	.loc 1 949 198 is_stmt 1 view .LVU245
	.loc 1 949 5 view .LVU246
	.loc 1 952 2 view .LVU247
	.loc 1 958 2 is_stmt 0 view .LVU248
	ldrb	r3, [r4, #13]	@ zero_extendqisi2
	.loc 1 952 5 view .LVU249
	ldr	r6, [r4, #32]
.LVL61:
	.loc 1 953 2 is_stmt 1 view .LVU250
	.loc 1 955 23 is_stmt 0 view .LVU251
	str	r6, [r4, #24]
	.loc 1 953 19 view .LVU252
	movs	r2, #0
	.loc 1 958 2 view .LVU253
	cmp	r3, #23
	.loc 1 953 19 view .LVU254
	str	r2, [r4, #32]
	.loc 1 954 2 is_stmt 1 view .LVU255
.LVL62:
	.loc 1 955 2 view .LVU256
	.loc 1 958 2 view .LVU257
	beq	.L77
	.loc 1 976 3 view .LVU258
	.loc 1 976 8 view .LVU259
	.loc 1 976 20 view .LVU260
	ldr	r2, .L78
	ldr	r1, .L78+4
	ldr	r0, .L78+8
	mov	r3, #976
	bl	assert_print
.LVL63:
	.loc 1 976 148 view .LVU261
	.loc 1 976 153 view .LVU262
	.syntax unified
@ 976 "/home/g/mise-work/zmk-firmware/zmk/zephyr/subsys/bluetooth/controller/ll_sw/ull_llcp_phy.c" 1
	eors.n r0, r0
	msr BASEPRI, r0
	mov r0, #3
	svc #2
	
@ 0 "" 2
	.thumb
	.syntax unified
.L72:
	.loc 1 976 151 view .LVU263
	.loc 1 976 6 view .LVU264
	.loc 1 980 2 view .LVU265
	mov	r0, r5
	mov	r1, r6
	bl	llcp_tx_enqueue
.LVL64:
	.loc 1 983 2 view .LVU266
	mov	r0, r5
.LBE111:
.LBE110:
	.loc 1 984 1 is_stmt 0 view .LVU267
	pop	{r4, r5, r6, lr}
	.cfi_remember_state
	.cfi_restore 14
	.cfi_restore 6
	.cfi_restore 5
	.cfi_restore 4
	.cfi_def_cfa_offset 0
.LVL65:
.LBB114:
.LBB112:
	.loc 1 983 2 view .LVU268
	b	llcp_rr_prt_restart
.LVL66:
.L75:
	.cfi_restore_state
	.loc 1 983 2 view .LVU269
.LBE112:
.LBE114:
	.loc 1 939 34 is_stmt 1 view .LVU270
	ldr	r2, .L78
	ldr	r1, .L78+12
.LVL67:
	.loc 1 939 34 is_stmt 0 view .LVU271
	ldr	r0, .L78+8
.LVL68:
	.loc 1 939 34 view .LVU272
	movw	r3, #939
	bl	assert_print
.LVL69:
	.loc 1 939 177 is_stmt 1 view .LVU273
	.loc 1 939 182 view .LVU274
	.syntax unified
@ 939 "/home/g/mise-work/zmk-firmware/zmk/zephyr/subsys/bluetooth/controller/ll_sw/ull_llcp_phy.c" 1
	eors.n r0, r0
	msr BASEPRI, r0
	mov r0, #3
	svc #2
	
@ 0 "" 2
	.thumb
	.syntax unified
	b	.L67
.LVL70:
.L77:
.LBB115:
.LBB113:
	.loc 1 961 3 view .LVU275
	adds	r1, r6, #4
	mov	r0, r5
	bl	llcp_pdu_encode_phy_rsp
.LVL71:
	.loc 1 962 3 view .LVU276
	.loc 1 963 3 view .LVU277
	.loc 1 963 14 is_stmt 0 view .LVU278
	movw	r3, #6147
	strh	r3, [r4, #10]	@ movhi
	.loc 1 964 3 is_stmt 1 view .LVU279
	b	.L72
.LVL72:
.L76:
	.loc 1 949 43 view .LVU280
	ldr	r2, .L78
	ldr	r1, .L78+16
	ldr	r0, .L78+8
	movw	r3, #949
	bl	assert_print
.LVL73:
	.loc 1 949 195 view .LVU281
	.loc 1 949 200 view .LVU282
	.syntax unified
@ 949 "/home/g/mise-work/zmk-firmware/zmk/zephyr/subsys/bluetooth/controller/ll_sw/ull_llcp_phy.c" 1
	eors.n r0, r0
	msr BASEPRI, r0
	mov r0, #3
	svc #2
	
@ 0 "" 2
	.thumb
	.syntax unified
	b	.L70
.L79:
	.align	2
.L78:
	.word	.LC0
	.word	.LC6
	.word	.LC2
	.word	.LC4
	.word	.LC5
.LBE113:
.LBE115:
	.cfi_endproc
.LFE583:
	.size	rp_pu_tx.constprop.0, .-rp_pu_tx.constprop.0
	.section	.text.lp_pu_tx.constprop.0,"ax",%progbits
	.align	1
	.p2align 2,,3
	.syntax unified
	.thumb
	.thumb_func
	.type	lp_pu_tx.constprop.0, %function
lp_pu_tx.constprop.0:
.LVL74:
.LFB584:
	.loc 1 376 13 view -0
	.cfi_startproc
	@ args = 0, pretend = 0, frame = 0
	@ frame_needed = 0, uses_anonymous_args = 0
	.loc 1 378 2 view .LVU284
	.loc 1 379 2 view .LVU285
	.loc 1 381 2 view .LVU286
	.loc 1 381 7 view .LVU287
	.loc 1 376 13 is_stmt 0 view .LVU288
	push	{r4, r5, r6, lr}
	.cfi_def_cfa_offset 16
	.cfi_offset 4, -16
	.cfi_offset 5, -12
	.cfi_offset 6, -8
	.cfi_offset 14, -4
	.loc 1 381 10 view .LVU289
	ldr	r3, [r1, #32]
	.loc 1 376 13 view .LVU290
	mov	r4, r1
	mov	r5, r0
	.loc 1 381 10 view .LVU291
	cmp	r3, #0
	beq	.L93
.LVL75:
.L81:
	.loc 1 381 180 is_stmt 1 view .LVU292
	.loc 1 381 5 view .LVU293
	.loc 1 384 2 view .LVU294
	.loc 1 384 5 is_stmt 0 view .LVU295
	ldrb	r3, [r4, #13]	@ zero_extendqisi2
	cmp	r3, #22
	bne	.L82
	.loc 1 384 6 view .LVU296
	ldrsb	r3, [r5, #57]
	cmp	r3, #0
	blt	.L82
	.loc 1 392 199 is_stmt 1 view .LVU297
	.loc 1 392 6 view .LVU298
	.loc 1 396 2 view .LVU299
	.loc 1 396 5 is_stmt 0 view .LVU300
	ldr	r6, [r4, #32]
.LVL76:
	.loc 1 397 2 is_stmt 1 view .LVU301
	.loc 1 398 23 is_stmt 0 view .LVU302
	str	r6, [r4, #24]
	.loc 1 397 19 view .LVU303
	movs	r3, #0
	str	r3, [r4, #32]
	.loc 1 398 2 is_stmt 1 view .LVU304
	.loc 1 399 2 view .LVU305
.LVL77:
	.loc 1 402 2 view .LVU306
.L83:
	.loc 1 404 3 view .LVU307
.LBB118:
.LBI118:
	.loc 1 320 20 view .LVU308
.LBB119:
	.loc 1 322 2 view .LVU309
	.loc 1 322 34 is_stmt 0 view .LVU310
	ldrb	r3, [r4, #40]	@ zero_extendqisi2
	.loc 1 322 20 view .LVU311
	ldrb	r2, [r5, #404]	@ zero_extendqisi2
	.loc 1 322 34 view .LVU312
	ubfx	r3, r3, #3, #3
	.loc 1 322 20 view .LVU313
	bfi	r2, r3, #3, #3
	strb	r2, [r5, #404]
	.loc 1 323 2 is_stmt 1 view .LVU314
	.loc 1 323 34 is_stmt 0 view .LVU315
	ldrb	r2, [r4, #40]	@ zero_extendqisi2
	.loc 1 323 20 view .LVU316
	ldrb	r3, [r5, #404]	@ zero_extendqisi2
	bfi	r3, r2, #0, #3
	strb	r3, [r5, #404]
	.loc 1 330 2 is_stmt 1 view .LVU317
	.loc 1 330 36 is_stmt 0 view .LVU318
	ldrb	r3, [r4, #40]	@ zero_extendqisi2
	.loc 1 330 22 view .LVU319
	ldrb	r2, [r5, #118]	@ zero_extendqisi2
	.loc 1 330 36 view .LVU320
	ubfx	r3, r3, #6, #1
	.loc 1 330 22 view .LVU321
	bfi	r2, r3, #3, #1
.LBE119:
.LBE118:
	.loc 1 405 3 view .LVU322
	adds	r1, r6, #4
.LBB121:
.LBB120:
	.loc 1 330 22 view .LVU323
	strb	r2, [r5, #118]
.LVL78:
	.loc 1 330 22 view .LVU324
.LBE120:
.LBE121:
	.loc 1 405 3 is_stmt 1 view .LVU325
	mov	r0, r4
	bl	llcp_pdu_encode_phy_req
.LVL79:
	.loc 1 406 3 view .LVU326
	movs	r1, #2
	mov	r0, r5
	bl	llcp_tx_pause_data
.LVL80:
	.loc 1 407 3 view .LVU327
	.loc 1 407 14 is_stmt 0 view .LVU328
	movs	r3, #2
	strb	r3, [r4, #10]
	.loc 1 408 3 is_stmt 1 view .LVU329
	b	.L89
.LVL81:
.L82:
	.loc 1 386 3 view .LVU330
	.loc 1 386 8 is_stmt 0 view .LVU331
	bl	llcp_ntf_alloc_is_available
.LVL82:
	.loc 1 386 6 view .LVU332
	cbnz	r0, .L84
	.loc 1 388 4 is_stmt 1 view .LVU333
	.loc 1 388 15 is_stmt 0 view .LVU334
	movs	r3, #7
	strb	r3, [r4, #10]
	.loc 1 389 4 is_stmt 1 view .LVU335
	.loc 1 427 1 is_stmt 0 view .LVU336
	pop	{r4, r5, r6, pc}
.LVL83:
.L84:
	.loc 1 391 3 is_stmt 1 view .LVU337
	.loc 1 391 31 is_stmt 0 view .LVU338
	bl	llcp_ntf_alloc
.LVL84:
	.loc 1 391 29 view .LVU339
	str	r0, [r4, #44]
	.loc 1 392 3 is_stmt 1 view .LVU340
	.loc 1 392 8 view .LVU341
	.loc 1 392 11 is_stmt 0 view .LVU342
	cbz	r0, .L86
.L92:
	.loc 1 402 13 view .LVU343
	ldrb	r2, [r4, #13]	@ zero_extendqisi2
	.loc 1 392 199 is_stmt 1 view .LVU344
	.loc 1 392 6 view .LVU345
	.loc 1 396 2 view .LVU346
	.loc 1 396 5 is_stmt 0 view .LVU347
	ldr	r6, [r4, #32]
.LVL85:
	.loc 1 397 2 is_stmt 1 view .LVU348
	.loc 1 398 23 is_stmt 0 view .LVU349
	str	r6, [r4, #24]
	.loc 1 397 19 view .LVU350
	movs	r3, #0
	.loc 1 402 2 view .LVU351
	cmp	r2, #22
	.loc 1 397 19 view .LVU352
	str	r3, [r4, #32]
	.loc 1 398 2 is_stmt 1 view .LVU353
	.loc 1 399 2 view .LVU354
.LVL86:
	.loc 1 402 2 view .LVU355
	beq	.L83
	.loc 1 419 3 view .LVU356
	.loc 1 419 8 view .LVU357
	.loc 1 419 20 view .LVU358
	ldr	r2, .L94
	ldr	r1, .L94+4
	ldr	r0, .L94+8
	movw	r3, #419
	bl	assert_print
.LVL87:
	.loc 1 419 148 view .LVU359
	.loc 1 419 153 view .LVU360
	.syntax unified
@ 419 "/home/g/mise-work/zmk-firmware/zmk/zephyr/subsys/bluetooth/controller/ll_sw/ull_llcp_phy.c" 1
	eors.n r0, r0
	msr BASEPRI, r0
	mov r0, #3
	svc #2
	
@ 0 "" 2
.LVL88:
	.thumb
	.syntax unified
.L89:
	.loc 1 419 151 view .LVU361
	.loc 1 419 6 view .LVU362
	.loc 1 423 2 view .LVU363
	mov	r0, r5
	mov	r1, r6
	bl	llcp_tx_enqueue
.LVL89:
	.loc 1 426 2 view .LVU364
	mov	r0, r5
	.loc 1 427 1 is_stmt 0 view .LVU365
	pop	{r4, r5, r6, lr}
	.cfi_remember_state
	.cfi_restore 14
	.cfi_restore 6
	.cfi_restore 5
	.cfi_restore 4
	.cfi_def_cfa_offset 0
.LVL90:
	.loc 1 426 2 view .LVU366
	b	llcp_lr_prt_restart
.LVL91:
.L93:
	.cfi_restore_state
	.loc 1 381 34 is_stmt 1 view .LVU367
	ldr	r2, .L94
	ldr	r1, .L94+12
.LVL92:
	.loc 1 381 34 is_stmt 0 view .LVU368
	ldr	r0, .L94+8
.LVL93:
	.loc 1 381 34 view .LVU369
	movw	r3, #381
	bl	assert_print
.LVL94:
	.loc 1 381 177 is_stmt 1 view .LVU370
	.loc 1 381 182 view .LVU371
	.syntax unified
@ 381 "/home/g/mise-work/zmk-firmware/zmk/zephyr/subsys/bluetooth/controller/ll_sw/ull_llcp_phy.c" 1
	eors.n r0, r0
	msr BASEPRI, r0
	mov r0, #3
	svc #2
	
@ 0 "" 2
	.thumb
	.syntax unified
	b	.L81
.L86:
	.loc 1 392 44 view .LVU372
	ldr	r2, .L94
	ldr	r1, .L94+16
	ldr	r0, .L94+8
	mov	r3, #392
	bl	assert_print
.LVL95:
	.loc 1 392 196 view .LVU373
	.loc 1 392 201 view .LVU374
	.syntax unified
@ 392 "/home/g/mise-work/zmk-firmware/zmk/zephyr/subsys/bluetooth/controller/ll_sw/ull_llcp_phy.c" 1
	eors.n r0, r0
	msr BASEPRI, r0
	mov r0, #3
	svc #2
	
@ 0 "" 2
	.thumb
	.syntax unified
	b	.L92
.L95:
	.align	2
.L94:
	.word	.LC0
	.word	.LC6
	.word	.LC2
	.word	.LC4
	.word	.LC5
	.cfi_endproc
.LFE584:
	.size	lp_pu_tx.constprop.0, .-lp_pu_tx.constprop.0
	.section	.text.lp_pu_send_phy_req.constprop.0.isra.0,"ax",%progbits
	.align	1
	.p2align 2,,3
	.syntax unified
	.thumb
	.thumb_func
	.type	lp_pu_send_phy_req.constprop.0.isra.0, %function
lp_pu_send_phy_req.constprop.0.isra.0:
.LVL96:
.LFB586:
	.loc 1 528 13 view -0
	.cfi_startproc
	@ args = 0, pretend = 0, frame = 0
	@ frame_needed = 0, uses_anonymous_args = 0
	.loc 1 530 2 view .LVU376
	.loc 1 528 13 is_stmt 0 view .LVU377
	push	{r3, r4, r5, lr}
	.cfi_def_cfa_offset 16
	.cfi_offset 3, -16
	.cfi_offset 4, -12
	.cfi_offset 5, -8
	.cfi_offset 14, -4
	.loc 1 528 13 view .LVU378
	mov	r5, r0
	mov	r4, r1
	.loc 1 530 6 view .LVU379
	bl	llcp_lr_ispaused
.LVL97:
	.loc 1 530 5 view .LVU380
	cbz	r0, .L97
.L99:
	.loc 1 533 3 is_stmt 1 view .LVU381
	.loc 1 533 14 is_stmt 0 view .LVU382
	movs	r3, #1
	strb	r3, [r4, #10]
	.loc 1 543 1 view .LVU383
	pop	{r3, r4, r5, pc}
.LVL98:
.L97:
	.loc 1 530 32 view .LVU384
	mov	r0, r5
	bl	llcp_rr_get_collision
.LVL99:
	.loc 1 530 29 view .LVU385
	cmp	r0, #0
	bne	.L99
	.loc 1 531 7 view .LVU386
	mov	r1, r4
	mov	r0, r5
	bl	llcp_tx_alloc_peek
.LVL100:
	.loc 1 530 60 view .LVU387
	cmp	r0, #0
	beq	.L99
	.loc 1 532 7 view .LVU388
	mov	r0, r5
	bl	llcp_rr_get_paused_cmd
.LVL101:
	.loc 1 531 37 view .LVU389
	cmp	r0, #7
	beq	.L99
	.loc 1 535 3 is_stmt 1 view .LVU390
	mov	r0, r5
	movs	r1, #1
	bl	llcp_rr_set_incompat
.LVL102:
	.loc 1 536 3 view .LVU391
	mov	r0, r5
	movs	r1, #13
	bl	llcp_rr_set_paused_cmd
.LVL103:
	.loc 1 537 3 view .LVU392
	.loc 1 537 18 is_stmt 0 view .LVU393
	movs	r3, #22
	.loc 1 540 22 view .LVU394
	mov	r1, r4
	.loc 1 537 18 view .LVU395
	strb	r3, [r4, #13]
	.loc 1 540 3 is_stmt 1 view .LVU396
	.loc 1 540 22 is_stmt 0 view .LVU397
	mov	r0, r5
	bl	llcp_tx_alloc
.LVL104:
	.loc 1 540 20 view .LVU398
	str	r0, [r4, #32]
	.loc 1 541 3 is_stmt 1 view .LVU399
	mov	r1, r4
	mov	r0, r5
	.loc 1 543 1 is_stmt 0 view .LVU400
	pop	{r3, r4, r5, lr}
	.cfi_restore 14
	.cfi_restore 5
	.cfi_restore 4
	.cfi_restore 3
	.cfi_def_cfa_offset 0
.LVL105:
	.loc 1 541 3 view .LVU401
	b	lp_pu_tx.constprop.0
.LVL106:
	.loc 1 541 3 view .LVU402
	.cfi_endproc
.LFE586:
	.size	lp_pu_send_phy_req.constprop.0.isra.0, .-lp_pu_send_phy_req.constprop.0.isra.0
	.section	.text.rp_pu_send_phy_rsp.isra.0,"ax",%progbits
	.align	1
	.p2align 2,,3
	.syntax unified
	.thumb
	.thumb_func
	.type	rp_pu_send_phy_rsp.isra.0, %function
rp_pu_send_phy_rsp.isra.0:
.LVL107:
.LFB587:
	.loc 1 1032 13 is_stmt 1 view -0
	.cfi_startproc
	@ args = 0, pretend = 0, frame = 0
	@ frame_needed = 0, uses_anonymous_args = 0
	.loc 1 1034 2 view .LVU404
	.loc 1 1032 13 is_stmt 0 view .LVU405
	push	{r3, r4, r5, lr}
	.cfi_def_cfa_offset 16
	.cfi_offset 3, -16
	.cfi_offset 4, -12
	.cfi_offset 5, -8
	.cfi_offset 14, -4
	.loc 1 1032 13 view .LVU406
	mov	r5, r0
	mov	r4, r1
	.loc 1 1034 6 view .LVU407
	bl	llcp_rr_ispaused
.LVL108:
	.loc 1 1034 5 view .LVU408
	cbz	r0, .L109
.L111:
	.loc 1 1036 3 is_stmt 1 view .LVU409
	.loc 1 1036 14 is_stmt 0 view .LVU410
	movs	r3, #2
	strb	r3, [r4, #10]
	.loc 1 1043 1 view .LVU411
	pop	{r3, r4, r5, pc}
.LVL109:
.L109:
	.loc 1 1034 33 view .LVU412
	mov	r1, r4
	mov	r0, r5
	bl	llcp_tx_alloc_peek
.LVL110:
	.loc 1 1034 29 view .LVU413
	cmp	r0, #0
	beq	.L111
	.loc 1 1035 7 view .LVU414
	mov	r0, r5
	bl	llcp_rr_get_paused_cmd
.LVL111:
	.loc 1 1034 63 view .LVU415
	cmp	r0, #7
	beq	.L111
.LVL112:
	.loc 1 1038 3 view .LVU416
	mov	r0, r5
	movs	r1, #13
	bl	llcp_rr_set_paused_cmd
.LVL113:
	.loc 1 1039 18 view .LVU417
	movs	r3, #23
	.loc 1 1040 22 view .LVU418
	mov	r1, r4
	.loc 1 1039 18 view .LVU419
	strb	r3, [r4, #13]
	.loc 1 1040 22 view .LVU420
	mov	r0, r5
	bl	llcp_tx_alloc
.LVL114:
	.loc 1 1040 20 view .LVU421
	str	r0, [r4, #32]
	.loc 1 1041 3 view .LVU422
	mov	r1, r4
	mov	r0, r5
	.loc 1 1043 1 view .LVU423
	pop	{r3, r4, r5, lr}
	.cfi_restore 14
	.cfi_restore 5
	.cfi_restore 4
	.cfi_restore 3
	.cfi_def_cfa_offset 0
.LVL115:
	.loc 1 1041 3 view .LVU424
	b	rp_pu_tx.constprop.0
.LVL116:
	.loc 1 1041 3 view .LVU425
	.cfi_endproc
.LFE587:
	.size	rp_pu_send_phy_rsp.isra.0, .-rp_pu_send_phy_rsp.isra.0
	.section	.rodata.lp_pu_execute_fsm.str1.4,"aMS",%progbits,1
	.align	2
.LC8:
	.ascii	"conn->lll.role == 0x01\000"
	.section	.text.lp_pu_execute_fsm,"ax",%progbits
	.align	1
	.p2align 2,,3
	.syntax unified
	.thumb
	.thumb_func
	.type	lp_pu_execute_fsm, %function
lp_pu_execute_fsm:
.LVL117:
.LFB549:
	.loc 1 831 1 is_stmt 1 view -0
	.cfi_startproc
	@ args = 0, pretend = 0, frame = 8
	@ frame_needed = 0, uses_anonymous_args = 0
	.loc 1 831 1 is_stmt 0 view .LVU427
	push	{r4, r5, r6, lr}
	.cfi_def_cfa_offset 16
	.cfi_offset 4, -16
	.cfi_offset 5, -12
	.cfi_offset 6, -8
	.cfi_offset 14, -4
	mov	r4, r1
	.loc 1 832 2 view .LVU428
	ldrb	r1, [r1, #10]	@ zero_extendqisi2
.LVL118:
	.loc 1 831 1 view .LVU429
	sub	sp, sp, #8
	.cfi_def_cfa_offset 24
	.loc 1 831 1 view .LVU430
	mov	r6, r0
	.loc 1 832 2 is_stmt 1 view .LVU431
	.loc 1 831 1 is_stmt 0 view .LVU432
	mov	r5, r3
	.loc 1 832 2 view .LVU433
	cmp	r1, #9
	bhi	.L121
	tbb	[pc, r1]
.LVL119:
.L123:
	.byte	(.L128-.L123)/2
	.byte	(.L128-.L123)/2
	.byte	(.L127-.L123)/2
	.byte	(.L121-.L123)/2
	.byte	(.L121-.L123)/2
	.byte	(.L121-.L123)/2
	.byte	(.L126-.L123)/2
	.byte	(.L125-.L123)/2
	.byte	(.L124-.L123)/2
	.byte	(.L122-.L123)/2
	.p2align 1
.L128:
	.loc 1 834 3 is_stmt 1 view .LVU434
.LBB183:
.LBI183:
	.loc 1 561 13 view .LVU435
.LBB184:
	.loc 1 563 2 view .LVU436
	cmp	r2, #0
	beq	.L157
.LVL120:
.L120:
	.loc 1 563 2 is_stmt 0 view .LVU437
.LBE184:
.LBE183:
	.loc 1 873 1 view .LVU438
	add	sp, sp, #8
	.cfi_remember_state
	.cfi_def_cfa_offset 16
	@ sp needed
	pop	{r4, r5, r6, pc}
.LVL121:
.L121:
	.cfi_restore_state
	.loc 1 871 3 is_stmt 1 discriminator 1 view .LVU439
	.loc 1 871 8 discriminator 1 view .LVU440
	.loc 1 871 20 discriminator 1 view .LVU441
	ldr	r2, .L160
.LVL122:
	.loc 1 871 20 is_stmt 0 discriminator 1 view .LVU442
	ldr	r1, .L160+4
	ldr	r0, .L160+8
.LVL123:
	.loc 1 871 20 discriminator 1 view .LVU443
	movw	r3, #871
	bl	assert_print
.LVL124:
	.loc 1 871 148 is_stmt 1 discriminator 1 view .LVU444
	.loc 1 871 153 discriminator 1 view .LVU445
	.syntax unified
@ 871 "/home/g/mise-work/zmk-firmware/zmk/zephyr/subsys/bluetooth/controller/ll_sw/ull_llcp_phy.c" 1
	eors.n r0, r0
	msr BASEPRI, r0
	mov r0, #3
	svc #2
	
@ 0 "" 2
	.loc 1 871 151 discriminator 1 view .LVU446
	.loc 1 871 6 discriminator 1 view .LVU447
	.loc 1 873 1 is_stmt 0 discriminator 1 view .LVU448
	.thumb
	.syntax unified
	add	sp, sp, #8
	.cfi_remember_state
	.cfi_def_cfa_offset 16
	@ sp needed
	pop	{r4, r5, r6, pc}
.LVL125:
.L127:
	.cfi_restore_state
	.loc 1 840 3 is_stmt 1 view .LVU449
.LBB187:
.LBI187:
	.loc 1 629 13 view .LVU450
.LBB188:
	.loc 1 632 2 view .LVU451
	cmp	r2, #3
	bne	.L120
	.loc 1 634 3 view .LVU452
	.loc 1 634 20 is_stmt 0 view .LVU453
	ldrb	r3, [r0, #57]	@ zero_extendqisi2
	lsrs	r3, r3, #7
	bne	.L158
	.loc 1 653 4 is_stmt 1 view .LVU454
	.loc 1 653 9 view .LVU455
	.loc 1 653 21 view .LVU456
	ldr	r2, .L160
.LVL126:
	.loc 1 653 21 is_stmt 0 view .LVU457
	ldr	r1, .L160+4
	ldr	r0, .L160+8
.LVL127:
	.loc 1 653 21 view .LVU458
	movw	r3, #653
	bl	assert_print
.LVL128:
	.loc 1 653 149 is_stmt 1 view .LVU459
	.loc 1 653 154 view .LVU460
	.syntax unified
@ 653 "/home/g/mise-work/zmk-firmware/zmk/zephyr/subsys/bluetooth/controller/ll_sw/ull_llcp_phy.c" 1
	eors.n r0, r0
	msr BASEPRI, r0
	mov r0, #3
	svc #2
	
@ 0 "" 2
	.thumb
	.syntax unified
	b	.L120
.LVL129:
.L126:
	.loc 1 653 154 is_stmt 0 view .LVU461
.LBE188:
.LBE187:
	.loc 1 855 3 is_stmt 1 view .LVU462
.LBB200:
.LBI200:
	.loc 1 713 13 view .LVU463
.LBB201:
	.loc 1 716 2 view .LVU464
	cmp	r2, #5
	beq	.L133
	cmp	r2, #6
	beq	.L134
	cmp	r2, #2
	bne	.L120
.LBB202:
	.loc 1 718 3 view .LVU465
	.loc 1 718 8 view .LVU466
	.loc 1 718 11 is_stmt 0 view .LVU467
	ldrsb	r3, [r0, #57]
	cmp	r3, #0
	blt	.L137
	.loc 1 718 41 is_stmt 1 view .LVU468
	ldr	r2, .L160
.LVL130:
	.loc 1 718 41 is_stmt 0 view .LVU469
	ldr	r1, .L160+12
	ldr	r0, .L160+8
.LVL131:
	.loc 1 718 41 view .LVU470
	movw	r3, #718
	bl	assert_print
.LVL132:
	.loc 1 718 190 is_stmt 1 view .LVU471
	.loc 1 718 195 view .LVU472
	.syntax unified
@ 718 "/home/g/mise-work/zmk-firmware/zmk/zephyr/subsys/bluetooth/controller/ll_sw/ull_llcp_phy.c" 1
	eors.n r0, r0
	msr BASEPRI, r0
	mov r0, #3
	svc #2
	
@ 0 "" 2
	.thumb
	.syntax unified
.L137:
	.loc 1 718 193 view .LVU473
	.loc 1 718 6 view .LVU474
	.loc 1 719 3 view .LVU475
	mov	r1, r5
	mov	r0, r4
	bl	llcp_pdu_decode_phy_update_ind
.LVL133:
	.loc 1 720 3 view .LVU476
	.loc 1 720 33 is_stmt 0 view .LVU477
	mov	r1, r4
	mov	r0, r6
	bl	pu_check_update_ind
.LVL134:
	mov	r5, r0
.LVL135:
	.loc 1 723 3 is_stmt 1 view .LVU478
	mov	r0, r4
	bl	llcp_rx_node_retain
.LVL136:
	.loc 1 725 3 view .LVU479
	.loc 1 725 6 is_stmt 0 view .LVU480
	cmp	r5, #0
	bne	.L138
	.loc 1 726 4 is_stmt 1 view .LVU481
	.loc 1 726 20 is_stmt 0 view .LVU482
	ldrb	r3, [r4, #53]	@ zero_extendqisi2
	.loc 1 726 7 view .LVU483
	cbz	r3, .L139
	.loc 1 728 5 is_stmt 1 view .LVU484
.LVL137:
.LBB203:
.LBI203:
	.loc 1 180 13 view .LVU485
.LBB204:
	.loc 1 182 2 view .LVU486
	.loc 1 184 2 view .LVU487
	.loc 1 184 19 is_stmt 0 view .LVU488
	ldrb	r2, [r6, #118]	@ zero_extendqisi2
	bfi	r2, r3, #4, #3
	strb	r2, [r6, #118]
.LVL138:
.L139:
	.loc 1 184 19 view .LVU489
.LBE204:
.LBE203:
	.loc 1 734 4 is_stmt 1 view .LVU490
	mov	r0, r6
	bl	llcp_lr_prt_stop
.LVL139:
	.loc 1 736 4 view .LVU491
	movs	r3, #8
.L140:
	.loc 1 736 15 is_stmt 0 view .LVU492
	strb	r3, [r4, #10]
	.loc 1 746 3 is_stmt 1 view .LVU493
	movs	r1, #2
.LVL140:
.L156:
	.loc 1 746 3 is_stmt 0 view .LVU494
	mov	r0, r6
.LBE202:
.LBE201:
.LBE200:
	.loc 1 873 1 view .LVU495
	add	sp, sp, #8
	.cfi_remember_state
	.cfi_def_cfa_offset 16
	@ sp needed
	pop	{r4, r5, r6, lr}
	.cfi_restore 14
	.cfi_restore 6
	.cfi_restore 5
	.cfi_restore 4
	.cfi_def_cfa_offset 0
.LVL141:
.LBB237:
.LBB234:
.LBB231:
	.loc 1 746 3 view .LVU496
	b	llcp_tx_resume_data
.LVL142:
.L125:
	.cfi_restore_state
	.loc 1 746 3 view .LVU497
.LBE231:
.LBE234:
.LBE237:
	.loc 1 866 3 is_stmt 1 view .LVU498
.LBB238:
.LBI238:
	.loc 1 816 13 view .LVU499
.LBB239:
	.loc 1 819 2 view .LVU500
	cmp	r2, #0
	bne	.L120
	.loc 1 821 3 view .LVU501
	mov	r1, r4
.LBE239:
.LBE238:
	.loc 1 873 1 is_stmt 0 view .LVU502
	add	sp, sp, #8
	.cfi_remember_state
	.cfi_def_cfa_offset 16
	@ sp needed
	pop	{r4, r5, r6, lr}
	.cfi_restore 14
	.cfi_restore 6
	.cfi_restore 5
	.cfi_restore 4
	.cfi_def_cfa_offset 0
.LVL143:
.LBB241:
.LBB240:
	.loc 1 821 3 view .LVU503
	b	lp_pu_tx.constprop.0
.LVL144:
.L124:
	.cfi_restore_state
	.loc 1 821 3 view .LVU504
.LBE240:
.LBE241:
	.loc 1 859 3 is_stmt 1 view .LVU505
.LBB242:
.LBI242:
	.loc 1 789 13 view .LVU506
.LBB243:
	.loc 1 792 2 view .LVU507
	cmp	r2, #0
	bne	.L120
	.loc 1 794 3 view .LVU508
.LVL145:
.LBB244:
.LBI244:
	.loc 1 772 13 view .LVU509
.LBB245:
	.loc 1 775 2 view .LVU510
	.loc 1 775 6 is_stmt 0 view .LVU511
	ldrh	r5, [r4, #50]
.LVL146:
	.loc 1 775 6 view .LVU512
	bl	ull_conn_event_counter
.LVL147:
	.loc 1 775 5 view .LVU513
	subs	r0, r0, r5
	lsls	r3, r0, #16
	bmi	.L120
.LBB246:
	.loc 1 776 3 is_stmt 1 view .LVU514
.LBB247:
.LBB248:
	.loc 1 247 12 is_stmt 0 view .LVU515
	ldrsb	r5, [r6, #57]
	.loc 1 233 28 view .LVU516
	ldrb	r0, [r6, #118]	@ zero_extendqisi2
	.loc 1 234 28 view .LVU517
	ldrb	r3, [r6, #119]	@ zero_extendqisi2
	ldrb	r2, [r4, #52]	@ zero_extendqisi2
	ldrb	r1, [r4, #53]	@ zero_extendqisi2
.LVL148:
	.loc 1 234 28 view .LVU518
.LBE248:
.LBI247:
	.loc 1 229 16 is_stmt 1 view .LVU519
.LBB249:
	.loc 1 231 2 view .LVU520
	.loc 1 232 2 view .LVU521
	.loc 1 233 2 view .LVU522
	.loc 1 247 12 is_stmt 0 view .LVU523
	cmp	r5, #0
	.loc 1 233 28 view .LVU524
	and	lr, r0, #7
.LVL149:
	.loc 1 234 2 is_stmt 1 view .LVU525
	.loc 1 234 28 is_stmt 0 view .LVU526
	and	ip, r3, #7
.LVL150:
	.loc 1 237 2 is_stmt 1 view .LVU527
	.loc 1 242 2 view .LVU528
	.loc 1 243 2 view .LVU529
	.loc 1 245 2 view .LVU530
	.loc 1 247 9 view .LVU531
	.loc 1 247 12 is_stmt 0 view .LVU532
	blt	.L159
.LVL151:
.L142:
	.loc 1 247 12 view .LVU533
.LBE249:
.LBE247:
	.loc 1 778 3 is_stmt 1 view .LVU534
	.loc 1 782 3 view .LVU535
	movs	r1, #0
	mov	r0, r6
	bl	llcp_rr_set_incompat
.LVL152:
	.loc 1 783 3 view .LVU536
	.loc 1 784 38 is_stmt 0 view .LVU537
	ldrb	r3, [r4, #40]	@ zero_extendqisi2
	.loc 1 783 22 view .LVU538
	movs	r2, #0
	strb	r2, [r4, #48]
	.loc 1 784 3 is_stmt 1 view .LVU539
	.loc 1 784 38 is_stmt 0 view .LVU540
	lsrs	r3, r3, #7
.LVL153:
.L146:
	.loc 1 784 23 view .LVU541
	ldrb	r2, [r4, #41]	@ zero_extendqisi2
	bfi	r2, r3, #0, #1
	strb	r2, [r4, #41]
	.loc 1 785 3 is_stmt 1 view .LVU542
.LVL154:
.LBB252:
.LBI252:
	.loc 1 516 13 view .LVU543
.LBB253:
	.loc 1 518 2 view .LVU544
.LBB254:
.LBI254:
	.loc 1 187 13 view .LVU545
.LBB255:
	.loc 1 189 2 view .LVU546
.LBB256:
.LBI256:
	.loc 1 180 13 view .LVU547
.LBB257:
	.loc 1 182 2 view .LVU548
	.loc 1 184 2 view .LVU549
.LBE257:
.LBE256:
	.loc 1 189 40 is_stmt 0 view .LVU550
	ldrb	r3, [r6, #118]	@ zero_extendqisi2
	ubfx	r2, r3, #0, #3
.LBB260:
.LBB258:
	.loc 1 184 19 view .LVU551
	bfi	r3, r2, #4, #3
.LBE258:
.LBE260:
.LBE255:
.LBE254:
	.loc 1 525 13 view .LVU552
	movs	r2, #9
.LBB263:
.LBB262:
.LBB261:
.LBB259:
	.loc 1 184 19 view .LVU553
	strb	r3, [r6, #118]
.LVL155:
	.loc 1 184 19 view .LVU554
.LBE259:
.LBE261:
.LBE262:
.LBE263:
	.loc 1 525 2 is_stmt 1 view .LVU555
	.loc 1 525 13 is_stmt 0 view .LVU556
	strb	r2, [r4, #10]
	.loc 1 526 1 view .LVU557
	b	.L120
.LVL156:
.L122:
	.loc 1 526 1 view .LVU558
.LBE253:
.LBE252:
.LBE246:
.LBE245:
.LBE244:
.LBE243:
.LBE242:
	.loc 1 862 3 is_stmt 1 view .LVU559
.LBB270:
.LBI270:
	.loc 1 802 13 view .LVU560
.LBB271:
	.loc 1 805 2 view .LVU561
	cmp	r2, #4
	bne	.L120
	.loc 1 807 3 view .LVU562
.LVL157:
.LBB272:
.LBI272:
	.loc 1 507 13 view .LVU563
.LBB273:
	.loc 1 509 2 view .LVU564
	mov	r1, r4
	bl	pu_ntf
.LVL158:
	.loc 1 511 2 view .LVU565
	mov	r1, r4
	mov	r0, r6
	bl	pu_dle_ntf
.LVL159:
	.loc 1 513 2 view .LVU566
.LBB274:
.LBI274:
	.loc 1 500 13 view .LVU567
.LBB275:
	.loc 1 502 2 view .LVU568
	mov	r0, r6
	bl	llcp_lr_complete
.LVL160:
	.loc 1 503 2 view .LVU569
	movs	r1, #0
	mov	r0, r6
	bl	llcp_rr_set_paused_cmd
.LVL161:
	.loc 1 504 2 view .LVU570
	.loc 1 504 13 is_stmt 0 view .LVU571
	movs	r3, #0
	strb	r3, [r4, #10]
	.loc 1 505 1 view .LVU572
	b	.L120
.LVL162:
.L157:
	.loc 1 505 1 view .LVU573
.LBE275:
.LBE274:
.LBE273:
.LBE272:
.LBE271:
.LBE270:
.LBB276:
.LBB185:
	.loc 1 565 3 is_stmt 1 view .LVU574
	mov	r1, r4
.LBE185:
.LBE276:
	.loc 1 873 1 is_stmt 0 view .LVU575
	add	sp, sp, #8
	.cfi_remember_state
	.cfi_def_cfa_offset 16
	@ sp needed
	pop	{r4, r5, r6, lr}
	.cfi_restore 14
	.cfi_restore 6
	.cfi_restore 5
	.cfi_restore 4
	.cfi_def_cfa_offset 0
.LVL163:
.LBB277:
.LBB186:
	.loc 1 565 3 view .LVU576
	b	lp_pu_send_phy_req.constprop.0.isra.0
.LVL164:
.L134:
	.cfi_restore_state
	.loc 1 565 3 view .LVU577
.LBE186:
.LBE277:
.LBB278:
.LBB235:
.LBB232:
	.loc 1 753 3 is_stmt 1 view .LVU578
	movs	r1, #0
	bl	llcp_rr_set_incompat
.LVL165:
	.loc 1 754 3 view .LVU579
	.loc 1 755 4 view .LVU580
.LBB205:
.LBI205:
	.file 2 "/home/g/mise-work/zmk-firmware/zmk/zephyr/subsys/bluetooth/controller/ll_sw/ull_llcp_features.h"
	.loc 2 7 20 view .LVU581
.LBB206:
	.loc 2 9 2 view .LVU582
	.loc 2 9 31 is_stmt 0 view .LVU583
	ldr	r3, [r6, #304]
.LBE206:
.LBE205:
	.loc 1 756 23 view .LVU584
	movs	r2, #26
.LBB208:
.LBB207:
	.loc 2 9 31 view .LVU585
	bic	r3, r3, #256
	str	r3, [r6, #304]
.LVL166:
	.loc 2 9 31 view .LVU586
.LBE207:
.LBE208:
	.loc 1 756 4 is_stmt 1 view .LVU587
	.loc 1 756 23 is_stmt 0 view .LVU588
	strb	r2, [r4, #48]
.L136:
	.loc 1 759 3 is_stmt 1 view .LVU589
	mov	r0, r4
	bl	llcp_rx_node_retain
.LVL167:
	.loc 1 761 3 view .LVU590
	.loc 1 761 23 is_stmt 0 view .LVU591
	ldrb	r3, [r4, #41]	@ zero_extendqisi2
	orr	r3, r3, #1
	strb	r3, [r4, #41]
	.loc 1 762 3 is_stmt 1 view .LVU592
.LVL168:
.LBB209:
.LBI209:
	.loc 1 516 13 view .LVU593
.LBB210:
	.loc 1 518 2 view .LVU594
.LBB211:
.LBI211:
	.loc 1 187 13 view .LVU595
.LBB212:
	.loc 1 189 2 view .LVU596
.LBB213:
.LBI213:
	.loc 1 180 13 view .LVU597
.LBB214:
	.loc 1 182 2 view .LVU598
	.loc 1 184 2 view .LVU599
.LBE214:
.LBE213:
	.loc 1 189 40 is_stmt 0 view .LVU600
	ldrb	r3, [r6, #118]	@ zero_extendqisi2
	ubfx	r2, r3, #0, #3
.LBB217:
.LBB215:
	.loc 1 184 19 view .LVU601
	bfi	r3, r2, #4, #3
.LBE215:
.LBE217:
.LBE212:
.LBE211:
	.loc 1 525 13 view .LVU602
	movs	r2, #9
.LBB220:
.LBB219:
.LBB218:
.LBB216:
	.loc 1 184 19 view .LVU603
	strb	r3, [r6, #118]
.LVL169:
	.loc 1 184 19 view .LVU604
.LBE216:
.LBE218:
.LBE219:
.LBE220:
	.loc 1 525 2 is_stmt 1 view .LVU605
.LBE210:
.LBE209:
	.loc 1 763 3 is_stmt 0 view .LVU606
	movs	r1, #2
.LBB222:
.LBB221:
	.loc 1 525 13 view .LVU607
	strb	r2, [r4, #10]
.LVL170:
	.loc 1 525 13 view .LVU608
.LBE221:
.LBE222:
	.loc 1 763 3 is_stmt 1 view .LVU609
	b	.L156
.LVL171:
.L133:
	.loc 1 749 3 view .LVU610
	mov	r1, r5
	mov	r0, r4
.LVL172:
	.loc 1 749 3 is_stmt 0 view .LVU611
	bl	llcp_pdu_decode_reject_ext_ind
.LVL173:
	.loc 1 750 3 is_stmt 1 view .LVU612
	.loc 1 750 22 is_stmt 0 view .LVU613
	ldrb	r3, [r4, #86]	@ zero_extendqisi2
	strb	r3, [r4, #48]
	.loc 1 753 3 is_stmt 1 view .LVU614
	movs	r1, #0
	mov	r0, r6
	bl	llcp_rr_set_incompat
.LVL174:
	.loc 1 754 3 view .LVU615
	b	.L136
.LVL175:
.L158:
	.loc 1 754 3 is_stmt 0 view .LVU616
.LBE232:
.LBE235:
.LBE278:
.LBB279:
.LBB199:
	.loc 1 644 4 is_stmt 1 view .LVU617
.LBB189:
.LBB190:
	.loc 1 171 10 is_stmt 0 view .LVU618
	ldr	r3, .L160+16
	.loc 1 174 35 view .LVU619
	ldrb	r2, [r0, #118]	@ zero_extendqisi2
.LVL176:
	.loc 1 171 10 view .LVU620
	ldm	r3, {r0, r1}
.LVL177:
	.loc 1 171 10 view .LVU621
.LBE190:
.LBE189:
	.loc 1 645 59 view .LVU622
	ldrb	r3, [r4, #40]	@ zero_extendqisi2
.LVL178:
.LBB193:
.LBI189:
	.loc 1 164 16 is_stmt 1 view .LVU623
.LBB191:
	.loc 1 171 2 view .LVU624
	.loc 1 176 20 is_stmt 0 view .LVU625
	orrs	r3, r3, r2
.LVL179:
	.loc 1 171 10 view .LVU626
	add	r5, sp, #8
.LVL180:
	.loc 1 176 20 view .LVU627
	and	r3, r3, #7
	.loc 1 171 10 view .LVU628
	stmdb	r5, {r0, r1}
	.loc 1 173 2 is_stmt 1 view .LVU629
.LVL181:
	.loc 1 174 2 view .LVU630
	.loc 1 176 2 view .LVU631
	.loc 1 176 20 is_stmt 0 view .LVU632
	adds	r3, r3, #8
	add	r3, sp, r3
.LBE191:
.LBE193:
	.loc 1 648 4 view .LVU633
	movs	r1, #2
.LBB194:
.LBB192:
	.loc 1 176 20 view .LVU634
	ldrb	r3, [r3, #-8]	@ zero_extendqisi2
.LVL182:
	.loc 1 176 20 view .LVU635
.LBE192:
.LBE194:
.LBB195:
.LBI195:
	.loc 1 180 13 is_stmt 1 view .LVU636
.LBB196:
	.loc 1 182 2 view .LVU637
	.loc 1 184 2 view .LVU638
	.loc 1 184 19 is_stmt 0 view .LVU639
	bfi	r2, r3, #4, #3
.LVL183:
	.loc 1 184 19 view .LVU640
.LBE196:
.LBE195:
	.loc 1 646 15 view .LVU641
	movw	r3, #6150
.LBB198:
.LBB197:
	.loc 1 184 19 view .LVU642
	strb	r2, [r6, #118]
.LVL184:
	.loc 1 184 19 view .LVU643
.LBE197:
.LBE198:
	.loc 1 646 4 is_stmt 1 view .LVU644
	.loc 1 647 4 view .LVU645
	.loc 1 646 15 is_stmt 0 view .LVU646
	strh	r3, [r4, #10]	@ movhi
	.loc 1 648 4 is_stmt 1 view .LVU647
	b	.L156
.LVL185:
.L138:
	.loc 1 648 4 is_stmt 0 view .LVU648
.LBE199:
.LBE279:
.LBB280:
.LBB236:
.LBB233:
	.loc 1 738 4 is_stmt 1 view .LVU649
	movs	r1, #0
	mov	r0, r6
	bl	llcp_rr_set_incompat
.LVL186:
	.loc 1 739 4 view .LVU650
	.loc 1 739 20 is_stmt 0 view .LVU651
	ldrb	r3, [r4, #48]	@ zero_extendqisi2
	.loc 1 739 7 view .LVU652
	cbz	r3, .L141
	.loc 1 741 5 is_stmt 1 view .LVU653
	.loc 1 741 39 is_stmt 0 view .LVU654
	strb	r3, [r6, #336]
.L141:
	.loc 1 743 4 is_stmt 1 view .LVU655
	.loc 1 743 38 is_stmt 0 view .LVU656
	ldrb	r3, [r4, #40]	@ zero_extendqisi2
	.loc 1 743 24 view .LVU657
	ldrb	r2, [r4, #41]	@ zero_extendqisi2
	lsrs	r3, r3, #7
	bfi	r2, r3, #0, #1
	strb	r2, [r4, #41]
	.loc 1 744 4 is_stmt 1 view .LVU658
.LVL187:
.LBB223:
.LBI223:
	.loc 1 516 13 view .LVU659
.LBB224:
	.loc 1 518 2 view .LVU660
.LBB225:
.LBI225:
	.loc 1 187 13 view .LVU661
.LBB226:
	.loc 1 189 2 view .LVU662
.LBB227:
.LBI227:
	.loc 1 180 13 view .LVU663
.LBB228:
	.loc 1 182 2 view .LVU664
	.loc 1 184 2 view .LVU665
.LBE228:
.LBE227:
	.loc 1 189 40 is_stmt 0 view .LVU666
	ldrb	r3, [r6, #118]	@ zero_extendqisi2
	ubfx	r2, r3, #0, #3
.LBB230:
.LBB229:
	.loc 1 184 19 view .LVU667
	bfi	r3, r2, #4, #3
	strb	r3, [r6, #118]
.LVL188:
	.loc 1 184 19 view .LVU668
.LBE229:
.LBE230:
.LBE226:
.LBE225:
	.loc 1 525 2 is_stmt 1 view .LVU669
	.loc 1 526 1 is_stmt 0 view .LVU670
	movs	r3, #9
	b	.L140
.LVL189:
.L159:
	.loc 1 526 1 view .LVU671
.LBE224:
.LBE223:
.LBE233:
.LBE236:
.LBE280:
.LBB281:
.LBB269:
.LBB268:
.LBB267:
.LBB266:
.LBB264:
.LBB250:
	.loc 1 248 3 is_stmt 1 view .LVU672
	.loc 1 248 6 is_stmt 0 view .LVU673
	ands	r1, r1, #3
	beq	.L143
	.loc 1 249 4 is_stmt 1 view .LVU674
	.loc 1 251 3 view .LVU675
	.loc 1 249 16 is_stmt 0 view .LVU676
	bfi	r0, r1, #0, #3
.LVL190:
	.loc 1 251 6 view .LVU677
	ands	r2, r2, #3
.LVL191:
	.loc 1 249 16 view .LVU678
	strb	r0, [r6, #118]
.LVL192:
	.loc 1 251 6 view .LVU679
	beq	.L144
	.loc 1 252 4 is_stmt 1 view .LVU680
	.loc 1 252 16 is_stmt 0 view .LVU681
	bfi	r3, r2, #0, #3
.LVL193:
	.loc 1 266 34 view .LVU682
	cmp	lr, r1
	.loc 1 252 16 view .LVU683
	strb	r3, [r6, #119]
.LVL194:
	.loc 1 266 2 is_stmt 1 view .LVU684
	.loc 1 266 34 is_stmt 0 view .LVU685
	beq	.L145
.L147:
.LVL195:
	.loc 1 266 34 view .LVU686
.LBE250:
.LBE264:
	.loc 1 778 3 is_stmt 1 view .LVU687
	.loc 1 779 4 view .LVU688
	.loc 1 779 27 is_stmt 0 view .LVU689
	mov	r1, r4
	mov	r0, r6
	bl	pu_update_eff_times
.LVL196:
	.loc 1 779 25 view .LVU690
	ldrb	r3, [r4, #41]	@ zero_extendqisi2
	bfi	r3, r0, #1, #1
	strb	r3, [r4, #41]
	.loc 1 782 3 is_stmt 1 view .LVU691
	movs	r1, #0
	mov	r0, r6
	bl	llcp_rr_set_incompat
.LVL197:
	.loc 1 783 3 view .LVU692
	.loc 1 783 22 is_stmt 0 view .LVU693
	movs	r3, #0
	strb	r3, [r4, #48]
	.loc 1 784 3 is_stmt 1 view .LVU694
	.loc 1 783 22 is_stmt 0 view .LVU695
	movs	r3, #1
	b	.L146
.LVL198:
.L143:
.LBB265:
.LBB251:
	.loc 1 251 3 is_stmt 1 view .LVU696
	.loc 1 251 6 is_stmt 0 view .LVU697
	ands	r2, r2, #3
.LVL199:
	.loc 1 251 6 view .LVU698
	beq	.L142
	.loc 1 252 4 is_stmt 1 view .LVU699
	.loc 1 252 16 is_stmt 0 view .LVU700
	bfi	r3, r2, #0, #3
.LVL200:
	.loc 1 252 16 view .LVU701
	strb	r3, [r6, #119]
.LVL201:
	.loc 1 266 2 is_stmt 1 view .LVU702
.L145:
	.loc 1 266 34 is_stmt 0 view .LVU703
	cmp	ip, r2
	bne	.L147
	b	.L142
.LVL202:
.L144:
	.loc 1 266 2 is_stmt 1 view .LVU704
	.loc 1 266 34 is_stmt 0 view .LVU705
	cmp	lr, r1
	bne	.L147
	b	.L142
.L161:
	.align	2
.L160:
	.word	.LC0
	.word	.LC6
	.word	.LC2
	.word	.LC8
	.word	.LANCHOR0
.LBE251:
.LBE265:
.LBE266:
.LBE267:
.LBE268:
.LBE269:
.LBE281:
	.cfi_endproc
.LFE549:
	.size	lp_pu_execute_fsm, .-lp_pu_execute_fsm
	.section	.text.rp_pu_execute_fsm,"ax",%progbits
	.align	1
	.p2align 2,,3
	.syntax unified
	.thumb
	.thumb_func
	.type	rp_pu_execute_fsm, %function
rp_pu_execute_fsm:
.LVL203:
.LFB570:
	.loc 1 1257 1 is_stmt 1 view -0
	.cfi_startproc
	@ args = 0, pretend = 0, frame = 8
	@ frame_needed = 0, uses_anonymous_args = 0
	.loc 1 1257 1 is_stmt 0 view .LVU707
	push	{r4, r5, r6, r7, lr}
	.cfi_def_cfa_offset 20
	.cfi_offset 4, -20
	.cfi_offset 5, -16
	.cfi_offset 6, -12
	.cfi_offset 7, -8
	.cfi_offset 14, -4
	mov	r4, r1
	.loc 1 1258 2 view .LVU708
	ldrb	r1, [r1, #10]	@ zero_extendqisi2
.LVL204:
	.loc 1 1257 1 view .LVU709
	sub	sp, sp, #12
	.cfi_def_cfa_offset 32
	.loc 1 1257 1 view .LVU710
	mov	r6, r0
	mov	r5, r2
	.loc 1 1258 2 is_stmt 1 view .LVU711
	cmp	r1, #9
	bhi	.L163
	tbb	[pc, r1]
.LVL205:
.L165:
	.byte	(.L172-.L165)/2
	.byte	(.L171-.L165)/2
	.byte	(.L170-.L165)/2
	.byte	(.L169-.L165)/2
	.byte	(.L163-.L165)/2
	.byte	(.L163-.L165)/2
	.byte	(.L168-.L165)/2
	.byte	(.L167-.L165)/2
	.byte	(.L166-.L165)/2
	.byte	(.L164-.L165)/2
	.p2align 1
.L164:
	.loc 1 1288 3 view .LVU712
.LBB337:
.LBI337:
	.loc 1 1228 13 view .LVU713
.LBB338:
	.loc 1 1231 2 view .LVU714
	cmp	r5, #4
	beq	.L198
.LVL206:
.L162:
	.loc 1 1231 2 is_stmt 0 view .LVU715
.LBE338:
.LBE337:
	.loc 1 1299 1 view .LVU716
	add	sp, sp, #12
	.cfi_remember_state
	.cfi_def_cfa_offset 20
	@ sp needed
	pop	{r4, r5, r6, r7, pc}
.LVL207:
.L163:
	.cfi_restore_state
	.loc 1 1297 3 is_stmt 1 discriminator 1 view .LVU717
	.loc 1 1297 8 discriminator 1 view .LVU718
	.loc 1 1297 20 discriminator 1 view .LVU719
	ldr	r2, .L202
	ldr	r1, .L202+4
	ldr	r0, .L202+8
.LVL208:
	.loc 1 1297 20 is_stmt 0 discriminator 1 view .LVU720
	movw	r3, #1297
.LVL209:
	.loc 1 1297 20 discriminator 1 view .LVU721
	bl	assert_print
.LVL210:
	.loc 1 1297 149 is_stmt 1 discriminator 1 view .LVU722
	.loc 1 1297 154 discriminator 1 view .LVU723
	.syntax unified
@ 1297 "/home/g/mise-work/zmk-firmware/zmk/zephyr/subsys/bluetooth/controller/ll_sw/ull_llcp_phy.c" 1
	eors.n r0, r0
	msr BASEPRI, r0
	mov r0, #3
	svc #2
	
@ 0 "" 2
	.loc 1 1297 152 discriminator 1 view .LVU724
	.loc 1 1297 6 discriminator 1 view .LVU725
	.loc 1 1299 1 is_stmt 0 discriminator 1 view .LVU726
	.thumb
	.syntax unified
	add	sp, sp, #12
	.cfi_remember_state
	.cfi_def_cfa_offset 20
	@ sp needed
	pop	{r4, r5, r6, r7, pc}
.LVL211:
.L172:
	.cfi_restore_state
	.loc 1 1260 3 is_stmt 1 view .LVU727
.LBB344:
.LBI344:
	.loc 1 1046 13 view .LVU728
.LBB345:
	.loc 1 1048 2 view .LVU729
	cmp	r5, #0
	bne	.L162
	.loc 1 1050 3 view .LVU730
	.loc 1 1050 14 is_stmt 0 view .LVU731
	movs	r3, #1
.LVL212:
	.loc 1 1050 14 view .LVU732
	strb	r3, [r4, #10]
	.loc 1 1051 3 is_stmt 1 view .LVU733
	b	.L162
.LVL213:
.L171:
	.loc 1 1051 3 is_stmt 0 view .LVU734
.LBE345:
.LBE344:
	.loc 1 1263 3 is_stmt 1 view .LVU735
.LBB346:
.LBI346:
	.loc 1 1058 13 view .LVU736
.LBB347:
	.loc 1 1061 2 view .LVU737
	mov	r1, r3
	mov	r0, r4
.LVL214:
	.loc 1 1061 2 is_stmt 0 view .LVU738
	bl	llcp_pdu_decode_phy_req
.LVL215:
	.loc 1 1063 2 is_stmt 1 view .LVU739
.LBB348:
.LBI348:
	.loc 1 333 20 view .LVU740
.LBB349:
	.loc 1 337 2 view .LVU741
	.loc 1 338 2 view .LVU742
	.loc 1 337 14 is_stmt 0 view .LVU743
	ldrb	r2, [r4, #40]	@ zero_extendqisi2
.LBE349:
.LBE348:
	.loc 1 1063 52 view .LVU744
	ldrb	r3, [r6, #404]	@ zero_extendqisi2
.LBB354:
.LBB350:
	.loc 1 337 14 view .LVU745
	ubfx	r0, r2, #3, #3
.LBE350:
.LBE354:
	.loc 1 1063 52 view .LVU746
	ubfx	r1, r3, #3, #3
.LBB355:
.LBB351:
	.loc 1 338 18 view .LVU747
	ands	r1, r1, r0
.LBE351:
.LBE355:
	.loc 1 1063 33 view .LVU748
	ubfx	r3, r3, #0, #3
.LBB356:
.LBB352:
	.loc 1 338 14 view .LVU749
	ubfx	r0, r2, #0, #3
	.loc 1 338 18 view .LVU750
	ands	r3, r3, r0
	orr	r3, r3, r1, lsl #3
	bic	r2, r2, #63
	orrs	r3, r3, r2
	strb	r3, [r4, #40]
.LVL216:
	.loc 1 351 2 is_stmt 1 view .LVU751
	.loc 1 351 5 is_stmt 0 view .LVU752
	ldrsb	r3, [r6, #57]
	cmp	r3, #0
	blt	.L175
	.loc 1 351 33 view .LVU753
	ldrb	r3, [r4, #40]	@ zero_extendqisi2
	.loc 1 351 29 view .LVU754
	tst	r3, #56
	bne	.L199
.L176:
	.loc 1 352 3 is_stmt 1 view .LVU755
	.loc 1 353 3 view .LVU756
	.loc 1 352 19 is_stmt 0 view .LVU757
	ldrb	r3, [r4, #40]	@ zero_extendqisi2
	bic	r3, r3, #63
	strb	r3, [r4, #40]
.L175:
.LVL217:
	.loc 1 352 19 view .LVU758
.LBE352:
.LBE356:
	.loc 1 1064 2 is_stmt 1 view .LVU759
	movs	r1, #2
	mov	r0, r6
	bl	llcp_tx_pause_data
.LVL218:
	.loc 1 1066 2 view .LVU760
	cmp	r5, #1
	bne	.L162
	.loc 1 1068 3 view .LVU761
	.loc 1 1068 20 is_stmt 0 view .LVU762
	ldrb	r3, [r6, #57]	@ zero_extendqisi2
	lsrs	r3, r3, #7
	bne	.L179
	.loc 1 1083 4 is_stmt 1 view .LVU763
	.loc 1 1083 9 view .LVU764
	.loc 1 1083 21 view .LVU765
	ldr	r2, .L202
	ldr	r1, .L202+4
	ldr	r0, .L202+8
	movw	r3, #1083
	bl	assert_print
.LVL219:
	.loc 1 1083 150 view .LVU766
	.loc 1 1083 155 view .LVU767
	.syntax unified
@ 1083 "/home/g/mise-work/zmk-firmware/zmk/zephyr/subsys/bluetooth/controller/ll_sw/ull_llcp_phy.c" 1
	eors.n r0, r0
	msr BASEPRI, r0
	mov r0, #3
	svc #2
	
@ 0 "" 2
	.thumb
	.syntax unified
	b	.L162
.LVL220:
.L170:
	.loc 1 1083 155 is_stmt 0 view .LVU768
.LBE347:
.LBE346:
	.loc 1 1267 3 is_stmt 1 view .LVU769
.LBB361:
.LBI361:
	.loc 1 1093 13 view .LVU770
.LBB362:
	.loc 1 1096 2 view .LVU771
	cmp	r5, #0
	bne	.L162
.LVL221:
.L179:
	.loc 1 1096 2 is_stmt 0 view .LVU772
.LBE362:
.LBE361:
.LBB363:
.LBB358:
	.loc 1 1078 4 is_stmt 1 view .LVU773
	mov	r1, r4
	mov	r0, r6
.LBE358:
.LBE363:
	.loc 1 1299 1 is_stmt 0 view .LVU774
	add	sp, sp, #12
	.cfi_remember_state
	.cfi_def_cfa_offset 20
	@ sp needed
	pop	{r4, r5, r6, r7, lr}
	.cfi_restore 14
	.cfi_restore 7
	.cfi_restore 6
	.cfi_restore 5
	.cfi_restore 4
	.cfi_def_cfa_offset 0
.LVL222:
.LBB364:
.LBB359:
	.loc 1 1078 4 view .LVU775
	b	rp_pu_send_phy_rsp.isra.0
.LVL223:
.L169:
	.cfi_restore_state
	.loc 1 1078 4 view .LVU776
.LBE359:
.LBE364:
	.loc 1 1270 3 is_stmt 1 view .LVU777
.LBB365:
.LBI365:
	.loc 1 1107 13 view .LVU778
.LBB366:
	.loc 1 1110 2 view .LVU779
	cmp	r5, #2
	bne	.L162
	.loc 1 1112 3 view .LVU780
	.loc 1 1114 10 view .LVU781
	.loc 1 1115 4 view .LVU782
	.loc 1 1115 9 view .LVU783
	.loc 1 1115 12 is_stmt 0 view .LVU784
	ldrsb	r3, [r0, #57]
.LVL224:
	.loc 1 1115 12 view .LVU785
	cmp	r3, #0
	blt	.L180
	.loc 1 1115 42 is_stmt 1 view .LVU786
	ldr	r2, .L202
	ldr	r1, .L202+12
	ldr	r0, .L202+8
.LVL225:
	.loc 1 1115 42 is_stmt 0 view .LVU787
	movw	r3, #1115
	bl	assert_print
.LVL226:
	.loc 1 1115 192 is_stmt 1 view .LVU788
	.loc 1 1115 197 view .LVU789
	.syntax unified
@ 1115 "/home/g/mise-work/zmk-firmware/zmk/zephyr/subsys/bluetooth/controller/ll_sw/ull_llcp_phy.c" 1
	eors.n r0, r0
	msr BASEPRI, r0
	mov r0, #3
	svc #2
	
@ 0 "" 2
	.thumb
	.syntax unified
.L180:
	.loc 1 1115 195 view .LVU790
	.loc 1 1115 7 view .LVU791
	.loc 1 1117 4 view .LVU792
.LBB367:
.LBB368:
	.loc 1 171 10 is_stmt 0 view .LVU793
	ldr	r3, .L202+16
	.loc 1 174 35 view .LVU794
	ldrb	r2, [r6, #118]	@ zero_extendqisi2
	.loc 1 171 10 view .LVU795
	ldm	r3, {r0, r1}
.LBE368:
.LBE367:
	.loc 1 1118 59 view .LVU796
	ldrb	r3, [r4, #40]	@ zero_extendqisi2
.LVL227:
.LBB371:
.LBI367:
	.loc 1 164 16 is_stmt 1 view .LVU797
.LBB369:
	.loc 1 171 2 view .LVU798
	.loc 1 176 20 is_stmt 0 view .LVU799
	orrs	r3, r3, r2
.LVL228:
	.loc 1 171 10 view .LVU800
	add	r5, sp, #8
.LVL229:
	.loc 1 176 20 view .LVU801
	and	r3, r3, #7
	.loc 1 171 10 view .LVU802
	stmdb	r5, {r0, r1}
	.loc 1 173 2 is_stmt 1 view .LVU803
.LVL230:
	.loc 1 174 2 view .LVU804
	.loc 1 176 2 view .LVU805
	.loc 1 176 20 is_stmt 0 view .LVU806
	adds	r3, r3, #8
	add	r3, sp, r3
.LBE369:
.LBE371:
	.loc 1 1142 3 view .LVU807
	movs	r1, #2
.LBB372:
.LBB370:
	.loc 1 176 20 view .LVU808
	ldrb	r3, [r3, #-8]	@ zero_extendqisi2
.LVL231:
	.loc 1 176 20 view .LVU809
.LBE370:
.LBE372:
.LBB373:
.LBI373:
	.loc 1 180 13 is_stmt 1 view .LVU810
.LBB374:
	.loc 1 182 2 view .LVU811
	.loc 1 184 2 view .LVU812
.LBE374:
.LBE373:
	.loc 1 1142 3 is_stmt 0 view .LVU813
	mov	r0, r6
.LBB377:
.LBB375:
	.loc 1 184 19 view .LVU814
	bfi	r2, r3, #4, #3
.LVL232:
	.loc 1 184 19 view .LVU815
.LBE375:
.LBE377:
	.loc 1 1120 15 view .LVU816
	movs	r3, #6
.LBB378:
.LBB376:
	.loc 1 184 19 view .LVU817
	strb	r2, [r6, #118]
.LVL233:
	.loc 1 184 19 view .LVU818
.LBE376:
.LBE378:
	.loc 1 1120 4 is_stmt 1 view .LVU819
	.loc 1 1120 15 is_stmt 0 view .LVU820
	strb	r3, [r4, #10]
	.loc 1 1141 3 is_stmt 1 view .LVU821
	.loc 1 1142 3 view .LVU822
.LBE366:
.LBE365:
	.loc 1 1299 1 is_stmt 0 view .LVU823
	add	sp, sp, #12
	.cfi_remember_state
	.cfi_def_cfa_offset 20
	@ sp needed
	pop	{r4, r5, r6, r7, lr}
	.cfi_restore 14
	.cfi_restore 7
	.cfi_restore 6
	.cfi_restore 5
	.cfi_restore 4
	.cfi_def_cfa_offset 0
.LVL234:
.LBB380:
.LBB379:
	.loc 1 1142 3 view .LVU824
	b	llcp_tx_resume_data
.LVL235:
.L168:
	.cfi_restore_state
	.loc 1 1142 3 view .LVU825
.LBE379:
.LBE380:
	.loc 1 1273 3 is_stmt 1 view .LVU826
.LBB381:
.LBI381:
	.loc 1 1166 13 view .LVU827
.LBB382:
	.loc 1 1169 2 view .LVU828
	cmp	r5, #3
	bne	.L162
.LBB383:
	.loc 1 1171 3 view .LVU829
	mov	r1, r3
	mov	r0, r4
.LVL236:
	.loc 1 1171 3 is_stmt 0 view .LVU830
	bl	llcp_pdu_decode_phy_update_ind
.LVL237:
	.loc 1 1172 3 is_stmt 1 view .LVU831
	.loc 1 1172 33 is_stmt 0 view .LVU832
	mov	r1, r4
	mov	r0, r6
	bl	pu_check_update_ind
.LVL238:
	mov	r5, r0
.LVL239:
	.loc 1 1175 3 is_stmt 1 view .LVU833
	mov	r0, r4
	bl	llcp_rx_node_retain
.LVL240:
	.loc 1 1177 3 view .LVU834
	.loc 1 1177 6 is_stmt 0 view .LVU835
	cmp	r5, #0
	beq	.L200
	.loc 1 1184 4 is_stmt 1 view .LVU836
	.loc 1 1184 7 is_stmt 0 view .LVU837
	ldrb	r3, [r4, #48]	@ zero_extendqisi2
	cmp	r3, #40
	bne	.L197
	.loc 1 1186 5 is_stmt 1 view .LVU838
	.loc 1 1186 39 is_stmt 0 view .LVU839
	strb	r3, [r6, #336]
	b	.L197
.LVL241:
.L167:
	.loc 1 1186 39 view .LVU840
.LBE383:
.LBE382:
.LBE381:
	.loc 1 1292 3 is_stmt 1 view .LVU841
.LBB386:
.LBI386:
	.loc 1 1242 13 view .LVU842
.LBB387:
	.loc 1 1245 2 view .LVU843
	cmp	r5, #0
	bne	.L162
	.loc 1 1247 3 view .LVU844
	mov	r1, r4
.LBE387:
.LBE386:
	.loc 1 1299 1 is_stmt 0 view .LVU845
	add	sp, sp, #12
	.cfi_remember_state
	.cfi_def_cfa_offset 20
	@ sp needed
	pop	{r4, r5, r6, r7, lr}
	.cfi_restore 14
	.cfi_restore 7
	.cfi_restore 6
	.cfi_restore 5
	.cfi_restore 4
	.cfi_def_cfa_offset 0
.LVL242:
.LBB389:
.LBB388:
	.loc 1 1247 3 view .LVU846
	b	rp_pu_tx.constprop.0
.LVL243:
.L166:
	.cfi_restore_state
	.loc 1 1247 3 view .LVU847
.LBE388:
.LBE389:
	.loc 1 1285 3 is_stmt 1 view .LVU848
.LBB390:
.LBI390:
	.loc 1 1215 13 view .LVU849
.LBB391:
	.loc 1 1218 2 view .LVU850
	cmp	r5, #0
	bne	.L162
	.loc 1 1220 3 view .LVU851
.LVL244:
.LBB392:
.LBI392:
	.loc 1 1198 13 view .LVU852
.LBB393:
	.loc 1 1201 2 view .LVU853
	.loc 1 1201 6 is_stmt 0 view .LVU854
	ldrh	r7, [r4, #50]
	bl	ull_conn_event_counter
.LVL245:
	.loc 1 1201 5 view .LVU855
	subs	r0, r0, r7
	lsls	r3, r0, #16
	bmi	.L162
.LBB394:
	.loc 1 1202 3 is_stmt 1 view .LVU856
	.loc 1 1202 22 is_stmt 0 view .LVU857
	strb	r5, [r4, #48]
	.loc 1 1203 3 is_stmt 1 view .LVU858
.LBB395:
.LBB396:
	.loc 1 247 12 is_stmt 0 view .LVU859
	ldrsb	r5, [r6, #57]
.LVL246:
	.loc 1 233 28 view .LVU860
	ldrb	r0, [r6, #118]	@ zero_extendqisi2
	.loc 1 234 28 view .LVU861
	ldrb	r3, [r6, #119]	@ zero_extendqisi2
	ldrb	r2, [r4, #52]	@ zero_extendqisi2
	ldrb	r1, [r4, #53]	@ zero_extendqisi2
.LVL247:
	.loc 1 234 28 view .LVU862
.LBE396:
.LBI395:
	.loc 1 229 16 is_stmt 1 view .LVU863
.LBB397:
	.loc 1 231 2 view .LVU864
	.loc 1 232 2 view .LVU865
	.loc 1 233 2 view .LVU866
	.loc 1 247 12 is_stmt 0 view .LVU867
	cmp	r5, #0
	.loc 1 233 28 view .LVU868
	and	ip, r0, #7
.LVL248:
	.loc 1 234 2 is_stmt 1 view .LVU869
	.loc 1 234 28 is_stmt 0 view .LVU870
	and	r7, r3, #7
.LVL249:
	.loc 1 237 2 is_stmt 1 view .LVU871
	.loc 1 242 2 view .LVU872
	.loc 1 243 2 view .LVU873
	.loc 1 245 2 view .LVU874
	.loc 1 247 9 view .LVU875
	.loc 1 247 12 is_stmt 0 view .LVU876
	blt	.L201
.LVL250:
.L183:
	.loc 1 247 12 view .LVU877
.LBE397:
.LBE395:
.LBE394:
.LBE393:
.LBE392:
.LBE391:
.LBE390:
	.loc 1 1257 1 view .LVU878
	movs	r2, #0
.LVL251:
.L187:
.LBB422:
.LBB420:
.LBB418:
.LBB416:
.LBB414:
	.loc 1 1210 3 is_stmt 1 view .LVU879
	.loc 1 1210 23 is_stmt 0 view .LVU880
	ldrb	r3, [r4, #41]	@ zero_extendqisi2
	bfi	r3, r2, #0, #1
	strb	r3, [r4, #41]
.LVL252:
.L197:
	.loc 1 1211 3 is_stmt 1 view .LVU881
.LBB400:
.LBI400:
	.loc 1 993 13 view .LVU882
.LBB401:
	.loc 1 995 2 view .LVU883
.LBB402:
.LBI402:
	.loc 1 187 13 view .LVU884
.LBB403:
	.loc 1 189 2 view .LVU885
.LBB404:
.LBI404:
	.loc 1 180 13 view .LVU886
.LBB405:
	.loc 1 182 2 view .LVU887
	.loc 1 184 2 view .LVU888
.LBE405:
.LBE404:
	.loc 1 189 40 is_stmt 0 view .LVU889
	ldrb	r3, [r6, #118]	@ zero_extendqisi2
	ubfx	r2, r3, #0, #3
.LBB408:
.LBB406:
	.loc 1 184 19 view .LVU890
	bfi	r3, r2, #4, #3
.LBE406:
.LBE408:
.LBE403:
.LBE402:
	.loc 1 1001 13 view .LVU891
	movs	r2, #9
.LBB411:
.LBB410:
.LBB409:
.LBB407:
	.loc 1 184 19 view .LVU892
	strb	r3, [r6, #118]
.LVL253:
	.loc 1 184 19 view .LVU893
.LBE407:
.LBE409:
.LBE410:
.LBE411:
	.loc 1 1001 2 is_stmt 1 view .LVU894
	.loc 1 1001 13 is_stmt 0 view .LVU895
	strb	r2, [r4, #10]
	.loc 1 1002 1 view .LVU896
	b	.L162
.LVL254:
.L199:
	.loc 1 1002 1 view .LVU897
.LBE401:
.LBE400:
.LBE414:
.LBE416:
.LBE418:
.LBE420:
.LBE422:
.LBB423:
.LBB360:
.LBB357:
.LBB353:
	.loc 1 351 50 view .LVU898
	lsls	r2, r3, #29
	bne	.L175
	b	.L176
.LVL255:
.L198:
	.loc 1 351 50 view .LVU899
.LBE353:
.LBE357:
.LBE360:
.LBE423:
.LBB424:
.LBB343:
	.loc 1 1233 3 is_stmt 1 view .LVU900
.LBB339:
.LBI339:
	.loc 1 1004 13 view .LVU901
.LBB340:
	.loc 1 1006 2 view .LVU902
	mov	r1, r4
	bl	pu_ntf
.LVL256:
	.loc 1 1008 2 view .LVU903
	mov	r1, r4
	mov	r0, r6
	bl	pu_dle_ntf
.LVL257:
	.loc 1 1010 2 view .LVU904
.LBB341:
.LBI341:
	.loc 1 986 13 view .LVU905
.LBB342:
	.loc 1 988 2 view .LVU906
	mov	r0, r6
	bl	llcp_rr_complete
.LVL258:
	.loc 1 989 2 view .LVU907
	movs	r1, #0
	mov	r0, r6
	bl	llcp_rr_set_paused_cmd
.LVL259:
	.loc 1 990 2 view .LVU908
	.loc 1 990 13 is_stmt 0 view .LVU909
	movs	r3, #0
	strb	r3, [r4, #10]
	.loc 1 991 1 view .LVU910
	b	.L162
.LVL260:
.L200:
	.loc 1 991 1 view .LVU911
.LBE342:
.LBE341:
.LBE340:
.LBE339:
.LBE343:
.LBE424:
.LBB425:
.LBB385:
.LBB384:
	.loc 1 1181 4 is_stmt 1 view .LVU912
	mov	r0, r6
	bl	llcp_rr_prt_stop
.LVL261:
	.loc 1 1182 4 view .LVU913
	.loc 1 1182 15 is_stmt 0 view .LVU914
	movs	r3, #8
	strb	r3, [r4, #10]
	b	.L162
.LVL262:
.L201:
	.loc 1 1182 15 view .LVU915
.LBE384:
.LBE385:
.LBE425:
.LBB426:
.LBB421:
.LBB419:
.LBB417:
.LBB415:
.LBB412:
.LBB398:
	.loc 1 248 3 is_stmt 1 view .LVU916
	.loc 1 248 6 is_stmt 0 view .LVU917
	ands	r1, r1, #3
	beq	.L184
	.loc 1 249 4 is_stmt 1 view .LVU918
	.loc 1 251 3 view .LVU919
	.loc 1 249 16 is_stmt 0 view .LVU920
	bfi	r0, r1, #0, #3
.LVL263:
	.loc 1 251 6 view .LVU921
	ands	r2, r2, #3
.LVL264:
	.loc 1 249 16 view .LVU922
	strb	r0, [r6, #118]
.LVL265:
	.loc 1 251 6 view .LVU923
	beq	.L185
	.loc 1 252 4 is_stmt 1 view .LVU924
	.loc 1 252 16 is_stmt 0 view .LVU925
	bfi	r3, r2, #0, #3
.LVL266:
	.loc 1 266 34 view .LVU926
	cmp	ip, r1
	.loc 1 252 16 view .LVU927
	strb	r3, [r6, #119]
.LVL267:
	.loc 1 266 2 is_stmt 1 view .LVU928
	.loc 1 266 34 is_stmt 0 view .LVU929
	beq	.L186
.L188:
.LVL268:
	.loc 1 266 34 view .LVU930
.LBE398:
.LBE412:
	.loc 1 1205 3 is_stmt 1 view .LVU931
	.loc 1 1206 4 view .LVU932
	.loc 1 1206 27 is_stmt 0 view .LVU933
	mov	r1, r4
	mov	r0, r6
	bl	pu_update_eff_times
.LVL269:
	.loc 1 1206 25 view .LVU934
	ldrb	r3, [r4, #41]	@ zero_extendqisi2
	bfi	r3, r0, #1, #1
	movs	r2, #1
	strb	r3, [r4, #41]
	b	.L187
.LVL270:
.L184:
.LBB413:
.LBB399:
	.loc 1 251 3 is_stmt 1 view .LVU935
	.loc 1 251 6 is_stmt 0 view .LVU936
	ands	r2, r2, #3
.LVL271:
	.loc 1 251 6 view .LVU937
	beq	.L183
	.loc 1 252 4 is_stmt 1 view .LVU938
	.loc 1 252 16 is_stmt 0 view .LVU939
	bfi	r3, r2, #0, #3
.LVL272:
	.loc 1 252 16 view .LVU940
	strb	r3, [r6, #119]
.LVL273:
	.loc 1 266 2 is_stmt 1 view .LVU941
.L186:
	.loc 1 266 34 is_stmt 0 view .LVU942
	cmp	r7, r2
	bne	.L188
	b	.L183
.LVL274:
.L185:
	.loc 1 266 2 is_stmt 1 view .LVU943
	.loc 1 266 34 is_stmt 0 view .LVU944
	cmp	ip, r1
	bne	.L188
	b	.L183
.L203:
	.align	2
.L202:
	.word	.LC0
	.word	.LC6
	.word	.LC2
	.word	.LC8
	.word	.LANCHOR0
.LBE399:
.LBE413:
.LBE415:
.LBE417:
.LBE419:
.LBE421:
.LBE426:
	.cfi_endproc
.LFE570:
	.size	rp_pu_execute_fsm, .-rp_pu_execute_fsm
	.section	.text.llcp_lp_pu_rx,"ax",%progbits
	.align	1
	.p2align 2,,3
	.global	llcp_lp_pu_rx
	.syntax unified
	.thumb
	.thumb_func
	.type	llcp_lp_pu_rx, %function
llcp_lp_pu_rx:
.LVL275:
.LFB550:
	.loc 1 876 1 is_stmt 1 view -0
	.cfi_startproc
	@ args = 0, pretend = 0, frame = 0
	@ frame_needed = 0, uses_anonymous_args = 0
	.loc 1 877 2 view .LVU946
	.loc 1 879 21 is_stmt 0 view .LVU947
	ldrb	ip, [r2, #31]	@ zero_extendqisi2
	.loc 1 879 2 view .LVU948
	cmp	ip, #17
	.loc 1 877 19 view .LVU949
	add	r3, r2, #28
.LVL276:
	.loc 1 879 2 is_stmt 1 view .LVU950
	beq	.L205
	cmp	ip, #24
	beq	.L206
	cmp	ip, #7
	beq	.L212
	.loc 1 876 1 is_stmt 0 view .LVU951
	push	{r4, lr}
	.cfi_def_cfa_offset 8
	.cfi_offset 4, -8
	.cfi_offset 14, -4
	.loc 1 899 37 view .LVU952
	movs	r3, #36
.LVL277:
	.loc 1 899 37 view .LVU953
	mov	r4, r1
	.loc 1 899 3 is_stmt 1 view .LVU954
	.loc 1 899 37 is_stmt 0 view .LVU955
	strb	r3, [r0, #336]
	.loc 1 900 3 is_stmt 1 view .LVU956
	bl	llcp_lr_complete
.LVL278:
	.loc 1 901 3 view .LVU957
	.loc 1 901 14 is_stmt 0 view .LVU958
	movs	r3, #0
	strb	r3, [r4, #10]
	.loc 1 902 3 is_stmt 1 view .LVU959
	.loc 1 904 1 is_stmt 0 view .LVU960
	pop	{r4, pc}
.LVL279:
.L205:
	.cfi_def_cfa_offset 0
	.cfi_restore 4
	.cfi_restore 14
	.loc 1 894 3 is_stmt 1 view .LVU961
	movs	r2, #5
.LVL280:
	.loc 1 894 3 is_stmt 0 view .LVU962
	b	lp_pu_execute_fsm
.LVL281:
.L212:
	.loc 1 891 3 is_stmt 1 view .LVU963
	movs	r2, #6
.LVL282:
	.loc 1 891 3 is_stmt 0 view .LVU964
	b	lp_pu_execute_fsm
.LVL283:
.L206:
	.loc 1 887 3 is_stmt 1 view .LVU965
	movs	r2, #2
.LVL284:
	.loc 1 887 3 is_stmt 0 view .LVU966
	b	lp_pu_execute_fsm
.LVL285:
	.loc 1 887 3 view .LVU967
	.cfi_endproc
.LFE550:
	.size	llcp_lp_pu_rx, .-llcp_lp_pu_rx
	.section	.text.llcp_lp_pu_init_proc,"ax",%progbits
	.align	1
	.p2align 2,,3
	.global	llcp_lp_pu_init_proc
	.syntax unified
	.thumb
	.thumb_func
	.type	llcp_lp_pu_init_proc, %function
llcp_lp_pu_init_proc:
.LVL286:
.LFB551:
	.loc 1 907 1 is_stmt 1 view -0
	.cfi_startproc
	@ args = 0, pretend = 0, frame = 0
	@ frame_needed = 0, uses_anonymous_args = 0
	@ link register save eliminated.
	.loc 1 908 2 view .LVU969
	.loc 1 908 13 is_stmt 0 view .LVU970
	movs	r3, #0
	strb	r3, [r0, #10]
	.loc 1 909 1 view .LVU971
	bx	lr
	.cfi_endproc
.LFE551:
	.size	llcp_lp_pu_init_proc, .-llcp_lp_pu_init_proc
	.section	.text.llcp_lp_pu_run,"ax",%progbits
	.align	1
	.p2align 2,,3
	.global	llcp_lp_pu_run
	.syntax unified
	.thumb
	.thumb_func
	.type	llcp_lp_pu_run, %function
llcp_lp_pu_run:
.LVL287:
.LFB552:
	.loc 1 912 1 is_stmt 1 view -0
	.cfi_startproc
	@ args = 0, pretend = 0, frame = 0
	@ frame_needed = 0, uses_anonymous_args = 0
	@ link register save eliminated.
	.loc 1 913 2 view .LVU973
	.loc 1 912 1 is_stmt 0 view .LVU974
	mov	r3, r2
	.loc 1 913 2 view .LVU975
	movs	r2, #0
.LVL288:
	.loc 1 913 2 view .LVU976
	b	lp_pu_execute_fsm
.LVL289:
	.loc 1 913 2 view .LVU977
	.cfi_endproc
.LFE552:
	.size	llcp_lp_pu_run, .-llcp_lp_pu_run
	.section	.text.llcp_lp_pu_tx_ack,"ax",%progbits
	.align	1
	.p2align 2,,3
	.global	llcp_lp_pu_tx_ack
	.syntax unified
	.thumb
	.thumb_func
	.type	llcp_lp_pu_tx_ack, %function
llcp_lp_pu_tx_ack:
.LVL290:
.LFB553:
	.loc 1 917 1 is_stmt 1 view -0
	.cfi_startproc
	@ args = 0, pretend = 0, frame = 0
	@ frame_needed = 0, uses_anonymous_args = 0
	@ link register save eliminated.
	.loc 1 918 2 view .LVU979
	.loc 1 917 1 is_stmt 0 view .LVU980
	mov	r3, r2
	.loc 1 918 2 view .LVU981
	movs	r2, #3
.LVL291:
	.loc 1 918 2 view .LVU982
	b	lp_pu_execute_fsm
.LVL292:
	.loc 1 918 2 view .LVU983
	.cfi_endproc
.LFE553:
	.size	llcp_lp_pu_tx_ack, .-llcp_lp_pu_tx_ack
	.section	.text.llcp_lp_pu_tx_ntf,"ax",%progbits
	.align	1
	.p2align 2,,3
	.global	llcp_lp_pu_tx_ntf
	.syntax unified
	.thumb
	.thumb_func
	.type	llcp_lp_pu_tx_ntf, %function
llcp_lp_pu_tx_ntf:
.LVL293:
.LFB554:
	.loc 1 922 1 is_stmt 1 view -0
	.cfi_startproc
	@ args = 0, pretend = 0, frame = 0
	@ frame_needed = 0, uses_anonymous_args = 0
	@ link register save eliminated.
	.loc 1 923 2 view .LVU985
	movs	r3, #0
	movs	r2, #4
	b	lp_pu_execute_fsm
.LVL294:
	.loc 1 923 2 is_stmt 0 view .LVU986
	.cfi_endproc
.LFE554:
	.size	llcp_lp_pu_tx_ntf, .-llcp_lp_pu_tx_ntf
	.section	.text.llcp_lp_pu_awaiting_instant,"ax",%progbits
	.align	1
	.p2align 2,,3
	.global	llcp_lp_pu_awaiting_instant
	.syntax unified
	.thumb
	.thumb_func
	.type	llcp_lp_pu_awaiting_instant, %function
llcp_lp_pu_awaiting_instant:
.LVL295:
.LFB555:
	.loc 1 927 1 is_stmt 1 view -0
	.cfi_startproc
	@ args = 0, pretend = 0, frame = 0
	@ frame_needed = 0, uses_anonymous_args = 0
	@ link register save eliminated.
	.loc 1 928 2 view .LVU988
	.loc 1 928 21 is_stmt 0 view .LVU989
	ldrb	r0, [r0, #10]	@ zero_extendqisi2
.LVL296:
	.loc 1 929 1 view .LVU990
	sub	r0, #8
	clz	r0, r0
	lsrs	r0, r0, #5
	bx	lr
	.cfi_endproc
.LFE555:
	.size	llcp_lp_pu_awaiting_instant, .-llcp_lp_pu_awaiting_instant
	.section	.text.llcp_rp_pu_rx,"ax",%progbits
	.align	1
	.p2align 2,,3
	.global	llcp_rp_pu_rx
	.syntax unified
	.thumb
	.thumb_func
	.type	llcp_rp_pu_rx, %function
llcp_rp_pu_rx:
.LVL297:
.LFB571:
	.loc 1 1302 1 is_stmt 1 view -0
	.cfi_startproc
	@ args = 0, pretend = 0, frame = 0
	@ frame_needed = 0, uses_anonymous_args = 0
	.loc 1 1303 2 view .LVU992
	.loc 1 1302 1 is_stmt 0 view .LVU993
	push	{r4, lr}
	.cfi_def_cfa_offset 8
	.cfi_offset 4, -8
	.cfi_offset 14, -4
	.loc 1 1305 21 view .LVU994
	ldrb	lr, [r2, #31]	@ zero_extendqisi2
	.loc 1 1305 2 view .LVU995
	cmp	lr, #22
	.loc 1 1303 19 view .LVU996
	add	r3, r2, #28
.LVL298:
	.loc 1 1305 2 is_stmt 1 view .LVU997
	beq	.L219
	cmp	lr, #24
	beq	.L220
	.loc 1 1317 37 is_stmt 0 view .LVU998
	movs	r3, #36
.LVL299:
	.loc 1 1317 37 view .LVU999
	mov	r4, r1
	.loc 1 1317 3 is_stmt 1 view .LVU1000
	.loc 1 1317 37 is_stmt 0 view .LVU1001
	strb	r3, [r0, #336]
	.loc 1 1318 3 is_stmt 1 view .LVU1002
	bl	llcp_rr_complete
.LVL300:
	.loc 1 1319 3 view .LVU1003
	.loc 1 1319 14 is_stmt 0 view .LVU1004
	movs	r3, #0
	strb	r3, [r4, #10]
	.loc 1 1320 3 is_stmt 1 view .LVU1005
	.loc 1 1322 1 is_stmt 0 view .LVU1006
	pop	{r4, pc}
.LVL301:
.L219:
	.loc 1 1307 3 is_stmt 1 view .LVU1007
	.loc 1 1322 1 is_stmt 0 view .LVU1008
	pop	{r4, lr}
	.cfi_remember_state
	.cfi_restore 14
	.cfi_restore 4
	.cfi_def_cfa_offset 0
	.loc 1 1307 3 view .LVU1009
	movs	r2, #1
.LVL302:
	.loc 1 1307 3 view .LVU1010
	b	rp_pu_execute_fsm
.LVL303:
.L220:
	.cfi_restore_state
	.loc 1 1311 3 is_stmt 1 view .LVU1011
	.loc 1 1322 1 is_stmt 0 view .LVU1012
	pop	{r4, lr}
	.cfi_restore 14
	.cfi_restore 4
	.cfi_def_cfa_offset 0
	.loc 1 1311 3 view .LVU1013
	movs	r2, #3
.LVL304:
	.loc 1 1311 3 view .LVU1014
	b	rp_pu_execute_fsm
.LVL305:
	.loc 1 1311 3 view .LVU1015
	.cfi_endproc
.LFE571:
	.size	llcp_rp_pu_rx, .-llcp_rp_pu_rx
	.section	.text.llcp_rp_pu_init_proc,"ax",%progbits
	.align	1
	.p2align 2,,3
	.global	llcp_rp_pu_init_proc
	.syntax unified
	.thumb
	.thumb_func
	.type	llcp_rp_pu_init_proc, %function
llcp_rp_pu_init_proc:
.LFB580:
	.cfi_startproc
	.loc 1 1324 6 is_stmt 1 view -0
	@ args = 0, pretend = 0, frame = 0
	@ frame_needed = 0, uses_anonymous_args = 0
	@ link register save eliminated.
	movs	r3, #0
	strb	r3, [r0, #10]
	bx	lr
	.cfi_endproc
.LFE580:
	.size	llcp_rp_pu_init_proc, .-llcp_rp_pu_init_proc
	.section	.text.llcp_rp_pu_run,"ax",%progbits
	.align	1
	.p2align 2,,3
	.global	llcp_rp_pu_run
	.syntax unified
	.thumb
	.thumb_func
	.type	llcp_rp_pu_run, %function
llcp_rp_pu_run:
.LVL306:
.LFB573:
	.loc 1 1330 1 view -0
	.cfi_startproc
	@ args = 0, pretend = 0, frame = 0
	@ frame_needed = 0, uses_anonymous_args = 0
	@ link register save eliminated.
	.loc 1 1331 2 view .LVU1018
	.loc 1 1330 1 is_stmt 0 view .LVU1019
	mov	r3, r2
	.loc 1 1331 2 view .LVU1020
	movs	r2, #0
.LVL307:
	.loc 1 1331 2 view .LVU1021
	b	rp_pu_execute_fsm
.LVL308:
	.loc 1 1331 2 view .LVU1022
	.cfi_endproc
.LFE573:
	.size	llcp_rp_pu_run, .-llcp_rp_pu_run
	.section	.text.llcp_rp_pu_tx_ack,"ax",%progbits
	.align	1
	.p2align 2,,3
	.global	llcp_rp_pu_tx_ack
	.syntax unified
	.thumb
	.thumb_func
	.type	llcp_rp_pu_tx_ack, %function
llcp_rp_pu_tx_ack:
.LVL309:
.LFB574:
	.loc 1 1335 1 is_stmt 1 view -0
	.cfi_startproc
	@ args = 0, pretend = 0, frame = 0
	@ frame_needed = 0, uses_anonymous_args = 0
	@ link register save eliminated.
	.loc 1 1336 2 view .LVU1024
	.loc 1 1335 1 is_stmt 0 view .LVU1025
	mov	r3, r2
	.loc 1 1336 2 view .LVU1026
	movs	r2, #2
.LVL310:
	.loc 1 1336 2 view .LVU1027
	b	rp_pu_execute_fsm
.LVL311:
	.loc 1 1336 2 view .LVU1028
	.cfi_endproc
.LFE574:
	.size	llcp_rp_pu_tx_ack, .-llcp_rp_pu_tx_ack
	.section	.text.llcp_rp_pu_tx_ntf,"ax",%progbits
	.align	1
	.p2align 2,,3
	.global	llcp_rp_pu_tx_ntf
	.syntax unified
	.thumb
	.thumb_func
	.type	llcp_rp_pu_tx_ntf, %function
llcp_rp_pu_tx_ntf:
.LVL312:
.LFB575:
	.loc 1 1340 1 is_stmt 1 view -0
	.cfi_startproc
	@ args = 0, pretend = 0, frame = 0
	@ frame_needed = 0, uses_anonymous_args = 0
	@ link register save eliminated.
	.loc 1 1341 2 view .LVU1030
	movs	r3, #0
	movs	r2, #4
	b	rp_pu_execute_fsm
.LVL313:
	.loc 1 1341 2 is_stmt 0 view .LVU1031
	.cfi_endproc
.LFE575:
	.size	llcp_rp_pu_tx_ntf, .-llcp_rp_pu_tx_ntf
	.section	.text.llcp_rp_pu_awaiting_instant,"ax",%progbits
	.align	1
	.p2align 2,,3
	.global	llcp_rp_pu_awaiting_instant
	.syntax unified
	.thumb
	.thumb_func
	.type	llcp_rp_pu_awaiting_instant, %function
llcp_rp_pu_awaiting_instant:
.LFB582:
	.cfi_startproc
	.loc 1 1344 5 is_stmt 1 view -0
	@ args = 0, pretend = 0, frame = 0
	@ frame_needed = 0, uses_anonymous_args = 0
	@ link register save eliminated.
	ldrb	r0, [r0, #10]	@ zero_extendqisi2
	sub	r0, #8
	clz	r0, r0
	lsrs	r0, r0, #5
	bx	lr
	.cfi_endproc
.LFE582:
	.size	llcp_rp_pu_awaiting_instant, .-llcp_rp_pu_awaiting_instant
	.section	.rodata
	.align	2
	.set	.LANCHOR0,. + 0
.LC7:
	.ascii	"\000\001\002\001\004\004\004\004"
	.text
.Letext0:
	.file 3 "/home/g/zephyr-sdk-0.16.3/arm-zephyr-eabi/picolibc/include/machine/_default_types.h"
	.file 4 "/home/g/zephyr-sdk-0.16.3/arm-zephyr-eabi/picolibc/include/sys/_stdint.h"
	.file 5 "/home/g/mise-work/zmk-firmware/zmk/zephyr/include/zephyr/sys/slist.h"
	.file 6 "/home/g/mise-work/zmk-firmware/zmk/zephyr/subsys/bluetooth/controller/./hal/ccm.h"
	.file 7 "/home/g/mise-work/zmk-firmware/zmk/zephyr/subsys/bluetooth/controller/./util/memq.h"
	.file 8 "/home/g/mise-work/zmk-firmware/zmk/zephyr/subsys/bluetooth/controller/ll_sw/pdu_df.h"
	.file 9 "/home/g/mise-work/zmk-firmware/zmk/zephyr/subsys/bluetooth/controller/ll_sw/nordic/lll/pdu_vendor.h"
	.file 10 "/home/g/mise-work/zmk-firmware/zmk/zephyr/include/zephyr/fatal_types.h"
	.file 11 "/home/g/mise-work/zmk-firmware/zmk/zephyr/subsys/bluetooth/controller/ll_sw/pdu.h"
	.file 12 "/home/g/mise-work/zmk-firmware/zmk/zephyr/subsys/bluetooth/controller/ll_sw/lll.h"
	.file 13 "/home/g/mise-work/zmk-firmware/zmk/zephyr/subsys/bluetooth/controller/ll_sw/nordic/lll/lll_df_types.h"
	.file 14 "/home/g/mise-work/zmk-firmware/zmk/zephyr/subsys/bluetooth/controller/ll_sw/lll_conn.h"
	.file 15 "/home/g/mise-work/zmk-firmware/zmk/zephyr/subsys/bluetooth/controller/ll_sw/ull_tx_queue.h"
	.file 16 "/home/g/mise-work/zmk-firmware/zmk/zephyr/subsys/bluetooth/controller/ll_sw/ull_conn_types.h"
	.file 17 "/home/g/mise-work/zmk-firmware/zmk/zephyr/subsys/bluetooth/controller/ll_sw/ull_llcp_internal.h"
	.file 18 "/home/g/mise-work/zmk-firmware/zmk/zephyr/subsys/bluetooth/controller/ll_sw/ull_internal.h"
	.file 19 "/home/g/mise-work/zmk-firmware/zmk/zephyr/subsys/bluetooth/controller/ll_sw/ull_conn_internal.h"
	.file 20 "/home/g/mise-work/zmk-firmware/zmk/zephyr/include/zephyr/sys/__assert.h"