	.cpu cortex-m4
	.arch armv7e-m
	.fpu fpv4-sp-d16
	.eabi_attribute 27, 1
	.eabi_attribute 28, 1
	.eabi_attribute 20, 1
	.eabi_attribute 21, 1
	.eabi_attribute 23, 3
	.eabi_attribute 24, 1
	.eabi_attribute 25, 1
	.eabi_attribute 26, 1
	.eabi_attribute 30, 2
	.eabi_attribute 34, 1
	.eabi_attribute 38, 1
	.eabi_attribute 18, 4
	.file	"ull_llcp_local.c"
	.text
.Ltext0:
	.cfi_sections	.debug_frame
	.file 1 "/home/g/mise-work/zmk-firmware/zmk/zephyr/subsys/bluetooth/controller/ll_sw/ull_llcp_local.c"
	.section	.text.lr_dequeue,"ax",%progbits
	.align	1
	.p2align 2,,3
	.syntax unified
	.thumb
	.thumb_func
	.type	lr_dequeue, %function
lr_dequeue:
.LVL0:
.LFB505:
	.loc 1 141 1 view -0
	.cfi_startproc
	@ args = 0, pretend = 0, frame = 0
	@ frame_needed = 0, uses_anonymous_args = 0
	.loc 1 146 2 view .LVU1
	.loc 1 148 1 view .LVU2
.LBB191:
.LBI191:
	.loc 1 94 55 view .LVU3
.LBB192:
	.loc 1 96 1 view .LVU4
	.loc 1 98 2 view .LVU5
.LBE192:
.LBE191:
	.loc 1 141 1 is_stmt 0 view .LVU6
	push	{r4, r5, r6, lr}
	.cfi_def_cfa_offset 16
	.cfi_offset 4, -16
	.cfi_offset 5, -12
	.cfi_offset 6, -8
	.cfi_offset 14, -4
	.loc 1 141 1 view .LVU7
	mov	r4, r0
.LBB195:
.LBB193:
	.loc 1 98 6 view .LVU8
	bl	mayfly_is_running
.LVL1:
	.loc 1 98 5 view .LVU9
	cbz	r0, .L2
.LVL2:
	.loc 1 98 5 view .LVU10
.LBE193:
.LBE195:
	.loc 1 150 2 is_stmt 1 view .LVU11
.LBB196:
.LBI196:
	.file 2 "/home/g/mise-work/zmk-firmware/zmk/zephyr/include/zephyr/sys/slist.h"
	.loc 2 392 29 view .LVU12
.LBB197:
	.loc 2 392 64 view .LVU13
.LBB198:
.LBI198:
	.loc 2 268 1 view .LVU14
	.loc 2 268 41 view .LVU15
.LBB199:
.LBI199:
	.loc 2 238 28 view .LVU16
.LBB200:
	.loc 2 240 2 view .LVU17
	.loc 2 240 13 is_stmt 0 view .LVU18
	ldr	r5, [r4, #232]
.LVL3:
	.loc 2 240 13 view .LVU19
.LBE200:
.LBE199:
.LBE198:
	.loc 2 392 1 view .LVU20
	cbz	r5, .L1
.LVL4:
.LBB203:
.LBI203:
	.loc 2 379 29 is_stmt 1 view .LVU21
.LBB204:
	.loc 2 379 74 view .LVU22
	.loc 2 379 121 view .LVU23
.LBB205:
.LBI205:
	.loc 2 211 28 view .LVU24
.LBB206:
	.loc 2 213 2 view .LVU25
.LBE206:
.LBE205:
	.loc 2 379 173 is_stmt 0 view .LVU26
	ldr	r2, [r4, #236]
.LBB210:
.LBB207:
	.loc 2 213 13 view .LVU27
	ldr	r3, [r5]
.LVL5:
	.loc 2 213 13 view .LVU28
.LBE207:
.LBE210:
.LBB211:
.LBI211:
	.loc 2 221 20 is_stmt 1 view .LVU29
.LBB212:
	.loc 2 223 2 view .LVU30
	.loc 2 223 13 is_stmt 0 view .LVU31
	str	r3, [r4, #232]
.LVL6:
	.loc 2 223 13 view .LVU32
.LBE212:
.LBE211:
	.loc 2 379 170 is_stmt 1 view .LVU33
.LBB214:
.LBI214:
	.loc 2 250 28 view .LVU34
.LBB215:
	.loc 2 252 2 view .LVU35
	.loc 2 252 2 is_stmt 0 view .LVU36
.LBE215:
.LBE214:
	.loc 2 379 173 view .LVU37
	cmp	r5, r2
	.loc 2 379 211 is_stmt 1 view .LVU38
.LVL7:
.LBB217:
.LBI217:
	.loc 2 226 20 view .LVU39
.LBB218:
	.loc 2 228 2 view .LVU40
	.loc 2 228 13 is_stmt 0 view .LVU41
	it	eq
	streq	r3, [r4, #236]
.LVL8:
	.loc 2 228 13 view .LVU42
.LBE218:
.LBE217:
.LBE204:
.LBE203:
.LBE197:
.LBE196:
	.loc 1 152 2 is_stmt 1 view .LVU43
.LBB229:
.LBI229:
	.loc 1 110 51 view .LVU44
.LBB230:
	.loc 1 112 2 view .LVU45
.L1:
	.loc 1 112 2 is_stmt 0 view .LVU46
.LBE230:
.LBE229:
	.loc 1 155 1 view .LVU47
	mov	r0, r5
	pop	{r4, r5, r6, pc}
.LVL9:
.L2:
.LBB232:
.LBB194:
	.loc 1 104 2 is_stmt 1 view .LVU48
	mov	r5, r0
	.loc 1 104 12 is_stmt 0 view .LVU49
	movs	r1, #1
	movs	r0, #3
	bl	mayfly_is_enabled
.LVL10:
	.loc 1 105 2 view .LVU50
	mov	r2, r5
	.loc 1 104 12 view .LVU51
	mov	r6, r0
	.loc 1 105 2 view .LVU52
	movs	r1, #1
	movs	r0, #3
.LVL11:
	.loc 1 105 2 is_stmt 1 view .LVU53
	bl	mayfly_enable
.LVL12:
	.loc 1 107 2 view .LVU54
	.loc 1 107 2 is_stmt 0 view .LVU55
.LBE194:
.LBE232:
	.loc 1 150 2 is_stmt 1 view .LVU56
.LBB233:
	.loc 2 392 29 view .LVU57
.LBB228:
	.loc 2 392 64 view .LVU58
.LBB226:
	.loc 2 268 1 view .LVU59
	.loc 2 268 41 view .LVU60
.LBB202:
	.loc 2 238 28 view .LVU61
.LBB201:
	.loc 2 240 2 view .LVU62
	.loc 2 240 13 is_stmt 0 view .LVU63
	ldr	r5, [r4, #232]
.LVL13:
	.loc 2 240 13 view .LVU64
.LBE201:
.LBE202:
.LBE226:
	.loc 2 392 1 view .LVU65
	cbz	r5, .L5
.LVL14:
.LBB227:
	.loc 2 379 29 is_stmt 1 view .LVU66
.LBB225:
	.loc 2 379 74 view .LVU67
	.loc 2 379 121 view .LVU68
.LBB220:
	.loc 2 211 28 view .LVU69
.LBB208:
	.loc 2 213 2 view .LVU70
.LBE208:
.LBE220:
	.loc 2 379 173 is_stmt 0 view .LVU71
	ldr	r2, [r4, #236]
.LBB221:
.LBB209:
	.loc 2 213 13 view .LVU72
	ldr	r3, [r5]
.LVL15:
	.loc 2 213 13 view .LVU73
.LBE209:
.LBE221:
.LBB222:
	.loc 2 221 20 is_stmt 1 view .LVU74
.LBB213:
	.loc 2 223 2 view .LVU75
	.loc 2 223 13 is_stmt 0 view .LVU76
	str	r3, [r4, #232]
.LVL16:
	.loc 2 223 13 view .LVU77
.LBE213:
.LBE222:
	.loc 2 379 170 is_stmt 1 view .LVU78
.LBB223:
	.loc 2 250 28 view .LVU79
.LBB216:
	.loc 2 252 2 view .LVU80
	.loc 2 252 2 is_stmt 0 view .LVU81
.LBE216:
.LBE223:
	.loc 2 379 173 view .LVU82
	cmp	r5, r2
	.loc 2 379 211 is_stmt 1 view .LVU83
.LVL17:
.LBB224:
	.loc 2 226 20 view .LVU84
.LBB219:
	.loc 2 228 2 view .LVU85
	.loc 2 228 13 is_stmt 0 view .LVU86
	it	eq
	streq	r3, [r4, #236]
.LVL18:
.L5:
	.loc 2 228 13 view .LVU87
.LBE219:
.LBE224:
.LBE225:
.LBE227:
.LBE228:
.LBE233:
	.loc 1 152 2 is_stmt 1 view .LVU88
.LBB234:
	.loc 1 110 51 view .LVU89
.LBB231:
	.loc 1 112 2 view .LVU90
	.loc 1 112 5 is_stmt 0 view .LVU91
	cmp	r6, #0
	beq	.L1
	.loc 1 114 3 is_stmt 1 view .LVU92
	movs	r2, #1
	mov	r1, r2
	movs	r0, #3
	bl	mayfly_enable
.LVL19:
.LBE231:
.LBE234:
	.loc 1 155 1 is_stmt 0 view .LVU93
	mov	r0, r5
	pop	{r4, r5, r6, pc}
	.loc 1 155 1 view .LVU94
	.cfi_endproc
.LFE505:
	.size	lr_dequeue, .-lr_dequeue
	.section	.rodata.lr_act_complete.str1.4,"aMS",%progbits,1
	.align	2
.LC0:
	.ascii	"WEST_TOPDIR/zephyr/subsys/bluetooth/controller/ll_s"
	.ascii	"w/ull_llcp_local.c\000"
	.align	2
.LC1:
	.ascii	"ctx != ((void *)0)\000"
	.align	2
.LC2:
	.ascii	"ASSERTION FAIL [%s] @ %s:%d\012\000"
	.section	.text.lr_act_complete,"ax",%progbits
	.align	1
	.p2align 2,,3
	.syntax unified
	.thumb
	.thumb_func
	.type	lr_act_complete, %function
lr_act_complete:
.LVL20:
.LFB519:
	.loc 1 453 1 is_stmt 1 view -0
	.cfi_startproc
	@ args = 0, pretend = 0, frame = 0
	@ frame_needed = 0, uses_anonymous_args = 0
	.loc 1 454 2 view .LVU96
	.loc 1 456 2 view .LVU97
	.loc 1 453 1 is_stmt 0 view .LVU98
	push	{r4, r5, r6, lr}
	.cfi_def_cfa_offset 16
	.cfi_offset 4, -16
	.cfi_offset 5, -12
	.cfi_offset 6, -8
	.cfi_offset 14, -4
	.loc 1 453 1 view .LVU99
	mov	r4, r0
.LVL21:
.LBB251:
.LBI251:
	.loc 1 157 18 is_stmt 1 view .LVU100
.LBB252:
	.loc 1 162 2 view .LVU101
	.loc 1 164 1 view .LVU102
.LBB253:
.LBI253:
	.loc 1 94 55 view .LVU103
.LBB254:
	.loc 1 96 1 view .LVU104
	.loc 1 98 2 view .LVU105
	.loc 1 98 6 is_stmt 0 view .LVU106
	bl	mayfly_is_running
.LVL22:
	.loc 1 98 5 view .LVU107
	cbz	r0, .L14
.LVL23:
	.loc 1 98 5 view .LVU108
.LBE254:
.LBE253:
	.loc 1 166 2 is_stmt 1 view .LVU109
.LBB255:
.LBI255:
	.loc 2 238 28 view .LVU110
.LBB256:
	.loc 2 240 2 view .LVU111
	.loc 2 240 13 is_stmt 0 view .LVU112
	ldr	r5, [r4, #232]
.LVL24:
	.loc 2 240 13 view .LVU113
.LBE256:
.LBE255:
	.loc 1 168 2 is_stmt 1 view .LVU114
.L15:
	.loc 1 170 2 view .LVU115
	.loc 1 170 2 is_stmt 0 view .LVU116
.LBE252:
.LBE251:
	.loc 1 457 2 is_stmt 1 view .LVU117
	.loc 1 457 7 view .LVU118
	.loc 1 457 10 is_stmt 0 view .LVU119
	cbz	r5, .L22
.L17:
	.loc 1 457 156 is_stmt 1 discriminator 3 view .LVU120
	.loc 1 457 5 discriminator 3 view .LVU121
	.loc 1 460 2 discriminator 3 view .LVU122
.LVL25:
.LBB266:
.LBI266:
	.loc 1 219 6 discriminator 3 view .LVU123
.LBB267:
	.loc 1 221 2 discriminator 3 view .LVU124
	.loc 1 221 30 is_stmt 0 discriminator 3 view .LVU125
	movs	r2, #0
.LBE267:
.LBE266:
	.loc 1 463 12 discriminator 3 view .LVU126
	movs	r3, #1
.LBB269:
.LBB268:
	.loc 1 221 30 discriminator 3 view .LVU127
	strh	r2, [r4, #242]	@ movhi
.LVL26:
	.loc 1 221 30 discriminator 3 view .LVU128
.LBE268:
.LBE269:
	.loc 1 463 2 is_stmt 1 discriminator 3 view .LVU129
	.loc 1 463 12 is_stmt 0 discriminator 3 view .LVU130
	str	r3, [r5, #36]
	.loc 1 464 1 discriminator 3 view .LVU131
	pop	{r4, r5, r6, pc}
.LVL27:
.L14:
.LBB270:
.LBB265:
.LBB257:
.LBI257:
	.loc 1 157 18 is_stmt 1 view .LVU132
.LBB258:
.LBB259:
.LBB260:
	.loc 1 104 2 view .LVU133
	mov	r5, r0
	.loc 1 104 12 is_stmt 0 view .LVU134
	movs	r1, #1
	movs	r0, #3
	bl	mayfly_is_enabled
.LVL28:
	.loc 1 105 2 view .LVU135
	mov	r2, r5
	.loc 1 104 12 view .LVU136
	mov	r6, r0
.LVL29:
	.loc 1 105 2 is_stmt 1 view .LVU137
	movs	r1, #1
	movs	r0, #3
.LVL30:
	.loc 1 105 2 is_stmt 0 view .LVU138
	bl	mayfly_enable
.LVL31:
	.loc 1 107 2 is_stmt 1 view .LVU139
	.loc 1 107 2 is_stmt 0 view .LVU140
.LBE260:
.LBE259:
	.loc 1 166 2 is_stmt 1 view .LVU141
.LBB261:
.LBI261:
	.loc 2 238 28 view .LVU142
.LBB262:
	.loc 2 240 2 view .LVU143
	.loc 2 240 13 is_stmt 0 view .LVU144
	ldr	r5, [r4, #232]
.LVL32:
	.loc 2 240 13 view .LVU145
.LBE262:
.LBE261:
	.loc 1 168 2 is_stmt 1 view .LVU146
.LBB263:
.LBI263:
	.loc 1 110 51 view .LVU147
.LBB264:
	.loc 1 112 2 view .LVU148
	.loc 1 112 5 is_stmt 0 view .LVU149
	cmp	r6, #0
	beq	.L15
	.loc 1 114 3 is_stmt 1 view .LVU150
	movs	r2, #1
	mov	r1, r2
	movs	r0, #3
	bl	mayfly_enable
.LVL33:
	.loc 1 114 3 is_stmt 0 view .LVU151
.LBE264:
.LBE263:
.LBE258:
.LBE257:
	.loc 1 170 2 is_stmt 1 view .LVU152
	.loc 1 170 2 is_stmt 0 view .LVU153
.LBE265:
.LBE270:
	.loc 1 457 2 is_stmt 1 view .LVU154
	.loc 1 457 7 view .LVU155
	.loc 1 457 10 is_stmt 0 view .LVU156
	cmp	r5, #0
	bne	.L17
.L22:
	.loc 1 457 6 is_stmt 1 discriminator 1 view .LVU157
	ldr	r2, .L23
	ldr	r1, .L23+4
	ldr	r0, .L23+8
	movw	r3, #457
	bl	assert_print
.LVL34:
	.loc 1 457 153 discriminator 1 view .LVU158
	.loc 1 457 158 discriminator 1 view .LVU159
	.syntax unified
@ 457 "/home/g/mise-work/zmk-firmware/zmk/zephyr/subsys/bluetooth/controller/ll_sw/ull_llcp_local.c" 1
	eors.n r0, r0
	msr BASEPRI, r0
	mov r0, #3
	svc #2
	
@ 0 "" 2
	.thumb
	.syntax unified
	b	.L17
.L24:
	.align	2
.L23:
	.word	.LC0
	.word	.LC1
	.word	.LC2
	.cfi_endproc
.LFE519:
	.size	lr_act_complete, .-lr_act_complete
	.section	.rodata.llcp_lr_check_done.part.0.str1.4,"aMS",%progbits,1
	.align	2
.LC3:
	.ascii	"ctx_header == ctx\000"
	.section	.text.llcp_lr_check_done.part.0,"ax",%progbits
	.align	1
	.p2align 2,,3
	.syntax unified
	.thumb
	.thumb_func
	.type	llcp_lr_check_done.part.0, %function
llcp_lr_check_done.part.0:
.LVL35:
.LFB534:
	.loc 1 76 6 view -0
	.cfi_startproc
	@ args = 0, pretend = 0, frame = 0
	@ frame_needed = 0, uses_anonymous_args = 0
.LBB286:
	.loc 1 79 3 view .LVU161
	.loc 1 81 3 view .LVU162
.LBE286:
	.loc 1 76 6 is_stmt 0 view .LVU163
	push	{r3, r4, r5, r6, r7, lr}
	.cfi_def_cfa_offset 24
	.cfi_offset 3, -24
	.cfi_offset 4, -20
	.cfi_offset 5, -16
	.cfi_offset 6, -12
	.cfi_offset 7, -8
	.cfi_offset 14, -4
	.loc 1 76 6 view .LVU164
	mov	r5, r0
.LVL36:
.LBB307:
.LBB287:
.LBI287:
	.loc 1 157 18 is_stmt 1 view .LVU165
.LBB288:
	.loc 1 162 2 view .LVU166
	.loc 1 164 1 view .LVU167
.LBB289:
.LBI289:
	.loc 1 94 55 view .LVU168
.LBB290:
	.loc 1 96 1 view .LVU169
	.loc 1 98 2 view .LVU170
.LBE290:
.LBE289:
.LBE288:
.LBE287:
.LBE307:
	.loc 1 76 6 is_stmt 0 view .LVU171
	mov	r4, r1
.LBB308:
.LBB305:
.LBB303:
.LBB292:
.LBB291:
	.loc 1 98 6 view .LVU172
	bl	mayfly_is_running
.LVL37:
	.loc 1 98 5 view .LVU173
	cbz	r0, .L26
.LVL38:
	.loc 1 98 5 view .LVU174
.LBE291:
.LBE292:
	.loc 1 166 2 is_stmt 1 view .LVU175
.LBB293:
.LBI293:
	.loc 2 238 28 view .LVU176
.LBB294:
	.loc 2 240 2 view .LVU177
	.loc 2 240 13 is_stmt 0 view .LVU178
	ldr	r6, [r5, #232]
.LVL39:
	.loc 2 240 13 view .LVU179
.LBE294:
.LBE293:
	.loc 1 168 2 is_stmt 1 view .LVU180
.L27:
	.loc 1 170 2 view .LVU181
	.loc 1 170 2 is_stmt 0 view .LVU182
.LBE303:
.LBE305:
	.loc 1 82 3 is_stmt 1 view .LVU183
	.loc 1 82 8 view .LVU184
	.loc 1 82 11 is_stmt 0 view .LVU185
	cmp	r4, r6
	beq	.L29
	.loc 1 82 36 is_stmt 1 view .LVU186
	ldr	r2, .L34
	ldr	r1, .L34+4
	ldr	r0, .L34+8
	movs	r3, #82
	bl	assert_print
.LVL40:
	.loc 1 82 181 view .LVU187
	.loc 1 82 186 view .LVU188
	.syntax unified
@ 82 "/home/g/mise-work/zmk-firmware/zmk/zephyr/subsys/bluetooth/controller/ll_sw/ull_llcp_local.c" 1
	eors.n r0, r0
	msr BASEPRI, r0
	mov r0, #3
	svc #2
	
@ 0 "" 2
	.thumb
	.syntax unified
.L29:
	.loc 1 82 184 view .LVU189
	.loc 1 82 6 view .LVU190
	.loc 1 84 3 view .LVU191
	mov	r0, r5
	bl	lr_dequeue
.LVL41:
	.loc 1 86 3 view .LVU192
	mov	r0, r4
.LBE308:
	.loc 1 88 1 is_stmt 0 view .LVU193
	pop	{r3, r4, r5, r6, r7, lr}
	.cfi_remember_state
	.cfi_restore 14
	.cfi_restore 7
	.cfi_restore 6
	.cfi_restore 5
	.cfi_restore 4
	.cfi_restore 3
	.cfi_def_cfa_offset 0
.LVL42:
.LBB309:
	.loc 1 86 3 view .LVU194
	b	llcp_proc_ctx_release
.LVL43:
.L26:
	.cfi_restore_state
.LBB306:
.LBB304:
.LBB295:
.LBI295:
	.loc 1 157 18 is_stmt 1 view .LVU195
.LBB296:
.LBB297:
.LBB298:
	.loc 1 104 2 view .LVU196
	mov	r6, r0
	.loc 1 104 12 is_stmt 0 view .LVU197
	movs	r1, #1
	movs	r0, #3
	bl	mayfly_is_enabled
.LVL44:
	.loc 1 105 2 view .LVU198
	mov	r2, r6
	.loc 1 104 12 view .LVU199
	mov	r7, r0
.LVL45:
	.loc 1 105 2 is_stmt 1 view .LVU200
	movs	r1, #1
	movs	r0, #3
.LVL46:
	.loc 1 105 2 is_stmt 0 view .LVU201
	bl	mayfly_enable
.LVL47:
	.loc 1 107 2 is_stmt 1 view .LVU202
	.loc 1 107 2 is_stmt 0 view .LVU203
.LBE298:
.LBE297:
	.loc 1 166 2 is_stmt 1 view .LVU204
.LBB299:
.LBI299:
	.loc 2 238 28 view .LVU205
.LBB300:
	.loc 2 240 2 view .LVU206
	.loc 2 240 13 is_stmt 0 view .LVU207
	ldr	r6, [r5, #232]
.LVL48:
	.loc 2 240 13 view .LVU208
.LBE300:
.LBE299:
	.loc 1 168 2 is_stmt 1 view .LVU209
.LBB301:
.LBI301:
	.loc 1 110 51 view .LVU210
.LBB302:
	.loc 1 112 2 view .LVU211
	.loc 1 112 5 is_stmt 0 view .LVU212
	cmp	r7, #0
	beq	.L27
	.loc 1 114 3 is_stmt 1 view .LVU213
	movs	r2, #1
	mov	r1, r2
	movs	r0, #3
	bl	mayfly_enable
.LVL49:
	b	.L27
.L35:
	.align	2
.L34:
	.word	.LC0
	.word	.LC3
	.word	.LC2
.LBE302:
.LBE301:
.LBE296:
.LBE295:
.LBE304:
.LBE306:
.LBE309:
	.cfi_endproc
.LFE534:
	.size	llcp_lr_check_done.part.0, .-llcp_lr_check_done.part.0
	.section	.text.llcp_lr_check_done,"ax",%progbits
	.align	1
	.p2align 2,,3
	.global	llcp_lr_check_done
	.syntax unified
	.thumb
	.thumb_func
	.type	llcp_lr_check_done, %function
llcp_lr_check_done:
.LVL50:
.LFB500:
	.loc 1 77 1 view -0
	.cfi_startproc
	@ args = 0, pretend = 0, frame = 0
	@ frame_needed = 0, uses_anonymous_args = 0
	@ link register save eliminated.
	.loc 1 78 2 view .LVU215
	.loc 1 78 5 is_stmt 0 view .LVU216
	ldr	r3, [r1, #36]
	cbnz	r3, .L38
	.loc 1 88 1 view .LVU217
	bx	lr
.L38:
	b	llcp_lr_check_done.part.0
.LVL51:
	.loc 1 88 1 view .LVU218
	.cfi_endproc
.LFE500:
	.size	llcp_lr_check_done, .-llcp_lr_check_done
	.section	.text.llcp_lr_enqueue,"ax",%progbits
	.align	1
	.p2align 2,,3
	.global	llcp_lr_enqueue
	.syntax unified
	.thumb
	.thumb_func
	.type	llcp_lr_enqueue, %function
llcp_lr_enqueue:
.LVL52:
.LFB504:
	.loc 1 128 1 is_stmt 1 view -0
	.cfi_startproc
	@ args = 0, pretend = 0, frame = 0
	@ frame_needed = 0, uses_anonymous_args = 0
	.loc 1 133 1 view .LVU220
.LBB310:
.LBI310:
	.loc 1 94 55 view .LVU221
.LBB311:
	.loc 1 96 1 view .LVU222
	.loc 1 98 2 view .LVU223
.LBE311:
.LBE310:
	.loc 1 128 1 is_stmt 0 view .LVU224
	push	{r3, r4, r5, r6, r7, lr}
	.cfi_def_cfa_offset 24
	.cfi_offset 3, -24
	.cfi_offset 4, -20
	.cfi_offset 5, -16
	.cfi_offset 6, -12
	.cfi_offset 7, -8
	.cfi_offset 14, -4
	.loc 1 128 1 view .LVU225
	mov	r5, r0
	mov	r4, r1
.LBB314:
.LBB312:
	.loc 1 98 6 view .LVU226
	bl	mayfly_is_running
.LVL53:
	.loc 1 98 5 view .LVU227
	cbz	r0, .L40
.LVL54:
	.loc 1 98 5 view .LVU228
.LBE312:
.LBE314:
	.loc 1 135 2 is_stmt 1 view .LVU229
.LBB315:
.LBI315:
	.loc 2 318 20 view .LVU230
.LBB316:
	.loc 2 318 77 view .LVU231
.LBB317:
.LBI317:
	.loc 2 216 20 view .LVU232
.LBB318:
	.loc 2 218 2 view .LVU233
	.loc 2 218 15 is_stmt 0 view .LVU234
	movs	r3, #0
	str	r3, [r4]
.LVL55:
	.loc 2 218 15 view .LVU235
.LBE318:
.LBE317:
	.loc 2 318 4 is_stmt 1 view .LVU236
.LBB320:
.LBI320:
	.loc 2 250 28 view .LVU237
.LBB321:
	.loc 2 252 2 view .LVU238
	.loc 2 252 13 is_stmt 0 view .LVU239
	ldr	r3, [r5, #236]
.LVL56:
	.loc 2 252 13 view .LVU240
.LBE321:
.LBE320:
	.loc 2 318 7 view .LVU241
	cbz	r3, .L49
	.loc 2 318 74 is_stmt 1 view .LVU242
.LVL57:
.LBB323:
.LBI323:
	.loc 2 216 20 view .LVU243
.LBB324:
	.loc 2 218 2 view .LVU244
	.loc 2 218 15 is_stmt 0 view .LVU245
	str	r4, [r3]
.LVL58:
	.loc 2 218 15 view .LVU246
.LBE324:
.LBE323:
	.loc 2 318 126 is_stmt 1 view .LVU247
.LBB326:
.LBI326:
	.loc 2 226 20 view .LVU248
.LBB327:
	.loc 2 228 2 view .LVU249
	.loc 2 228 13 is_stmt 0 view .LVU250
	str	r4, [r5, #236]
.LVL59:
	.loc 2 228 13 view .LVU251
.LBE327:
.LBE326:
.LBE316:
.LBE315:
	.loc 1 137 2 is_stmt 1 view .LVU252
.LBB340:
.LBI340:
	.loc 1 110 51 view .LVU253
.LBB341:
	.loc 1 112 2 view .LVU254
.L39:
	.loc 1 112 2 is_stmt 0 view .LVU255
.LBE341:
.LBE340:
	.loc 1 138 1 view .LVU256
	pop	{r3, r4, r5, r6, r7, pc}
.LVL60:
.L40:
.LBB345:
.LBB313:
	.loc 1 104 2 is_stmt 1 view .LVU257
	mov	r6, r0
	.loc 1 104 12 is_stmt 0 view .LVU258
	movs	r1, #1
	movs	r0, #3
	bl	mayfly_is_enabled
.LVL61:
	.loc 1 105 2 view .LVU259
	mov	r2, r6
	.loc 1 104 12 view .LVU260
	mov	r7, r0
.LVL62:
	.loc 1 105 2 is_stmt 1 view .LVU261
	movs	r1, #1
	movs	r0, #3
.LVL63:
	.loc 1 105 2 is_stmt 0 view .LVU262
	bl	mayfly_enable
.LVL64:
	.loc 1 107 2 is_stmt 1 view .LVU263
	.loc 1 107 2 is_stmt 0 view .LVU264
.LBE313:
.LBE345:
	.loc 1 135 2 is_stmt 1 view .LVU265
.LBB346:
	.loc 2 318 20 view .LVU266
.LBB337:
	.loc 2 318 77 view .LVU267
.LBB329:
	.loc 2 216 20 view .LVU268
.LBB319:
	.loc 2 218 2 view .LVU269
	.loc 2 218 15 is_stmt 0 view .LVU270
	str	r6, [r4]
.LVL65:
	.loc 2 218 15 view .LVU271
.LBE319:
.LBE329:
	.loc 2 318 4 is_stmt 1 view .LVU272
.LBB330:
	.loc 2 250 28 view .LVU273
.LBB322:
	.loc 2 252 2 view .LVU274
	.loc 2 252 13 is_stmt 0 view .LVU275
	ldr	r3, [r5, #236]
.LVL66:
	.loc 2 252 13 view .LVU276
.LBE322:
.LBE330:
	.loc 2 318 7 view .LVU277
	cbz	r3, .L50
	.loc 2 318 74 is_stmt 1 view .LVU278
.LVL67:
.LBB331:
	.loc 2 216 20 view .LVU279
.LBB325:
	.loc 2 218 2 view .LVU280
	.loc 2 218 15 is_stmt 0 view .LVU281
	str	r4, [r3]
.LVL68:
	.loc 2 218 15 view .LVU282
.LBE325:
.LBE331:
	.loc 2 318 126 is_stmt 1 view .LVU283
.LBB332:
	.loc 2 226 20 view .LVU284
.LBB328:
	.loc 2 228 2 view .LVU285
	.loc 2 228 13 is_stmt 0 view .LVU286
	str	r4, [r5, #236]
.LVL69:
.L44:
	.loc 2 228 13 view .LVU287
.LBE328:
.LBE332:
.LBE337:
.LBE346:
	.loc 1 137 2 is_stmt 1 view .LVU288
.LBB347:
	.loc 1 110 51 view .LVU289
.LBB342:
	.loc 1 112 2 view .LVU290
	.loc 1 112 5 is_stmt 0 view .LVU291
	cmp	r7, #0
	beq	.L39
	.loc 1 114 3 is_stmt 1 view .LVU292
	movs	r2, #1
.LBE342:
.LBE347:
	.loc 1 138 1 is_stmt 0 view .LVU293
	pop	{r3, r4, r5, r6, r7, lr}
	.cfi_remember_state
	.cfi_restore 14
	.cfi_restore 7
	.cfi_restore 6
	.cfi_restore 5
	.cfi_restore 4
	.cfi_restore 3
	.cfi_def_cfa_offset 0
.LVL70:
.LBB348:
.LBB343:
	.loc 1 114 3 view .LVU294
	mov	r1, r2
	movs	r0, #3
	b	mayfly_enable
.LVL71:
.L49:
	.cfi_restore_state
	.loc 1 114 3 view .LVU295
.LBE343:
.LBE348:
.LBB349:
.LBB338:
	.loc 2 318 5 is_stmt 1 view .LVU296
	.loc 2 318 35 view .LVU297
.LBB333:
.LBI333:
	.loc 2 221 20 view .LVU298
.LBB334:
	.loc 2 223 2 view .LVU299
	.loc 2 223 13 is_stmt 0 view .LVU300
	str	r4, [r5, #232]	@ unaligned
	str	r4, [r5, #236]	@ unaligned
.LVL72:
	.loc 2 223 13 view .LVU301
.LBE334:
.LBE333:
.LBE338:
.LBE349:
	.loc 1 137 2 is_stmt 1 view .LVU302
.LBB350:
	.loc 1 110 51 view .LVU303
.LBB344:
	.loc 1 112 2 view .LVU304
.LBE344:
.LBE350:
	.loc 1 138 1 is_stmt 0 view .LVU305
	pop	{r3, r4, r5, r6, r7, pc}
.LVL73:
.L50:
.LBB351:
.LBB339:
	.loc 2 318 5 is_stmt 1 view .LVU306
	.loc 2 318 35 view .LVU307
.LBB336:
	.loc 2 221 20 view .LVU308
.LBB335:
	.loc 2 223 2 view .LVU309
	.loc 2 223 13 is_stmt 0 view .LVU310
	str	r4, [r5, #232]	@ unaligned
	str	r4, [r5, #236]	@ unaligned
	.loc 2 224 1 view .LVU311
	b	.L44
.LBE335:
.LBE336:
.LBE339:
.LBE351:
	.cfi_endproc
.LFE504:
	.size	llcp_lr_enqueue, .-llcp_lr_enqueue
	.section	.text.llcp_lr_peek,"ax",%progbits
	.align	1
	.p2align 2,,3
	.global	llcp_lr_peek
	.syntax unified
	.thumb
	.thumb_func
	.type	llcp_lr_peek, %function
llcp_lr_peek:
.LVL74:
.LFB506:
	.loc 1 158 1 is_stmt 1 view -0
	.cfi_startproc
	@ args = 0, pretend = 0, frame = 0
	@ frame_needed = 0, uses_anonymous_args = 0
	.loc 1 162 2 view .LVU313
	.loc 1 164 1 view .LVU314
.LBB364:
.LBI364:
	.loc 1 94 55 view .LVU315
.LBB365:
	.loc 1 96 1 view .LVU316
	.loc 1 98 2 view .LVU317
.LBE365:
.LBE364:
	.loc 1 158 1 is_stmt 0 view .LVU318
	push	{r4, r5, r6, lr}
	.cfi_def_cfa_offset 16
	.cfi_offset 4, -16
	.cfi_offset 5, -12
	.cfi_offset 6, -8
	.cfi_offset 14, -4
	.loc 1 158 1 view .LVU319
	mov	r5, r0
.LBB367:
.LBB366:
	.loc 1 98 6 view .LVU320
	bl	mayfly_is_running
.LVL75:
	.loc 1 98 5 view .LVU321
	cbz	r0, .L52
.LVL76:
	.loc 1 98 5 view .LVU322
.LBE366:
.LBE367:
	.loc 1 166 2 is_stmt 1 view .LVU323
.LBB368:
.LBI368:
	.loc 2 238 28 view .LVU324
.LBB369:
	.loc 2 240 2 view .LVU325
	.loc 2 240 13 is_stmt 0 view .LVU326
	ldr	r4, [r5, #232]
.LVL77:
	.loc 2 240 13 view .LVU327
.LBE369:
.LBE368:
	.loc 1 168 2 is_stmt 1 view .LVU328
.L51:
	.loc 1 171 1 is_stmt 0 view .LVU329
	mov	r0, r4
	pop	{r4, r5, r6, pc}
.LVL78:
.L52:
.LBB370:
.LBI370:
	.loc 1 157 18 is_stmt 1 view .LVU330
.LBB371:
.LBB372:
.LBB373:
	.loc 1 104 2 view .LVU331
	mov	r4, r0
	.loc 1 104 12 is_stmt 0 view .LVU332
	movs	r1, #1
	movs	r0, #3
	bl	mayfly_is_enabled
.LVL79:
	.loc 1 105 2 view .LVU333
	mov	r2, r4
	.loc 1 104 12 view .LVU334
	mov	r6, r0
.LVL80:
	.loc 1 105 2 is_stmt 1 view .LVU335
	movs	r1, #1
	movs	r0, #3
.LVL81:
	.loc 1 105 2 is_stmt 0 view .LVU336
	bl	mayfly_enable
.LVL82:
	.loc 1 107 2 is_stmt 1 view .LVU337
	.loc 1 107 2 is_stmt 0 view .LVU338
.LBE373:
.LBE372:
	.loc 1 166 2 is_stmt 1 view .LVU339
.LBB374:
.LBI374:
	.loc 2 238 28 view .LVU340
.LBB375:
	.loc 2 240 2 view .LVU341
	.loc 2 240 13 is_stmt 0 view .LVU342
	ldr	r4, [r5, #232]
.LVL83:
	.loc 2 240 13 view .LVU343
.LBE375:
.LBE374:
	.loc 1 168 2 is_stmt 1 view .LVU344
.LBB376:
.LBI376:
	.loc 1 110 51 view .LVU345
.LBB377:
	.loc 1 112 2 view .LVU346
	.loc 1 112 5 is_stmt 0 view .LVU347
	cmp	r6, #0
	beq	.L51
	.loc 1 114 3 is_stmt 1 view .LVU348
	movs	r2, #1
	mov	r1, r2
	movs	r0, #3
	bl	mayfly_enable
.LVL84:
	.loc 1 114 3 is_stmt 0 view .LVU349
.LBE377:
.LBE376:
.LBE371:
.LBE370:
	.loc 1 170 2 is_stmt 1 view .LVU350
	.loc 1 171 1 is_stmt 0 view .LVU351
	mov	r0, r4
	pop	{r4, r5, r6, pc}
	.loc 1 171 1 view .LVU352
	.cfi_endproc
.LFE506:
	.size	llcp_lr_peek, .-llcp_lr_peek
	.section	.rodata.lr_act_run.str1.4,"aMS",%progbits,1
	.align	2
.LC4:
	.ascii	"0\000"
	.section	.text.lr_act_run,"ax",%progbits
	.align	1
	.p2align 2,,3
	.syntax unified
	.thumb
	.thumb_func
	.type	lr_act_run, %function
lr_act_run:
.LVL85:
.LFB518:
	.loc 1 372 1 is_stmt 1 view -0
	.cfi_startproc
	@ args = 0, pretend = 0, frame = 0
	@ frame_needed = 0, uses_anonymous_args = 0
	.loc 1 373 2 view .LVU354
	.loc 1 375 2 view .LVU355
	.loc 1 372 1 is_stmt 0 view .LVU356
	push	{r3, r4, r5, lr}
	.cfi_def_cfa_offset 16
	.cfi_offset 3, -16
	.cfi_offset 4, -12
	.cfi_offset 5, -8
	.cfi_offset 14, -4
	.loc 1 372 1 view .LVU357
	mov	r5, r0
	.loc 1 375 8 view .LVU358
	bl	llcp_lr_peek
.LVL86:
	.loc 1 377 2 view .LVU359
	ldrb	r3, [r0, #8]	@ zero_extendqisi2
	subs	r3, r3, #1
	.loc 1 375 8 view .LVU360
	mov	r4, r0
.LVL87:
	.loc 1 377 2 is_stmt 1 view .LVU361
	cmp	r3, #11
	bhi	.L60
	tbb	[pc, r3]
.L62:
	.byte	(.L61-.L62)/2
	.byte	(.L61-.L62)/2
	.byte	(.L61-.L62)/2
	.byte	(.L61-.L62)/2
	.byte	(.L60-.L62)/2
	.byte	(.L60-.L62)/2
	.byte	(.L64-.L62)/2
	.byte	(.L63-.L62)/2
	.byte	(.L63-.L62)/2
	.byte	(.L61-.L62)/2
	.byte	(.L60-.L62)/2
	.byte	(.L61-.L62)/2
	.p2align 1
.L61:
	.loc 1 419 3 view .LVU362
	mov	r1, r0
	movs	r2, #0
	mov	r0, r5
.LVL88:
	.loc 1 419 3 is_stmt 0 view .LVU363
	bl	llcp_lp_comm_run
.LVL89:
	.loc 1 420 3 is_stmt 1 view .LVU364
.L65:
	.loc 1 449 2 view .LVU365
.LBB378:
.LBI378:
	.loc 1 76 6 view .LVU366
.LBB379:
	.loc 1 78 2 view .LVU367
	.loc 1 78 5 is_stmt 0 view .LVU368
	ldr	r3, [r4, #36]
	cbnz	r3, .L68
.LBE379:
.LBE378:
	.loc 1 450 1 view .LVU369
	pop	{r3, r4, r5, pc}
.LVL90:
.L68:
.LBB382:
.LBB380:
	.loc 1 450 1 view .LVU370
	mov	r1, r4
	mov	r0, r5
.LBE380:
.LBE382:
	pop	{r3, r4, r5, lr}
	.cfi_remember_state
	.cfi_restore 14
	.cfi_restore 5
	.cfi_restore 4
	.cfi_restore 3
	.cfi_def_cfa_offset 0
.LVL91:
.LBB383:
.LBB381:
	.loc 1 450 1 view .LVU371
	b	llcp_lr_check_done.part.0
.LVL92:
.L63:
	.cfi_restore_state
	.loc 1 450 1 view .LVU372
.LBE381:
.LBE383:
	.loc 1 407 3 is_stmt 1 view .LVU373
	mov	r1, r0
	movs	r2, #0
	mov	r0, r5
.LVL93:
	.loc 1 407 3 is_stmt 0 view .LVU374
	bl	llcp_lp_cu_run
.LVL94:
	.loc 1 408 3 is_stmt 1 view .LVU375
	b	.L65
.LVL95:
.L60:
	.loc 1 445 3 discriminator 1 view .LVU376
	.loc 1 445 8 discriminator 1 view .LVU377
	.loc 1 445 20 discriminator 1 view .LVU378
	ldr	r2, .L69
	ldr	r1, .L69+4
	ldr	r0, .L69+8
.LVL96:
	.loc 1 445 20 is_stmt 0 discriminator 1 view .LVU379
	movw	r3, #445
	bl	assert_print
.LVL97:
	.loc 1 445 150 is_stmt 1 discriminator 1 view .LVU380
	.loc 1 445 155 discriminator 1 view .LVU381
	.syntax unified
@ 445 "/home/g/mise-work/zmk-firmware/zmk/zephyr/subsys/bluetooth/controller/ll_sw/ull_llcp_local.c" 1
	eors.n r0, r0
	msr BASEPRI, r0
	mov r0, #3
	svc #2
	
@ 0 "" 2
	.loc 1 445 153 discriminator 1 view .LVU382
	.loc 1 445 6 discriminator 1 view .LVU383
	.loc 1 446 3 discriminator 1 view .LVU384
	.thumb
	.syntax unified
	b	.L65
.LVL98:
.L64:
	.loc 1 402 3 view .LVU385
	mov	r1, r0
	movs	r2, #0
	mov	r0, r5
.LVL99:
	.loc 1 402 3 is_stmt 0 view .LVU386
	bl	llcp_lp_pu_run
.LVL100:
	.loc 1 403 3 is_stmt 1 view .LVU387
	b	.L65
.L70:
	.align	2
.L69:
	.word	.LC0
	.word	.LC4
	.word	.LC2
	.cfi_endproc
.LFE518:
	.size	lr_act_run, .-lr_act_run
	.section	.text.llcp_lr_peek_proc,"ax",%progbits
	.align	1
	.p2align 2,,3
	.global	llcp_lr_peek_proc
	.syntax unified
	.thumb
	.thumb_func
	.type	llcp_lr_peek_proc, %function
llcp_lr_peek_proc:
.LVL101:
.LFB507:
	.loc 1 174 1 view -0
	.cfi_startproc
	@ args = 0, pretend = 0, frame = 0
	@ frame_needed = 0, uses_anonymous_args = 0
	.loc 1 179 2 view .LVU389
	.loc 1 181 1 view .LVU390
.LBB384:
.LBI384:
	.loc 1 94 55 view .LVU391
.LBB385:
	.loc 1 96 1 view .LVU392
	.loc 1 98 2 view .LVU393
.LBE385:
.LBE384:
	.loc 1 174 1 is_stmt 0 view .LVU394
	push	{r4, r5, r6, lr}
	.cfi_def_cfa_offset 16
	.cfi_offset 4, -16
	.cfi_offset 5, -12
	.cfi_offset 6, -8
	.cfi_offset 14, -4
	.loc 1 174 1 view .LVU395
	mov	r6, r0
	mov	r5, r1
.LBB390:
.LBB386:
	.loc 1 98 6 view .LVU396
	bl	mayfly_is_running
.LVL102:
	.loc 1 98 5 view .LVU397
	cbz	r0, .L72
.LVL103:
	.loc 1 98 5 view .LVU398
.LBE386:
.LBE390:
	.loc 1 183 2 is_stmt 1 view .LVU399
.LBB391:
.LBI391:
	.loc 2 238 28 view .LVU400
.LBB392:
	.loc 2 240 2 view .LVU401
	.loc 2 240 13 is_stmt 0 view .LVU402
	ldr	r3, [r6, #232]
.LVL104:
	.loc 2 240 13 view .LVU403
.LBE392:
.LBE391:
	.loc 1 183 8 view .LVU404
	cbz	r3, .L86
.LBB395:
.LBB387:
	.loc 1 100 9 view .LVU405
	movs	r1, #0
.LVL105:
.L73:
	.loc 1 100 9 view .LVU406
.LBE387:
.LBE395:
.LBB396:
.LBI396:
	.loc 2 292 29 is_stmt 1 view .LVU407
	.loc 2 292 70 view .LVU408
.LBB397:
.LBI397:
	.loc 2 281 29 view .LVU409
	.loc 2 281 79 view .LVU410
.LBB398:
.LBI398:
	.loc 2 211 28 view .LVU411
.LBB399:
	.loc 2 213 2 view .LVU412
.LBE399:
.LBE398:
.LBE397:
.LBE396:
	.loc 1 184 6 is_stmt 0 view .LVU413
	ldrb	r2, [r3, #8]	@ zero_extendqisi2
.LBB403:
.LBB402:
.LBB401:
.LBB400:
	.loc 2 213 13 view .LVU414
	ldr	r4, [r3]
.LVL106:
	.loc 2 213 13 view .LVU415
.LBE400:
.LBE401:
.LBE402:
.LBE403:
	.loc 1 183 8 is_stmt 1 view .LVU416
	.loc 1 184 3 view .LVU417
	.loc 1 183 12 view .LVU418
.LBB404:
.LBI404:
	.loc 2 292 29 view .LVU419
	.loc 2 292 70 view .LVU420
.LBB405:
.LBI405:
	.loc 2 281 29 view .LVU421
	.loc 2 281 79 view .LVU422
.LBB406:
.LBI406:
	.loc 2 211 28 view .LVU423
.LBB407:
	.loc 2 213 2 view .LVU424
	.loc 2 213 2 is_stmt 0 view .LVU425
.LBE407:
.LBE406:
.LBE405:
.LBE404:
	.loc 1 183 8 is_stmt 1 view .LVU426
	.loc 1 184 6 is_stmt 0 view .LVU427
	cmp	r2, r5
	beq	.L81
.LVL107:
.L87:
	.loc 1 183 3 view .LVU428
	cbz	r4, .L75
.LBB414:
.LBB412:
.LBB410:
.LBB408:
	.loc 2 213 13 view .LVU429
	mov	r3, r4
.LBE408:
.LBE410:
.LBE412:
.LBE414:
.LBB415:
.LBB416:
	.loc 2 292 3 view .LVU430
	ldr	r4, [r4]
.LVL108:
	.loc 2 292 3 view .LVU431
.LBE416:
.LBE415:
	.loc 1 184 3 is_stmt 1 view .LVU432
	.loc 1 183 12 view .LVU433
.LBB417:
	.loc 2 292 29 view .LVU434
	.loc 2 292 70 view .LVU435
.LBB413:
	.loc 2 281 29 view .LVU436
	.loc 2 281 79 view .LVU437
.LBB411:
	.loc 2 211 28 view .LVU438
.LBB409:
	.loc 2 213 2 view .LVU439
	.loc 2 213 2 is_stmt 0 view .LVU440
.LBE409:
.LBE411:
.LBE413:
.LBE417:
	.loc 1 183 8 is_stmt 1 view .LVU441
	.loc 1 184 6 is_stmt 0 view .LVU442
	ldrb	r2, [r3, #8]	@ zero_extendqisi2
	cmp	r2, r5
	bne	.L87
.LVL109:
.L81:
	.loc 1 184 6 view .LVU443
	mov	r4, r3
.LVL110:
.L75:
	.loc 1 189 2 is_stmt 1 view .LVU444
.LBB418:
.LBI418:
	.loc 1 110 51 view .LVU445
.LBB419:
	.loc 1 112 2 view .LVU446
	.loc 1 112 5 is_stmt 0 view .LVU447
	cbz	r1, .L71
	.loc 1 114 3 is_stmt 1 view .LVU448
	movs	r2, #1
	mov	r1, r2
	movs	r0, #3
	bl	mayfly_enable
.LVL111:
.L71:
.LBE419:
.LBE418:
	.loc 1 192 1 is_stmt 0 view .LVU449
	mov	r0, r4
	pop	{r4, r5, r6, pc}
.LVL112:
.L72:
.LBB420:
.LBB388:
	.loc 1 104 2 is_stmt 1 view .LVU450
	mov	r4, r0
	.loc 1 104 12 is_stmt 0 view .LVU451
	movs	r1, #1
	movs	r0, #3
	bl	mayfly_is_enabled
.LVL113:
	.loc 1 105 2 view .LVU452
	mov	r2, r4
	movs	r1, #1
	.loc 1 104 12 view .LVU453
	mov	r4, r0
.LVL114:
	.loc 1 105 2 is_stmt 1 view .LVU454
	movs	r0, #3
.LVL115:
	.loc 1 105 2 is_stmt 0 view .LVU455
	bl	mayfly_enable
.LVL116:
	.loc 1 107 2 is_stmt 1 view .LVU456
.LBE388:
.LBE420:
.LBB421:
.LBB393:
	.loc 2 240 13 is_stmt 0 view .LVU457
	ldr	r3, [r6, #232]
.LBE393:
.LBE421:
.LBB422:
.LBB389:
	.loc 1 104 10 view .LVU458
	subs	r1, r4, #0
	it	ne
	movne	r1, #1
.LVL117:
	.loc 1 104 10 view .LVU459
.LBE389:
.LBE422:
	.loc 1 183 2 is_stmt 1 view .LVU460
.LBB423:
	.loc 2 238 28 view .LVU461
.LBB394:
	.loc 2 240 2 view .LVU462
	.loc 2 240 2 is_stmt 0 view .LVU463
.LBE394:
.LBE423:
	.loc 1 183 8 view .LVU464
	cmp	r3, #0
	bne	.L73
	mov	r4, r3
	b	.L75
.LVL118:
.L86:
	.loc 1 183 8 view .LVU465
	mov	r4, r3
	.loc 1 192 1 view .LVU466
	mov	r0, r4
	pop	{r4, r5, r6, pc}
	.loc 1 192 1 view .LVU467
	.cfi_endproc
.LFE507:
	.size	llcp_lr_peek_proc, .-llcp_lr_peek_proc
	.section	.text.llcp_lr_ispaused,"ax",%progbits
	.align	1
	.p2align 2,,3
	.global	llcp_lr_ispaused
	.syntax unified
	.thumb
	.thumb_func
	.type	llcp_lr_ispaused, %function
llcp_lr_ispaused:
.LVL119:
.LFB508:
	.loc 1 195 1 is_stmt 1 view -0
	.cfi_startproc
	@ args = 0, pretend = 0, frame = 0
	@ frame_needed = 0, uses_anonymous_args = 0
	@ link register save eliminated.
	.loc 1 196 2 view .LVU469
	.loc 1 196 32 is_stmt 0 view .LVU470
	ldrb	r0, [r0, #244]	@ zero_extendqisi2
.LVL120:
	.loc 1 197 1 view .LVU471
	sub	r0, #1
	clz	r0, r0
	lsrs	r0, r0, #5
	bx	lr
	.cfi_endproc
.LFE508:
	.size	llcp_lr_ispaused, .-llcp_lr_ispaused
	.section	.text.llcp_lr_pause,"ax",%progbits
	.align	1
	.p2align 2,,3
	.global	llcp_lr_pause
	.syntax unified
	.thumb
	.thumb_func
	.type	llcp_lr_pause, %function
llcp_lr_pause:
.LVL121:
.LFB509:
	.loc 1 200 1 is_stmt 1 view -0
	.cfi_startproc
	@ args = 0, pretend = 0, frame = 0
	@ frame_needed = 0, uses_anonymous_args = 0
	@ link register save eliminated.
	.loc 1 201 2 view .LVU473
	.loc 1 201 25 is_stmt 0 view .LVU474
	movs	r3, #1
	strb	r3, [r0, #244]
	.loc 1 202 1 view .LVU475
	bx	lr
	.cfi_endproc
.LFE509:
	.size	llcp_lr_pause, .-llcp_lr_pause
	.section	.text.llcp_lr_resume,"ax",%progbits
	.align	1
	.p2align 2,,3
	.global	llcp_lr_resume
	.syntax unified
	.thumb
	.thumb_func
	.type	llcp_lr_resume, %function
llcp_lr_resume:
.LVL122:
.LFB510:
	.loc 1 205 1 is_stmt 1 view -0
	.cfi_startproc
	@ args = 0, pretend = 0, frame = 0
	@ frame_needed = 0, uses_anonymous_args = 0
	@ link register save eliminated.
	.loc 1 206 2 view .LVU477
	.loc 1 206 25 is_stmt 0 view .LVU478
	movs	r3, #0
	strb	r3, [r0, #244]
	.loc 1 207 1 view .LVU479
	bx	lr
	.cfi_endproc
.LFE510:
	.size	llcp_lr_resume, .-llcp_lr_resume
	.section	.text.llcp_lr_prt_restart,"ax",%progbits
	.align	1
	.p2align 2,,3
	.global	llcp_lr_prt_restart
	.syntax unified
	.thumb
	.thumb_func
	.type	llcp_lr_prt_restart, %function
llcp_lr_prt_restart:
.LVL123:
.LFB511:
	.loc 1 210 1 is_stmt 1 view -0
	.cfi_startproc
	@ args = 0, pretend = 0, frame = 0
	@ frame_needed = 0, uses_anonymous_args = 0
	@ link register save eliminated.
	.loc 1 211 2 view .LVU481
	.loc 1 211 30 is_stmt 0 view .LVU482
	ldrh	r3, [r0, #264]
	strh	r3, [r0, #242]	@ movhi
	.loc 1 212 1 view .LVU483
	bx	lr
	.cfi_endproc
.LFE511:
	.size	llcp_lr_prt_restart, .-llcp_lr_prt_restart
	.section	.text.llcp_lr_prt_restart_with_value,"ax",%progbits
	.align	1
	.p2align 2,,3
	.global	llcp_lr_prt_restart_with_value
	.syntax unified
	.thumb
	.thumb_func
	.type	llcp_lr_prt_restart_with_value, %function
llcp_lr_prt_restart_with_value:
.LVL124:
.LFB512:
	.loc 1 215 1 is_stmt 1 view -0
	.cfi_startproc
	@ args = 0, pretend = 0, frame = 0
	@ frame_needed = 0, uses_anonymous_args = 0
	@ link register save eliminated.
	.loc 1 216 2 view .LVU485
	.loc 1 216 30 is_stmt 0 view .LVU486
	strh	r1, [r0, #242]	@ movhi
	.loc 1 217 1 view .LVU487
	bx	lr
	.cfi_endproc
.LFE512:
	.size	llcp_lr_prt_restart_with_value, .-llcp_lr_prt_restart_with_value
	.section	.text.llcp_lr_prt_stop,"ax",%progbits
	.align	1
	.p2align 2,,3
	.global	llcp_lr_prt_stop
	.syntax unified
	.thumb
	.thumb_func
	.type	llcp_lr_prt_stop, %function
llcp_lr_prt_stop:
.LVL125:
.LFB513:
	.loc 1 220 1 is_stmt 1 view -0
	.cfi_startproc
	@ args = 0, pretend = 0, frame = 0
	@ frame_needed = 0, uses_anonymous_args = 0
	@ link register save eliminated.
	.loc 1 221 2 view .LVU489
	.loc 1 221 30 is_stmt 0 view .LVU490
	movs	r3, #0
	strh	r3, [r0, #242]	@ movhi
	.loc 1 222 1 view .LVU491
	bx	lr
	.cfi_endproc
.LFE513:
	.size	llcp_lr_prt_stop, .-llcp_lr_prt_stop
	.section	.text.llcp_lr_flush_procedures,"ax",%progbits
	.align	1
	.p2align 2,,3
	.global	llcp_lr_flush_procedures
	.syntax unified
	.thumb
	.thumb_func
	.type	llcp_lr_flush_procedures, %function
llcp_lr_flush_procedures:
.LVL126:
.LFB514:
	.loc 1 225 1 is_stmt 1 view -0
	.cfi_startproc
	@ args = 0, pretend = 0, frame = 0
	@ frame_needed = 0, uses_anonymous_args = 0
	.loc 1 226 2 view .LVU493
	.loc 1 229 2 view .LVU494
	.loc 1 225 1 is_stmt 0 view .LVU495
	push	{r3, r4, r5, lr}
	.cfi_def_cfa_offset 16
	.cfi_offset 3, -16
	.cfi_offset 4, -12
	.cfi_offset 5, -8
	.cfi_offset 14, -4
	.loc 1 225 1 view .LVU496
	mov	r5, r0
	.loc 1 229 8 view .LVU497
	bl	lr_dequeue
.LVL127:
	.loc 1 230 2 is_stmt 1 view .LVU498
	.loc 1 230 9 view .LVU499
	cbz	r0, .L94
	mov	r4, r0
.L96:
	.loc 1 231 3 view .LVU500
	mov	r1, r4
	mov	r0, r5
.LVL128:
	.loc 1 231 3 is_stmt 0 view .LVU501
	bl	llcp_nodes_release
.LVL129:
	.loc 1 232 3 is_stmt 1 view .LVU502
	mov	r0, r4
	bl	llcp_proc_ctx_release
.LVL130:
	.loc 1 233 3 view .LVU503
	.loc 1 233 9 is_stmt 0 view .LVU504
	mov	r0, r5
	bl	lr_dequeue
.LVL131:
	.loc 1 230 9 is_stmt 1 view .LVU505
	mov	r4, r0
	cmp	r0, #0
	bne	.L96
.L94:
	.loc 1 235 1 is_stmt 0 view .LVU506
	pop	{r3, r4, r5, pc}
	.loc 1 235 1 view .LVU507
	.cfi_endproc
.LFE514:
	.size	llcp_lr_flush_procedures, .-llcp_lr_flush_procedures
	.section	.text.llcp_lr_rx,"ax",%progbits
	.align	1
	.p2align 2,,3
	.global	llcp_lr_rx
	.syntax unified
	.thumb
	.thumb_func
	.type	llcp_lr_rx, %function
llcp_lr_rx:
.LVL132:
.LFB515:
	.loc 1 239 1 is_stmt 1 view -0
	.cfi_startproc
	@ args = 0, pretend = 0, frame = 0
	@ frame_needed = 0, uses_anonymous_args = 0
	.loc 1 241 2 view .LVU509
	.loc 1 239 1 is_stmt 0 view .LVU510
	push	{r3, r4, r5, lr}
	.cfi_def_cfa_offset 16
	.cfi_offset 3, -16
	.cfi_offset 4, -12
	.cfi_offset 5, -8
	.cfi_offset 14, -4
	.loc 1 239 1 view .LVU511
	mov	r4, r1
	.loc 1 244 2 view .LVU512
	ldrb	r1, [r1, #8]	@ zero_extendqisi2
.LVL133:
	.loc 1 241 19 view .LVU513
	str	r3, [r4, #28]
	.loc 1 242 2 is_stmt 1 view .LVU514
	.loc 1 244 2 is_stmt 0 view .LVU515
	subs	r1, r1, #1
	.loc 1 239 1 view .LVU516
	mov	r5, r0
	.loc 1 242 21 view .LVU517
	str	r2, [r4, #20]
	.loc 1 244 2 is_stmt 1 view .LVU518
	cmp	r1, #11
	bhi	.L103
	tbb	[pc, r1]
.LVL134:
.L105:
	.byte	(.L104-.L105)/2
	.byte	(.L104-.L105)/2
	.byte	(.L104-.L105)/2
	.byte	(.L104-.L105)/2
	.byte	(.L103-.L105)/2
	.byte	(.L103-.L105)/2
	.byte	(.L107-.L105)/2
	.byte	(.L106-.L105)/2
	.byte	(.L106-.L105)/2
	.byte	(.L104-.L105)/2
	.byte	(.L103-.L105)/2
	.byte	(.L104-.L105)/2
	.p2align 1
.L104:
	.loc 1 247 3 view .LVU519
	mov	r2, r3
	mov	r1, r4
	bl	llcp_lp_comm_rx
.LVL135:
	.loc 1 248 3 view .LVU520
.L108:
	.loc 1 315 2 view .LVU521
.LBB424:
.LBI424:
	.loc 1 76 6 view .LVU522
.LBB425:
	.loc 1 78 2 view .LVU523
	.loc 1 78 5 is_stmt 0 view .LVU524
	ldr	r3, [r4, #36]
	cbnz	r3, .L111
.LBE425:
.LBE424:
	.loc 1 316 1 view .LVU525
	pop	{r3, r4, r5, pc}
.LVL136:
.L111:
.LBB428:
.LBB426:
	.loc 1 316 1 view .LVU526
	mov	r1, r4
	mov	r0, r5
.LBE426:
.LBE428:
	pop	{r3, r4, r5, lr}
	.cfi_remember_state
	.cfi_restore 14
	.cfi_restore 5
	.cfi_restore 4
	.cfi_restore 3
	.cfi_def_cfa_offset 0
.LVL137:
.LBB429:
.LBB427:
	.loc 1 316 1 view .LVU527
	b	llcp_lr_check_done.part.0
.LVL138:
.L106:
	.cfi_restore_state
	.loc 1 316 1 view .LVU528
.LBE427:
.LBE429:
	.loc 1 274 3 is_stmt 1 view .LVU529
	mov	r2, r3
	mov	r1, r4
	bl	llcp_lp_cu_rx
.LVL139:
	.loc 1 275 3 view .LVU530
	b	.L108
.LVL140:
.L103:
	.loc 1 311 3 discriminator 1 view .LVU531
	.loc 1 311 8 discriminator 1 view .LVU532
	.loc 1 311 20 discriminator 1 view .LVU533
	ldr	r2, .L112
	ldr	r1, .L112+4
	ldr	r0, .L112+8
.LVL141:
	.loc 1 311 20 is_stmt 0 discriminator 1 view .LVU534
	movw	r3, #311
.LVL142:
	.loc 1 311 20 discriminator 1 view .LVU535
	bl	assert_print
.LVL143:
	.loc 1 311 150 is_stmt 1 discriminator 1 view .LVU536
	.loc 1 311 155 discriminator 1 view .LVU537
	.syntax unified
@ 311 "/home/g/mise-work/zmk-firmware/zmk/zephyr/subsys/bluetooth/controller/ll_sw/ull_llcp_local.c" 1
	eors.n r0, r0
	msr BASEPRI, r0
	mov r0, #3
	svc #2
	
@ 0 "" 2
	.loc 1 311 153 discriminator 1 view .LVU538
	.loc 1 311 6 discriminator 1 view .LVU539
	.loc 1 312 3 discriminator 1 view .LVU540
	.thumb
	.syntax unified
	b	.L108
.LVL144:
.L107:
	.loc 1 269 3 view .LVU541
	mov	r2, r3
	mov	r1, r4
	bl	llcp_lp_pu_rx
.LVL145:
	.loc 1 270 3 view .LVU542
	b	.L108
.L113:
	.align	2
.L112:
	.word	.LC0
	.word	.LC4
	.word	.LC2
	.cfi_endproc
.LFE515:
	.size	llcp_lr_rx, .-llcp_lr_rx
	.section	.text.llcp_lr_tx_ack,"ax",%progbits
	.align	1
	.p2align 2,,3
	.global	llcp_lr_tx_ack
	.syntax unified
	.thumb
	.thumb_func
	.type	llcp_lr_tx_ack, %function
llcp_lr_tx_ack:
.LVL146:
.LFB516:
	.loc 1 319 1 view -0
	.cfi_startproc
	@ args = 0, pretend = 0, frame = 0
	@ frame_needed = 0, uses_anonymous_args = 0
	.loc 1 320 2 view .LVU544
	.loc 1 319 1 is_stmt 0 view .LVU545
	push	{r3, r4, r5, lr}
	.cfi_def_cfa_offset 16
	.cfi_offset 3, -16
	.cfi_offset 4, -12
	.cfi_offset 5, -8
	.cfi_offset 14, -4
	.loc 1 320 2 view .LVU546
	ldrb	r3, [r1, #8]	@ zero_extendqisi2
	subs	r3, r3, #3
	.loc 1 319 1 view .LVU547
	mov	r4, r1
	mov	r5, r0
	.loc 1 320 2 view .LVU548
	cmp	r3, #9
	bhi	.L115
	tbb	[pc, r3]
.LVL147:
.L117:
	.byte	(.L116-.L117)/2
	.byte	(.L115-.L117)/2
	.byte	(.L115-.L117)/2
	.byte	(.L115-.L117)/2
	.byte	(.L118-.L117)/2
	.byte	(.L115-.L117)/2
	.byte	(.L115-.L117)/2
	.byte	(.L116-.L117)/2
	.byte	(.L115-.L117)/2
	.byte	(.L116-.L117)/2
	.p2align 1
.L116:
	.loc 1 323 3 is_stmt 1 view .LVU549
	mov	r1, r4
	bl	llcp_lp_comm_tx_ack
.LVL148:
	.loc 1 324 3 view .LVU550
.L115:
	.loc 1 350 2 view .LVU551
.LBB430:
.LBB431:
	.loc 1 78 5 is_stmt 0 view .LVU552
	ldr	r3, [r4, #36]
.LBE431:
.LBE430:
	.loc 1 350 23 view .LVU553
	movs	r2, #0
	str	r2, [r4, #24]
	.loc 1 352 2 is_stmt 1 view .LVU554
.LVL149:
.LBB436:
.LBI430:
	.loc 1 76 6 view .LVU555
.LBB432:
	.loc 1 78 2 view .LVU556
	.loc 1 78 5 is_stmt 0 view .LVU557
	cbnz	r3, .L122
.L114:
	.loc 1 78 5 view .LVU558
.LBE432:
.LBE436:
	.loc 1 353 1 view .LVU559
	pop	{r3, r4, r5, pc}
.LVL150:
.L118:
	.loc 1 336 3 is_stmt 1 view .LVU560
	mov	r1, r4
	bl	llcp_lp_pu_tx_ack
.LVL151:
	.loc 1 337 3 view .LVU561
	.loc 1 350 2 view .LVU562
.LBB437:
.LBB433:
	.loc 1 78 5 is_stmt 0 view .LVU563
	ldr	r3, [r4, #36]
.LBE433:
.LBE437:
	.loc 1 350 23 view .LVU564
	movs	r2, #0
	str	r2, [r4, #24]
	.loc 1 352 2 is_stmt 1 view .LVU565
.LVL152:
.LBB438:
	.loc 1 76 6 view .LVU566
.LBB434:
	.loc 1 78 2 view .LVU567
	.loc 1 78 5 is_stmt 0 view .LVU568
	cmp	r3, #0
	beq	.L114
.L122:
	.loc 1 78 5 view .LVU569
	mov	r1, r4
	mov	r0, r5
.LBE434:
.LBE438:
	.loc 1 353 1 view .LVU570
	pop	{r3, r4, r5, lr}
	.cfi_restore 14
	.cfi_restore 5
	.cfi_restore 4
	.cfi_restore 3
	.cfi_def_cfa_offset 0
.LVL153:
.LBB439:
.LBB435:
	.loc 1 353 1 view .LVU571
	b	llcp_lr_check_done.part.0
.LVL154:
	.loc 1 353 1 view .LVU572
.LBE435:
.LBE439:
	.cfi_endproc
.LFE516:
	.size	llcp_lr_tx_ack, .-llcp_lr_tx_ack
	.section	.text.llcp_lr_tx_ntf,"ax",%progbits
	.align	1
	.p2align 2,,3
	.global	llcp_lr_tx_ntf
	.syntax unified
	.thumb
	.thumb_func
	.type	llcp_lr_tx_ntf, %function
llcp_lr_tx_ntf:
.LVL155:
.LFB517:
	.loc 1 356 1 is_stmt 1 view -0
	.cfi_startproc
	@ args = 0, pretend = 0, frame = 0
	@ frame_needed = 0, uses_anonymous_args = 0
	.loc 1 357 2 view .LVU574
	.loc 1 356 1 is_stmt 0 view .LVU575
	push	{r3, r4, r5, lr}
	.cfi_def_cfa_offset 16
	.cfi_offset 3, -16
	.cfi_offset 4, -12
	.cfi_offset 5, -8
	.cfi_offset 14, -4
	.loc 1 357 2 view .LVU576
	ldrb	r3, [r1, #8]	@ zero_extendqisi2
	cmp	r3, #7
	.loc 1 356 1 view .LVU577
	mov	r4, r1
	mov	r5, r0
	.loc 1 357 2 view .LVU578
	beq	.L127
.LVL156:
.L124:
	.loc 1 368 2 is_stmt 1 view .LVU579
.LBB440:
.LBI440:
	.loc 1 76 6 view .LVU580
.LBB441:
	.loc 1 78 2 view .LVU581
	.loc 1 78 5 is_stmt 0 view .LVU582
	ldr	r3, [r4, #36]
	cbnz	r3, .L128
.LBE441:
.LBE440:
	.loc 1 369 1 view .LVU583
	pop	{r3, r4, r5, pc}
.LVL157:
.L128:
.LBB444:
.LBB442:
	.loc 1 369 1 view .LVU584
	mov	r1, r4
	mov	r0, r5
.LBE442:
.LBE444:
	pop	{r3, r4, r5, lr}
	.cfi_remember_state
	.cfi_restore 14
	.cfi_restore 5
	.cfi_restore 4
	.cfi_restore 3
	.cfi_def_cfa_offset 0
.LVL158:
.LBB445:
.LBB443:
	.loc 1 369 1 view .LVU585
	b	llcp_lr_check_done.part.0
.LVL159:
.L127:
	.cfi_restore_state
	.loc 1 369 1 view .LVU586
.LBE443:
.LBE445:
	.loc 1 360 3 is_stmt 1 view .LVU587
	bl	llcp_lp_pu_tx_ntf
.LVL160:
	.loc 1 361 3 view .LVU588
	b	.L124
	.cfi_endproc
.LFE517:
	.size	llcp_lr_tx_ntf, .-llcp_lr_tx_ntf
	.section	.text.llcp_lr_init,"ax",%progbits
	.align	1
	.p2align 2,,3
	.global	llcp_lr_init
	.syntax unified
	.thumb
	.thumb_func
	.type	llcp_lr_init, %function
llcp_lr_init:
.LVL161:
.LFB527:
	.loc 1 592 1 view -0
	.cfi_startproc
	@ args = 0, pretend = 0, frame = 0
	@ frame_needed = 0, uses_anonymous_args = 0
	@ link register save eliminated.
	.loc 1 593 2 view .LVU590
.LBB446:
.LBI446:
	.loc 1 122 13 view .LVU591
.LBB447:
	.loc 1 124 2 view .LVU592
	.loc 1 124 25 is_stmt 0 view .LVU593
	movs	r2, #2
.LBE447:
.LBE446:
	.loc 1 594 30 view .LVU594
	movs	r3, #0
.LBB449:
.LBB448:
	.loc 1 124 25 view .LVU595
	strb	r2, [r0, #240]
.LVL162:
	.loc 1 124 25 view .LVU596
.LBE448:
.LBE449:
	.loc 1 594 2 is_stmt 1 view .LVU597
	.loc 1 594 30 is_stmt 0 view .LVU598
	strh	r3, [r0, #242]	@ movhi
	.loc 1 595 1 view .LVU599
	bx	lr
	.cfi_endproc
.LFE527:
	.size	llcp_lr_init, .-llcp_lr_init
	.section	.text.llcp_lr_run,"ax",%progbits
	.align	1
	.p2align 2,,3
	.global	llcp_lr_run
	.syntax unified
	.thumb
	.thumb_func
	.type	llcp_lr_run, %function
llcp_lr_run:
.LVL163:
.LFB528:
	.loc 1 598 1 is_stmt 1 view -0
	.cfi_startproc
	@ args = 0, pretend = 0, frame = 0
	@ frame_needed = 0, uses_anonymous_args = 0
	.loc 1 599 2 view .LVU601
	.loc 1 598 1 is_stmt 0 view .LVU602
	push	{r3, r4, r5, lr}
	.cfi_def_cfa_offset 16
	.cfi_offset 3, -16
	.cfi_offset 4, -12
	.cfi_offset 5, -8
	.cfi_offset 14, -4
.LBB508:
.LBB509:
	.loc 1 572 2 view .LVU603
	ldrb	r3, [r0, #240]	@ zero_extendqisi2
.LBE509:
.LBE508:
	.loc 1 598 1 view .LVU604
	mov	r4, r0
.LVL164:
.LBB524:
.LBI508:
	.loc 1 570 13 is_stmt 1 view .LVU605
.LBB521:
	.loc 1 572 2 view .LVU606
	cmp	r3, #3
	bhi	.L131
	tbb	[pc, r3]
.L133:
	.byte	(.L135-.L133)/2
	.byte	(.L132-.L133)/2
	.byte	(.L130-.L133)/2
	.byte	(.L132-.L133)/2
	.p2align 1
.L135:
	.loc 1 577 3 view .LVU607
.LVL165:
.LBB510:
.LBI510:
	.loc 1 489 13 view .LVU608
.LBB511:
	.loc 1 491 2 view .LVU609
	.loc 1 493 2 view .LVU610
	.loc 1 495 3 view .LVU611
	.loc 1 495 9 is_stmt 0 view .LVU612
	bl	llcp_lr_peek
.LVL166:
	.loc 1 496 3 is_stmt 1 view .LVU613
	.loc 1 496 6 is_stmt 0 view .LVU614
	cbz	r0, .L130
.LBB512:
	.loc 1 501 4 is_stmt 1 view .LVU615
	.loc 1 501 25 is_stmt 0 view .LVU616
	ldrb	r5, [r0, #8]	@ zero_extendqisi2
.LVL167:
	.loc 1 502 4 is_stmt 1 view .LVU617
	mov	r0, r4
.LVL168:
	.loc 1 502 4 is_stmt 0 view .LVU618
	bl	lr_act_run
.LVL169:
	.loc 1 503 4 is_stmt 1 view .LVU619
	.loc 1 503 7 is_stmt 0 view .LVU620
	cmp	r5, #10
	.loc 1 504 5 is_stmt 1 view .LVU621
.LVL170:
.LBB513:
.LBI513:
	.loc 1 122 13 view .LVU622
.LBB514:
	.loc 1 124 2 view .LVU623
	.loc 1 124 25 is_stmt 0 view .LVU624
	ite	ne
	movne	r3, #1
.LBE514:
.LBE513:
	.loc 1 506 5 is_stmt 1 view .LVU625
.LVL171:
.LBB515:
.LBI515:
	.loc 1 122 13 view .LVU626
.LBB516:
	.loc 1 124 2 view .LVU627
	.loc 1 124 25 is_stmt 0 view .LVU628
	moveq	r3, #3
	strb	r3, [r4, #240]
.LVL172:
.L130:
	.loc 1 124 25 view .LVU629
.LBE516:
.LBE515:
.LBE512:
.LBE511:
.LBE510:
.LBE521:
.LBE524:
	.loc 1 600 1 view .LVU630
	pop	{r3, r4, r5, pc}
.LVL173:
.L132:
.LBB525:
.LBB522:
	.loc 1 580 3 is_stmt 1 view .LVU631
.LBB517:
.LBI517:
	.loc 1 526 13 view .LVU632
.LBB518:
	.loc 1 528 2 view .LVU633
	.loc 1 530 3 view .LVU634
	.loc 1 530 7 is_stmt 0 view .LVU635
	bl	llcp_lr_peek
.LVL174:
	.loc 1 530 6 view .LVU636
	cmp	r0, #0
	beq	.L130
	.loc 1 531 4 is_stmt 1 view .LVU637
	mov	r0, r4
.LBE518:
.LBE517:
.LBE522:
.LBE525:
	.loc 1 600 1 is_stmt 0 view .LVU638
	pop	{r3, r4, r5, lr}
	.cfi_remember_state
	.cfi_restore 14
	.cfi_restore 5
	.cfi_restore 4
	.cfi_restore 3
	.cfi_def_cfa_offset 0
.LVL175:
.LBB526:
.LBB523:
.LBB520:
.LBB519:
	.loc 1 531 4 view .LVU639
	b	lr_act_run
.LVL176:
.L131:
	.cfi_restore_state
	.loc 1 531 4 view .LVU640
.LBE519:
.LBE520:
	.loc 1 587 3 is_stmt 1 view .LVU641
	.loc 1 587 8 view .LVU642
	.loc 1 587 20 view .LVU643
	ldr	r2, .L144
	ldr	r1, .L144+4
	ldr	r0, .L144+8
.LVL177:
	.loc 1 587 20 is_stmt 0 view .LVU644
	movw	r3, #587
	bl	assert_print
.LVL178:
	.loc 1 587 150 is_stmt 1 view .LVU645
	.loc 1 587 155 view .LVU646
	.syntax unified
@ 587 "/home/g/mise-work/zmk-firmware/zmk/zephyr/subsys/bluetooth/controller/ll_sw/ull_llcp_local.c" 1
	eors.n r0, r0
	msr BASEPRI, r0
	mov r0, #3
	svc #2
	
@ 0 "" 2
	.loc 1 587 153 view .LVU647
	.loc 1 587 6 view .LVU648
.LVL179:
	.loc 1 587 6 is_stmt 0 view .LVU649
	.thumb
	.syntax unified
.LBE523:
.LBE526:
	.loc 1 600 1 view .LVU650
	pop	{r3, r4, r5, pc}
.LVL180:
.L145:
	.loc 1 600 1 view .LVU651
	.align	2
.L144:
	.word	.LC0
	.word	.LC4
	.word	.LC2
	.cfi_endproc
.LFE528:
	.size	llcp_lr_run, .-llcp_lr_run
	.section	.text.llcp_lr_complete,"ax",%progbits
	.align	1
	.p2align 2,,3
	.global	llcp_lr_complete
	.syntax unified
	.thumb
	.thumb_func
	.type	llcp_lr_complete, %function
llcp_lr_complete:
.LVL181:
.LFB529:
	.loc 1 603 1 is_stmt 1 view -0
	.cfi_startproc
	@ args = 0, pretend = 0, frame = 0
	@ frame_needed = 0, uses_anonymous_args = 0
	.loc 1 604 2 view .LVU653
	.loc 1 603 1 is_stmt 0 view .LVU654
	push	{r4, lr}
	.cfi_def_cfa_offset 8
	.cfi_offset 4, -8
	.cfi_offset 14, -4
.LBB564:
.LBB565:
	.loc 1 572 2 view .LVU655
	ldrb	r3, [r0, #240]	@ zero_extendqisi2
.LBE565:
.LBE564:
	.loc 1 603 1 view .LVU656
	mov	r4, r0
.LVL182:
.LBB577:
.LBI564:
	.loc 1 570 13 is_stmt 1 view .LVU657
.LBB574:
	.loc 1 572 2 view .LVU658
	cmp	r3, #3
	bhi	.L147
	tbb	[pc, r3]
.L149:
	.byte	(.L151-.L149)/2
	.byte	(.L148-.L149)/2
	.byte	(.L146-.L149)/2
	.byte	(.L148-.L149)/2
	.p2align 1
.L148:
	.loc 1 580 3 view .LVU659
.LVL183:
.LBB566:
.LBI566:
	.loc 1 526 13 view .LVU660
.LBB567:
	.loc 1 528 2 view .LVU661
	.loc 1 535 3 view .LVU662
	bl	lr_act_complete
.LVL184:
	.loc 1 536 3 view .LVU663
.LBB568:
.LBI568:
	.loc 1 122 13 view .LVU664
.LBB569:
	.loc 1 124 2 view .LVU665
	.loc 1 124 25 is_stmt 0 view .LVU666
	movs	r3, #0
	strb	r3, [r4, #240]
.LVL185:
.L146:
	.loc 1 124 25 view .LVU667
.LBE569:
.LBE568:
.LBE567:
.LBE566:
.LBE574:
.LBE577:
	.loc 1 605 1 view .LVU668
	pop	{r4, pc}
.LVL186:
.L151:
.LBB578:
.LBB575:
	.loc 1 577 3 is_stmt 1 view .LVU669
.LBB570:
.LBI570:
	.loc 1 489 13 view .LVU670
.LBB571:
	.loc 1 491 2 view .LVU671
	.loc 1 493 2 view .LVU672
	.loc 1 518 3 view .LVU673
.LBE571:
.LBE570:
.LBE575:
.LBE578:
	.loc 1 605 1 is_stmt 0 view .LVU674
	pop	{r4, lr}
	.cfi_remember_state
	.cfi_restore 14
	.cfi_restore 4
	.cfi_def_cfa_offset 0
.LBB579:
.LBB576:
.LBB573:
.LBB572:
	.loc 1 518 3 view .LVU675
	b	lr_act_complete
.LVL187:
.L147:
	.cfi_restore_state
	.loc 1 518 3 view .LVU676
.LBE572:
.LBE573:
	.loc 1 587 3 is_stmt 1 view .LVU677
	.loc 1 587 8 view .LVU678
	.loc 1 587 20 view .LVU679
	ldr	r2, .L154
	ldr	r1, .L154+4
	ldr	r0, .L154+8
.LVL188:
	.loc 1 587 20 is_stmt 0 view .LVU680
	movw	r3, #587
	bl	assert_print
.LVL189:
	.loc 1 587 150 is_stmt 1 view .LVU681
	.loc 1 587 155 view .LVU682
	.syntax unified
@ 587 "/home/g/mise-work/zmk-firmware/zmk/zephyr/subsys/bluetooth/controller/ll_sw/ull_llcp_local.c" 1
	eors.n r0, r0
	msr BASEPRI, r0
	mov r0, #3
	svc #2
	
@ 0 "" 2
	.loc 1 587 153 view .LVU683
	.loc 1 587 6 view .LVU684
.LVL190:
	.loc 1 587 6 is_stmt 0 view .LVU685
	.thumb
	.syntax unified
.LBE576:
.LBE579:
	.loc 1 605 1 view .LVU686
	pop	{r4, pc}
.LVL191:
.L155:
	.loc 1 605 1 view .LVU687
	.align	2
.L154:
	.word	.LC0
	.word	.LC4
	.word	.LC2
	.cfi_endproc
.LFE529:
	.size	llcp_lr_complete, .-llcp_lr_complete
	.section	.text.llcp_lr_connect,"ax",%progbits
	.align	1
	.p2align 2,,3
	.global	llcp_lr_connect
	.syntax unified
	.thumb
	.thumb_func
	.type	llcp_lr_connect, %function
llcp_lr_connect:
.LVL192:
.LFB530:
	.loc 1 608 1 is_stmt 1 view -0
	.cfi_startproc
	@ args = 0, pretend = 0, frame = 0
	@ frame_needed = 0, uses_anonymous_args = 0
	.loc 1 609 2 view .LVU689
.LBB617:
.LBI617:
	.loc 1 570 13 view .LVU690
.LBB618:
	.loc 1 572 2 view .LVU691
.LBE618:
.LBE617:
	.loc 1 608 1 is_stmt 0 view .LVU692
	push	{r3, lr}
	.cfi_def_cfa_offset 8
	.cfi_offset 3, -8
	.cfi_offset 14, -4
.LBB625:
.LBB622:
	.loc 1 572 26 view .LVU693
	ldrb	r3, [r0, #240]	@ zero_extendqisi2
	.loc 1 572 2 view .LVU694
	cmp	r3, #2
	beq	.L157
	bhi	.L165
.L156:
.LBE622:
.LBE625:
	.loc 1 610 1 view .LVU695
	pop	{r3, pc}
.L165:
.LBB626:
.LBB623:
	.loc 1 572 2 view .LVU696
	cmp	r3, #3
	beq	.L156
	.loc 1 587 3 is_stmt 1 view .LVU697
	.loc 1 587 8 view .LVU698
	.loc 1 587 20 view .LVU699
	ldr	r2, .L166
	ldr	r1, .L166+4
	ldr	r0, .L166+8
.LVL193:
	.loc 1 587 20 is_stmt 0 view .LVU700
	movw	r3, #587
	bl	assert_print
.LVL194:
	.loc 1 587 150 is_stmt 1 view .LVU701
	.loc 1 587 155 view .LVU702
	.syntax unified
@ 587 "/home/g/mise-work/zmk-firmware/zmk/zephyr/subsys/bluetooth/controller/ll_sw/ull_llcp_local.c" 1
	eors.n r0, r0
	msr BASEPRI, r0
	mov r0, #3
	svc #2
	
@ 0 "" 2
	.loc 1 587 153 view .LVU703
	.loc 1 587 6 view .LVU704
.LVL195:
	.loc 1 587 6 is_stmt 0 view .LVU705
	.thumb
	.syntax unified
.LBE623:
.LBE626:
	.loc 1 610 1 view .LVU706
	pop	{r3, pc}
.LVL196:
.L157:
.LBB627:
.LBB624:
	.loc 1 574 3 is_stmt 1 view .LVU707
.LBB619:
.LBI619:
	.loc 1 476 13 view .LVU708
	.loc 1 478 2 view .LVU709
	.loc 1 480 3 view .LVU710
	.loc 1 481 3 view .LVU711
.LBB620:
.LBI620:
	.loc 1 122 13 view .LVU712
.LBB621:
	.loc 1 124 2 view .LVU713
	.loc 1 124 25 is_stmt 0 view .LVU714
	movs	r3, #0
	strb	r3, [r0, #240]
.LBE621:
.LBE620:
.LBE619:
.LBE624:
.LBE627:
	.loc 1 610 1 view .LVU715
	pop	{r3, pc}
.L167:
	.align	2
.L166:
	.word	.LC0
	.word	.LC4
	.word	.LC2
	.cfi_endproc
.LFE530:
	.size	llcp_lr_connect, .-llcp_lr_connect
	.section	.text.llcp_lr_disconnect,"ax",%progbits
	.align	1
	.p2align 2,,3
	.global	llcp_lr_disconnect
	.syntax unified
	.thumb
	.thumb_func
	.type	llcp_lr_disconnect, %function
llcp_lr_disconnect:
.LVL197:
.LFB531:
	.loc 1 613 1 is_stmt 1 view -0
	.cfi_startproc
	@ args = 0, pretend = 0, frame = 0
	@ frame_needed = 0, uses_anonymous_args = 0
	.loc 1 614 2 view .LVU717
	.loc 1 613 1 is_stmt 0 view .LVU718
	push	{r3, r4, r5, lr}
	.cfi_def_cfa_offset 16
	.cfi_offset 3, -16
	.cfi_offset 4, -12
	.cfi_offset 5, -8
	.cfi_offset 14, -4
.LBB667:
.LBB668:
	.loc 1 572 2 view .LVU719
	ldrb	r3, [r0, #240]	@ zero_extendqisi2
.LBE668:
.LBE667:
	.loc 1 613 1 view .LVU720
	mov	r4, r0
.LVL198:
.LBB686:
.LBI667:
	.loc 1 570 13 is_stmt 1 view .LVU721
.LBB684:
	.loc 1 572 2 view .LVU722
	cmp	r3, #3
	bhi	.L169
	tbb	[pc, r3]
.L171:
	.byte	(.L193-.L171)/2
	.byte	(.L173-.L171)/2
	.byte	(.L168-.L171)/2
	.byte	(.L170-.L171)/2
.LVL199:
	.p2align 1
.L176:
.LBB669:
.LBB670:
.LBB671:
.LBB672:
.LBB673:
	.loc 1 231 3 view .LVU723
	mov	r0, r4
.LVL200:
	.loc 1 231 3 is_stmt 0 view .LVU724
	mov	r1, r5
	bl	llcp_nodes_release
.LVL201:
	.loc 1 232 3 is_stmt 1 view .LVU725
	mov	r0, r5
	bl	llcp_proc_ctx_release
.LVL202:
.L193:
	.loc 1 233 3 view .LVU726
	.loc 1 233 9 is_stmt 0 view .LVU727
	mov	r0, r4
	bl	lr_dequeue
.LVL203:
	.loc 1 230 9 is_stmt 1 view .LVU728
	mov	r5, r0
	cmp	r0, #0
	bne	.L176
.LVL204:
.L175:
	.loc 1 230 9 is_stmt 0 view .LVU729
.LBE673:
.LBE672:
.LBE671:
	.loc 1 512 3 is_stmt 1 view .LVU730
.LBB674:
.LBI674:
	.loc 1 122 13 view .LVU731
.LBB675:
	.loc 1 124 2 view .LVU732
	.loc 1 124 25 is_stmt 0 view .LVU733
	movs	r3, #2
	strb	r3, [r4, #240]
.LVL205:
.L168:
	.loc 1 124 25 view .LVU734
.LBE675:
.LBE674:
.LBE670:
.LBE669:
.LBE684:
.LBE686:
	.loc 1 615 1 view .LVU735
	pop	{r3, r4, r5, pc}
.LVL206:
.L170:
.LBB687:
.LBB685:
	.loc 1 583 3 is_stmt 1 view .LVU736
.LBB676:
.LBI676:
	.loc 1 526 13 view .LVU737
	.loc 1 528 2 view .LVU738
	.loc 1 539 3 view .LVU739
.LBB677:
.LBI677:
	.loc 1 471 13 view .LVU740
	.loc 1 473 2 view .LVU741
.LBB678:
.LBI678:
	.loc 1 224 6 view .LVU742
.LBB679:
	.loc 1 226 2 view .LVU743
	.loc 1 229 2 view .LVU744
	.loc 1 229 8 is_stmt 0 view .LVU745
	bl	lr_dequeue
.LVL207:
	.loc 1 230 2 is_stmt 1 view .LVU746
	.loc 1 230 9 view .LVU747
	mov	r5, r0
	cmp	r0, #0
	beq	.L175
.L178:
	.loc 1 231 3 view .LVU748
	mov	r1, r5
	mov	r0, r4
.LVL208:
	.loc 1 231 3 is_stmt 0 view .LVU749
	bl	llcp_nodes_release
.LVL209:
	.loc 1 232 3 is_stmt 1 view .LVU750
	mov	r0, r5
	bl	llcp_proc_ctx_release
.LVL210:
	.loc 1 233 3 view .LVU751
	.loc 1 233 9 is_stmt 0 view .LVU752
	mov	r0, r4
	bl	lr_dequeue
.LVL211:
	.loc 1 230 9 is_stmt 1 view .LVU753
	mov	r5, r0
	cmp	r0, #0
	bne	.L178
	b	.L175
.LVL212:
.L173:
	.loc 1 230 9 is_stmt 0 view .LVU754
.LBE679:
.LBE678:
.LBE677:
.LBE676:
	.loc 1 580 3 is_stmt 1 view .LVU755
.LBB680:
.LBI680:
	.loc 1 526 13 view .LVU756
	.loc 1 528 2 view .LVU757
	.loc 1 539 3 view .LVU758
.LBB681:
.LBI681:
	.loc 1 471 13 view .LVU759
	.loc 1 473 2 view .LVU760
.LBB682:
.LBI682:
	.loc 1 224 6 view .LVU761
.LBB683:
	.loc 1 226 2 view .LVU762
	.loc 1 229 2 view .LVU763
	.loc 1 229 8 is_stmt 0 view .LVU764
	bl	lr_dequeue
.LVL213:
	.loc 1 230 2 is_stmt 1 view .LVU765
	.loc 1 230 9 view .LVU766
	mov	r5, r0
	cmp	r0, #0
	beq	.L175
.L177:
	.loc 1 231 3 view .LVU767
	mov	r1, r5
	mov	r0, r4
.LVL214:
	.loc 1 231 3 is_stmt 0 view .LVU768
	bl	llcp_nodes_release
.LVL215:
	.loc 1 232 3 is_stmt 1 view .LVU769
	mov	r0, r5
	bl	llcp_proc_ctx_release
.LVL216:
	.loc 1 233 3 view .LVU770
	.loc 1 233 9 is_stmt 0 view .LVU771
	mov	r0, r4
	bl	lr_dequeue
.LVL217:
	.loc 1 230 9 is_stmt 1 view .LVU772
	mov	r5, r0
	cmp	r0, #0
	bne	.L177
	b	.L175
.LVL218:
.L169:
	.loc 1 230 9 is_stmt 0 view .LVU773
.LBE683:
.LBE682:
.LBE681:
.LBE680:
	.loc 1 587 3 is_stmt 1 view .LVU774
	.loc 1 587 8 view .LVU775
	.loc 1 587 20 view .LVU776
	ldr	r2, .L194
	ldr	r1, .L194+4
	ldr	r0, .L194+8
.LVL219:
	.loc 1 587 20 is_stmt 0 view .LVU777
	movw	r3, #587
	bl	assert_print
.LVL220:
	.loc 1 587 150 is_stmt 1 view .LVU778
	.loc 1 587 155 view .LVU779
	.syntax unified
@ 587 "/home/g/mise-work/zmk-firmware/zmk/zephyr/subsys/bluetooth/controller/ll_sw/ull_llcp_local.c" 1
	eors.n r0, r0
	msr BASEPRI, r0
	mov r0, #3
	svc #2
	
@ 0 "" 2
	.loc 1 587 153 view .LVU780
	.loc 1 587 6 view .LVU781
.LVL221:
	.loc 1 587 6 is_stmt 0 view .LVU782
	.thumb
	.syntax unified
.LBE685:
.LBE687:
	.loc 1 615 1 view .LVU783
	pop	{r3, r4, r5, pc}
.LVL222:
.L195:
	.loc 1 615 1 view .LVU784
	.align	2
.L194:
	.word	.LC0
	.word	.LC4
	.word	.LC2
	.cfi_endproc
.LFE531:
	.size	llcp_lr_disconnect, .-llcp_lr_disconnect
	.section	.text.llcp_lr_terminate,"ax",%progbits
	.align	1
	.p2align 2,,3
	.global	llcp_lr_terminate
	.syntax unified
	.thumb
	.thumb_func
	.type	llcp_lr_terminate, %function
llcp_lr_terminate:
.LVL223:
.LFB532:
	.loc 1 618 1 is_stmt 1 view -0
	.cfi_startproc
	@ args = 0, pretend = 0, frame = 0
	@ frame_needed = 0, uses_anonymous_args = 0
	.loc 1 620 2 view .LVU786
	.loc 1 618 1 is_stmt 0 view .LVU787
	push	{r3, r4, r5, lr}
	.cfi_def_cfa_offset 16
	.cfi_offset 3, -16
	.cfi_offset 4, -12
	.cfi_offset 5, -8
	.cfi_offset 14, -4
	.loc 1 618 1 view .LVU788
	mov	r5, r0
.LVL224:
.LBB694:
.LBI694:
	.loc 1 224 6 is_stmt 1 view .LVU789
.LBB695:
	.loc 1 226 2 view .LVU790
	.loc 1 229 2 view .LVU791
	.loc 1 229 8 is_stmt 0 view .LVU792
	bl	lr_dequeue
.LVL225:
	.loc 1 230 2 is_stmt 1 view .LVU793
	.loc 1 230 9 view .LVU794
	cbz	r0, .L197
	mov	r4, r0
.L198:
	.loc 1 231 3 view .LVU795
	mov	r1, r4
	mov	r0, r5
.LVL226:
	.loc 1 231 3 is_stmt 0 view .LVU796
	bl	llcp_nodes_release
.LVL227:
	.loc 1 232 3 is_stmt 1 view .LVU797
	mov	r0, r4
	bl	llcp_proc_ctx_release
.LVL228:
	.loc 1 233 3 view .LVU798
	.loc 1 233 9 is_stmt 0 view .LVU799
	mov	r0, r5
	bl	lr_dequeue
.LVL229:
	.loc 1 230 9 is_stmt 1 view .LVU800
	mov	r4, r0
	cmp	r0, #0
	bne	.L198
.L197:
.LVL230:
	.loc 1 230 9 is_stmt 0 view .LVU801
.LBE695:
.LBE694:
	.loc 1 621 2 is_stmt 1 view .LVU802
.LBB696:
.LBI696:
	.loc 1 219 6 view .LVU803
.LBB697:
	.loc 1 221 2 view .LVU804
	.loc 1 221 30 is_stmt 0 view .LVU805
	movs	r4, #0
	strh	r4, [r5, #242]	@ movhi
.LVL231:
	.loc 1 221 30 view .LVU806
.LBE697:
.LBE696:
	.loc 1 622 2 is_stmt 1 view .LVU807
	mov	r1, r4
	mov	r0, r5
	bl	llcp_rr_set_incompat
.LVL232:
	.loc 1 623 2 view .LVU808
.LBB698:
.LBI698:
	.loc 1 122 13 view .LVU809
.LBB699:
	.loc 1 124 2 view .LVU810
	.loc 1 124 25 is_stmt 0 view .LVU811
	strb	r4, [r5, #240]
.LVL233:
	.loc 1 124 25 view .LVU812
.LBE699:
.LBE698:
	.loc 1 624 1 view .LVU813
	pop	{r3, r4, r5, pc}
	.loc 1 624 1 view .LVU814
	.cfi_endproc
.LFE532:
	.size	llcp_lr_terminate, .-llcp_lr_terminate
	.text
.Letext0:
	.file 3 "/home/g/zephyr-sdk-0.16.3/arm-zephyr-eabi/picolibc/include/machine/_default_types.h"
	.file 4 "/home/g/zephyr-sdk-0.16.3/arm-zephyr-eabi/picolibc/include/sys/_stdint.h"
	.file 5 "/home/g/mise-work/zmk-firmware/zmk/zephyr/subsys/bluetooth/controller/./hal/ccm.h"
	.file 6 "/home/g/mise-work/zmk-firmware/zmk/zephyr/subsys/bluetooth/controller/./util/memq.h"
	.file 7 "/home/g/mise-work/zmk-firmware/zmk/zephyr/subsys/bluetooth/controller/ll_sw/pdu_df.h"
	.file 8 "/home/g/mise-work/zmk-firmware/zmk/zephyr/include/zephyr/fatal_types.h"
	.file 9 "/home/g/mise-work/zmk-firmware/zmk/zephyr/subsys/bluetooth/controller/ll_sw/pdu.h"
	.file 10 "/home/g/mise-work/zmk-firmware/zmk/zephyr/subsys/bluetooth/controller/ll_sw/lll.h"
	.file 11 "/home/g/mise-work/zmk-firmware/zmk/zephyr/subsys/bluetooth/controller/ll_sw/nordic/lll/lll_df_types.h"
	.file 12 "/home/g/mise-work/zmk-firmware/zmk/zephyr/subsys/bluetooth/controller/ll_sw/lll_conn.h"
	.file 13 "/home/g/mise-work/zmk-firmware/zmk/zephyr/subsys/bluetooth/controller/ll_sw/ull_tx_queue.h"
	.file 14 "/home/g/mise-work/zmk-firmware/zmk/zephyr/subsys/bluetooth/controller/ll_sw/ull_conn_types.h"
	.file 15 "/home/g/mise-work/zmk-firmware/zmk/zephyr/subsys/bluetooth/controller/ll_sw/ull_llcp_internal.h"
	.file 16 "/home/g/mise-work/zmk-firmware/zmk/zephyr/subsys/bluetooth/controller/./util/mayfly.h"
	.file 17 "/home/g/mise-work/zmk-firmware/zmk/zephyr/include/zephyr/sys/__assert.h"