	.cpu cortex-m4
	.arch armv7e-m
	.fpu fpv4-sp-d16
	.eabi_attribute 27, 1
	.eabi_attribute 28, 1
	.eabi_attribute 20, 1
	.eabi_attribute 21, 1
	.eabi_attribute 23, 3
	.eabi_attribute 24, 1
	.eabi_attribute 25, 1
	.eabi_attribute 26, 1
	.eabi_attribute 30, 2
	.eabi_attribute 34, 1
	.eabi_attribute 38, 1
	.eabi_attribute 18, 4
	.file	"ull_peripheral.c"
	.text
.Ltext0:
	.cfi_sections	.debug_frame
	.file 1 "/home/g/mise-work/zmk-firmware/zmk/zephyr/subsys/bluetooth/controller/ll_sw/ull_peripheral.c"
	.section	.rodata.ticker_update_latency_cancel_op_cb.str1.4,"aMS",%progbits,1
	.align	2
.LC0:
	.ascii	"WEST_TOPDIR/zephyr/subsys/bluetooth/controller/ll_s"
	.ascii	"w/ull_peripheral.c\000"
	.align	2
.LC1:
	.ascii	"ticker_status == 0\000"
	.align	2
.LC2:
	.ascii	"ASSERTION FAIL [%s] @ %s:%d\012\000"
	.section	.text.ticker_update_latency_cancel_op_cb,"ax",%progbits
	.align	1
	.p2align 2,,3
	.syntax unified
	.thumb
	.thumb_func
	.type	ticker_update_latency_cancel_op_cb, %function
ticker_update_latency_cancel_op_cb:
.LVL0:
.LFB1078:
	.loc 1 646 1 view -0
	.cfi_startproc
	@ args = 0, pretend = 0, frame = 0
	@ frame_needed = 0, uses_anonymous_args = 0
	.loc 1 647 2 view .LVU1
	.loc 1 646 1 is_stmt 0 view .LVU2
	push	{r4, lr}
	.cfi_def_cfa_offset 8
	.cfi_offset 4, -8
	.cfi_offset 14, -4
	.loc 1 646 1 view .LVU3
	mov	r4, r1
.LVL1:
	.loc 1 649 2 is_stmt 1 view .LVU4
	.loc 1 649 7 view .LVU5
	.loc 1 649 10 is_stmt 0 view .LVU6
	cbnz	r0, .L8
	.loc 1 649 186 is_stmt 1 discriminator 3 view .LVU7
	.loc 1 649 5 discriminator 3 view .LVU8
	.loc 1 651 2 discriminator 3 view .LVU9
	.loc 1 651 30 is_stmt 0 discriminator 3 view .LVU10
	ldrb	r3, [r4, #372]	@ zero_extendqisi2
	bfc	r3, #0, #1
	strb	r3, [r4, #372]
	.loc 1 652 1 discriminator 3 view .LVU11
	pop	{r4, pc}
.L8:
	.loc 1 649 36 is_stmt 1 discriminator 1 view .LVU12
	ldr	r2, .L9
	ldr	r1, .L9+4
.LVL2:
	.loc 1 649 36 is_stmt 0 discriminator 1 view .LVU13
	ldr	r0, .L9+8
.LVL3:
	.loc 1 649 36 discriminator 1 view .LVU14
	movw	r3, #649
	bl	assert_print
.LVL4:
	.loc 1 649 183 is_stmt 1 discriminator 1 view .LVU15
	.loc 1 649 188 discriminator 1 view .LVU16
	.syntax unified
@ 649 "/home/g/mise-work/zmk-firmware/zmk/zephyr/subsys/bluetooth/controller/ll_sw/ull_peripheral.c" 1
	eors.n r0, r0
	msr BASEPRI, r0
	mov r0, #3
	svc #2
	
@ 0 "" 2
	.loc 1 649 186 discriminator 1 view .LVU17
	.loc 1 649 5 discriminator 1 view .LVU18
	.loc 1 651 2 discriminator 1 view .LVU19
	.loc 1 651 30 is_stmt 0 discriminator 1 view .LVU20
	.thumb
	.syntax unified
	ldrb	r3, [r4, #372]	@ zero_extendqisi2
	bfc	r3, #0, #1
	strb	r3, [r4, #372]
	.loc 1 652 1 discriminator 1 view .LVU21
	pop	{r4, pc}
.LVL5:
.L10:
	.loc 1 652 1 discriminator 1 view .LVU22
	.align	2
.L9:
	.word	.LC0
	.word	.LC1
	.word	.LC2
	.cfi_endproc
.LFE1078:
	.size	ticker_update_latency_cancel_op_cb, .-ticker_update_latency_cancel_op_cb
	.section	.rodata.ticker_op_cb.str1.4,"aMS",%progbits,1
	.align	2
.LC3:
	.ascii	"status == 0\000"
	.section	.text.ticker_op_cb,"ax",%progbits
	.align	1
	.p2align 2,,3
	.syntax unified
	.thumb
	.thumb_func
	.type	ticker_op_cb, %function
ticker_op_cb:
.LVL6:
.LFB1077:
	.loc 1 638 1 is_stmt 1 view -0
	.cfi_startproc
	@ args = 0, pretend = 0, frame = 0
	@ frame_needed = 0, uses_anonymous_args = 0
	.loc 1 639 2 view .LVU24
	.loc 1 641 2 view .LVU25
	.loc 1 641 7 view .LVU26
	.loc 1 641 10 is_stmt 0 view .LVU27
	cbnz	r0, .L20
	bx	lr
.L20:
.LBB33:
.LBI33:
	.loc 1 637 13 is_stmt 1 view .LVU28
.LVL7:
.LBB34:
	.loc 1 641 29 view .LVU29
.LBE34:
.LBE33:
	.loc 1 638 1 is_stmt 0 view .LVU30
	push	{r3, lr}
	.cfi_def_cfa_offset 8
	.cfi_offset 3, -8
	.cfi_offset 14, -4
.LBB36:
.LBB35:
	.loc 1 641 29 view .LVU31
	ldr	r2, .L21
	ldr	r1, .L21+4
.LVL8:
	.loc 1 641 29 view .LVU32
	ldr	r0, .L21+8
.LVL9:
	.loc 1 641 29 view .LVU33
	movw	r3, #641
	bl	assert_print
.LVL10:
	.loc 1 641 169 is_stmt 1 view .LVU34
	.loc 1 641 174 view .LVU35
	.syntax unified
@ 641 "/home/g/mise-work/zmk-firmware/zmk/zephyr/subsys/bluetooth/controller/ll_sw/ull_peripheral.c" 1
	eors.n r0, r0
	msr BASEPRI, r0
	mov r0, #3
	svc #2
	
@ 0 "" 2
	.loc 1 641 172 view .LVU36
	.loc 1 641 5 view .LVU37
.LVL11:
	.loc 1 641 5 is_stmt 0 view .LVU38
	.thumb
	.syntax unified
.LBE35:
.LBE36:
	.loc 1 641 172 is_stmt 1 view .LVU39
	.loc 1 641 5 view .LVU40
	.loc 1 642 1 is_stmt 0 view .LVU41
	pop	{r3, pc}
.L22:
	.align	2
.L21:
	.word	.LC0
	.word	.LC3
	.word	.LC2
	.cfi_endproc
.LFE1077:
	.size	ticker_op_cb, .-ticker_op_cb
	.section	.rodata.ticker_op_stop_adv_cb.str1.4,"aMS",%progbits,1
	.align	2
.LC4:
	.ascii	"status != 1 || param == ull_disable_mark_get()\000"
	.section	.text.ticker_op_stop_adv_cb,"ax",%progbits
	.align	1
	.p2align 2,,3
	.syntax unified
	.thumb
	.thumb_func
	.type	ticker_op_stop_adv_cb, %function
ticker_op_stop_adv_cb:
.LVL12:
.LFB1076:
	.loc 1 632 1 is_stmt 1 view -0
	.cfi_startproc
	@ args = 0, pretend = 0, frame = 0
	@ frame_needed = 0, uses_anonymous_args = 0
	.loc 1 633 2 view .LVU43
	.loc 1 633 7 view .LVU44
	.loc 1 633 10 is_stmt 0 view .LVU45
	cmp	r0, #1
	beq	.L31
	bx	lr
.L31:
	.loc 1 632 1 discriminator 1 view .LVU46
	push	{r4, lr}
	.cfi_def_cfa_offset 8
	.cfi_offset 4, -8
	.cfi_offset 14, -4
	mov	r4, r1
	.loc 1 633 37 discriminator 1 view .LVU47
	bl	ull_disable_mark_get
.LVL13:
	.loc 1 633 11 discriminator 1 view .LVU48
	cmp	r4, r0
	beq	.L23
.LBB39:
.LBI39:
	.loc 1 631 13 is_stmt 1 view .LVU49
.LVL14:
.LBB40:
	.loc 1 633 64 view .LVU50
	ldr	r2, .L32
	ldr	r1, .L32+4
	ldr	r0, .L32+8
	movw	r3, #633
	bl	assert_print
.LVL15:
	.loc 1 633 239 view .LVU51
	.loc 1 633 244 view .LVU52
	.syntax unified
@ 633 "/home/g/mise-work/zmk-firmware/zmk/zephyr/subsys/bluetooth/controller/ll_sw/ull_peripheral.c" 1
	eors.n r0, r0
	msr BASEPRI, r0
	mov r0, #3
	svc #2
	
@ 0 "" 2
	.loc 1 633 242 view .LVU53
	.loc 1 633 5 view .LVU54
.LVL16:
	.loc 1 633 5 is_stmt 0 view .LVU55
	.thumb
	.syntax unified
.LBE40:
.LBE39:
	.loc 1 633 242 is_stmt 1 view .LVU56
	.loc 1 633 5 view .LVU57
.L23:
	.loc 1 635 1 is_stmt 0 view .LVU58
	pop	{r4, pc}
.LVL17:
.L33:
	.loc 1 635 1 view .LVU59
	.align	2
.L32:
	.word	.LC0
	.word	.LC4
	.word	.LC2
	.cfi_endproc
.LFE1076:
	.size	ticker_op_stop_adv_cb, .-ticker_op_stop_adv_cb
	.section	.rodata.ull_periph_ticker_cb.str1.4,"aMS",%progbits,1
	.align	2
.LC5:
	.ascii	"ref\000"
	.align	2
.LC6:
	.ascii	"!err\000"
	.section	.text.ull_periph_ticker_cb,"ax",%progbits
	.align	1
	.p2align 2,,3
	.global	ull_periph_ticker_cb
	.syntax unified
	.thumb
	.thumb_func
	.type	ull_periph_ticker_cb, %function
ull_periph_ticker_cb:
.LVL18:
.LFB1073:
	.loc 1 500 1 is_stmt 1 view -0
	.cfi_startproc
	@ args = 8, pretend = 0, frame = 0
	@ frame_needed = 0, uses_anonymous_args = 0
	.loc 1 501 2 view .LVU61
	.loc 1 502 2 view .LVU62
	.loc 1 503 2 view .LVU63
	.loc 1 504 2 view .LVU64
	.loc 1 505 2 view .LVU65
	.loc 1 506 2 view .LVU66
	.loc 1 508 2 view .LVU67
	.loc 1 510 2 view .LVU68
	.loc 1 500 1 is_stmt 0 view .LVU69
	push	{r4, r5, r6, r7, r8, lr}
	.cfi_def_cfa_offset 24
	.cfi_offset 4, -24
	.cfi_offset 5, -20
	.cfi_offset 6, -16
	.cfi_offset 7, -12
	.cfi_offset 8, -8
	.cfi_offset 14, -4
	.loc 1 500 1 view .LVU70
	ldr	r4, [sp, #28]
.LVL19:
	.loc 1 514 2 is_stmt 1 view .LVU71
	.loc 1 500 1 is_stmt 0 view .LVU72
	ldrb	r8, [sp, #24]	@ zero_extendqisi2
	mov	r5, r0
	.loc 1 514 5 view .LVU73
	ldrh	r0, [r4, #40]
.LVL20:
	.loc 1 514 5 view .LVU74
	movw	r1, #65535
.LVL21:
	.loc 1 514 5 view .LVU75
	cmp	r0, r1
	beq	.L34
	.loc 1 525 2 is_stmt 1 view .LVU76
.LBB47:
	.loc 1 527 3 view .LVU77
	.loc 1 530 3 view .LVU78
	.loc 1 530 9 is_stmt 0 view .LVU79
	mov	r1, r5
	mov	r0, r4
	mov	r7, r2
	mov	r6, r3
	bl	ull_conn_llcp
.LVL22:
	.loc 1 531 3 is_stmt 1 view .LVU80
	.loc 1 531 6 is_stmt 0 view .LVU81
	cbnz	r0, .L34
.LVL23:
	.loc 1 531 6 view .LVU82
.LBE47:
.LBB48:
.LBI48:
	.loc 1 497 6 is_stmt 1 view .LVU83
.LBB49:
	.loc 1 549 2 view .LVU84
.LBB50:
.LBI50:
	.file 2 "/home/g/mise-work/zmk-firmware/zmk/zephyr/subsys/bluetooth/controller/ll_sw/ull_internal.h"
	.loc 2 53 23 view .LVU85
.LBB51:
	.loc 2 55 2 view .LVU86
	.loc 2 55 14 is_stmt 0 view .LVU87
	ldrb	r1, [r4]	@ zero_extendqisi2
	.loc 2 55 9 view .LVU88
	adds	r1, r1, #1
	uxtb	r1, r1
	strb	r1, [r4]
.LVL24:
	.loc 2 55 9 view .LVU89
.LBE51:
.LBE50:
	.loc 1 550 2 is_stmt 1 view .LVU90
	.loc 1 550 7 view .LVU91
	.loc 1 550 10 is_stmt 0 view .LVU92
	cbz	r1, .L44
.LVL25:
.L38:
	.loc 1 550 156 is_stmt 1 view .LVU93
	.loc 1 550 5 view .LVU94
	.loc 1 553 2 view .LVU95
	.loc 1 553 20 is_stmt 0 view .LVU96
	ldr	r1, .L46
	.loc 1 558 12 view .LVU97
	ldr	r3, .L46+4
	.loc 1 555 9 view .LVU98
	strh	r6, [r1, #8]	@ movhi
	.loc 1 557 12 view .LVU99
	add	r0, r4, #28
	.loc 1 561 8 view .LVU100
	movs	r2, #0
	.loc 1 557 10 view .LVU101
	str	r0, [r1, #12]
	.loc 1 554 14 view .LVU102
	strd	r5, r7, [r1]
	.loc 1 555 2 is_stmt 1 view .LVU103
	.loc 1 556 2 view .LVU104
	.loc 1 556 10 is_stmt 0 view .LVU105
	strb	r8, [r1, #10]
	.loc 1 557 2 is_stmt 1 view .LVU106
	.loc 1 558 2 view .LVU107
	.loc 1 558 12 is_stmt 0 view .LVU108
	str	r1, [r3, #8]
	.loc 1 561 2 is_stmt 1 view .LVU109
	.loc 1 561 8 is_stmt 0 view .LVU110
	movs	r0, #1
	mov	r1, r2
	bl	mayfly_enqueue
.LVL26:
	.loc 1 563 2 is_stmt 1 view .LVU111
	.loc 1 563 7 view .LVU112
	.loc 1 563 10 is_stmt 0 view .LVU113
	cbnz	r0, .L45
.LVL27:
.L39:
	.loc 1 563 158 is_stmt 1 view .LVU114
	.loc 1 563 5 view .LVU115
	.loc 1 566 2 view .LVU116
	movs	r0, #255
	bl	ull_conn_tx_demux
.LVL28:
	.loc 1 569 2 view .LVU117
	mov	r0, r4
	movs	r1, #255
.LBE49:
.LBE48:
	.loc 1 572 1 is_stmt 0 view .LVU118
	pop	{r4, r5, r6, r7, r8, lr}
	.cfi_remember_state
	.cfi_restore 14
	.cfi_restore 8
	.cfi_restore 7
	.cfi_restore 6
	.cfi_restore 5
	.cfi_restore 4
	.cfi_def_cfa_offset 0
.LVL29:
.LBB54:
.LBB52:
	.loc 1 569 2 view .LVU119
	b	ull_conn_tx_lll_enqueue
.LVL30:
.L34:
	.cfi_restore_state
	.loc 1 569 2 view .LVU120
.LBE52:
.LBE54:
	.loc 1 572 1 view .LVU121
	pop	{r4, r5, r6, r7, r8, pc}
.LVL31:
.L45:
.LBB55:
.LBB53:
	.loc 1 563 22 is_stmt 1 view .LVU122
	ldr	r2, .L46+8
	ldr	r1, .L46+12
	ldr	r0, .L46+16
.LVL32:
	.loc 1 563 22 is_stmt 0 view .LVU123
	movw	r3, #563
	bl	assert_print
.LVL33:
	.loc 1 563 155 is_stmt 1 view .LVU124
	.loc 1 563 160 view .LVU125
	.syntax unified
@ 563 "/home/g/mise-work/zmk-firmware/zmk/zephyr/subsys/bluetooth/controller/ll_sw/ull_peripheral.c" 1
	eors.n r0, r0
	msr BASEPRI, r0
	mov r0, #3
	svc #2
	
@ 0 "" 2
	.thumb
	.syntax unified
	b	.L39
.LVL34:
.L44:
	.loc 1 550 21 view .LVU126
	ldr	r2, .L46+8
	ldr	r1, .L46+20
.LVL35:
	.loc 1 550 21 is_stmt 0 view .LVU127
	ldr	r0, .L46+16
.LVL36:
	.loc 1 550 21 view .LVU128
	movw	r3, #550
	bl	assert_print
.LVL37:
	.loc 1 550 153 is_stmt 1 view .LVU129
	.loc 1 550 158 view .LVU130
	.syntax unified
@ 550 "/home/g/mise-work/zmk-firmware/zmk/zephyr/subsys/bluetooth/controller/ll_sw/ull_peripheral.c" 1
	eors.n r0, r0
	msr BASEPRI, r0
	mov r0, #3
	svc #2
	
@ 0 "" 2
	.thumb
	.syntax unified
	b	.L38
.L47:
	.align	2
.L46:
	.word	p.2
	.word	mfy.1
	.word	.LC0
	.word	.LC6
	.word	.LC2
	.word	.LC5
.LBE53:
.LBE55:
	.cfi_endproc
.LFE1073:
	.size	ull_periph_ticker_cb, .-ull_periph_ticker_cb
	.section	.rodata.ull_periph_setup.str1.4,"aMS",%progbits,1
	.align	2
.LC7:
	.ascii	"((((uintptr_t)node) % __alignof(struct node_rx_cc))"
	.ascii	" == 0)\000"
	.global	__aeabi_uldivmod
	.global	__aeabi_ldivmod
	.align	2
.LC8:
	.ascii	"(ticker_status == 0) || (ticker_status == 2)\000"
	.section	.text.ull_periph_setup,"ax",%progbits
	.align	1
	.p2align 2,,3
	.global	ull_periph_setup
	.syntax unified
	.thumb
	.thumb_func
	.type	ull_periph_setup, %function
ull_periph_setup:
.LVL38:
.LFB1071:
	.loc 1 72 1 view -0
	.cfi_startproc
	@ args = 0, pretend = 0, frame = 40
	@ frame_needed = 0, uses_anonymous_args = 0
	.loc 1 73 2 view .LVU132
	.loc 1 74 2 view .LVU133
	.loc 1 75 2 view .LVU134
	.loc 1 76 2 view .LVU135
	.loc 1 77 2 view .LVU136
	.loc 1 78 2 view .LVU137
	.loc 1 79 2 view .LVU138
	.loc 1 80 2 view .LVU139
	.loc 1 81 2 view .LVU140
	.loc 1 82 2 view .LVU141
	.loc 1 83 2 view .LVU142
	.loc 1 84 2 view .LVU143
	.loc 1 85 2 view .LVU144
	.loc 1 86 2 view .LVU145
	.loc 1 87 2 view .LVU146
	.loc 1 88 2 view .LVU147
	.loc 1 89 2 view .LVU148
	.loc 1 90 2 view .LVU149
	.loc 1 91 2 view .LVU150
	.loc 1 92 2 view .LVU151
	.loc 1 93 2 view .LVU152
	.loc 1 94 2 view .LVU153
	.loc 1 96 2 view .LVU154
	.loc 1 72 1 is_stmt 0 view .LVU155
	push	{r4, r5, r6, r7, r8, r9, r10, fp, lr}
	.cfi_def_cfa_offset 36
	.cfi_offset 4, -36
	.cfi_offset 5, -32
	.cfi_offset 6, -28
	.cfi_offset 7, -24
	.cfi_offset 8, -20
	.cfi_offset 9, -16
	.cfi_offset 10, -12
	.cfi_offset 11, -8
	.cfi_offset 14, -4
	mov	r4, r0
	.loc 1 96 6 view .LVU156
	ldr	r3, [r1]
	.loc 1 102 26 view .LVU157
	ldrb	r7, [r0, #28]	@ zero_extendqisi2
	.loc 1 97 7 view .LVU158
	ldr	r6, [r2]
	.loc 1 96 6 view .LVU159
	ldr	r10, [r3]
.LVL39:
	.loc 1 97 2 is_stmt 1 view .LVU160
	.loc 1 100 2 view .LVU161
	.loc 1 102 2 view .LVU162
	.loc 1 103 23 is_stmt 0 view .LVU163
	ldrh	r3, [r4, #34]	@ unaligned
	ldr	r0, [r0, #30]	@ unaligned
.LVL40:
	.loc 1 72 1 view .LVU164
	sub	sp, sp, #84
	.cfi_def_cfa_offset 120
	.loc 1 72 1 view .LVU165
	mov	r5, r2
	.loc 1 106 10 view .LVU166
	ldrb	r2, [r1, #17]	@ zero_extendqisi2
.LVL41:
	.loc 1 103 23 view .LVU167
	strh	r3, [sp, #76]	@ unaligned
	.loc 1 108 5 view .LVU168
	cmp	r2, #255
	.loc 1 102 26 view .LVU169
	ubfx	r3, r7, #6, #1
	.loc 1 72 1 view .LVU170
	mov	r9, r1
	.loc 1 106 10 view .LVU171
	str	r2, [sp, #52]
	.loc 1 103 23 view .LVU172
	str	r0, [sp, #72]
	.loc 1 102 17 view .LVU173
	strb	r3, [sp, #63]
	.loc 1 103 1 is_stmt 1 view .LVU174
	.loc 1 106 2 view .LVU175
.LVL42:
	.loc 1 108 2 view .LVU176
	.loc 1 108 5 is_stmt 0 view .LVU177
	bne	.L79
	mov	r8, r3
	.loc 1 117 2 is_stmt 1 discriminator 1 view .LVU178
	mov	r2, r3
.LVL43:
	.loc 1 117 24 is_stmt 0 discriminator 1 view .LVU179
	add	r3, sp, #72
	ldm	r3, {r0, r1}
.LVL44:
	.loc 1 117 24 discriminator 1 view .LVU180
	add	fp, sp, #64
	str	r0, [sp, #64]
	strh	r1, [sp, #68]	@ movhi
.L50:
	.loc 1 123 2 is_stmt 1 view .LVU181
	.loc 1 127 42 is_stmt 0 view .LVU182
	lsrs	r0, r7, #7
	.loc 1 128 17 view .LVU183
	add	r1, r10, #113
	.loc 1 123 7 view .LVU184
	ldr	r7, [r4]
	.loc 1 131 6 view .LVU185
	str	r1, [sp, #40]
	mov	r3, fp
	.loc 1 127 42 view .LVU186
	str	r0, [sp, #48]
	.loc 1 123 7 view .LVU187
	str	r7, [sp, #44]
.LVL45:
	.loc 1 126 2 is_stmt 1 view .LVU188
	.loc 1 127 2 view .LVU189
	.loc 1 128 2 view .LVU190
	.loc 1 131 2 view .LVU191
	.loc 1 131 6 is_stmt 0 view .LVU192
	bl	ull_conn_peer_connected
.LVL46:
	.loc 1 131 5 view .LVU193
	ldr	r1, [sp, #40]
	cmp	r0, #0
	bne	.L53
	.loc 1 139 2 is_stmt 1 view .LVU194
	.loc 1 140 2 view .LVU195
.LVL47:
.LBB89:
.LBI89:
	.file 3 "/home/g/zephyr-sdk-0.16.3/arm-zephyr-eabi/picolibc/include/ssp/string.h"
	.loc 3 83 216 view .LVU196
.LBB90:
	.loc 3 83 292 view .LVU197
.LBE90:
.LBE89:
	.loc 1 139 26 is_stmt 0 view .LVU198
	ldrb	r3, [r6, #410]	@ zero_extendqisi2
	.loc 1 142 25 view .LVU199
	ldr	r2, [sp, #48]
	str	r0, [sp, #40]
.LVL48:
	.loc 1 139 26 view .LVU200
	bfi	r3, r8, #1, #1
	.loc 1 142 25 view .LVU201
	bfi	r3, r2, #0, #1
	strb	r3, [r6, #410]
.LBB92:
.LBB91:
	.loc 3 83 299 view .LVU202
	ldr	r0, [sp, #64]
	ldrh	r3, [fp, #4]	@ unaligned
	str	r0, [r6, #417]	@ unaligned
	strh	r3, [r6, #421]	@ unaligned
.LVL49:
	.loc 3 83 299 view .LVU203
.LBE91:
.LBE92:
	.loc 1 142 2 is_stmt 1 view .LVU204
	.loc 1 143 2 view .LVU205
.LBB93:
.LBI93:
	.loc 3 83 216 view .LVU206
.LBB94:
	.loc 3 83 292 view .LVU207
	.loc 3 83 299 is_stmt 0 view .LVU208
	ldr	r3, [r10, #113]	@ unaligned
	str	r3, [r6, #411]	@ unaligned
	ldrh	r3, [r1, #4]	@ unaligned
	strh	r3, [r6, #415]	@ unaligned
.LVL50:
	.loc 3 83 299 view .LVU209
.LBE94:
.LBE93:
	.loc 1 147 1 is_stmt 1 view .LVU210
.LBB95:
.LBI95:
	.loc 3 83 216 view .LVU211
.LBB96:
	.loc 3 83 292 view .LVU212
	.loc 3 83 299 is_stmt 0 view .LVU213
	ldrh	r3, [r4, #46]	@ unaligned
	ldrb	r1, [r4, #48]	@ zero_extendqisi2
	strb	r1, [r5, #10]
.LVL51:
	.loc 3 83 299 view .LVU214
.LBE96:
.LBE95:
	.loc 1 148 1 is_stmt 1 view .LVU215
.LBB98:
.LBI98:
	.loc 3 83 216 view .LVU216
.LBB99:
	.loc 3 83 292 view .LVU217
.LBE99:
.LBE98:
.LBB101:
.LBB97:
	.loc 3 83 299 is_stmt 0 view .LVU218
	strh	r3, [r5, #8]	@ unaligned
.LBE97:
.LBE101:
.LBB102:
.LBB100:
	ldr	r3, [r4, #42]	@ unaligned
	str	r3, [r5, #4]	@ unaligned
.LVL52:
	.loc 3 83 299 view .LVU219
.LBE100:
.LBE102:
	.loc 1 149 1 is_stmt 1 view .LVU220
.LBB103:
.LBB104:
	.loc 3 83 299 is_stmt 0 view .LVU221
	ldr	r3, [r4, #58]	@ unaligned
	str	r3, [r5, #24]	@ unaligned
.LBE104:
.LBE103:
	.loc 1 149 1 view .LVU222
	add	r0, r5, #24
.LVL53:
.LBB106:
.LBI103:
	.loc 3 83 216 is_stmt 1 view .LVU223
.LBB105:
	.loc 3 83 292 view .LVU224
	.loc 3 83 299 is_stmt 0 view .LVU225
	ldrb	r3, [r4, #62]	@ zero_extendqisi2
	strb	r3, [r0, #4]
.LVL54:
	.loc 3 83 299 view .LVU226
.LBE105:
.LBE106:
	.loc 1 151 2 is_stmt 1 view .LVU227
	.loc 1 151 25 is_stmt 0 view .LVU228
	movs	r1, #5
	bl	util_ones_count_get
.LVL55:
	.loc 1 151 23 view .LVU229
	ldrb	r3, [r5, #29]	@ zero_extendqisi2
	.loc 1 151 25 view .LVU230
	and	r0, r0, #63
	.loc 1 151 23 view .LVU231
	bfi	r3, r0, #0, #6
	strb	r3, [r5, #29]
	.loc 1 153 2 is_stmt 1 view .LVU232
	.loc 1 153 43 is_stmt 0 view .LVU233
	ldrb	r3, [r4, #63]	@ zero_extendqisi2
	ubfx	r1, r3, #0, #5
	.loc 1 153 21 view .LVU234
	strb	r1, [r5, #30]
	.loc 1 154 2 is_stmt 1 view .LVU235
	.loc 1 154 39 is_stmt 0 view .LVU236
	ldrh	r1, [r4, #52]	@ unaligned
	.loc 1 154 16 view .LVU237
	strh	r1, [r5, #14]	@ movhi
	.loc 1 155 2 is_stmt 1 view .LVU238
	.loc 1 155 5 is_stmt 0 view .LVU239
	cmp	r0, #1
	.loc 1 153 43 view .LVU240
	and	r3, r3, #31
	.loc 1 154 39 view .LVU241
	uxth	r1, r1
	.loc 1 155 5 view .LVU242
	bls	.L53
	.loc 1 155 34 discriminator 1 view .LVU243
	adds	r3, r3, #27
	and	r3, r3, #31
	cmp	r3, #11
	bhi	.L53
	.loc 1 157 33 view .LVU244
	ldr	r2, [sp, #40]
	cbnz	r1, .L54
.L53:
	.loc 1 159 3 is_stmt 1 view .LVU245
.LVL56:
.LBB107:
.LBI107:
	.loc 1 595 13 view .LVU246
.LBB108:
	.loc 1 599 2 view .LVU247
	.loc 1 599 19 is_stmt 0 view .LVU248
	movs	r2, #0
	str	r2, [r10, #20]
	.loc 1 602 2 is_stmt 1 view .LVU249
	.loc 1 602 24 is_stmt 0 view .LVU250
	ldrb	r3, [r5, #32]	@ zero_extendqisi2
.LBB109:
	.loc 1 617 3 view .LVU251
	ldr	r0, [sp, #44]
.LBE109:
	.loc 1 602 24 view .LVU252
	bfi	r3, r2, #0, #1
	strb	r3, [r5, #32]
	.loc 1 605 2 is_stmt 1 view .LVU253
.LBB110:
	.loc 1 614 10 is_stmt 0 view .LVU254
	ldr	r5, [r4, #12]
.LVL57:
	.loc 1 614 10 view .LVU255
.LBE110:
	.loc 1 605 11 view .LVU256
	movs	r6, #1
.LVL58:
.LBB111:
	.loc 1 617 3 view .LVU257
	mov	r1, r4
.LBE111:
	.loc 1 605 11 view .LVU258
	strb	r6, [r4, #4]
	.loc 1 608 2 is_stmt 1 view .LVU259
.LBB112:
	.loc 1 609 3 view .LVU260
	.loc 1 614 3 view .LVU261
.LVL59:
	.loc 1 617 3 view .LVU262
	bl	ll_rx_put
.LVL60:
	.loc 1 620 3 view .LVU263
	.loc 1 621 3 view .LVU264
	.loc 1 624 3 view .LVU265
.LBE112:
	.loc 1 628 2 is_stmt 0 view .LVU266
	ldr	r0, [r5]
.LBB113:
	.loc 1 624 12 view .LVU267
	strb	r6, [r5, #4]
.LVL61:
	.loc 1 624 12 view .LVU268
.LBE113:
	.loc 1 628 2 is_stmt 1 view .LVU269
	mov	r1, r5
	bl	ll_rx_put_sched
.LVL62:
	.loc 1 628 2 is_stmt 0 view .LVU270
.LBE108:
.LBE107:
	.loc 1 475 1 view .LVU271
	add	sp, sp, #84
	.cfi_remember_state
	.cfi_def_cfa_offset 36
	@ sp needed
	pop	{r4, r5, r6, r7, r8, r9, r10, fp, pc}
.LVL63:
.L79:
	.cfi_restore_state
	.loc 1 110 3 is_stmt 1 view .LVU272
	add	fp, sp, #64
	mov	r0, r2
	add	r1, sp, #63
.LVL64:
	.loc 1 110 3 is_stmt 0 view .LVU273
	mov	r2, fp
.LVL65:
	.loc 1 110 3 view .LVU274
	bl	ll_rl_id_addr_get
.LVL66:
	.loc 1 112 3 is_stmt 1 view .LVU275
	.loc 1 112 18 is_stmt 0 view .LVU276
	ldrb	r8, [sp, #63]	@ zero_extendqisi2
	ldrb	r7, [r4, #28]	@ zero_extendqisi2
	add	r8, r8, #2
	uxtb	r8, r8
	strb	r8, [sp, #63]
	.loc 1 126 16 view .LVU277
	and	r2, r8, #1
	b	.L50
.LVL67:
.L54:
	.loc 1 164 2 is_stmt 1 view .LVU278
	.loc 1 164 24 is_stmt 0 view .LVU279
	ldr	r3, [r9]
	.loc 1 164 39 view .LVU280
	str	r2, [r3, #4]
	.loc 1 166 2 is_stmt 1 view .LVU281
	.loc 1 166 38 is_stmt 0 view .LVU282
	ldrh	r3, [r4, #54]	@ unaligned
	.loc 1 166 15 view .LVU283
	strh	r3, [r5, #16]	@ movhi
	.loc 1 168 2 is_stmt 1 view .LVU284
	.loc 1 169 24 is_stmt 0 view .LVU285
	ldrh	r3, [r5, #14]
	.loc 1 169 19 view .LVU286
	movw	r8, #1250
	mul	r7, r8, r3
.LVL68:
	.loc 1 189 2 view .LVU287
	mov	r1, r2
	.loc 1 168 13 view .LVU288
	ldrh	r3, [r4, #50]	@ unaligned
	str	r3, [sp, #40]
.LVL69:
	.loc 1 169 2 is_stmt 1 view .LVU289
	.loc 1 175 2 view .LVU290
	.loc 1 185 3 view .LVU291
	.loc 1 189 2 view .LVU292
	mov	r0, r6
	bl	ull_cp_state_set
.LVL70:
	.loc 1 192 2 view .LVU293
	.loc 1 192 41 is_stmt 0 view .LVU294
	ldrb	r3, [r4, #63]	@ zero_extendqisi2
	.loc 1 192 19 view .LVU295
	ldrb	r2, [r6, #372]	@ zero_extendqisi2
	.loc 1 192 41 view .LVU296
	lsrs	r3, r3, #5
	.loc 1 192 19 view .LVU297
	bfi	r2, r3, #1, #3
	strb	r2, [r6, #372]
	.loc 1 193 2 is_stmt 1 view .LVU298
	.loc 1 194 8 is_stmt 0 view .LVU299
	bl	lll_clock_ppm_local_get
.LVL71:
	str	r0, [sp, #48]
	.loc 1 194 66 view .LVU300
	ldrb	r0, [r6, #372]	@ zero_extendqisi2
	.loc 1 194 36 view .LVU301
	ubfx	r0, r0, #1, #3
	bl	lll_clock_ppm_get
.LVL72:
	.loc 1 194 34 view .LVU302
	ldr	r3, [sp, #48]
	add	r0, r0, r3
	.loc 1 194 73 view .LVU303
	mul	r0, r7, r0
	.loc 1 194 123 view .LVU304
	ldr	r3, .L84+8
	.loc 1 194 118 view .LVU305
	add	r0, r0, #999424
	addw	r0, r0, #575
	.loc 1 194 123 view .LVU306
	umull	r3, r0, r3, r0
	.loc 1 197 57 view .LVU307
	lsrs	r3, r7, #1
	.loc 1 194 123 view .LVU308
	lsrs	r0, r0, #18
	.loc 1 197 63 view .LVU309
	subs	r3, r3, #150
	.loc 1 193 42 view .LVU310
	str	r0, [r5, #36]
	.loc 1 197 2 is_stmt 1 view .LVU311
	.loc 1 197 37 is_stmt 0 view .LVU312
	str	r3, [r5, #40]
	.loc 1 199 2 is_stmt 1 view .LVU313
	.loc 1 199 57 is_stmt 0 view .LVU314
	ldrb	r3, [r4, #49]	@ zero_extendqisi2
	.loc 1 199 67 view .LVU315
	mul	r3, r8, r3
	.loc 1 199 35 view .LVU316
	str	r3, [r5, #56]
	.loc 1 203 2 is_stmt 1 view .LVU317
	.loc 1 203 51 is_stmt 0 view .LVU318
	ldrh	r3, [r4, #56]	@ unaligned
	.loc 1 203 28 view .LVU319
	strh	r3, [r6, #396]	@ movhi
	.loc 1 206 2 is_stmt 1 view .LVU320
	mov	r1, r7
	mov	r0, r6
	bl	ull_cp_prt_reload_set
.LVL73:
	.loc 1 214 2 view .LVU321
	.loc 1 219 77 is_stmt 0 view .LVU322
	ldr	r3, .L84+12
	.loc 1 214 26 view .LVU323
	ldr	r2, .L84+16
	str	r2, [r6, #400]
	.loc 1 219 2 is_stmt 1 view .LVU324
	.loc 1 219 77 is_stmt 0 view .LVU325
	add	r3, r3, r7
	.loc 1 219 82 view .LVU326
	udiv	r3, r3, r7
	.loc 1 219 23 view .LVU327
	uxth	r2, r3
	.loc 1 219 20 view .LVU328
	strh	r2, [r6, #390]	@ movhi
	.loc 1 225 2 is_stmt 1 view .LVU329
	.loc 1 225 48 is_stmt 0 view .LVU330
	ldrh	r1, [r5, #16]
	.loc 1 225 58 view .LVU331
	adds	r0, r1, #6
	.loc 1 225 21 view .LVU332
	cmp	r2, r0
	ble	.L55
	.loc 1 225 21 discriminator 1 view .LVU333
	rsb	r1, r1, #65280
	adds	r1, r1, #250
	add	r2, r2, r1
	uxth	r2, r2
.L55:
	.loc 1 225 21 discriminator 4 view .LVU334
	strh	r2, [r6, #386]	@ movhi
	.loc 1 231 1 is_stmt 1 discriminator 4 view .LVU335
.LVL74:
.LBB114:
.LBI114:
	.loc 3 83 216 discriminator 4 view .LVU336
.LBB115:
	.loc 3 83 292 discriminator 4 view .LVU337
	.loc 3 83 299 is_stmt 0 discriminator 4 view .LVU338
	ldr	r3, [r5, #4]	@ unaligned
	str	r3, [r6, #376]	@ unaligned
.LVL75:
	.loc 3 83 299 discriminator 4 view .LVU339
.LBE115:
.LBE114:
	.loc 1 235 2 is_stmt 1 discriminator 4 view .LVU340
	.loc 1 241 3 discriminator 4 view .LVU341
	.loc 1 241 21 is_stmt 0 discriminator 4 view .LVU342
	mov	r3, r4
	ldrb	r2, [r3, #28]!	@ zero_extendqisi2
	ubfx	r8, r2, #5, #1
.LVL76:
	.loc 1 247 2 is_stmt 1 discriminator 4 view .LVU343
	.loc 1 248 2 discriminator 4 view .LVU344
	.loc 1 248 7 discriminator 4 view .LVU345
	.loc 1 248 10 is_stmt 0 discriminator 4 view .LVU346
	lsls	r2, r3, #31
.LVL77:
	.loc 1 248 10 discriminator 4 view .LVU347
	bmi	.L80
.LVL78:
.L56:
	.loc 1 248 264 is_stmt 1 discriminator 3 view .LVU348
	.loc 1 248 5 discriminator 3 view .LVU349
	.loc 1 251 2 discriminator 3 view .LVU350
	.loc 1 252 2 discriminator 3 view .LVU351
	.loc 1 253 2 discriminator 3 view .LVU352
	.loc 1 252 13 is_stmt 0 discriminator 3 view .LVU353
	mov	r3, #256
	strh	r3, [r4, #28]	@ movhi
	.loc 1 256 2 is_stmt 1 discriminator 3 view .LVU354
	.loc 1 256 6 is_stmt 0 discriminator 3 view .LVU355
	ldrb	r0, [r10, #38]	@ zero_extendqisi2
	bl	ull_filter_lll_lrpa_used
.LVL79:
	.loc 1 257 2 discriminator 3 view .LVU356
	add	r3, r4, #43
	.loc 1 256 5 discriminator 3 view .LVU357
	cmp	r0, #0
	beq	.L57
	.loc 1 257 2 is_stmt 1 view .LVU358
.LVL80:
.LBB116:
.LBI116:
	.loc 3 83 216 view .LVU359
.LBB117:
	.loc 3 83 292 view .LVU360
	.loc 3 83 299 is_stmt 0 view .LVU361
	ldr	r2, [r4, #36]	@ unaligned
	str	r2, [r4, #43]	@ unaligned
	ldrh	r2, [r4, #40]	@ unaligned
	strh	r2, [r3, #4]	@ unaligned
.LVL81:
.L58:
	.loc 3 83 299 view .LVU362
.LBE117:
.LBE116:
	.loc 1 263 2 is_stmt 1 view .LVU363
	.loc 1 263 5 is_stmt 0 view .LVU364
	ldr	r3, [sp, #52]
	cmp	r3, #255
	beq	.L59
	.loc 1 265 2 is_stmt 1 view .LVU365
.LVL82:
.LBB118:
.LBI118:
	.loc 3 83 216 view .LVU366
.LBB119:
	.loc 3 83 292 view .LVU367
	.loc 3 83 299 is_stmt 0 view .LVU368
	ldrh	r3, [sp, #76]	@ unaligned
	ldr	r0, [sp, #72]
	strh	r3, [r4, #41]	@ unaligned
.LVL83:
	.loc 3 83 299 view .LVU369
	str	r0, [r4, #37]	@ unaligned
.L60:
	.loc 3 83 299 view .LVU370
.LBE119:
.LBE118:
	.loc 1 271 2 is_stmt 1 view .LVU371
.LBB120:
.LBB121:
	.loc 3 83 299 is_stmt 0 view .LVU372
	ldrh	r3, [fp, #4]	@ unaligned
	strh	r3, [r4, #35]	@ unaligned
	ldr	r0, [sp, #64]
.LBE121:
.LBE120:
	.loc 1 271 21 view .LVU373
	ldrb	r3, [sp, #63]	@ zero_extendqisi2
.LBB124:
.LBB122:
	.loc 3 83 299 view .LVU374
	str	r0, [r4, #31]	@ unaligned
.LBE122:
.LBE124:
	.loc 1 271 21 view .LVU375
	strb	r3, [r4, #30]
	.loc 1 272 1 is_stmt 1 view .LVU376
.LVL84:
.LBB125:
.LBI120:
	.loc 3 83 216 view .LVU377
.LBB123:
	.loc 3 83 292 view .LVU378
	.loc 3 83 292 is_stmt 0 view .LVU379
.LBE123:
.LBE125:
	.loc 1 274 2 is_stmt 1 view .LVU380
	.loc 1 274 20 is_stmt 0 view .LVU381
	ldrh	r3, [r5, #14]
	.loc 1 274 15 view .LVU382
	strh	r3, [r4, #50]	@ movhi
	.loc 1 275 2 is_stmt 1 view .LVU383
	.loc 1 275 19 is_stmt 0 view .LVU384
	ldrh	r3, [r5, #16]
	.loc 1 275 14 view .LVU385
	strh	r3, [r4, #52]	@ movhi
	.loc 1 276 2 is_stmt 1 view .LVU386
	.loc 1 276 20 is_stmt 0 view .LVU387
	ldrh	r3, [r6, #396]
	.loc 1 276 14 view .LVU388
	strh	r3, [r4, #54]	@ movhi
	.loc 1 277 2 is_stmt 1 view .LVU389
	.loc 1 277 24 is_stmt 0 view .LVU390
	ldrb	r3, [r6, #372]	@ zero_extendqisi2
	ubfx	r3, r3, #1, #3
	.loc 1 277 10 view .LVU391
	strb	r3, [r4, #56]
	.loc 1 279 2 is_stmt 1 view .LVU392
	.loc 1 279 16 is_stmt 0 view .LVU393
	mov	r0, r6
	bl	ll_conn_handle_get
.LVL85:
	.loc 1 279 14 view .LVU394
	strh	r0, [r5, #12]	@ movhi
	.loc 1 280 2 is_stmt 1 view .LVU395
	.loc 1 280 13 is_stmt 0 view .LVU396
	strh	r0, [r4, #6]	@ movhi
	.loc 1 287 2 is_stmt 1 view .LVU397
.LBB126:
	.loc 1 288 3 view .LVU398
	.loc 1 289 3 view .LVU399
	.loc 1 294 3 view .LVU400
	.loc 1 297 3 is_stmt 0 view .LVU401
	mov	r1, r4
	ldr	r0, [sp, #44]
	.loc 1 294 10 view .LVU402
	ldr	r4, [r9, #4]
.LVL86:
	.loc 1 297 3 is_stmt 1 view .LVU403
	bl	ll_rx_put
.LVL87:
	.loc 1 300 3 view .LVU404
	.loc 1 301 3 view .LVU405
	.loc 1 303 19 is_stmt 0 view .LVU406
	ldrh	r3, [r5, #12]
	.loc 1 303 14 view .LVU407
	strh	r3, [r4, #6]	@ movhi
	.loc 1 304 12 view .LVU408
	movs	r3, #28
	.loc 1 301 8 view .LVU409
	ldr	fp, [r4]
.LVL88:
	.loc 1 303 3 is_stmt 1 view .LVU410
	.loc 1 304 3 view .LVU411
	.loc 1 306 3 view .LVU412
	.loc 1 308 3 view .LVU413
	.loc 1 304 12 is_stmt 0 view .LVU414
	strb	r3, [r4, #4]
	.loc 1 308 6 view .LVU415
	cmp	r8, #0
	bne	.L81
.L61:
	.loc 1 314 12 view .LVU416
	strb	r8, [r4, #28]
.LBE126:
	.loc 1 342 2 is_stmt 1 view .LVU417
	mov	r1, r4
	mov	r0, fp
	bl	ll_rx_put_sched
.LVL89:
	.loc 1 346 2 view .LVU418
	.loc 1 364 51 is_stmt 0 view .LVU419
	ldrb	r0, [r5, #91]	@ zero_extendqisi2
	.loc 1 346 14 view .LVU420
	ldrh	r8, [r5, #80]
.LVL90:
	.loc 1 347 2 is_stmt 1 view .LVU421
	.loc 1 347 14 is_stmt 0 view .LVU422
	ldrh	r4, [r5, #82]
.LVL91:
	.loc 1 364 2 is_stmt 1 view .LVU423
	.loc 1 364 19 is_stmt 0 view .LVU424
	movs	r1, #1
	and	r0, r0, #7
	bl	lll_radio_rx_ready_delay_get
.LVL92:
	.loc 1 370 24 view .LVU425
	add	r4, r4, r8
.LVL93:
	.loc 1 370 24 view .LVU426
	addw	r4, r4, #469
	.loc 1 384 87 view .LVU427
	ldr	r8, .L84+28
.LVL94:
	.loc 1 375 11 view .LVU428
	add	r4, r4, r0
	.loc 1 364 19 view .LVU429
	mov	fp, r0
.LVL95:
	.loc 1 370 2 is_stmt 1 view .LVU430
	.loc 1 371 2 view .LVU431
	.loc 1 372 2 view .LVU432
	.loc 1 374 2 view .LVU433
	.loc 1 375 3 view .LVU434
	.loc 1 379 2 view .LVU435
	.loc 1 384 87 is_stmt 0 view .LVU436
	ldr	r0, .L84+20
.LVL96:
	.loc 1 384 87 view .LVU437
	movs	r1, #7
	.loc 1 384 92 view .LVU438
	umlal	r0, r1, r4, r8
	.loc 1 380 35 view .LVU439
	movs	r3, #49
	.loc 1 379 34 view .LVU440
	movs	r4, #0
	.loc 1 380 35 view .LVU441
	str	r3, [r6, #8]
	.loc 1 379 34 view .LVU442
	str	r4, [r6, #4]
	.loc 1 380 2 is_stmt 1 view .LVU443
	.loc 1 382 2 view .LVU444
	.loc 1 384 2 view .LVU445
	.loc 1 384 92 is_stmt 0 view .LVU446
	adr	r3, .L84
	ldrd	r2, [r3]
	.loc 1 382 35 view .LVU447
	str	r4, [r6, #12]
	.loc 1 384 92 view .LVU448
	bl	__aeabi_uldivmod
.LVL97:
	.loc 1 384 111 view .LVU449
	bic	r0, r0, #-16777216
	.loc 1 384 23 view .LVU450
	str	r0, [r6, #16]
	.loc 1 386 2 is_stmt 1 view .LVU451
.LVL98:
	.loc 1 388 2 view .LVU452
	.loc 1 391 3 view .LVU453
	.loc 1 393 2 view .LVU454
	.loc 1 395 2 view .LVU455
	.loc 1 395 19 is_stmt 0 view .LVU456
	ldr	r5, [r5, #36]
.LVL99:
	.loc 1 398 17 view .LVU457
	ldr	r2, [sp, #40]
	.loc 1 395 19 view .LVU458
	subs	r5, r7, r5
.LVL100:
	.loc 1 397 2 is_stmt 1 view .LVU459
	.loc 1 397 17 is_stmt 0 view .LVU460
	ldr	r7, [r9, #12]
.LVL101:
	.loc 1 398 2 is_stmt 1 view .LVU461
	.loc 1 398 31 is_stmt 0 view .LVU462
	movw	r3, #1250
	.loc 1 398 17 view .LVU463
	mla	r7, r3, r2, r7
.LVL102:
	.loc 1 399 2 is_stmt 1 view .LVU464
	.loc 1 400 2 view .LVU465
	.loc 1 401 2 view .LVU466
	.loc 1 408 2 is_stmt 0 view .LVU467
	movs	r1, #2
	mov	r2, r4
	movs	r0, #1
	bl	mayfly_enable
.LVL103:
	.loc 1 432 39 view .LVU468
	mov	r0, r10
	bl	ull_adv_handle_get
.LVL104:
	.loc 1 401 17 view .LVU469
	addw	r7, r7, #1202
.LVL105:
	.loc 1 402 2 is_stmt 1 view .LVU470
	.loc 1 432 39 is_stmt 0 view .LVU471
	mov	r2, r0
	.loc 1 402 17 view .LVU472
	sub	r7, r7, fp
.LVL106:
	.loc 1 408 2 is_stmt 1 view .LVU473
	.loc 1 432 2 view .LVU474
	.loc 1 434 63 is_stmt 0 view .LVU475
	umull	r0, r1, r7, r8
	.loc 1 432 39 view .LVU476
	mov	r7, r2
.LVL107:
	.loc 1 433 2 is_stmt 1 view .LVU477
	.loc 1 434 63 is_stmt 0 view .LVU478
	adr	r3, .L84
	ldrd	r2, [r3]
	bl	__aeabi_uldivmod
.LVL108:
	.loc 1 436 18 view .LVU479
	str	r10, [sp, #4]
	.loc 1 433 16 view .LVU480
	ldr	r3, [r9, #8]
	.loc 1 436 18 view .LVU481
	ldr	r1, .L84+24
	str	r1, [sp]
	.loc 1 434 81 view .LVU482
	bic	r8, r0, #-16777216
	.loc 1 436 2 is_stmt 1 view .LVU483
	.loc 1 432 16 is_stmt 0 view .LVU484
	adds	r2, r7, #2
	.loc 1 433 16 view .LVU485
	subs	r3, r3, #58
	.loc 1 436 18 view .LVU486
	uxtb	r2, r2
	mov	r0, r4
	add	r3, r3, r8
	movs	r1, #1
	bl	ticker_stop_abs
.LVL109:
	.loc 1 440 2 is_stmt 1 view .LVU487
.LBB127:
.LBI127:
	.loc 1 631 13 view .LVU488
.LBB128:
	.loc 1 633 2 view .LVU489
	.loc 1 633 7 view .LVU490
	.loc 1 633 10 is_stmt 0 view .LVU491
	cmp	r0, #1
	beq	.L82
.LVL110:
.L63:
	.loc 1 633 242 is_stmt 1 view .LVU492
	.loc 1 633 5 view .LVU493
	.loc 1 633 5 is_stmt 0 view .LVU494
.LBE128:
.LBE127:
	.loc 1 443 2 is_stmt 1 view .LVU495
	.loc 1 443 6 is_stmt 0 view .LVU496
	ldrb	r3, [r10, #36]	@ zero_extendqisi2
	.loc 1 443 5 view .LVU497
	lsls	r3, r3, #31
	bmi	.L83
.L65:
	.loc 1 453 2 is_stmt 1 view .LVU498
	.loc 1 453 41 is_stmt 0 view .LVU499
	mov	r0, r6
	bl	ll_conn_handle_get
.LVL111:
	.loc 1 459 55 view .LVU500
	ldr	r3, .L84+28
	umull	r5, r10, r5, r3
.LVL112:
	.loc 1 453 41 view .LVU501
	mov	r4, r0
.LVL113:
	.loc 1 454 2 is_stmt 1 view .LVU502
	.loc 1 459 71 is_stmt 0 view .LVU503
	adr	r3, .L84
	ldrd	r2, [r3]
	mov	r0, r5
	mov	r1, r10
	bl	__aeabi_uldivmod
.LVL114:
	.loc 1 454 18 view .LVU504
	ldr	r3, [r9, #8]
	ldr	r2, .L84+32
	str	r2, [sp, #28]
	sub	r9, r3, #58
.LVL115:
	.loc 1 460 168 view .LVU505
	ldr	r3, .L84+36
	.loc 1 454 18 view .LVU506
	str	r6, [sp, #24]
	.loc 1 460 64 view .LVU507
	bic	r7, r0, #-16777216
.LVL116:
	.loc 1 460 168 view .LVU508
	umull	r3, r1, r7, r3
	.loc 1 460 61 view .LVU509
	subs	r0, r5, r3
	.loc 1 454 18 view .LVU510
	ldr	r3, .L84+40
	str	r3, [sp, #20]
	movw	r3, #465
	str	r3, [sp, #32]
	ldr	r3, [r6, #16]
	mov	fp, #0
.LVL117:
	.loc 1 454 18 view .LVU511
	strd	fp, r3, [sp, #12]
	.loc 1 460 168 view .LVU512
	mov	r3, #7
	mla	r1, r3, r7, r1
	.loc 1 460 187 view .LVU513
	sbc	r1, r10, r1
	mov	r2, #1000
	movs	r3, #0
	bl	__aeabi_uldivmod
.LVL118:
	.loc 1 453 17 view .LVU514
	adds	r4, r4, #3
.LVL119:
	.loc 1 454 18 view .LVU515
	uxtb	r4, r4
	strd	r7, r0, [sp, #4]
	str	r8, [sp]
	mov	r3, r9
	mov	r2, r4
	movs	r1, #1
	mov	r0, fp
	bl	ticker_start
.LVL120:
	.loc 1 466 2 is_stmt 1 view .LVU516
	.loc 1 466 7 view .LVU517
	.loc 1 466 10 is_stmt 0 view .LVU518
	tst	r0, #253
	beq	.L66
	.loc 1 466 62 is_stmt 1 discriminator 3 view .LVU519
	ldr	r2, .L84+44
	ldr	r1, .L84+48
	ldr	r0, .L84+52
.LVL121:
	.loc 1 466 62 is_stmt 0 discriminator 3 view .LVU520
	mov	r3, #466
	bl	assert_print
.LVL122:
	.loc 1 466 235 is_stmt 1 discriminator 3 view .LVU521
	.loc 1 466 240 discriminator 3 view .LVU522
	.syntax unified
@ 466 "/home/g/mise-work/zmk-firmware/zmk/zephyr/subsys/bluetooth/controller/ll_sw/ull_peripheral.c" 1
	eors.n r0, r0
	msr BASEPRI, r0
	mov r0, #3
	svc #2
	
@ 0 "" 2
	.thumb
	.syntax unified
.L66:
	.loc 1 466 238 discriminator 5 view .LVU523
	.loc 1 466 5 discriminator 5 view .LVU524
	.loc 1 473 2 discriminator 5 view .LVU525
	movs	r2, #1
	movs	r1, #2
	mov	r0, r2
	bl	mayfly_enable
.LVL123:
	.loc 1 475 1 is_stmt 0 discriminator 5 view .LVU526
	add	sp, sp, #84
	.cfi_remember_state
	.cfi_def_cfa_offset 36
	@ sp needed
	pop	{r4, r5, r6, r7, r8, r9, r10, fp, pc}
.LVL124:
.L57:
	.cfi_restore_state
	.loc 1 260 2 is_stmt 1 view .LVU527
.LBB132:
.LBI132:
	.loc 3 86 189 view .LVU528
.LBB133:
	.loc 3 86 238 view .LVU529
	.loc 3 86 245 is_stmt 0 view .LVU530
	str	r0, [r4, #43]	@ unaligned
	strh	r0, [r3, #4]	@ unaligned
.LVL125:
	.loc 3 86 245 view .LVU531
	b	.L58
.L59:
	.loc 3 86 245 view .LVU532
.LBE133:
.LBE132:
	.loc 1 267 2 is_stmt 1 view .LVU533
.LVL126:
.LBB134:
.LBI134:
	.loc 3 86 189 view .LVU534
.LBB135:
	.loc 3 86 238 view .LVU535
	.loc 3 86 245 is_stmt 0 view .LVU536
	movs	r2, #0
	str	r2, [r4, #37]	@ unaligned
	strh	r2, [r4, #41]	@ unaligned
.LVL127:
	.loc 3 86 245 view .LVU537
	b	.L60
.LVL128:
.L80:
	.loc 3 86 245 view .LVU538
.LBE135:
.LBE134:
	.loc 1 248 75 is_stmt 1 discriminator 1 view .LVU539
	ldr	r2, .L84+44
	ldr	r1, .L84+56
	ldr	r0, .L84+52
	movs	r3, #248
.LVL129:
	.loc 1 248 75 is_stmt 0 discriminator 1 view .LVU540
	bl	assert_print
.LVL130:
	.loc 1 248 261 is_stmt 1 discriminator 1 view .LVU541
	.loc 1 248 266 discriminator 1 view .LVU542
	.syntax unified
@ 248 "/home/g/mise-work/zmk-firmware/zmk/zephyr/subsys/bluetooth/controller/ll_sw/ull_peripheral.c" 1
	eors.n r0, r0
	msr BASEPRI, r0
	mov r0, #3
	svc #2
	
@ 0 "" 2
	.thumb
	.syntax unified
	b	.L56
.LVL131:
.L83:
	.loc 1 448 3 view .LVU543
	.loc 1 448 9 is_stmt 0 view .LVU544
	movs	r3, #0
	movs	r2, #1
	str	r3, [sp]
	mov	r0, r3
	mov	r1, r2
	bl	ticker_stop
.LVL132:
	b	.L65
.LVL133:
.L81:
.LBB136:
	.loc 1 309 4 is_stmt 1 view .LVU545
	.loc 1 309 23 is_stmt 0 view .LVU546
	ldrb	r3, [r5, #29]	@ zero_extendqisi2
	orr	r3, r3, #64
	strb	r3, [r5, #29]
	.loc 1 310 4 is_stmt 1 view .LVU547
	.loc 1 310 24 is_stmt 0 view .LVU548
	adds	r0, r5, #4
	bl	lll_chan_id
.LVL134:
	mov	r8, #1
	.loc 1 310 22 view .LVU549
	strh	r0, [r5, #30]	@ movhi
	.loc 1 312 4 is_stmt 1 view .LVU550
	b	.L61
.LVL135:
.L82:
	.loc 1 312 4 is_stmt 0 view .LVU551
.LBE136:
.LBB137:
.LBB131:
	.loc 1 633 37 view .LVU552
	bl	ull_disable_mark_get
.LVL136:
	.loc 1 633 11 view .LVU553
	cmp	r10, r0
	beq	.L63
.LBB129:
.LBI129:
	.loc 1 631 13 is_stmt 1 view .LVU554
.LVL137:
.LBB130:
	.loc 1 633 64 view .LVU555
	ldr	r2, .L84+44
	ldr	r1, .L84+60
	ldr	r0, .L84+52
	movw	r3, #633
	bl	assert_print
.LVL138:
	.loc 1 633 239 view .LVU556
	.loc 1 633 244 view .LVU557
	.syntax unified
@ 633 "/home/g/mise-work/zmk-firmware/zmk/zephyr/subsys/bluetooth/controller/ll_sw/ull_peripheral.c" 1
	eors.n r0, r0
	msr BASEPRI, r0
	mov r0, #3
	svc #2
	
@ 0 "" 2
	.loc 1 633 242 view .LVU558
	.loc 1 633 5 view .LVU559
	.loc 1 635 1 is_stmt 0 view .LVU560
	.thumb
	.syntax unified
	b	.L63
.L85:
	.align	3
.L84:
	.word	452807053
	.word	7
	.word	1125899907
	.word	29999999
	.word	5000000
	.word	452807052
	.word	ticker_op_stop_adv_cb
	.word	1000000000
	.word	ticker_op_cb
	.word	452807053
	.word	ull_periph_ticker_cb
	.word	.LC0
	.word	.LC8
	.word	.LC2
	.word	.LC7
	.word	.LC4
.LBE130:
.LBE129:
.LBE131:
.LBE137:
	.cfi_endproc
.LFE1071:
	.size	ull_periph_setup, .-ull_periph_setup
	.section	.text.ull_periph_latency_cancel,"ax",%progbits
	.align	1
	.p2align 2,,3
	.global	ull_periph_latency_cancel
	.syntax unified
	.thumb
	.thumb_func
	.type	ull_periph_latency_cancel, %function
ull_periph_latency_cancel:
.LVL139:
.LFB1072:
	.loc 1 478 1 is_stmt 1 view -0
	.cfi_startproc
	@ args = 0, pretend = 0, frame = 0
	@ frame_needed = 0, uses_anonymous_args = 0
	.loc 1 480 2 view .LVU562
	.loc 1 480 5 is_stmt 0 view .LVU563
	ldrh	r3, [r0, #48]
	cbz	r3, .L94
	.loc 1 480 33 discriminator 1 view .LVU564
	ldrb	r2, [r0, #372]	@ zero_extendqisi2
	.loc 1 480 30 discriminator 1 view .LVU565
	ands	r3, r2, #1
	beq	.L97
.L94:
	bx	lr
.L97:
.LBB138:
	.loc 1 481 3 is_stmt 1 view .LVU566
	.loc 1 483 3 view .LVU567
.LBE138:
	.loc 1 478 1 is_stmt 0 view .LVU568
	push	{r4, lr}
	.cfi_def_cfa_offset 8
	.cfi_offset 4, -8
	.cfi_offset 14, -4
.LBB139:
	.loc 1 483 31 view .LVU569
	orr	r2, r2, #1
.LBE139:
	.loc 1 478 1 view .LVU570
	sub	sp, sp, #32
	.cfi_def_cfa_offset 40
.LBB140:
	.loc 1 486 4 view .LVU571
	ldr	r4, .L98
	.loc 1 483 31 view .LVU572
	strb	r2, [r0, #372]
	.loc 1 485 3 is_stmt 1 view .LVU573
	.loc 1 486 4 is_stmt 0 view .LVU574
	adds	r1, r1, #3
.LVL140:
	.loc 1 486 4 view .LVU575
	movs	r2, #1
	strd	r3, r2, [sp, #8]
	str	r0, [sp, #24]
	uxtb	r2, r1
	strd	r3, r4, [sp, #16]
	strd	r3, r3, [sp]
	movs	r1, #3
	mov	r0, r3
.LVL141:
	.loc 1 486 4 view .LVU576
	bl	ticker_update
.LVL142:
	.loc 1 492 3 is_stmt 1 view .LVU577
	.loc 1 492 8 view .LVU578
	.loc 1 492 11 is_stmt 0 view .LVU579
	tst	r0, #253
	beq	.L86
	.loc 1 492 63 is_stmt 1 discriminator 3 view .LVU580
	ldr	r2, .L98+4
	ldr	r1, .L98+8
	ldr	r0, .L98+12
.LVL143:
	.loc 1 492 63 is_stmt 0 discriminator 3 view .LVU581
	mov	r3, #492
	bl	assert_print
.LVL144:
	.loc 1 492 236 is_stmt 1 discriminator 3 view .LVU582
	.loc 1 492 241 discriminator 3 view .LVU583
	.syntax unified
@ 492 "/home/g/mise-work/zmk-firmware/zmk/zephyr/subsys/bluetooth/controller/ll_sw/ull_peripheral.c" 1
	eors.n r0, r0
	msr BASEPRI, r0
	mov r0, #3
	svc #2
	
@ 0 "" 2
	.loc 1 492 239 discriminator 3 view .LVU584
	.loc 1 492 6 discriminator 3 view .LVU585
	.thumb
	.syntax unified
.L86:
.LBE140:
	.loc 1 495 1 is_stmt 0 view .LVU586
	add	sp, sp, #32
	.cfi_def_cfa_offset 8
	@ sp needed
	pop	{r4, pc}
.L99:
	.align	2
.L98:
	.word	ticker_update_latency_cancel_op_cb
	.word	.LC0
	.word	.LC8
	.word	.LC2
	.cfi_endproc
.LFE1072:
	.size	ull_periph_latency_cancel, .-ull_periph_latency_cancel
	.section	.text.ll_start_enc_req_send,"ax",%progbits
	.align	1
	.p2align 2,,3
	.global	ll_start_enc_req_send
	.syntax unified
	.thumb
	.thumb_func
	.type	ll_start_enc_req_send, %function
ll_start_enc_req_send:
.LVL145:
.LFB1074:
	.loc 1 577 1 is_stmt 1 view -0
	.cfi_startproc
	@ args = 0, pretend = 0, frame = 0
	@ frame_needed = 0, uses_anonymous_args = 0
	.loc 1 578 2 view .LVU588
	.loc 1 580 2 view .LVU589
	.loc 1 577 1 is_stmt 0 view .LVU590
	push	{r3, r4, r5, lr}
	.cfi_def_cfa_offset 16
	.cfi_offset 3, -16
	.cfi_offset 4, -12
	.cfi_offset 5, -8
	.cfi_offset 14, -4
	.loc 1 577 1 view .LVU591
	mov	r4, r1
	mov	r5, r2
	.loc 1 580 9 view .LVU592
	bl	ll_connected_get
.LVL146:
	.loc 1 581 2 is_stmt 1 view .LVU593
	.loc 1 581 5 is_stmt 0 view .LVU594
	cbz	r0, .L101
	.loc 1 585 2 is_stmt 1 view .LVU595
	.loc 1 585 5 is_stmt 0 view .LVU596
	cbz	r4, .L102
	.loc 1 586 3 is_stmt 1 view .LVU597
	.loc 1 592 1 is_stmt 0 view .LVU598
	pop	{r3, r4, r5, lr}
	.cfi_remember_state
	.cfi_restore 14
	.cfi_restore 5
	.cfi_restore 4
	.cfi_restore 3
	.cfi_def_cfa_offset 0
.LVL147:
	.loc 1 586 10 view .LVU599
	b	ull_cp_ltk_req_neq_reply
.LVL148:
.L102:
	.cfi_restore_state
	.loc 1 588 3 is_stmt 1 view .LVU600
	.loc 1 588 10 is_stmt 0 view .LVU601
	mov	r1, r5
	.loc 1 592 1 view .LVU602
	pop	{r3, r4, r5, lr}
	.cfi_remember_state
	.cfi_restore 14
	.cfi_restore 5
	.cfi_restore 4
	.cfi_restore 3
	.cfi_def_cfa_offset 0
.LVL149:
	.loc 1 588 10 view .LVU603
	b	ull_cp_ltk_req_reply
.LVL150:
.L101:
	.cfi_restore_state
	.loc 1 592 1 view .LVU604
	movs	r0, #2
.LVL151:
	.loc 1 592 1 view .LVU605
	pop	{r3, r4, r5, pc}
	.loc 1 592 1 view .LVU606
	.cfi_endproc
.LFE1074:
	.size	ll_start_enc_req_send, .-ll_start_enc_req_send
	.section	.text.ll_set_min_used_chans,"ax",%progbits
	.align	1
	.p2align 2,,3
	.global	ll_set_min_used_chans
	.syntax unified
	.thumb
	.thumb_func
	.type	ll_set_min_used_chans, %function
ll_set_min_used_chans:
.LVL152:
.LFB1079:
	.loc 1 657 1 is_stmt 1 view -0
	.cfi_startproc
	@ args = 0, pretend = 0, frame = 0
	@ frame_needed = 0, uses_anonymous_args = 0
	.loc 1 658 2 view .LVU608
	.loc 1 660 2 view .LVU609
	.loc 1 657 1 is_stmt 0 view .LVU610
	push	{r3, r4, r5, lr}
	.cfi_def_cfa_offset 16
	.cfi_offset 3, -16
	.cfi_offset 4, -12
	.cfi_offset 5, -8
	.cfi_offset 14, -4
	.loc 1 657 1 view .LVU611
	mov	r4, r1
	mov	r5, r2
	.loc 1 660 9 view .LVU612
	bl	ll_connected_get
.LVL153:
	.loc 1 661 2 is_stmt 1 view .LVU613
	.loc 1 661 5 is_stmt 0 view .LVU614
	cbz	r0, .L106
	.loc 1 665 2 is_stmt 1 view .LVU615
	.loc 1 665 5 is_stmt 0 view .LVU616
	ldrsb	r3, [r0, #57]
	cmp	r3, #0
	bge	.L107
	.loc 1 669 2 is_stmt 1 view .LVU617
	.loc 1 669 9 is_stmt 0 view .LVU618
	mov	r2, r5
	mov	r1, r4
	.loc 1 670 1 view .LVU619
	pop	{r3, r4, r5, lr}
	.cfi_remember_state
	.cfi_restore 14
	.cfi_restore 5
	.cfi_restore 4
	.cfi_restore 3
	.cfi_def_cfa_offset 0
	.loc 1 669 9 view .LVU620
	b	ull_cp_min_used_chans
.LVL154:
.L107:
	.cfi_restore_state
	.loc 1 666 10 view .LVU621
	movs	r0, #12
.LVL155:
	.loc 1 670 1 view .LVU622
	pop	{r3, r4, r5, pc}
.LVL156:
.L106:
	.loc 1 662 10 view .LVU623
	movs	r0, #2
.LVL157:
	.loc 1 670 1 view .LVU624
	pop	{r3, r4, r5, pc}
	.cfi_endproc
.LFE1079:
	.size	ll_set_min_used_chans, .-ll_set_min_used_chans
	.section	.bss.link.0,"aw",%nobits
	.align	2
	.type	link.0, %object
	.size	link.0, 8
link.0:
	.space	8
	.section	.data.mfy.1,"aw"
	.align	2
	.type	mfy.1, %object
	.size	mfy.1, 16
mfy.1:
	.byte	0
	.byte	0
	.space	2
	.word	link.0
	.word	0
	.word	lll_periph_prepare
	.section	.bss.p.2,"aw",%nobits
	.align	2
	.type	p.2, %object
	.size	p.2, 16
p.2:
	.space	16
	.text
.Letext0:
	.file 4 "/home/g/zephyr-sdk-0.16.3/arm-zephyr-eabi/lib/gcc/arm-zephyr-eabi/12.2.0/include/stddef.h"
	.file 5 "/home/g/zephyr-sdk-0.16.3/arm-zephyr-eabi/picolibc/include/machine/_default_types.h"
	.file 6 "/home/g/zephyr-sdk-0.16.3/arm-zephyr-eabi/picolibc/include/sys/_stdint.h"
	.file 7 "/home/g/mise-work/zmk-firmware/zmk/zephyr/include/zephyr/sys/slist.h"
	.file 8 "/home/g/mise-work/zmk-firmware/zmk/zephyr/subsys/bluetooth/controller/./util/memq.h"
	.file 9 "/home/g/mise-work/zmk-firmware/zmk/zephyr/subsys/bluetooth/controller/./util/mayfly.h"
	.file 10 "/home/g/mise-work/zmk-firmware/zmk/zephyr/subsys/bluetooth/controller/./hal/ccm.h"
	.file 11 "/home/g/mise-work/zmk-firmware/zmk/zephyr/subsys/bluetooth/controller/./ticker/ticker.h"
	.file 12 "/home/g/mise-work/zmk-firmware/zmk/zephyr/subsys/bluetooth/controller/ll_sw/pdu_df.h"
	.file 13 "/home/g/mise-work/zmk-firmware/zmk/zephyr/subsys/bluetooth/controller/ll_sw/pdu.h"
	.file 14 "/home/g/mise-work/zmk-firmware/zmk/zephyr/subsys/bluetooth/controller/ll_sw/lll.h"
	.file 15 "/home/g/mise-work/zmk-firmware/zmk/zephyr/include/zephyr/fatal_types.h"
	.file 16 "/home/g/mise-work/zmk-firmware/zmk/zephyr/subsys/bluetooth/controller/ll_sw/nordic/lll/lll_df_types.h"
	.file 17 "/home/g/mise-work/zmk-firmware/zmk/zephyr/subsys/bluetooth/controller/ll_sw/nordic/lll/lll_adv_types.h"
	.file 18 "/home/g/mise-work/zmk-firmware/zmk/zephyr/subsys/bluetooth/controller/ll_sw/lll_adv.h"
	.file 19 "/home/g/mise-work/zmk-firmware/zmk/zephyr/subsys/bluetooth/controller/ll_sw/lll_conn.h"
	.file 20 "/home/g/mise-work/zmk-firmware/zmk/zephyr/subsys/bluetooth/controller/./ll_sw/ull_tx_queue.h"
	.file 21 "/home/g/mise-work/zmk-firmware/zmk/zephyr/subsys/bluetooth/controller/ll_sw/ull_adv_types.h"
	.file 22 "/home/g/mise-work/zmk-firmware/zmk/zephyr/subsys/bluetooth/controller/ll_sw/ull_conn_types.h"
	.file 23 "/home/g/mise-work/zmk-firmware/zmk/zephyr/subsys/bluetooth/controller/./ll_sw/ull_llcp.h"
	.file 24 "/home/g/mise-work/zmk-firmware/zmk/zephyr/subsys/bluetooth/controller/ll_sw/ull_conn_internal.h"
	.file 25 "/home/g/mise-work/zmk-firmware/zmk/zephyr/subsys/bluetooth/controller/ll_sw/lll_peripheral.h"
	.file 26 "/home/g/mise-work/zmk-firmware/zmk/zephyr/subsys/bluetooth/controller/ll_sw/ull_adv_internal.h"
	.file 27 "/home/g/mise-work/zmk-firmware/zmk/zephyr/subsys/bluetooth/controller/ll_sw/lll_chan.h"
	.file 28 "/home/g/mise-work/zmk-firmware/zmk/zephyr/subsys/bluetooth/controller/ll_sw/lll_filter.h"
	.file 29 "/home/g/mise-work/zmk-firmware/zmk/zephyr/include/zephyr/sys/__assert.h"
	.file 30 "/home/g/mise-work/zmk-firmware/zmk/zephyr/subsys/bluetooth/controller/ll_sw/lll_clock.h"
	.file 31 "/home/g/mise-work/zmk-firmware/zmk/zephyr/subsys/bluetooth/controller/./util/util.h"
	.file 32 "/home/g/mise-work/zmk-firmware/zmk/zephyr/subsys/bluetooth/controller/include/ll.h"