	.cpu cortex-m4
	.arch armv7e-m
	.fpu fpv4-sp-d16
	.eabi_attribute 27, 1
	.eabi_attribute 28, 1
	.eabi_attribute 20, 1
	.eabi_attribute 21, 1
	.eabi_attribute 23, 3
	.eabi_attribute 24, 1
	.eabi_attribute 25, 1
	.eabi_attribute 26, 1
	.eabi_attribute 30, 4
	.eabi_attribute 34, 1
	.eabi_attribute 38, 1
	.eabi_attribute 18, 4
	.file	"hwinfo_weak_impl.c"
	.text
.Ltext0:
	.cfi_sections	.debug_frame
	.file 1 "/home/g/mise-work/zmk-firmware/zmk/zephyr/drivers/hwinfo/hwinfo_weak_impl.c"
	.section	.text.z_impl_hwinfo_get_device_id,"ax",%progbits
	.align	1
	.weak	z_impl_hwinfo_get_device_id
	.syntax unified
	.thumb
	.thumb_func
	.type	z_impl_hwinfo_get_device_id, %function
z_impl_hwinfo_get_device_id:
.LVL0:
.LFB448:
	.loc 1 10 1 view -0
	.cfi_startproc
	@ args = 0, pretend = 0, frame = 0
	@ frame_needed = 0, uses_anonymous_args = 0
	@ link register save eliminated.
	.loc 1 11 2 view .LVU1
	.loc 1 12 1 is_stmt 0 view .LVU2
	mvn	r0, #87
.LVL1:
	.loc 1 12 1 view .LVU3
	bx	lr
	.cfi_endproc
.LFE448:
	.size	z_impl_hwinfo_get_device_id, .-z_impl_hwinfo_get_device_id
	.section	.text.z_impl_hwinfo_get_reset_cause,"ax",%progbits
	.align	1
	.weak	z_impl_hwinfo_get_reset_cause
	.syntax unified
	.thumb
	.thumb_func
	.type	z_impl_hwinfo_get_reset_cause, %function
z_impl_hwinfo_get_reset_cause:
.LVL2:
.LFB449:
	.loc 1 15 1 is_stmt 1 view -0
	.cfi_startproc
	@ args = 0, pretend = 0, frame = 0
	@ frame_needed = 0, uses_anonymous_args = 0
	@ link register save eliminated.
	.loc 1 16 2 view .LVU5
	.loc 1 17 1 is_stmt 0 view .LVU6
	mvn	r0, #87
.LVL3:
	.loc 1 17 1 view .LVU7
	bx	lr
	.cfi_endproc
.LFE449:
	.size	z_impl_hwinfo_get_reset_cause, .-z_impl_hwinfo_get_reset_cause
	.section	.text.z_impl_hwinfo_clear_reset_cause,"ax",%progbits
	.align	1
	.weak	z_impl_hwinfo_clear_reset_cause
	.syntax unified
	.thumb
	.thumb_func
	.type	z_impl_hwinfo_clear_reset_cause, %function
z_impl_hwinfo_clear_reset_cause:
.LFB450:
	.loc 1 20 1 is_stmt 1 view -0
	.cfi_startproc
	@ args = 0, pretend = 0, frame = 0
	@ frame_needed = 0, uses_anonymous_args = 0
	@ link register save eliminated.
	.loc 1 21 2 view .LVU9
	.loc 1 22 1 is_stmt 0 view .LVU10
	mvn	r0, #87
	bx	lr
	.cfi_endproc
.LFE450:
	.size	z_impl_hwinfo_clear_reset_cause, .-z_impl_hwinfo_clear_reset_cause
	.section	.text.z_impl_hwinfo_get_supported_reset_cause,"ax",%progbits
	.align	1
	.weak	z_impl_hwinfo_get_supported_reset_cause
	.syntax unified
	.thumb
	.thumb_func
	.type	z_impl_hwinfo_get_supported_reset_cause, %function
z_impl_hwinfo_get_supported_reset_cause:
.LFB453:
	.cfi_startproc
	.loc 1 24 31 is_stmt 1 view -0
	@ args = 0, pretend = 0, frame = 0
	@ frame_needed = 0, uses_anonymous_args = 0
	@ link register save eliminated.
	mvn	r0, #87
	bx	lr
	.cfi_endproc
.LFE453:
	.size	z_impl_hwinfo_get_supported_reset_cause, .-z_impl_hwinfo_get_supported_reset_cause
	.text
.Letext0:
	.file 2 "/home/g/zephyr-sdk-0.16.3/arm-zephyr-eabi/lib/gcc/arm-zephyr-eabi/12.2.0/include/stddef.h"
	.file 3 "/home/g/zephyr-sdk-0.16.3/arm-zephyr-eabi/picolibc/include/machine/_default_types.h"
	.file 4 "/home/g/zephyr-sdk-0.16.3/arm-zephyr-eabi/picolibc/include/sys/_stdint.h"
	.file 5 "/home/g/zephyr-sdk-0.16.3/arm-zephyr-eabi/picolibc/include/sys/_types.h"
	.file 6 "/home/g/zephyr-sdk-0.16.3/arm-zephyr-eabi/picolibc/include/sys/types.h"