	.cpu cortex-m4
	.arch armv7e-m
	.fpu fpv4-sp-d16
	.eabi_attribute 27, 1
	.eabi_attribute 28, 1
	.eabi_attribute 20, 1
	.eabi_attribute 21, 1
	.eabi_attribute 23, 3
	.eabi_attribute 24, 1
	.eabi_attribute 25, 1
	.eabi_attribute 26, 1
	.eabi_attribute 30, 4
	.eabi_attribute 34, 1
	.eabi_attribute 38, 1
	.eabi_attribute 18, 4
	.file	"hwinfo_nrf.c"
	.text
.Ltext0:
	.cfi_sections	.debug_frame
	.file 1 "/home/g/mise-work/zmk-firmware/zmk/zephyr/drivers/hwinfo/hwinfo_nrf.c"
	.section	.text.z_impl_hwinfo_get_device_id,"ax",%progbits
	.align	1
	.global	z_impl_hwinfo_get_device_id
	.syntax unified
	.thumb
	.thumb_func
	.type	z_impl_hwinfo_get_device_id, %function
z_impl_hwinfo_get_device_id:
.LVL0:
.LFB983:
	.loc 1 21 1 view -0
	.cfi_startproc
	@ args = 0, pretend = 0, frame = 8
	@ frame_needed = 0, uses_anonymous_args = 0
	.loc 1 22 2 view .LVU1
	.loc 1 23 2 view .LVU2
	.loc 1 25 2 view .LVU3
.LBB28:
.LBI28:
	.file 2 "/home/g/mise-work/zmk-firmware/zmk/zephyr/soc/arm/nordic_nrf/common/./soc_secure.h"
	.loc 2 66 20 view .LVU4
	.loc 2 68 2 view .LVU5
.LBB29:
.LBI29:
	.file 3 "/home/g/mise-work/zmk-firmware/zmk/modules/hal/nordic/nrfx/hal/nrf_ficr.h"
	.loc 3 257 24 view .LVU6
.LBB30:
	.loc 3 262 5 view .LVU7
.LBE30:
.LBE29:
.LBE28:
	.loc 1 21 1 is_stmt 0 view .LVU8
	push	{r0, r1, r4, lr}
	.cfi_def_cfa_offset 16
	.cfi_offset 4, -8
	.cfi_offset 14, -4
.LBB37:
.LBB33:
.LBB31:
	.loc 3 262 27 view .LVU9
	mov	r2, #268435456
.LBE31:
.LBE33:
.LBE37:
	.loc 1 30 5 view .LVU10
	cmp	r1, #8
.LBB38:
.LBB34:
.LBB32:
	.loc 3 262 27 view .LVU11
	ldr	r3, [r2, #96]
.LVL1:
	.loc 3 262 27 view .LVU12
.LBE32:
.LBE34:
	.loc 2 69 2 is_stmt 1 view .LVU13
.LBB35:
.LBI35:
	.loc 3 257 24 view .LVU14
.LBB36:
	.loc 3 262 5 view .LVU15
	.loc 3 262 27 is_stmt 0 view .LVU16
	ldr	r2, [r2, #100]
.LVL2:
	.loc 3 262 27 view .LVU17
.LBE36:
.LBE35:
.LBE38:
	.loc 1 27 2 is_stmt 1 view .LVU18
	.loc 1 30 5 is_stmt 0 view .LVU19
	it	cs
	movcs	r1, #8
.LVL3:
	.loc 1 30 5 view .LVU20
	rev	r2, r2
	.loc 1 27 15 view .LVU21
	str	r2, [sp]
	.loc 1 28 2 is_stmt 1 view .LVU22
	rev	r3, r3
	.loc 1 30 5 is_stmt 0 view .LVU23
	mov	r4, r1
.LBB39:
.LBB40:
	.file 4 "/home/g/zephyr-sdk-0.16.3/arm-zephyr-eabi/picolibc/include/ssp/string.h"
	.loc 4 83 299 view .LVU24
	mov	r2, r1
	mov	r1, sp
.LBE40:
.LBE39:
	.loc 1 28 15 view .LVU25
	str	r3, [sp, #4]
	.loc 1 30 2 is_stmt 1 view .LVU26
.LVL4:
	.loc 1 34 1 view .LVU27
.LBB42:
.LBI39:
	.loc 4 83 216 view .LVU28
.LBB41:
	.loc 4 83 292 view .LVU29
	.loc 4 83 299 is_stmt 0 view .LVU30
	bl	memcpy
.LVL5:
	.loc 4 83 299 view .LVU31
.LBE41:
.LBE42:
	.loc 1 36 2 is_stmt 1 view .LVU32
	.loc 1 37 1 is_stmt 0 view .LVU33
	mov	r0, r4
	add	sp, sp, #8
	.cfi_def_cfa_offset 8
	@ sp needed
	pop	{r4, pc}
	.cfi_endproc
.LFE983:
	.size	z_impl_hwinfo_get_device_id, .-z_impl_hwinfo_get_device_id
	.section	.text.z_impl_hwinfo_get_reset_cause,"ax",%progbits
	.align	1
	.global	z_impl_hwinfo_get_reset_cause
	.syntax unified
	.thumb
	.thumb_func
	.type	z_impl_hwinfo_get_reset_cause, %function
z_impl_hwinfo_get_reset_cause:
.LVL6:
.LFB984:
	.loc 1 41 1 is_stmt 1 view -0
	.cfi_startproc
	@ args = 0, pretend = 0, frame = 0
	@ frame_needed = 0, uses_anonymous_args = 0
	@ link register save eliminated.
	.loc 1 42 2 view .LVU35
	.loc 1 44 2 view .LVU36
.LBB43:
.LBI43:
	.file 5 "/home/g/mise-work/zmk-firmware/zmk/modules/hal/nordic/nrfx/helpers/nrfx_reset_reason.h"
	.loc 5 233 24 view .LVU37
	.loc 5 236 5 view .LVU38
.LBB44:
.LBI44:
	.file 6 "/home/g/mise-work/zmk-firmware/zmk/modules/hal/nordic/nrfx/hal/nrf_power.h"
	.loc 6 1308 24 view .LVU39
.LBB45:
	.loc 6 1310 5 view .LVU40
	.loc 6 1310 17 is_stmt 0 view .LVU41
	mov	r3, #1073741824
	ldr	r2, [r3, #1024]
.LVL7:
	.loc 6 1310 17 view .LVU42
.LBE45:
.LBE44:
.LBE43:
	.loc 1 46 2 is_stmt 1 view .LVU43
	.loc 1 46 13 is_stmt 0 view .LVU44
	and	r3, r2, #1
.LVL8:
	.loc 1 49 2 is_stmt 1 view .LVU45
	.loc 1 49 5 is_stmt 0 view .LVU46
	lsls	r1, r2, #30
	.loc 1 50 3 is_stmt 1 view .LVU47
	.loc 1 50 9 is_stmt 0 view .LVU48
	it	mi
	orrmi	r3, r3, #16
.LVL9:
	.loc 1 52 2 is_stmt 1 view .LVU49
	.loc 1 52 5 is_stmt 0 view .LVU50
	lsls	r1, r2, #28
	.loc 1 53 3 is_stmt 1 view .LVU51
	.loc 1 53 9 is_stmt 0 view .LVU52
	it	mi
	orrmi	r3, r3, #256
.LVL10:
	.loc 1 55 2 is_stmt 1 view .LVU53
	.loc 1 55 5 is_stmt 0 view .LVU54
	lsls	r1, r2, #15
	.loc 1 56 3 is_stmt 1 view .LVU55
	.loc 1 56 9 is_stmt 0 view .LVU56
	it	mi
	orrmi	r3, r3, #128
.LVL11:
	.loc 1 58 2 is_stmt 1 view .LVU57
	.loc 1 58 5 is_stmt 0 view .LVU58
	lsls	r1, r2, #13
	.loc 1 59 3 is_stmt 1 view .LVU59
	.loc 1 59 9 is_stmt 0 view .LVU60
	it	mi
	orrmi	r3, r3, #32
.LVL12:
	.loc 1 92 2 is_stmt 1 view .LVU61
	.loc 1 92 5 is_stmt 0 view .LVU62
	lsls	r2, r2, #29
.LVL13:
	.loc 1 93 3 is_stmt 1 view .LVU63
	.loc 1 93 9 is_stmt 0 view .LVU64
	it	mi
	orrmi	r3, r3, #2
.LVL14:
	.loc 1 97 2 is_stmt 1 view .LVU65
	.loc 1 97 9 is_stmt 0 view .LVU66
	str	r3, [r0]
	.loc 1 99 2 is_stmt 1 view .LVU67
	.loc 1 100 1 is_stmt 0 view .LVU68
	movs	r0, #0
.LVL15:
	.loc 1 100 1 view .LVU69
	bx	lr
	.cfi_endproc
.LFE984:
	.size	z_impl_hwinfo_get_reset_cause, .-z_impl_hwinfo_get_reset_cause
	.section	.text.z_impl_hwinfo_clear_reset_cause,"ax",%progbits
	.align	1
	.global	z_impl_hwinfo_clear_reset_cause
	.syntax unified
	.thumb
	.thumb_func
	.type	z_impl_hwinfo_clear_reset_cause, %function
z_impl_hwinfo_clear_reset_cause:
.LFB985:
	.loc 1 103 1 is_stmt 1 view -0
	.cfi_startproc
	@ args = 0, pretend = 0, frame = 0
	@ frame_needed = 0, uses_anonymous_args = 0
	@ link register save eliminated.
	.loc 1 104 2 view .LVU71
.LVL16:
	.loc 1 106 2 view .LVU72
.LBB46:
.LBI46:
	.loc 5 247 20 view .LVU73
	.loc 5 250 5 view .LVU74
.LBB47:
.LBI47:
	.loc 6 1313 20 view .LVU75
.LBB48:
	.loc 6 1315 5 view .LVU76
	.loc 6 1315 22 is_stmt 0 view .LVU77
	mov	r3, #1073741824
	mov	r2, #-1
	str	r2, [r3, #1024]
.LVL17:
	.loc 6 1315 22 view .LVU78
.LBE48:
.LBE47:
.LBE46:
	.loc 1 108 2 is_stmt 1 view .LVU79
	.loc 1 109 1 is_stmt 0 view .LVU80
	movs	r0, #0
	bx	lr
	.cfi_endproc
.LFE985:
	.size	z_impl_hwinfo_clear_reset_cause, .-z_impl_hwinfo_clear_reset_cause
	.section	.text.z_impl_hwinfo_get_supported_reset_cause,"ax",%progbits
	.align	1
	.global	z_impl_hwinfo_get_supported_reset_cause
	.syntax unified
	.thumb
	.thumb_func
	.type	z_impl_hwinfo_get_supported_reset_cause, %function
z_impl_hwinfo_get_supported_reset_cause:
.LVL18:
.LFB986:
	.loc 1 112 1 is_stmt 1 view -0
	.cfi_startproc
	@ args = 0, pretend = 0, frame = 0
	@ frame_needed = 0, uses_anonymous_args = 0
	@ link register save eliminated.
	.loc 1 113 2 view .LVU82
	.loc 1 113 13 is_stmt 0 view .LVU83
	movw	r3, #435
	str	r3, [r0]
	.loc 1 120 2 is_stmt 1 view .LVU84
	.loc 1 121 1 is_stmt 0 view .LVU85
	movs	r0, #0
.LVL19:
	.loc 1 121 1 view .LVU86
	bx	lr
	.cfi_endproc
.LFE986:
	.size	z_impl_hwinfo_get_supported_reset_cause, .-z_impl_hwinfo_get_supported_reset_cause
	.text
.Letext0:
	.file 7 "/home/g/zephyr-sdk-0.16.3/arm-zephyr-eabi/picolibc/include/machine/_default_types.h"
	.file 8 "/home/g/zephyr-sdk-0.16.3/arm-zephyr-eabi/picolibc/include/sys/_stdint.h"
	.file 9 "/home/g/zephyr-sdk-0.16.3/arm-zephyr-eabi/lib/gcc/arm-zephyr-eabi/12.2.0/include/stddef.h"
	.file 10 "/home/g/mise-work/zmk-firmware/zmk/modules/hal/nordic/nrfx/mdk/nrf52840.h"
	.file 11 "/home/g/zephyr-sdk-0.16.3/arm-zephyr-eabi/picolibc/include/sys/_types.h"
	.file 12 "/home/g/zephyr-sdk-0.16.3/arm-zephyr-eabi/picolibc/include/sys/types.h"
	.file 13 "<built-in>"