	.cpu cortex-m4
	.arch armv7e-m
	.fpu fpv4-sp-d16
	.eabi_attribute 27, 1
	.eabi_attribute 28, 1
	.eabi_attribute 20, 1
	.eabi_attribute 21, 1
	.eabi_attribute 23, 3
	.eabi_attribute 24, 1
	.eabi_attribute 25, 1
	.eabi_attribute 26, 1
	.eabi_attribute 30, 4
	.eabi_attribute 34, 1
	.eabi_attribute 38, 1
	.eabi_attribute 18, 4
	.file	"pinctrl_nrf.c"
	.text
.Ltext0:
	.cfi_sections	.debug_frame
	.file 1 "/home/g/mise-work/zmk-firmware/zmk/zephyr/drivers/pinctrl/pinctrl_nrf.c"
	.section	.text.nrf_gpio_pin_port_decode,"ax",%progbits
	.align	1
	.syntax unified
	.thumb
	.thumb_func
	.type	nrf_gpio_pin_port_decode, %function
nrf_gpio_pin_port_decode:
.LVL0:
.LFB282:
	.file 2 "/home/g/mise-work/zmk-firmware/zmk/modules/hal/nordic/nrfx/hal/nrf_gpio.h"
	.loc 2 892 1 view -0
	.cfi_startproc
	@ args = 0, pretend = 0, frame = 0
	@ frame_needed = 0, uses_anonymous_args = 0
	@ link register save eliminated.
	.loc 2 893 7 view .LVU1
	.loc 2 893 8 view .LVU2
	.loc 2 895 5 view .LVU3
	.loc 2 897 5 view .LVU4
.LBB8:
.LBI8:
	.loc 2 1449 24 view .LVU5
.LBB9:
	.loc 2 1451 5 view .LVU6
	.loc 2 1451 14 is_stmt 0 view .LVU7
	ldr	r3, [r0]
.LVL1:
	.loc 2 1452 5 is_stmt 1 view .LVU8
	.loc 2 1452 28 is_stmt 0 view .LVU9
	and	r2, r3, #31
.LBE9:
.LBE8:
	.loc 2 897 5 view .LVU10
	lsrs	r3, r3, #5
.LVL2:
.LBB11:
.LBB10:
	.loc 2 1452 12 view .LVU11
	str	r2, [r0]
.LVL3:
	.loc 2 1454 5 is_stmt 1 view .LVU12
	.loc 2 1454 5 is_stmt 0 view .LVU13
.LBE10:
.LBE11:
	.loc 2 897 5 view .LVU14
	beq	.L3
	.loc 2 895 21 view .LVU15
	cmp	r3, #1
	ldr	r0, .L5
.LVL4:
	.loc 2 895 21 view .LVU16
	it	ne
	movne	r0, #0
	bx	lr
.LVL5:
.L3:
	.loc 2 897 5 view .LVU17
	mov	r0, #1342177280
.LVL6:
	.loc 2 905 1 view .LVU18
	bx	lr
.L6:
	.align	2
.L5:
	.word	1342178048
	.cfi_endproc
.LFE282:
	.size	nrf_gpio_pin_port_decode, .-nrf_gpio_pin_port_decode
	.section	.text.pinctrl_configure_pins,"ax",%progbits
	.align	1
	.global	pinctrl_configure_pins
	.syntax unified
	.thumb
	.thumb_func
	.type	pinctrl_configure_pins, %function
pinctrl_configure_pins:
.LVL7:
.LFB327:
	.loc 1 87 1 is_stmt 1 view -0
	.cfi_startproc
	@ args = 0, pretend = 0, frame = 8
	@ frame_needed = 0, uses_anonymous_args = 0
	.loc 1 88 2 view .LVU20
.LBB27:
	.loc 1 88 7 view .LVU21
	.loc 1 88 7 is_stmt 0 view .LVU22
.LBE27:
	.loc 1 87 1 view .LVU23
	push	{r0, r1, r2, r4, r5, r6, r7, r8, r9, r10, fp, lr}
	.cfi_def_cfa_offset 48
	.cfi_offset 4, -36
	.cfi_offset 5, -32
	.cfi_offset 6, -28
	.cfi_offset 7, -24
	.cfi_offset 8, -20
	.cfi_offset 9, -16
	.cfi_offset 10, -12
	.cfi_offset 11, -8
	.cfi_offset 14, -4
.LBB55:
.LBB28:
.LBB29:
.LBB30:
.LBB31:
	.loc 2 951 9 view .LVU24
	ldr	r6, .L41
.LBE31:
.LBE30:
.LBE29:
.LBE28:
.LBE55:
	.loc 1 87 1 view .LVU25
	mov	r7, r2
	mov	r8, r0
	add	r1, r0, r1, lsl #2
.LVL8:
.L8:
.LBB56:
	.loc 1 88 25 is_stmt 1 discriminator 1 view .LVU26
	cmp	r1, r8
	bne	.L29
.LBE56:
	.loc 1 342 9 is_stmt 0 view .LVU27
	movs	r0, #0
.L7:
	.loc 1 343 1 view .LVU28
	add	sp, sp, #12
	.cfi_remember_state
	.cfi_def_cfa_offset 36
	@ sp needed
	pop	{r4, r5, r6, r7, r8, r9, r10, fp, pc}
.LVL9:
.L29:
	.cfi_restore_state
.LBB57:
.LBB53:
	.loc 1 89 3 is_stmt 1 view .LVU29
	.loc 1 89 39 is_stmt 0 view .LVU30
	ldr	r5, [r8]
.LVL10:
	.loc 1 90 3 is_stmt 1 view .LVU31
	.loc 1 90 12 is_stmt 0 view .LVU32
	and	r4, r5, #127
.LVL11:
	.loc 1 91 3 is_stmt 1 view .LVU33
	.loc 1 92 3 view .LVU34
	.loc 1 93 3 view .LVU35
	.loc 1 95 3 view .LVU36
	.loc 1 96 9 is_stmt 0 view .LVU37
	cmp	r4, #127
	it	eq
	moveq	r4, #-1
.LVL12:
	.loc 1 99 3 is_stmt 1 view .LVU38
	cmp	r5, #2293760
	.loc 1 99 31 is_stmt 0 view .LVU39
	lsr	r3, r5, #16
	.loc 1 99 3 view .LVU40
	bcs	.L30
	cmp	r3, #28
	bhi	.L11
	cmp	r3, #5
	beq	.L12
	cmp	r3, #6
	beq	.L13
	cmp	r3, #4
	beq	.L14
.L30:
	mvn	r0, #133
	b	.L7
.L11:
	subs	r3, r3, #30
	cmp	r3, #4
	bhi	.L15
	tbb	[pc, r3]
.L17:
	.byte	(.L21-.L17)/2
	.byte	(.L20-.L17)/2
	.byte	(.L19-.L17)/2
	.byte	(.L18-.L17)/2
	.byte	(.L16-.L17)/2
	.p2align 1
.L14:
	.loc 1 126 4 is_stmt 1 view .LVU41
	.loc 1 324 6 is_stmt 0 view .LVU42
	adds	r2, r4, #1
	.loc 1 126 37 view .LVU43
	str	r4, [r7, #1288]
	.loc 1 127 4 is_stmt 1 view .LVU44
.LVL13:
	.loc 1 128 4 view .LVU45
	.loc 1 129 4 view .LVU46
	.loc 1 130 4 view .LVU47
	.loc 1 324 3 view .LVU48
	.loc 1 324 6 is_stmt 0 view .LVU49
	bne	.L31
.LVL14:
.L23:
	.loc 1 324 6 view .LVU50
.LBE53:
	.loc 1 88 37 is_stmt 1 discriminator 2 view .LVU51
	.loc 1 88 37 is_stmt 0 discriminator 2 view .LVU52
	add	r8, r8, #4
.LVL15:
	.loc 1 88 37 discriminator 2 view .LVU53
	b	.L8
.LVL16:
.L12:
.LBB54:
	.loc 1 132 4 is_stmt 1 view .LVU54
	.loc 1 324 6 is_stmt 0 view .LVU55
	adds	r3, r4, #1
	.loc 1 132 38 view .LVU56
	str	r4, [r7, #1292]
	.loc 1 133 4 is_stmt 1 view .LVU57
.LVL17:
	.loc 1 134 4 view .LVU58
	.loc 1 135 4 view .LVU59
	.loc 1 136 4 view .LVU60
	.loc 1 324 3 view .LVU61
	.loc 1 324 6 is_stmt 0 view .LVU62
	beq	.L23
	.loc 1 135 10 view .LVU63
	mov	r9, #1
	b	.L22
.LVL18:
.L13:
	.loc 1 138 4 is_stmt 1 view .LVU64
	.loc 1 324 6 is_stmt 0 view .LVU65
	adds	r0, r4, #1
	.loc 1 138 38 view .LVU66
	str	r4, [r7, #1296]
	.loc 1 139 4 is_stmt 1 view .LVU67
.LVL19:
	.loc 1 140 4 view .LVU68
	.loc 1 141 4 view .LVU69
	.loc 1 324 3 view .LVU70
	.loc 1 324 6 is_stmt 0 view .LVU71
	beq	.L23
	.loc 1 140 10 view .LVU72
	mov	r9, #0
	b	.L40
.LVL20:
.L15:
	.loc 1 288 4 is_stmt 1 view .LVU73
	.loc 1 288 37 is_stmt 0 view .LVU74
	str	r4, [r7, #1316]
.L39:
	.loc 1 289 4 is_stmt 1 view .LVU75
.LVL21:
	.loc 1 290 4 view .LVU76
	.loc 1 291 4 view .LVU77
	.loc 1 324 3 view .LVU78
	.loc 1 324 6 is_stmt 0 view .LVU79
	adds	r2, r4, #1
	beq	.L23
	.loc 1 290 10 view .LVU80
	mov	r9, #1
	.loc 1 289 8 view .LVU81
	mov	r10, #0
.LVL22:
.L25:
.LBB50:
	.loc 1 332 4 is_stmt 1 view .LVU82
	.loc 1 332 15 is_stmt 0 view .LVU83
	ldr	fp, [r8]
	str	r4, [sp, #4]
	.loc 1 332 36 view .LVU84
	and	r3, fp, #8192
	.loc 1 334 11 view .LVU85
	cmp	r3, #0
.LBB34:
.LBB32:
	.loc 2 936 27 view .LVU86
	add	r0, sp, #4
.LBE32:
.LBE34:
	.loc 1 334 11 view .LVU87
	itt	ne
	movne	r9, #1
	movne	r10, #0
.LVL23:
	.loc 1 337 4 is_stmt 1 view .LVU88
.LBB35:
.LBI30:
	.loc 2 928 20 view .LVU89
.LBB33:
	.loc 2 936 5 view .LVU90
	.loc 2 936 27 is_stmt 0 view .LVU91
	bl	nrf_gpio_pin_port_decode
.LVL24:
	.loc 2 937 5 is_stmt 1 view .LVU92
	ldr	r3, [sp, #4]
	add	r0, r0, r3, lsl #2
.LVL25:
	.loc 2 956 13 is_stmt 0 view .LVU93
	ubfx	r3, r5, #9, #4
	.loc 2 937 14 view .LVU94
	ldr	r2, [r0, #1792]
.LVL26:
	.loc 2 939 5 is_stmt 1 view .LVU95
	.loc 2 951 5 view .LVU96
	.loc 2 952 5 view .LVU97
	.loc 2 954 13 is_stmt 0 view .LVU98
	ubfx	fp, fp, #7, #2
.LVL27:
	.loc 2 956 29 view .LVU99
	lsls	r3, r3, #8
	orr	r3, r3, fp, lsl #2
	orr	r3, r3, r10
	.loc 2 951 9 view .LVU100
	ands	r2, r2, r6
.LVL28:
	.loc 2 951 9 view .LVU101
	orrs	r3, r3, r2
	.loc 2 952 9 view .LVU102
	orr	r3, r3, r9, lsl #1
.LVL29:
	.loc 2 962 5 is_stmt 1 view .LVU103
	.loc 2 962 30 is_stmt 0 view .LVU104
	str	r3, [r0, #1792]
.LVL30:
	.loc 2 962 30 view .LVU105
	b	.L23
.LVL31:
.L21:
	.loc 2 962 30 view .LVU106
.LBE33:
.LBE35:
.LBE50:
	.loc 1 293 4 is_stmt 1 view .LVU107
	.loc 1 324 6 is_stmt 0 view .LVU108
	adds	r3, r4, #1
	.loc 1 293 37 view .LVU109
	str	r4, [r7, #1320]
	.loc 1 294 4 is_stmt 1 view .LVU110
.LVL32:
	.loc 1 295 4 view .LVU111
	.loc 1 296 4 view .LVU112
	.loc 1 297 4 view .LVU113
	.loc 1 324 3 view .LVU114
	.loc 1 324 6 is_stmt 0 view .LVU115
	beq	.L23
.LBB51:
	.loc 1 328 5 is_stmt 1 view .LVU116
.LVL33:
.LBB36:
.LBI36:
	.loc 2 1146 20 view .LVU117
.LBB37:
	.loc 2 1148 5 view .LVU118
	.loc 2 1154 9 view .LVU119
.LBB38:
.LBB39:
	.loc 2 1122 27 is_stmt 0 view .LVU120
	add	r0, sp, #4
	str	r4, [sp, #4]
.LVL34:
	.loc 2 1122 27 view .LVU121
.LBE39:
.LBI38:
	.loc 2 1120 20 is_stmt 1 view .LVU122
.LBB42:
	.loc 2 1122 5 view .LVU123
	.loc 2 1122 27 is_stmt 0 view .LVU124
	bl	nrf_gpio_pin_port_decode
.LVL35:
	.loc 2 1124 5 is_stmt 1 view .LVU125
	.loc 2 1124 36 is_stmt 0 view .LVU126
	ldr	r3, [sp, #4]
	mov	r9, #1
	lsl	r3, r9, r3
.LVL36:
.LBB40:
.LBI40:
	.loc 2 1269 20 is_stmt 1 view .LVU127
.LBB41:
	.loc 2 1271 5 view .LVU128
	.loc 2 1271 19 is_stmt 0 view .LVU129
	str	r3, [r0, #1288]
.LVL37:
.L40:
	.loc 2 1271 19 view .LVU130
.LBE41:
.LBE40:
.LBE42:
.LBE38:
.LBE37:
.LBE36:
.LBE51:
	.loc 1 139 8 view .LVU131
	mov	r10, r9
	b	.L25
.LVL38:
.L20:
	.loc 1 299 4 is_stmt 1 view .LVU132
	.loc 1 299 37 is_stmt 0 view .LVU133
	str	r4, [r7, #1328]
	.loc 1 300 4 is_stmt 1 view .LVU134
.LVL39:
	.loc 1 301 4 view .LVU135
	.loc 1 302 4 view .LVU136
	.loc 1 324 3 view .LVU137
	b	.L39
.LVL40:
.L19:
	.loc 1 304 4 view .LVU138
	.loc 1 304 37 is_stmt 0 view .LVU139
	str	r4, [r7, #1332]
	.loc 1 305 4 is_stmt 1 view .LVU140
.LVL41:
	.loc 1 306 4 view .LVU141
	.loc 1 307 4 view .LVU142
	.loc 1 324 3 view .LVU143
	b	.L39
.LVL42:
.L18:
	.loc 1 309 4 view .LVU144
	.loc 1 309 37 is_stmt 0 view .LVU145
	str	r4, [r7, #1336]
	.loc 1 310 4 is_stmt 1 view .LVU146
.LVL43:
	.loc 1 311 4 view .LVU147
	.loc 1 312 4 view .LVU148
	.loc 1 324 3 view .LVU149
	b	.L39
.LVL44:
.L16:
	.loc 1 314 4 view .LVU150
	.loc 1 314 37 is_stmt 0 view .LVU151
	str	r4, [r7, #1340]
	.loc 1 315 4 is_stmt 1 view .LVU152
.LVL45:
	.loc 1 316 4 view .LVU153
	.loc 1 317 4 view .LVU154
	.loc 1 324 3 view .LVU155
	b	.L39
.LVL46:
.L31:
	.loc 1 129 10 is_stmt 0 view .LVU156
	mov	r9, #0
.LVL47:
.L22:
.LBB52:
.LBB49:
.LBB48:
	.loc 2 1150 9 is_stmt 1 view .LVU157
.LBB43:
.LBB44:
	.loc 2 1130 27 is_stmt 0 view .LVU158
	add	r0, sp, #4
	str	r4, [sp, #4]
.LVL48:
	.loc 2 1130 27 view .LVU159
.LBE44:
.LBI43:
	.loc 2 1128 20 is_stmt 1 view .LVU160
.LBB47:
	.loc 2 1130 5 view .LVU161
	.loc 2 1130 27 is_stmt 0 view .LVU162
	bl	nrf_gpio_pin_port_decode
.LVL49:
	.loc 2 1132 5 is_stmt 1 view .LVU163
	.loc 2 1132 38 is_stmt 0 view .LVU164
	ldr	r3, [sp, #4]
	mov	r10, #1
	lsl	r3, r10, r3
.LVL50:
.LBB45:
.LBI45:
	.loc 2 1275 20 is_stmt 1 view .LVU165
.LBB46:
	.loc 2 1277 5 view .LVU166
	.loc 2 1277 19 is_stmt 0 view .LVU167
	str	r3, [r0, #1292]
.LVL51:
	.loc 2 1277 19 view .LVU168
.LBE46:
.LBE45:
.LBE47:
.LBE43:
	b	.L25
.L42:
	.align	2
.L41:
	.word	-198416
.LBE48:
.LBE49:
.LBE52:
.LBE54:
.LBE57:
	.cfi_endproc
.LFE327:
	.size	pinctrl_configure_pins, .-pinctrl_configure_pins
	.text
.Letext0:
	.file 3 "/home/g/zephyr-sdk-0.16.3/arm-zephyr-eabi/picolibc/include/machine/_default_types.h"
	.file 4 "/home/g/zephyr-sdk-0.16.3/arm-zephyr-eabi/picolibc/include/sys/_stdint.h"
	.file 5 "/home/g/mise-work/zmk-firmware/zmk/zephyr/soc/arm/nordic_nrf/common/./pinctrl_soc.h"
	.file 6 "/home/g/mise-work/zmk-firmware/zmk/modules/hal/nordic/nrfx/mdk/nrf52840.h"