	.cpu cortex-m4
	.arch armv7e-m
	.fpu fpv4-sp-d16
	.eabi_attribute 27, 1
	.eabi_attribute 28, 1
	.eabi_attribute 20, 1
	.eabi_attribute 21, 1
	.eabi_attribute 23, 3
	.eabi_attribute 24, 1
	.eabi_attribute 25, 1
	.eabi_attribute 26, 1
	.eabi_attribute 30, 2
	.eabi_attribute 34, 1
	.eabi_attribute 38, 1
	.eabi_attribute 18, 4
	.file	"memq.c"
	.text
.Ltext0:
	.cfi_sections	.debug_frame
	.file 1 "/home/g/mise-work/zmk-firmware/zmk/zephyr/subsys/bluetooth/controller/util/memq.c"
	.section	.text.memq_init,"ax",%progbits
	.align	1
	.p2align 2,,3
	.global	memq_init
	.syntax unified
	.thumb
	.thumb_func
	.type	memq_init, %function
memq_init:
.LVL0:
.LFB446:
	.loc 1 52 1 view -0
	.cfi_startproc
	@ args = 0, pretend = 0, frame = 0
	@ frame_needed = 0, uses_anonymous_args = 0
	@ link register save eliminated.
	.loc 1 54 2 view .LVU1
	.loc 1 54 16 is_stmt 0 view .LVU2
	str	r0, [r2]
	.loc 1 54 8 view .LVU3
	str	r0, [r1]
	.loc 1 56 2 is_stmt 1 view .LVU4
	.loc 1 57 1 is_stmt 0 view .LVU5
	bx	lr
	.cfi_endproc
.LFE446:
	.size	memq_init, .-memq_init
	.section	.text.memq_deinit,"ax",%progbits
	.align	1
	.p2align 2,,3
	.global	memq_deinit
	.syntax unified
	.thumb
	.thumb_func
	.type	memq_deinit, %function
memq_deinit:
.LVL1:
.LFB447:
	.loc 1 67 1 is_stmt 1 view -0
	.cfi_startproc
	@ args = 0, pretend = 0, frame = 0
	@ frame_needed = 0, uses_anonymous_args = 0
	@ link register save eliminated.
	.loc 1 68 2 view .LVU7
	.loc 1 71 2 view .LVU8
	.loc 1 71 5 is_stmt 0 view .LVU9
	ldr	r2, [r1]
	.loc 1 67 1 view .LVU10
	mov	r3, r0
	.loc 1 71 6 view .LVU11
	ldr	r0, [r0]
.LVL2:
	.loc 1 71 5 view .LVU12
	cmp	r0, r2
	.loc 1 75 2 is_stmt 1 view .LVU13
.LVL3:
	.loc 1 76 2 view .LVU14
	.loc 1 76 16 is_stmt 0 view .LVU15
	ittet	eq
	moveq	r2, #0
	streq	r2, [r1]
	.loc 1 72 9 view .LVU16
	movne	r0, #0
.LVL4:
	.loc 1 76 8 view .LVU17
	streq	r2, [r3]
	.loc 1 78 2 is_stmt 1 view .LVU18
	.loc 1 79 1 is_stmt 0 view .LVU19
	bx	lr
	.cfi_endproc
.LFE447:
	.size	memq_deinit, .-memq_deinit
	.section	.text.memq_enqueue,"ax",%progbits
	.align	1
	.p2align 2,,3
	.global	memq_enqueue
	.syntax unified
	.thumb
	.thumb_func
	.type	memq_enqueue, %function
memq_enqueue:
.LVL5:
.LFB448:
	.loc 1 93 1 is_stmt 1 view -0
	.cfi_startproc
	@ args = 0, pretend = 0, frame = 0
	@ frame_needed = 0, uses_anonymous_args = 0
	@ link register save eliminated.
	.loc 1 95 2 view .LVU21
	.loc 1 93 1 is_stmt 0 view .LVU22
	push	{r4}
	.cfi_def_cfa_offset 4
	.cfi_offset 4, -4
	.loc 1 95 16 view .LVU23
	ldr	r4, [r2]
	str	r0, [r4]
	.loc 1 98 2 is_stmt 1 view .LVU24
	.loc 1 98 15 is_stmt 0 view .LVU25
	ldr	r4, [r2]
	str	r1, [r4, #4]
	.loc 1 103 2 is_stmt 1 view .LVU26
.LBB8:
.LBI8:
	.file 2 "/home/g/mise-work/zmk-firmware/zmk/zephyr/subsys/bluetooth/controller/ll_sw/nordic/hal/nrf5/cpu.h"
	.loc 2 15 20 view .LVU27
.LBB9:
	.loc 2 27 2 view .LVU28
.LBE9:
.LBE8:
	.loc 1 104 2 view .LVU29
	.loc 1 107 1 is_stmt 0 view .LVU30
	ldr	r4, [sp], #4
	.cfi_restore 4
	.cfi_def_cfa_offset 0
	.loc 1 104 8 view .LVU31
	str	r0, [r2]
	.loc 1 106 2 is_stmt 1 view .LVU32
	.loc 1 107 1 is_stmt 0 view .LVU33
	bx	lr
	.cfi_endproc
.LFE448:
	.size	memq_enqueue, .-memq_enqueue
	.section	.text.memq_peek,"ax",%progbits
	.align	1
	.p2align 2,,3
	.global	memq_peek
	.syntax unified
	.thumb
	.thumb_func
	.type	memq_peek, %function
memq_peek:
.LVL6:
.LFB449:
	.loc 1 118 1 is_stmt 1 view -0
	.cfi_startproc
	@ args = 0, pretend = 0, frame = 0
	@ frame_needed = 0, uses_anonymous_args = 0
	@ link register save eliminated.
	.loc 1 120 2 view .LVU35
	.loc 1 120 5 is_stmt 0 view .LVU36
	cmp	r0, r1
	beq	.L12
	.loc 1 125 2 is_stmt 1 view .LVU37
	.loc 1 125 5 is_stmt 0 view .LVU38
	cbz	r2, .L8
	.loc 1 126 3 is_stmt 1 view .LVU39
	.loc 1 126 14 is_stmt 0 view .LVU40
	ldr	r3, [r0, #4]
	.loc 1 126 8 view .LVU41
	str	r3, [r2]
	bx	lr
.L12:
	.loc 1 121 9 view .LVU42
	movs	r0, #0
.LVL7:
.L8:
	.loc 1 130 1 view .LVU43
	bx	lr
	.cfi_endproc
.LFE449:
	.size	memq_peek, .-memq_peek
	.section	.text.memq_peek_n,"ax",%progbits
	.align	1
	.p2align 2,,3
	.global	memq_peek_n
	.syntax unified
	.thumb
	.thumb_func
	.type	memq_peek_n, %function
memq_peek_n:
.LVL8:
.LFB450:
	.loc 1 143 1 is_stmt 1 view -0
	.cfi_startproc
	@ args = 0, pretend = 0, frame = 0
	@ frame_needed = 0, uses_anonymous_args = 0
.LBB10:
.LBB11:
	.loc 1 120 5 is_stmt 0 view .LVU45
	cmp	r0, r1
.LBE11:
.LBE10:
	.loc 1 143 1 view .LVU46
	mov	ip, #0
.LVL9:
	.loc 1 145 2 is_stmt 1 view .LVU47
	.loc 1 147 3 view .LVU48
.LBB16:
.LBI10:
	.loc 1 117 14 view .LVU49
.LBB12:
	.loc 1 120 2 view .LVU50
	.loc 1 125 2 view .LVU51
	.loc 1 126 3 view .LVU52
	.loc 1 120 5 is_stmt 0 view .LVU53
	beq	.L28
.LBE12:
.LBE16:
	.loc 1 143 1 view .LVU54
	push	{r4, lr}
	.cfi_def_cfa_offset 8
	.cfi_offset 4, -8
	.cfi_offset 14, -4
.LVL10:
.L24:
.LBB17:
.LBB13:
	.loc 1 125 5 view .LVU55
	cbz	r3, .L15
	.loc 1 126 8 view .LVU56
	ldr	r4, [r0, #4]
	str	r4, [r3]
.LVL11:
	.loc 1 126 8 view .LVU57
.LBE13:
.LBE17:
	.loc 1 148 3 is_stmt 1 view .LVU58
.L16:
	.loc 1 153 3 view .LVU59
	.loc 1 154 11 is_stmt 0 view .LVU60
	cmp	ip, r2
	.loc 1 153 8 view .LVU61
	ldr	r0, [r0]
.LVL12:
	.loc 1 154 11 is_stmt 1 view .LVU62
	.loc 1 154 11 is_stmt 0 view .LVU63
	add	lr, ip, #1
	beq	.L13
.LBB18:
.LBB14:
	.loc 1 120 5 view .LVU64
	cmp	r0, r1
.LBE14:
.LBE18:
	mov	ip, lr
.LVL13:
	.loc 1 145 2 is_stmt 1 view .LVU65
	.loc 1 147 3 view .LVU66
.LBB19:
	.loc 1 117 14 view .LVU67
.LBB15:
	.loc 1 120 2 view .LVU68
	.loc 1 125 2 view .LVU69
	.loc 1 126 3 view .LVU70
	.loc 1 120 5 is_stmt 0 view .LVU71
	bne	.L24
.LBE15:
.LBE19:
	.loc 1 149 10 view .LVU72
	movs	r0, #0
.LVL14:
.L13:
	.loc 1 157 1 view .LVU73
	pop	{r4, pc}
.LVL15:
.L15:
	.loc 1 148 3 is_stmt 1 view .LVU74
	.loc 1 148 6 is_stmt 0 view .LVU75
	cmp	r0, #0
	bne	.L16
	.loc 1 157 1 view .LVU76
	pop	{r4, pc}
.LVL16:
.L28:
	.cfi_def_cfa_offset 0
	.cfi_restore 4
	.cfi_restore 14
	.loc 1 149 10 view .LVU77
	movs	r0, #0
.LVL17:
	.loc 1 157 1 view .LVU78
	bx	lr
	.cfi_endproc
.LFE450:
	.size	memq_peek_n, .-memq_peek_n
	.section	.text.memq_dequeue,"ax",%progbits
	.align	1
	.p2align 2,,3
	.global	memq_dequeue
	.syntax unified
	.thumb
	.thumb_func
	.type	memq_dequeue, %function
memq_dequeue:
.LVL18:
.LFB451:
	.loc 1 169 1 is_stmt 1 view -0
	.cfi_startproc
	@ args = 0, pretend = 0, frame = 0
	@ frame_needed = 0, uses_anonymous_args = 0
	@ link register save eliminated.
	.loc 1 170 2 view .LVU80
	.loc 1 173 2 view .LVU81
	.loc 1 173 13 is_stmt 0 view .LVU82
	ldr	r3, [r1]
.LVL19:
.LBB20:
.LBI20:
	.loc 1 117 14 is_stmt 1 view .LVU83
.LBB21:
	.loc 1 120 2 view .LVU84
	.loc 1 120 5 is_stmt 0 view .LVU85
	cmp	r3, r0
	beq	.L33
	.loc 1 125 2 is_stmt 1 view .LVU86
	.loc 1 125 5 is_stmt 0 view .LVU87
	cbz	r2, .L31
	.loc 1 126 3 is_stmt 1 view .LVU88
	.loc 1 126 14 is_stmt 0 view .LVU89
	ldr	r0, [r3, #4]
.LVL20:
	.loc 1 126 8 view .LVU90
	str	r0, [r2]
.LVL21:
	.loc 1 126 8 view .LVU91
.LBE21:
.LBE20:
	.loc 1 174 2 is_stmt 1 view .LVU92
.L32:
	.loc 1 179 2 view .LVU93
	.loc 1 179 18 is_stmt 0 view .LVU94
	ldr	r2, [r3]
.LVL22:
	.loc 1 179 8 view .LVU95
	str	r2, [r1]
	.loc 1 181 2 is_stmt 1 view .LVU96
.LVL23:
.L29:
	.loc 1 182 1 is_stmt 0 view .LVU97
	mov	r0, r3
	bx	lr
.LVL24:
.L31:
	.loc 1 174 2 is_stmt 1 view .LVU98
	.loc 1 174 5 is_stmt 0 view .LVU99
	cmp	r3, #0
	bne	.L32
	b	.L29
.LVL25:
.L33:
	.loc 1 175 9 view .LVU100
	movs	r3, #0
.LVL26:
	.loc 1 175 9 view .LVU101
	b	.L29
	.cfi_endproc
.LFE451:
	.size	memq_dequeue, .-memq_dequeue
	.text
.Letext0:
	.file 3 "/home/g/zephyr-sdk-0.16.3/arm-zephyr-eabi/picolibc/include/machine/_default_types.h"
	.file 4 "/home/g/zephyr-sdk-0.16.3/arm-zephyr-eabi/picolibc/include/sys/_stdint.h"
	.file 5 "/home/g/mise-work/zmk-firmware/zmk/zephyr/subsys/bluetooth/controller/util/memq.h"