	.cpu cortex-m4
	.arch armv7e-m
	.fpu fpv4-sp-d16
	.eabi_attribute 27, 1
	.eabi_attribute 28, 1
	.eabi_attribute 20, 1
	.eabi_attribute 21, 1
	.eabi_attribute 23, 3
	.eabi_attribute 24, 1
	.eabi_attribute 25, 1
	.eabi_attribute 26, 1
	.eabi_attribute 30, 4
	.eabi_attribute 34, 1
	.eabi_attribute 38, 1
	.eabi_attribute 18, 4
	.file	"bt_str.c"
	.text
.Ltext0:
	.cfi_sections	.debug_frame
	.file 1 "/home/g/mise-work/zmk-firmware/zmk/zephyr/subsys/bluetooth/common/bt_str.c"
	.section	.text.bt_hex,"ax",%progbits
	.align	1
	.global	bt_hex
	.syntax unified
	.thumb
	.thumb_func
	.type	bt_hex, %function
bt_hex:
.LVL0:
.LFB523:
	.loc 1 20 1 view -0
	.cfi_startproc
	@ args = 0, pretend = 0, frame = 0
	@ frame_needed = 0, uses_anonymous_args = 0
	.loc 1 21 2 view .LVU1
	.loc 1 22 2 view .LVU2
	.loc 1 23 2 view .LVU3
	.loc 1 24 2 view .LVU4
	.loc 1 26 2 view .LVU5
	ldr	r3, .L4
	.loc 1 26 6 is_stmt 0 view .LVU6
	cmp	r1, #64
	.loc 1 20 1 view .LVU7
	push	{r4, r5, r6, lr}
	.cfi_def_cfa_offset 16
	.cfi_offset 4, -16
	.cfi_offset 5, -12
	.cfi_offset 6, -8
	.cfi_offset 14, -4
	.loc 1 26 6 view .LVU8
	it	cs
	movcs	r1, #64
.LVL1:
	.loc 1 28 2 is_stmt 1 view .LVU9
	.loc 1 29 19 is_stmt 0 view .LVU10
	ldr	r4, .L4+4
	adds	r6, r0, r1
	mov	r5, r3
.LVL2:
.L2:
	.loc 1 28 16 is_stmt 1 discriminator 1 view .LVU11
	cmp	r0, r6
	add	r3, r3, #2
	bne	.L3
	.loc 1 33 2 view .LVU12
	.loc 1 33 13 is_stmt 0 view .LVU13
	movs	r3, #0
	strb	r3, [r5, r1, lsl #1]
	.loc 1 35 2 is_stmt 1 view .LVU14
	.loc 1 36 1 is_stmt 0 view .LVU15
	ldr	r0, .L4
.LVL3:
	.loc 1 36 1 view .LVU16
	pop	{r4, r5, r6, pc}
.LVL4:
.L3:
	.loc 1 29 3 is_stmt 1 discriminator 3 view .LVU17
	.loc 1 29 21 is_stmt 0 discriminator 3 view .LVU18
	ldrb	r2, [r0]	@ zero_extendqisi2
	.loc 1 29 25 discriminator 3 view .LVU19
	lsrs	r2, r2, #4
	.loc 1 29 14 discriminator 3 view .LVU20
	ldrb	r2, [r4, r2]	@ zero_extendqisi2
	strb	r2, [r3, #-2]
	.loc 1 30 3 is_stmt 1 discriminator 3 view .LVU21
	.loc 1 30 29 is_stmt 0 discriminator 3 view .LVU22
	ldrb	r2, [r0], #1	@ zero_extendqisi2
.LVL5:
	.loc 1 30 29 discriminator 3 view .LVU23
	and	r2, r2, #15
	.loc 1 30 18 discriminator 3 view .LVU24
	ldrb	r2, [r4, r2]	@ zero_extendqisi2
	strb	r2, [r3, #-1]
	.loc 1 28 24 is_stmt 1 discriminator 3 view .LVU25
.LVL6:
	.loc 1 28 24 is_stmt 0 discriminator 3 view .LVU26
	b	.L2
.L5:
	.align	2
.L4:
	.word	str.3
	.word	hex.4
	.cfi_endproc
.LFE523:
	.size	bt_hex, .-bt_hex
	.section	.rodata.bt_addr_str.str1.1,"aMS",%progbits,1
.LC0:
	.ascii	"%02X:%02X:%02X:%02X:%02X:%02X\000"
	.section	.text.bt_addr_str,"ax",%progbits
	.align	1
	.global	bt_addr_str
	.syntax unified
	.thumb
	.thumb_func
	.type	bt_addr_str, %function
bt_addr_str:
.LVL7:
.LFB524:
	.loc 1 39 1 is_stmt 1 view -0
	.cfi_startproc
	@ args = 0, pretend = 0, frame = 0
	@ frame_needed = 0, uses_anonymous_args = 0
	.loc 1 40 2 view .LVU28
	.loc 1 42 2 view .LVU29
.LBB4:
.LBI4:
	.file 2 "/home/g/mise-work/zmk-firmware/zmk/zephyr/include/zephyr/bluetooth/addr.h"
	.loc 2 225 19 view .LVU30
.LBB5:
	.loc 2 227 2 view .LVU31
.LBE5:
.LBE4:
	.loc 1 39 1 is_stmt 0 view .LVU32
	push	{r4, lr}
	.cfi_def_cfa_offset 8
	.cfi_offset 4, -8
	.cfi_offset 14, -4
	sub	sp, sp, #24
	.cfi_def_cfa_offset 32
.LBB7:
.LBB6:
	.loc 2 227 9 view .LVU33
	ldrb	r3, [r0]	@ zero_extendqisi2
	str	r3, [sp, #16]
	ldrb	r3, [r0, #1]	@ zero_extendqisi2
	str	r3, [sp, #12]
	ldrb	r3, [r0, #2]	@ zero_extendqisi2
	str	r3, [sp, #8]
	ldrb	r3, [r0, #3]	@ zero_extendqisi2
	str	r3, [sp, #4]
	ldrb	r3, [r0, #4]	@ zero_extendqisi2
	ldr	r4, .L7
	str	r3, [sp]
	ldrb	r3, [r0, #5]	@ zero_extendqisi2
	ldr	r2, .L7+4
	movs	r1, #18
	mov	r0, r4
.LVL8:
	.loc 2 227 9 view .LVU34
	bl	snprintf
.LVL9:
	.loc 2 227 9 view .LVU35
.LBE6:
.LBE7:
	.loc 1 44 2 is_stmt 1 view .LVU36
	.loc 1 45 1 is_stmt 0 view .LVU37
	mov	r0, r4
	add	sp, sp, #24
	.cfi_def_cfa_offset 8
	@ sp needed
	pop	{r4, pc}
.L8:
	.align	2
.L7:
	.word	str.2
	.word	.LC0
	.cfi_endproc
.LFE524:
	.size	bt_addr_str, .-bt_addr_str
	.section	.rodata.bt_addr_le_str.str1.1,"aMS",%progbits,1
.LC1:
	.ascii	"public\000"
.LC2:
	.ascii	"random\000"
.LC3:
	.ascii	"public-id\000"
.LC4:
	.ascii	"random-id\000"
.LC5:
	.ascii	"0x%02x\000"
.LC6:
	.ascii	"%02X:%02X:%02X:%02X:%02X:%02X (%s)\000"
	.section	.text.bt_addr_le_str,"ax",%progbits
	.align	1
	.global	bt_addr_le_str
	.syntax unified
	.thumb
	.thumb_func
	.type	bt_addr_le_str, %function
bt_addr_le_str:
.LVL10:
.LFB525:
	.loc 1 48 1 is_stmt 1 view -0
	.cfi_startproc
	@ args = 0, pretend = 0, frame = 16
	@ frame_needed = 0, uses_anonymous_args = 0
	.loc 1 49 2 view .LVU39
	.loc 1 51 2 view .LVU40
.LBB10:
.LBI10:
	.loc 2 242 19 view .LVU41
.LBB11:
	.loc 2 245 2 view .LVU42
	.loc 2 247 2 view .LVU43
.LBE11:
.LBE10:
	.loc 1 48 1 is_stmt 0 view .LVU44
	push	{r4, r5, lr}
	.cfi_def_cfa_offset 12
	.cfi_offset 4, -12
	.cfi_offset 5, -8
	.cfi_offset 14, -4
.LBB15:
.LBB12:
	.loc 2 247 14 view .LVU45
	ldrb	r3, [r0]	@ zero_extendqisi2
.LBE12:
.LBE15:
	.loc 1 48 1 view .LVU46
	sub	sp, sp, #44
	.cfi_def_cfa_offset 56
	.loc 1 48 1 view .LVU47
	mov	r4, r0
	add	r5, sp, #28
.LBB16:
.LBB13:
	.loc 2 247 2 view .LVU48
	cmp	r3, #3
	bhi	.L10
	tbb	[pc, r3]
.L12:
	.byte	(.L15-.L12)/2
	.byte	(.L14-.L12)/2
	.byte	(.L13-.L12)/2
	.byte	(.L11-.L12)/2
	.p2align 1
.L15:
	.loc 2 249 2 is_stmt 1 view .LVU49
	.loc 2 249 24 is_stmt 0 view .LVU50
	ldr	r1, .L18
.L17:
	.loc 2 252 24 view .LVU51
	mov	r0, r5
.LVL11:
	.loc 2 252 24 view .LVU52
	bl	strcpy
.LVL12:
	.loc 2 253 3 is_stmt 1 view .LVU53
.L16:
	.loc 2 265 2 view .LVU54
	.loc 2 265 9 is_stmt 0 view .LVU55
	str	r5, [sp, #20]
	ldrb	r3, [r4, #1]	@ zero_extendqisi2
	str	r3, [sp, #16]
	ldrb	r3, [r4, #2]	@ zero_extendqisi2
	str	r3, [sp, #12]
	ldrb	r3, [r4, #3]	@ zero_extendqisi2
	str	r3, [sp, #8]
	ldrb	r3, [r4, #4]	@ zero_extendqisi2
	str	r3, [sp, #4]
	ldrb	r3, [r4, #5]	@ zero_extendqisi2
	str	r3, [sp]
	ldrb	r3, [r4, #6]	@ zero_extendqisi2
	ldr	r2, .L18+4
	ldr	r0, .L18+8
	movs	r1, #30
	bl	snprintf
.LVL13:
	.loc 2 265 9 view .LVU56
.LBE13:
.LBE16:
	.loc 1 53 2 is_stmt 1 view .LVU57
	.loc 1 54 1 is_stmt 0 view .LVU58
	ldr	r0, .L18+8
	add	sp, sp, #44
	.cfi_remember_state
	.cfi_def_cfa_offset 12
	@ sp needed
	pop	{r4, r5, pc}
.LVL14:
.L14:
	.cfi_restore_state
.LBB17:
.LBB14:
	.loc 2 252 2 is_stmt 1 view .LVU59
	.loc 2 252 24 is_stmt 0 view .LVU60
	ldr	r1, .L18+12
	b	.L17
.L13:
	.loc 2 255 2 is_stmt 1 view .LVU61
	.loc 2 255 24 is_stmt 0 view .LVU62
	ldr	r1, .L18+16
	b	.L17
.L11:
	.loc 2 258 2 is_stmt 1 view .LVU63
	.loc 2 258 24 is_stmt 0 view .LVU64
	ldr	r1, .L18+20
	b	.L17
.L10:
	.loc 2 261 3 is_stmt 1 view .LVU65
	ldr	r2, .L18+24
	movs	r1, #10
	mov	r0, r5
.LVL15:
	.loc 2 261 3 is_stmt 0 view .LVU66
	bl	snprintf
.LVL16:
	.loc 2 262 3 is_stmt 1 view .LVU67
	b	.L16
.L19:
	.align	2
.L18:
	.word	.LC1
	.word	.LC6
	.word	str.1
	.word	.LC2
	.word	.LC3
	.word	.LC4
	.word	.LC5
.LBE14:
.LBE17:
	.cfi_endproc
.LFE525:
	.size	bt_addr_le_str, .-bt_addr_le_str
	.section	.text.bt_uuid_str,"ax",%progbits
	.align	1
	.global	bt_uuid_str
	.syntax unified
	.thumb
	.thumb_func
	.type	bt_uuid_str, %function
bt_uuid_str:
.LVL17:
.LFB526:
	.loc 1 57 1 view -0
	.cfi_startproc
	@ args = 0, pretend = 0, frame = 0
	@ frame_needed = 0, uses_anonymous_args = 0
	.loc 1 58 2 view .LVU69
	.loc 1 60 2 view .LVU70
	.loc 1 57 1 is_stmt 0 view .LVU71
	push	{r4, lr}
	.cfi_def_cfa_offset 8
	.cfi_offset 4, -8
	.cfi_offset 14, -4
	.loc 1 60 2 view .LVU72
	ldr	r4, .L21
	movs	r2, #37
	mov	r1, r4
	bl	bt_uuid_to_str
.LVL18:
	.loc 1 62 2 is_stmt 1 view .LVU73
	.loc 1 63 1 is_stmt 0 view .LVU74
	mov	r0, r4
	pop	{r4, pc}
.L22:
	.align	2
.L21:
	.word	str.0
	.cfi_endproc
.LFE526:
	.size	bt_uuid_str, .-bt_uuid_str
	.section	.bss.str.0,"aw",%nobits
	.type	str.0, %object
	.size	str.0, 37
str.0:
	.space	37
	.section	.bss.str.1,"aw",%nobits
	.type	str.1, %object
	.size	str.1, 30
str.1:
	.space	30
	.section	.bss.str.2,"aw",%nobits
	.type	str.2, %object
	.size	str.2, 18
str.2:
	.space	18
	.section	.bss.str.3,"aw",%nobits
	.type	str.3, %object
	.size	str.3, 129
str.3:
	.space	129
	.section	.rodata.hex.4,"a"
	.type	hex.4, %object
	.size	hex.4, 17
hex.4:
	.ascii	"0123456789abcdef\000"
	.text
.Letext0:
	.file 3 "/home/g/zephyr-sdk-0.16.3/arm-zephyr-eabi/lib/gcc/arm-zephyr-eabi/12.2.0/include/stddef.h"
	.file 4 "/home/g/zephyr-sdk-0.16.3/arm-zephyr-eabi/picolibc/include/machine/_default_types.h"
	.file 5 "/home/g/zephyr-sdk-0.16.3/arm-zephyr-eabi/picolibc/include/sys/_stdint.h"
	.file 6 "/home/g/mise-work/zmk-firmware/zmk/zephyr/include/zephyr/bluetooth/uuid.h"
	.file 7 "/home/g/zephyr-sdk-0.16.3/arm-zephyr-eabi/picolibc/include/stdio.h"
	.file 8 "<built-in>"