	.cpu cortex-m4
	.arch armv7e-m
	.fpu fpv4-sp-d16
	.eabi_attribute 27, 1
	.eabi_attribute 28, 1
	.eabi_attribute 20, 1
	.eabi_attribute 21, 1
	.eabi_attribute 23, 3
	.eabi_attribute 24, 1
	.eabi_attribute 25, 1
	.eabi_attribute 26, 1
	.eabi_attribute 30, 4
	.eabi_attribute 34, 1
	.eabi_attribute 38, 1
	.eabi_attribute 18, 4
	.file	"rpa.c"
	.text
.Ltext0:
	.cfi_sections	.debug_frame
	.file 1 "/home/g/mise-work/zmk-firmware/zmk/zephyr/subsys/bluetooth/common/rpa.c"
	.section	.text.ah,"ax",%progbits
	.align	1
	.syntax unified
	.thumb
	.thumb_func
	.type	ah, %function
ah:
.LVL0:
.LFB550:
	.loc 1 57 1 view -0
	.cfi_startproc
	@ args = 0, pretend = 0, frame = 16
	@ frame_needed = 0, uses_anonymous_args = 0
	.loc 1 58 2 view .LVU1
	.loc 1 59 2 view .LVU2
	.loc 1 61 2 view .LVU3
.LBB34:
	.loc 1 61 7 view .LVU4
.LBE34:
	.loc 1 61 5 view .LVU5
	.loc 1 62 2 view .LVU6
.LBB35:
	.loc 1 62 7 view .LVU7
.LBE35:
	.loc 1 62 5 view .LVU8
	.loc 1 65 1 view .LVU9
	.loc 1 57 1 is_stmt 0 view .LVU10
	push	{r4, r5, lr}
	.cfi_def_cfa_offset 12
	.cfi_offset 4, -12
	.cfi_offset 5, -8
	.cfi_offset 14, -4
	sub	sp, sp, #20
	.cfi_def_cfa_offset 32
	.loc 1 57 1 view .LVU11
	mov	r4, r2
	.loc 1 65 23 view .LVU12
	ldrh	r2, [r1]	@ unaligned
.LVL1:
	.loc 1 65 23 view .LVU13
	ldrb	r3, [r1, #2]	@ zero_extendqisi2
	strh	r2, [sp]	@ unaligned
	.loc 1 57 1 view .LVU14
	mov	r5, r0
	.loc 1 66 29 view .LVU15
	movs	r2, #13
	movs	r1, #0
.LVL2:
	.loc 1 66 29 view .LVU16
	add	r0, sp, #3
.LVL3:
	.loc 1 65 23 view .LVU17
	strb	r3, [sp, #2]
	.loc 1 66 2 is_stmt 1 view .LVU18
	.loc 1 66 29 is_stmt 0 view .LVU19
	bl	memset
.LVL4:
	.loc 1 68 2 is_stmt 1 view .LVU20
.LBB36:
.LBI36:
	.loc 1 43 12 view .LVU21
.LBB37:
	.loc 1 52 2 view .LVU22
	.loc 1 52 9 is_stmt 0 view .LVU23
	mov	r2, sp
	mov	r1, sp
	mov	r0, r5
	bl	bt_encrypt_le
.LVL5:
	.loc 1 52 9 view .LVU24
.LBE37:
.LBE36:
	.loc 1 69 2 is_stmt 1 view .LVU25
	.loc 1 69 5 is_stmt 0 view .LVU26
	cbnz	r0, .L1
	.loc 1 79 1 is_stmt 1 view .LVU27
.LVL6:
.LBB38:
.LBI38:
	.file 2 "/home/g/zephyr-sdk-0.16.3/arm-zephyr-eabi/picolibc/include/ssp/string.h"
	.loc 2 83 216 view .LVU28
.LBB39:
	.loc 2 83 292 view .LVU29
	.loc 2 83 299 is_stmt 0 view .LVU30
	ldrh	r2, [sp]	@ unaligned
	ldrb	r3, [sp, #2]	@ zero_extendqisi2
	strh	r2, [r4]	@ unaligned
	strb	r3, [r4, #2]
.LVL7:
.L1:
	.loc 2 83 299 view .LVU31
.LBE39:
.LBE38:
	.loc 1 82 1 view .LVU32
	add	sp, sp, #20
	.cfi_def_cfa_offset 12
	@ sp needed
	pop	{r4, r5, pc}
	.loc 1 82 1 view .LVU33
	.cfi_endproc
.LFE550:
	.size	ah, .-ah
	.section	.text.bt_rpa_irk_matches,"ax",%progbits
	.align	1
	.global	bt_rpa_irk_matches
	.syntax unified
	.thumb
	.thumb_func
	.type	bt_rpa_irk_matches, %function
bt_rpa_irk_matches:
.LVL8:
.LFB551:
	.loc 1 86 1 is_stmt 1 view -0
	.cfi_startproc
	@ args = 0, pretend = 0, frame = 8
	@ frame_needed = 0, uses_anonymous_args = 0
	.loc 1 87 2 view .LVU35
	.loc 1 88 2 view .LVU36
	.loc 1 90 2 view .LVU37
.LBB40:
	.loc 1 90 7 view .LVU38
.LBE40:
	.loc 1 90 5 view .LVU39
	.loc 1 92 2 view .LVU40
	.loc 1 86 1 is_stmt 0 view .LVU41
	push	{r0, r1, r4, lr}
	.cfi_def_cfa_offset 16
	.cfi_offset 4, -8
	.cfi_offset 14, -4
	.loc 1 86 1 view .LVU42
	mov	r4, r1
	.loc 1 92 8 view .LVU43
	add	r2, sp, #4
	adds	r1, r1, #3
.LVL9:
	.loc 1 92 8 view .LVU44
	bl	ah
.LVL10:
	.loc 1 93 2 is_stmt 1 view .LVU45
	.loc 1 93 5 is_stmt 0 view .LVU46
	cbnz	r0, .L5
	.loc 1 97 2 is_stmt 1 view .LVU47
	.loc 1 97 10 is_stmt 0 view .LVU48
	movs	r2, #3
	add	r1, sp, #4
	mov	r0, r4
.LVL11:
	.loc 1 97 10 view .LVU49
	bl	memcmp
.LVL12:
	.loc 1 97 9 view .LVU50
	clz	r0, r0
	lsrs	r0, r0, #5
.L4:
	.loc 1 98 1 view .LVU51
	add	sp, sp, #8
	.cfi_remember_state
	.cfi_def_cfa_offset 8
	@ sp needed
	pop	{r4, pc}
.LVL13:
.L5:
	.cfi_restore_state
	.loc 1 94 9 view .LVU52
	movs	r0, #0
.LVL14:
	.loc 1 94 9 view .LVU53
	b	.L4
	.cfi_endproc
.LFE551:
	.size	bt_rpa_irk_matches, .-bt_rpa_irk_matches
	.section	.text.bt_rpa_create,"ax",%progbits
	.align	1
	.global	bt_rpa_create
	.syntax unified
	.thumb
	.thumb_func
	.type	bt_rpa_create, %function
bt_rpa_create:
.LVL15:
.LFB552:
	.loc 1 103 1 is_stmt 1 view -0
	.cfi_startproc
	@ args = 0, pretend = 0, frame = 0
	@ frame_needed = 0, uses_anonymous_args = 0
	.loc 1 104 2 view .LVU55
	.loc 1 106 2 view .LVU56
	.loc 1 103 1 is_stmt 0 view .LVU57
	push	{r4, r5, r6, lr}
	.cfi_def_cfa_offset 16
	.cfi_offset 4, -16
	.cfi_offset 5, -12
	.cfi_offset 6, -8
	.cfi_offset 14, -4
	.loc 1 106 8 view .LVU58
	adds	r6, r1, #3
.LVL16:
.LBB41:
.LBI41:
	.loc 1 32 12 is_stmt 1 view .LVU59
.LBB42:
	.loc 1 38 2 view .LVU60
.LBE42:
.LBE41:
	.loc 1 103 1 is_stmt 0 view .LVU61
	mov	r5, r0
	mov	r4, r1
.LBB44:
.LBB43:
	.loc 1 38 9 view .LVU62
	mov	r0, r6
.LVL17:
	.loc 1 38 9 view .LVU63
	movs	r1, #3
.LVL18:
	.loc 1 38 9 view .LVU64
	bl	bt_rand
.LVL19:
	.loc 1 38 9 view .LVU65
.LBE43:
.LBE44:
	.loc 1 107 2 is_stmt 1 view .LVU66
	.loc 1 107 5 is_stmt 0 view .LVU67
	cbnz	r0, .L6
	.loc 1 111 2 is_stmt 1 view .LVU68
	.loc 1 111 17 is_stmt 0 view .LVU69
	ldrb	r3, [r4, #5]	@ zero_extendqisi2
	and	r3, r3, #63
	orr	r3, r3, #64
	strb	r3, [r4, #5]
	.loc 1 113 2 is_stmt 1 view .LVU70
	.loc 1 113 8 is_stmt 0 view .LVU71
	mov	r2, r4
	mov	r1, r6
	mov	r0, r5
.LVL20:
	.loc 1 121 1 view .LVU72
	pop	{r4, r5, r6, lr}
	.cfi_remember_state
	.cfi_restore 14
	.cfi_restore 6
	.cfi_restore 5
	.cfi_restore 4
	.cfi_def_cfa_offset 0
.LVL21:
	.loc 1 113 8 view .LVU73
	b	ah
.LVL22:
.L6:
	.cfi_restore_state
	.loc 1 121 1 view .LVU74
	pop	{r4, r5, r6, pc}
	.loc 1 121 1 view .LVU75
	.cfi_endproc
.LFE552:
	.size	bt_rpa_create, .-bt_rpa_create
	.global	log_const_bt_rpa
	.section	.rodata.str1.1,"aMS",%progbits,1
.LC0:
	.ascii	"bt_rpa\000"
	.section	._log_const.static.log_const_bt_rpa_,"a"
	.align	2
	.type	log_const_bt_rpa, %object
	.size	log_const_bt_rpa, 8
log_const_bt_rpa:
	.word	.LC0
	.byte	3
	.space	3
	.text
.Letext0:
	.file 3 "/home/g/zephyr-sdk-0.16.3/arm-zephyr-eabi/lib/gcc/arm-zephyr-eabi/12.2.0/include/stddef.h"
	.file 4 "/home/g/zephyr-sdk-0.16.3/arm-zephyr-eabi/picolibc/include/machine/_default_types.h"
	.file 5 "/home/g/zephyr-sdk-0.16.3/arm-zephyr-eabi/picolibc/include/sys/_stdint.h"
	.file 6 "/home/g/mise-work/zmk-firmware/zmk/zephyr/include/zephyr/fatal_types.h"
	.file 7 "/home/g/mise-work/zmk-firmware/zmk/zephyr/include/zephyr/kernel.h"
	.file 8 "/home/g/mise-work/zmk-firmware/zmk/zephyr/include/zephyr/bluetooth/addr.h"
	.file 9 "/home/g/mise-work/zmk-firmware/zmk/zephyr/include/zephyr/logging/log_instance.h"
	.file 10 "/home/g/mise-work/zmk-firmware/zmk/zephyr/include/zephyr/sys/cbprintf.h"
	.file 11 "/home/g/mise-work/zmk-firmware/zmk/zephyr/include/zephyr/logging/log_msg.h"
	.file 12 "/home/g/mise-work/zmk-firmware/zmk/zephyr/include/zephyr/bluetooth/crypto.h"
	.file 13 "/home/g/zephyr-sdk-0.16.3/arm-zephyr-eabi/picolibc/include/string.h"
	.file 14 "<built-in>"