	.cpu cortex-m4
	.arch armv7e-m
	.fpu fpv4-sp-d16
	.eabi_attribute 27, 1
	.eabi_attribute 28, 1
	.eabi_attribute 20, 1
	.eabi_attribute 21, 1
	.eabi_attribute 23, 3
	.eabi_attribute 24, 1
	.eabi_attribute 25, 1
	.eabi_attribute 26, 1
	.eabi_attribute 30, 4
	.eabi_attribute 34, 1
	.eabi_attribute 38, 1
	.eabi_attribute 18, 4
	.file	"log_msg.c"
	.text
.Ltext0:
	.cfi_sections	.debug_frame
	.file 1 "/home/g/mise-work/zmk-firmware/zmk/zephyr/subsys/logging/log_msg.c"
	.section	.text.z_cbprintf_cpy,"ax",%progbits
	.align	1
	.syntax unified
	.thumb
	.thumb_func
	.type	z_cbprintf_cpy, %function
z_cbprintf_cpy:
.LVL0:
.LFB446:
	.file 2 "/home/g/mise-work/zmk-firmware/zmk/zephyr/include/zephyr/sys/cbprintf.h"
	.loc 2 529 1 view -0
	.cfi_startproc
	@ args = 0, pretend = 0, frame = 0
	@ frame_needed = 0, uses_anonymous_args = 0
	.loc 2 530 2 view .LVU1
	.loc 2 532 2 view .LVU2
	.loc 2 529 1 is_stmt 0 view .LVU3
	push	{r4, r5, r6, lr}
	.cfi_def_cfa_offset 16
	.cfi_offset 4, -16
	.cfi_offset 5, -12
	.cfi_offset 6, -8
	.cfi_offset 14, -4
	.loc 2 532 18 view .LVU4
	ldrd	r3, r6, [r2, #4]
	subs	r3, r3, r6
	.loc 2 532 5 view .LVU5
	cmp	r3, r1
	.loc 2 529 1 view .LVU6
	mov	r4, r1
	mov	r5, r2
	.loc 2 532 5 view .LVU7
	bcc	.L3
	.loc 2 536 1 is_stmt 1 view .LVU8
.LVL1:
.LBB75:
.LBI75:
	.file 3 "/home/g/zephyr-sdk-0.16.3/arm-zephyr-eabi/picolibc/include/ssp/string.h"
	.loc 3 83 216 view .LVU9
.LBB76:
	.loc 3 83 292 view .LVU10
.LBE76:
.LBE75:
	.loc 2 536 3 is_stmt 0 view .LVU11
	ldr	r3, [r2]
.LBB78:
.LBB77:
	.loc 3 83 299 view .LVU12
	mov	r2, r1
.LVL2:
	.loc 3 83 299 view .LVU13
	mov	r1, r0
.LVL3:
	.loc 3 83 299 view .LVU14
	adds	r0, r3, r6
.LVL4:
	.loc 3 83 299 view .LVU15
	bl	memcpy
.LVL5:
	.loc 3 83 299 view .LVU16
.LBE77:
.LBE78:
	.loc 2 537 2 is_stmt 1 view .LVU17
	.loc 2 537 12 is_stmt 0 view .LVU18
	ldr	r3, [r5, #8]
	add	r3, r3, r4
	str	r3, [r5, #8]
	.loc 2 539 2 is_stmt 1 view .LVU19
	.loc 2 539 9 is_stmt 0 view .LVU20
	mov	r0, r4
.L1:
	.loc 2 540 1 view .LVU21
	pop	{r4, r5, r6, pc}
.LVL6:
.L3:
	.loc 2 533 10 view .LVU22
	mvn	r0, #27
.LVL7:
	.loc 2 533 10 view .LVU23
	b	.L1
	.cfi_endproc
.LFE446:
	.size	z_cbprintf_cpy, .-z_cbprintf_cpy
	.section	.text.z_log_msg_finalize,"ax",%progbits
	.align	1
	.global	z_log_msg_finalize
	.syntax unified
	.thumb
	.thumb_func
	.type	z_log_msg_finalize, %function
z_log_msg_finalize:
.LVL8:
.LFB495:
	.loc 1 25 1 is_stmt 1 view -0
	.cfi_startproc
	@ args = 0, pretend = 0, frame = 0
	@ frame_needed = 0, uses_anonymous_args = 0
	.loc 1 25 1 is_stmt 0 view .LVU25
	push	{r4, r5, r6, lr}
	.cfi_def_cfa_offset 16
	.cfi_offset 4, -16
	.cfi_offset 5, -12
	.cfi_offset 6, -8
	.cfi_offset 14, -4
	.loc 1 25 1 view .LVU26
	mov	r6, r1
	mov	r5, r2
.LVL9:
	.loc 1 25 1 view .LVU27
	mov	r1, r3
.LVL10:
	.loc 1 25 1 view .LVU28
	lsrs	r2, r2, #20
	.loc 1 26 2 is_stmt 1 view .LVU29
	.loc 1 26 5 is_stmt 0 view .LVU30
	mov	r4, r0
	cbnz	r0, .L5
	.loc 1 27 3 is_stmt 1 view .LVU31
	.loc 1 44 1 is_stmt 0 view .LVU32
	pop	{r4, r5, r6, lr}
	.cfi_remember_state
	.cfi_restore 14
	.cfi_restore 6
	.cfi_restore 5
	.cfi_restore 4
	.cfi_def_cfa_offset 0
.LVL11:
	.loc 1 27 3 view .LVU33
	b	z_log_dropped
.LVL12:
.L5:
	.cfi_restore_state
	.loc 1 32 2 is_stmt 1 view .LVU34
	.loc 1 32 5 is_stmt 0 view .LVU35
	cbz	r3, .L6
.LBB79:
	.loc 1 33 3 is_stmt 1 view .LVU36
.LVL13:
	.loc 1 35 2 view .LVU37
.LBB80:
.LBI80:
	.loc 3 83 216 view .LVU38
.LBB81:
	.loc 3 83 292 view .LVU39
.LBE81:
.LBE80:
	.loc 1 33 16 is_stmt 0 view .LVU40
	adds	r0, r0, #16
.LVL14:
	.loc 1 33 32 view .LVU41
	ubfx	r3, r5, #9, #11
.LBB83:
.LBB82:
	.loc 3 83 299 view .LVU42
	add	r0, r0, r3
	bl	memcpy
.LVL15:
.L6:
	.loc 3 83 299 view .LVU43
.LBE82:
.LBE83:
.LBE79:
	.loc 1 38 2 is_stmt 1 view .LVU44
	.loc 1 39 18 is_stmt 0 view .LVU45
	strd	r5, r6, [r4]
	.loc 1 43 2 is_stmt 1 view .LVU46
	mov	r0, r4
	.loc 1 44 1 is_stmt 0 view .LVU47
	pop	{r4, r5, r6, lr}
	.cfi_restore 14
	.cfi_restore 6
	.cfi_restore 5
	.cfi_restore 4
	.cfi_def_cfa_offset 0
.LVL16:
	.loc 1 43 2 view .LVU48
	b	z_log_msg_commit
.LVL17:
	.loc 1 43 2 view .LVU49
	.cfi_endproc
.LFE495:
	.size	z_log_msg_finalize, .-z_log_msg_finalize
	.section	.rodata.z_impl_z_log_msg_static_create.str1.1,"aMS",%progbits,1
.LC0:
	.ascii	"Message (\"%s\") dropped because it exceeds size li"
	.ascii	"mitation (%u)\000"
	.section	.text.z_impl_z_log_msg_static_create,"ax",%progbits
	.align	1
	.global	z_impl_z_log_msg_static_create
	.syntax unified
	.thumb
	.thumb_func
	.type	z_impl_z_log_msg_static_create, %function
z_impl_z_log_msg_static_create:
.LVL18:
.LFB496:
	.loc 1 49 1 is_stmt 1 view -0
	.cfi_startproc
	@ args = 0, pretend = 0, frame = 40
	@ frame_needed = 1, uses_anonymous_args = 0
	.loc 1 49 1 is_stmt 0 view .LVU51
	push	{r4, r5, r6, r7, r8, r9, r10, fp, lr}
	.cfi_def_cfa_offset 36
	.cfi_offset 4, -36
	.cfi_offset 5, -32
	.cfi_offset 6, -28
	.cfi_offset 7, -24
	.cfi_offset 8, -20
	.cfi_offset 9, -16
	.cfi_offset 10, -12
	.cfi_offset 11, -8
	.cfi_offset 14, -4
	sub	sp, sp, #60
	.cfi_def_cfa_offset 96
	add	r7, sp, #16
	.cfi_def_cfa 7, 80
	ubfx	r8, r1, #9, #11
	.loc 1 50 2 is_stmt 1 view .LVU52
	.loc 1 54 2 view .LVU53
	.loc 1 58 2 view .LVU54
.LVL19:
	.loc 1 49 1 is_stmt 0 view .LVU55
	str	r0, [r7, #8]
	mov	r5, r1
.LVL20:
	.loc 1 49 1 view .LVU56
	mov	r9, r2
	str	r3, [r7, #4]
.LVL21:
	.loc 1 58 22 view .LVU57
	lsrs	r4, r1, #20
.LVL22:
	.loc 1 59 2 is_stmt 1 view .LVU58
	.loc 1 60 2 view .LVU59
	.loc 1 62 2 view .LVU60
	.loc 1 62 5 is_stmt 0 view .LVU61
	cmp	r8, #0
	beq	.L11
.LBB108:
	.loc 1 63 3 is_stmt 1 view .LVU62
.LVL23:
	.loc 1 65 3 view .LVU63
	.loc 1 66 3 view .LVU64
	.loc 1 68 3 view .LVU65
.LBB109:
.LBB110:
	.loc 2 580 29 is_stmt 0 view .LVU66
	movs	r6, #0
	.loc 2 586 9 view .LVU67
	add	r3, r7, #20
.LVL24:
	.loc 2 586 9 view .LVU68
	mov	fp, #4
	mov	r10, #10
.LBE110:
.LBE109:
	.loc 1 68 9 view .LVU69
	str	r8, [r7, #12]
.LVL25:
.LBB113:
.LBI109:
	.loc 2 572 19 is_stmt 1 view .LVU70
.LBB111:
	.loc 2 580 2 view .LVU71
	.loc 2 580 29 is_stmt 0 view .LVU72
	strd	r6, r6, [r7, #28]
	str	r6, [r7, #36]
	.loc 2 586 2 is_stmt 1 view .LVU73
	.loc 2 586 9 is_stmt 0 view .LVU74
	str	r3, [sp, #4]
.LVL26:
	.loc 2 586 9 view .LVU75
	str	fp, [sp, #8]
	str	r10, [sp]
	add	r3, r7, #28
.LVL27:
	.loc 2 586 9 view .LVU76
	ldr	r1, [r7, #12]
.LVL28:
	.loc 2 586 9 view .LVU77
	mov	r2, r6
.LVL29:
	.loc 2 586 9 view .LVU78
	mov	r0, r9
.LVL30:
	.loc 2 586 9 view .LVU79
	bl	cbprintf_package_convert
.LVL31:
	.loc 2 586 9 view .LVU80
.LBE111:
.LBE113:
	.loc 1 72 6 view .LVU81
	cmp	r0, #2048
.LBB114:
.LBB112:
	.loc 2 586 9 view .LVU82
	mov	r3, r0
.LVL32:
	.loc 2 586 9 view .LVU83
.LBE112:
.LBE114:
	.loc 1 72 3 is_stmt 1 view .LVU84
	.loc 1 72 6 is_stmt 0 view .LVU85
	bcc	.L12
.LBB115:
	.loc 1 73 4 is_stmt 1 view .LVU86
.LVL33:
	.loc 1 76 4 view .LVU87
.LBB116:
	.loc 1 76 9 view .LVU88
	.loc 1 76 58 view .LVU89
	.loc 1 76 15 view .LVU90
	.loc 1 76 3 view .LVU91
	.loc 1 76 42 view .LVU92
	.loc 1 76 177 view .LVU93
	.loc 1 76 188 view .LVU94
	.loc 1 76 276 view .LVU95
.LBB117:
	.loc 1 76 4 view .LVU96
	.loc 1 76 6 view .LVU97
.LBB118:
.LBB119:
	.loc 1 76 108 is_stmt 0 view .LVU98
	mov	r4, sp
	.loc 1 76 83 view .LVU99
	sub	sp, sp, #40
.LBE119:
.LBE118:
	.loc 1 76 18 view .LVU100
	ldr	r1, [r9, #4]	@ unaligned
.LVL34:
	.loc 1 76 41 is_stmt 1 view .LVU101
	.loc 1 76 4 view .LVU102
.LBB141:
	.loc 1 76 9 view .LVU103
	.loc 1 76 3 view .LVU104
.LBE141:
.LBE117:
.LBE116:
.LBE115:
.LBE108:
	.loc 1 76 4 view .LVU105
	.loc 1 76 13 view .LVU106
	.loc 1 76 108 view .LVU107
	.loc 1 76 4 view .LVU108
.LBB168:
.LBB154:
.LBB150:
.LBB146:
.LBB142:
	.loc 1 76 13 view .LVU109
	.loc 1 76 103 view .LVU110
	.loc 1 76 105 view .LVU111
.LBB137:
	.loc 1 76 110 view .LVU112
	.loc 1 76 121 view .LVU113
	.loc 1 76 210 view .LVU114
	.loc 1 76 27 view .LVU115
.LBE137:
.LBE142:
.LBE146:
.LBE150:
.LBE154:
.LBE168:
	.loc 1 76 4 view .LVU116
	.loc 1 76 369 view .LVU117
	.loc 1 76 76 view .LVU118
	.loc 1 76 3 view .LVU119
	.loc 1 76 3 view .LVU120
	.loc 1 76 3 view .LVU121
	.loc 1 76 39 view .LVU122
	.loc 1 76 5 view .LVU123
	.loc 1 76 31 view .LVU124
	.loc 1 76 57 view .LVU125
	.loc 1 76 970 view .LVU126
	.loc 1 76 1032 view .LVU127
	.loc 1 76 2019 view .LVU128
	.loc 1 76 2084 view .LVU129
	.loc 1 76 2109 view .LVU130
	.loc 1 76 2110 view .LVU131
	.loc 1 76 2112 view .LVU132
	.loc 1 76 2142 view .LVU133
	.loc 1 76 2172 view .LVU134
	.loc 1 76 2204 view .LVU135
	.loc 1 76 2236 view .LVU136
	.loc 1 76 2268 view .LVU137
	.loc 1 76 2465 view .LVU138
	.loc 1 76 2489 view .LVU139
	.loc 1 76 2490 view .LVU140
	.loc 1 76 2492 view .LVU141
	.loc 1 76 2521 view .LVU142
	.loc 1 76 2550 view .LVU143
	.loc 1 76 2581 view .LVU144
	.loc 1 76 2612 view .LVU145
	.loc 1 76 2643 view .LVU146
	.loc 1 76 2850 view .LVU147
	.loc 1 76 5 view .LVU148
	.loc 1 76 23 view .LVU149
	.loc 1 76 43 view .LVU150
	.loc 1 76 5 view .LVU151
	.loc 1 76 43 view .LVU152
	.loc 1 76 14 view .LVU153
	.loc 1 76 14 view .LVU154
	.loc 1 76 62 view .LVU155
	.loc 1 76 93 view .LVU156
	.loc 1 76 127 view .LVU157
	.loc 1 76 132 view .LVU158
	.loc 1 76 420 view .LVU159
	.loc 1 76 1625 view .LVU160
	.loc 1 76 1690 view .LVU161
	.loc 1 76 1714 view .LVU162
	.loc 1 76 1806 view .LVU163
	.loc 1 76 1817 view .LVU164
	.loc 1 76 1967 view .LVU165
	.loc 1 76 1983 view .LVU166
	.loc 1 76 2023 view .LVU167
	.loc 1 76 2048 view .LVU168
	.loc 1 76 3413 view .LVU169
	.loc 1 76 3454 view .LVU170
	.loc 1 76 8 view .LVU171
	.loc 1 76 31 view .LVU172
	.loc 1 76 130 view .LVU173
	.loc 1 76 7 view .LVU174
	.loc 1 76 12 view .LVU175
	.loc 1 76 237 view .LVU176
	.loc 1 76 1190 view .LVU177
	.loc 1 76 1255 view .LVU178
	.loc 1 76 1279 view .LVU179
	.loc 1 76 1308 view .LVU180
	.loc 1 76 1319 view .LVU181
	.loc 1 76 1406 view .LVU182
	.loc 1 76 1422 view .LVU183
	.loc 1 76 1462 view .LVU184
	.loc 1 76 1552 view .LVU185
	.loc 1 76 1955 view .LVU186
	.loc 1 76 2612 view .LVU187
	.loc 1 76 2631 view .LVU188
	.loc 1 76 2668 view .LVU189
	.loc 1 76 2726 view .LVU190
	.loc 1 76 2767 view .LVU191
	.loc 1 76 8 view .LVU192
	.loc 1 76 31 view .LVU193
	.loc 1 76 10 view .LVU194
	.loc 1 76 7 view .LVU195
	.loc 1 76 12 view .LVU196
	.loc 1 76 237 view .LVU197
	.loc 1 76 1190 view .LVU198
	.loc 1 76 1255 view .LVU199
	.loc 1 76 1279 view .LVU200
	.loc 1 76 1308 view .LVU201
	.loc 1 76 1319 view .LVU202
	.loc 1 76 1406 view .LVU203
	.loc 1 76 1422 view .LVU204
	.loc 1 76 1462 view .LVU205
	.loc 1 76 2726 view .LVU206
	.loc 1 76 2767 view .LVU207
	.loc 1 76 8 view .LVU208
	.loc 1 76 31 view .LVU209
	.loc 1 76 10 view .LVU210
	.loc 1 76 6 view .LVU211
	.loc 1 76 29 view .LVU212
	.loc 1 76 53 view .LVU213
	.loc 1 76 81 view .LVU214
	.loc 1 76 257 view .LVU215
	.loc 1 76 17 view .LVU216
.LBB169:
.LBB155:
.LBB151:
.LBB147:
.LBB143:
.LBB138:
	.loc 1 76 30 view .LVU217
	.loc 1 76 4 view .LVU218
	.loc 1 76 4 view .LVU219
	.loc 1 76 71 view .LVU220
	.loc 1 76 83 is_stmt 0 view .LVU221
	add	r3, sp, #16
.LVL35:
	.loc 1 76 75 is_stmt 1 view .LVU222
	.loc 1 76 485 view .LVU223
	.loc 1 76 6 view .LVU224
	.loc 1 76 8 view .LVU225
	.loc 1 76 13 view .LVU226
	.loc 1 76 11 view .LVU227
	.loc 1 76 6 view .LVU228
	.loc 1 76 24 view .LVU229
.LBB120:
	.loc 1 76 4 view .LVU230
	.loc 1 76 369 view .LVU231
	.loc 1 76 76 view .LVU232
.LVL36:
	.loc 1 76 3 view .LVU233
	.loc 1 76 3 view .LVU234
	.loc 1 76 3 view .LVU235
	.loc 1 76 39 view .LVU236
	.loc 1 76 68 view .LVU237
	.loc 1 76 94 view .LVU238
	.loc 1 76 120 view .LVU239
	.loc 1 76 1033 view .LVU240
	.loc 1 76 1095 view .LVU241
	.loc 1 76 2082 view .LVU242
	.loc 1 76 2147 view .LVU243
	.loc 1 76 2172 view .LVU244
	.loc 1 76 2173 view .LVU245
	.loc 1 76 2175 view .LVU246
	.loc 1 76 2205 view .LVU247
	.loc 1 76 2235 view .LVU248
	.loc 1 76 2267 view .LVU249
	.loc 1 76 2299 view .LVU250
	.loc 1 76 2331 view .LVU251
	.loc 1 76 2528 view .LVU252
	.loc 1 76 2552 view .LVU253
	.loc 1 76 2553 view .LVU254
	.loc 1 76 2555 view .LVU255
	.loc 1 76 2584 view .LVU256
	.loc 1 76 2613 view .LVU257
	.loc 1 76 2644 view .LVU258
	.loc 1 76 2675 view .LVU259
	.loc 1 76 2706 view .LVU260
	.loc 1 76 2913 view .LVU261
.LBB121:
	.loc 1 76 3451 view .LVU262
	.loc 1 76 3456 view .LVU263
	.loc 1 76 0 view .LVU264
	ldr	r0, .L19
.LVL37:
	.loc 1 76 0 is_stmt 0 view .LVU265
.LBE121:
.LBB122:
	.loc 1 76 3812 view .LVU266
	strd	r0, r1, [r3, #20]
	.loc 1 76 2767 is_stmt 1 view .LVU267
	.loc 1 76 8 view .LVU268
.LVL38:
	.loc 1 76 31 view .LVU269
	.loc 1 76 31 is_stmt 0 view .LVU270
.LBE122:
	.loc 1 76 10 is_stmt 1 view .LVU271
	.loc 1 76 7 view .LVU272
.LBB123:
	.loc 1 76 12 view .LVU273
	.loc 1 76 237 view .LVU274
	.loc 1 76 1190 view .LVU275
	.loc 1 76 1255 view .LVU276
.LBE123:
.LBE120:
.LBE138:
.LBE143:
.LBE147:
.LBE151:
.LBE155:
.LBE169:
	.loc 1 76 1279 view .LVU277
	.loc 1 76 1308 view .LVU278
	.loc 1 76 1319 view .LVU279
	.loc 1 76 1406 view .LVU280
.LBB170:
.LBB156:
.LBB152:
.LBB148:
.LBB144:
.LBB139:
.LBB133:
.LBB124:
	.loc 1 76 1422 view .LVU281
	.loc 1 76 1462 view .LVU282
	.loc 1 76 2726 view .LVU283
	.loc 1 76 2764 view .LVU284
	.loc 1 76 2769 view .LVU285
	.loc 1 76 3213 view .LVU286
	.loc 1 76 2767 view .LVU287
	.loc 1 76 8 view .LVU288
	.loc 1 76 31 view .LVU289
	.loc 1 76 31 is_stmt 0 view .LVU290
.LBE124:
	.loc 1 76 10 is_stmt 1 view .LVU291
	.loc 1 76 6 view .LVU292
	.loc 1 76 29 view .LVU293
	.loc 1 76 53 view .LVU294
	.loc 1 76 81 view .LVU295
.LBB125:
	.loc 1 76 7 view .LVU296
	.loc 1 76 46 view .LVU297
.LBE125:
.LBE133:
.LBE139:
.LBE144:
.LBE148:
.LBE152:
.LBE156:
.LBE170:
	.loc 1 76 51 view .LVU298
	.loc 1 76 81 view .LVU299
.LBB171:
.LBB157:
.LBB153:
.LBB149:
.LBB145:
.LBB140:
.LBB134:
.LBB128:
.LBB126:
	.loc 1 76 183 view .LVU300
	.loc 1 76 215 view .LVU301
	.loc 1 76 209 view .LVU302
	.loc 1 76 183 view .LVU303
	.loc 1 76 215 view .LVU304
	.loc 1 76 215 is_stmt 0 view .LVU305
.LBE126:
.LBE128:
.LBB129:
	.loc 1 76 3812 view .LVU306
	movw	r1, #2047
.LVL39:
	.loc 1 76 3812 view .LVU307
	str	r1, [r3, #28]
.LBE129:
.LBB130:
	.loc 1 76 177 view .LVU308
	mov	r2, r3
.LBE130:
.LBB131:
.LBB127:
	.loc 1 76 228 view .LVU309
	mov	r1, #512
	strh	r1, [r3, #32]	@ movhi
	.loc 1 76 209 is_stmt 1 view .LVU310
.LVL40:
	.loc 1 76 183 view .LVU311
.LBE127:
.LBE131:
	.loc 1 76 257 view .LVU312
	.loc 1 76 17 view .LVU313
.LBB132:
	.loc 1 76 7 view .LVU314
	.loc 1 76 165 view .LVU315
	.loc 1 76 167 view .LVU316
	.loc 1 76 177 is_stmt 0 view .LVU317
	ldr	r3, .L19+4
.LVL41:
	.loc 1 76 177 view .LVU318
	str	r3, [r2, #16]!
.LVL42:
	.loc 1 76 177 view .LVU319
.LBE132:
.LBE134:
	.loc 1 76 27 is_stmt 1 view .LVU320
	.loc 1 76 8 view .LVU321
	.loc 1 76 148 view .LVU322
	.loc 1 76 150 view .LVU323
.LBB135:
.LBI135:
	.file 4 "/home/g/mise-work/zmk-firmware/zmk/app/build/zephyr/include/generated/syscalls/log_msg.h"
	.loc 4 26 20 view .LVU324
.LBB136:
	.loc 4 38 2 view .LVU325
	.loc 4 38 7 view .LVU326
	.loc 4 38 5 view .LVU327
	.loc 4 39 2 view .LVU328
	ldr	r0, .L19+8
	mov	r3, r6
	mov	r1, #9344
	bl	z_impl_z_log_msg_static_create
.LVL43:
	.loc 4 39 2 is_stmt 0 view .LVU329
.LBE136:
.LBE135:
	mov	sp, r4
.LBE140:
	.loc 1 76 108 is_stmt 1 view .LVU330
	.loc 1 76 6 view .LVU331
.LVL44:
	.loc 1 76 43 view .LVU332
.LBE145:
	.loc 1 76 7 view .LVU333
.LBE149:
	.loc 1 76 279 view .LVU334
	.loc 1 76 6 view .LVU335
	.loc 1 76 19 view .LVU336
.LBE153:
	.loc 1 76 7 view .LVU337
	.loc 1 78 4 view .LVU338
.L10:
	.loc 1 78 4 is_stmt 0 view .LVU339
.LBE157:
.LBE171:
	.loc 1 96 1 view .LVU340
	adds	r7, r7, #44
	.cfi_remember_state
	.cfi_def_cfa_offset 36
	mov	sp, r7
	.cfi_def_cfa_register 13
	@ sp needed
	pop	{r4, r5, r6, r7, r8, r9, r10, fp, pc}
.LVL45:
.L12:
	.cfi_restore_state
.LBB172:
	.loc 1 83 3 is_stmt 1 view .LVU341
	.loc 1 83 24 is_stmt 0 view .LVU342
	ubfx	r8, r0, #0, #11
.LVL46:
	.loc 1 84 3 is_stmt 1 view .LVU343
.LBB158:
.LBB159:
	.file 5 "/home/g/mise-work/zmk-firmware/zmk/zephyr/include/zephyr/logging/log_msg.h"
	.loc 5 595 47 is_stmt 0 view .LVU344
	add	r0, r4, #23
.LVL47:
	.loc 5 595 47 view .LVU345
	add	r0, r0, r3
	.loc 5 595 735 view .LVU346
	bic	r0, r0, #7
.LBE159:
.LBE158:
	.loc 1 84 9 view .LVU347
	lsrs	r0, r0, #2
.LBB162:
.LBB160:
	.loc 5 595 47 view .LVU348
	str	r3, [r7]
.LBE160:
.LBE162:
	.loc 1 84 9 view .LVU349
	bl	z_log_msg_alloc
.LVL48:
	.loc 1 84 9 view .LVU350
	bfi	r5, r8, #9, #11
.LVL49:
.LBB163:
.LBI158:
	.loc 5 593 24 is_stmt 1 view .LVU351
.LBB161:
	.loc 5 595 2 view .LVU352
	.loc 5 595 2 is_stmt 0 view .LVU353
.LBE161:
.LBE163:
	.loc 1 85 3 is_stmt 1 view .LVU354
	.loc 1 85 6 is_stmt 0 view .LVU355
	mov	r4, r0
	cbz	r0, .L15
	.loc 1 86 4 is_stmt 1 view .LVU356
.LVL50:
.LBB164:
.LBI164:
	.loc 2 572 19 view .LVU357
.LBB165:
	.loc 2 580 2 view .LVU358
	.loc 2 580 29 is_stmt 0 view .LVU359
	ldr	r3, [r7]
	.loc 2 586 9 view .LVU360
	ldr	r2, .L19+12
	.loc 2 580 29 view .LVU361
	strd	r3, r6, [r7, #32]
	.loc 2 586 2 is_stmt 1 view .LVU362
.LBE165:
.LBE164:
	.loc 1 87 14 is_stmt 0 view .LVU363
	add	r1, r0, #16
.LVL51:
.LBB167:
.LBB166:
	.loc 2 586 9 view .LVU364
	add	r3, r7, #20
.LVL52:
	.loc 2 580 29 view .LVU365
	str	r1, [r7, #28]
	.loc 2 586 9 view .LVU366
	strd	r10, r3, [sp]
	str	fp, [sp, #8]
	ldr	r1, [r7, #12]
.LVL53:
	.loc 2 586 9 view .LVU367
	add	r3, r7, #28
.LVL54:
	.loc 2 586 9 view .LVU368
	mov	r0, r9
.LVL55:
	.loc 2 586 9 view .LVU369
	bl	cbprintf_package_convert
.LVL56:
	.loc 2 586 9 view .LVU370
.LBE166:
.LBE167:
	.loc 1 89 6 is_stmt 1 view .LVU371
	.loc 1 89 7 view .LVU372
.L15:
	.loc 1 89 7 is_stmt 0 view .LVU373
.LBE172:
	.loc 1 95 2 is_stmt 1 view .LVU374
	bfi	r5, r8, #9, #11
.LVL57:
	.loc 1 95 2 is_stmt 0 view .LVU375
	ldr	r3, [r7, #4]
	ldr	r1, [r7, #8]
	mov	r2, r5
	mov	r0, r4
	bl	z_log_msg_finalize
.LVL58:
	.loc 1 95 2 view .LVU376
	b	.L10
.LVL59:
.L11:
	.loc 1 92 3 is_stmt 1 view .LVU377
.LBB173:
.LBI173:
	.loc 5 593 24 view .LVU378
.LBB174:
	.loc 5 595 2 view .LVU379
	.loc 5 595 47 is_stmt 0 view .LVU380
	add	r0, r4, #23
.LVL60:
	.loc 5 595 735 view .LVU381
	bic	r0, r0, #7
.LBE174:
.LBE173:
	.loc 1 92 9 view .LVU382
	lsrs	r0, r0, #2
	bl	z_log_msg_alloc
.LVL61:
	.loc 1 92 9 view .LVU383
	mov	r4, r0
.LVL62:
	.loc 1 92 9 view .LVU384
	b	.L15
.L20:
	.align	2
.L19:
	.word	.LC0
	.word	16777220
	.word	log_const_log
	.word	z_cbprintf_cpy
	.cfi_endproc
.LFE496:
	.size	z_impl_z_log_msg_static_create, .-z_impl_z_log_msg_static_create
	.section	.text.z_impl_z_log_msg_runtime_vcreate,"ax",%progbits
	.align	1
	.global	z_impl_z_log_msg_runtime_vcreate
	.syntax unified
	.thumb
	.thumb_func
	.type	z_impl_z_log_msg_runtime_vcreate, %function
z_impl_z_log_msg_runtime_vcreate:
.LVL63:
.LFB497:
	.loc 1 111 1 is_stmt 1 view -0
	.cfi_startproc
	@ args = 16, pretend = 0, frame = 16
	@ frame_needed = 0, uses_anonymous_args = 0
	.loc 1 112 2 view .LVU386
	.loc 1 114 2 view .LVU387
	.loc 1 111 1 is_stmt 0 view .LVU388
	push	{r4, r5, r6, r7, r8, r9, r10, fp, lr}
	.cfi_def_cfa_offset 36
	.cfi_offset 4, -36
	.cfi_offset 5, -32
	.cfi_offset 6, -28
	.cfi_offset 7, -24
	.cfi_offset 8, -20
	.cfi_offset 9, -16
	.cfi_offset 10, -12
	.cfi_offset 11, -8
	.cfi_offset 14, -4
	sub	sp, sp, #28
	.cfi_def_cfa_offset 64
	.loc 1 111 1 view .LVU389
	ldrd	r6, r9, [sp, #72]
.LVL64:
	.loc 1 111 1 view .LVU390
	ldrd	r5, r10, [sp, #64]
	mov	r4, r0
	mov	r7, r1
	mov	fp, r2
	mov	r8, r3
	.loc 1 114 5 view .LVU391
	cbz	r6, .L24
.LBB175:
	.loc 1 115 3 is_stmt 1 view .LVU392
	.loc 1 117 2 view .LVU393
	.loc 1 118 10 is_stmt 0 view .LVU394
	movs	r1, #16
.LVL65:
	.loc 1 118 10 view .LVU395
	str	r9, [sp]
	mov	r3, r6
.LVL66:
	.loc 1 118 10 view .LVU396
	mov	r2, r10
.LVL67:
	.loc 1 118 10 view .LVU397
	movs	r0, #0
.LVL68:
	.loc 1 117 2 view .LVU398
	str	r9, [sp, #20]
	.loc 1 118 3 is_stmt 1 view .LVU399
	.loc 1 118 10 is_stmt 0 view .LVU400
	bl	cbvprintf_package
.LVL69:
	mov	r1, r0
.LVL70:
	.loc 1 120 5 is_stmt 1 view .LVU401
	.loc 1 120 6 view .LVU402
	.loc 1 121 2 view .LVU403
.L22:
	.loc 1 121 2 is_stmt 0 view .LVU404
.LBE175:
	.loc 1 126 2 is_stmt 1 view .LVU405
	.loc 1 127 2 view .LVU406
	.loc 1 128 2 view .LVU407
	.loc 1 129 2 view .LVU408
	.loc 1 126 37 is_stmt 0 view .LVU409
	add	r0, r5, #23
	add	r0, r0, r1
	.loc 1 129 22 view .LVU410
	ldr	r3, .L31
	.loc 1 126 37 view .LVU411
	str	r1, [sp, #12]
	.loc 1 129 22 view .LVU412
	and	r4, r4, #7
	and	fp, fp, #7
	lsls	r4, r4, #3
	.loc 1 126 725 view .LVU413
	bic	r0, r0, #7
	.loc 1 129 22 view .LVU414
	and	r3, r3, r1, lsl #9
	orr	r4, r4, fp, lsl #6
	.loc 1 133 9 view .LVU415
	lsrs	r0, r0, #2
	.loc 1 129 22 view .LVU416
	orrs	r4, r4, r3
	.loc 1 133 9 view .LVU417
	bl	z_log_msg_alloc
.LVL71:
	.loc 1 129 22 view .LVU418
	orr	r4, r4, r5, lsl #20
.LVL72:
	.loc 1 132 2 is_stmt 1 view .LVU419
	.loc 1 133 3 view .LVU420
	.loc 1 134 3 view .LVU421
	.loc 1 137 4 view .LVU422
	.loc 1 137 26 is_stmt 0 view .LVU423
	mov	r5, r0
.LVL73:
	.loc 1 137 26 view .LVU424
	cbz	r0, .L23
.LVL74:
	.loc 1 144 2 is_stmt 1 discriminator 1 view .LVU425
	.loc 1 144 10 is_stmt 0 discriminator 1 view .LVU426
	cbz	r6, .L23
	.loc 1 145 3 is_stmt 1 view .LVU427
	.loc 1 145 10 is_stmt 0 view .LVU428
	ldr	r1, [sp, #12]
	str	r9, [sp]
	mov	r3, r6
	mov	r2, r10
	adds	r0, r0, #16
.LVL75:
	.loc 1 145 10 view .LVU429
	bl	cbvprintf_package
.LVL76:
.L23:
	.loc 1 146 5 is_stmt 1 view .LVU430
	.loc 1 146 6 view .LVU431
	.loc 1 149 2 view .LVU432
	.loc 1 153 2 view .LVU433
	.loc 1 154 3 view .LVU434
	mov	r3, r8
.LVL77:
	.loc 1 154 3 is_stmt 0 view .LVU435
	mov	r2, r4
	mov	r1, r7
	mov	r0, r5
	.loc 1 156 1 view .LVU436
	add	sp, sp, #28
	.cfi_remember_state
	.cfi_def_cfa_offset 36
	@ sp needed
	pop	{r4, r5, r6, r7, r8, r9, r10, fp, lr}
	.cfi_restore 14
	.cfi_restore 11
	.cfi_restore 10
	.cfi_restore 9
	.cfi_restore 8
	.cfi_restore 7
	.cfi_restore 6
	.cfi_restore 5
	.cfi_restore 4
	.cfi_def_cfa_offset 0
.LVL78:
	.loc 1 154 3 view .LVU437
	b	z_log_msg_finalize
.LVL79:
.L24:
	.cfi_restore_state
	.loc 1 123 8 view .LVU438
	mov	r1, r6
.LVL80:
	.loc 1 123 8 view .LVU439
	b	.L22
.L32:
	.align	2
.L31:
	.word	1048064
	.cfi_endproc
.LFE497:
	.size	z_impl_z_log_msg_runtime_vcreate, .-z_impl_z_log_msg_runtime_vcreate
	.text
.Letext0:
	.file 6 "/home/g/zephyr-sdk-0.16.3/arm-zephyr-eabi/lib/gcc/arm-zephyr-eabi/12.2.0/include/stddef.h"
	.file 7 "/home/g/zephyr-sdk-0.16.3/arm-zephyr-eabi/picolibc/include/machine/_default_types.h"
	.file 8 "/home/g/zephyr-sdk-0.16.3/arm-zephyr-eabi/picolibc/include/sys/_stdint.h"
	.file 9 "/home/g/zephyr-sdk-0.16.3/arm-zephyr-eabi/lib/gcc/arm-zephyr-eabi/12.2.0/include/stdarg.h"
	.file 10 "/home/g/mise-work/zmk-firmware/zmk/zephyr/include/zephyr/fatal_types.h"
	.file 11 "/home/g/mise-work/zmk-firmware/zmk/zephyr/include/zephyr/kernel.h"
	.file 12 "/home/g/mise-work/zmk-firmware/zmk/zephyr/include/zephyr/logging/log_instance.h"
	.file 13 "/home/g/mise-work/zmk-firmware/zmk/zephyr/include/zephyr/logging/log_internal.h"
	.file 14 "/home/g/mise-work/zmk-firmware/zmk/zephyr/include/zephyr/sys/cbprintf_internal.h"
	.file 15 "<built-in>"
	.file 16 "/home/g/mise-work/zmk-firmware/zmk/zephyr/include/zephyr/syscall.h"