	.cpu cortex-m4
	.arch armv7e-m
	.fpu fpv4-sp-d16
	.eabi_attribute 27, 1
	.eabi_attribute 28, 1
	.eabi_attribute 20, 1
	.eabi_attribute 21, 1
	.eabi_attribute 23, 3
	.eabi_attribute 24, 1
	.eabi_attribute 25, 1
	.eabi_attribute 26, 1
	.eabi_attribute 30, 4
	.eabi_attribute 34, 1
	.eabi_attribute 38, 1
	.eabi_attribute 18, 4
	.file	"log_core.c"
	.text
.Ltext0:
	.cfi_sections	.debug_frame
	.file 1 "/home/g/mise-work/zmk-firmware/zmk/zephyr/subsys/logging/log_core.c"
	.section	.text.log_msg_generic_get_wlen,"ax",%progbits
	.align	1
	.syntax unified
	.thumb
	.thumb_func
	.type	log_msg_generic_get_wlen, %function
log_msg_generic_get_wlen:
.LVL0:
.LFB276:
	.file 2 "/home/g/mise-work/zmk-firmware/zmk/zephyr/include/zephyr/logging/log_msg.h"
	.loc 2 605 1 view -0
	.cfi_startproc
	@ args = 0, pretend = 0, frame = 0
	@ frame_needed = 0, uses_anonymous_args = 0
	@ link register save eliminated.
	.loc 2 606 2 view .LVU1
	.loc 2 608 2 view .LVU2
.LBB153:
.LBI153:
	.loc 2 582 19 view .LVU3
.LBB154:
	.loc 2 584 2 view .LVU4
	.loc 2 584 27 is_stmt 0 view .LVU5
	ldrb	r3, [r0]	@ zero_extendqisi2
.LBE154:
.LBE153:
	.loc 2 608 5 view .LVU6
	lsls	r3, r3, #29
.LBB155:
	.loc 2 609 3 is_stmt 1 view .LVU7
.LVL1:
	.loc 2 611 3 view .LVU8
.LBB156:
.LBI156:
	.loc 2 593 24 view .LVU9
.LBB157:
	.loc 2 595 2 view .LVU10
	.loc 2 595 14 is_stmt 0 view .LVU11
	itttt	pl
	ldrpl	r3, [r0]
	.loc 2 595 34 view .LVU12
	ldrhpl	r2, [r0, #2]
	.loc 2 595 14 view .LVU13
	ubfxpl	r3, r3, #9, #11
	.loc 2 595 27 view .LVU14
	addpl	r0, r3, r2, lsr #4
.LVL2:
	.loc 2 595 47 view .LVU15
	ittte	pl
	addpl	r0, r0, #23
	.loc 2 595 735 view .LVU16
	bicpl	r0, r0, #7
	.loc 2 595 1103 view .LVU17
	lsrpl	r0, r0, #2
.LVL3:
	.loc 2 595 1103 view .LVU18
.LBE157:
.LBE156:
.LBE155:
	.loc 2 614 9 view .LVU19
	movmi	r0, #0
	.loc 2 615 1 view .LVU20
	bx	lr
	.cfi_endproc
.LFE276:
	.size	log_msg_generic_get_wlen, .-log_msg_generic_get_wlen
	.section	.text.dummy_timestamp,"ax",%progbits
	.align	1
	.syntax unified
	.thumb
	.thumb_func
	.type	dummy_timestamp, %function
dummy_timestamp:
.LFB511:
	.loc 1 146 1 is_stmt 1 view -0
	.cfi_startproc
	@ args = 0, pretend = 0, frame = 0
	@ frame_needed = 0, uses_anonymous_args = 0
	@ link register save eliminated.
	.loc 1 147 2 view .LVU22
	.loc 1 148 1 is_stmt 0 view .LVU23
	movs	r0, #0
	bx	lr
	.cfi_endproc
.LFE511:
	.size	dummy_timestamp, .-dummy_timestamp
	.section	.text.default_get_timestamp,"ax",%progbits
	.align	1
	.syntax unified
	.thumb
	.thumb_func
	.type	default_get_timestamp, %function
default_get_timestamp:
.LFB516:
	.loc 1 212 1 is_stmt 1 view -0
	.cfi_startproc
	@ args = 0, pretend = 0, frame = 0
	@ frame_needed = 0, uses_anonymous_args = 0
	@ link register save eliminated.
	.loc 1 213 2 view .LVU25
.LBB158:
.LBI158:
	.file 3 "/home/g/mise-work/zmk-firmware/zmk/zephyr/include/zephyr/kernel.h"
	.loc 3 1816 24 view .LVU26
	.loc 3 1818 2 view .LVU27
.LBB159:
.LBI159:
	.file 4 "/home/g/mise-work/zmk-firmware/zmk/zephyr/include/zephyr/arch/arm/misc.h"
	.loc 4 24 24 view .LVU28
.LBB160:
	.loc 4 26 2 view .LVU29
	.loc 4 26 9 is_stmt 0 view .LVU30
	b	sys_clock_cycle_get_32
.LVL4:
.LBE160:
.LBE159:
.LBE158:
	.cfi_endproc
.LFE516:
	.size	default_get_timestamp, .-default_get_timestamp
	.section	.text.activate_foreach_backend,"ax",%progbits
	.align	1
	.syntax unified
	.thumb
	.thumb_func
	.type	activate_foreach_backend, %function
activate_foreach_backend:
.LVL5:
.LFB519:
	.loc 1 255 1 is_stmt 1 view -0
	.cfi_startproc
	@ args = 0, pretend = 0, frame = 0
	@ frame_needed = 0, uses_anonymous_args = 0
	.loc 1 256 2 view .LVU32
	.loc 1 258 2 view .LVU33
	.loc 1 255 1 is_stmt 0 view .LVU34
	push	{r4, r5, r6, r7, r8, r9, r10, lr}
	.cfi_def_cfa_offset 32
	.cfi_offset 4, -32
	.cfi_offset 5, -28
	.cfi_offset 6, -24
	.cfi_offset 7, -20
	.cfi_offset 8, -16
	.cfi_offset 9, -12
	.cfi_offset 10, -8
	.cfi_offset 14, -4
.LBB167:
	.loc 1 263 14 view .LVU35
	ldr	r8, .L17
.LBE167:
	.loc 1 255 1 view .LVU36
	mov	r4, r0
	.loc 1 258 8 view .LVU37
	mov	r7, r0
.LBB175:
	.loc 1 262 21 view .LVU38
	mov	r9, #1
.LVL6:
.L7:
	.loc 1 262 21 view .LVU39
.LBE175:
	.loc 1 258 9 is_stmt 1 view .LVU40
	cbnz	r4, .L13
	.loc 1 271 2 view .LVU41
	.loc 1 272 1 is_stmt 0 view .LVU42
	mov	r0, r7
	pop	{r4, r5, r6, r7, r8, r9, r10, pc}
.LVL7:
.L13:
.LBB176:
	.loc 1 259 3 is_stmt 1 view .LVU43
	.loc 1 259 16 is_stmt 0 view .LVU44
	rbit	r5, r4
	clz	r5, r5
.LVL8:
	.loc 1 260 3 is_stmt 1 view .LVU45
.LBB168:
.LBI168:
	.file 5 "/home/g/mise-work/zmk-firmware/zmk/zephyr/include/zephyr/logging/log_backend.h"
	.loc 5 248 41 view .LVU46
.LBB169:
	.loc 5 250 2 view .LVU47
	.loc 5 252 2 view .LVU48
.LBB170:
	.loc 5 252 7 view .LVU49
	.loc 5 252 60 view .LVU50
	.loc 5 252 60 is_stmt 0 view .LVU51
.LBE170:
	.loc 5 252 5 is_stmt 1 view .LVU52
	.loc 5 254 2 view .LVU53
	.loc 5 254 2 is_stmt 0 view .LVU54
.LBE169:
.LBE168:
	.loc 1 262 3 is_stmt 1 view .LVU55
	.loc 1 262 21 is_stmt 0 view .LVU56
	lsl	r3, r9, r5
	.loc 1 263 14 view .LVU57
	lsls	r6, r5, #4
.LVL9:
	.loc 1 263 14 view .LVU58
	add	r5, r8, r5, lsl #4
.LVL10:
	.loc 1 262 15 view .LVU59
	mvn	r10, r3
	.loc 1 262 12 view .LVU60
	bic	r4, r4, r3
.LVL11:
	.loc 1 263 3 is_stmt 1 view .LVU61
	.loc 1 263 6 is_stmt 0 view .LVU62
	ldrb	r3, [r5, #12]	@ zero_extendqisi2
	cmp	r3, #0
	beq	.L7
.LVL12:
.LBB171:
.LBI171:
	.loc 5 156 19 is_stmt 1 view .LVU63
.LBB172:
	.loc 5 158 4 view .LVU64
	.loc 5 158 5 view .LVU65
	.loc 5 159 2 view .LVU66
	.loc 5 159 18 is_stmt 0 view .LVU67
	ldr	r3, [r8, r6]
	ldr	r3, [r3, #16]
	.loc 5 159 5 view .LVU68
	cbnz	r3, .L10
.LVL13:
.L11:
	.loc 5 159 5 view .LVU69
.LBE172:
.LBE171:
	.loc 1 264 4 is_stmt 1 view .LVU70
	.loc 1 266 16 is_stmt 0 view .LVU71
	add	r6, r6, r8
.LVL14:
	.loc 1 265 4 view .LVU72
	movs	r2, #4
	ldr	r3, [r6, #4]
	mov	r0, r5
	ldr	r1, [r3]
	.loc 1 264 9 view .LVU73
	and	r7, r7, r10
.LVL15:
	.loc 1 265 4 is_stmt 1 view .LVU74
	bl	log_backend_enable
.LVL16:
	b	.L7
.LVL17:
.L10:
.LBB174:
.LBB173:
	.loc 5 160 3 view .LVU75
	.loc 5 160 10 is_stmt 0 view .LVU76
	mov	r0, r5
	blx	r3
.LVL18:
	.loc 5 160 10 view .LVU77
.LBE173:
.LBE174:
	.loc 1 263 26 view .LVU78
	cmp	r0, #0
	bne	.L7
	b	.L11
.L18:
	.align	2
.L17:
	.word	_log_backend_list_start
.LBE176:
	.cfi_endproc
.LFE519:
	.size	activate_foreach_backend, .-activate_foreach_backend
	.section	.text.atomic_inc,"ax",%progbits
	.align	1
	.syntax unified
	.thumb
	.thumb_func
	.type	atomic_inc, %function
atomic_inc:
.LVL19:
.LFB22:
	.file 6 "/home/g/mise-work/zmk-firmware/zmk/zephyr/include/zephyr/sys/atomic_builtin.h"
	.loc 6 124 1 is_stmt 1 view -0
	.cfi_startproc
	@ args = 0, pretend = 0, frame = 0
	@ frame_needed = 0, uses_anonymous_args = 0
	@ link register save eliminated.
	.loc 6 125 2 view .LVU80
	.loc 6 124 1 is_stmt 0 view .LVU81
	mov	r3, r0
.LVL20:
.LBB179:
.LBI179:
	.loc 6 86 28 is_stmt 1 view .LVU82
.LBB180:
	.loc 6 88 2 view .LVU83
	.loc 6 88 2 is_stmt 0 view .LVU84
.LBE180:
.LBE179:
	.loc 6 126 1 view .LVU85
	dmb	ish
.LVL21:
.L20:
	.loc 6 126 1 view .LVU86
	ldrex	r0, [r3]
	adds	r2, r0, #1
	strex	r1, r2, [r3]
	cmp	r1, #0
	bne	.L20
	dmb	ish
	bx	lr
	.cfi_endproc
.LFE22:
	.size	atomic_inc, .-atomic_inc
	.section	.rodata.enable_logger.str1.1,"aMS",%progbits,1
.LC0:
	.ascii	"logging\000"
	.section	.text.enable_logger,"ax",%progbits
	.align	1
	.syntax unified
	.thumb
	.thumb_func
	.type	enable_logger, %function
enable_logger:
.LFB557:
	.loc 1 913 1 is_stmt 1 view -0
	.cfi_startproc
	@ args = 0, pretend = 0, frame = 0
	@ frame_needed = 0, uses_anonymous_args = 0
	.loc 1 914 2 view .LVU88
.LBB186:
	.loc 1 915 3 view .LVU89
.LBE186:
	.loc 1 913 1 is_stmt 0 view .LVU90
	push	{r4, r5, lr}
	.cfi_def_cfa_offset 12
	.cfi_offset 4, -12
	.cfi_offset 5, -8
	.cfi_offset 14, -4
.LBB191:
	.loc 1 915 3 view .LVU91
	ldr	r1, .L22
	ldr	r0, .L22+4
.LBE191:
	.loc 1 913 1 view .LVU92
	sub	sp, sp, #36
	.cfi_def_cfa_offset 48
.LBB192:
	.loc 1 915 3 view .LVU93
	movs	r2, #0
	bl	k_timer_init
.LVL22:
	.loc 1 918 3 is_stmt 1 view .LVU94
.LBB187:
.LBI187:
	.file 7 "/home/g/mise-work/zmk-firmware/zmk/app/build/zephyr/include/generated/syscalls/kernel.h"
	.loc 7 59 23 view .LVU95
.LBB188:
	.loc 7 84 2 view .LVU96
	.loc 7 84 7 view .LVU97
	.loc 7 84 5 view .LVU98
	.loc 7 85 2 view .LVU99
	.loc 7 85 9 is_stmt 0 view .LVU100
	ldr	r5, .L22+8
	ldr	r1, .L22+12
	mov	r2, #98304
.LVL23:
	.loc 7 85 9 view .LVU101
	movs	r3, #0
.LVL24:
	.loc 7 85 9 view .LVU102
	strd	r2, [sp, #24]
	movs	r4, #0
	movs	r3, #14
	strd	r3, r4, [sp, #12]
	strd	r4, r4, [sp, #4]
	ldr	r3, .L22+16
	str	r4, [sp]
	mov	r2, #768
.LVL25:
	.loc 7 85 9 view .LVU103
	mov	r0, r5
	bl	z_impl_k_thread_create
.LVL26:
	.loc 7 85 9 view .LVU104
.LBE188:
.LBE187:
	.loc 1 925 3 is_stmt 1 view .LVU105
.LBB189:
.LBI189:
	.loc 7 426 19 view .LVU106
.LBB190:
	.loc 7 435 2 view .LVU107
	.loc 7 435 7 view .LVU108
	.loc 7 435 5 view .LVU109
	.loc 7 436 2 view .LVU110
	.loc 7 436 9 is_stmt 0 view .LVU111
	ldr	r1, .L22+20
	mov	r0, r5
	bl	z_impl_k_thread_name_set
.LVL27:
	.loc 7 436 9 view .LVU112
.LBE190:
.LBE189:
.LBE192:
	.loc 1 930 2 is_stmt 1 view .LVU113
	.loc 1 931 1 is_stmt 0 view .LVU114
	mov	r0, r4
	add	sp, sp, #36
	.cfi_def_cfa_offset 12
	@ sp needed
	pop	{r4, r5, pc}
.L23:
	.align	2
.L22:
	.word	log_process_thread_timer_expiry_fn
	.word	log_process_thread_timer
	.word	logging_thread
	.word	logging_stack
	.word	log_process_thread_func
	.word	.LC0
	.cfi_endproc
.LFE557:
	.size	enable_logger, .-enable_logger
	.section	.text.log_process_thread_timer_expiry_fn,"ax",%progbits
	.align	1
	.syntax unified
	.thumb
	.thumb_func
	.type	log_process_thread_timer_expiry_fn, %function
log_process_thread_timer_expiry_fn:
.LVL28:
.LFB555:
	.loc 1 858 1 is_stmt 1 view -0
	.cfi_startproc
	@ args = 0, pretend = 0, frame = 0
	@ frame_needed = 0, uses_anonymous_args = 0
	@ link register save eliminated.
	.loc 1 859 2 view .LVU116
.LBB195:
.LBI195:
	.loc 7 1110 20 view .LVU117
.LBB196:
	.loc 7 1119 2 view .LVU118
	.loc 7 1119 7 view .LVU119
	.loc 7 1119 5 view .LVU120
	.loc 7 1120 2 view .LVU121
	ldr	r0, .L25
.LVL29:
	.loc 7 1120 2 is_stmt 0 view .LVU122
	b	z_impl_k_sem_give
.LVL30:
.L26:
	.align	2
.L25:
	.word	log_process_thread_sem
.LBE196:
.LBE195:
	.cfi_endproc
.LFE555:
	.size	log_process_thread_timer_expiry_fn, .-log_process_thread_timer_expiry_fn
	.section	.text.z_log_init,"ax",%progbits
	.align	1
	.syntax unified
	.thumb
	.thumb_func
	.type	z_log_init, %function
z_log_init:
.LVL31:
.LFB520:
	.loc 1 275 1 is_stmt 1 view -0
	.cfi_startproc
	@ args = 0, pretend = 0, frame = 0
	@ frame_needed = 0, uses_anonymous_args = 0
	.loc 1 276 2 view .LVU124
	.loc 1 278 2 view .LVU125
	.loc 1 282 4 view .LVU126
	.loc 1 282 5 view .LVU127
	.loc 1 284 2 view .LVU128
	.loc 1 275 1 is_stmt 0 view .LVU129
	push	{r4, r5, r6, r7, r8, r9, r10, lr}
	.cfi_def_cfa_offset 32
	.cfi_offset 4, -32
	.cfi_offset 5, -28
	.cfi_offset 6, -24
	.cfi_offset 7, -20
	.cfi_offset 8, -16
	.cfi_offset 9, -12
	.cfi_offset 10, -8
	.cfi_offset 14, -4
	.loc 1 275 1 view .LVU130
	mov	r8, r0
	.loc 1 284 6 view .LVU131
	ldr	r0, .L54
.LVL32:
	.loc 1 275 1 view .LVU132
	mov	r7, r1
	.loc 1 284 6 view .LVU133
	bl	atomic_inc
.LVL33:
	.loc 1 284 5 view .LVU134
	mov	r6, r0
	cmp	r0, #0
	beq	.L40
.LVL34:
.L39:
	.loc 1 276 11 view .LVU135
	movs	r5, #0
.L27:
	.loc 1 325 1 view .LVU136
	mov	r0, r5
	pop	{r4, r5, r6, r7, r8, r9, r10, pc}
.LVL35:
.L35:
.LBB206:
	.loc 1 296 3 is_stmt 1 view .LVU137
	.loc 1 296 6 is_stmt 0 view .LVU138
	ldrb	r3, [r4, #12]	@ zero_extendqisi2
	cbz	r3, .L30
	.loc 1 297 4 is_stmt 1 view .LVU139
.LVL36:
.LBB207:
.LBI207:
	.loc 5 137 20 view .LVU140
.LBB208:
	.loc 5 139 4 view .LVU141
	.loc 5 139 5 view .LVU142
	.loc 5 140 2 view .LVU143
	.loc 5 140 18 is_stmt 0 view .LVU144
	ldr	r3, [r4]
	ldr	r3, [r3, #12]
	.loc 5 140 5 view .LVU145
	cbz	r3, .L31
	.loc 5 141 3 is_stmt 1 view .LVU146
	mov	r0, r4
	blx	r3
.LVL37:
.L31:
	.loc 5 141 3 is_stmt 0 view .LVU147
.LBE208:
.LBE207:
	.loc 1 302 4 is_stmt 1 view .LVU148
.LBB209:
.LBI209:
	.loc 5 156 19 view .LVU149
.LBB210:
	.loc 5 158 4 view .LVU150
	.loc 5 158 5 view .LVU151
	.loc 5 159 2 view .LVU152
	.loc 5 159 18 is_stmt 0 view .LVU153
	ldr	r3, [r4]
	ldr	r3, [r3, #16]
	.loc 5 159 5 view .LVU154
	cbnz	r3, .L32
.LVL38:
.L34:
	.loc 5 159 5 view .LVU155
.LBE210:
.LBE209:
	.loc 1 303 5 is_stmt 1 view .LVU156
	ldr	r3, [r4, #4]
	movs	r2, #4
	ldr	r1, [r3]
	mov	r0, r4
	bl	log_backend_enable
.LVL39:
.L33:
	.loc 1 310 4 view .LVU157
	.loc 1 310 5 is_stmt 0 view .LVU158
	adds	r6, r6, #1
.LVL40:
.L30:
	.loc 1 295 219 is_stmt 1 discriminator 2 view .LVU159
	adds	r4, r4, #16
.LVL41:
.L28:
	.loc 1 295 167 discriminator 1 view .LVU160
.LBE206:
	.loc 1 295 172 discriminator 1 view .LVU161
	.loc 1 295 173 discriminator 1 view .LVU162
	.loc 1 295 175 discriminator 1 view .LVU163
.LBB213:
	.loc 1 295 167 is_stmt 0 discriminator 1 view .LVU164
	cmp	r4, r9
	bcc	.L35
.LBE213:
	.loc 1 315 2 is_stmt 1 view .LVU165
	.loc 1 315 5 is_stmt 0 view .LVU166
	cmp	r8, #0
	beq	.L27
.L36:
	.loc 1 316 10 is_stmt 1 view .LVU167
	cmp	r5, #0
	beq	.L39
	.loc 1 317 4 view .LVU168
	.loc 1 317 11 is_stmt 0 view .LVU169
	mov	r0, r5
	bl	activate_foreach_backend
.LVL42:
	mov	r5, r0
.LVL43:
	.loc 1 318 4 is_stmt 1 view .LVU170
	.loc 1 318 7 is_stmt 0 view .LVU171
	cmp	r7, #0
	beq	.L36
	.loc 1 319 5 is_stmt 1 view .LVU172
.LBB214:
.LBI214:
	.loc 3 501 23 view .LVU173
.LVL44:
.LBB215:
	.loc 3 503 2 view .LVU174
.LBB216:
.LBI216:
	.loc 7 126 23 view .LVU175
.LBB217:
	.loc 7 134 2 view .LVU176
	.loc 7 134 7 view .LVU177
	.loc 7 134 5 view .LVU178
	.loc 7 135 2 view .LVU179
	.loc 7 135 9 is_stmt 0 view .LVU180
	movs	r1, #0
	mov	r0, #328
.LVL45:
	.loc 7 135 9 view .LVU181
	bl	z_impl_k_sleep
.LVL46:
.LBE217:
.LBE216:
	.loc 3 503 9 view .LVU182
	b	.L36
.LVL47:
.L32:
	.loc 3 503 9 view .LVU183
.LBE215:
.LBE214:
.LBB218:
.LBB212:
.LBB211:
	.loc 5 160 3 is_stmt 1 view .LVU184
	.loc 5 160 10 is_stmt 0 view .LVU185
	mov	r0, r4
	blx	r3
.LVL48:
	.loc 5 160 10 view .LVU186
.LBE211:
.LBE212:
	.loc 1 302 7 view .LVU187
	cmp	r0, #0
	beq	.L34
	.loc 1 307 5 is_stmt 1 view .LVU188
	.loc 1 307 18 is_stmt 0 view .LVU189
	lsl	r3, r10, r6
	.loc 1 307 10 view .LVU190
	orrs	r5, r5, r3
.LVL49:
	.loc 1 307 10 view .LVU191
	b	.L33
.LVL50:
.L40:
	.loc 1 295 132 view .LVU192
	ldr	r4, .L54+4
	.loc 1 295 167 view .LVU193
	ldr	r9, .L54+8
.LBE218:
	.loc 1 276 11 view .LVU194
	mov	r5, r0
.LBB219:
	.loc 1 307 18 view .LVU195
	mov	r10, #1
	b	.L28
.L55:
	.align	2
.L54:
	.word	initialized
	.word	_log_backend_list_start
	.word	_log_backend_list_end
.LBE219:
	.cfi_endproc
.LFE520:
	.size	z_log_init, .-z_log_init
	.section	.text.log_format_func_t_get,"ax",%progbits
	.align	1
	.global	log_format_func_t_get
	.syntax unified
	.thumb
	.thumb_func
	.type	log_format_func_t_get, %function
log_format_func_t_get:
.LVL51:
.LFB509:
	.loc 1 85 1 is_stmt 1 view -0
	.cfi_startproc
	@ args = 0, pretend = 0, frame = 0
	@ frame_needed = 0, uses_anonymous_args = 0
	@ link register save eliminated.
	.loc 1 86 2 view .LVU197
	.loc 1 87 1 is_stmt 0 view .LVU198
	ldr	r3, .L57
	ldr	r0, [r3, r0, lsl #2]
.LVL52:
	.loc 1 87 1 view .LVU199
	bx	lr
.L58:
	.align	2
.L57:
	.word	format_table
	.cfi_endproc
.LFE509:
	.size	log_format_func_t_get, .-log_format_func_t_get
	.section	.text.log_format_table_size,"ax",%progbits
	.align	1
	.global	log_format_table_size
	.syntax unified
	.thumb
	.thumb_func
	.type	log_format_table_size, %function
log_format_table_size:
.LFB510:
	.loc 1 90 1 is_stmt 1 view -0
	.cfi_startproc
	@ args = 0, pretend = 0, frame = 0
	@ frame_needed = 0, uses_anonymous_args = 0
	@ link register save eliminated.
	.loc 1 91 2 view .LVU201
	.loc 1 92 1 is_stmt 0 view .LVU202
	movs	r0, #4
	bx	lr
	.cfi_endproc
.LFE510:
	.size	log_format_table_size, .-log_format_table_size
	.section	.text.z_log_timestamp,"ax",%progbits
	.align	1
	.global	z_log_timestamp
	.syntax unified
	.thumb
	.thumb_func
	.type	z_log_timestamp, %function
z_log_timestamp:
.LFB512:
	.loc 1 151 1 is_stmt 1 view -0
	.cfi_startproc
	@ args = 0, pretend = 0, frame = 0
	@ frame_needed = 0, uses_anonymous_args = 0
	@ link register save eliminated.
	.loc 1 152 2 view .LVU204
	.loc 1 152 9 is_stmt 0 view .LVU205
	ldr	r3, .L61
	ldr	r3, [r3]
	bx	r3
.LVL53:
.L62:
	.align	2
.L61:
	.word	timestamp_func
	.cfi_endproc
.LFE512:
	.size	z_log_timestamp, .-z_log_timestamp
	.section	.text.log_format_set_all_active_backends,"ax",%progbits
	.align	1
	.global	log_format_set_all_active_backends
	.syntax unified
	.thumb
	.thumb_func
	.type	log_format_set_all_active_backends, %function
log_format_set_all_active_backends:
.LVL54:
.LFB514:
	.loc 1 184 1 is_stmt 1 view -0
	.cfi_startproc
	@ args = 0, pretend = 0, frame = 0
	@ frame_needed = 0, uses_anonymous_args = 0
	.loc 1 185 2 view .LVU207
	.loc 1 187 2 view .LVU208
	.loc 1 187 55 view .LVU209
	.loc 1 187 106 view .LVU210
.LBB228:
	.loc 1 187 111 view .LVU211
	.loc 1 187 111 is_stmt 0 view .LVU212
.LBE228:
	.loc 1 184 1 view .LVU213
	push	{r4, r5, r6, r7, r8, lr}
	.cfi_def_cfa_offset 24
	.cfi_offset 4, -24
	.cfi_offset 5, -20
	.cfi_offset 6, -16
	.cfi_offset 7, -12
	.cfi_offset 8, -8
	.cfi_offset 14, -4
.LBB241:
	.loc 1 187 132 view .LVU214
	ldr	r4, .L79
	.loc 1 187 167 view .LVU215
	ldr	r7, .L79+4
.LBB229:
.LBB230:
.LBB231:
.LBB232:
.LBB233:
	.loc 1 86 21 view .LVU216
	ldr	r8, .L79+8
.LBE233:
.LBE232:
.LBE231:
.LBE230:
.LBE229:
.LBE241:
	.loc 1 184 1 view .LVU217
	mov	r5, r0
	.loc 1 185 28 view .LVU218
	movs	r6, #0
.LVL55:
.L64:
.LBB242:
	.loc 1 187 167 is_stmt 1 discriminator 1 view .LVU219
.LBE242:
	.loc 1 187 172 discriminator 1 view .LVU220
	.loc 1 187 173 discriminator 1 view .LVU221
	.loc 1 187 175 discriminator 1 view .LVU222
.LBB243:
	.loc 1 187 167 is_stmt 0 discriminator 1 view .LVU223
	cmp	r4, r7
	bcc	.L69
.LBE243:
	.loc 1 196 2 is_stmt 1 view .LVU224
	.loc 1 197 1 is_stmt 0 view .LVU225
	mov	r0, r6
	pop	{r4, r5, r6, r7, r8, pc}
.LVL56:
.L69:
.LBB244:
	.loc 1 188 3 is_stmt 1 view .LVU226
.LBB238:
.LBI238:
	.loc 5 304 19 view .LVU227
.LBB239:
	.loc 5 307 4 view .LVU228
	.loc 5 307 5 view .LVU229
	.loc 5 308 2 view .LVU230
	.loc 5 308 20 is_stmt 0 view .LVU231
	ldr	r3, [r4, #4]
.LBE239:
.LBE238:
	.loc 1 188 6 view .LVU232
	ldrb	r3, [r3, #5]	@ zero_extendqisi2
	cbz	r3, .L66
.LBB240:
	.loc 1 189 4 is_stmt 1 view .LVU233
.LVL57:
.LBB237:
.LBI230:
	.loc 5 320 19 view .LVU234
.LBB236:
	.loc 5 322 2 view .LVU235
	.loc 5 324 2 view .LVU236
	.loc 5 324 5 is_stmt 0 view .LVU237
	cmp	r5, #3
	bhi	.L67
	.loc 5 328 2 is_stmt 1 view .LVU238
.LVL58:
.LBB235:
.LBI232:
	.loc 1 84 19 view .LVU239
.LBB234:
	.loc 1 86 2 view .LVU240
	.loc 1 86 2 is_stmt 0 view .LVU241
.LBE234:
.LBE235:
	.loc 5 328 5 view .LVU242
	ldr	r3, [r8, r5, lsl #2]
	cbz	r3, .L67
	.loc 5 332 2 is_stmt 1 view .LVU243
	.loc 5 336 2 view .LVU244
	.loc 5 336 18 is_stmt 0 view .LVU245
	ldr	r3, [r4]
	ldr	r3, [r3, #20]
	.loc 5 336 5 view .LVU246
	cbz	r3, .L67
	.loc 5 340 2 is_stmt 1 view .LVU247
	.loc 5 340 9 is_stmt 0 view .LVU248
	mov	r1, r5
	mov	r0, r4
	blx	r3
.LVL59:
	.loc 5 340 9 view .LVU249
.LBE236:
.LBE237:
	.loc 1 191 4 is_stmt 1 view .LVU250
	.loc 1 191 7 is_stmt 0 view .LVU251
	cbz	r0, .L66
.LVL60:
.L67:
	.loc 1 191 7 view .LVU252
.LBE240:
.LBE244:
	.loc 1 184 1 view .LVU253
	mov	r6, r4
.L66:
.LBB245:
	.loc 1 187 219 is_stmt 1 discriminator 2 view .LVU254
	adds	r4, r4, #16
.LVL61:
	.loc 1 187 219 is_stmt 0 discriminator 2 view .LVU255
	b	.L64
.L80:
	.align	2
.L79:
	.word	_log_backend_list_start
	.word	_log_backend_list_end
	.word	format_table
.LBE245:
	.cfi_endproc
.LFE514:
	.size	log_format_set_all_active_backends, .-log_format_set_all_active_backends
	.section	.text.z_log_vprintk,"ax",%progbits
	.align	1
	.global	z_log_vprintk
	.syntax unified
	.thumb
	.thumb_func
	.type	z_log_vprintk, %function
z_log_vprintk:
.LVL62:
.LFB515:
	.loc 1 200 1 is_stmt 1 view -0
	.cfi_startproc
	@ args = 0, pretend = 0, frame = 0
	@ frame_needed = 0, uses_anonymous_args = 0
	.loc 1 201 2 view .LVU257
	.loc 1 205 2 view .LVU258
.LBB248:
.LBI248:
	.file 8 "/home/g/mise-work/zmk-firmware/zmk/app/build/zephyr/include/generated/syscalls/log_msg.h"
	.loc 8 53 20 view .LVU259
.LBB249:
	.loc 8 76 2 view .LVU260
	.loc 8 76 7 view .LVU261
.LBE249:
.LBE248:
	.loc 1 200 1 is_stmt 0 view .LVU262
	push	{r0, r1, r2, r3, r4, lr}
	.cfi_def_cfa_offset 24
	.cfi_offset 14, -4
.LVL63:
.LBB251:
.LBB250:
	.loc 8 76 7 view .LVU263
	.loc 8 76 5 is_stmt 1 view .LVU264
	.loc 8 77 2 view .LVU265
	movs	r3, #0
.LVL64:
	.loc 8 77 2 is_stmt 0 view .LVU266
	strd	r0, r1, [sp, #8]
	strd	r3, r3, [sp]
	mov	r2, r3
	mov	r1, r3
.LVL65:
	.loc 8 77 2 view .LVU267
	mov	r0, r3
.LVL66:
	.loc 8 77 2 view .LVU268
	bl	z_impl_z_log_msg_runtime_vcreate
.LVL67:
	.loc 8 77 2 view .LVU269
.LBE250:
.LBE251:
	.loc 1 209 1 view .LVU270
	add	sp, sp, #20
	.cfi_def_cfa_offset 4
	@ sp needed
	ldr	pc, [sp], #4
	.cfi_endproc
.LFE515:
	.size	z_log_vprintk, .-z_log_vprintk
	.section	.text.log_init,"ax",%progbits
	.align	1
	.global	log_init
	.syntax unified
	.thumb
	.thumb_func
	.type	log_init, %function
log_init:
.LFB521:
	.loc 1 328 1 is_stmt 1 view -0
	.cfi_startproc
	@ args = 0, pretend = 0, frame = 0
	@ frame_needed = 0, uses_anonymous_args = 0
	@ link register save eliminated.
	.loc 1 329 2 view .LVU272
	.loc 1 329 8 is_stmt 0 view .LVU273
	movs	r1, #1
	mov	r0, r1
	b	z_log_init
.LVL68:
	.cfi_endproc
.LFE521:
	.size	log_init, .-log_init
	.section	.text.log_thread_set,"ax",%progbits
	.align	1
	.global	log_thread_set
	.syntax unified
	.thumb
	.thumb_func
	.type	log_thread_set, %function
log_thread_set:
.LVL69:
.LFB523:
	.loc 1 348 1 is_stmt 1 view -0
	.cfi_startproc
	@ args = 0, pretend = 0, frame = 0
	@ frame_needed = 0, uses_anonymous_args = 0
	@ link register save eliminated.
	.loc 1 349 2 view .LVU275
	.loc 1 350 5 view .LVU276
	.loc 1 350 6 view .LVU277
	.loc 1 354 1 is_stmt 0 view .LVU278
	bx	lr
	.cfi_endproc
.LFE523:
	.size	log_thread_set, .-log_thread_set
	.section	.text.log_set_timestamp_func,"ax",%progbits
	.align	1
	.global	log_set_timestamp_func
	.syntax unified
	.thumb
	.thumb_func
	.type	log_set_timestamp_func, %function
log_set_timestamp_func:
.LVL70:
.LFB524:
	.loc 1 357 1 is_stmt 1 view -0
	.cfi_startproc
	@ args = 0, pretend = 0, frame = 0
	@ frame_needed = 0, uses_anonymous_args = 0
	.loc 1 358 2 view .LVU280
	.loc 1 357 1 is_stmt 0 view .LVU281
	push	{r3, lr}
	.cfi_def_cfa_offset 8
	.cfi_offset 3, -8
	.cfi_offset 14, -4
	.loc 1 357 1 view .LVU282
	mov	r3, r0
	mov	r0, r1
.LVL71:
	.loc 1 358 5 view .LVU283
	cbz	r3, .L86
	.loc 1 362 2 is_stmt 1 view .LVU284
	.loc 1 362 17 is_stmt 0 view .LVU285
	ldr	r2, .L87
	str	r3, [r2]
	.loc 1 363 2 is_stmt 1 view .LVU286
	.loc 1 364 2 view .LVU287
	.loc 1 368 2 view .LVU288
	.loc 1 369 3 view .LVU289
	bl	log_output_timestamp_freq_set
.LVL72:
	.loc 1 372 2 view .LVU290
	.loc 1 372 9 is_stmt 0 view .LVU291
	movs	r0, #0
.L84:
	.loc 1 373 1 view .LVU292
	pop	{r3, pc}
.LVL73:
.L86:
	.loc 1 359 10 view .LVU293
	mvn	r0, #21
.LVL74:
	.loc 1 359 10 view .LVU294
	b	.L84
.L88:
	.align	2
.L87:
	.word	timestamp_func
	.cfi_endproc
.LFE524:
	.size	log_set_timestamp_func, .-log_set_timestamp_func
	.section	.rodata.unordered_notify.str1.1,"aMS",%progbits,1
.LC1:
	.ascii	"%d unordered messages since last report\000"
	.section	.text.unordered_notify,"ax",%progbits
	.align	1
	.global	unordered_notify
	.syntax unified
	.thumb
	.thumb_func
	.type	unordered_notify, %function
unordered_notify:
.LFB529:
	.loc 1 474 1 is_stmt 1 view -0
	.cfi_startproc
	@ args = 0, pretend = 0, frame = 0
	@ frame_needed = 1, uses_anonymous_args = 0
	.loc 1 475 2 view .LVU296
.LVL75:
.LBB264:
.LBI264:
	.loc 6 197 28 view .LVU297
.LBB265:
	.loc 6 203 2 view .LVU298
.LBE265:
.LBE264:
	.loc 1 474 1 is_stmt 0 view .LVU299
	push	{r7, lr}
	.cfi_def_cfa_offset 8
	.cfi_offset 7, -8
	.cfi_offset 14, -4
.LBB268:
.LBB266:
	.loc 6 203 9 view .LVU300
	ldr	r2, .L91
	dmb	ish
.LBE266:
.LBE268:
	.loc 1 474 1 view .LVU301
	add	r7, sp, #0
	.cfi_def_cfa_register 7
.LBB269:
.LBB267:
	.loc 6 203 9 view .LVU302
	movs	r3, #0
.L90:
	ldrex	r1, [r2]
	strex	r0, r3, [r2]
	cmp	r0, #0
	bne	.L90
	dmb	ish
.LVL76:
	.loc 6 203 9 view .LVU303
.LBE267:
.LBE269:
	.loc 1 477 2 is_stmt 1 view .LVU304
.LBB270:
	.loc 1 477 7 view .LVU305
	.loc 1 477 56 view .LVU306
	.loc 1 477 13 view .LVU307
	.loc 1 477 1 view .LVU308
	.loc 1 477 40 view .LVU309
	.loc 1 477 175 view .LVU310
	.loc 1 477 186 view .LVU311
	.loc 1 477 274 view .LVU312
.LBB271:
	.loc 1 477 2 view .LVU313
	.loc 1 477 4 view .LVU314
	.loc 1 477 2 view .LVU315
.LBB272:
	.loc 1 477 7 view .LVU316
	.loc 1 477 1 view .LVU317
.LBE272:
.LBE271:
.LBE270:
	.loc 1 477 2 view .LVU318
	.loc 1 477 11 view .LVU319
	.loc 1 477 106 view .LVU320
	.loc 1 477 2 view .LVU321
.LBB289:
.LBB286:
.LBB283:
	.loc 1 477 11 view .LVU322
	.loc 1 477 101 view .LVU323
	.loc 1 477 103 view .LVU324
.LBB273:
	.loc 1 477 108 view .LVU325
	.loc 1 477 119 view .LVU326
	.loc 1 477 208 view .LVU327
	.loc 1 477 25 view .LVU328
.LBE273:
.LBE283:
.LBE286:
.LBE289:
	.loc 1 477 2 view .LVU329
	.loc 1 477 367 view .LVU330
	.loc 1 477 74 view .LVU331
	.loc 1 477 1 view .LVU332
	.loc 1 477 1 view .LVU333
	.loc 1 477 1 view .LVU334
	.loc 1 477 37 view .LVU335
	.loc 1 477 3 view .LVU336
	.loc 1 477 29 view .LVU337
	.loc 1 477 55 view .LVU338
	.loc 1 477 522 view .LVU339
	.loc 1 477 584 view .LVU340
	.loc 1 477 1105 view .LVU341
	.loc 1 477 1170 view .LVU342
	.loc 1 477 1195 view .LVU343
	.loc 1 477 1196 view .LVU344
	.loc 1 477 1198 view .LVU345
	.loc 1 477 1228 view .LVU346
	.loc 1 477 1258 view .LVU347
	.loc 1 477 1290 view .LVU348
	.loc 1 477 1322 view .LVU349
	.loc 1 477 1354 view .LVU350
	.loc 1 477 1551 view .LVU351
	.loc 1 477 1575 view .LVU352
	.loc 1 477 1576 view .LVU353
	.loc 1 477 1578 view .LVU354
	.loc 1 477 1607 view .LVU355
	.loc 1 477 1636 view .LVU356
	.loc 1 477 1667 view .LVU357
	.loc 1 477 1698 view .LVU358
	.loc 1 477 1729 view .LVU359
	.loc 1 477 1936 view .LVU360
	.loc 1 477 3 view .LVU361
	.loc 1 477 21 view .LVU362
	.loc 1 477 41 view .LVU363
	.loc 1 477 3 view .LVU364
	.loc 1 477 41 view .LVU365
	.loc 1 477 12 view .LVU366
	.loc 1 477 12 view .LVU367
	.loc 1 477 60 view .LVU368
	.loc 1 477 91 view .LVU369
	.loc 1 477 125 view .LVU370
	.loc 1 477 130 view .LVU371
	.loc 1 477 393 view .LVU372
	.loc 1 477 1498 view .LVU373
	.loc 1 477 1563 view .LVU374
	.loc 1 477 1587 view .LVU375
	.loc 1 477 1654 view .LVU376
	.loc 1 477 1665 view .LVU377
	.loc 1 477 1790 view .LVU378
	.loc 1 477 1806 view .LVU379
	.loc 1 477 1846 view .LVU380
	.loc 1 477 1871 view .LVU381
	.loc 1 477 3186 view .LVU382
	.loc 1 477 3227 view .LVU383
	.loc 1 477 6 view .LVU384
	.loc 1 477 29 view .LVU385
	.loc 1 477 128 view .LVU386
	.loc 1 477 5 view .LVU387
	.loc 1 477 10 view .LVU388
	.loc 1 477 235 view .LVU389
	.loc 1 477 1188 view .LVU390
	.loc 1 477 1253 view .LVU391
	.loc 1 477 1277 view .LVU392
	.loc 1 477 1306 view .LVU393
	.loc 1 477 1317 view .LVU394
	.loc 1 477 1404 view .LVU395
	.loc 1 477 1420 view .LVU396
	.loc 1 477 1460 view .LVU397
	.loc 1 477 2724 view .LVU398
	.loc 1 477 2765 view .LVU399
	.loc 1 477 6 view .LVU400
	.loc 1 477 29 view .LVU401
	.loc 1 477 8 view .LVU402
	.loc 1 477 4 view .LVU403
	.loc 1 477 27 view .LVU404
	.loc 1 477 51 view .LVU405
	.loc 1 477 79 view .LVU406
	.loc 1 477 255 view .LVU407
	.loc 1 477 15 view .LVU408
.LBB290:
.LBB287:
.LBB284:
.LBB281:
	.loc 1 477 28 view .LVU409
	.loc 1 477 2 view .LVU410
	.loc 1 477 2 view .LVU411
	.loc 1 477 69 view .LVU412
	.loc 1 477 81 is_stmt 0 view .LVU413
	sub	sp, sp, #32
	mov	r2, sp
.LVL77:
	.loc 1 477 73 is_stmt 1 view .LVU414
	.loc 1 477 483 view .LVU415
	.loc 1 477 4 view .LVU416
	.loc 1 477 6 view .LVU417
	.loc 1 477 11 view .LVU418
	.loc 1 477 9 view .LVU419
	.loc 1 477 4 view .LVU420
	.loc 1 477 22 view .LVU421
.LBB274:
	.loc 1 477 2 view .LVU422
	.loc 1 477 367 view .LVU423
	.loc 1 477 74 view .LVU424
.LVL78:
	.loc 1 477 1 view .LVU425
	.loc 1 477 1 view .LVU426
	.loc 1 477 1 view .LVU427
	.loc 1 477 37 view .LVU428
	.loc 1 477 66 view .LVU429
	.loc 1 477 92 view .LVU430
	.loc 1 477 118 view .LVU431
	.loc 1 477 585 view .LVU432
	.loc 1 477 647 view .LVU433
	.loc 1 477 1168 view .LVU434
	.loc 1 477 1233 view .LVU435
	.loc 1 477 1258 view .LVU436
	.loc 1 477 1259 view .LVU437
	.loc 1 477 1261 view .LVU438
	.loc 1 477 1291 view .LVU439
	.loc 1 477 1321 view .LVU440
	.loc 1 477 1353 view .LVU441
	.loc 1 477 1385 view .LVU442
	.loc 1 477 1417 view .LVU443
	.loc 1 477 1614 view .LVU444
	.loc 1 477 1638 view .LVU445
	.loc 1 477 1639 view .LVU446
	.loc 1 477 1641 view .LVU447
	.loc 1 477 1670 view .LVU448
	.loc 1 477 1699 view .LVU449
	.loc 1 477 1730 view .LVU450
	.loc 1 477 1761 view .LVU451
	.loc 1 477 1792 view .LVU452
	.loc 1 477 1999 view .LVU453
.LBB275:
	.loc 1 477 3224 view .LVU454
	.loc 1 477 3229 view .LVU455
	.loc 1 477 3901 view .LVU456
	.loc 1 477 0 is_stmt 0 view .LVU457
	ldr	r0, .L91+4
.LBE275:
.LBB276:
	.loc 1 477 3810 view .LVU458
	strd	r0, r1, [r2, #20]
	.loc 1 477 2765 is_stmt 1 view .LVU459
	.loc 1 477 6 view .LVU460
.LVL79:
	.loc 1 477 29 view .LVU461
	.loc 1 477 29 is_stmt 0 view .LVU462
.LBE276:
	.loc 1 477 8 is_stmt 1 view .LVU463
	.loc 1 477 4 view .LVU464
	.loc 1 477 27 view .LVU465
	.loc 1 477 51 view .LVU466
	.loc 1 477 79 view .LVU467
.LBE274:
.LBE281:
.LBE284:
.LBE287:
.LBE290:
	.loc 1 477 5 view .LVU468
	.loc 1 477 44 view .LVU469
	.loc 1 477 49 view .LVU470
	.loc 1 477 79 view .LVU471
	.loc 1 477 146 view .LVU472
	.loc 1 477 151 view .LVU473
	.loc 1 477 181 view .LVU474
.LBB291:
.LBB288:
.LBB285:
.LBB282:
.LBB278:
	.loc 1 477 255 view .LVU475
	.loc 1 477 15 view .LVU476
.LBB277:
	.loc 1 477 5 view .LVU477
	.loc 1 477 163 view .LVU478
	.loc 1 477 165 view .LVU479
	.loc 1 477 175 is_stmt 0 view .LVU480
	movs	r1, #3
.LVL80:
	.loc 1 477 175 view .LVU481
	str	r1, [r2, #16]!
.LVL81:
	.loc 1 477 175 view .LVU482
.LBE277:
.LBE278:
	.loc 1 477 25 is_stmt 1 view .LVU483
	.loc 1 477 6 view .LVU484
	.loc 1 477 146 view .LVU485
	.loc 1 477 148 view .LVU486
.LBB279:
.LBI279:
	.loc 8 26 20 view .LVU487
.LBB280:
	.loc 8 38 2 view .LVU488
	.loc 8 38 7 view .LVU489
	.loc 8 38 5 view .LVU490
	.loc 8 39 2 view .LVU491
	ldr	r0, .L91+8
	mov	r1, #6272
	bl	z_impl_z_log_msg_static_create
.LVL82:
	.loc 8 39 2 is_stmt 0 view .LVU492
.LBE280:
.LBE279:
.LBE282:
	.loc 1 477 106 is_stmt 1 view .LVU493
	.loc 1 477 4 view .LVU494
	.loc 1 477 41 view .LVU495
.LBE285:
	.loc 1 477 5 view .LVU496
.LBE288:
	.loc 1 477 277 view .LVU497
	.loc 1 477 4 view .LVU498
	.loc 1 477 17 view .LVU499
.LBE291:
	.loc 1 477 5 view .LVU500
	.loc 1 478 1 is_stmt 0 view .LVU501
	mov	sp, r7
	.cfi_def_cfa_register 13
.LVL83:
	.loc 1 478 1 view .LVU502
	@ sp needed
	pop	{r7, pc}
.LVL84:
.L92:
	.loc 1 478 1 view .LVU503
	.align	2
.L91:
	.word	unordered_cnt
	.word	.LC1
	.word	log_const_log
	.cfi_endproc
.LFE529:
	.size	unordered_notify, .-unordered_notify
	.section	.text.z_log_notify_backend_enabled,"ax",%progbits
	.align	1
	.global	z_log_notify_backend_enabled
	.syntax unified
	.thumb
	.thumb_func
	.type	z_log_notify_backend_enabled, %function
z_log_notify_backend_enabled:
.LFB530:
	.loc 1 481 1 is_stmt 1 view -0
	.cfi_startproc
	@ args = 0, pretend = 0, frame = 0
	@ frame_needed = 0, uses_anonymous_args = 0
	.loc 1 485 2 view .LVU505
	.loc 1 481 1 is_stmt 0 view .LVU506
	push	{r4, lr}
	.cfi_def_cfa_offset 8
	.cfi_offset 4, -8
	.cfi_offset 14, -4
	.loc 1 485 11 view .LVU507
	ldr	r4, .L95
	.loc 1 485 5 view .LVU508
	ldrb	r3, [r4]	@ zero_extendqisi2
	cbnz	r3, .L94
	.loc 1 486 3 is_stmt 1 view .LVU509
.LBB294:
.LBI294:
	.loc 7 1110 20 view .LVU510
.LVL85:
.LBB295:
	.loc 7 1119 2 view .LVU511
	.loc 7 1119 7 view .LVU512
	.loc 7 1119 5 view .LVU513
	.loc 7 1120 2 view .LVU514
	ldr	r0, .L95+4
	bl	z_impl_k_sem_give
.LVL86:
.L94:
	.loc 7 1120 2 is_stmt 0 view .LVU515
.LBE295:
.LBE294:
	.loc 1 489 2 is_stmt 1 view .LVU516
	.loc 1 489 19 is_stmt 0 view .LVU517
	movs	r3, #1
	strb	r3, [r4]
	.loc 1 490 1 view .LVU518
	pop	{r4, pc}
.L96:
	.align	2
.L95:
	.word	backend_attached
	.word	log_process_thread_sem
	.cfi_endproc
.LFE530:
	.size	z_log_notify_backend_enabled, .-z_log_notify_backend_enabled
	.section	.text.z_impl_log_buffered_cnt,"ax",%progbits
	.align	1
	.global	z_impl_log_buffered_cnt
	.syntax unified
	.thumb
	.thumb_func
	.type	z_impl_log_buffered_cnt, %function
z_impl_log_buffered_cnt:
.LFB533:
	.loc 1 556 1 is_stmt 1 view -0
	.cfi_startproc
	@ args = 0, pretend = 0, frame = 0
	@ frame_needed = 0, uses_anonymous_args = 0
	@ link register save eliminated.
	.loc 1 557 2 view .LVU520
	.loc 1 558 1 is_stmt 0 view .LVU521
	ldr	r3, .L98
	ldr	r0, [r3]
	bx	lr
.L99:
	.align	2
.L98:
	.word	buffered_cnt
	.cfi_endproc
.LFE533:
	.size	z_impl_log_buffered_cnt, .-z_impl_log_buffered_cnt
	.section	.text.z_log_dropped,"ax",%progbits
	.align	1
	.global	z_log_dropped
	.syntax unified
	.thumb
	.thumb_func
	.type	z_log_dropped, %function
z_log_dropped:
.LVL87:
.LFB534:
	.loc 1 569 1 is_stmt 1 view -0
	.cfi_startproc
	@ args = 0, pretend = 0, frame = 0
	@ frame_needed = 0, uses_anonymous_args = 0
	.loc 1 570 2 view .LVU523
	.loc 1 569 1 is_stmt 0 view .LVU524
	push	{r4, lr}
	.cfi_def_cfa_offset 8
	.cfi_offset 4, -8
	.cfi_offset 14, -4
	.loc 1 569 1 view .LVU525
	mov	r4, r0
	.loc 1 570 2 view .LVU526
	ldr	r0, .L106
.LVL88:
	.loc 1 570 2 view .LVU527
	bl	atomic_inc
.LVL89:
	.loc 1 571 2 is_stmt 1 view .LVU528
	.loc 1 571 5 is_stmt 0 view .LVU529
	cbz	r4, .L100
.LBB302:
.LBI302:
	.loc 1 568 6 is_stmt 1 view .LVU530
.LVL90:
	.loc 1 572 3 view .LVU531
.LBB303:
.LBI303:
	.loc 6 141 28 view .LVU532
	.loc 6 143 2 view .LVU533
.LBB304:
.LBI304:
	.loc 6 105 28 view .LVU534
.LBB305:
	.loc 6 107 2 view .LVU535
	.loc 6 107 9 is_stmt 0 view .LVU536
	dmb	ish
	ldr	r3, .L106+4
.L105:
	ldrex	r1, [r3]
	subs	r1, r1, #1
	strex	r2, r1, [r3]
	cmp	r2, #0
	bne	.L105
	dmb	ish
.LVL91:
.L100:
	.loc 6 107 9 view .LVU537
.LBE305:
.LBE304:
.LBE303:
.LBE302:
	.loc 1 574 1 view .LVU538
	pop	{r4, pc}
.L107:
	.align	2
.L106:
	.word	dropped_cnt
	.word	buffered_cnt
	.cfi_endproc
.LFE534:
	.size	z_log_dropped, .-z_log_dropped
	.section	.text.z_log_notify_drop,"ax",%progbits
	.align	1
	.syntax unified
	.thumb
	.thumb_func
	.type	z_log_notify_drop, %function
z_log_notify_drop:
.LVL92:
.LFB487:
	.file 9 "/home/g/mise-work/zmk-firmware/zmk/zephyr/include/zephyr/logging/log_internal.h"
	.loc 9 137 1 is_stmt 1 view -0
	.cfi_startproc
	@ args = 0, pretend = 0, frame = 0
	@ frame_needed = 0, uses_anonymous_args = 0
	@ link register save eliminated.
	.loc 9 138 2 view .LVU540
	.loc 9 139 2 view .LVU541
	.loc 9 141 2 view .LVU542
	movs	r0, #1
.LVL93:
	.loc 9 141 2 is_stmt 0 view .LVU543
	b	z_log_dropped
.LVL94:
	.loc 9 141 2 view .LVU544
	.cfi_endproc
.LFE487:
	.size	z_log_notify_drop, .-z_log_notify_drop
	.section	.text.z_log_dropped_read_and_clear,"ax",%progbits
	.align	1
	.global	z_log_dropped_read_and_clear
	.syntax unified
	.thumb
	.thumb_func
	.type	z_log_dropped_read_and_clear, %function
z_log_dropped_read_and_clear:
.LFB535:
	.loc 1 577 1 is_stmt 1 view -0
	.cfi_startproc
	@ args = 0, pretend = 0, frame = 0
	@ frame_needed = 0, uses_anonymous_args = 0
	@ link register save eliminated.
	.loc 1 578 2 view .LVU546
.LVL95:
.LBB308:
.LBI308:
	.loc 6 197 28 view .LVU547
.LBB309:
	.loc 6 203 2 view .LVU548
	.loc 6 203 2 is_stmt 0 view .LVU549
.LBE309:
.LBE308:
	.loc 1 579 1 view .LVU550
	movs	r0, #0
.LBB311:
.LBB310:
	.loc 6 203 9 view .LVU551
	ldr	r3, .L111
.LBE310:
.LBE311:
	.loc 1 579 1 view .LVU552
	dmb	ish
	mov	r1, r0
.L110:
	ldrex	r0, [r3]
	strex	r2, r1, [r3]
	cmp	r2, #0
	bne	.L110
	dmb	ish
	bx	lr
.L112:
	.align	2
.L111:
	.word	dropped_cnt
	.cfi_endproc
.LFE535:
	.size	z_log_dropped_read_and_clear, .-z_log_dropped_read_and_clear
	.section	.text.dropped_notify,"ax",%progbits
	.align	1
	.global	dropped_notify
	.syntax unified
	.thumb
	.thumb_func
	.type	dropped_notify, %function
dropped_notify:
.LFB528:
	.loc 1 463 1 is_stmt 1 view -0
	.cfi_startproc
	@ args = 0, pretend = 0, frame = 0
	@ frame_needed = 0, uses_anonymous_args = 0
	.loc 1 464 2 view .LVU554
	.loc 1 463 1 is_stmt 0 view .LVU555
	push	{r4, r5, r6, lr}
	.cfi_def_cfa_offset 16
	.cfi_offset 4, -16
	.cfi_offset 5, -12
	.cfi_offset 6, -8
	.cfi_offset 14, -4
	.loc 1 464 21 view .LVU556
	bl	z_log_dropped_read_and_clear
.LVL96:
.LBB317:
	.loc 1 466 132 view .LVU557
	ldr	r4, .L123
	.loc 1 466 167 view .LVU558
	ldr	r6, .L123+4
.LBE317:
	.loc 1 464 21 view .LVU559
	mov	r5, r0
.LVL97:
	.loc 1 466 2 is_stmt 1 view .LVU560
	.loc 1 466 55 view .LVU561
	.loc 1 466 106 view .LVU562
.LBB322:
	.loc 1 466 111 view .LVU563
.L114:
	.loc 1 466 167 discriminator 1 view .LVU564
.LBE322:
	.loc 1 466 172 discriminator 1 view .LVU565
	.loc 1 466 173 discriminator 1 view .LVU566
	.loc 1 466 175 discriminator 1 view .LVU567
.LBB323:
	.loc 1 466 167 is_stmt 0 discriminator 1 view .LVU568
	cmp	r4, r6
	bcc	.L116
.LBE323:
	.loc 1 471 1 view .LVU569
	pop	{r4, r5, r6, pc}
.LVL98:
.L116:
.LBB324:
	.loc 1 467 3 is_stmt 1 view .LVU570
.LBB318:
.LBI318:
	.loc 5 304 19 view .LVU571
.LBB319:
	.loc 5 307 4 view .LVU572
	.loc 5 307 5 view .LVU573
	.loc 5 308 2 view .LVU574
	.loc 5 308 20 is_stmt 0 view .LVU575
	ldr	r3, [r4, #4]
.LBE319:
.LBE318:
	.loc 1 467 6 view .LVU576
	ldrb	r3, [r3, #5]	@ zero_extendqisi2
	cbz	r3, .L115
	.loc 1 468 4 is_stmt 1 view .LVU577
.LVL99:
.LBB320:
.LBI320:
	.loc 5 191 20 view .LVU578
.LBB321:
	.loc 5 194 4 view .LVU579
	.loc 5 194 5 view .LVU580
	.loc 5 196 2 view .LVU581
	.loc 5 196 18 is_stmt 0 view .LVU582
	ldr	r3, [r4]
	ldr	r3, [r3, #4]
	.loc 5 196 5 view .LVU583
	cbz	r3, .L115
	.loc 5 197 3 is_stmt 1 view .LVU584
	mov	r1, r5
	mov	r0, r4
	blx	r3
.LVL100:
.L115:
	.loc 5 197 3 is_stmt 0 view .LVU585
.LBE321:
.LBE320:
	.loc 1 466 219 is_stmt 1 discriminator 2 view .LVU586
	adds	r4, r4, #16
.LVL101:
	.loc 1 466 219 is_stmt 0 discriminator 2 view .LVU587
	b	.L114
.L124:
	.align	2
.L123:
	.word	_log_backend_list_start
	.word	_log_backend_list_end
.LBE324:
	.cfi_endproc
.LFE528:
	.size	dropped_notify, .-dropped_notify
	.section	.text.z_log_dropped_pending,"ax",%progbits
	.align	1
	.global	z_log_dropped_pending
	.syntax unified
	.thumb
	.thumb_func
	.type	z_log_dropped_pending, %function
z_log_dropped_pending:
.LFB536:
	.loc 1 582 1 is_stmt 1 view -0
	.cfi_startproc
	@ args = 0, pretend = 0, frame = 0
	@ frame_needed = 0, uses_anonymous_args = 0
	@ link register save eliminated.
	.loc 1 583 2 view .LVU589
	.loc 1 583 21 is_stmt 0 view .LVU590
	ldr	r3, .L126
	ldr	r0, [r3]
	.loc 1 584 1 view .LVU591
	cmp	r0, #0
	ite	le
	movle	r0, #0
	movgt	r0, #1
	bx	lr
.L127:
	.align	2
.L126:
	.word	dropped_cnt
	.cfi_endproc
.LFE536:
	.size	z_log_dropped_pending, .-z_log_dropped_pending
	.section	.text.z_log_msg_init,"ax",%progbits
	.align	1
	.global	z_log_msg_init
	.syntax unified
	.thumb
	.thumb_func
	.type	z_log_msg_init, %function
z_log_msg_init:
.LFB537:
	.loc 1 587 1 is_stmt 1 view -0
	.cfi_startproc
	@ args = 0, pretend = 0, frame = 0
	@ frame_needed = 0, uses_anonymous_args = 0
	.loc 1 589 2 view .LVU593
	.loc 1 587 1 is_stmt 0 view .LVU594
	push	{r4, lr}
	.cfi_def_cfa_offset 8
	.cfi_offset 4, -8
	.cfi_offset 14, -4
	.loc 1 589 2 view .LVU595
	ldr	r4, .L129
	ldr	r1, .L129+4
	mov	r0, r4
	bl	mpsc_pbuf_init
.LVL102:
	.loc 1 590 2 is_stmt 1 view .LVU596
	.loc 1 590 18 is_stmt 0 view .LVU597
	ldr	r3, .L129+8
	str	r4, [r3]
	.loc 1 592 1 view .LVU598
	pop	{r4, pc}
.L130:
	.align	2
.L129:
	.word	log_buffer
	.word	mpsc_config
	.word	curr_log_buffer
	.cfi_endproc
.LFE537:
	.size	z_log_msg_init, .-z_log_msg_init
	.section	.text.log_core_init,"ax",%progbits
	.align	1
	.global	log_core_init
	.syntax unified
	.thumb
	.thumb_func
	.type	log_core_init, %function
log_core_init:
.LFB518:
	.loc 1 224 1 is_stmt 1 view -0
	.cfi_startproc
	@ args = 0, pretend = 0, frame = 0
	@ frame_needed = 0, uses_anonymous_args = 0
	.loc 1 225 2 view .LVU600
	.loc 1 225 13 is_stmt 0 view .LVU601
	ldr	r2, .L132
.LBB325:
	.loc 1 242 3 view .LVU602
	ldr	r0, .L132+4
.LBE325:
	.loc 1 224 1 view .LVU603
	push	{r3, lr}
	.cfi_def_cfa_offset 8
	.cfi_offset 3, -8
	.cfi_offset 14, -4
	.loc 1 225 13 view .LVU604
	movs	r3, #0
	strb	r3, [r2]
	.loc 1 226 2 is_stmt 1 view .LVU605
	.loc 1 226 14 is_stmt 0 view .LVU606
	ldr	r2, .L132+8
	str	r3, [r2]
	.loc 1 227 2 is_stmt 1 view .LVU607
	.loc 1 227 15 is_stmt 0 view .LVU608
	ldr	r2, .L132+12
.LBB326:
	.loc 1 242 3 view .LVU609
	mov	r1, #32768
.LBE326:
	.loc 1 227 15 view .LVU610
	str	r3, [r2]
	.loc 1 229 2 is_stmt 1 view .LVU611
	.loc 1 237 2 view .LVU612
.LBB327:
	.loc 1 240 3 view .LVU613
.LVL103:
	.loc 1 242 3 view .LVU614
	bl	log_set_timestamp_func
.LVL104:
.LBE327:
	.loc 1 245 2 view .LVU615
	.loc 1 246 3 view .LVU616
	.loc 1 252 1 is_stmt 0 view .LVU617
	pop	{r3, lr}
	.cfi_restore 14
	.cfi_restore 3
	.cfi_def_cfa_offset 0
	.loc 1 246 3 view .LVU618
	b	z_log_msg_init
.LVL105:
.L133:
	.align	2
.L132:
	.word	panic_mode
	.word	default_get_timestamp
	.word	dropped_cnt
	.word	buffered_cnt
	.cfi_endproc
.LFE518:
	.size	log_core_init, .-log_core_init
	.section	.text.z_log_msg_alloc,"ax",%progbits
	.align	1
	.global	z_log_msg_alloc
	.syntax unified
	.thumb
	.thumb_func
	.type	z_log_msg_alloc, %function
z_log_msg_alloc:
.LVL106:
.LFB539:
	.loc 1 608 1 is_stmt 1 view -0
	.cfi_startproc
	@ args = 0, pretend = 0, frame = 0
	@ frame_needed = 0, uses_anonymous_args = 0
	@ link register save eliminated.
	.loc 1 609 2 view .LVU620
	.loc 1 608 1 is_stmt 0 view .LVU621
	mov	r1, r0
.LVL107:
.LBB330:
.LBI330:
	.loc 1 594 24 is_stmt 1 view .LVU622
.LBB331:
	.loc 1 596 2 view .LVU623
	.loc 1 600 2 view .LVU624
	.loc 1 600 27 is_stmt 0 view .LVU625
	movs	r2, #0
	ldr	r0, .L135
.LVL108:
	.loc 1 600 27 view .LVU626
	movs	r3, #0
	b	mpsc_pbuf_alloc
.LVL109:
.L136:
	.loc 1 600 27 view .LVU627
	.align	2
.L135:
	.word	log_buffer
.LBE331:
.LBE330:
	.cfi_endproc
.LFE539:
	.size	z_log_msg_alloc, .-z_log_msg_alloc
	.section	.text.z_log_msg_local_claim,"ax",%progbits
	.align	1
	.global	z_log_msg_local_claim
	.syntax unified
	.thumb
	.thumb_func
	.type	z_log_msg_local_claim, %function
z_log_msg_local_claim:
.LFB542:
	.loc 1 635 1 is_stmt 1 view -0
	.cfi_startproc
	@ args = 0, pretend = 0, frame = 0
	@ frame_needed = 0, uses_anonymous_args = 0
	@ link register save eliminated.
	.loc 1 637 2 view .LVU629
	.loc 1 637 34 is_stmt 0 view .LVU630
	ldr	r0, .L138
	b	mpsc_pbuf_claim
.LVL110:
.L139:
	.align	2
.L138:
	.word	log_buffer
	.cfi_endproc
.LFE542:
	.size	z_log_msg_local_claim, .-z_log_msg_local_claim
	.section	.text.z_log_msg_claim_oldest,"ax",%progbits
	.align	1
	.global	z_log_msg_claim_oldest
	.syntax unified
	.thumb
	.thumb_func
	.type	z_log_msg_claim_oldest, %function
z_log_msg_claim_oldest:
.LVL111:
.LFB543:
	.loc 1 646 1 is_stmt 1 view -0
	.cfi_startproc
	@ args = 0, pretend = 0, frame = 0
	@ frame_needed = 0, uses_anonymous_args = 0
	.loc 1 647 2 view .LVU632
	.loc 1 648 2 view .LVU633
	.loc 1 649 2 view .LVU634
	.loc 1 651 2 view .LVU635
	.loc 1 654 2 view .LVU636
	.loc 1 654 55 view .LVU637
	.loc 1 654 106 view .LVU638
.LBB332:
	.loc 1 654 111 view .LVU639
	.loc 1 654 111 is_stmt 0 view .LVU640
.LBE332:
	.loc 1 646 1 view .LVU641
	push	{r3, r4, r5, r6, r7, r8, r9, r10, fp, lr}
	.cfi_def_cfa_offset 40
	.cfi_offset 3, -40
	.cfi_offset 4, -36
	.cfi_offset 5, -32
	.cfi_offset 6, -28
	.cfi_offset 7, -24
	.cfi_offset 8, -20
	.cfi_offset 9, -16
	.cfi_offset 10, -12
	.cfi_offset 11, -8
	.cfi_offset 14, -4
	ldr	r4, .L153
	ldr	r6, .L153+4
.LBB340:
	.loc 1 654 167 view .LVU642
	ldr	r9, .L153+16
.LBB333:
.LBB334:
	.loc 1 672 21 view .LVU643
	ldr	fp, .L153+20
.LBE334:
.LBE333:
.LBE340:
	.loc 1 649 18 view .LVU644
	mov	r5, #-1
	.loc 1 647 25 view .LVU645
	movs	r7, #0
.LVL112:
.L141:
.LBB341:
	.loc 1 654 167 discriminator 1 view .LVU646
	cmp	r4, r9
	mov	r10, r4
.LVL113:
	.loc 1 654 167 is_stmt 1 discriminator 1 view .LVU647
.LBE341:
	.loc 1 654 172 discriminator 1 view .LVU648
	.loc 1 654 173 discriminator 1 view .LVU649
	.loc 1 654 175 discriminator 1 view .LVU650
.LBB342:
	.loc 1 654 167 is_stmt 0 discriminator 1 view .LVU651
	bcc	.L144
.LBE342:
	.loc 1 678 2 is_stmt 1 view .LVU652
	.loc 1 678 5 is_stmt 0 view .LVU653
	cbz	r7, .L145
	.loc 1 679 3 is_stmt 1 view .LVU654
	.loc 1 699 3 view .LVU655
	.loc 1 699 17 is_stmt 0 view .LVU656
	movs	r3, #0
	str	r3, [r8]
.L145:
	.loc 1 702 2 is_stmt 1 view .LVU657
	.loc 1 702 12 is_stmt 0 view .LVU658
	ldr	r4, .L153+8
.LVL114:
	.loc 1 702 5 view .LVU659
	ldr	r3, [r4]
	cmp	r5, r3
	bcs	.L146
	.loc 1 703 3 is_stmt 1 view .LVU660
	ldr	r0, .L153+12
	bl	atomic_inc
.LVL115:
.L146:
	.loc 1 706 2 view .LVU661
	.loc 1 706 17 is_stmt 0 view .LVU662
	str	r5, [r4]
	.loc 1 708 2 is_stmt 1 view .LVU663
	.loc 1 709 1 is_stmt 0 view .LVU664
	mov	r0, r7
	pop	{r3, r4, r5, r6, r7, r8, r9, r10, fp, pc}
.LVL116:
.L144:
.LBB343:
.LBB338:
	.loc 1 655 3 is_stmt 1 view .LVU665
	.loc 1 657 3 view .LVU666
.LBE338:
.LBE343:
	.loc 1 657 8 view .LVU667
	.loc 1 657 65 view .LVU668
.LBB344:
.LBB339:
	.loc 1 657 6 view .LVU669
	.loc 1 660 3 view .LVU670
	.loc 1 660 6 is_stmt 0 view .LVU671
	ldr	r3, [r4]
	cbnz	r3, .L142
	.loc 1 661 4 is_stmt 1 view .LVU672
	.loc 1 661 44 is_stmt 0 view .LVU673
	mov	r0, r6
	bl	mpsc_pbuf_claim
.LVL117:
	.loc 1 661 17 view .LVU674
	str	r0, [r4]
.L142:
	.loc 1 665 3 is_stmt 1 view .LVU675
	.loc 1 665 14 is_stmt 0 view .LVU676
	ldr	r3, [r4], #4
.LVL118:
	.loc 1 665 6 view .LVU677
	cbz	r3, .L143
.LBB337:
	.loc 1 666 4 is_stmt 1 view .LVU678
.LVL119:
.LBB335:
.LBI335:
	.loc 2 656 31 view .LVU679
.LBB336:
	.loc 2 658 2 view .LVU680
	.loc 2 658 17 is_stmt 0 view .LVU681
	ldr	r2, [r3, #8]
.LVL120:
	.loc 2 658 17 view .LVU682
.LBE336:
.LBE335:
	.loc 1 668 4 is_stmt 1 view .LVU683
	.loc 1 668 7 is_stmt 0 view .LVU684
	cmp	r5, r2
	.loc 1 669 5 is_stmt 1 view .LVU685
.LVL121:
	.loc 1 670 5 view .LVU686
	.loc 1 671 5 view .LVU687
	.loc 1 672 5 view .LVU688
	.loc 1 672 21 is_stmt 0 view .LVU689
	itttt	hi
	strhi	r6, [fp]
	movhi	r5, r2
	movhi	r8, r10
	movhi	r7, r3
.LVL122:
.L143:
	.loc 1 672 21 view .LVU690
.LBE337:
	.loc 1 675 3 is_stmt 1 discriminator 2 view .LVU691
.LBE339:
	.loc 1 654 219 discriminator 2 view .LVU692
	.loc 1 654 219 is_stmt 0 discriminator 2 view .LVU693
	adds	r6, r6, #64
	b	.L141
.L154:
	.align	2
.L153:
	.word	_log_msg_ptr_list_start
	.word	_log_mpsc_pbuf_list_start
	.word	prev_timestamp
	.word	unordered_cnt
	.word	_log_msg_ptr_list_end
	.word	curr_log_buffer
.LBE344:
	.cfi_endproc
.LFE543:
	.size	z_log_msg_claim_oldest, .-z_log_msg_claim_oldest
	.section	.text.z_log_msg_claim,"ax",%progbits
	.align	1
	.global	z_log_msg_claim
	.syntax unified
	.thumb
	.thumb_func
	.type	z_log_msg_claim, %function
z_log_msg_claim:
.LVL123:
.LFB544:
	.loc 1 712 1 is_stmt 1 view -0
	.cfi_startproc
	@ args = 0, pretend = 0, frame = 0
	@ frame_needed = 0, uses_anonymous_args = 0
	@ link register save eliminated.
	.loc 1 713 2 view .LVU695
	.loc 1 715 2 view .LVU696
	.loc 1 715 7 view .LVU697
	.loc 1 715 64 view .LVU698
	.loc 1 715 119 view .LVU699
	.loc 1 715 5 view .LVU700
	.loc 1 715 249 view .LVU701
	.loc 1 718 2 view .LVU702
	.loc 1 722 2 view .LVU703
	.loc 1 722 9 is_stmt 0 view .LVU704
	b	z_log_msg_local_claim
.LVL124:
	.loc 1 722 9 view .LVU705
	.cfi_endproc
.LFE544:
	.size	z_log_msg_claim, .-z_log_msg_claim
	.section	.text.z_log_msg_free,"ax",%progbits
	.align	1
	.global	z_log_msg_free
	.syntax unified
	.thumb
	.thumb_func
	.type	z_log_msg_free, %function
z_log_msg_free:
.LVL125:
.LFB546:
	.loc 1 733 1 is_stmt 1 view -0
	.cfi_startproc
	@ args = 0, pretend = 0, frame = 0
	@ frame_needed = 0, uses_anonymous_args = 0
	@ link register save eliminated.
	.loc 1 734 2 view .LVU707
.LBB345:
.LBB346:
	.loc 1 728 2 is_stmt 0 view .LVU708
	ldr	r3, .L157
	.loc 1 728 2 view .LVU709
.LBE346:
.LBE345:
	.loc 1 733 1 view .LVU710
	mov	r1, r0
.LVL126:
.LBB348:
.LBI345:
	.loc 1 725 13 is_stmt 1 view .LVU711
.LBB347:
	.loc 1 728 2 view .LVU712
	ldr	r0, [r3]
.LVL127:
	.loc 1 728 2 is_stmt 0 view .LVU713
	b	mpsc_pbuf_free
.LVL128:
.L158:
	.loc 1 728 2 view .LVU714
	.align	2
.L157:
	.word	curr_log_buffer
.LBE347:
.LBE348:
	.cfi_endproc
.LFE546:
	.size	z_log_msg_free, .-z_log_msg_free
	.section	.text.z_log_msg_pending,"ax",%progbits
	.align	1
	.global	z_log_msg_pending
	.syntax unified
	.thumb
	.thumb_func
	.type	z_log_msg_pending, %function
z_log_msg_pending:
.LFB548:
	.loc 1 747 1 is_stmt 1 view -0
	.cfi_startproc
	@ args = 0, pretend = 0, frame = 0
	@ frame_needed = 0, uses_anonymous_args = 0
	@ link register save eliminated.
	.loc 1 748 2 view .LVU716
	.loc 1 749 2 view .LVU717
.LVL129:
	.loc 1 751 2 view .LVU718
	.loc 1 751 7 view .LVU719
	.loc 1 751 64 view .LVU720
	.loc 1 751 119 view .LVU721
	.loc 1 751 5 view .LVU722
	.loc 1 751 249 view .LVU723
	.loc 1 753 2 view .LVU724
	.loc 1 754 3 view .LVU725
.LBB349:
.LBI349:
	.loc 1 737 12 view .LVU726
.LBB350:
	.loc 1 740 2 view .LVU727
	.loc 1 740 9 is_stmt 0 view .LVU728
	ldr	r0, .L160
	b	mpsc_pbuf_is_pending
.LVL130:
.L161:
	.align	2
.L160:
	.word	log_buffer
.LBE350:
.LBE349:
	.cfi_endproc
.LFE548:
	.size	z_log_msg_pending, .-z_log_msg_pending
	.section	.text.z_impl_log_process,"ax",%progbits
	.align	1
	.global	z_impl_log_process
	.syntax unified
	.thumb
	.thumb_func
	.type	z_impl_log_process, %function
z_impl_log_process:
.LFB532:
	.loc 1 498 1 is_stmt 1 view -0
	.cfi_startproc
	@ args = 0, pretend = 0, frame = 0
	@ frame_needed = 0, uses_anonymous_args = 0
	.loc 1 499 2 view .LVU730
	.loc 1 503 2 view .LVU731
.LVL131:
	.loc 1 504 2 view .LVU732
	.loc 1 506 2 view .LVU733
	.loc 1 498 1 is_stmt 0 view .LVU734
	push	{r4, r5, r6, lr}
	.cfi_def_cfa_offset 16
	.cfi_offset 4, -16
	.cfi_offset 5, -12
	.cfi_offset 6, -8
	.cfi_offset 14, -4
	.loc 1 506 6 view .LVU735
	ldr	r3, .L178
	ldrb	r0, [r3]	@ zero_extendqisi2
	.loc 1 506 5 view .LVU736
	cmp	r0, #0
	beq	.L163
.LBB373:
.LBI373:
	.loc 1 497 5 is_stmt 1 view .LVU737
.LBB374:
	.loc 1 510 2 view .LVU738
.LVL132:
.LBB375:
.LBI375:
	.loc 1 711 24 view .LVU739
.LBB376:
	.loc 1 713 2 view .LVU740
	.loc 1 715 2 view .LVU741
	.loc 1 715 5 view .LVU742
	.loc 1 715 249 view .LVU743
	.loc 1 718 2 view .LVU744
	.loc 1 722 2 view .LVU745
	.loc 1 722 9 is_stmt 0 view .LVU746
	bl	z_log_msg_local_claim
.LVL133:
	.loc 1 722 9 view .LVU747
.LBE376:
.LBE375:
	.loc 1 512 2 is_stmt 1 view .LVU748
	.loc 1 512 5 is_stmt 0 view .LVU749
	mov	r5, r0
	cbz	r0, .L164
	.loc 1 513 3 is_stmt 1 view .LVU750
.LBB377:
.LBI377:
	.loc 6 141 28 view .LVU751
.LVL134:
	.loc 6 143 2 view .LVU752
.LBB378:
.LBI378:
	.loc 6 105 28 view .LVU753
.LBB379:
	.loc 6 107 2 view .LVU754
	.loc 6 107 9 is_stmt 0 view .LVU755
	dmb	ish
	ldr	r3, .L178+4
.L177:
	ldrex	r1, [r3]
	subs	r1, r1, #1
	strex	r2, r1, [r3]
	cmp	r2, #0
	bne	.L177
	dmb	ish
.LBE379:
.LBE378:
.LBE377:
.LBB380:
.LBB381:
.LBB382:
	.loc 1 454 132 view .LVU756
	ldr	r4, .L178+8
	.loc 1 454 167 view .LVU757
	ldr	r6, .L178+12
.LVL135:
.L165:
	.loc 1 454 167 is_stmt 1 view .LVU758
	cmp	r4, r6
	bcc	.L167
.LVL136:
	.loc 1 454 167 is_stmt 0 view .LVU759
.LBE382:
.LBE381:
.LBE380:
	.loc 1 515 3 is_stmt 1 view .LVU760
	mov	r0, r5
	bl	z_log_msg_free
.LVL137:
.L164:
	.loc 1 526 2 view .LVU761
.LBB389:
	.loc 1 527 2 view .LVU762
.LBB390:
.LBI390:
	.loc 1 581 5 view .LVU763
.LBB391:
	.loc 1 583 2 view .LVU764
	.loc 1 583 2 is_stmt 0 view .LVU765
.LBE391:
.LBE390:
	.loc 1 528 2 is_stmt 1 view .LVU766
	.loc 1 530 3 view .LVU767
.LBB393:
.LBB392:
	.loc 1 583 21 is_stmt 0 view .LVU768
	ldr	r3, .L178+16
.LVL138:
	.loc 1 583 21 view .LVU769
	ldr	r4, .L178+20
.LBE392:
.LBE393:
	.loc 1 530 6 view .LVU770
	ldr	r3, [r3]
.LVL139:
	.loc 1 530 6 view .LVU771
	cmp	r3, #0
	ble	.L169
.LBB394:
.LBI394:
	.loc 3 1757 23 is_stmt 1 view .LVU772
.LBB395:
	.loc 3 1759 2 view .LVU773
.LBB396:
.LBI396:
	.loc 7 599 23 view .LVU774
.LBB397:
	.loc 7 608 2 view .LVU775
	.loc 7 608 7 view .LVU776
	.loc 7 608 5 view .LVU777
	.loc 7 609 2 view .LVU778
	.loc 7 609 9 is_stmt 0 view .LVU779
	bl	z_impl_k_uptime_ticks
.LVL140:
	.loc 7 609 9 view .LVU780
.LBE397:
.LBE396:
	.loc 3 1759 51 view .LVU781
	mov	r2, #1000
	umull	r0, r3, r0, r2
	mla	r1, r2, r1, r3
	.loc 3 1759 44 view .LVU782
	lsrs	r3, r0, #15
.LBE395:
.LBE394:
	.loc 1 531 22 view .LVU783
	ldrd	r2, r0, [r4]
.LBB400:
.LBB398:
	.loc 3 1759 44 view .LVU784
	orr	r3, r3, r1, lsl #17
.LBE398:
.LBE400:
	.loc 1 531 22 view .LVU785
	subs	r3, r3, r2
.LBB401:
.LBB399:
	.loc 3 1759 44 view .LVU786
	lsr	r1, r1, #15
.LBE399:
.LBE401:
	.loc 1 530 40 view .LVU787
	movw	r2, #1001
	.loc 1 531 22 view .LVU788
	sbc	r1, r1, r0
	.loc 1 530 40 view .LVU789
	cmp	r3, r2
	sbcs	r1, r1, #0
	bcc	.L169
	.loc 1 532 4 is_stmt 1 view .LVU790
	.loc 1 533 5 view .LVU791
	bl	dropped_notify
.LVL141:
	.loc 1 536 4 view .LVU792
.L169:
	.loc 1 541 3 view .LVU793
	.loc 1 541 23 is_stmt 0 view .LVU794
	ldrd	r3, r2, [r4]
	adds	r3, r3, #1000
	adc	r2, r2, #0
	strd	r3, r2, [r4]
.LBE389:
	.loc 1 544 2 is_stmt 1 view .LVU795
.LBE374:
.LBE373:
	.loc 1 545 1 is_stmt 0 view .LVU796
	pop	{r4, r5, r6, lr}
	.cfi_remember_state
	.cfi_restore 14
	.cfi_restore 6
	.cfi_restore 5
	.cfi_restore 4
	.cfi_def_cfa_offset 0
.LVL142:
.LBB404:
.LBB403:
	.loc 1 544 9 view .LVU797
	b	z_log_msg_pending
.LVL143:
.L167:
	.cfi_restore_state
.LBB402:
.LBB388:
.LBB387:
	.loc 1 455 3 is_stmt 1 view .LVU798
.LBB383:
.LBI383:
	.loc 5 304 19 view .LVU799
.LBB384:
	.loc 5 307 4 view .LVU800
	.loc 5 307 5 view .LVU801
	.loc 5 308 2 view .LVU802
	.loc 5 308 20 is_stmt 0 view .LVU803
	ldr	r3, [r4, #4]
.LBE384:
.LBE383:
	.loc 1 455 6 view .LVU804
	ldrb	r3, [r3, #5]	@ zero_extendqisi2
	cbz	r3, .L166
	.loc 1 457 4 is_stmt 1 view .LVU805
.LVL144:
.LBB385:
.LBI385:
	.loc 5 175 20 view .LVU806
.LBB386:
	.loc 5 178 4 view .LVU807
	.loc 5 178 5 view .LVU808
	.loc 5 179 4 view .LVU809
	.loc 5 179 5 view .LVU810
	.loc 5 180 2 view .LVU811
	.loc 5 180 14 is_stmt 0 view .LVU812
	ldr	r3, [r4]
	.loc 5 180 2 view .LVU813
	mov	r1, r5
	ldr	r3, [r3]
	mov	r0, r4
	blx	r3
.LVL145:
.L166:
	.loc 5 180 2 view .LVU814
.LBE386:
.LBE385:
	.loc 1 454 219 is_stmt 1 view .LVU815
	adds	r4, r4, #16
.LVL146:
	.loc 1 454 219 is_stmt 0 view .LVU816
	b	.L165
.LVL147:
.L163:
	.loc 1 454 219 view .LVU817
.LBE387:
.LBE388:
.LBE402:
.LBE403:
.LBE404:
	.loc 1 545 1 discriminator 2 view .LVU818
	pop	{r4, r5, r6, pc}
.L179:
	.align	2
.L178:
	.word	backend_attached
	.word	buffered_cnt
	.word	_log_backend_list_start
	.word	_log_backend_list_end
	.word	dropped_cnt
	.word	last_failure_report
	.cfi_endproc
.LFE532:
	.size	z_impl_log_process, .-z_impl_log_process
	.section	.text.z_impl_log_panic,"ax",%progbits
	.align	1
	.global	z_impl_log_panic
	.syntax unified
	.thumb
	.thumb_func
	.type	z_impl_log_panic, %function
z_impl_log_panic:
.LFB525:
	.loc 1 376 1 is_stmt 1 view -0
	.cfi_startproc
	@ args = 0, pretend = 0, frame = 0
	@ frame_needed = 0, uses_anonymous_args = 0
	.loc 1 377 2 view .LVU820
	.loc 1 376 1 is_stmt 0 view .LVU821
	push	{r4, r5, r6, lr}
	.cfi_def_cfa_offset 16
	.cfi_offset 4, -16
	.cfi_offset 5, -12
	.cfi_offset 6, -8
	.cfi_offset 14, -4
	.loc 1 377 6 view .LVU822
	ldr	r5, .L191
	.loc 1 377 5 view .LVU823
	ldrb	r1, [r5]	@ zero_extendqisi2
	cbnz	r1, .L180
	.loc 1 384 2 is_stmt 1 view .LVU824
	.loc 1 384 8 is_stmt 0 view .LVU825
	movs	r0, #1
	bl	z_log_init
.LVL148:
	.loc 1 386 2 is_stmt 1 view .LVU826
	.loc 1 393 2 view .LVU827
	.loc 1 393 55 view .LVU828
	.loc 1 393 106 view .LVU829
.LBB412:
	.loc 1 393 111 view .LVU830
	.loc 1 393 132 is_stmt 0 view .LVU831
	ldr	r4, .L191+4
	.loc 1 393 167 view .LVU832
	ldr	r6, .L191+8
.LVL149:
.L182:
	.loc 1 393 167 is_stmt 1 discriminator 1 view .LVU833
.LBE412:
	.loc 1 393 172 discriminator 1 view .LVU834
	.loc 1 393 173 discriminator 1 view .LVU835
	.loc 1 393 175 discriminator 1 view .LVU836
.LBB417:
	.loc 1 393 167 is_stmt 0 discriminator 1 view .LVU837
	cmp	r4, r6
	bcc	.L184
.L185:
.LBE417:
	.loc 1 402 3 is_stmt 1 discriminator 1 view .LVU838
	.loc 1 401 24 discriminator 1 view .LVU839
.LBB418:
.LBI418:
	.file 10 "/home/g/mise-work/zmk-firmware/zmk/app/build/zephyr/include/generated/syscalls/log_ctrl.h"
	.loc 10 49 19 discriminator 1 view .LVU840
.LBB419:
	.loc 10 56 2 discriminator 1 view .LVU841
	.loc 10 56 7 discriminator 1 view .LVU842
	.loc 10 56 5 discriminator 1 view .LVU843
	.loc 10 57 2 discriminator 1 view .LVU844
	.loc 10 57 9 is_stmt 0 discriminator 1 view .LVU845
	bl	z_impl_log_process
.LVL150:
.LBE419:
.LBE418:
	.loc 1 401 24 discriminator 1 view .LVU846
	cmp	r0, #0
	bne	.L185
.L186:
	.loc 1 406 2 is_stmt 1 view .LVU847
	.loc 1 406 13 is_stmt 0 view .LVU848
	movs	r3, #1
	strb	r3, [r5]
.LVL151:
.L180:
	.loc 1 407 1 view .LVU849
	pop	{r4, r5, r6, pc}
.LVL152:
.L184:
.LBB420:
	.loc 1 394 3 is_stmt 1 view .LVU850
.LBB413:
.LBI413:
	.loc 5 304 19 view .LVU851
.LBB414:
	.loc 5 307 4 view .LVU852
	.loc 5 307 5 view .LVU853
	.loc 5 308 2 view .LVU854
	.loc 5 308 20 is_stmt 0 view .LVU855
	ldr	r3, [r4, #4]
.LBE414:
.LBE413:
	.loc 1 394 6 view .LVU856
	ldrb	r3, [r3, #5]	@ zero_extendqisi2
	cbz	r3, .L183
	.loc 1 395 4 is_stmt 1 view .LVU857
.LVL153:
.LBB415:
.LBI415:
	.loc 5 206 20 view .LVU858
.LBB416:
	.loc 5 208 4 view .LVU859
	.loc 5 208 5 view .LVU860
	.loc 5 209 2 view .LVU861
	.loc 5 209 14 is_stmt 0 view .LVU862
	ldr	r3, [r4]
	.loc 5 209 2 view .LVU863
	mov	r0, r4
	ldr	r3, [r3, #8]
	blx	r3
.LVL154:
.L183:
	.loc 5 209 2 view .LVU864
.LBE416:
.LBE415:
	.loc 1 393 219 is_stmt 1 discriminator 2 view .LVU865
	adds	r4, r4, #16
.LVL155:
	.loc 1 393 219 is_stmt 0 discriminator 2 view .LVU866
	b	.L182
.L192:
	.align	2
.L191:
	.word	panic_mode
	.word	_log_backend_list_start
	.word	_log_backend_list_end
.LBE420:
	.cfi_endproc
.LFE525:
	.size	z_impl_log_panic, .-z_impl_log_panic
	.section	.text.log_process_thread_func,"ax",%progbits
	.align	1
	.syntax unified
	.thumb
	.thumb_func
	.type	log_process_thread_func, %function
log_process_thread_func:
.LVL156:
.LFB556:
	.loc 1 863 1 is_stmt 1 view -0
	.cfi_startproc
	@ args = 0, pretend = 0, frame = 0
	@ frame_needed = 0, uses_anonymous_args = 0
	.loc 1 864 4 view .LVU868
	.loc 1 864 5 view .LVU869
	.loc 1 865 2 view .LVU870
	.loc 1 866 2 view .LVU871
	.loc 1 867 2 view .LVU872
	.loc 1 867 27 is_stmt 0 view .LVU873
	movs	r1, #0
.LVL157:
	.loc 1 863 1 view .LVU874
	push	{r4, r5, r6, r7, r8, r9, r10, lr}
	.cfi_def_cfa_offset 32
	.cfi_offset 4, -32
	.cfi_offset 5, -28
	.cfi_offset 6, -24
	.cfi_offset 7, -20
	.cfi_offset 8, -16
	.cfi_offset 9, -12
	.cfi_offset 10, -8
	.cfi_offset 14, -4
	.loc 1 867 27 view .LVU875
	mov	r0, r1
.LVL158:
	.loc 1 867 27 view .LVU876
	bl	z_log_init
.LVL159:
	.loc 1 872 2 is_stmt 1 view .LVU877
	.loc 1 872 83 is_stmt 0 view .LVU878
	mov	r4, r0
	cbz	r0, .L203
	.loc 1 872 14 view .LVU879
	movw	r8, #1639
	mov	r9, #0
.L194:
.LVL160:
	.loc 1 873 1 is_stmt 1 view .LVU880
	.loc 1 874 2 view .LVU881
.LBB438:
.LBI438:
	.loc 3 597 23 view .LVU882
.LBB439:
	.loc 3 601 2 view .LVU883
	.loc 3 603 2 view .LVU884
	.loc 3 603 9 is_stmt 0 view .LVU885
	bl	__aeabi_read_tp	@ load_tp_soft
.LVL161:
	.loc 3 603 9 view .LVU886
	ldr	r3, .L215
.LBE439:
.LBE438:
.LBB441:
.LBB442:
	.loc 1 334 11 view .LVU887
	ldr	r2, .L215+4
.LBE442:
.LBE441:
.LBB446:
.LBB440:
	.loc 3 603 9 view .LVU888
	ldr	r3, [r3, r0]
.LVL162:
	.loc 3 603 9 view .LVU889
.LBE440:
.LBE446:
.LBB447:
.LBI441:
	.loc 1 332 13 is_stmt 1 view .LVU890
.LBB445:
	.loc 1 334 2 view .LVU891
	.loc 1 334 11 is_stmt 0 view .LVU892
	str	r3, [r2]
	.loc 1 336 2 is_stmt 1 view .LVU893
	.loc 1 340 2 view .LVU894
	.loc 1 340 5 is_stmt 0 view .LVU895
	cbz	r3, .L195
	.loc 1 342 19 view .LVU896
	ldr	r3, .L215+8
.LVL163:
	.loc 1 341 18 view .LVU897
	ldr	r3, [r3]
	cmp	r3, #9
	ble	.L195
	.loc 1 343 3 is_stmt 1 view .LVU898
.LBB443:
.LBI443:
	.loc 7 1110 20 view .LVU899
.LVL164:
.LBB444:
	.loc 7 1119 2 view .LVU900
	.loc 7 1119 7 view .LVU901
	.loc 7 1119 5 view .LVU902
	.loc 7 1120 2 view .LVU903
	ldr	r0, .L215+12
	bl	z_impl_k_sem_give
.LVL165:
.L195:
	.loc 7 1120 2 is_stmt 0 view .LVU904
.LBE444:
.LBE443:
.LBE445:
.LBE447:
.LBB448:
.LBB449:
.LBB450:
	.loc 1 852 167 view .LVU905
	ldr	r7, .L215+16
.LBE450:
.LBE449:
.LBE448:
.LBB455:
.LBB456:
	.loc 7 1103 9 view .LVU906
	ldr	r10, .L215+12
.LBE456:
.LBE455:
	.loc 1 872 14 view .LVU907
	movs	r5, #0
.LVL166:
.L196:
	.loc 1 879 2 is_stmt 1 view .LVU908
	.loc 1 880 3 view .LVU909
	.loc 1 880 6 is_stmt 0 view .LVU910
	cbz	r4, .L197
	.loc 1 881 4 is_stmt 1 view .LVU911
	.loc 1 881 20 is_stmt 0 view .LVU912
	mov	r0, r4
	bl	activate_foreach_backend
.LVL167:
	.loc 1 882 4 is_stmt 1 view .LVU913
	.loc 1 882 7 is_stmt 0 view .LVU914
	mov	r4, r0
	cbnz	r0, .L197
.LBB458:
	.loc 1 886 13 view .LVU915
	mov	r8, #-1
.LVL168:
	.loc 1 886 13 view .LVU916
	mov	r9, #-1
.LVL169:
.L197:
	.loc 1 886 13 view .LVU917
.LBE458:
	.loc 1 891 3 is_stmt 1 view .LVU918
	.loc 1 897 3 view .LVU919
.LBB459:
.LBI459:
	.loc 10 49 19 view .LVU920
.LBB460:
	.loc 10 56 2 view .LVU921
	.loc 10 56 7 view .LVU922
	.loc 10 56 5 view .LVU923
	.loc 10 57 2 view .LVU924
	.loc 10 57 9 is_stmt 0 view .LVU925
	bl	z_impl_log_process
.LVL170:
.LBE460:
.LBE459:
	.loc 1 897 6 view .LVU926
	mov	r6, r0
	cbnz	r0, .L198
	.loc 1 898 4 is_stmt 1 view .LVU927
	.loc 1 898 7 is_stmt 0 view .LVU928
	cbnz	r5, .L205
.LVL171:
.L202:
	.loc 1 902 4 is_stmt 1 view .LVU929
.LBB461:
.LBI455:
	.loc 7 1093 19 view .LVU930
.LBB457:
	.loc 7 1102 2 view .LVU931
	.loc 7 1102 7 view .LVU932
	.loc 7 1102 5 view .LVU933
	.loc 7 1103 2 view .LVU934
	.loc 7 1103 9 is_stmt 0 view .LVU935
	mov	r2, r8
	mov	r3, r9
	mov	r0, r10
	bl	z_impl_k_sem_take
.LVL172:
.L198:
	.loc 7 1103 9 view .LVU936
.LBE457:
.LBE461:
	.loc 1 872 14 view .LVU937
	mov	r5, r6
	b	.L196
.LVL173:
.L203:
	.loc 1 872 14 view .LVU938
	mov	r8, #-1
	mov	r9, #-1
	b	.L194
.LVL174:
.L201:
.LBB462:
.LBB454:
.LBB453:
	.loc 1 853 3 is_stmt 1 view .LVU939
.LBB451:
.LBI451:
	.loc 5 350 20 view .LVU940
.LBB452:
	.loc 5 354 4 view .LVU941
	.loc 5 354 5 view .LVU942
	.loc 5 356 2 view .LVU943
	.loc 5 356 18 is_stmt 0 view .LVU944
	ldr	r3, [r5]
	ldr	r3, [r3, #24]
	.loc 5 356 5 view .LVU945
	cbz	r3, .L200
	.loc 5 357 3 is_stmt 1 view .LVU946
	movs	r2, #0
	mov	r1, r2
	mov	r0, r5
	blx	r3
.LVL175:
.L200:
	.loc 5 357 3 is_stmt 0 view .LVU947
.LBE452:
.LBE451:
	.loc 1 852 219 is_stmt 1 view .LVU948
	adds	r5, r5, #16
.LVL176:
.L199:
	.loc 1 852 167 view .LVU949
	cmp	r5, r7
	bcc	.L201
	b	.L202
.LVL177:
.L205:
	.loc 1 852 132 is_stmt 0 view .LVU950
	ldr	r5, .L215+20
.LVL178:
	.loc 1 852 132 view .LVU951
	b	.L199
.L216:
	.align	2
.L215:
	.word	z_tls_current(tpoff)
	.word	proc_tid
	.word	buffered_cnt
	.word	log_process_thread_sem
	.word	_log_backend_list_end
	.word	_log_backend_list_start
.LBE453:
.LBE454:
.LBE462:
	.cfi_endproc
.LFE556:
	.size	log_process_thread_func, .-log_process_thread_func
	.section	.text.z_log_msg_post_finalize,"ax",%progbits
	.align	1
	.syntax unified
	.thumb
	.thumb_func
	.type	z_log_msg_post_finalize, %function
z_log_msg_post_finalize:
.LFB513:
	.loc 1 156 1 is_stmt 1 view -0
	.cfi_startproc
	@ args = 0, pretend = 0, frame = 0
	@ frame_needed = 0, uses_anonymous_args = 0
	.loc 1 157 2 view .LVU953
	.loc 1 156 1 is_stmt 0 view .LVU954
	push	{r0, r1, r4, lr}
	.cfi_def_cfa_offset 16
	.cfi_offset 4, -8
	.cfi_offset 14, -4
	.loc 1 157 21 view .LVU955
	ldr	r0, .L224
	bl	atomic_inc
.LVL179:
	.loc 1 159 2 is_stmt 1 view .LVU956
	.loc 1 159 6 is_stmt 0 view .LVU957
	ldr	r3, .L224+4
	.loc 1 159 5 view .LVU958
	ldrb	r3, [r3]	@ zero_extendqisi2
	cbz	r3, .L218
.LBB480:
	.loc 1 160 3 is_stmt 1 view .LVU959
	.loc 1 161 3 view .LVU960
.LVL180:
.LBB481:
.LBI481:
	.file 11 "/home/g/mise-work/zmk-firmware/zmk/zephyr/include/zephyr/spinlock.h"
	.loc 11 160 63 view .LVU961
.LBB482:
	.loc 11 162 2 view .LVU962
	.loc 11 163 2 view .LVU963
	.loc 11 169 2 view .LVU964
.LBB483:
.LBI483:
	.file 12 "/home/g/mise-work/zmk-firmware/zmk/zephyr/include/zephyr/arch/arm/asm_inline_gcc.h"
	.loc 12 42 59 view .LVU965
.LBB484:
	.loc 12 44 2 view .LVU966
	.loc 12 57 2 view .LVU967
	.loc 12 59 2 view .LVU968
	.syntax unified
@ 59 "/home/g/mise-work/zmk-firmware/zmk/zephyr/include/zephyr/arch/arm/asm_inline_gcc.h" 1
	mov r3, #32;mrs r4, BASEPRI;msr BASEPRI_MAX, r3;isb;
@ 0 "" 2
.LVL181:
	.loc 12 88 2 view .LVU969
	.loc 12 88 2 is_stmt 0 view .LVU970
	.thumb
	.syntax unified
.LBE484:
.LBE483:
	.loc 11 171 2 is_stmt 1 view .LVU971
	.loc 11 177 2 view .LVU972
	.loc 11 179 2 view .LVU973
	.loc 11 179 2 is_stmt 0 view .LVU974
.LBE482:
.LBE481:
	.loc 1 162 3 is_stmt 1 view .LVU975
.LBB485:
.LBI485:
	.loc 10 49 19 view .LVU976
.LBB486:
	.loc 10 56 2 view .LVU977
	.loc 10 56 7 view .LVU978
	.loc 10 56 5 view .LVU979
	.loc 10 57 2 view .LVU980
	.loc 10 57 9 is_stmt 0 view .LVU981
	bl	z_impl_log_process
.LVL182:
	.loc 10 57 9 view .LVU982
.LBE486:
.LBE485:
	.loc 1 164 3 is_stmt 1 view .LVU983
.LBB487:
.LBI487:
	.loc 11 235 51 view .LVU984
	.loc 11 238 2 view .LVU985
	.loc 11 261 2 view .LVU986
.LBB488:
.LBI488:
	.loc 12 96 51 view .LVU987
.LBB489:
	.loc 12 107 2 view .LVU988
	.syntax unified
@ 107 "/home/g/mise-work/zmk-firmware/zmk/zephyr/include/zephyr/arch/arm/asm_inline_gcc.h" 1
	msr BASEPRI, r4;isb;
@ 0 "" 2
.LVL183:
	.thumb
	.syntax unified
.L217:
	.loc 12 107 2 is_stmt 0 view .LVU989
.LBE489:
.LBE488:
.LBE487:
.LBE480:
	.loc 1 181 1 view .LVU990
	add	sp, sp, #8
	.cfi_remember_state
	.cfi_def_cfa_offset 8
	@ sp needed
	pop	{r4, pc}
.LVL184:
.L218:
	.cfi_restore_state
	.loc 1 165 9 is_stmt 1 view .LVU991
	.loc 1 165 22 is_stmt 0 view .LVU992
	ldr	r3, .L224+8
	.loc 1 165 12 view .LVU993
	ldr	r3, [r3]
	cmp	r3, #0
	beq	.L217
	.loc 1 166 3 is_stmt 1 view .LVU994
	.loc 1 166 6 is_stmt 0 view .LVU995
	cbnz	r0, .L220
.LBB490:
	.loc 1 167 4 is_stmt 1 view .LVU996
.LBB491:
.LBI491:
	.loc 7 461 20 view .LVU997
.LVL185:
.LBB492:
	.loc 7 472 2 view .LVU998
	.loc 7 472 7 view .LVU999
	.loc 7 472 5 view .LVU1000
	.loc 7 473 2 view .LVU1001
	movs	r2, #0
.LVL186:
	.loc 7 473 2 is_stmt 0 view .LVU1002
	movs	r3, #0
.LVL187:
	.loc 7 473 2 view .LVU1003
	strd	r2, [sp]
	ldr	r0, .L224+12
.LVL188:
	.loc 7 473 2 view .LVU1004
	movw	r2, #3277
.LVL189:
	.loc 7 473 2 view .LVU1005
	movs	r3, #0
	bl	z_impl_k_timer_start
.LVL190:
	.loc 7 473 2 view .LVU1006
.LBE492:
.LBE491:
.LBE490:
	b	.L217
.LVL191:
.L220:
	.loc 1 170 10 is_stmt 1 view .LVU1007
	.loc 1 170 13 is_stmt 0 view .LVU1008
	cmp	r0, #9
	bne	.L217
	.loc 1 172 4 is_stmt 1 view .LVU1009
.LBB493:
.LBI493:
	.loc 7 480 20 view .LVU1010
.LVL192:
.LBB494:
	.loc 7 489 2 view .LVU1011
	.loc 7 489 7 view .LVU1012
	.loc 7 489 5 view .LVU1013
	.loc 7 490 2 view .LVU1014
	ldr	r0, .L224+12
.LVL193:
	.loc 7 490 2 is_stmt 0 view .LVU1015
	bl	z_impl_k_timer_stop
.LVL194:
	.loc 7 490 2 view .LVU1016
.LBE494:
.LBE493:
	.loc 1 173 4 is_stmt 1 view .LVU1017
.LBB495:
.LBI495:
	.loc 7 1110 20 view .LVU1018
.LBB496:
	.loc 7 1119 2 view .LVU1019
	.loc 7 1119 7 view .LVU1020
	.loc 7 1119 5 view .LVU1021
	.loc 7 1120 2 view .LVU1022
	ldr	r0, .L224+16
.LBE496:
.LBE495:
	.loc 1 181 1 is_stmt 0 view .LVU1023
	add	sp, sp, #8
	.cfi_def_cfa_offset 8
	@ sp needed
	pop	{r4, lr}
	.cfi_restore 14
	.cfi_restore 4
	.cfi_def_cfa_offset 0
.LBB498:
.LBB497:
	.loc 7 1120 2 view .LVU1024
	b	z_impl_k_sem_give
.LVL195:
.L225:
	.align	2
.L224:
	.word	buffered_cnt
	.word	panic_mode
	.word	proc_tid
	.word	log_process_thread_timer
	.word	log_process_thread_sem
.LBE497:
.LBE498:
	.cfi_endproc
.LFE513:
	.size	z_log_msg_post_finalize, .-z_log_msg_post_finalize
	.section	.text.z_log_msg_commit,"ax",%progbits
	.align	1
	.global	z_log_msg_commit
	.syntax unified
	.thumb
	.thumb_func
	.type	z_log_msg_commit, %function
z_log_msg_commit:
.LVL196:
.LFB541:
	.loc 1 629 1 is_stmt 1 view -0
	.cfi_startproc
	@ args = 0, pretend = 0, frame = 0
	@ frame_needed = 0, uses_anonymous_args = 0
	.loc 1 630 2 view .LVU1026
	.loc 1 629 1 is_stmt 0 view .LVU1027
	push	{r4, lr}
	.cfi_def_cfa_offset 8
	.cfi_offset 4, -8
	.cfi_offset 14, -4
	.loc 1 630 23 view .LVU1028
	ldr	r3, .L227
	ldr	r3, [r3]
	.loc 1 629 1 view .LVU1029
	mov	r4, r0
	.loc 1 630 23 view .LVU1030
	blx	r3
.LVL197:
.LBB501:
.LBB502:
	.loc 1 623 2 view .LVU1031
	mov	r1, r4
.LBE502:
.LBE501:
	.loc 1 630 21 view .LVU1032
	str	r0, [r4, #8]
	.loc 1 631 2 is_stmt 1 view .LVU1033
.LVL198:
.LBB505:
.LBI501:
	.loc 1 612 13 view .LVU1034
.LBB503:
	.loc 1 614 2 view .LVU1035
	.loc 1 616 2 view .LVU1036
	.loc 1 623 2 view .LVU1037
	ldr	r0, .L227+4
	bl	mpsc_pbuf_commit
.LVL199:
	.loc 1 625 2 view .LVU1038
.LBE503:
.LBE505:
	.loc 1 632 1 is_stmt 0 view .LVU1039
	pop	{r4, lr}
	.cfi_restore 14
	.cfi_restore 4
	.cfi_def_cfa_offset 0
.LVL200:
.LBB506:
.LBB504:
	.loc 1 625 2 view .LVU1040
	b	z_log_msg_post_finalize
.LVL201:
.L228:
	.align	2
.L227:
	.word	timestamp_func
	.word	log_buffer
.LBE504:
.LBE506:
	.cfi_endproc
.LFE541:
	.size	z_log_msg_commit, .-z_log_msg_commit
	.section	.text.z_log_msg_enqueue,"ax",%progbits
	.align	1
	.global	z_log_msg_enqueue
	.syntax unified
	.thumb
	.thumb_func
	.type	z_log_msg_enqueue, %function
z_log_msg_enqueue:
.LVL202:
.LFB549:
	.loc 1 777 1 is_stmt 1 view -0
	.cfi_startproc
	@ args = 0, pretend = 0, frame = 0
	@ frame_needed = 0, uses_anonymous_args = 0
	.loc 1 778 2 view .LVU1042
	.loc 1 777 1 is_stmt 0 view .LVU1043
	push	{r4, r5, r6, r7, r8, lr}
	.cfi_def_cfa_offset 24
	.cfi_offset 4, -24
	.cfi_offset 5, -20
	.cfi_offset 6, -16
	.cfi_offset 7, -12
	.cfi_offset 8, -8
	.cfi_offset 14, -4
	.loc 1 780 76 view .LVU1044
	ldr	r3, .L233
	.loc 1 780 46 view .LVU1045
	ldr	r5, [r0, #16]
	.loc 1 777 1 view .LVU1046
	mov	r4, r1
.LVL203:
	.loc 1 779 2 is_stmt 1 view .LVU1047
	.loc 1 779 43 is_stmt 0 view .LVU1048
	adds	r1, r2, #7
.LVL204:
	.loc 1 780 76 view .LVU1049
	cmp	r5, #0
	it	eq
	moveq	r5, r3
	.loc 1 779 731 view .LVU1050
	bic	r1, r1, #7
.LVL205:
	.loc 1 780 2 is_stmt 1 view .LVU1051
	.loc 1 781 2 view .LVU1052
.LBB515:
.LBI515:
	.loc 1 594 24 view .LVU1053
.LBB516:
	.loc 1 596 2 view .LVU1054
	.loc 1 600 2 view .LVU1055
.LBE516:
.LBE515:
	.loc 1 777 1 is_stmt 0 view .LVU1056
	mov	r8, r0
	mov	r7, r2
.LBB518:
.LBB517:
	.loc 1 600 27 view .LVU1057
	movs	r3, #0
	movs	r2, #0
.LVL206:
	.loc 1 600 27 view .LVU1058
	lsrs	r1, r1, #2
.LVL207:
	.loc 1 600 27 view .LVU1059
	mov	r0, r5
.LVL208:
	.loc 1 600 27 view .LVU1060
	bl	mpsc_pbuf_alloc
.LVL209:
	.loc 1 600 27 view .LVU1061
.LBE517:
.LBE518:
	.loc 1 783 2 is_stmt 1 view .LVU1062
	.loc 1 783 5 is_stmt 0 view .LVU1063
	mov	r6, r0
	cbnz	r0, .L231
	.loc 1 784 3 is_stmt 1 view .LVU1064
.LVL210:
.LBB519:
.LBI519:
	.loc 1 568 6 view .LVU1065
.LBB520:
	.loc 1 570 2 view .LVU1066
.LBE520:
.LBE519:
	.loc 1 793 1 is_stmt 0 view .LVU1067
	pop	{r4, r5, r6, r7, r8, lr}
	.cfi_remember_state
	.cfi_restore 14
	.cfi_restore 8
	.cfi_restore 7
	.cfi_restore 6
	.cfi_restore 5
	.cfi_restore 4
	.cfi_def_cfa_offset 0
.LVL211:
.LBB522:
.LBB521:
	.loc 1 570 2 view .LVU1068
	ldr	r0, .L233+4
.LVL212:
	.loc 1 570 2 view .LVU1069
	b	atomic_inc
.LVL213:
.L231:
	.cfi_restore_state
	.loc 1 570 2 view .LVU1070
.LBE521:
.LBE522:
	.loc 1 788 2 is_stmt 1 view .LVU1071
	.loc 1 789 2 view .LVU1072
	.loc 1 788 26 is_stmt 0 view .LVU1073
	ldrb	r3, [r4]	@ zero_extendqisi2
	bic	r3, r3, #3
	strb	r3, [r4]
	.loc 1 790 2 is_stmt 1 view .LVU1074
	.loc 1 790 44 is_stmt 0 view .LVU1075
	ldr	r3, [r8, #8]
	.loc 1 790 27 view .LVU1076
	ldr	r2, [r3, #8]
	.loc 1 790 19 view .LVU1077
	ldrb	r3, [r4]	@ zero_extendqisi2
	ubfx	r1, r3, #3, #3
	.loc 1 790 27 view .LVU1078
	add	r2, r2, r1
	bfi	r3, r2, #3, #3
	strb	r3, [r4]
	.loc 1 791 1 is_stmt 1 view .LVU1079
.LVL214:
.LBB523:
.LBI523:
	.file 13 "/home/g/zephyr-sdk-0.16.3/arm-zephyr-eabi/picolibc/include/ssp/string.h"
	.loc 13 83 216 view .LVU1080
.LBB524:
	.loc 13 83 292 view .LVU1081
	.loc 13 83 299 is_stmt 0 view .LVU1082
	mov	r2, r7
	mov	r1, r4
	bl	memcpy
.LVL215:
	.loc 13 83 299 view .LVU1083
.LBE524:
.LBE523:
	.loc 1 792 2 is_stmt 1 view .LVU1084
.LBB525:
.LBI525:
	.loc 1 612 13 view .LVU1085
.LBB526:
	.loc 1 614 2 view .LVU1086
	.loc 1 616 2 view .LVU1087
	.loc 1 623 2 view .LVU1088
	mov	r1, r6
	mov	r0, r5
	bl	mpsc_pbuf_commit
.LVL216:
	.loc 1 625 2 view .LVU1089
.LBE526:
.LBE525:
	.loc 1 793 1 is_stmt 0 view .LVU1090
	pop	{r4, r5, r6, r7, r8, lr}
	.cfi_restore 14
	.cfi_restore 8
	.cfi_restore 7
	.cfi_restore 6
	.cfi_restore 5
	.cfi_restore 4
	.cfi_def_cfa_offset 0
.LVL217:
.LBB528:
.LBB527:
	.loc 1 625 2 view .LVU1091
	b	z_log_msg_post_finalize
.LVL218:
.L234:
	.align	2
.L233:
	.word	log_buffer
	.word	dropped_cnt
.LBE527:
.LBE528:
	.cfi_endproc
.LFE549:
	.size	z_log_msg_enqueue, .-z_log_msg_enqueue
	.section	.text.z_log_get_tag,"ax",%progbits
	.align	1
	.global	z_log_get_tag
	.syntax unified
	.thumb
	.thumb_func
	.type	z_log_get_tag, %function
z_log_get_tag:
.LFB550:
	.loc 1 796 1 is_stmt 1 view -0
	.cfi_startproc
	@ args = 0, pretend = 0, frame = 0
	@ frame_needed = 0, uses_anonymous_args = 0
	@ link register save eliminated.
	.loc 1 797 2 view .LVU1093
	.loc 1 798 1 is_stmt 0 view .LVU1094
	movs	r0, #0
	bx	lr
	.cfi_endproc
.LFE550:
	.size	z_log_get_tag, .-z_log_get_tag
	.section	.text.log_set_tag,"ax",%progbits
	.align	1
	.global	log_set_tag
	.syntax unified
	.thumb
	.thumb_func
	.type	log_set_tag, %function
log_set_tag:
.LVL219:
.LFB551:
	.loc 1 801 1 is_stmt 1 view -0
	.cfi_startproc
	@ args = 0, pretend = 0, frame = 0
	@ frame_needed = 0, uses_anonymous_args = 0
	@ link register save eliminated.
	.loc 1 820 2 view .LVU1096
	.loc 1 822 1 is_stmt 0 view .LVU1097
	mvn	r0, #133
.LVL220:
	.loc 1 822 1 view .LVU1098
	bx	lr
	.cfi_endproc
.LFE551:
	.size	log_set_tag, .-log_set_tag
	.section	.text.log_mem_get_usage,"ax",%progbits
	.align	1
	.global	log_mem_get_usage
	.syntax unified
	.thumb
	.thumb_func
	.type	log_mem_get_usage, %function
log_mem_get_usage:
.LVL221:
.LFB552:
	.loc 1 825 1 is_stmt 1 view -0
	.cfi_startproc
	@ args = 0, pretend = 0, frame = 0
	@ frame_needed = 0, uses_anonymous_args = 0
	.loc 1 826 4 view .LVU1100
	.loc 1 826 5 view .LVU1101
	.loc 1 827 4 view .LVU1102
	.loc 1 827 5 view .LVU1103
	.loc 1 829 2 view .LVU1104
	.loc 1 833 2 view .LVU1105
	.loc 1 825 1 is_stmt 0 view .LVU1106
	push	{r3, lr}
	.cfi_def_cfa_offset 8
	.cfi_offset 3, -8
	.cfi_offset 14, -4
	.loc 1 825 1 view .LVU1107
	mov	r2, r1
	.loc 1 833 2 view .LVU1108
	mov	r1, r0
.LVL222:
	.loc 1 833 2 view .LVU1109
	ldr	r0, .L238
.LVL223:
	.loc 1 833 2 view .LVU1110
	bl	mpsc_pbuf_get_utilization
.LVL224:
	.loc 1 835 2 is_stmt 1 view .LVU1111
	.loc 1 836 1 is_stmt 0 view .LVU1112
	movs	r0, #0
	pop	{r3, pc}
.L239:
	.align	2
.L238:
	.word	log_buffer
	.cfi_endproc
.LFE552:
	.size	log_mem_get_usage, .-log_mem_get_usage
	.section	.text.log_mem_get_max_usage,"ax",%progbits
	.align	1
	.global	log_mem_get_max_usage
	.syntax unified
	.thumb
	.thumb_func
	.type	log_mem_get_max_usage, %function
log_mem_get_max_usage:
.LVL225:
.LFB553:
	.loc 1 839 1 is_stmt 1 view -0
	.cfi_startproc
	@ args = 0, pretend = 0, frame = 0
	@ frame_needed = 0, uses_anonymous_args = 0
	@ link register save eliminated.
	.loc 1 840 4 view .LVU1114
	.loc 1 840 5 view .LVU1115
	.loc 1 842 2 view .LVU1116
	.loc 1 846 2 view .LVU1117
	.loc 1 839 1 is_stmt 0 view .LVU1118
	mov	r1, r0
	.loc 1 846 9 view .LVU1119
	ldr	r0, .L241
.LVL226:
	.loc 1 846 9 view .LVU1120
	b	mpsc_pbuf_get_max_utilization
.LVL227:
.L242:
	.loc 1 846 9 view .LVU1121
	.align	2
.L241:
	.word	log_buffer
	.cfi_endproc
.LFE553:
	.size	log_mem_get_max_usage, .-log_mem_get_max_usage
	.section	.z_init_POST_KERNEL0_0_,"a"
	.align	2
	.type	__init_enable_logger, %object
	.size	__init_enable_logger, 8
__init_enable_logger:
	.word	enable_logger
	.word	0
	.global	logging_thread
	.section	.bss.logging_thread,"aw",%nobits
	.align	3
	.type	logging_thread, %object
	.size	logging_thread, 200
logging_thread:
	.space	200
	.global	logging_stack
	.section	.noinit."WEST_TOPDIR/zephyr/subsys/logging/log_core.c".0,"aw"
	.align	3
	.type	logging_stack, %object
	.size	logging_stack, 768
logging_stack:
	.space	768
	.section	.rodata.mpsc_config,"a"
	.align	2
	.type	mpsc_config, %object
	.size	mpsc_config, 20
mpsc_config:
	.word	buf32
	.word	2048
	.word	z_log_notify_drop
	.word	log_msg_generic_get_wlen
	.word	2
	.section	.bss.buf32,"aw",%nobits
	.align	3
	.type	buf32, %object
	.size	buf32, 8192
buf32:
	.space	8192
	.section	.bss.curr_log_buffer,"aw",%nobits
	.align	2
	.type	curr_log_buffer, %object
	.size	curr_log_buffer, 4
curr_log_buffer:
	.space	4
	.section	._log_mpsc_pbuf.static.log_buffer_,"aw"
	.align	2
	.type	log_buffer, %object
	.size	log_buffer, 64
log_buffer:
	.space	64
	.section	._log_msg_ptr.static.log_msg_ptr_,"aw"
	.align	2
	.type	log_msg_ptr, %object
	.size	log_msg_ptr, 4
log_msg_ptr:
	.space	4
	.section	.bss.last_failure_report,"aw",%nobits
	.align	3
	.type	last_failure_report, %object
	.size	last_failure_report, 8
last_failure_report:
	.space	8
	.section	.bss.unordered_cnt,"aw",%nobits
	.align	2
	.type	unordered_cnt, %object
	.size	unordered_cnt, 4
unordered_cnt:
	.space	4
	.section	.bss.prev_timestamp,"aw",%nobits
	.align	2
	.type	prev_timestamp, %object
	.size	prev_timestamp, 4
prev_timestamp:
	.space	4
	.section	.data.timestamp_func,"aw"
	.align	2
	.type	timestamp_func, %object
	.size	timestamp_func, 4
timestamp_func:
	.word	dummy_timestamp
	.section	.bss.log_process_thread_timer,"aw",%nobits
	.align	3
	.type	log_process_thread_timer, %object
	.size	log_process_thread_timer, 56
log_process_thread_timer:
	.space	56
	.section	.bss.proc_tid,"aw",%nobits
	.align	2
	.type	proc_tid, %object
	.size	proc_tid, 4
proc_tid:
	.space	4
	.section	.bss.dropped_cnt,"aw",%nobits
	.align	2
	.type	dropped_cnt, %object
	.size	dropped_cnt, 4
dropped_cnt:
	.space	4
	.section	.bss.buffered_cnt,"aw",%nobits
	.align	2
	.type	buffered_cnt, %object
	.size	buffered_cnt, 4
buffered_cnt:
	.space	4
	.section	.bss.backend_attached,"aw",%nobits
	.type	backend_attached, %object
	.size	backend_attached, 1
backend_attached:
	.space	1
	.section	.bss.panic_mode,"aw",%nobits
	.type	panic_mode, %object
	.size	panic_mode, 1
panic_mode:
	.space	1
	.section	.bss.initialized,"aw",%nobits
	.align	2
	.type	initialized, %object
	.size	initialized, 4
initialized:
	.space	4
	.global	log_process_thread_sem
	.section	._k_sem.static.log_process_thread_sem_,"aw"
	.align	2
	.type	log_process_thread_sem, %object
	.size	log_process_thread_sem, 24
log_process_thread_sem:
	.word	log_process_thread_sem
	.word	log_process_thread_sem
	.word	0
	.word	1
	.word	log_process_thread_sem+16
	.word	log_process_thread_sem+16
	.section	.rodata.format_table,"a"
	.align	2
	.type	format_table, %object
	.size	format_table, 16
format_table:
	.word	log_output_msg_process
	.word	0
	.word	0
	.word	0
	.global	log_const_log
	.section	.rodata.str1.1,"aMS",%progbits,1
.LC2:
	.ascii	"log\000"
	.section	._log_const.static.log_const_log_,"a"
	.align	2
	.type	log_const_log, %object
	.size	log_const_log, 8
log_const_log:
	.word	.LC2
	.byte	3
	.space	3
	.text
.Letext0:
	.file 14 "/home/g/zephyr-sdk-0.16.3/arm-zephyr-eabi/lib/gcc/arm-zephyr-eabi/12.2.0/include/stddef.h"
	.file 15 "/home/g/zephyr-sdk-0.16.3/arm-zephyr-eabi/picolibc/include/machine/_default_types.h"
	.file 16 "/home/g/zephyr-sdk-0.16.3/arm-zephyr-eabi/picolibc/include/sys/_stdint.h"
	.file 17 "/home/g/mise-work/zmk-firmware/zmk/zephyr/include/zephyr/logging/log_instance.h"
	.file 18 "/home/g/mise-work/zmk-firmware/zmk/zephyr/include/zephyr/sys/mpsc_packet.h"
	.file 19 "/home/g/zephyr-sdk-0.16.3/arm-zephyr-eabi/lib/gcc/arm-zephyr-eabi/12.2.0/include/stdarg.h"
	.file 20 "/home/g/mise-work/zmk-firmware/zmk/zephyr/include/zephyr/sys/cbprintf.h"
	.file 21 "/home/g/mise-work/zmk-firmware/zmk/zephyr/include/zephyr/sys/arch_interface.h"
	.file 22 "/home/g/mise-work/zmk-firmware/zmk/zephyr/include/zephyr/kernel/thread_stack.h"
	.file 23 "/home/g/mise-work/zmk-firmware/zmk/zephyr/include/zephyr/sys/atomic.h"
	.file 24 "/home/g/mise-work/zmk-firmware/zmk/zephyr/include/zephyr/sys/dlist.h"
	.file 25 "/home/g/mise-work/zmk-firmware/zmk/zephyr/include/zephyr/sys/rb.h"
	.file 26 "/home/g/mise-work/zmk-firmware/zmk/zephyr/include/zephyr/sys/sys_heap.h"
	.file 27 "/home/g/mise-work/zmk-firmware/zmk/zephyr/include/zephyr/kernel/thread.h"
	.file 28 "/home/g/mise-work/zmk-firmware/zmk/zephyr/include/zephyr/kernel_structs.h"
	.file 29 "/home/g/mise-work/zmk-firmware/zmk/zephyr/include/zephyr/arch/arm/thread.h"
	.file 30 "/home/g/mise-work/zmk-firmware/zmk/zephyr/include/zephyr/fatal_types.h"
	.file 31 "/home/g/mise-work/zmk-firmware/zmk/zephyr/include/zephyr/sys_clock.h"
	.file 32 "/home/g/mise-work/zmk-firmware/zmk/zephyr/include/zephyr/logging/log_output.h"
	.file 33 "/home/g/mise-work/zmk-firmware/zmk/zephyr/include/zephyr/sys/mpsc_pbuf.h"
	.file 34 "/home/g/mise-work/zmk-firmware/zmk/zephyr/include/zephyr/logging/log_ctrl.h"
	.file 35 "/home/g/mise-work/zmk-firmware/zmk/zephyr/include/zephyr/logging/log_link.h"
	.file 36 "/home/g/mise-work/zmk-firmware/zmk/zephyr/include/zephyr/init.h"
	.file 37 "/home/g/mise-work/zmk-firmware/zmk/zephyr/include/zephyr/syscall.h"
	.file 38 "/home/g/mise-work/zmk-firmware/zmk/zephyr/include/zephyr/sys/cbprintf_internal.h"
	.file 39 "<built-in>"