	.cpu cortex-m4
	.arch armv7e-m
	.fpu fpv4-sp-d16
	.eabi_attribute 27, 1
	.eabi_attribute 28, 1
	.eabi_attribute 20, 1
	.eabi_attribute 21, 1
	.eabi_attribute 23, 3
	.eabi_attribute 24, 1
	.eabi_attribute 25, 1
	.eabi_attribute 26, 1
	.eabi_attribute 30, 4
	.eabi_attribute 34, 1
	.eabi_attribute 38, 1
	.eabi_attribute 18, 4
	.file	"log_output.c"
	.text
.Ltext0:
	.cfi_sections	.debug_frame
	.file 1 "/home/g/mise-work/zmk-firmware/zmk/zephyr/subsys/logging/log_output.c"
	.section	.text.buffer_write,"ax",%progbits
	.align	1
	.syntax unified
	.thumb
	.thumb_func
	.type	buffer_write, %function
buffer_write:
.LVL0:
.LFB503:
	.loc 1 152 1 view -0
	.cfi_startproc
	@ args = 0, pretend = 0, frame = 0
	@ frame_needed = 0, uses_anonymous_args = 0
	.loc 1 152 1 is_stmt 0 view .LVU1
	push	{r3, r4, r5, r6, r7, lr}
	.cfi_def_cfa_offset 24
	.cfi_offset 3, -24
	.cfi_offset 4, -20
	.cfi_offset 5, -16
	.cfi_offset 6, -12
	.cfi_offset 7, -8
	.cfi_offset 14, -4
	mov	r6, r0
	mov	r5, r1
	mov	r4, r2
	mov	r7, r3
.LVL1:
.L2:
	.loc 1 153 2 is_stmt 1 discriminator 1 view .LVU2
	.loc 1 155 2 discriminator 1 view .LVU3
	.loc 1 156 3 discriminator 1 view .LVU4
	.loc 1 156 15 is_stmt 0 discriminator 1 view .LVU5
	mov	r1, r4
	mov	r0, r5
	mov	r2, r7
	blx	r6
.LVL2:
	.loc 1 157 3 is_stmt 1 discriminator 1 view .LVU6
	.loc 1 158 3 discriminator 1 view .LVU7
	.loc 1 159 15 is_stmt 0 discriminator 1 view .LVU8
	subs	r4, r4, r0
.LVL3:
	.loc 1 158 7 discriminator 1 view .LVU9
	add	r5, r5, r0
.LVL4:
	.loc 1 159 15 is_stmt 1 discriminator 1 view .LVU10
	bne	.L2
	.loc 1 160 1 is_stmt 0 view .LVU11
	pop	{r3, r4, r5, r6, r7, pc}
	.loc 1 160 1 view .LVU12
	.cfi_endproc
.LFE503:
	.size	buffer_write, .-buffer_write
	.section	.text.print_formatted,"ax",%progbits
	.align	1
	.syntax unified
	.thumb
	.thumb_func
	.type	print_formatted, %function
print_formatted:
.LVL5:
.LFB502:
	.loc 1 139 1 is_stmt 1 view -0
	.cfi_startproc
	@ args = 4, pretend = 12, frame = 8
	@ frame_needed = 0, uses_anonymous_args = 1
	.loc 1 140 2 view .LVU14
	.loc 1 141 2 view .LVU15
	.loc 1 143 1 view .LVU16
	.loc 1 139 1 is_stmt 0 view .LVU17
	push	{r1, r2, r3}
	.cfi_def_cfa_offset 12
	.cfi_offset 1, -12
	.cfi_offset 2, -8
	.cfi_offset 3, -4
	push	{r0, r1, lr}
	.cfi_def_cfa_offset 24
	.cfi_offset 14, -16
	.loc 1 139 1 view .LVU18
	add	r3, sp, #12
	mov	r1, r0
	ldr	r2, [r3], #4
	.loc 1 144 11 view .LVU19
	ldr	r0, .L5
.LVL6:
	.loc 1 143 1 view .LVU20
	str	r3, [sp, #4]
	.loc 1 144 2 is_stmt 1 view .LVU21
	.loc 1 144 11 is_stmt 0 view .LVU22
	bl	cbvprintf
.LVL7:
	.loc 1 145 1 is_stmt 1 view .LVU23
	.loc 1 147 2 view .LVU24
	.loc 1 148 1 is_stmt 0 view .LVU25
	add	sp, sp, #8
	.cfi_def_cfa_offset 16
	@ sp needed
	ldr	lr, [sp], #4
	.cfi_restore 14
	.cfi_def_cfa_offset 12
	add	sp, sp, #12
	.cfi_restore 3
	.cfi_restore 2
	.cfi_restore 1
	.cfi_def_cfa_offset 0
	bx	lr
.L6:
	.align	2
.L5:
	.word	out_func
	.cfi_endproc
.LFE502:
	.size	print_formatted, .-print_formatted
	.section	.rodata.newline_print.str1.1,"aMS",%progbits,1
.LC0:
	.ascii	"\012\000"
.LC1:
	.ascii	"\015\012\000"
	.section	.text.newline_print,"ax",%progbits
	.align	1
	.syntax unified
	.thumb
	.thumb_func
	.type	newline_print, %function
newline_print:
.LVL8:
.LFB512:
	.loc 1 365 1 is_stmt 1 view -0
	.cfi_startproc
	@ args = 0, pretend = 0, frame = 0
	@ frame_needed = 0, uses_anonymous_args = 0
	@ link register save eliminated.
	.loc 1 366 2 view .LVU27
	.loc 1 371 2 view .LVU28
	.loc 1 371 5 is_stmt 0 view .LVU29
	lsls	r2, r1, #27
	bmi	.L7
	.loc 1 375 2 is_stmt 1 view .LVU30
	.loc 1 375 5 is_stmt 0 view .LVU31
	lsls	r3, r1, #26
.LVL9:
.LBB28:
.LBI28:
	.loc 1 364 13 is_stmt 1 view .LVU32
.LBB29:
	.loc 1 376 3 view .LVU33
	ite	mi
	ldrmi	r1, .L11
.LVL10:
	.loc 1 376 3 is_stmt 0 view .LVU34
.LBE29:
.LBE28:
	.loc 1 378 3 is_stmt 1 view .LVU35
	ldrpl	r1, .L11+4
	b	print_formatted
.LVL11:
.L7:
	.loc 1 380 1 is_stmt 0 view .LVU36
	bx	lr
.L12:
	.align	2
.L11:
	.word	.LC0
	.word	.LC1
	.cfi_endproc
.LFE512:
	.size	newline_print, .-newline_print
	.section	.text.log_output_flush,"ax",%progbits
	.align	1
	.global	log_output_flush
	.syntax unified
	.thumb
	.thumb_func
	.type	log_output_flush, %function
log_output_flush:
.LVL12:
.LFB504:
	.loc 1 164 1 is_stmt 1 view -0
	.cfi_startproc
	@ args = 0, pretend = 0, frame = 0
	@ frame_needed = 0, uses_anonymous_args = 0
	.loc 1 165 2 view .LVU38
	.loc 1 164 1 is_stmt 0 view .LVU39
	push	{r4, lr}
	.cfi_def_cfa_offset 8
	.cfi_offset 4, -8
	.cfi_offset 14, -4
	.loc 1 166 14 view .LVU40
	ldr	r2, [r0, #4]
	.loc 1 165 2 view .LVU41
	ldr	r1, [r0, #8]
	.loc 1 164 1 view .LVU42
	mov	r4, r0
	.loc 1 165 2 view .LVU43
	ldrd	r2, r3, [r2]
	ldr	r0, [r0]
.LVL13:
	.loc 1 165 2 view .LVU44
	bl	buffer_write
.LVL14:
	.loc 1 169 2 is_stmt 1 view .LVU45
	.loc 1 169 8 is_stmt 0 view .LVU46
	ldr	r3, [r4, #4]
	.loc 1 169 32 view .LVU47
	movs	r2, #0
	str	r2, [r3]
	.loc 1 170 1 view .LVU48
	pop	{r4, pc}
	.loc 1 170 1 view .LVU49
	.cfi_endproc
.LFE504:
	.size	log_output_flush, .-log_output_flush
	.section	.text.out_func,"ax",%progbits
	.align	1
	.syntax unified
	.thumb
	.thumb_func
	.type	out_func, %function
out_func:
.LVL15:
.LFB500:
	.loc 1 102 1 is_stmt 1 view -0
	.cfi_startproc
	@ args = 0, pretend = 0, frame = 0
	@ frame_needed = 0, uses_anonymous_args = 0
	.loc 1 103 2 view .LVU51
	.loc 1 104 2 view .LVU52
	.loc 1 106 2 view .LVU53
	.loc 1 115 2 view .LVU54
	.loc 1 102 1 is_stmt 0 view .LVU55
	push	{r3, r4, r5, lr}
	.cfi_def_cfa_offset 16
	.cfi_offset 3, -16
	.cfi_offset 4, -12
	.cfi_offset 5, -8
	.cfi_offset 14, -4
	.loc 1 115 28 view .LVU56
	ldr	r3, [r1, #4]
	.loc 1 115 5 view .LVU57
	ldr	r2, [r3]
	ldr	r3, [r1, #12]
	cmp	r2, r3
	.loc 1 102 1 view .LVU58
	mov	r5, r0
	mov	r4, r1
	.loc 1 115 5 view .LVU59
	bne	.L15
	.loc 1 116 3 is_stmt 1 view .LVU60
	mov	r0, r1
.LVL16:
	.loc 1 116 3 is_stmt 0 view .LVU61
	bl	log_output_flush
.LVL17:
.L15:
	.loc 1 119 2 is_stmt 1 view .LVU62
.LBB34:
.LBI34:
	.file 2 "/home/g/mise-work/zmk-firmware/zmk/zephyr/include/zephyr/sys/atomic_builtin.h"
	.loc 2 123 28 view .LVU63
	.loc 2 125 2 view .LVU64
.LBB35:
.LBI35:
	.loc 2 86 28 view .LVU65
.LBB36:
	.loc 2 88 2 view .LVU66
	.loc 2 88 9 is_stmt 0 view .LVU67
	ldr	r3, [r4, #4]
	dmb	ish
.L16:
	ldrex	r2, [r3]
	adds	r1, r2, #1
	strex	r0, r1, [r3]
	cmp	r0, #0
	bne	.L16
	dmb	ish
.LVL18:
	.loc 2 88 9 view .LVU68
.LBE36:
.LBE35:
.LBE34:
	.loc 1 120 2 is_stmt 1 view .LVU69
	.loc 1 120 20 is_stmt 0 view .LVU70
	ldr	r3, [r4, #8]
	.loc 1 120 22 view .LVU71
	strb	r5, [r3, r2]
	.loc 1 122 4 is_stmt 1 view .LVU72
	.loc 1 122 5 view .LVU73
	.loc 1 124 2 view .LVU74
	.loc 1 125 1 is_stmt 0 view .LVU75
	movs	r0, #0
	pop	{r3, r4, r5, pc}
	.loc 1 125 1 view .LVU76
	.cfi_endproc
.LFE500:
	.size	out_func, .-out_func
	.section	.text.cr_out_func,"ax",%progbits
	.align	1
	.syntax unified
	.thumb
	.thumb_func
	.type	cr_out_func, %function
cr_out_func:
.LVL19:
.LFB501:
	.loc 1 128 1 is_stmt 1 view -0
	.cfi_startproc
	@ args = 0, pretend = 0, frame = 0
	@ frame_needed = 0, uses_anonymous_args = 0
	.loc 1 129 2 view .LVU78
	.loc 1 129 5 is_stmt 0 view .LVU79
	cmp	r0, #10
	.loc 1 128 1 view .LVU80
	push	{r3, r4, r5, lr}
	.cfi_def_cfa_offset 16
	.cfi_offset 3, -16
	.cfi_offset 4, -12
	.cfi_offset 5, -8
	.cfi_offset 14, -4
	.loc 1 128 1 view .LVU81
	mov	r4, r0
	mov	r5, r1
	.loc 1 129 5 view .LVU82
	bne	.L18
	.loc 1 130 3 is_stmt 1 view .LVU83
	movs	r0, #13
.LVL20:
	.loc 1 130 3 is_stmt 0 view .LVU84
	bl	out_func
.LVL21:
.L18:
	.loc 1 132 2 is_stmt 1 view .LVU85
	mov	r1, r5
	mov	r0, r4
	bl	out_func
.LVL22:
	.loc 1 134 2 view .LVU86
	.loc 1 135 1 is_stmt 0 view .LVU87
	movs	r0, #0
	pop	{r3, r4, r5, pc}
	.loc 1 135 1 view .LVU88
	.cfi_endproc
.LFE501:
	.size	cr_out_func, .-cr_out_func
	.section	.rodata.log_output_process.str1.1,"aMS",%progbits,1
.LC2:
	.ascii	"\033[0m\000"
.LC3:
	.ascii	"%s \000"
.LC4:
	.ascii	"[%08lu] \000"
.LC5:
	.ascii	"[%02u:%02u:%02u.%03u,%03u] \000"
.LC6:
	.ascii	"%s\000"
.LC7:
	.ascii	"<%s> \000"
.LC8:
	.ascii	"%s/\000"
.LC9:
	.ascii	"%s: \000"
.LC10:
	.ascii	" \000"
.LC11:
	.ascii	"%02x \000"
.LC12:
	.ascii	"   \000"
.LC13:
	.ascii	"|\000"
.LC14:
	.ascii	"%c\000"
	.section	.text.log_output_process,"ax",%progbits
	.align	1
	.global	log_output_process
	.syntax unified
	.thumb
	.thumb_func
	.type	log_output_process, %function
log_output_process:
.LVL23:
.LFB517:
	.loc 1 515 1 is_stmt 1 view -0
	.cfi_startproc
	@ args = 24, pretend = 0, frame = 24
	@ frame_needed = 0, uses_anonymous_args = 0
	.loc 1 515 1 is_stmt 0 view .LVU90
	push	{r4, r5, r6, r7, r8, r9, r10, fp, lr}
	.cfi_def_cfa_offset 36
	.cfi_offset 4, -36
	.cfi_offset 5, -32
	.cfi_offset 6, -28
	.cfi_offset 7, -24
	.cfi_offset 8, -20
	.cfi_offset 9, -16
	.cfi_offset 10, -12
	.cfi_offset 11, -8
	.cfi_offset 14, -4
	sub	sp, sp, #44
	.cfi_def_cfa_offset 80
	.loc 1 515 1 view .LVU91
	mov	r10, r3
	.loc 1 516 1 is_stmt 1 view .LVU92
.LVL24:
	.loc 1 517 2 view .LVU93
	.loc 1 518 2 view .LVU94
	.loc 1 520 2 view .LVU95
	.loc 1 515 1 is_stmt 0 view .LVU96
	ldrd	r7, r3, [sp, #88]
.LVL25:
	.loc 1 515 1 view .LVU97
	ldrb	fp, [sp, #84]	@ zero_extendqisi2
.LVL26:
	.loc 1 515 1 view .LVU98
	str	r3, [sp, #24]
	ldr	r3, [sp, #96]
	ldr	r6, [sp, #100]
	str	r2, [sp, #32]
	mov	r4, r0
	mov	r5, r1
	str	r3, [sp, #20]
	.loc 1 520 5 view .LVU99
	cmp	fp, #0
	beq	.L20
	.loc 1 521 3 is_stmt 1 view .LVU100
.LVL27:
.LBB73:
.LBI73:
	.loc 1 438 17 view .LVU101
.LBB74:
	.loc 1 447 4 view .LVU102
	.loc 1 447 5 view .LVU103
	.loc 1 448 2 view .LVU104
	.loc 1 450 1 view .LVU105
	.loc 1 451 6 is_stmt 0 view .LVU106
	and	r3, r6, #1
	str	r3, [sp, #36]
	.loc 1 452 23 view .LVU107
	and	r3, r6, #8
	str	r3, [sp, #28]
	.loc 1 455 40 view .LVU108
	bl	z_log_get_tag
.LVL28:
	.loc 1 450 20 view .LVU109
	and	r9, r6, #2
.LVL29:
	.loc 1 451 1 is_stmt 1 view .LVU110
	.loc 1 452 1 view .LVU111
	.loc 1 453 1 view .LVU112
	.loc 1 455 2 view .LVU113
	.loc 1 457 2 view .LVU114
	.loc 1 473 2 view .LVU115
	.loc 1 473 5 is_stmt 0 view .LVU116
	mov	r2, r0
	cmp	r0, #0
	beq	.L57
	.loc 1 474 3 is_stmt 1 view .LVU117
	.loc 1 474 13 is_stmt 0 view .LVU118
	ldr	r1, .L82
	mov	r0, r4
.LVL30:
	.loc 1 474 13 view .LVU119
	bl	print_formatted
.LVL31:
	.loc 1 474 13 view .LVU120
	mov	r8, r0
.LVL32:
.L21:
	.loc 1 477 2 is_stmt 1 view .LVU121
	.loc 1 477 5 is_stmt 0 view .LVU122
	cmp	r9, #0
	beq	.L22
	.loc 1 478 3 is_stmt 1 view .LVU123
.LVL33:
.LBB75:
.LBI75:
	.loc 1 212 12 view .LVU124
.LBB76:
	.loc 1 215 2 view .LVU125
	.loc 1 216 1 view .LVU126
	.loc 1 223 2 view .LVU127
	.loc 1 223 5 is_stmt 0 view .LVU128
	tst	r6, #68
	bne	.L23
	.loc 1 225 3 is_stmt 1 view .LVU129
	.loc 1 225 12 is_stmt 0 view .LVU130
	ldr	r1, .L82+4
	mov	r2, r5
	mov	r0, r4
	bl	print_formatted
.LVL34:
.L24:
	.loc 1 299 2 is_stmt 1 view .LVU131
	.loc 1 299 2 is_stmt 0 view .LVU132
.LBE76:
.LBE75:
	.loc 1 478 10 view .LVU133
	add	r8, r8, r0
.LVL35:
.L22:
	.loc 1 481 2 is_stmt 1 view .LVU134
	.loc 1 489 3 view .LVU135
.LBB79:
.LBI79:
	.loc 1 312 13 view .LVU136
	.loc 1 315 2 view .LVU137
.LBB80:
.LBI80:
	.loc 1 302 13 view .LVU138
.LBB81:
	.loc 1 305 2 view .LVU139
	.loc 1 305 5 is_stmt 0 view .LVU140
	ldr	r3, [sp, #36]
	cbz	r3, .L25
.LVL36:
.LBB82:
.LBI82:
	.loc 1 302 13 is_stmt 1 view .LVU141
.LBB83:
.LBB84:
	.loc 1 306 3 view .LVU142
	.loc 1 306 43 is_stmt 0 view .LVU143
	ldr	r3, .L82+8
	.loc 1 308 3 view .LVU144
	ldr	r1, .L82+12
	.loc 1 306 43 view .LVU145
	ldr	r2, [r3, fp, lsl #2]
.LVL37:
	.loc 1 308 3 is_stmt 1 view .LVU146
	ldr	r3, .L82+16
	mov	r0, r4
	cmp	r2, #0
	it	eq
	moveq	r2, r3
.LVL38:
	.loc 1 308 3 is_stmt 0 view .LVU147
	bl	print_formatted
.LVL39:
.L25:
	.loc 1 308 3 view .LVU148
.LBE84:
.LBE83:
.LBE82:
.LBE81:
.LBE80:
.LBE79:
	.loc 1 492 2 is_stmt 1 view .LVU149
.LBB85:
.LBI85:
	.loc 1 325 12 view .LVU150
.LBB86:
	.loc 1 334 2 view .LVU151
	.loc 1 336 2 view .LVU152
	.loc 1 336 5 is_stmt 0 view .LVU153
	ldr	r3, [sp, #28]
	cmp	r3, #0
	beq	.L59
	.loc 1 337 3 is_stmt 1 view .LVU154
	.loc 1 337 53 is_stmt 0 view .LVU155
	ldr	r3, .L82+20
	.loc 1 337 12 view .LVU156
	ldr	r1, .L82+24
	ldr	r2, [r3, fp, lsl #2]
	mov	r0, r4
	bl	print_formatted
.LVL40:
	mov	r5, r0
.LVL41:
.L27:
	.loc 1 340 2 is_stmt 1 view .LVU157
	.loc 1 349 2 view .LVU158
	.loc 1 349 5 is_stmt 0 view .LVU159
	ldr	r3, [sp, #32]
	cbz	r3, .L28
	.loc 1 350 3 is_stmt 1 view .LVU160
	.loc 1 350 12 is_stmt 0 view .LVU161
	ldr	r1, .L82+28
	mov	r2, r3
	mov	r0, r4
	bl	print_formatted
.LVL42:
	.loc 1 350 9 view .LVU162
	add	r5, r5, r0
.LVL43:
.L28:
	.loc 1 353 2 is_stmt 1 view .LVU163
	.loc 1 353 5 is_stmt 0 view .LVU164
	cmp	r10, #0
	beq	.L29
	.loc 1 354 3 is_stmt 1 view .LVU165
	.loc 1 354 12 is_stmt 0 view .LVU166
	ldr	r1, .L82+32
	mov	r2, r10
	mov	r0, r4
	bl	print_formatted
.LVL44:
	.loc 1 354 9 view .LVU167
	add	r5, r5, r0
.LVL45:
.L29:
	.loc 1 361 2 is_stmt 1 view .LVU168
	.loc 1 361 2 is_stmt 0 view .LVU169
.LBE86:
.LBE85:
	.loc 1 492 9 view .LVU170
	add	r5, r5, r8
.LVL46:
	.loc 1 494 2 is_stmt 1 view .LVU171
	.loc 1 494 2 is_stmt 0 view .LVU172
.LBE74:
.LBE73:
	.loc 1 523 3 is_stmt 1 view .LVU173
	.loc 1 533 2 view .LVU174
	.loc 1 533 5 is_stmt 0 view .LVU175
	cmp	r7, #0
	bne	.L60
.LBB91:
	.loc 1 536 3 is_stmt 1 view .LVU176
	.loc 1 537 5 view .LVU177
	.loc 1 537 6 view .LVU178
.LBE91:
	.loc 1 540 2 view .LVU179
	.loc 1 540 5 is_stmt 0 view .LVU180
	ldr	r3, [sp, #20]
	cmp	r3, #0
	bne	.L33
.LVL47:
.L55:
	.loc 1 545 3 is_stmt 1 view .LVU181
.LBB94:
.LBI94:
	.loc 1 497 13 view .LVU182
.LBB95:
	.loc 1 500 2 view .LVU183
.LBB96:
.LBI96:
	.loc 1 318 13 view .LVU184
	.loc 1 321 2 view .LVU185
.LBB97:
.LBI97:
	.loc 1 302 13 view .LVU186
.LBB98:
	.loc 1 305 2 view .LVU187
	.loc 1 305 5 is_stmt 0 view .LVU188
	lsls	r3, r6, #31
	bmi	.L36
.L37:
.LVL48:
	.loc 1 305 5 view .LVU189
.LBE98:
.LBE97:
.LBE96:
	.loc 1 502 2 is_stmt 1 view .LVU190
	mov	r1, r6
	mov	r0, r4
	bl	newline_print
.LVL49:
	.loc 1 503 1 is_stmt 0 view .LVU191
	b	.L34
.LVL50:
.L57:
	.loc 1 503 1 view .LVU192
.LBE95:
.LBE94:
.LBB106:
.LBB90:
	.loc 1 448 11 view .LVU193
	mov	r8, r0
	b	.L21
.LVL51:
.L23:
.LBB88:
.LBB78:
	.loc 1 229 9 is_stmt 1 view .LVU194
	.loc 1 229 18 is_stmt 0 view .LVU195
	ldr	r3, .L82+36
	ldr	r0, [r3]
	.loc 1 229 12 view .LVU196
	cmp	r0, #0
	beq	.L24
.LBB77:
	.loc 1 231 3 is_stmt 1 view .LVU197
	.loc 1 235 3 view .LVU198
	.loc 1 236 3 view .LVU199
	.loc 1 237 3 view .LVU200
	.loc 1 238 3 view .LVU201
	.loc 1 239 3 view .LVU202
	.loc 1 240 3 view .LVU203
	.loc 1 242 3 view .LVU204
	.loc 1 242 13 is_stmt 0 view .LVU205
	ldr	r3, .L82+40
	.loc 1 251 19 view .LVU206
	mov	r9, #1000
.LVL52:
	.loc 1 242 13 view .LVU207
	ldr	r3, [r3]
	udiv	r5, r5, r3
.LVL53:
	.loc 1 243 3 is_stmt 1 view .LVU208
	mov	r1, #3600
	.loc 1 243 17 is_stmt 0 view .LVU209
	udiv	r3, r5, r0
.LVL54:
	.loc 1 244 3 is_stmt 1 view .LVU210
	.loc 1 245 3 view .LVU211
	.loc 1 246 3 view .LVU212
	.loc 1 250 13 is_stmt 0 view .LVU213
	mls	r5, r0, r3, r5
.LVL55:
	.loc 1 251 19 view .LVU214
	mul	r5, r9, r5
	.loc 1 247 8 view .LVU215
	mov	ip, #60
	udiv	r2, r3, r1
.LVL56:
	.loc 1 247 8 view .LVU216
	mls	r1, r1, r2, r3
.LVL57:
	.loc 1 247 3 is_stmt 1 view .LVU217
	.loc 1 248 3 view .LVU218
	.loc 1 250 3 view .LVU219
	.loc 1 251 3 view .LVU220
	.loc 1 252 3 view .LVU221
	.loc 1 254 3 view .LVU222
	.loc 1 256 10 view .LVU223
	.loc 1 281 4 view .LVU224
	.loc 1 290 5 view .LVU225
	.loc 1 252 14 is_stmt 0 view .LVU226
	udiv	lr, r5, r0
.LVL58:
	.loc 1 247 8 view .LVU227
	udiv	r3, r1, ip
.LVL59:
	.loc 1 252 14 view .LVU228
	mls	r5, r0, lr, r5
.LVL60:
	.loc 1 290 14 view .LVU229
	mls	r1, ip, r3, r1
.LVL61:
	.loc 1 252 14 view .LVU230
	mul	r5, r9, r5
	.loc 1 290 14 view .LVU231
	str	r1, [sp]
	.loc 1 252 6 view .LVU232
	udiv	r5, r5, r0
	.loc 1 290 14 view .LVU233
	ldr	r1, .L82+44
	strd	lr, r5, [sp, #4]
	mov	r0, r4
.LVL62:
	.loc 1 290 14 view .LVU234
	bl	print_formatted
.LVL63:
	.loc 1 290 14 view .LVU235
	b	.L24
.LVL64:
.L59:
	.loc 1 290 14 view .LVU236
.LBE77:
.LBE78:
.LBE88:
.LBB89:
.LBB87:
	.loc 1 334 6 view .LVU237
	ldr	r5, [sp, #28]
	b	.L27
.LVL65:
.L20:
	.loc 1 334 6 view .LVU238
.LBE87:
.LBE89:
.LBE90:
.LBE106:
	.loc 1 525 3 is_stmt 1 view .LVU239
	.loc 1 530 3 view .LVU240
	.loc 1 530 6 is_stmt 0 view .LVU241
	cmp	r10, #1
	bne	.L32
	.loc 1 533 2 is_stmt 1 view .LVU242
	.loc 1 533 5 is_stmt 0 view .LVU243
	cmp	r7, #0
	bne	.L61
.L35:
.LBB107:
	.loc 1 536 3 is_stmt 1 view .LVU244
	.loc 1 537 5 view .LVU245
	.loc 1 537 6 view .LVU246
.LBE107:
	.loc 1 540 2 view .LVU247
	.loc 1 540 5 is_stmt 0 view .LVU248
	ldr	r3, [sp, #20]
	cmp	r3, #0
	beq	.L34
	.loc 1 525 17 view .LVU249
	movs	r5, #0
	b	.L33
.L32:
	.loc 1 533 2 is_stmt 1 view .LVU250
	.loc 1 533 5 is_stmt 0 view .LVU251
	cmp	r7, #0
	beq	.L35
	.loc 1 530 6 view .LVU252
	ldr	r0, .L82+48
.LVL66:
	.loc 1 530 6 view .LVU253
	b	.L81
.LVL67:
.L60:
	.loc 1 523 6 view .LVU254
	ldr	r0, .L82+52
.LVL68:
.L30:
.LBB108:
	.loc 1 534 3 is_stmt 1 view .LVU255
.LBB92:
.LBI92:
	.file 3 "/home/g/mise-work/zmk-firmware/zmk/zephyr/include/zephyr/sys/cbprintf.h"
	.loc 3 803 5 view .LVU256
.LBB93:
	.loc 3 816 2 view .LVU257
	.loc 3 816 9 is_stmt 0 view .LVU258
	ldr	r1, .L82+56
	mov	r3, r7
	mov	r2, r4
	bl	cbpprintf_external
.LVL69:
	.loc 3 816 9 view .LVU259
.LBE93:
.LBE92:
	.loc 1 536 3 is_stmt 1 view .LVU260
	.loc 1 537 5 view .LVU261
	.loc 1 537 6 view .LVU262
.LBE108:
	.loc 1 540 2 view .LVU263
	.loc 1 540 5 is_stmt 0 view .LVU264
	ldr	r3, [sp, #20]
	cmp	r3, #0
	beq	.L38
.L33:
	.loc 1 541 3 is_stmt 1 view .LVU265
.LVL70:
.LBB109:
.LBI109:
	.loc 1 422 13 view .LVU266
.LBB110:
.LBB111:
.LBB112:
.LBB113:
	.loc 1 389 3 is_stmt 0 view .LVU267
	ldr	r8, .L82+76
.LBE113:
.LBB114:
	.loc 1 398 4 view .LVU268
	ldr	r9, .L82+80
.LVL71:
.L54:
	.loc 1 398 4 view .LVU269
.LBE114:
.LBE112:
.LBE111:
	.loc 1 426 2 is_stmt 1 view .LVU270
	.loc 1 428 2 view .LVU271
	.loc 1 429 3 view .LVU272
	.loc 1 429 10 is_stmt 0 view .LVU273
	ldr	r7, [sp, #20]
.LBB128:
.LBB124:
	.loc 1 386 2 view .LVU274
	mov	r1, r6
.LBE124:
.LBE128:
	.loc 1 429 10 view .LVU275
	cmp	r7, #16
.LBB129:
.LBB125:
	.loc 1 386 2 view .LVU276
	mov	r0, r4
.LBE125:
.LBE129:
	.loc 1 429 10 view .LVU277
	it	cs
	movcs	r7, #16
.LVL72:
	.loc 1 431 3 is_stmt 1 view .LVU278
.LBB130:
.LBI111:
	.loc 1 382 13 view .LVU279
.LBB126:
	.loc 1 386 2 view .LVU280
	bl	newline_print
.LVL73:
	.loc 1 388 2 view .LVU281
.LBB115:
	.loc 1 388 7 view .LVU282
	.loc 1 388 11 is_stmt 0 view .LVU283
	mov	r10, #0
.LVL74:
.L39:
	.loc 1 388 20 is_stmt 1 view .LVU284
	cmp	r5, r10
	bgt	.L40
.LVL75:
	.loc 1 388 20 is_stmt 0 view .LVU285
.LBE115:
.LBB116:
	.loc 1 393 3 is_stmt 1 view .LVU286
	.loc 1 398 4 view .LVU287
	ldr	r3, [sp, #24]
	mov	r1, r9
	ldrb	r2, [r3]	@ zero_extendqisi2
	mov	r0, r4
	bl	print_formatted
.LVL76:
	.loc 1 392 27 view .LVU288
	.loc 1 392 20 view .LVU289
	.loc 1 392 27 is_stmt 0 view .LVU290
	mov	r10, #1
.LVL77:
.L41:
	.loc 1 393 3 is_stmt 1 view .LVU291
	.loc 1 393 13 is_stmt 0 view .LVU292
	tst	r10, #7
	bne	.L46
	.loc 1 394 4 is_stmt 1 view .LVU293
	mov	r1, r8
	mov	r0, r4
	bl	print_formatted
.LVL78:
.L46:
	.loc 1 397 3 view .LVU294
	.loc 1 397 6 is_stmt 0 view .LVU295
	cmp	r7, r10
	bls	.L42
	.loc 1 398 4 is_stmt 1 view .LVU296
	ldr	r3, [sp, #24]
	mov	r1, r9
	ldrb	r2, [r3, r10]	@ zero_extendqisi2
	mov	r0, r4
	bl	print_formatted
.LVL79:
.L43:
	.loc 1 392 27 view .LVU297
	add	r10, r10, #1
.LVL80:
	.loc 1 392 20 view .LVU298
	cmp	r10, #16
	bne	.L41
.LBE116:
	.loc 1 404 2 view .LVU299
	ldr	r1, .L82+60
	mov	r0, r4
.LBB117:
	.loc 1 406 11 is_stmt 0 view .LVU300
	mov	r10, #0
.LVL81:
	.loc 1 406 11 view .LVU301
.LBE117:
	.loc 1 404 2 view .LVU302
	bl	print_formatted
.LVL82:
	.loc 1 406 2 is_stmt 1 view .LVU303
.LBB121:
	.loc 1 406 7 view .LVU304
	.loc 1 406 20 view .LVU305
	.loc 1 407 3 view .LVU306
	.loc 1 411 9 is_stmt 0 view .LVU307
	mov	r2, r10
.LVL83:
.L47:
.LBB118:
	.loc 1 412 4 is_stmt 1 view .LVU308
	.loc 1 412 18 is_stmt 0 view .LVU309
	ldr	r3, [sp, #24]
	ldrb	r2, [r3, r2]	@ zero_extendqisi2
.LVL84:
	.loc 1 414 4 is_stmt 1 view .LVU310
.LBB119:
.LBI119:
	.file 4 "/home/g/zephyr-sdk-0.16.3/arm-zephyr-eabi/picolibc/include/ctype.h"
	.loc 4 129 22 view .LVU311
.LBB120:
	.loc 4 129 46 view .LVU312
	.loc 4 129 46 is_stmt 0 view .LVU313
.LBE120:
.LBE119:
	.loc 1 414 4 view .LVU314
	ldr	r3, .L82+64
	ldrb	r1, [r3, r2]	@ zero_extendqisi2
	tst	r1, #151
	it	eq
	moveq	r2, #46
.LVL85:
	.loc 1 414 4 view .LVU315
	ldr	r1, .L82+68
	mov	r0, r4
	bl	print_formatted
.LVL86:
.L50:
	.loc 1 414 4 view .LVU316
.LBE118:
	.loc 1 406 27 is_stmt 1 view .LVU317
	add	r10, r10, #1
.LVL87:
	.loc 1 406 20 view .LVU318
	cmp	r10, #16
	beq	.L51
	.loc 1 407 3 view .LVU319
	.loc 1 407 13 is_stmt 0 view .LVU320
	tst	r10, #7
	bne	.L53
	.loc 1 408 4 is_stmt 1 view .LVU321
	mov	r1, r8
	mov	r0, r4
	bl	print_formatted
.LVL88:
.L53:
	.loc 1 411 3 view .LVU322
	.loc 1 411 6 is_stmt 0 view .LVU323
	cmp	r7, r10
	mov	r2, r10
	bhi	.L47
.LVL89:
	.loc 1 417 4 is_stmt 1 view .LVU324
	mov	r1, r8
	mov	r0, r4
	bl	print_formatted
.LVL90:
	.loc 1 417 4 is_stmt 0 view .LVU325
	b	.L50
.LVL91:
.L61:
	.loc 1 417 4 view .LVU326
.LBE121:
.LBE126:
.LBE130:
.LBE110:
.LBE109:
	.loc 1 530 6 view .LVU327
	ldr	r0, .L82+52
.LVL92:
.L81:
	.loc 1 525 17 view .LVU328
	mov	r5, fp
	b	.L30
.LVL93:
.L40:
.LBB133:
.LBB132:
.LBB131:
.LBB127:
.LBB122:
	.loc 1 389 3 is_stmt 1 view .LVU329
	mov	r1, r8
	mov	r0, r4
	bl	print_formatted
.LVL94:
	.loc 1 388 38 view .LVU330
	add	r10, r10, #1
.LVL95:
	.loc 1 388 38 is_stmt 0 view .LVU331
	b	.L39
.LVL96:
.L42:
	.loc 1 388 38 view .LVU332
.LBE122:
.LBB123:
	.loc 1 400 4 is_stmt 1 view .LVU333
	ldr	r1, .L82+72
	mov	r0, r4
	bl	print_formatted
.LVL97:
	b	.L43
.LVL98:
.L51:
	.loc 1 400 4 is_stmt 0 view .LVU334
.LBE123:
.LBE127:
.LBE131:
	.loc 1 433 3 is_stmt 1 view .LVU335
	.loc 1 433 8 is_stmt 0 view .LVU336
	ldr	r3, [sp, #24]
	add	r3, r3, r7
	str	r3, [sp, #24]
.LVL99:
	.loc 1 434 3 is_stmt 1 view .LVU337
	.loc 1 435 11 view .LVU338
	ldr	r3, [sp, #20]
.LVL100:
	.loc 1 435 11 is_stmt 0 view .LVU339
	subs	r3, r3, r7
.LVL101:
	.loc 1 435 11 view .LVU340
	str	r3, [sp, #20]
	bne	.L54
.LVL102:
.L38:
	.loc 1 435 11 view .LVU341
.LBE132:
.LBE133:
	.loc 1 544 2 is_stmt 1 view .LVU342
	.loc 1 544 5 is_stmt 0 view .LVU343
	cmp	fp, #0
	bne	.L55
.L34:
	.loc 1 548 2 is_stmt 1 view .LVU344
	mov	r0, r4
	.loc 1 549 1 is_stmt 0 view .LVU345
	add	sp, sp, #44
	.cfi_remember_state
	.cfi_def_cfa_offset 36
	@ sp needed
	pop	{r4, r5, r6, r7, r8, r9, r10, fp, lr}
	.cfi_restore 14
	.cfi_restore 11
	.cfi_restore 10
	.cfi_restore 9
	.cfi_restore 8
	.cfi_restore 7
	.cfi_restore 6
	.cfi_restore 5
	.cfi_restore 4
	.cfi_def_cfa_offset 0
.LVL103:
	.loc 1 548 2 view .LVU346
	b	log_output_flush
.LVL104:
.L36:
	.cfi_restore_state
.LBB134:
.LBB105:
.LBB104:
.LBB103:
.LBB102:
.LBB99:
.LBI99:
	.loc 1 302 13 is_stmt 1 view .LVU347
.LBB100:
.LBB101:
	.loc 1 306 3 view .LVU348
	.loc 1 308 3 view .LVU349
	ldr	r2, .L82+16
	ldr	r1, .L82+12
	mov	r0, r4
	bl	print_formatted
.LVL105:
.LBE101:
	.loc 1 310 1 is_stmt 0 view .LVU350
	b	.L37
.L83:
	.align	2
.L82:
	.word	.LC3
	.word	.LC4
	.word	colors
	.word	.LC6
	.word	.LC2
	.word	severity
	.word	.LC7
	.word	.LC8
	.word	.LC9
	.word	freq
	.word	timestamp_div
	.word	.LC5
	.word	cr_out_func
	.word	out_func
	.word	cbvprintf
	.word	.LC13
	.word	_ctype_+1
	.word	.LC14
	.word	.LC12
	.word	.LC10
	.word	.LC11
.LBE100:
.LBE99:
.LBE102:
.LBE103:
.LBE104:
.LBE105:
.LBE134:
	.cfi_endproc
.LFE517:
	.size	log_output_process, .-log_output_process
	.section	.text.log_output_msg_process,"ax",%progbits
	.align	1
	.global	log_output_msg_process
	.syntax unified
	.thumb
	.thumb_func
	.type	log_output_msg_process, %function
log_output_msg_process:
.LVL106:
.LFB518:
	.loc 1 553 1 is_stmt 1 view -0
	.cfi_startproc
	@ args = 0, pretend = 0, frame = 0
	@ frame_needed = 0, uses_anonymous_args = 0
	.loc 1 554 2 view .LVU352
.LBB135:
.LBI135:
	.file 5 "/home/g/mise-work/zmk-firmware/zmk/zephyr/include/zephyr/logging/log_msg.h"
	.loc 5 656 31 view .LVU353
.LBB136:
	.loc 5 658 2 view .LVU354
.LBE136:
.LBE135:
	.loc 1 553 1 is_stmt 0 view .LVU355
	push	{r4, r5, r6, r7, r8, lr}
	.cfi_def_cfa_offset 24
	.cfi_offset 4, -24
	.cfi_offset 5, -20
	.cfi_offset 6, -16
	.cfi_offset 7, -12
	.cfi_offset 8, -8
	.cfi_offset 14, -4
.LBB138:
.LBB139:
	.loc 5 636 22 view .LVU356
	ldrh	r7, [r1]
.LBE139:
.LBE138:
.LBB142:
.LBB143:
.LBB144:
	.loc 5 647 17 view .LVU357
	ldr	r3, [r1, #4]
.LBE144:
.LBE143:
.LBE142:
.LBB149:
.LBB137:
	.loc 5 658 17 view .LVU358
	ldr	r6, [r1, #8]
.LVL107:
	.loc 5 658 17 view .LVU359
.LBE137:
.LBE149:
	.loc 1 555 2 is_stmt 1 view .LVU360
.LBB150:
.LBI138:
	.loc 5 634 23 view .LVU361
.LBB140:
	.loc 5 636 2 view .LVU362
.LBE140:
.LBE150:
	.loc 1 553 1 is_stmt 0 view .LVU363
	sub	sp, sp, #24
	.cfi_def_cfa_offset 48
	.loc 1 553 1 view .LVU364
	mov	r5, r0
	mov	r4, r1
	mov	r8, r2
.LBB151:
.LBB141:
	.loc 5 636 22 view .LVU365
	ubfx	r7, r7, #6, #3
.LVL108:
	.loc 5 636 22 view .LVU366
.LBE141:
.LBE151:
	.loc 1 556 2 is_stmt 1 view .LVU367
.LBB152:
.LBI152:
	.loc 5 623 23 view .LVU368
.LBB153:
	.loc 5 625 2 view .LVU369
	.loc 5 625 2 is_stmt 0 view .LVU370
.LBE153:
.LBE152:
	.loc 1 557 2 is_stmt 1 view .LVU371
	.loc 1 559 2 view .LVU372
.LBB155:
	.loc 1 563 3 view .LVU373
.LBB146:
.LBI143:
	.loc 5 645 27 view .LVU374
.LBB145:
	.loc 5 647 2 view .LVU375
	.loc 5 647 2 is_stmt 0 view .LVU376
.LBE145:
.LBE146:
	.loc 1 565 3 is_stmt 1 view .LVU377
	.loc 1 565 6 is_stmt 0 view .LVU378
	cbz	r3, .L85
	.loc 1 566 4 is_stmt 1 view .LVU379
.LVL109:
.LBB147:
.LBI147:
	.file 6 "/home/g/mise-work/zmk-firmware/zmk/zephyr/include/zephyr/logging/log_core.h"
	.loc 6 427 24 view .LVU380
.LBB148:
	.loc 6 430 2 view .LVU381
	.loc 6 430 32 is_stmt 0 view .LVU382
	ldr	r2, .L92
.LVL110:
	.loc 6 430 32 view .LVU383
	subs	r3, r3, r2
.LVL111:
	.loc 6 430 32 view .LVU384
.LBE148:
.LBE147:
	.loc 1 566 14 view .LVU385
	sbfx	r1, r3, #3, #16
.LVL112:
	.loc 1 566 14 view .LVU386
.LBE155:
	.loc 1 574 2 is_stmt 1 view .LVU387
	.loc 1 574 81 is_stmt 0 view .LVU388
	cmp	r1, #0
	blt	.L87
.LBB156:
.LBB154:
	.loc 5 625 22 discriminator 1 view .LVU389
	ldrb	r0, [r4]	@ zero_extendqisi2
.LVL113:
	.loc 5 625 22 discriminator 1 view .LVU390
.LBE154:
.LBE156:
	.loc 1 574 39 discriminator 1 view .LVU391
	ubfx	r0, r0, #3, #3
	bl	log_source_name_get
.LVL114:
	.loc 1 574 39 discriminator 1 view .LVU392
	mov	r3, r0
.LVL115:
.L85:
	.loc 1 575 2 is_stmt 1 discriminator 4 view .LVU393
	.loc 1 576 2 discriminator 4 view .LVU394
.LBB157:
.LBI157:
	.loc 5 700 24 discriminator 4 view .LVU395
.LBB158:
	.loc 5 702 2 discriminator 4 view .LVU396
	.loc 5 702 22 is_stmt 0 discriminator 4 view .LVU397
	mov	r1, r4
.LBE158:
.LBE157:
.LBB161:
.LBB162:
	.loc 5 687 22 discriminator 4 view .LVU398
	ldrh	r0, [r4, #2]
.LBE162:
.LBE161:
.LBB165:
.LBB159:
	.loc 5 702 22 discriminator 4 view .LVU399
	ldr	r2, [r1], #16
.LBE159:
.LBE165:
	.loc 1 579 2 discriminator 4 view .LVU400
	str	r7, [sp, #4]
.LBB166:
.LBB160:
	.loc 5 702 22 discriminator 4 view .LVU401
	ubfx	r2, r2, #9, #11
.LVL116:
	.loc 5 704 2 is_stmt 1 discriminator 4 view .LVU402
	.loc 5 704 2 is_stmt 0 discriminator 4 view .LVU403
.LBE160:
.LBE166:
	.loc 1 577 2 is_stmt 1 discriminator 4 view .LVU404
.LBB167:
.LBI161:
	.loc 5 685 24 discriminator 4 view .LVU405
.LBB163:
	.loc 5 687 2 discriminator 4 view .LVU406
.LBE163:
.LBE167:
	.loc 1 579 2 is_stmt 0 discriminator 4 view .LVU407
	cmp	r2, #0
.LBB168:
.LBB164:
	.loc 5 689 19 discriminator 4 view .LVU408
	add	r4, r1, r2
.LVL117:
	.loc 5 687 22 discriminator 4 view .LVU409
	ubfx	r0, r0, #4, #12
.LVL118:
	.loc 5 689 2 is_stmt 1 discriminator 4 view .LVU410
	.loc 5 689 2 is_stmt 0 discriminator 4 view .LVU411
.LBE164:
.LBE168:
	.loc 1 579 2 is_stmt 1 discriminator 4 view .LVU412
	it	eq
	moveq	r1, #0
.LVL119:
	.loc 1 579 2 is_stmt 0 discriminator 4 view .LVU413
	movs	r2, #0
.LVL120:
	.loc 1 579 2 discriminator 4 view .LVU414
	strd	r0, r8, [sp, #16]
	strd	r1, r4, [sp, #8]
	str	r2, [sp]
	mov	r1, r6
	mov	r0, r5
.LVL121:
	.loc 1 579 2 discriminator 4 view .LVU415
	bl	log_output_process
.LVL122:
	.loc 1 581 1 discriminator 4 view .LVU416
	add	sp, sp, #24
	.cfi_remember_state
	.cfi_def_cfa_offset 24
	@ sp needed
	pop	{r4, r5, r6, r7, r8, pc}
.LVL123:
.L87:
	.cfi_restore_state
	.loc 1 574 81 view .LVU417
	movs	r3, #0
	b	.L85
.L93:
	.align	2
.L92:
	.word	_log_const_list_start
	.cfi_endproc
.LFE518:
	.size	log_output_msg_process, .-log_output_msg_process
	.section	.rodata.log_output_dropped_process.str1.1,"aMS",%progbits,1
.LC15:
	.ascii	"%d\000"
	.section	.text.log_output_dropped_process,"ax",%progbits
	.align	1
	.global	log_output_dropped_process
	.syntax unified
	.thumb
	.thumb_func
	.type	log_output_dropped_process, %function
log_output_dropped_process:
.LVL124:
.LFB519:
	.loc 1 584 1 is_stmt 1 view -0
	.cfi_startproc
	@ args = 0, pretend = 0, frame = 8
	@ frame_needed = 0, uses_anonymous_args = 0
	.loc 1 585 2 view .LVU419
	.loc 1 586 2 view .LVU420
	.loc 1 587 2 view .LVU421
	.loc 1 588 2 view .LVU422
	.loc 1 590 2 view .LVU423
	.loc 1 584 1 is_stmt 0 view .LVU424
	push	{r0, r1, r4, r5, r6, lr}
	.cfi_def_cfa_offset 24
	.cfi_offset 4, -16
	.cfi_offset 5, -12
	.cfi_offset 6, -8
	.cfi_offset 14, -4
	.loc 1 593 8 view .LVU425
	movw	r3, #9999
	cmp	r3, r1
	it	cs
	movcs	r3, r1
	.loc 1 590 20 view .LVU426
	ldr	r5, [r0]
.LVL125:
	.loc 1 592 2 is_stmt 1 view .LVU427
	.loc 1 593 2 view .LVU428
	.loc 1 593 8 is_stmt 0 view .LVU429
	ldr	r2, .L95
	.loc 1 584 1 view .LVU430
	mov	r4, r0
	.loc 1 593 8 view .LVU431
	movs	r1, #5
.LVL126:
	.loc 1 593 8 view .LVU432
	mov	r0, sp
.LVL127:
	.loc 1 593 8 view .LVU433
	bl	snprintf
.LVL128:
	.loc 1 595 2 view .LVU434
	ldr	r3, [r4, #4]
	ldr	r1, .L95+4
	ldr	r3, [r3, #4]
	.loc 1 593 8 view .LVU435
	mov	r6, r0
.LVL129:
	.loc 1 595 2 is_stmt 1 view .LVU436
	movs	r2, #11
	mov	r0, r5
.LVL130:
	.loc 1 595 2 is_stmt 0 view .LVU437
	bl	buffer_write
.LVL131:
	.loc 1 597 2 is_stmt 1 view .LVU438
	ldr	r3, [r4, #4]
	mov	r2, r6
	mov	r1, sp
	mov	r0, r5
	ldr	r3, [r3, #4]
	bl	buffer_write
.LVL132:
	.loc 1 598 2 view .LVU439
	ldr	r3, [r4, #4]
	ldr	r1, .L95+8
	ldr	r3, [r3, #4]
	movs	r2, #27
	mov	r0, r5
	bl	buffer_write
.LVL133:
	.loc 1 600 1 is_stmt 0 view .LVU440
	add	sp, sp, #8
	.cfi_def_cfa_offset 16
	@ sp needed
	pop	{r4, r5, r6, pc}
.LVL134:
.L96:
	.loc 1 600 1 view .LVU441
	.align	2
.L95:
	.word	.LC15
	.word	prefix.1
	.word	postfix.0
	.cfi_endproc
.LFE519:
	.size	log_output_dropped_process, .-log_output_dropped_process
	.section	.text.log_output_timestamp_freq_set,"ax",%progbits
	.align	1
	.global	log_output_timestamp_freq_set
	.syntax unified
	.thumb
	.thumb_func
	.type	log_output_timestamp_freq_set, %function
log_output_timestamp_freq_set:
.LVL135:
.LFB520:
	.loc 1 603 1 is_stmt 1 view -0
	.cfi_startproc
	@ args = 0, pretend = 0, frame = 0
	@ frame_needed = 0, uses_anonymous_args = 0
	@ link register save eliminated.
	.loc 1 604 2 view .LVU443
	.loc 1 608 2 view .LVU444
	.loc 1 608 19 is_stmt 0 view .LVU445
	ldr	r2, .L102
	.loc 1 608 8 view .LVU446
	movs	r1, #0
	movs	r3, #1
.L98:
	.loc 1 608 19 is_stmt 1 view .LVU447
	cmp	r0, r2
	bhi	.L99
	.loc 1 608 19 is_stmt 0 view .LVU448
	ldr	r2, .L102+4
	cbnz	r1, .L100
	.loc 1 604 16 view .LVU449
	movs	r3, #1
.L100:
	str	r3, [r2]
	.loc 1 613 2 is_stmt 1 view .LVU450
	.loc 1 613 7 is_stmt 0 view .LVU451
	ldr	r3, .L102+8
	str	r0, [r3]
	.loc 1 614 1 view .LVU452
	bx	lr
.L99:
	.loc 1 609 3 is_stmt 1 view .LVU453
	.loc 1 609 13 is_stmt 0 view .LVU454
	lsrs	r0, r0, #1
.LVL136:
	.loc 1 610 3 is_stmt 1 view .LVU455
	.loc 1 610 17 is_stmt 0 view .LVU456
	lsls	r3, r3, #1
	movs	r1, #1
	b	.L98
.L103:
	.align	2
.L102:
	.word	1000000
	.word	timestamp_div
	.word	freq
	.cfi_endproc
.LFE520:
	.size	log_output_timestamp_freq_set, .-log_output_timestamp_freq_set
	.global	__aeabi_uldivmod
	.global	__aeabi_ldivmod
	.section	.text.log_output_timestamp_to_us,"ax",%progbits
	.align	1
	.global	log_output_timestamp_to_us
	.syntax unified
	.thumb
	.thumb_func
	.type	log_output_timestamp_to_us, %function
log_output_timestamp_to_us:
.LVL137:
.LFB521:
	.loc 1 617 1 is_stmt 1 view -0
	.cfi_startproc
	@ args = 0, pretend = 0, frame = 0
	@ frame_needed = 0, uses_anonymous_args = 0
	.loc 1 618 2 view .LVU458
	.loc 1 620 2 view .LVU459
	.loc 1 617 1 is_stmt 0 view .LVU460
	push	{r3, lr}
	.cfi_def_cfa_offset 8
	.cfi_offset 3, -8
	.cfi_offset 14, -4
	.loc 1 618 12 view .LVU461
	ldr	r3, .L105
.LVL138:
	.loc 1 620 31 view .LVU462
	ldr	r1, .L105+4
	.loc 1 618 12 view .LVU463
	ldr	r3, [r3]
.LVL139:
	.loc 1 618 12 view .LVU464
	udiv	r0, r0, r3
.LVL140:
	.loc 1 620 43 view .LVU465
	ldr	r3, .L105+8
	umull	r0, r1, r0, r1
.LVL141:
	.loc 1 620 43 view .LVU466
	ldr	r2, [r3]
	movs	r3, #0
	bl	__aeabi_uldivmod
.LVL142:
	.loc 1 621 1 view .LVU467
	pop	{r3, pc}
.L106:
	.align	2
.L105:
	.word	timestamp_div
	.word	1000000
	.word	freq
	.cfi_endproc
.LFE521:
	.size	log_output_timestamp_to_us, .-log_output_timestamp_to_us
	.section	.rodata.postfix.0,"a"
	.type	postfix.0, %object
	.size	postfix.0, 28
postfix.0:
	.ascii	" messages dropped ---\015\012\033[0m\000"
	.section	.rodata.prefix.1,"a"
	.type	prefix.1, %object
	.size	prefix.1, 12
prefix.1:
	.ascii	"\033[1;31m--- \000"
	.section	.bss.timestamp_div,"aw",%nobits
	.align	2
	.type	timestamp_div, %object
	.size	timestamp_div, 4
timestamp_div:
	.space	4
	.section	.bss.freq,"aw",%nobits
	.align	2
	.type	freq, %object
	.size	freq, 4
freq:
	.space	4
	.section	.rodata.str1.1,"aMS",%progbits,1
.LC16:
	.ascii	"\033[1;31m\000"
.LC17:
	.ascii	"\033[1;33m\000"
	.section	.rodata.colors,"a"
	.align	2
	.type	colors, %object
	.size	colors, 20
colors:
	.word	0
	.word	.LC16
	.word	.LC17
	.word	0
	.word	0
	.section	.rodata.str1.1
.LC18:
	.ascii	"err\000"
.LC19:
	.ascii	"wrn\000"
.LC20:
	.ascii	"inf\000"
.LC21:
	.ascii	"dbg\000"
	.section	.rodata.severity,"a"
	.align	2
	.type	severity, %object
	.size	severity, 20
severity:
	.word	0
	.word	.LC18
	.word	.LC19
	.word	.LC20
	.word	.LC21
	.text
.Letext0:
	.file 7 "/home/g/zephyr-sdk-0.16.3/arm-zephyr-eabi/lib/gcc/arm-zephyr-eabi/12.2.0/include/stddef.h"
	.file 8 "/home/g/zephyr-sdk-0.16.3/arm-zephyr-eabi/picolibc/include/machine/_default_types.h"
	.file 9 "/home/g/zephyr-sdk-0.16.3/arm-zephyr-eabi/picolibc/include/sys/_stdint.h"
	.file 10 "/home/g/mise-work/zmk-firmware/zmk/zephyr/include/zephyr/logging/log_instance.h"
	.file 11 "/home/g/zephyr-sdk-0.16.3/arm-zephyr-eabi/lib/gcc/arm-zephyr-eabi/12.2.0/include/stdarg.h"
	.file 12 "/home/g/mise-work/zmk-firmware/zmk/zephyr/include/zephyr/sys/atomic.h"
	.file 13 "/home/g/mise-work/zmk-firmware/zmk/zephyr/include/zephyr/sys/dlist.h"
	.file 14 "/home/g/mise-work/zmk-firmware/zmk/zephyr/include/zephyr/sys/rb.h"
	.file 15 "/home/g/mise-work/zmk-firmware/zmk/zephyr/include/zephyr/sys/sys_heap.h"
	.file 16 "/home/g/mise-work/zmk-firmware/zmk/zephyr/include/zephyr/kernel/thread.h"
	.file 17 "/home/g/mise-work/zmk-firmware/zmk/zephyr/include/zephyr/kernel_structs.h"
	.file 18 "/home/g/mise-work/zmk-firmware/zmk/zephyr/include/zephyr/arch/arm/thread.h"
	.file 19 "/home/g/mise-work/zmk-firmware/zmk/zephyr/include/zephyr/kernel.h"
	.file 20 "/home/g/mise-work/zmk-firmware/zmk/zephyr/include/zephyr/fatal_types.h"
	.file 21 "/home/g/mise-work/zmk-firmware/zmk/zephyr/include/zephyr/logging/log_output.h"
	.file 22 "/home/g/zephyr-sdk-0.16.3/arm-zephyr-eabi/picolibc/include/stdio.h"
	.file 23 "/home/g/mise-work/zmk-firmware/zmk/zephyr/include/zephyr/logging/log_ctrl.h"
	.file 24 "<built-in>"
	.file 25 "/home/g/mise-work/zmk-firmware/zmk/zephyr/include/zephyr/spinlock.h"
	.file 26 "/home/g/mise-work/zmk-firmware/zmk/zephyr/include/zephyr/logging/log_internal.h"