	.cpu cortex-m4
	.arch armv7e-m
	.fpu fpv4-sp-d16
	.eabi_attribute 27, 1
	.eabi_attribute 28, 1
	.eabi_attribute 20, 1
	.eabi_attribute 21, 1
	.eabi_attribute 23, 3
	.eabi_attribute 24, 1
	.eabi_attribute 25, 1
	.eabi_attribute 26, 1
	.eabi_attribute 30, 4
	.eabi_attribute 34, 1
	.eabi_attribute 38, 1
	.eabi_attribute 18, 4
	.file	"log_mgmt.c"
	.text
.Ltext0:
	.cfi_sections	.debug_frame
	.file 1 "/home/g/mise-work/zmk-firmware/zmk/zephyr/subsys/logging/log_mgmt.c"
	.section	.text.domain_id_cmp,"ax",%progbits
	.align	1
	.syntax unified
	.thumb
	.thumb_func
	.type	domain_id_cmp, %function
domain_id_cmp:
.LVL0:
.LFB506:
	.loc 1 59 1 view -0
	.cfi_startproc
	@ args = 0, pretend = 0, frame = 0
	@ frame_needed = 0, uses_anonymous_args = 0
	@ link register save eliminated.
	.loc 1 60 2 view .LVU1
	.loc 1 61 1 is_stmt 0 view .LVU2
	subs	r3, r0, r1
	rsbs	r0, r3, #0
.LVL1:
	.loc 1 61 1 view .LVU3
	adcs	r0, r0, r3
	bx	lr
	.cfi_endproc
.LFE506:
	.size	domain_id_cmp, .-domain_id_cmp
	.section	.text.source_id_cmp,"ax",%progbits
	.align	1
	.syntax unified
	.thumb
	.thumb_func
	.type	source_id_cmp, %function
source_id_cmp:
.LVL2:
.LFB507:
	.loc 1 64 1 is_stmt 1 view -0
	.cfi_startproc
	@ args = 0, pretend = 0, frame = 0
	@ frame_needed = 0, uses_anonymous_args = 0
	@ link register save eliminated.
	.loc 1 65 2 view .LVU5
	.loc 1 66 2 view .LVU6
	.loc 1 68 2 view .LVU7
	.loc 1 68 46 is_stmt 0 view .LVU8
	eors	r0, r0, r1
.LVL3:
	.loc 1 68 46 view .LVU9
	bics	r3, r0, #65280
	.loc 1 70 1 view .LVU10
	ite	eq
	moveq	r0, #1
	movne	r0, #0
	bx	lr
	.cfi_endproc
.LFE507:
	.size	source_id_cmp, .-source_id_cmp
	.section	.text.z_log_link_get_dynamic_filter,"ax",%progbits
	.align	1
	.global	z_log_link_get_dynamic_filter
	.syntax unified
	.thumb
	.thumb_func
	.type	z_log_link_get_dynamic_filter, %function
z_log_link_get_dynamic_filter:
.LVL4:
.LFB510:
	.loc 1 122 1 is_stmt 1 view -0
	.cfi_startproc
	@ args = 0, pretend = 0, frame = 0
	@ frame_needed = 0, uses_anonymous_args = 0
	.loc 1 123 2 view .LVU12
	.loc 1 124 2 view .LVU13
.LBB104:
.LBI104:
	.loc 1 84 31 view .LVU14
.LBB105:
	.loc 1 86 2 view .LVU15
	.loc 1 88 2 view .LVU16
	.loc 1 88 49 view .LVU17
	.loc 1 88 94 view .LVU18
.LBB106:
	.loc 1 88 99 view .LVU19
	.loc 1 88 99 is_stmt 0 view .LVU20
.LBE106:
.LBE105:
.LBE104:
	.loc 1 122 1 view .LVU21
	push	{r4, r5, lr}
	.cfi_def_cfa_offset 12
	.cfi_offset 4, -12
	.cfi_offset 5, -8
	.cfi_offset 14, -4
.LBB112:
.LBB110:
.LBB107:
	.loc 1 88 117 view .LVU22
	ldr	r2, .L10
	.loc 1 88 146 view .LVU23
	ldr	r5, .L10+4
.LVL5:
.L4:
	.loc 1 88 146 is_stmt 1 view .LVU24
	cmp	r2, r5
	bcc	.L7
.LBE107:
	.loc 1 98 17 is_stmt 0 view .LVU25
	movs	r2, #0
.LVL6:
	.loc 1 100 8 view .LVU26
	mov	r3, r2
	b	.L6
.LVL7:
.L7:
.LBB108:
	.loc 1 89 3 is_stmt 1 view .LVU27
	.loc 1 89 20 is_stmt 0 view .LVU28
	ldr	r3, [r2, #8]
	.loc 1 89 46 view .LVU29
	ldrb	r4, [r3, #8]	@ zero_extendqisi2
.LVL8:
	.loc 1 91 3 is_stmt 1 view .LVU30
	.loc 1 89 46 is_stmt 0 view .LVU31
	ldr	r3, [r3]
.LVL9:
	.loc 1 89 14 view .LVU32
	add	r3, r3, r4
	.loc 1 91 6 view .LVU33
	uxtb	r3, r3
	cmp	r0, r3
	bcs	.L5
	.loc 1 93 4 is_stmt 1 view .LVU34
	.loc 1 93 31 is_stmt 0 view .LVU35
	subs	r3, r0, r4
	uxtb	r3, r3
.LVL10:
	.loc 1 94 4 is_stmt 1 view .LVU36
.L6:
	.loc 1 94 4 is_stmt 0 view .LVU37
.LBE108:
.LBE110:
.LBE112:
	.loc 1 125 2 is_stmt 1 view .LVU38
	.loc 1 127 4 view .LVU39
	.loc 1 127 5 view .LVU40
	.loc 1 129 2 view .LVU41
.LBB113:
.LBI113:
	.loc 1 109 17 view .LVU42
.LBB114:
.LBB115:
	.loc 1 114 24 view .LVU43
.LBB116:
.LBB117:
	.file 2 "/home/g/mise-work/zmk-firmware/zmk/zephyr/include/zephyr/logging/log_link.h"
	.loc 2 186 13 is_stmt 0 view .LVU44
	ldr	r2, [r2, #8]
.LBE117:
.LBE116:
	.loc 1 114 24 view .LVU45
	cbz	r3, .L8
	.loc 1 115 3 is_stmt 1 view .LVU46
.LVL11:
.LBB119:
.LBI116:
	.loc 2 181 24 view .LVU47
.LBB118:
	.loc 2 184 4 view .LVU48
	.loc 2 184 5 view .LVU49
	.loc 2 186 2 view .LVU50
	.loc 2 186 2 is_stmt 0 view .LVU51
.LBE118:
.LBE119:
	.loc 1 115 13 view .LVU52
	ldrh	r3, [r2, #4]
.LVL12:
	.loc 1 114 42 is_stmt 1 view .LVU53
	.loc 1 114 24 view .LVU54
.L8:
	.loc 1 114 24 is_stmt 0 view .LVU55
.LBE115:
	.loc 1 118 2 is_stmt 1 view .LVU56
	.loc 1 118 2 is_stmt 0 view .LVU57
.LBE114:
.LBE113:
	.loc 1 131 2 is_stmt 1 view .LVU58
	.loc 1 131 9 is_stmt 0 view .LVU59
	ldr	r0, [r2, #12]
.LVL13:
	.loc 1 131 48 view .LVU60
	add	r1, r1, r3
.LVL14:
	.loc 1 132 1 view .LVU61
	add	r0, r0, r1, lsl #2
	pop	{r4, r5, pc}
.LVL15:
.L5:
.LBB120:
.LBB111:
.LBB109:
	.loc 1 88 189 is_stmt 1 view .LVU62
	.loc 1 88 189 is_stmt 0 view .LVU63
	adds	r2, r2, #24
.LVL16:
	.loc 1 88 189 view .LVU64
	b	.L4
.L11:
	.align	2
.L10:
	.word	_log_link_list_start
	.word	_log_link_list_end
.LBE109:
.LBE111:
.LBE120:
	.cfi_endproc
.LFE510:
	.size	z_log_link_get_dynamic_filter, .-z_log_link_get_dynamic_filter
	.section	.text.z_log_ext_domain_count,"ax",%progbits
	.align	1
	.global	z_log_ext_domain_count
	.syntax unified
	.thumb
	.thumb_func
	.type	z_log_ext_domain_count, %function
z_log_ext_domain_count:
.LFB512:
	.loc 1 178 1 is_stmt 1 view -0
	.cfi_startproc
	@ args = 0, pretend = 0, frame = 0
	@ frame_needed = 0, uses_anonymous_args = 0
	@ link register save eliminated.
	.loc 1 179 2 view .LVU66
.LVL17:
	.loc 1 181 2 view .LVU67
	.loc 1 181 49 view .LVU68
	.loc 1 181 94 view .LVU69
.LBB121:
	.loc 1 181 99 view .LVU70
	.loc 1 181 117 is_stmt 0 view .LVU71
	ldr	r3, .L15
	.loc 1 181 146 view .LVU72
	ldr	r2, .L15+4
.LBE121:
	.loc 1 179 10 view .LVU73
	movs	r0, #0
.LVL18:
.L13:
.LBB124:
	.loc 1 181 146 is_stmt 1 discriminator 1 view .LVU74
.LBE124:
	.loc 1 181 151 discriminator 1 view .LVU75
	.loc 1 181 152 discriminator 1 view .LVU76
	.loc 1 181 154 discriminator 1 view .LVU77
.LBB125:
	.loc 1 181 146 is_stmt 0 discriminator 1 view .LVU78
	cmp	r3, r2
	bcc	.L14
.LBE125:
	.loc 1 185 2 is_stmt 1 view .LVU79
	.loc 1 186 1 is_stmt 0 view .LVU80
	bx	lr
.L14:
.LBB126:
	.loc 1 182 3 is_stmt 1 view .LVU81
.LVL19:
.LBB122:
.LBI122:
	.loc 2 167 23 view .LVU82
.LBB123:
	.loc 2 169 4 view .LVU83
	.loc 2 169 5 view .LVU84
	.loc 2 171 2 view .LVU85
	.loc 2 171 23 is_stmt 0 view .LVU86
	ldr	r1, [r3, #8]
	ldr	r1, [r1]
.LBE123:
.LBE122:
	.loc 1 182 7 view .LVU87
	add	r0, r0, r1
.LVL20:
	.loc 1 182 7 view .LVU88
	uxtb	r0, r0
.LVL21:
	.loc 1 181 189 is_stmt 1 view .LVU89
	adds	r3, r3, #24
.LVL22:
	.loc 1 181 189 is_stmt 0 view .LVU90
	b	.L13
.L16:
	.align	2
.L15:
	.word	_log_link_list_start
	.word	_log_link_list_end
.LBE126:
	.cfi_endproc
.LFE512:
	.size	z_log_ext_domain_count, .-z_log_ext_domain_count
	.section	.text.log_src_cnt_get,"ax",%progbits
	.align	1
	.global	log_src_cnt_get
	.syntax unified
	.thumb
	.thumb_func
	.type	log_src_cnt_get, %function
log_src_cnt_get:
.LVL23:
.LFB514:
	.loc 1 199 1 is_stmt 1 view -0
	.cfi_startproc
	@ args = 0, pretend = 0, frame = 0
	@ frame_needed = 0, uses_anonymous_args = 0
	@ link register save eliminated.
	.loc 1 200 2 view .LVU92
	.loc 1 201 3 view .LVU93
.LBB127:
.LBI127:
	.file 3 "/home/g/mise-work/zmk-firmware/zmk/zephyr/include/zephyr/logging/log_internal.h"
	.loc 3 93 24 view .LVU94
.LBB128:
	.loc 3 95 2 view .LVU95
.LBB129:
.LBI129:
	.file 4 "/home/g/mise-work/zmk-firmware/zmk/zephyr/include/zephyr/logging/log_core.h"
	.loc 4 427 24 view .LVU96
.LBB130:
	.loc 4 430 2 view .LVU97
	.loc 4 430 2 is_stmt 0 view .LVU98
.LBE130:
.LBE129:
.LBE128:
.LBE127:
	.loc 1 205 1 view .LVU99
	ldr	r3, .L18
	ldr	r0, .L18+4
.LVL24:
	.loc 1 205 1 view .LVU100
	subs	r0, r0, r3
	lsrs	r0, r0, #3
	bx	lr
.L19:
	.align	2
.L18:
	.word	_log_const_list_start
	.word	_log_const_list_end
	.cfi_endproc
.LFE514:
	.size	log_src_cnt_get, .-log_src_cnt_get
	.section	.text.log_source_name_get,"ax",%progbits
	.align	1
	.global	log_source_name_get
	.syntax unified
	.thumb
	.thumb_func
	.type	log_source_name_get, %function
log_source_name_get:
.LVL25:
.LFB516:
	.loc 1 244 1 is_stmt 1 view -0
	.cfi_startproc
	@ args = 0, pretend = 0, frame = 0
	@ frame_needed = 0, uses_anonymous_args = 0
	@ link register save eliminated.
	.loc 1 245 2 view .LVU102
	.loc 1 246 3 view .LVU103
.LBB131:
.LBI131:
	.loc 1 198 10 view .LVU104
	.loc 1 200 2 view .LVU105
	.loc 1 201 3 view .LVU106
.LBB132:
.LBI132:
	.loc 3 93 24 view .LVU107
.LBB133:
	.loc 3 95 2 view .LVU108
.LBB134:
.LBI134:
	.loc 4 427 24 view .LVU109
.LBB135:
	.loc 4 430 2 view .LVU110
	.loc 4 430 32 is_stmt 0 view .LVU111
	ldr	r2, .L23
	ldr	r3, .L23+4
	subs	r3, r3, r2
.LBE135:
.LBE134:
.LBE133:
.LBE132:
.LBE131:
	.loc 1 246 6 view .LVU112
	cmp	r1, r3, lsr #3
	.loc 1 247 4 is_stmt 1 view .LVU113
	.loc 1 247 43 is_stmt 0 view .LVU114
	ite	cc
	ldrcc	r0, [r2, r1, lsl #3]
.LVL26:
	.loc 1 249 10 view .LVU115
	movcs	r0, #0
	.loc 1 254 1 view .LVU116
	bx	lr
.L24:
	.align	2
.L23:
	.word	_log_const_list_start
	.word	_log_const_list_end
	.cfi_endproc
.LFE516:
	.size	log_source_name_get, .-log_source_name_get
	.section	.rodata.log_domain_name_get.str1.1,"aMS",%progbits,1
.LC0:
	.ascii	"\000"
	.section	.text.log_domain_name_get,"ax",%progbits
	.align	1
	.global	log_domain_name_get
	.syntax unified
	.thumb
	.thumb_func
	.type	log_domain_name_get, %function
log_domain_name_get:
.LVL27:
.LFB518:
	.loc 1 289 1 is_stmt 1 view -0
	.cfi_startproc
	@ args = 0, pretend = 0, frame = 0
	@ frame_needed = 0, uses_anonymous_args = 0
	@ link register save eliminated.
	.loc 1 290 2 view .LVU118
	.loc 1 291 3 view .LVU119
	.loc 1 295 1 is_stmt 0 view .LVU120
	ldr	r0, .L26
.LVL28:
	.loc 1 295 1 view .LVU121
	bx	lr
.L27:
	.align	2
.L26:
	.word	.LC0
	.cfi_endproc
.LFE518:
	.size	log_domain_name_get, .-log_domain_name_get
	.section	.text.log_compiled_level_get,"ax",%progbits
	.align	1
	.global	log_compiled_level_get
	.syntax unified
	.thumb
	.thumb_func
	.type	log_compiled_level_get, %function
log_compiled_level_get:
.LVL29:
.LFB520:
	.loc 1 310 1 is_stmt 1 view -0
	.cfi_startproc
	@ args = 0, pretend = 0, frame = 0
	@ frame_needed = 0, uses_anonymous_args = 0
	@ link register save eliminated.
	.loc 1 311 2 view .LVU123
	.loc 1 312 3 view .LVU124
.LBB136:
.LBI136:
	.loc 1 198 10 view .LVU125
	.loc 1 200 2 view .LVU126
	.loc 1 201 3 view .LVU127
.LBB137:
.LBI137:
	.loc 3 93 24 view .LVU128
.LBB138:
	.loc 3 95 2 view .LVU129
.LBB139:
.LBI139:
	.loc 4 427 24 view .LVU130
.LBB140:
	.loc 4 430 2 view .LVU131
	.loc 4 430 32 is_stmt 0 view .LVU132
	ldr	r3, .L31
	ldr	r2, .L31+4
	subs	r2, r2, r3
.LBE140:
.LBE139:
.LBE138:
.LBE137:
.LBE136:
	.loc 1 312 6 view .LVU133
	cmp	r1, r2, lsr #3
	.loc 1 313 4 is_stmt 1 view .LVU134
	.loc 1 313 43 is_stmt 0 view .LVU135
	itte	cc
	addcc	r3, r3, r1, lsl #3
	ldrbcc	r0, [r3, #4]	@ zero_extendqisi2
.LVL30:
	.loc 1 315 11 view .LVU136
	movcs	r0, #0
	.loc 1 320 1 view .LVU137
	bx	lr
.L32:
	.align	2
.L31:
	.word	_log_const_list_start
	.word	_log_const_list_end
	.cfi_endproc
.LFE520:
	.size	log_compiled_level_get, .-log_compiled_level_get
	.section	.text.z_log_link_set_runtime_level,"ax",%progbits
	.align	1
	.global	z_log_link_set_runtime_level
	.syntax unified
	.thumb
	.thumb_func
	.type	z_log_link_set_runtime_level, %function
z_log_link_set_runtime_level:
.LVL31:
.LFB521:
	.loc 1 323 1 is_stmt 1 view -0
	.cfi_startproc
	@ args = 0, pretend = 0, frame = 0
	@ frame_needed = 0, uses_anonymous_args = 0
	@ link register save eliminated.
	.loc 1 323 1 is_stmt 0 view .LVU139
	push	{r4, r5, r6}
	.cfi_def_cfa_offset 12
	.cfi_offset 4, -12
	.cfi_offset 5, -8
	.cfi_offset 6, -4
	.loc 1 323 1 view .LVU140
	mov	r4, r0
	.loc 1 324 2 is_stmt 1 view .LVU141
	.loc 1 325 2 view .LVU142
.LVL32:
.LBB146:
.LBI146:
	.loc 1 84 31 view .LVU143
.LBB147:
	.loc 1 86 2 view .LVU144
	.loc 1 88 2 view .LVU145
	.loc 1 88 49 view .LVU146
	.loc 1 88 94 view .LVU147
.LBB148:
	.loc 1 88 99 view .LVU148
	.loc 1 88 146 is_stmt 0 view .LVU149
	ldr	r6, .L37
	.loc 1 88 117 view .LVU150
	ldr	r0, .L37+4
.LVL33:
	.loc 1 88 117 view .LVU151
.LBE148:
.LBE147:
.LBE146:
	.loc 1 323 1 view .LVU152
	mov	r3, r2
.LVL34:
.L34:
.LBB157:
.LBB153:
.LBB149:
	.loc 1 88 146 is_stmt 1 view .LVU153
	cmp	r0, r6
	bcc	.L36
.LVL35:
	.loc 1 88 146 is_stmt 0 view .LVU154
.LBE149:
.LBE153:
.LBE157:
	.loc 1 327 4 is_stmt 1 view .LVU155
	.loc 1 327 5 view .LVU156
	.loc 1 329 2 view .LVU157
.LBB158:
.LBI158:
	.loc 2 262 19 view .LVU158
.LBB159:
	.loc 2 266 4 view .LVU159
	.loc 2 266 5 view .LVU160
	.loc 2 267 4 view .LVU161
	.loc 2 267 5 view .LVU162
	.loc 2 269 2 view .LVU163
	.loc 2 269 13 is_stmt 0 view .LVU164
	movs	r3, #0
.LVL36:
	.loc 2 269 13 view .LVU165
	ldr	r3, [r3]
	.inst	0xdeff
.LVL37:
.L36:
	.loc 2 269 13 view .LVU166
.LBE159:
.LBE158:
.LBB163:
.LBB154:
.LBB150:
	.loc 1 89 3 is_stmt 1 view .LVU167
	.loc 1 89 20 is_stmt 0 view .LVU168
	ldr	r5, [r0, #8]
	.loc 1 89 46 view .LVU169
	ldrb	r2, [r5, #8]	@ zero_extendqisi2
.LVL38:
	.loc 1 91 3 is_stmt 1 view .LVU170
	.loc 1 89 46 is_stmt 0 view .LVU171
	ldr	r5, [r5]
.LVL39:
	.loc 1 89 14 view .LVU172
	add	r5, r5, r2
	.loc 1 91 6 view .LVU173
	uxtb	r5, r5
	cmp	r4, r5
	bcs	.L35
	.loc 1 93 4 is_stmt 1 view .LVU174
.LVL40:
	.loc 1 94 4 view .LVU175
	.loc 1 94 4 is_stmt 0 view .LVU176
.LBE150:
.LBE154:
.LBE163:
	.loc 1 327 4 is_stmt 1 view .LVU177
	.loc 1 327 5 view .LVU178
	.loc 1 329 2 view .LVU179
.LBB164:
	.loc 2 262 19 view .LVU180
.LBB160:
	.loc 2 266 4 view .LVU181
	.loc 2 266 5 view .LVU182
	.loc 2 267 4 view .LVU183
	.loc 2 267 5 view .LVU184
	.loc 2 269 2 view .LVU185
.LBE160:
.LBE164:
.LBB165:
.LBB155:
.LBB151:
	.loc 1 93 31 is_stmt 0 view .LVU186
	subs	r4, r4, r2
.LVL41:
	.loc 1 93 31 view .LVU187
.LBE151:
.LBE155:
.LBE165:
.LBB166:
.LBB161:
	.loc 2 269 18 view .LVU188
	ldr	r2, [r0]
	.loc 2 269 9 view .LVU189
	ldr	r5, [r2, #20]
	mov	r2, r1
	mov	ip, r5
	uxtb	r1, r4
.LVL42:
	.loc 2 269 9 view .LVU190
.LBE161:
.LBE166:
	.loc 1 330 1 view .LVU191
	pop	{r4, r5, r6}
	.cfi_remember_state
	.cfi_restore 6
	.cfi_restore 5
	.cfi_restore 4
	.cfi_def_cfa_offset 0
.LBB167:
.LBB162:
	.loc 2 269 9 view .LVU192
	bx	ip
.LVL43:
.L35:
	.cfi_restore_state
	.loc 2 269 9 view .LVU193
.LBE162:
.LBE167:
.LBB168:
.LBB156:
.LBB152:
	.loc 1 88 189 is_stmt 1 view .LVU194
	adds	r0, r0, #24
.LVL44:
	.loc 1 88 189 is_stmt 0 view .LVU195
	b	.L34
.L38:
	.align	2
.L37:
	.word	_log_link_list_end
	.word	_log_link_list_start
.LBE152:
.LBE156:
.LBE168:
	.cfi_endproc
.LFE521:
	.size	z_log_link_set_runtime_level, .-z_log_link_set_runtime_level
	.section	.text.z_log_runtime_filters_init,"ax",%progbits
	.align	1
	.global	z_log_runtime_filters_init
	.syntax unified
	.thumb
	.thumb_func
	.type	z_log_runtime_filters_init, %function
z_log_runtime_filters_init:
.LFB523:
	.loc 1 342 1 is_stmt 1 view -0
	.cfi_startproc
	@ args = 0, pretend = 0, frame = 0
	@ frame_needed = 0, uses_anonymous_args = 0
	.loc 1 352 2 view .LVU197
.LBB169:
	.loc 1 352 7 view .LVU198
.LVL45:
.LBB170:
.LBB171:
.LBB172:
.LBB173:
	.loc 4 430 32 is_stmt 0 view .LVU199
	ldr	r0, .L42
	ldr	r3, .L42+4
.LBE173:
.LBE172:
.LBE171:
.LBE170:
.LBE169:
	.loc 1 342 1 view .LVU200
	push	{r4, r5, lr}
	.cfi_def_cfa_offset 12
	.cfi_offset 4, -12
	.cfi_offset 5, -8
	.cfi_offset 14, -4
.LBB188:
.LBB180:
.LBB178:
.LBB176:
.LBB174:
	.loc 4 430 32 view .LVU201
	subs	r3, r3, r0
	ldr	r4, .L42+8
	.loc 4 430 67 view .LVU202
	lsrs	r3, r3, #3
.LBE174:
.LBE176:
.LBE178:
.LBE180:
	.loc 1 352 11 view .LVU203
	movs	r1, #0
.LBB181:
.LBB182:
.LBB183:
	.loc 1 313 43 view .LVU204
	adds	r0, r0, #4
.LVL46:
.L40:
	.loc 1 313 43 view .LVU205
.LBE183:
.LBE182:
.LBE181:
	.loc 1 352 20 is_stmt 1 discriminator 1 view .LVU206
.LBB186:
.LBI170:
	.loc 3 93 24 discriminator 1 view .LVU207
.LBB179:
	.loc 3 95 2 discriminator 1 view .LVU208
.LBB177:
.LBI172:
	.loc 4 427 24 discriminator 1 view .LVU209
.LBB175:
	.loc 4 430 2 discriminator 1 view .LVU210
	.loc 4 430 2 is_stmt 0 discriminator 1 view .LVU211
.LBE175:
.LBE177:
.LBE179:
.LBE186:
	.loc 1 352 20 discriminator 1 view .LVU212
	cmp	r1, r3
	bne	.L41
.LBE188:
	.loc 1 361 1 view .LVU213
	pop	{r4, r5, pc}
.L41:
.LBB189:
.LBB187:
	.loc 1 353 3 is_stmt 1 discriminator 3 view .LVU214
.LVL47:
	.loc 1 354 3 discriminator 3 view .LVU215
.LBB185:
.LBI182:
	.loc 1 309 9 discriminator 3 view .LVU216
.LBB184:
	.loc 1 311 2 discriminator 3 view .LVU217
	.loc 1 312 3 discriminator 3 view .LVU218
	.loc 1 313 4 discriminator 3 view .LVU219
	.loc 1 313 4 is_stmt 0 discriminator 3 view .LVU220
.LBE184:
.LBE185:
	.loc 1 356 3 is_stmt 1 discriminator 3 view .LVU221
	.loc 1 357 3 discriminator 3 view .LVU222
	.loc 1 357 8 discriminator 3 view .LVU223
	.loc 1 357 108 is_stmt 0 discriminator 3 view .LVU224
	ldrb	r2, [r0, r1, lsl #3]	@ zero_extendqisi2
	.loc 1 357 8 discriminator 3 view .LVU225
	ldr	r5, [r4]
	.loc 1 357 61 is_stmt 1 discriminator 3 view .LVU226
	.loc 1 357 108 is_stmt 0 discriminator 3 view .LVU227
	and	r2, r2, #7
	.loc 1 357 19 discriminator 3 view .LVU228
	bic	r5, r5, #7
	.loc 1 357 72 discriminator 3 view .LVU229
	orrs	r2, r2, r5
	str	r2, [r4], #4
.LVL48:
	.loc 1 357 6 is_stmt 1 discriminator 3 view .LVU230
.LBE187:
	.loc 1 352 46 discriminator 3 view .LVU231
	adds	r1, r1, #1
.LVL49:
	.loc 1 352 46 is_stmt 0 discriminator 3 view .LVU232
	b	.L40
.L43:
	.align	2
.L42:
	.word	_log_const_list_start
	.word	_log_const_list_end
	.word	_log_dynamic_list_start
.LBE189:
	.cfi_endproc
.LFE523:
	.size	z_log_runtime_filters_init, .-z_log_runtime_filters_init
	.section	.text.log_source_id_get,"ax",%progbits
	.align	1
	.global	log_source_id_get
	.syntax unified
	.thumb
	.thumb_func
	.type	log_source_id_get, %function
log_source_id_get:
.LVL50:
.LFB524:
	.loc 1 364 1 is_stmt 1 view -0
	.cfi_startproc
	@ args = 0, pretend = 0, frame = 0
	@ frame_needed = 0, uses_anonymous_args = 0
	.loc 1 365 2 view .LVU234
.LBB190:
	.loc 1 365 7 view .LVU235
	.loc 1 365 7 is_stmt 0 view .LVU236
.LBE190:
	.loc 1 364 1 view .LVU237
	push	{r3, r4, r5, r6, r7, lr}
	.cfi_def_cfa_offset 24
	.cfi_offset 3, -24
	.cfi_offset 4, -20
	.cfi_offset 5, -16
	.cfi_offset 6, -12
	.cfi_offset 7, -8
	.cfi_offset 14, -4
.LBB209:
.LBB191:
.LBB192:
.LBB193:
.LBB194:
.LBB195:
	.loc 4 430 32 view .LVU238
	ldr	r7, .L55
	ldr	r5, .L55+4
	subs	r5, r5, r7
.LBE195:
.LBE194:
.LBE193:
.LBE192:
.LBE191:
.LBE209:
	.loc 1 364 1 view .LVU239
	mov	r6, r0
.LBB210:
.LBB204:
.LBB202:
.LBB200:
.LBB198:
.LBB196:
	.loc 4 430 67 view .LVU240
	lsrs	r5, r5, #3
.LBE196:
.LBE198:
.LBE200:
.LBE202:
.LBE204:
	.loc 1 365 11 view .LVU241
	movs	r4, #0
.LVL51:
.L45:
	.loc 1 365 20 is_stmt 1 discriminator 1 view .LVU242
.LBB205:
.LBI191:
	.loc 1 198 10 discriminator 1 view .LVU243
	.loc 1 200 2 discriminator 1 view .LVU244
	.loc 1 201 3 discriminator 1 view .LVU245
.LBB203:
.LBI192:
	.loc 3 93 24 discriminator 1 view .LVU246
.LBB201:
	.loc 3 95 2 discriminator 1 view .LVU247
.LBB199:
.LBI194:
	.loc 4 427 24 discriminator 1 view .LVU248
.LBB197:
	.loc 4 430 2 discriminator 1 view .LVU249
	.loc 4 430 2 is_stmt 0 discriminator 1 view .LVU250
.LBE197:
.LBE199:
.LBE201:
.LBE203:
.LBE205:
	.loc 1 365 20 discriminator 1 view .LVU251
	cmp	r4, r5
	bne	.L48
.LBE210:
	.loc 1 372 9 view .LVU252
	mov	r4, #-1
.LVL52:
.L44:
	.loc 1 373 1 view .LVU253
	mov	r0, r4
	pop	{r3, r4, r5, r6, r7, pc}
.LVL53:
.L48:
.LBB211:
.LBB206:
	.loc 1 366 3 is_stmt 1 view .LVU254
.LBB207:
.LBI207:
	.loc 1 243 13 view .LVU255
.LBB208:
	.loc 1 245 2 view .LVU256
	.loc 1 246 3 view .LVU257
	.loc 1 247 4 view .LVU258
	.loc 1 247 43 is_stmt 0 view .LVU259
	ldr	r0, [r7, r4, lsl #3]
.LVL54:
	.loc 1 247 43 view .LVU260
.LBE208:
.LBE207:
	.loc 1 368 3 is_stmt 1 view .LVU261
	.loc 1 368 6 is_stmt 0 view .LVU262
	cbz	r0, .L46
	.loc 1 368 26 discriminator 1 view .LVU263
	mov	r1, r6
	bl	strcmp
.LVL55:
	.loc 1 368 22 discriminator 1 view .LVU264
	cmp	r0, #0
	beq	.L44
.L46:
	.loc 1 368 22 discriminator 1 view .LVU265
.LBE206:
	.loc 1 365 43 is_stmt 1 discriminator 2 view .LVU266
	adds	r4, r4, #1
.LVL56:
	.loc 1 365 43 is_stmt 0 discriminator 2 view .LVU267
	b	.L45
.L56:
	.align	2
.L55:
	.word	_log_const_list_start
	.word	_log_const_list_end
.LBE211:
	.cfi_endproc
.LFE524:
	.size	log_source_id_get, .-log_source_id_get
	.section	.text.z_impl_log_filter_set,"ax",%progbits
	.align	1
	.global	z_impl_log_filter_set
	.syntax unified
	.thumb
	.thumb_func
	.type	z_impl_log_filter_set, %function
z_impl_log_filter_set:
.LVL57:
.LFB527:
	.loc 1 418 1 is_stmt 1 view -0
	.cfi_startproc
	@ args = 0, pretend = 0, frame = 0
	@ frame_needed = 0, uses_anonymous_args = 0
	@ link register save eliminated.
	.loc 1 419 2 view .LVU269
	.loc 1 420 3 view .LVU270
.LBB212:
.LBI212:
	.loc 1 309 9 view .LVU271
.LBB213:
	.loc 1 311 2 view .LVU272
	.loc 1 312 3 view .LVU273
.LBB214:
.LBI214:
	.loc 1 198 10 view .LVU274
	.loc 1 200 2 view .LVU275
	.loc 1 201 3 view .LVU276
.LBB215:
.LBI215:
	.loc 3 93 24 view .LVU277
.LBB216:
	.loc 3 95 2 view .LVU278
.LBB217:
.LBI217:
	.loc 4 427 24 view .LVU279
.LBB218:
	.loc 4 430 2 view .LVU280
	.loc 4 430 32 is_stmt 0 view .LVU281
	ldr	r3, .L60
.LVL58:
	.loc 4 430 32 view .LVU282
	ldr	r1, .L60+4
.LVL59:
	.loc 4 430 32 view .LVU283
	subs	r1, r1, r3
.LBE218:
.LBE217:
.LBE216:
.LBE215:
.LBE214:
	.loc 1 312 6 view .LVU284
	cmp	r2, r1, lsr #3
	.loc 1 313 4 is_stmt 1 view .LVU285
	.loc 1 313 43 is_stmt 0 view .LVU286
	itte	cc
	addcc	r3, r3, r2, lsl #3
	ldrbcc	r0, [r3, #4]	@ zero_extendqisi2
.LVL60:
	.loc 1 315 11 view .LVU287
	movcs	r0, #0
.LVL61:
	.loc 1 315 11 view .LVU288
.LBE213:
.LBE212:
	.loc 1 444 1 view .LVU289
	bx	lr
.L61:
	.align	2
.L60:
	.word	_log_const_list_start
	.word	_log_const_list_end
	.cfi_endproc
.LFE527:
	.size	z_impl_log_filter_set, .-z_impl_log_filter_set
	.section	.text.log_backend_get_by_name,"ax",%progbits
	.align	1
	.global	log_backend_get_by_name
	.syntax unified
	.thumb
	.thumb_func
	.type	log_backend_get_by_name, %function
log_backend_get_by_name:
.LVL62:
.LFB530:
	.loc 1 505 1 is_stmt 1 view -0
	.cfi_startproc
	@ args = 0, pretend = 0, frame = 0
	@ frame_needed = 0, uses_anonymous_args = 0
	.loc 1 506 2 view .LVU291
	.loc 1 506 55 view .LVU292
	.loc 1 506 106 view .LVU293
.LBB219:
	.loc 1 506 111 view .LVU294
	.loc 1 506 111 is_stmt 0 view .LVU295
.LBE219:
	.loc 1 505 1 view .LVU296
	push	{r4, r5, r6, lr}
	.cfi_def_cfa_offset 16
	.cfi_offset 4, -16
	.cfi_offset 5, -12
	.cfi_offset 6, -8
	.cfi_offset 14, -4
.LBB220:
	.loc 1 506 132 view .LVU297
	ldr	r4, .L69
	.loc 1 506 167 view .LVU298
	ldr	r6, .L69+4
.LBE220:
	.loc 1 505 1 view .LVU299
	mov	r5, r0
.LVL63:
.L63:
.LBB221:
	.loc 1 506 167 is_stmt 1 discriminator 1 view .LVU300
.LBE221:
	.loc 1 506 172 discriminator 1 view .LVU301
	.loc 1 506 173 discriminator 1 view .LVU302
	.loc 1 506 175 discriminator 1 view .LVU303
.LBB222:
	.loc 1 506 167 is_stmt 0 discriminator 1 view .LVU304
	cmp	r4, r6
	bcc	.L65
.LBE222:
	.loc 1 512 8 view .LVU305
	movs	r4, #0
.LVL64:
.L62:
	.loc 1 513 1 view .LVU306
	mov	r0, r4
	pop	{r4, r5, r6, pc}
.LVL65:
.L65:
.LBB223:
	.loc 1 507 3 is_stmt 1 view .LVU307
	.loc 1 507 7 is_stmt 0 view .LVU308
	ldr	r1, [r4, #8]
	mov	r0, r5
	bl	strcmp
.LVL66:
	.loc 1 507 6 view .LVU309
	cmp	r0, #0
	beq	.L62
	.loc 1 506 219 is_stmt 1 discriminator 2 view .LVU310
	adds	r4, r4, #16
.LVL67:
	.loc 1 506 219 is_stmt 0 discriminator 2 view .LVU311
	b	.L63
.L70:
	.align	2
.L69:
	.word	_log_backend_list_start
	.word	_log_backend_list_end
.LBE223:
	.cfi_endproc
.LFE530:
	.size	log_backend_get_by_name, .-log_backend_get_by_name
	.section	.text.log_backend_enable,"ax",%progbits
	.align	1
	.global	log_backend_enable
	.syntax unified
	.thumb
	.thumb_func
	.type	log_backend_enable, %function
log_backend_enable:
.LVL68:
.LFB531:
	.loc 1 518 1 is_stmt 1 view -0
	.cfi_startproc
	@ args = 0, pretend = 0, frame = 0
	@ frame_needed = 0, uses_anonymous_args = 0
	@ link register save eliminated.
	.loc 1 520 2 view .LVU313
	.loc 1 522 2 view .LVU314
.LBB224:
.LBI224:
	.file 5 "/home/g/mise-work/zmk-firmware/zmk/zephyr/include/zephyr/logging/log_backend.h"
	.loc 5 248 41 view .LVU315
	.loc 5 250 2 view .LVU316
	.loc 5 252 2 view .LVU317
	.loc 5 252 7 view .LVU318
	.loc 5 252 60 view .LVU319
	.loc 5 252 5 view .LVU320
	.loc 5 254 2 view .LVU321
	.loc 5 254 2 is_stmt 0 view .LVU322
.LBE224:
	.loc 1 524 2 is_stmt 1 view .LVU323
.LBB225:
.LBI225:
	.loc 5 220 20 view .LVU324
.LBB226:
	.loc 5 223 4 view .LVU325
	.loc 5 223 5 view .LVU326
	.loc 5 224 2 view .LVU327
.LBE226:
.LBE225:
	.loc 1 522 16 is_stmt 0 view .LVU328
	ldr	r3, .L72
	subs	r3, r0, r3
	.loc 1 518 1 view .LVU329
	push	{r4}
	.cfi_def_cfa_offset 4
	.cfi_offset 4, -4
	.loc 1 522 16 view .LVU330
	asrs	r3, r3, #4
.LBB228:
.LBB227:
	.loc 5 224 9 view .LVU331
	ldr	r4, [r0, #4]
.LBE227:
.LBE228:
	.loc 1 522 5 view .LVU332
	adds	r3, r3, #1
	.loc 1 524 2 view .LVU333
	strb	r3, [r4, #4]
.LVL69:
	.loc 1 525 2 is_stmt 1 view .LVU334
	.loc 1 525 9 is_stmt 0 view .LVU335
	ldr	r3, [r0, #4]
	.loc 1 525 21 view .LVU336
	strb	r2, [r3, #6]
	.loc 1 526 2 is_stmt 1 view .LVU337
	.loc 1 527 2 view .LVU338
.LVL70:
.LBB229:
.LBI229:
	.loc 5 277 20 view .LVU339
.LBB230:
	.loc 5 280 4 view .LVU340
	.loc 5 280 5 view .LVU341
	.loc 5 281 2 view .LVU342
	.loc 5 281 9 is_stmt 0 view .LVU343
	ldr	r3, [r0, #4]
	.loc 5 281 19 view .LVU344
	str	r1, [r3]
	.loc 5 282 2 is_stmt 1 view .LVU345
	.loc 5 282 9 is_stmt 0 view .LVU346
	ldr	r3, [r0, #4]
	.loc 5 282 22 view .LVU347
	movs	r2, #1
.LVL71:
	.loc 5 282 22 view .LVU348
	strb	r2, [r3, #5]
.LVL72:
	.loc 5 282 22 view .LVU349
.LBE230:
.LBE229:
	.loc 1 529 2 is_stmt 1 view .LVU350
	.loc 1 530 1 is_stmt 0 view .LVU351
	ldr	r4, [sp], #4
	.cfi_restore 4
	.cfi_def_cfa_offset 0
	.loc 1 529 2 view .LVU352
	b	z_log_notify_backend_enabled
.LVL73:
.L73:
	.loc 1 529 2 view .LVU353
	.align	2
.L72:
	.word	_log_backend_list_start
	.cfi_endproc
.LFE531:
	.size	log_backend_enable, .-log_backend_enable
	.section	.text.log_backend_disable,"ax",%progbits
	.align	1
	.global	log_backend_disable
	.syntax unified
	.thumb
	.thumb_func
	.type	log_backend_disable, %function
log_backend_disable:
.LVL74:
.LFB532:
	.loc 1 533 1 is_stmt 1 view -0
	.cfi_startproc
	@ args = 0, pretend = 0, frame = 0
	@ frame_needed = 0, uses_anonymous_args = 0
	@ link register save eliminated.
	.loc 1 534 2 view .LVU355
.LBB231:
.LBI231:
	.loc 5 304 19 view .LVU356
.LBB232:
	.loc 5 307 4 view .LVU357
	.loc 5 307 5 view .LVU358
	.loc 5 308 2 view .LVU359
	.loc 5 308 16 is_stmt 0 view .LVU360
	ldr	r3, [r0, #4]
.LVL75:
	.loc 5 308 16 view .LVU361
.LBE232:
.LBE231:
	.loc 1 538 2 is_stmt 1 view .LVU362
.LBB233:
.LBI233:
	.loc 5 290 20 view .LVU363
.LBB234:
	.loc 5 293 4 view .LVU364
	.loc 5 293 5 view .LVU365
	.loc 5 294 2 view .LVU366
	.loc 5 294 22 is_stmt 0 view .LVU367
	movs	r2, #0
	strb	r2, [r3, #5]
.LVL76:
	.loc 5 294 22 view .LVU368
.LBE234:
.LBE233:
	.loc 1 539 1 view .LVU369
	bx	lr
	.cfi_endproc
.LFE532:
	.size	log_backend_disable, .-log_backend_disable
	.section	.text.log_filter_get,"ax",%progbits
	.align	1
	.global	log_filter_get
	.syntax unified
	.thumb
	.thumb_func
	.type	log_filter_get, %function
log_filter_get:
.LVL77:
.LFB533:
	.loc 1 543 1 is_stmt 1 view -0
	.cfi_startproc
	@ args = 0, pretend = 0, frame = 0
	@ frame_needed = 0, uses_anonymous_args = 0
	@ link register save eliminated.
	.loc 1 544 4 view .LVU371
	.loc 1 544 5 view .LVU372
	.loc 1 546 2 view .LVU373
	.loc 1 555 2 view .LVU374
.LBB235:
.LBI235:
	.loc 1 309 9 view .LVU375
.LBB236:
	.loc 1 311 2 view .LVU376
	.loc 1 312 3 view .LVU377
.LBB237:
.LBI237:
	.loc 1 198 10 view .LVU378
	.loc 1 200 2 view .LVU379
	.loc 1 201 3 view .LVU380
.LBB238:
.LBI238:
	.loc 3 93 24 view .LVU381
.LBB239:
	.loc 3 95 2 view .LVU382
.LBB240:
.LBI240:
	.loc 4 427 24 view .LVU383
.LBB241:
	.loc 4 430 2 view .LVU384
	.loc 4 430 32 is_stmt 0 view .LVU385
	ldr	r3, .L78
.LVL78:
	.loc 4 430 32 view .LVU386
	ldr	r1, .L78+4
.LVL79:
	.loc 4 430 32 view .LVU387
	subs	r1, r1, r3
.LBE241:
.LBE240:
.LBE239:
.LBE238:
.LBE237:
	.loc 1 312 6 view .LVU388
	cmp	r2, r1, lsr #3
	.loc 1 313 4 is_stmt 1 view .LVU389
	.loc 1 313 43 is_stmt 0 view .LVU390
	itte	cc
	addcc	r3, r3, r2, lsl #3
	ldrbcc	r0, [r3, #4]	@ zero_extendqisi2
.LVL80:
	.loc 1 315 11 view .LVU391
	movcs	r0, #0
.LVL81:
	.loc 1 315 11 view .LVU392
.LBE236:
.LBE235:
	.loc 1 556 1 view .LVU393
	bx	lr
.L79:
	.align	2
.L78:
	.word	_log_const_list_start
	.word	_log_const_list_end
	.cfi_endproc
.LFE533:
	.size	log_filter_get, .-log_filter_get
	.section	.text.z_log_links_initiate,"ax",%progbits
	.align	1
	.global	z_log_links_initiate
	.syntax unified
	.thumb
	.thumb_func
	.type	z_log_links_initiate, %function
z_log_links_initiate:
.LFB534:
	.loc 1 559 1 is_stmt 1 view -0
	.cfi_startproc
	@ args = 0, pretend = 0, frame = 0
	@ frame_needed = 0, uses_anonymous_args = 0
	.loc 1 560 2 view .LVU395
	.loc 1 562 2 view .LVU396
.LBB247:
.LBI247:
	.loc 1 154 13 view .LVU397
.LBB248:
	.loc 1 156 2 view .LVU398
	.loc 1 157 2 view .LVU399
	.loc 1 163 2 view .LVU400
	.loc 1 170 2 view .LVU401
.LBE248:
.LBE247:
	.loc 1 559 1 is_stmt 0 view .LVU402
	push	{r3, r4, r5, lr}
	.cfi_def_cfa_offset 16
	.cfi_offset 3, -16
	.cfi_offset 4, -12
	.cfi_offset 5, -8
	.cfi_offset 14, -4
.LBB251:
.LBB249:
	.loc 1 170 8 view .LVU403
	ldr	r1, .L87
	ldr	r0, .L87+4
.LBE249:
.LBE251:
.LBB252:
	.loc 1 564 117 view .LVU404
	ldr	r4, .L87+8
	.loc 1 564 146 view .LVU405
	ldr	r5, .L87+12
.LBE252:
.LBB255:
.LBB250:
	.loc 1 170 8 view .LVU406
	bl	log_cache_init
.LVL82:
	.loc 1 171 4 is_stmt 1 view .LVU407
	.loc 1 171 5 view .LVU408
	.loc 1 173 2 view .LVU409
	.loc 1 173 8 is_stmt 0 view .LVU410
	ldr	r1, .L87+16
	ldr	r0, .L87+20
	bl	log_cache_init
.LVL83:
	.loc 1 174 4 is_stmt 1 view .LVU411
	.loc 1 174 5 view .LVU412
.L81:
	.loc 1 174 5 is_stmt 0 view .LVU413
.LBE250:
.LBE255:
.LBB256:
	.loc 1 564 146 is_stmt 1 discriminator 1 view .LVU414
.LBE256:
	.loc 1 564 151 discriminator 1 view .LVU415
	.loc 1 564 152 discriminator 1 view .LVU416
	.loc 1 564 154 discriminator 1 view .LVU417
.LBB257:
	.loc 1 564 146 is_stmt 0 discriminator 1 view .LVU418
	cmp	r4, r5
	bcc	.L83
.LBE257:
	.loc 1 574 1 view .LVU419
	pop	{r3, r4, r5, pc}
.LVL84:
.L83:
.LBB258:
	.loc 1 566 3 is_stmt 1 view .LVU420
	.loc 1 566 11 is_stmt 0 view .LVU421
	ldr	r0, [r4, #16]
	.loc 1 566 6 view .LVU422
	cbz	r0, .L82
	.loc 1 567 4 is_stmt 1 view .LVU423
	ldr	r1, [r4, #20]
	bl	mpsc_pbuf_init
.LVL85:
.L82:
	.loc 1 571 3 discriminator 2 view .LVU424
.LBB253:
.LBI253:
	.loc 2 123 19 discriminator 2 view .LVU425
.LBB254:
	.loc 2 126 4 discriminator 2 view .LVU426
	.loc 2 126 5 discriminator 2 view .LVU427
	.loc 2 128 2 discriminator 2 view .LVU428
	.loc 2 128 18 is_stmt 0 discriminator 2 view .LVU429
	ldr	r3, [r4]
	.loc 2 128 9 discriminator 2 view .LVU430
	mov	r0, r4
	ldr	r3, [r3]
	movs	r1, #0
	blx	r3
.LVL86:
	.loc 2 128 9 discriminator 2 view .LVU431
.LBE254:
.LBE253:
	.loc 1 572 5 is_stmt 1 discriminator 2 view .LVU432
	.loc 1 572 6 discriminator 2 view .LVU433
	.loc 1 564 189 discriminator 2 view .LVU434
	adds	r4, r4, #24
.LVL87:
	.loc 1 564 189 is_stmt 0 discriminator 2 view .LVU435
	b	.L81
.L88:
	.align	2
.L87:
	.word	dname_cache_config.1
	.word	dname_cache
	.word	_log_link_list_start
	.word	_log_link_list_end
	.word	sname_cache_config.0
	.word	sname_cache
.LBE258:
	.cfi_endproc
.LFE534:
	.size	z_log_links_initiate, .-z_log_links_initiate
	.section	.rodata.sname_cache_config.0,"a"
	.align	2
	.type	sname_cache_config.0, %object
	.size	sname_cache_config.0, 16
sname_cache_config.0:
	.word	sname_cache_buffer
	.word	9
	.word	1
	.word	source_id_cmp
	.section	.rodata.dname_cache_config.1,"a"
	.align	2
	.type	dname_cache_config.1, %object
	.size	dname_cache_config.1, 16
dname_cache_config.1:
	.word	dname_cache_buffer
	.word	9
	.word	1
	.word	domain_id_cmp
	.section	.bss.sname_cache,"aw",%nobits
	.align	2
	.type	sname_cache, %object
	.size	sname_cache, 32
sname_cache:
	.space	32
	.section	.bss.dname_cache,"aw",%nobits
	.align	2
	.type	dname_cache, %object
	.size	dname_cache, 32
dname_cache:
	.space	32
	.section	.bss.sname_cache_buffer,"aw",%nobits
	.align	2
	.type	sname_cache_buffer, %object
	.size	sname_cache_buffer, 9
sname_cache_buffer:
	.space	9
	.section	.bss.dname_cache_buffer,"aw",%nobits
	.align	2
	.type	dname_cache_buffer, %object
	.size	dname_cache_buffer, 9
dname_cache_buffer:
	.space	9
	.global	log_const_log_mgmt
	.section	.rodata.str1.1,"aMS",%progbits,1
.LC1:
	.ascii	"log_mgmt\000"
	.section	._log_const.static.log_const_log_mgmt_,"a"
	.align	2
	.type	log_const_log_mgmt, %object
	.size	log_const_log_mgmt, 8
log_const_log_mgmt:
	.word	.LC1
	.byte	3
	.space	3
	.text
.Letext0:
	.file 6 "/home/g/zephyr-sdk-0.16.3/arm-zephyr-eabi/lib/gcc/arm-zephyr-eabi/12.2.0/include/stddef.h"
	.file 7 "/home/g/zephyr-sdk-0.16.3/arm-zephyr-eabi/picolibc/include/machine/_default_types.h"
	.file 8 "/home/g/zephyr-sdk-0.16.3/arm-zephyr-eabi/picolibc/include/sys/_stdint.h"
	.file 9 "/home/g/mise-work/zmk-firmware/zmk/zephyr/include/zephyr/logging/log_instance.h"
	.file 10 "/home/g/mise-work/zmk-firmware/zmk/zephyr/include/zephyr/sys/mpsc_packet.h"
	.file 11 "/home/g/mise-work/zmk-firmware/zmk/zephyr/include/zephyr/sys/dlist.h"
	.file 12 "/home/g/mise-work/zmk-firmware/zmk/zephyr/include/zephyr/sys/slist.h"
	.file 13 "/home/g/mise-work/zmk-firmware/zmk/zephyr/include/zephyr/kernel_structs.h"
	.file 14 "/home/g/mise-work/zmk-firmware/zmk/zephyr/include/zephyr/logging/log_msg.h"
	.file 15 "/home/g/mise-work/zmk-firmware/zmk/zephyr/include/zephyr/kernel.h"
	.file 16 "/home/g/mise-work/zmk-firmware/zmk/zephyr/include/zephyr/fatal_types.h"
	.file 17 "/home/g/mise-work/zmk-firmware/zmk/zephyr/include/zephyr/sys/mpsc_pbuf.h"
	.file 18 "/home/g/mise-work/zmk-firmware/zmk/zephyr/subsys/logging/log_cache.h"
	.file 19 "/home/g/zephyr-sdk-0.16.3/arm-zephyr-eabi/picolibc/include/string.h"
	.file 20 "/home/g/mise-work/zmk-firmware/zmk/zephyr/include/zephyr/spinlock.h"