	.cpu cortex-m4
	.arch armv7e-m
	.fpu fpv4-sp-d16
	.eabi_attribute 27, 1
	.eabi_attribute 28, 1
	.eabi_attribute 20, 1
	.eabi_attribute 21, 1
	.eabi_attribute 23, 3
	.eabi_attribute 24, 1
	.eabi_attribute 25, 1
	.eabi_attribute 26, 1
	.eabi_attribute 30, 4
	.eabi_attribute 34, 1
	.eabi_attribute 38, 1
	.eabi_attribute 18, 4
	.file	"reset_settings_nvs.c"
	.text
.Ltext0:
	.cfi_sections	.debug_frame
	.file 1 "/home/g/mise-work/zmk-firmware/zmk/app/src/settings/reset_settings_nvs.c"
	.section	.rodata.zmk_settings_erase.str1.1,"aMS",%progbits,1
.LC0:
	.ascii	"Erasing settings flash partition\000"
.LC1:
	.ascii	"Failed to open settings flash: %d\000"
.LC2:
	.ascii	"Failed to erase settings flash: %d\000"
	.section	.text.zmk_settings_erase,"ax",%progbits
	.align	1
	.global	zmk_settings_erase
	.syntax unified
	.thumb
	.thumb_func
	.type	zmk_settings_erase, %function
zmk_settings_erase:
.LFB305:
	.loc 1 21 30 view -0
	.cfi_startproc
	@ args = 0, pretend = 0, frame = 24
	@ frame_needed = 1, uses_anonymous_args = 0
	.loc 1 22 5 view .LVU1
.LBB188:
	.loc 1 22 10 view .LVU2
	.loc 1 22 59 view .LVU3
	.loc 1 22 16 view .LVU4
	.loc 1 22 4 view .LVU5
.LVL0:
	.loc 1 22 43 view .LVU6
	.loc 1 22 178 view .LVU7
	.loc 1 22 189 view .LVU8
	.loc 1 22 277 view .LVU9
	.loc 1 22 5 view .LVU10
	.loc 1 22 5 view .LVU11
.LBB189:
	.loc 1 22 10 view .LVU12
	.loc 1 22 4 view .LVU13
.LBE189:
.LBE188:
	.loc 1 22 5 view .LVU14
	.loc 1 22 14 view .LVU15
	.loc 1 22 109 view .LVU16
	.loc 1 22 5 view .LVU17
.LBB209:
.LBB203:
	.loc 1 22 14 view .LVU18
	.loc 1 22 104 view .LVU19
	.loc 1 22 106 view .LVU20
.LBE203:
.LBE209:
	.loc 1 21 30 is_stmt 0 view .LVU21
	push	{r4, r5, r7, lr}
	.cfi_def_cfa_offset 16
	.cfi_offset 4, -16
	.cfi_offset 5, -12
	.cfi_offset 7, -8
	.cfi_offset 14, -4
	sub	sp, sp, #24
	.cfi_def_cfa_offset 40
.LBB210:
.LBB204:
.LBB190:
	.loc 1 22 109 view .LVU22
	mov	r5, sp
	.loc 1 22 111 is_stmt 1 view .LVU23
	.loc 1 22 122 view .LVU24
.LVL1:
	.loc 1 22 211 view .LVU25
	.loc 1 22 28 view .LVU26
.LBE190:
.LBE204:
.LBE210:
	.loc 1 22 5 view .LVU27
	.loc 1 22 370 view .LVU28
	.loc 1 22 77 view .LVU29
	.loc 1 22 4 view .LVU30
	.loc 1 22 4 view .LVU31
	.loc 1 22 4 view .LVU32
	.loc 1 22 40 view .LVU33
	.loc 1 22 6 view .LVU34
	.loc 1 22 32 view .LVU35
	.loc 1 22 58 view .LVU36
	.loc 1 22 81 view .LVU37
	.loc 1 22 143 view .LVU38
	.loc 1 22 200 view .LVU39
	.loc 1 22 265 view .LVU40
	.loc 1 22 290 view .LVU41
	.loc 1 22 291 view .LVU42
	.loc 1 22 293 view .LVU43
	.loc 1 22 323 view .LVU44
	.loc 1 22 353 view .LVU45
	.loc 1 22 385 view .LVU46
	.loc 1 22 417 view .LVU47
	.loc 1 22 449 view .LVU48
	.loc 1 22 646 view .LVU49
	.loc 1 22 670 view .LVU50
	.loc 1 22 671 view .LVU51
	.loc 1 22 673 view .LVU52
	.loc 1 22 702 view .LVU53
	.loc 1 22 731 view .LVU54
	.loc 1 22 762 view .LVU55
	.loc 1 22 793 view .LVU56
	.loc 1 22 824 view .LVU57
	.loc 1 22 1031 view .LVU58
	.loc 1 22 6 view .LVU59
	.loc 1 22 24 view .LVU60
	.loc 1 22 44 view .LVU61
	.loc 1 22 6 view .LVU62
	.loc 1 22 44 view .LVU63
	.loc 1 22 15 view .LVU64
	.loc 1 22 15 view .LVU65
	.loc 1 22 63 view .LVU66
	.loc 1 22 94 view .LVU67
	.loc 1 22 128 view .LVU68
	.loc 1 22 133 view .LVU69
	.loc 1 22 389 view .LVU70
	.loc 1 22 1466 view .LVU71
	.loc 1 22 1531 view .LVU72
	.loc 1 22 1555 view .LVU73
	.loc 1 22 1615 view .LVU74
	.loc 1 22 1626 view .LVU75
	.loc 1 22 1744 view .LVU76
	.loc 1 22 1760 view .LVU77
	.loc 1 22 1800 view .LVU78
	.loc 1 22 1825 view .LVU79
	.loc 1 22 3126 view .LVU80
	.loc 1 22 3167 view .LVU81
	.loc 1 22 9 view .LVU82
	.loc 1 22 32 view .LVU83
	.loc 1 22 131 view .LVU84
	.loc 1 22 7 view .LVU85
	.loc 1 22 30 view .LVU86
	.loc 1 22 54 view .LVU87
	.loc 1 22 82 view .LVU88
	.loc 1 22 258 view .LVU89
	.loc 1 22 18 view .LVU90
.LBB211:
.LBB205:
.LBB199:
	.loc 1 22 31 view .LVU91
	.loc 1 22 5 view .LVU92
	.loc 1 22 5 view .LVU93
	.loc 1 22 72 view .LVU94
	.loc 1 22 72 is_stmt 0 view .LVU95
.LBE199:
.LBE205:
.LBE211:
	.loc 1 21 30 view .LVU96
	add	r7, sp, #0
	.cfi_def_cfa_register 7
.LVL2:
.LBB212:
.LBB206:
.LBB200:
	.loc 1 22 76 is_stmt 1 view .LVU97
	.loc 1 22 486 view .LVU98
	.loc 1 22 7 view .LVU99
	.loc 1 22 9 view .LVU100
	.loc 1 22 14 view .LVU101
	.loc 1 22 12 view .LVU102
	.loc 1 22 7 view .LVU103
	.loc 1 22 25 view .LVU104
.LBB191:
	.loc 1 22 5 view .LVU105
	.loc 1 22 370 view .LVU106
	.loc 1 22 77 view .LVU107
.LVL3:
	.loc 1 22 4 view .LVU108
	.loc 1 22 4 view .LVU109
	.loc 1 22 4 view .LVU110
	.loc 1 22 40 view .LVU111
	.loc 1 22 69 view .LVU112
	.loc 1 22 95 view .LVU113
	.loc 1 22 121 view .LVU114
	.loc 1 22 144 view .LVU115
	.loc 1 22 206 view .LVU116
	.loc 1 22 263 view .LVU117
	.loc 1 22 328 view .LVU118
	.loc 1 22 353 view .LVU119
	.loc 1 22 354 view .LVU120
	.loc 1 22 356 view .LVU121
	.loc 1 22 386 view .LVU122
	.loc 1 22 416 view .LVU123
	.loc 1 22 448 view .LVU124
	.loc 1 22 480 view .LVU125
	.loc 1 22 512 view .LVU126
	.loc 1 22 709 view .LVU127
	.loc 1 22 733 view .LVU128
	.loc 1 22 734 view .LVU129
	.loc 1 22 736 view .LVU130
	.loc 1 22 765 view .LVU131
	.loc 1 22 794 view .LVU132
	.loc 1 22 825 view .LVU133
	.loc 1 22 856 view .LVU134
	.loc 1 22 887 view .LVU135
	.loc 1 22 1094 view .LVU136
	.loc 1 22 6 view .LVU137
	.loc 1 22 24 view .LVU138
	.loc 1 22 44 view .LVU139
	.loc 1 22 6 view .LVU140
	.loc 1 22 44 view .LVU141
	.loc 1 22 15 view .LVU142
	.loc 1 22 15 view .LVU143
	.loc 1 22 63 view .LVU144
	.loc 1 22 94 view .LVU145
	.loc 1 22 128 view .LVU146
.LBB192:
	.loc 1 22 133 view .LVU147
	.loc 1 22 389 view .LVU148
	.loc 1 22 1466 view .LVU149
	.loc 1 22 1531 view .LVU150
.LBE192:
.LBE191:
.LBE200:
.LBE206:
.LBE212:
	.loc 1 22 1555 view .LVU151
	.loc 1 22 1615 view .LVU152
	.loc 1 22 1626 view .LVU153
	.loc 1 22 1744 view .LVU154
.LBB213:
.LBB207:
.LBB201:
.LBB195:
.LBB193:
	.loc 1 22 1760 view .LVU155
	.loc 1 22 1800 view .LVU156
	.loc 1 22 1825 view .LVU157
	.loc 1 22 3126 view .LVU158
	.loc 1 22 3164 view .LVU159
	.loc 1 22 3169 view .LVU160
	.loc 1 22 3799 view .LVU161
	.loc 1 22 0 is_stmt 0 view .LVU162
	ldr	r3, .L8
	str	r3, [r7, #20]
	.loc 1 22 3167 is_stmt 1 view .LVU163
	.loc 1 22 9 view .LVU164
.LVL4:
	.loc 1 22 32 view .LVU165
	.loc 1 22 32 is_stmt 0 view .LVU166
.LBE193:
	.loc 1 22 131 is_stmt 1 view .LVU167
	.loc 1 22 7 view .LVU168
	.loc 1 22 30 view .LVU169
	.loc 1 22 54 view .LVU170
	.loc 1 22 82 view .LVU171
.LBE195:
.LBE201:
.LBE207:
.LBE213:
	.loc 1 22 8 view .LVU172
	.loc 1 22 47 view .LVU173
	.loc 1 22 52 view .LVU174
	.loc 1 22 82 view .LVU175
	.loc 1 22 149 view .LVU176
	.loc 1 22 154 view .LVU177
	.loc 1 22 184 view .LVU178
.LBB214:
.LBB208:
.LBB202:
.LBB196:
	.loc 1 22 258 view .LVU179
	.loc 1 22 18 view .LVU180
.LBB194:
	.loc 1 22 8 view .LVU181
	.loc 1 22 166 view .LVU182
	.loc 1 22 168 view .LVU183
	.loc 1 22 178 is_stmt 0 view .LVU184
	movs	r4, #2
	str	r4, [r7, #16]
.LVL5:
	.loc 1 22 178 view .LVU185
.LBE194:
.LBE196:
	.loc 1 22 28 is_stmt 1 view .LVU186
	.loc 1 22 9 view .LVU187
	.loc 1 22 149 view .LVU188
	.loc 1 22 151 view .LVU189
.LBB197:
.LBI197:
	.file 2 "/home/g/mise-work/zmk-firmware/zmk/app/build/zephyr/include/generated/syscalls/log_msg.h"
	.loc 2 26 20 view .LVU190
.LBB198:
	.loc 2 38 2 view .LVU191
	.loc 2 38 7 view .LVU192
	.loc 2 38 5 view .LVU193
	.loc 2 39 2 view .LVU194
	ldr	r0, .L8+4
	movs	r3, #0
	add	r2, r7, #16
.LVL6:
	.loc 2 39 2 is_stmt 0 view .LVU195
	mov	r1, #4288
	bl	z_impl_z_log_msg_static_create
.LVL7:
	.loc 2 39 2 view .LVU196
.LBE198:
.LBE197:
.LBE202:
	.loc 1 22 109 is_stmt 1 view .LVU197
	.loc 1 22 7 view .LVU198
.LVL8:
	.loc 1 22 44 view .LVU199
.LBE208:
	.loc 1 22 8 view .LVU200
	.loc 1 22 280 view .LVU201
	.loc 1 22 7 view .LVU202
	.loc 1 22 20 view .LVU203
.LBE214:
	.loc 1 22 8 view .LVU204
	.loc 1 24 5 view .LVU205
	.loc 1 25 5 view .LVU206
	.loc 1 25 14 is_stmt 0 view .LVU207
	mov	r0, r4
	mov	r1, r7
.LVL9:
	.loc 1 25 14 view .LVU208
	bl	flash_area_open
.LVL10:
	.loc 1 26 5 is_stmt 1 view .LVU209
	.loc 1 26 8 is_stmt 0 view .LVU210
	mov	r4, r0
	cbz	r0, .L2
	.loc 1 27 9 is_stmt 1 view .LVU211
.LBB215:
	.loc 1 27 14 view .LVU212
	.loc 1 27 63 view .LVU213
	.loc 1 27 20 view .LVU214
	.loc 1 27 8 view .LVU215
.LVL11:
	.loc 1 27 47 view .LVU216
	.loc 1 27 182 view .LVU217
	.loc 1 27 193 view .LVU218
	.loc 1 27 281 view .LVU219
.LBB216:
	.loc 1 27 9 view .LVU220
	.loc 1 27 11 view .LVU221
	.loc 1 27 9 view .LVU222
.LBB217:
	.loc 1 27 14 view .LVU223
	.loc 1 27 8 view .LVU224
.LBE217:
.LBE216:
.LBE215:
	.loc 1 27 9 view .LVU225
	.loc 1 27 18 view .LVU226
	.loc 1 27 113 view .LVU227
	.loc 1 27 9 view .LVU228
.LBB230:
.LBB228:
.LBB226:
	.loc 1 27 18 view .LVU229
	.loc 1 27 108 view .LVU230
	.loc 1 27 110 view .LVU231
.LBB218:
	.loc 1 27 115 view .LVU232
	.loc 1 27 126 view .LVU233
	.loc 1 27 215 view .LVU234
	.loc 1 27 32 view .LVU235
.LBE218:
.LBE226:
.LBE228:
.LBE230:
	.loc 1 27 9 view .LVU236
	.loc 1 27 374 view .LVU237
	.loc 1 27 81 view .LVU238
	.loc 1 27 8 view .LVU239
	.loc 1 27 8 view .LVU240
	.loc 1 27 8 view .LVU241
	.loc 1 27 44 view .LVU242
	.loc 1 27 10 view .LVU243
	.loc 1 27 36 view .LVU244
	.loc 1 27 62 view .LVU245
	.loc 1 27 529 view .LVU246
	.loc 1 27 591 view .LVU247
	.loc 1 27 1112 view .LVU248
	.loc 1 27 1177 view .LVU249
	.loc 1 27 1202 view .LVU250
	.loc 1 27 1203 view .LVU251
	.loc 1 27 1205 view .LVU252
	.loc 1 27 1235 view .LVU253
	.loc 1 27 1265 view .LVU254
	.loc 1 27 1297 view .LVU255
	.loc 1 27 1329 view .LVU256
	.loc 1 27 1361 view .LVU257
	.loc 1 27 1558 view .LVU258
	.loc 1 27 1582 view .LVU259
	.loc 1 27 1583 view .LVU260
	.loc 1 27 1585 view .LVU261
	.loc 1 27 1614 view .LVU262
	.loc 1 27 1643 view .LVU263
	.loc 1 27 1674 view .LVU264
	.loc 1 27 1705 view .LVU265
	.loc 1 27 1736 view .LVU266
	.loc 1 27 1943 view .LVU267
	.loc 1 27 10 view .LVU268
	.loc 1 27 28 view .LVU269
	.loc 1 27 48 view .LVU270
	.loc 1 27 10 view .LVU271
	.loc 1 27 48 view .LVU272
	.loc 1 27 19 view .LVU273
	.loc 1 27 19 view .LVU274
	.loc 1 27 67 view .LVU275
	.loc 1 27 98 view .LVU276
	.loc 1 27 132 view .LVU277
	.loc 1 27 137 view .LVU278
	.loc 1 27 394 view .LVU279
	.loc 1 27 1475 view .LVU280
	.loc 1 27 1540 view .LVU281
	.loc 1 27 1564 view .LVU282
	.loc 1 27 1625 view .LVU283
	.loc 1 27 1636 view .LVU284
	.loc 1 27 1755 view .LVU285
	.loc 1 27 1771 view .LVU286
	.loc 1 27 1811 view .LVU287
	.loc 1 27 1836 view .LVU288
	.loc 1 27 3139 view .LVU289
	.loc 1 27 3180 view .LVU290
	.loc 1 27 13 view .LVU291
	.loc 1 27 36 view .LVU292
	.loc 1 27 135 view .LVU293
	.loc 1 27 12 view .LVU294
	.loc 1 27 17 view .LVU295
	.loc 1 27 242 view .LVU296
	.loc 1 27 1195 view .LVU297
	.loc 1 27 1260 view .LVU298
	.loc 1 27 1284 view .LVU299
	.loc 1 27 1313 view .LVU300
	.loc 1 27 1324 view .LVU301
	.loc 1 27 1411 view .LVU302
	.loc 1 27 1427 view .LVU303
	.loc 1 27 1467 view .LVU304
	.loc 1 27 2731 view .LVU305
	.loc 1 27 2772 view .LVU306
	.loc 1 27 13 view .LVU307
	.loc 1 27 36 view .LVU308
	.loc 1 27 15 view .LVU309
	.loc 1 27 11 view .LVU310
	.loc 1 27 34 view .LVU311
	.loc 1 27 58 view .LVU312
	.loc 1 27 86 view .LVU313
	.loc 1 27 262 view .LVU314
	.loc 1 27 22 view .LVU315
.LBB231:
.LBB229:
.LBB227:
.LBB225:
	.loc 1 27 35 view .LVU316
	.loc 1 27 9 view .LVU317
	.loc 1 27 9 view .LVU318
	.loc 1 27 76 view .LVU319
	.loc 1 27 88 is_stmt 0 view .LVU320
	sub	sp, sp, #32
	mov	r2, sp
.LVL12:
	.loc 1 27 80 is_stmt 1 view .LVU321
	.loc 1 27 490 view .LVU322
	.loc 1 27 11 view .LVU323
	.loc 1 27 13 view .LVU324
	.loc 1 27 18 view .LVU325
	.loc 1 27 16 view .LVU326
	.loc 1 27 11 view .LVU327
	.loc 1 27 29 view .LVU328
.LBB219:
	.loc 1 27 9 view .LVU329
	.loc 1 27 374 view .LVU330
	.loc 1 27 81 view .LVU331
.LVL13:
	.loc 1 27 8 view .LVU332
	.loc 1 27 8 view .LVU333
	.loc 1 27 8 view .LVU334
	.loc 1 27 44 view .LVU335
	.loc 1 27 73 view .LVU336
	.loc 1 27 99 view .LVU337
	.loc 1 27 125 view .LVU338
	.loc 1 27 592 view .LVU339
	.loc 1 27 654 view .LVU340
	.loc 1 27 1175 view .LVU341
	.loc 1 27 1240 view .LVU342
	.loc 1 27 1265 view .LVU343
	.loc 1 27 1266 view .LVU344
	.loc 1 27 1268 view .LVU345
	.loc 1 27 1298 view .LVU346
	.loc 1 27 1328 view .LVU347
	.loc 1 27 1360 view .LVU348
	.loc 1 27 1392 view .LVU349
	.loc 1 27 1424 view .LVU350
	.loc 1 27 1621 view .LVU351
	.loc 1 27 1645 view .LVU352
	.loc 1 27 1646 view .LVU353
	.loc 1 27 1648 view .LVU354
	.loc 1 27 1677 view .LVU355
	.loc 1 27 1706 view .LVU356
	.loc 1 27 1737 view .LVU357
	.loc 1 27 1768 view .LVU358
	.loc 1 27 1799 view .LVU359
	.loc 1 27 2006 view .LVU360
.LBB220:
	.loc 1 27 3177 view .LVU361
	.loc 1 27 3182 view .LVU362
	.loc 1 27 3818 view .LVU363
	.loc 1 27 0 is_stmt 0 view .LVU364
	ldr	r3, .L8+8
.LBE220:
.LBB221:
	.loc 1 27 3817 view .LVU365
	strd	r3, r0, [r2, #20]
	.loc 1 27 2772 is_stmt 1 view .LVU366
	.loc 1 27 13 view .LVU367
.LVL14:
	.loc 1 27 36 view .LVU368
	.loc 1 27 36 is_stmt 0 view .LVU369
.LBE221:
	.loc 1 27 15 is_stmt 1 view .LVU370
	.loc 1 27 11 view .LVU371
	.loc 1 27 34 view .LVU372
	.loc 1 27 58 view .LVU373
	.loc 1 27 86 view .LVU374
	.loc 1 27 262 view .LVU375
	.loc 1 27 22 view .LVU376
.LBB222:
	.loc 1 27 12 view .LVU377
	.loc 1 27 170 view .LVU378
	.loc 1 27 172 view .LVU379
	.loc 1 27 182 is_stmt 0 view .LVU380
	movs	r3, #3
	str	r3, [r2, #16]!
.LVL15:
	.loc 1 27 182 view .LVU381
.LBE222:
.LBE219:
	.loc 1 27 32 is_stmt 1 view .LVU382
	.loc 1 27 13 view .LVU383
	.loc 1 27 153 view .LVU384
	.loc 1 27 155 view .LVU385
.LBB223:
.LBI223:
	.loc 2 26 20 view .LVU386
.LBB224:
	.loc 2 38 2 view .LVU387
	.loc 2 38 7 view .LVU388
	.loc 2 38 5 view .LVU389
	.loc 2 39 2 view .LVU390
	ldr	r0, .L8+4
.LVL16:
	.loc 2 39 2 is_stmt 0 view .LVU391
	movs	r3, #0
	mov	r1, #6208
	bl	z_impl_z_log_msg_static_create
.LVL17:
	.loc 2 39 2 view .LVU392
.LBE224:
.LBE223:
	mov	sp, r5
.LVL18:
	.loc 2 39 2 view .LVU393
.LBE225:
	.loc 1 27 113 is_stmt 1 view .LVU394
	.loc 1 27 11 view .LVU395
	.loc 1 27 48 view .LVU396
.LBE227:
	.loc 1 27 12 view .LVU397
.LBE229:
	.loc 1 27 284 view .LVU398
	.loc 1 27 11 view .LVU399
	.loc 1 27 24 view .LVU400
.LBE231:
	.loc 1 27 12 view .LVU401
	.loc 1 28 9 view .LVU402
.L1:
	.loc 1 39 1 is_stmt 0 view .LVU403
	mov	r0, r4
	adds	r7, r7, #24
	.cfi_remember_state
	.cfi_def_cfa_offset 16
.LVL19:
	.loc 1 39 1 view .LVU404
	mov	sp, r7
	.cfi_def_cfa_register 13
.LVL20:
	.loc 1 39 1 view .LVU405
	@ sp needed
	pop	{r4, r5, r7, pc}
.LVL21:
.L2:
	.cfi_restore_state
	.loc 1 31 5 is_stmt 1 view .LVU406
	.loc 1 31 10 is_stmt 0 view .LVU407
	ldr	r0, [r7]
.LVL22:
	.loc 1 31 10 view .LVU408
	mov	r1, r4
	ldr	r2, [r0, #8]
	bl	flash_area_erase
.LVL23:
	.loc 1 32 5 is_stmt 1 view .LVU409
	.loc 1 32 8 is_stmt 0 view .LVU410
	mov	r4, r0
	cbz	r0, .L4
	.loc 1 33 9 is_stmt 1 view .LVU411
.LBB232:
	.loc 1 33 14 view .LVU412
	.loc 1 33 63 view .LVU413
	.loc 1 33 20 view .LVU414
	.loc 1 33 8 view .LVU415
.LVL24:
	.loc 1 33 47 view .LVU416
	.loc 1 33 182 view .LVU417
	.loc 1 33 193 view .LVU418
	.loc 1 33 281 view .LVU419
.LBB233:
	.loc 1 33 9 view .LVU420
	.loc 1 33 11 view .LVU421
	.loc 1 33 9 view .LVU422
.LBB234:
	.loc 1 33 14 view .LVU423
	.loc 1 33 8 view .LVU424
.LBE234:
.LBE233:
.LBE232:
	.loc 1 33 9 view .LVU425
	.loc 1 33 18 view .LVU426
	.loc 1 33 113 view .LVU427
	.loc 1 33 9 view .LVU428
.LBB247:
.LBB245:
.LBB243:
	.loc 1 33 18 view .LVU429
	.loc 1 33 108 view .LVU430
	.loc 1 33 110 view .LVU431
.LBB235:
	.loc 1 33 115 view .LVU432
	.loc 1 33 126 view .LVU433
	.loc 1 33 215 view .LVU434
	.loc 1 33 32 view .LVU435
.LBE235:
.LBE243:
.LBE245:
.LBE247:
	.loc 1 33 9 view .LVU436
	.loc 1 33 374 view .LVU437
	.loc 1 33 81 view .LVU438
	.loc 1 33 8 view .LVU439
	.loc 1 33 8 view .LVU440
	.loc 1 33 8 view .LVU441
	.loc 1 33 44 view .LVU442
	.loc 1 33 10 view .LVU443
	.loc 1 33 36 view .LVU444
	.loc 1 33 62 view .LVU445
	.loc 1 33 529 view .LVU446
	.loc 1 33 591 view .LVU447
	.loc 1 33 1112 view .LVU448
	.loc 1 33 1177 view .LVU449
	.loc 1 33 1202 view .LVU450
	.loc 1 33 1203 view .LVU451
	.loc 1 33 1205 view .LVU452
	.loc 1 33 1235 view .LVU453
	.loc 1 33 1265 view .LVU454
	.loc 1 33 1297 view .LVU455
	.loc 1 33 1329 view .LVU456
	.loc 1 33 1361 view .LVU457
	.loc 1 33 1558 view .LVU458
	.loc 1 33 1582 view .LVU459
	.loc 1 33 1583 view .LVU460
	.loc 1 33 1585 view .LVU461
	.loc 1 33 1614 view .LVU462
	.loc 1 33 1643 view .LVU463
	.loc 1 33 1674 view .LVU464
	.loc 1 33 1705 view .LVU465
	.loc 1 33 1736 view .LVU466
	.loc 1 33 1943 view .LVU467
	.loc 1 33 10 view .LVU468
	.loc 1 33 28 view .LVU469
	.loc 1 33 48 view .LVU470
	.loc 1 33 10 view .LVU471
	.loc 1 33 48 view .LVU472
	.loc 1 33 19 view .LVU473
	.loc 1 33 19 view .LVU474
	.loc 1 33 67 view .LVU475
	.loc 1 33 98 view .LVU476
	.loc 1 33 132 view .LVU477
	.loc 1 33 137 view .LVU478
	.loc 1 33 395 view .LVU479
	.loc 1 33 1480 view .LVU480
	.loc 1 33 1545 view .LVU481
	.loc 1 33 1569 view .LVU482
	.loc 1 33 1631 view .LVU483
	.loc 1 33 1642 view .LVU484
	.loc 1 33 1762 view .LVU485
	.loc 1 33 1778 view .LVU486
	.loc 1 33 1818 view .LVU487
	.loc 1 33 1843 view .LVU488
	.loc 1 33 3148 view .LVU489
	.loc 1 33 3189 view .LVU490
	.loc 1 33 13 view .LVU491
	.loc 1 33 36 view .LVU492
	.loc 1 33 135 view .LVU493
	.loc 1 33 12 view .LVU494
	.loc 1 33 17 view .LVU495
	.loc 1 33 242 view .LVU496
	.loc 1 33 1195 view .LVU497
	.loc 1 33 1260 view .LVU498
	.loc 1 33 1284 view .LVU499
	.loc 1 33 1313 view .LVU500
	.loc 1 33 1324 view .LVU501
	.loc 1 33 1411 view .LVU502
	.loc 1 33 1427 view .LVU503
	.loc 1 33 1467 view .LVU504
	.loc 1 33 2731 view .LVU505
	.loc 1 33 2772 view .LVU506
	.loc 1 33 13 view .LVU507
	.loc 1 33 36 view .LVU508
	.loc 1 33 15 view .LVU509
	.loc 1 33 11 view .LVU510
	.loc 1 33 34 view .LVU511
	.loc 1 33 58 view .LVU512
	.loc 1 33 86 view .LVU513
	.loc 1 33 262 view .LVU514
	.loc 1 33 22 view .LVU515
.LBB248:
.LBB246:
.LBB244:
.LBB242:
	.loc 1 33 35 view .LVU516
	.loc 1 33 9 view .LVU517
	.loc 1 33 9 view .LVU518
	.loc 1 33 76 view .LVU519
	.loc 1 33 88 is_stmt 0 view .LVU520
	sub	sp, sp, #32
	mov	r2, sp
.LVL25:
	.loc 1 33 80 is_stmt 1 view .LVU521
	.loc 1 33 490 view .LVU522
	.loc 1 33 11 view .LVU523
	.loc 1 33 13 view .LVU524
	.loc 1 33 18 view .LVU525
	.loc 1 33 16 view .LVU526
	.loc 1 33 11 view .LVU527
	.loc 1 33 29 view .LVU528
.LBB236:
	.loc 1 33 9 view .LVU529
	.loc 1 33 374 view .LVU530
	.loc 1 33 81 view .LVU531
.LVL26:
	.loc 1 33 8 view .LVU532
	.loc 1 33 8 view .LVU533
	.loc 1 33 8 view .LVU534
	.loc 1 33 44 view .LVU535
	.loc 1 33 73 view .LVU536
	.loc 1 33 99 view .LVU537
	.loc 1 33 125 view .LVU538
	.loc 1 33 592 view .LVU539
	.loc 1 33 654 view .LVU540
	.loc 1 33 1175 view .LVU541
	.loc 1 33 1240 view .LVU542
	.loc 1 33 1265 view .LVU543
	.loc 1 33 1266 view .LVU544
	.loc 1 33 1268 view .LVU545
	.loc 1 33 1298 view .LVU546
	.loc 1 33 1328 view .LVU547
	.loc 1 33 1360 view .LVU548
	.loc 1 33 1392 view .LVU549
	.loc 1 33 1424 view .LVU550
	.loc 1 33 1621 view .LVU551
	.loc 1 33 1645 view .LVU552
	.loc 1 33 1646 view .LVU553
	.loc 1 33 1648 view .LVU554
	.loc 1 33 1677 view .LVU555
	.loc 1 33 1706 view .LVU556
	.loc 1 33 1737 view .LVU557
	.loc 1 33 1768 view .LVU558
	.loc 1 33 1799 view .LVU559
	.loc 1 33 2006 view .LVU560
.LBB237:
	.loc 1 33 3186 view .LVU561
	.loc 1 33 3191 view .LVU562
	.loc 1 33 3833 view .LVU563
	.loc 1 33 0 is_stmt 0 view .LVU564
	ldr	r3, .L8+12
.LBE237:
.LBB238:
	.loc 1 33 3817 view .LVU565
	strd	r3, r0, [r2, #20]
	.loc 1 33 2772 is_stmt 1 view .LVU566
	.loc 1 33 13 view .LVU567
.LVL27:
	.loc 1 33 36 view .LVU568
	.loc 1 33 36 is_stmt 0 view .LVU569
.LBE238:
	.loc 1 33 15 is_stmt 1 view .LVU570
	.loc 1 33 11 view .LVU571
	.loc 1 33 34 view .LVU572
	.loc 1 33 58 view .LVU573
	.loc 1 33 86 view .LVU574
	.loc 1 33 262 view .LVU575
	.loc 1 33 22 view .LVU576
.LBB239:
	.loc 1 33 12 view .LVU577
	.loc 1 33 170 view .LVU578
	.loc 1 33 172 view .LVU579
	.loc 1 33 182 is_stmt 0 view .LVU580
	movs	r3, #3
	str	r3, [r2, #16]!
.LVL28:
	.loc 1 33 182 view .LVU581
.LBE239:
.LBE236:
	.loc 1 33 32 is_stmt 1 view .LVU582
	.loc 1 33 13 view .LVU583
	.loc 1 33 153 view .LVU584
	.loc 1 33 155 view .LVU585
.LBB240:
.LBI240:
	.loc 2 26 20 view .LVU586
.LBB241:
	.loc 2 38 2 view .LVU587
	.loc 2 38 7 view .LVU588
	.loc 2 38 5 view .LVU589
	.loc 2 39 2 view .LVU590
	ldr	r0, .L8+4
.LVL29:
	.loc 2 39 2 is_stmt 0 view .LVU591
	movs	r3, #0
	mov	r1, #6208
	bl	z_impl_z_log_msg_static_create
.LVL30:
	.loc 2 39 2 view .LVU592
.LBE241:
.LBE240:
	mov	sp, r5
.LVL31:
	.loc 2 39 2 view .LVU593
.LBE242:
	.loc 1 33 113 is_stmt 1 view .LVU594
	.loc 1 33 11 view .LVU595
	.loc 1 33 48 view .LVU596
.LBE244:
	.loc 1 33 12 view .LVU597
.LBE246:
	.loc 1 33 284 view .LVU598
	.loc 1 33 11 view .LVU599
	.loc 1 33 24 view .LVU600
.L4:
	.loc 1 33 24 is_stmt 0 view .LVU601
.LBE248:
	.loc 1 33 12 is_stmt 1 discriminator 269 view .LVU602
	.loc 1 36 5 discriminator 269 view .LVU603
	ldr	r0, [r7]
	bl	flash_area_close
.LVL32:
	.loc 1 38 5 discriminator 269 view .LVU604
	.loc 1 38 12 is_stmt 0 discriminator 269 view .LVU605
	b	.L1
.L9:
	.align	2
.L8:
	.word	.LC0
	.word	log_const_zmk
	.word	.LC1
	.word	.LC2
	.cfi_endproc
.LFE305:
	.size	zmk_settings_erase, .-zmk_settings_erase
	.text
.Letext0:
	.file 3 "/home/g/zephyr-sdk-0.16.3/arm-zephyr-eabi/picolibc/include/machine/_default_types.h"
	.file 4 "/home/g/zephyr-sdk-0.16.3/arm-zephyr-eabi/picolibc/include/sys/_stdint.h"
	.file 5 "/home/g/zephyr-sdk-0.16.3/arm-zephyr-eabi/lib/gcc/arm-zephyr-eabi/12.2.0/include/stddef.h"
	.file 6 "/home/g/mise-work/zmk-firmware/zmk/zephyr/include/zephyr/device.h"
	.file 7 "/home/g/zephyr-sdk-0.16.3/arm-zephyr-eabi/picolibc/include/sys/_types.h"
	.file 8 "/home/g/zephyr-sdk-0.16.3/arm-zephyr-eabi/picolibc/include/sys/types.h"
	.file 9 "/home/g/mise-work/zmk-firmware/zmk/zephyr/include/zephyr/storage/flash_map.h"
	.file 10 "/home/g/mise-work/zmk-firmware/zmk/zephyr/include/zephyr/logging/log_instance.h"
	.file 11 "/home/g/mise-work/zmk-firmware/zmk/zephyr/include/zephyr/sys/cbprintf.h"
	.file 12 "/home/g/mise-work/zmk-firmware/zmk/zephyr/include/zephyr/logging/log_msg.h"
	.file 13 "/home/g/mise-work/zmk-firmware/zmk/zephyr/include/zephyr/fatal_types.h"
	.file 14 "/home/g/mise-work/zmk-firmware/zmk/zephyr/include/zephyr/sys/cbprintf_internal.h"
	.file 15 "/home/g/mise-work/zmk-firmware/zmk/zephyr/include/zephyr/syscall.h"