	.cpu cortex-m4
	.arch armv7e-m
	.fpu fpv4-sp-d16
	.eabi_attribute 27, 1
	.eabi_attribute 28, 1
	.eabi_attribute 20, 1
	.eabi_attribute 21, 1
	.eabi_attribute 23, 3
	.eabi_attribute 24, 1
	.eabi_attribute 25, 1
	.eabi_attribute 26, 1
	.eabi_attribute 30, 2
	.eabi_attribute 34, 1
	.eabi_attribute 38, 1
	.eabi_attribute 18, 4
	.file	"hci.c"
	.text
.Ltext0:
	.cfi_sections	.debug_frame
	.file 1 "/home/g/mise-work/zmk-firmware/zmk/zephyr/subsys/bluetooth/controller/hci/hci.c"
	.section	.text.le_remote_feat_complete,"ax",%progbits
	.align	1
	.p2align 2,,3
	.syntax unified
	.thumb
	.thumb_func
	.type	le_remote_feat_complete, %function
le_remote_feat_complete:
.LVL0:
.LFB707:
	.loc 1 8527 1 view -0
	.cfi_startproc
	@ args = 0, pretend = 0, frame = 0
	@ frame_needed = 0, uses_anonymous_args = 0
	.loc 1 8527 1 is_stmt 0 view .LVU1
	push	{r4, r5, r6, r7, r8, lr}
	.cfi_def_cfa_offset 24
	.cfi_offset 4, -24
	.cfi_offset 5, -20
	.cfi_offset 6, -16
	.cfi_offset 7, -12
	.cfi_offset 8, -8
	.cfi_offset 14, -4
	.loc 1 8530 19 view .LVU2
	ldr	r4, .L7
	ldr	r4, [r4, #4]
	.loc 1 8528 2 is_stmt 1 view .LVU3
	.loc 1 8530 2 view .LVU4
	.loc 1 8530 5 is_stmt 0 view .LVU5
	lsls	r4, r4, #2
	bpl	.L1
	mov	r6, r2
	.loc 1 8531 22 discriminator 1 view .LVU6
	ldr	r2, .L7+4
.LVL1:
	.loc 1 8531 22 discriminator 1 view .LVU7
	ldr	r2, [r2]
	.loc 1 8530 37 discriminator 1 view .LVU8
	lsls	r2, r2, #28
	bmi	.L6
.L1:
	.loc 1 8546 1 view .LVU9
	pop	{r4, r5, r6, r7, r8, pc}
.L6:
.LBB769:
.LBB770:
.LBB771:
.LBB772:
.LBB773:
.LBB774:
.LBB775:
.LBB776:
	.file 2 "/home/g/mise-work/zmk-firmware/zmk/zephyr/include/zephyr/net/buf.h"
	.loc 2 1495 9 view .LVU10
	add	r4, r3, #12
	mov	r5, r0
.LVL2:
	.loc 2 1495 9 view .LVU11
	mov	r7, r1
.LVL3:
	.loc 2 1495 9 view .LVU12
.LBE776:
.LBE775:
.LBE774:
.LBE773:
.LBE772:
.LBE771:
.LBE770:
.LBI769:
	.loc 1 8525 13 is_stmt 1 view .LVU13
.LBB793:
	.loc 1 8535 2 view .LVU14
.LBB788:
.LBI771:
	.loc 1 331 14 view .LVU15
.LBB787:
	.loc 1 333 2 view .LVU16
	.loc 1 335 2 view .LVU17
.LBB780:
.LBI773:
	.loc 1 298 13 view .LVU18
.LBB779:
	.loc 1 300 2 view .LVU19
	.loc 1 302 2 view .LVU20
.LBB778:
.LBI775:
	.loc 2 1493 21 view .LVU21
.LBB777:
	.loc 2 1495 2 view .LVU22
	.loc 2 1495 9 is_stmt 0 view .LVU23
	mov	r0, r4
.LVL4:
	.loc 2 1495 9 view .LVU24
	movs	r1, #2
.LVL5:
	.loc 2 1495 9 view .LVU25
	bl	net_buf_simple_add
.LVL6:
	.loc 2 1495 9 view .LVU26
.LBE777:
.LBE778:
	.loc 1 303 2 is_stmt 1 view .LVU27
	.loc 1 304 2 view .LVU28
	.loc 1 303 11 is_stmt 0 view .LVU29
	movw	r3, #3134
	strh	r3, [r0]	@ unaligned
.LVL7:
	.loc 1 303 11 view .LVU30
.LBE779:
.LBE780:
	.loc 1 336 2 is_stmt 1 view .LVU31
.LBB781:
.LBI781:
	.loc 2 1493 21 view .LVU32
.LBB782:
	.loc 2 1495 2 view .LVU33
	.loc 2 1495 9 is_stmt 0 view .LVU34
	movs	r1, #1
	mov	r0, r4
.LVL8:
	.loc 2 1495 9 view .LVU35
	bl	net_buf_simple_add
.LVL9:
	.loc 2 1495 9 view .LVU36
	mov	r3, r0
.LVL10:
	.loc 2 1495 9 view .LVU37
.LBE782:
.LBE781:
	.loc 1 337 2 is_stmt 1 view .LVU38
	.loc 1 337 15 is_stmt 0 view .LVU39
	movs	r2, #4
.LBB783:
.LBB784:
	.loc 2 1495 9 view .LVU40
	mov	r0, r4
.LVL11:
	.loc 2 1495 9 view .LVU41
.LBE784:
.LBE783:
	.loc 1 337 15 view .LVU42
	strb	r2, [r3]
	.loc 1 339 2 is_stmt 1 view .LVU43
.LVL12:
.LBB786:
.LBI783:
	.loc 2 1493 21 view .LVU44
.LBB785:
	.loc 2 1495 2 view .LVU45
	.loc 2 1495 9 is_stmt 0 view .LVU46
	movs	r1, #11
	bl	net_buf_simple_add
.LVL13:
	.loc 2 1495 9 view .LVU47
.LBE785:
.LBE786:
.LBE787:
.LBE788:
	.loc 1 8537 2 is_stmt 1 view .LVU48
	.loc 1 8537 14 is_stmt 0 view .LVU49
	strb	r5, [r0]
	.loc 1 8538 2 is_stmt 1 view .LVU50
	.loc 1 8538 14 is_stmt 0 view .LVU51
	strh	r6, [r0, #1]	@ unaligned
	.loc 1 8539 2 is_stmt 1 view .LVU52
	.loc 1 8539 5 is_stmt 0 view .LVU53
	cbnz	r5, .L3
	.loc 1 8540 2 is_stmt 1 view .LVU54
.LVL14:
.LBB789:
.LBI789:
	.file 3 "/home/g/zephyr-sdk-0.16.3/arm-zephyr-eabi/picolibc/include/ssp/string.h"
	.loc 3 83 216 view .LVU55
.LBB790:
	.loc 3 83 292 view .LVU56
	.loc 3 83 299 is_stmt 0 view .LVU57
	ldr	r3, [r7, #4]	@ unaligned
	ldr	r2, [r7, #8]	@ unaligned
	str	r2, [r0, #7]	@ unaligned
.LVL15:
	.loc 3 83 299 view .LVU58
	str	r3, [r0, #3]	@ unaligned
.LBE790:
.LBE789:
.LBE793:
.LBE769:
	.loc 1 8546 1 view .LVU59
	pop	{r4, r5, r6, r7, r8, pc}
.LVL16:
.L3:
.LBB795:
.LBB794:
	.loc 1 8544 3 is_stmt 1 view .LVU60
.LBB791:
.LBI791:
	.loc 3 86 189 view .LVU61
.LBB792:
	.loc 3 86 238 view .LVU62
	mov	r8, #0
	.loc 3 86 245 is_stmt 0 view .LVU63
	str	r8, [r0, #3]	@ unaligned
	str	r8, [r0, #7]	@ unaligned
.LVL17:
	.loc 3 86 245 view .LVU64
.LBE792:
.LBE791:
.LBE794:
.LBE795:
	.loc 1 8546 1 view .LVU65
	pop	{r4, r5, r6, r7, r8, pc}
.LVL18:
.L8:
	.loc 1 8546 1 view .LVU66
	.align	2
.L7:
	.word	event_mask
	.word	le_event_mask
	.cfi_endproc
.LFE707:
	.size	le_remote_feat_complete, .-le_remote_feat_complete
	.section	.text.hci_cmd_complete,"ax",%progbits
	.align	1
	.p2align 2,,3
	.global	hci_cmd_complete
	.syntax unified
	.thumb
	.thumb_func
	.type	hci_cmd_complete, %function
hci_cmd_complete:
.LVL19:
.LFB621:
	.loc 1 308 1 is_stmt 1 view -0
	.cfi_startproc
	@ args = 0, pretend = 0, frame = 0
	@ frame_needed = 0, uses_anonymous_args = 0
	.loc 1 309 2 view .LVU68
	.loc 1 308 1 is_stmt 0 view .LVU69
	push	{r3, r4, r5, lr}
	.cfi_def_cfa_offset 16
	.cfi_offset 3, -16
	.cfi_offset 4, -12
	.cfi_offset 5, -8
	.cfi_offset 14, -4
	.loc 1 309 9 view .LVU70
	ldr	r3, .L11
	.loc 1 308 1 view .LVU71
	mov	r5, r0
	.loc 1 309 9 view .LVU72
	ldrh	r0, [r3]
.LVL20:
	.loc 1 308 1 view .LVU73
	mov	r4, r1
	.loc 1 309 9 view .LVU74
	bl	bt_hci_cmd_complete_create
.LVL21:
	.loc 1 309 7 view .LVU75
	str	r0, [r5]
	.loc 1 311 2 is_stmt 1 view .LVU76
.LVL22:
.LBB798:
.LBI798:
	.loc 2 1493 21 view .LVU77
.LBB799:
	.loc 2 1495 2 view .LVU78
	.loc 2 1495 9 is_stmt 0 view .LVU79
	mov	r1, r4
	adds	r0, r0, #12
.LVL23:
	.loc 2 1495 9 view .LVU80
.LBE799:
.LBE798:
	.loc 1 312 1 view .LVU81
	pop	{r3, r4, r5, lr}
	.cfi_restore 14
	.cfi_restore 5
	.cfi_restore 4
	.cfi_restore 3
	.cfi_def_cfa_offset 0
.LVL24:
.LBB801:
.LBB800:
	.loc 2 1495 9 view .LVU82
	b	net_buf_simple_add
.LVL25:
.L12:
	.loc 2 1495 9 view .LVU83
	.align	2
.L11:
	.word	_opcode
.LBE800:
.LBE801:
	.cfi_endproc
.LFE621:
	.size	hci_cmd_complete, .-hci_cmd_complete
	.section	.text.hci_vendor_read_static_addr,"ax",%progbits
	.align	1
	.p2align 2,,3
	.weak	hci_vendor_read_static_addr
	.syntax unified
	.thumb
	.thumb_func
	.type	hci_vendor_read_static_addr, %function
hci_vendor_read_static_addr:
.LVL26:
.LFB685:
	.loc 1 4831 1 is_stmt 1 view -0
	.cfi_startproc
	@ args = 0, pretend = 0, frame = 0
	@ frame_needed = 0, uses_anonymous_args = 0
	@ link register save eliminated.
	.loc 1 4832 2 view .LVU85
	.loc 1 4833 2 view .LVU86
	.loc 1 4835 2 view .LVU87
	.loc 1 4836 1 is_stmt 0 view .LVU88
	movs	r0, #0
.LVL27:
	.loc 1 4836 1 view .LVU89
	bx	lr
	.cfi_endproc
.LFE685:
	.size	hci_vendor_read_static_addr, .-hci_vendor_read_static_addr
	.section	.text.hci_vendor_read_key_hierarchy_roots,"ax",%progbits
	.align	1
	.p2align 2,,3
	.weak	hci_vendor_read_key_hierarchy_roots
	.syntax unified
	.thumb
	.thumb_func
	.type	hci_vendor_read_key_hierarchy_roots, %function
hci_vendor_read_key_hierarchy_roots:
.LVL28:
.LFB688:
	.loc 1 4870 1 is_stmt 1 view -0
	.cfi_startproc
	@ args = 0, pretend = 0, frame = 0
	@ frame_needed = 0, uses_anonymous_args = 0
	@ link register save eliminated.
	.loc 1 4872 2 view .LVU91
.LBB810:
.LBI810:
	.loc 3 86 189 view .LVU92
.LBB811:
	.loc 3 86 238 view .LVU93
	.loc 3 86 245 is_stmt 0 view .LVU94
	movs	r3, #0
	str	r3, [r0]	@ unaligned
	str	r3, [r0, #4]	@ unaligned
	str	r3, [r0, #8]	@ unaligned
	str	r3, [r0, #12]	@ unaligned
.LVL29:
	.loc 3 86 245 view .LVU95
.LBE811:
.LBE810:
	.loc 1 4875 2 is_stmt 1 view .LVU96
.LBB812:
.LBI812:
	.loc 1 4869 32 view .LVU97
.LBB813:
.LBI813:
	.loc 3 86 189 view .LVU98
.LBB814:
	.loc 3 86 238 view .LVU99
	.loc 3 86 245 is_stmt 0 view .LVU100
	str	r3, [r1]	@ unaligned
	str	r3, [r1, #4]	@ unaligned
	str	r3, [r1, #8]	@ unaligned
	str	r3, [r1, #12]	@ unaligned
.LVL30:
	.loc 3 86 245 view .LVU101
.LBE814:
.LBE813:
.LBE812:
	.loc 1 4876 1 view .LVU102
	bx	lr
	.cfi_endproc
.LFE688:
	.size	hci_vendor_read_key_hierarchy_roots, .-hci_vendor_read_key_hierarchy_roots
	.section	.rodata.hci_vendor_cmd_handle_common.str1.4,"aMS",%progbits,1
	.align	2
.LC0:
	.ascii	"Zephyr OS v3.5.0\000"
	.section	.text.hci_vendor_cmd_handle_common,"ax",%progbits
	.align	1
	.p2align 2,,3
	.global	hci_vendor_cmd_handle_common
	.syntax unified
	.thumb
	.thumb_func
	.type	hci_vendor_cmd_handle_common, %function
hci_vendor_cmd_handle_common:
.LVL31:
.LFB692:
	.loc 1 5433 1 is_stmt 1 view -0
	.cfi_startproc
	@ args = 0, pretend = 0, frame = 24
	@ frame_needed = 0, uses_anonymous_args = 0
	.loc 1 5434 2 view .LVU104
	.loc 1 5433 1 is_stmt 0 view .LVU105
	push	{r4, r5, r6, r7, lr}
	.cfi_def_cfa_offset 20
	.cfi_offset 4, -20
	.cfi_offset 5, -16
	.cfi_offset 6, -12
	.cfi_offset 7, -8
	.cfi_offset 14, -4
	.loc 1 5434 2 view .LVU106
	subs	r0, r0, #1
.LVL32:
	.loc 1 5433 1 view .LVU107
	sub	sp, sp, #28
	.cfi_def_cfa_offset 48
	.loc 1 5433 1 view .LVU108
	mov	r4, r2
	.loc 1 5434 2 view .LVU109
	cmp	r0, #17
	bhi	.L27
	tbb	[pc, r0]
.L18:
	.byte	(.L25-.L18)/2
	.byte	(.L24-.L18)/2
	.byte	(.L23-.L18)/2
	.byte	(.L27-.L18)/2
	.byte	(.L27-.L18)/2
	.byte	(.L22-.L18)/2
	.byte	(.L27-.L18)/2
	.byte	(.L21-.L18)/2
	.byte	(.L20-.L18)/2
	.byte	(.L19-.L18)/2
	.byte	(.L27-.L18)/2
	.byte	(.L27-.L18)/2
	.byte	(.L27-.L18)/2
	.byte	(.L27-.L18)/2
	.byte	(.L27-.L18)/2
	.byte	(.L27-.L18)/2
	.byte	(.L27-.L18)/2
	.byte	(.L17-.L18)/2
	.p2align 1
.L27:
	mvn	r0, #21
	.loc 1 5500 1 view .LVU110
	add	sp, sp, #28
	.cfi_remember_state
	.cfi_def_cfa_offset 20
	@ sp needed
	pop	{r4, r5, r6, r7, pc}
.L17:
	.cfi_restore_state
	.loc 1 5484 3 is_stmt 1 view .LVU111
.LVL33:
.LBB875:
.LBI875:
	.loc 1 4899 13 view .LVU112
.LBB876:
	.loc 1 4901 2 view .LVU113
	.loc 1 4901 46 is_stmt 0 view .LVU114
	ldr	r3, [r1, #12]
.LVL34:
	.loc 1 4902 2 is_stmt 1 view .LVU115
	.loc 1 4903 2 view .LVU116
	.loc 1 4905 2 view .LVU117
	.loc 1 4905 11 is_stmt 0 view .LVU118
	ldrb	r2, [r3, #3]	@ zero_extendqisi2
.LVL35:
	.loc 1 4905 11 view .LVU119
	ldrb	r1, [r3, #2]	@ zero_extendqisi2
.LVL36:
	.loc 1 4905 11 view .LVU120
	ldrh	r0, [r3]	@ unaligned
	bl	ll_set_min_used_chans
.LVL37:
.LBB877:
.LBB878:
	.loc 1 324 8 view .LVU121
	ldr	r3, .L29
.LBE878:
.LBE877:
	.loc 1 4905 11 view .LVU122
	mov	r6, r0
.LBB885:
.LBB883:
	.loc 1 324 8 view .LVU123
	movs	r1, #1
	ldrh	r0, [r3]
.LVL38:
	.loc 1 324 8 view .LVU124
.LBE883:
.LBE885:
	.loc 1 4907 2 is_stmt 1 view .LVU125
.LBB886:
.LBI877:
	.loc 1 319 24 view .LVU126
.LBB884:
	.loc 1 321 2 view .LVU127
	.loc 1 322 2 view .LVU128
	.loc 1 324 2 view .LVU129
	.loc 1 324 8 is_stmt 0 view .LVU130
	bl	bt_hci_cmd_complete_create
.LVL39:
.LBB879:
.LBB880:
	.loc 2 1495 9 view .LVU131
	movs	r1, #1
.LBE880:
.LBE879:
	.loc 1 324 8 view .LVU132
	mov	r5, r0
.LVL40:
	.loc 1 325 2 is_stmt 1 view .LVU133
.LBB882:
.LBI879:
	.loc 2 1493 21 view .LVU134
.LBB881:
	.loc 2 1495 2 view .LVU135
	.loc 2 1495 9 is_stmt 0 view .LVU136
	adds	r0, r0, #12
.LVL41:
	.loc 2 1495 9 view .LVU137
	bl	net_buf_simple_add
.LVL42:
	.loc 2 1495 9 view .LVU138
.LBE881:
.LBE882:
	.loc 1 326 2 is_stmt 1 view .LVU139
	.loc 1 326 15 is_stmt 0 view .LVU140
	strb	r6, [r0]
	.loc 1 328 2 is_stmt 1 view .LVU141
.LVL43:
	.loc 1 328 2 is_stmt 0 view .LVU142
.LBE884:
.LBE886:
	.loc 1 4907 7 view .LVU143
	str	r5, [r4]
.LVL44:
.L26:
	.loc 1 4907 7 view .LVU144
.LBE876:
.LBE875:
	.loc 1 5499 9 view .LVU145
	movs	r0, #0
	.loc 1 5500 1 view .LVU146
	add	sp, sp, #28
	.cfi_remember_state
	.cfi_def_cfa_offset 20
	@ sp needed
	pop	{r4, r5, r6, r7, pc}
.LVL45:
.L25:
	.cfi_restore_state
	.loc 1 5436 3 is_stmt 1 view .LVU147
.LBB887:
.LBI887:
	.loc 1 4772 13 view .LVU148
.LBB888:
	.loc 1 4774 2 view .LVU149
	.loc 1 4776 2 view .LVU150
.LBB889:
.LBI889:
	.loc 1 307 7 view .LVU151
.LBB890:
	.loc 1 309 2 view .LVU152
	.loc 1 309 9 is_stmt 0 view .LVU153
	ldr	r3, .L29
	movs	r1, #13
.LVL46:
	.loc 1 309 9 view .LVU154
	ldrh	r0, [r3]
	bl	bt_hci_cmd_complete_create
.LVL47:
.LBB891:
.LBB892:
	.loc 2 1495 9 view .LVU155
	movs	r1, #13
.LBE892:
.LBE891:
	.loc 1 309 7 view .LVU156
	str	r0, [r4]
	.loc 1 311 2 is_stmt 1 view .LVU157
.LVL48:
.LBB894:
.LBI891:
	.loc 2 1493 21 view .LVU158
.LBB893:
	.loc 2 1495 2 view .LVU159
	.loc 2 1495 9 is_stmt 0 view .LVU160
	adds	r0, r0, #12
.LVL49:
	.loc 2 1495 9 view .LVU161
	bl	net_buf_simple_add
.LVL50:
	.loc 2 1495 9 view .LVU162
.LBE893:
.LBE894:
.LBE890:
.LBE889:
	.loc 1 4778 2 is_stmt 1 view .LVU163
	.loc 1 4779 18 is_stmt 0 view .LVU164
	mov	r4, #131074
.LVL51:
	.loc 1 4778 13 view .LVU165
	movs	r3, #0
	.loc 1 4782 17 view .LVU166
	mov	r1, #768
	.loc 1 4784 18 view .LVU167
	movs	r2, #5
	.loc 1 4778 13 view .LVU168
	strb	r3, [r0]
	.loc 1 4779 2 is_stmt 1 view .LVU169
	.loc 1 4780 2 view .LVU170
	.loc 1 4779 18 is_stmt 0 view .LVU171
	str	r4, [r0, #1]	@ unaligned
	.loc 1 4782 2 is_stmt 1 view .LVU172
	.loc 1 4783 2 view .LVU173
	.loc 1 4782 17 is_stmt 0 view .LVU174
	strh	r1, [r0, #5]	@ unaligned
	.loc 1 4784 2 is_stmt 1 view .LVU175
	.loc 1 4784 18 is_stmt 0 view .LVU176
	strb	r2, [r0, #7]
	strb	r3, [r0, #8]
	.loc 1 4785 2 is_stmt 1 view .LVU177
	.loc 1 4785 15 is_stmt 0 view .LVU178
	strb	r3, [r0, #9]
	strb	r3, [r0, #10]
	strb	r3, [r0, #11]
	strb	r3, [r0, #12]
	.loc 1 4786 1 view .LVU179
	b	.L26
.LVL52:
.L24:
	.loc 1 4786 1 view .LVU180
.LBE888:
.LBE887:
	.loc 1 5440 3 is_stmt 1 view .LVU181
.LBB895:
.LBI895:
	.loc 1 4788 13 view .LVU182
.LBB896:
	.loc 1 4791 2 view .LVU183
	.loc 1 4793 2 view .LVU184
.LBB897:
.LBI897:
	.loc 1 307 7 view .LVU185
.LBB898:
	.loc 1 309 2 view .LVU186
	.loc 1 309 9 is_stmt 0 view .LVU187
	ldr	r3, .L29
	movs	r1, #65
.LVL53:
	.loc 1 309 9 view .LVU188
	ldrh	r0, [r3]
	bl	bt_hci_cmd_complete_create
.LVL54:
.LBB899:
.LBB900:
	.loc 2 1495 9 view .LVU189
	movs	r1, #65
.LBE900:
.LBE899:
	.loc 1 309 7 view .LVU190
	str	r0, [r4]
	.loc 1 311 2 is_stmt 1 view .LVU191
.LVL55:
.LBB903:
.LBI899:
	.loc 2 1493 21 view .LVU192
.LBB901:
	.loc 2 1495 2 view .LVU193
	.loc 2 1495 9 is_stmt 0 view .LVU194
	adds	r0, r0, #12
.LVL56:
	.loc 2 1495 9 view .LVU195
	bl	net_buf_simple_add
.LVL57:
	.loc 2 1495 9 view .LVU196
.LBE901:
.LBE903:
.LBE898:
.LBE897:
	.loc 1 4795 13 view .LVU197
	movs	r1, #0
.LBB906:
.LBB905:
.LBB904:
.LBB902:
	.loc 2 1495 9 view .LVU198
	mov	r4, r0
.LVL58:
	.loc 2 1495 9 view .LVU199
.LBE902:
.LBE904:
.LBE905:
.LBE906:
	.loc 1 4795 2 is_stmt 1 view .LVU200
.LBB907:
.LBB908:
	.loc 3 86 245 is_stmt 0 view .LVU201
	movs	r2, #62
.LBE908:
.LBE907:
	.loc 1 4795 13 view .LVU202
	strb	r1, [r0], #3
.LVL59:
	.loc 1 4796 2 is_stmt 1 view .LVU203
.LBB910:
.LBI907:
	.loc 3 86 189 view .LVU204
.LBB909:
	.loc 3 86 238 view .LVU205
	.loc 3 86 245 is_stmt 0 view .LVU206
	bl	memset
.LVL60:
	.loc 3 86 245 view .LVU207
.LBE909:
.LBE910:
	.loc 1 4799 2 is_stmt 1 view .LVU208
	.loc 1 4802 2 view .LVU209
	.loc 1 4804 2 view .LVU210
	.loc 1 4802 18 is_stmt 0 view .LVU211
	movw	r3, #935
	strh	r3, [r4, #1]	@ unaligned
	.loc 1 4816 1 view .LVU212
	b	.L26
.LVL61:
.L23:
	.loc 1 4816 1 view .LVU213
.LBE896:
.LBE895:
	.loc 1 5444 3 is_stmt 1 view .LVU214
.LBB911:
.LBI911:
	.loc 1 4818 13 view .LVU215
.LBB912:
	.loc 1 4821 2 view .LVU216
	.loc 1 4823 2 view .LVU217
.LBB913:
.LBI913:
	.loc 1 307 7 view .LVU218
.LBB914:
	.loc 1 309 2 view .LVU219
	.loc 1 309 9 is_stmt 0 view .LVU220
	ldr	r3, .L29
	movs	r1, #9
.LVL62:
	.loc 1 309 9 view .LVU221
	ldrh	r0, [r3]
	bl	bt_hci_cmd_complete_create
.LVL63:
.LBB915:
.LBB916:
	.loc 2 1495 9 view .LVU222
	movs	r1, #9
.LBE916:
.LBE915:
	.loc 1 309 7 view .LVU223
	str	r0, [r4]
	.loc 1 311 2 is_stmt 1 view .LVU224
.LVL64:
.LBB918:
.LBI915:
	.loc 2 1493 21 view .LVU225
.LBB917:
	.loc 2 1495 2 view .LVU226
	.loc 2 1495 9 is_stmt 0 view .LVU227
	adds	r0, r0, #12
.LVL65:
	.loc 2 1495 9 view .LVU228
	bl	net_buf_simple_add
.LVL66:
	.loc 2 1495 9 view .LVU229
.LBE917:
.LBE918:
.LBE914:
.LBE913:
	.loc 1 4825 2 is_stmt 1 view .LVU230
	.loc 1 4825 13 is_stmt 0 view .LVU231
	mov	r3, r0
	movs	r2, #0
	strb	r2, [r3], #1
	.loc 1 4826 2 is_stmt 1 view .LVU232
.LVL67:
.LBB919:
.LBI919:
	.loc 3 86 189 view .LVU233
.LBB920:
	.loc 3 86 238 view .LVU234
	.loc 3 86 245 is_stmt 0 view .LVU235
	str	r2, [r0, #1]	@ unaligned
	str	r2, [r3, #4]	@ unaligned
.LVL68:
	.loc 3 86 245 view .LVU236
.LBE920:
.LBE919:
	.loc 1 4827 1 view .LVU237
	b	.L26
.LVL69:
.L22:
	.loc 1 4827 1 view .LVU238
.LBE912:
.LBE911:
	.loc 1 5461 3 is_stmt 1 view .LVU239
.LBB921:
.LBI921:
	.loc 1 4839 13 view .LVU240
.LBB922:
	.loc 1 4841 2 view .LVU241
	.loc 1 4843 2 view .LVU242
	ldr	r1, [r1, #12]
.LVL70:
	.loc 1 4843 2 is_stmt 0 view .LVU243
	movs	r0, #0
	bl	ll_addr_set
.LVL71:
	.loc 1 4845 2 is_stmt 1 view .LVU244
.LBB923:
.LBI923:
	.loc 1 319 24 view .LVU245
.LBB924:
	.loc 1 321 2 view .LVU246
	.loc 1 322 2 view .LVU247
	.loc 1 324 2 view .LVU248
	.loc 1 324 8 is_stmt 0 view .LVU249
	ldr	r3, .L29
	movs	r1, #1
	ldrh	r0, [r3]
	bl	bt_hci_cmd_complete_create
.LVL72:
.LBB925:
.LBB926:
	.loc 2 1495 9 view .LVU250
	movs	r1, #1
.LBE926:
.LBE925:
	.loc 1 324 8 view .LVU251
	mov	r5, r0
.LVL73:
	.loc 1 325 2 is_stmt 1 view .LVU252
.LBB928:
.LBI925:
	.loc 2 1493 21 view .LVU253
.LBB927:
	.loc 2 1495 2 view .LVU254
	.loc 2 1495 9 is_stmt 0 view .LVU255
	adds	r0, r0, #12
.LVL74:
	.loc 2 1495 9 view .LVU256
	bl	net_buf_simple_add
.LVL75:
	.loc 2 1495 9 view .LVU257
.LBE927:
.LBE928:
	.loc 1 326 2 is_stmt 1 view .LVU258
	.loc 1 326 15 is_stmt 0 view .LVU259
	movs	r3, #0
	strb	r3, [r0]
	.loc 1 328 2 is_stmt 1 view .LVU260
.LVL76:
	.loc 1 328 2 is_stmt 0 view .LVU261
.LBE924:
.LBE923:
	.loc 1 4845 7 view .LVU262
	str	r5, [r4]
	.loc 1 4846 1 view .LVU263
	b	.L26
.LVL77:
.L21:
	.loc 1 4846 1 view .LVU264
.LBE922:
.LBE921:
	.loc 1 5457 3 is_stmt 1 view .LVU265
.LBB929:
.LBI929:
	.loc 1 4848 13 view .LVU266
.LBB930:
	.loc 1 4850 2 view .LVU267
	.loc 1 4855 2 view .LVU268
	.loc 1 4855 13 is_stmt 0 view .LVU269
	ldr	r6, .L29+4
.LBB931:
.LBB932:
	.loc 1 309 9 view .LVU270
	ldr	r7, .L29
.LBE932:
.LBE931:
	.loc 1 4855 13 view .LVU271
	ldmia	r6!, {r0, r1, r2, r3}
.LVL78:
	.loc 1 4855 13 view .LVU272
	add	r5, sp, #4
	stmia	r5!, {r0, r1, r2, r3}
	ldr	r3, [r6]
.LBB942:
.LBB939:
	.loc 1 309 9 view .LVU273
	ldrh	r0, [r7]
.LBE939:
.LBE942:
	.loc 1 4855 13 view .LVU274
	strb	r3, [r5]
	.loc 1 4862 2 is_stmt 1 view .LVU275
	.loc 1 4864 2 view .LVU276
.LVL79:
.LBB943:
.LBI931:
	.loc 1 307 7 view .LVU277
.LBB940:
	.loc 1 309 2 view .LVU278
	.loc 1 309 9 is_stmt 0 view .LVU279
	movs	r1, #18
	bl	bt_hci_cmd_complete_create
.LVL80:
.LBB933:
.LBB934:
	.loc 2 1495 9 view .LVU280
	movs	r1, #18
.LBE934:
.LBE933:
	.loc 1 309 7 view .LVU281
	str	r0, [r4]
	.loc 1 311 2 is_stmt 1 view .LVU282
.LVL81:
.LBB937:
.LBI933:
	.loc 2 1493 21 view .LVU283
.LBB935:
	.loc 2 1495 2 view .LVU284
	.loc 2 1495 9 is_stmt 0 view .LVU285
	adds	r0, r0, #12
.LVL82:
	.loc 2 1495 9 view .LVU286
	bl	net_buf_simple_add
.LVL83:
	.loc 2 1495 9 view .LVU287
.LBE935:
.LBE937:
.LBE940:
.LBE943:
	.loc 1 4865 13 view .LVU288
	mov	r4, r0
.LVL84:
	.loc 1 4865 13 view .LVU289
	movs	r3, #0
.LBB944:
.LBB945:
	.loc 3 83 299 view .LVU290
	add	r6, sp, #4
.LBE945:
.LBE944:
	.loc 1 4865 13 view .LVU291
	strb	r3, [r4], #1
.LBB947:
.LBB941:
.LBB938:
.LBB936:
	.loc 2 1495 9 view .LVU292
	mov	ip, r0
.LVL85:
	.loc 2 1495 9 view .LVU293
.LBE936:
.LBE938:
.LBE941:
.LBE947:
	.loc 1 4865 2 is_stmt 1 view .LVU294
	.loc 1 4866 1 view .LVU295
.LBB948:
.LBI944:
	.loc 3 83 216 view .LVU296
.LBB946:
	.loc 3 83 292 view .LVU297
	.loc 3 83 299 is_stmt 0 view .LVU298
	ldmia	r6!, {r0, r1, r2, r3}
.LVL86:
	.loc 3 83 299 view .LVU299
	ldrb	r5, [r5]	@ zero_extendqisi2
.LVL87:
	.loc 3 83 299 view .LVU300
	str	r0, [ip, #1]	@ unaligned
	str	r1, [r4, #4]	@ unaligned
	str	r2, [r4, #8]	@ unaligned
	str	r3, [r4, #12]	@ unaligned
	strb	r5, [r4, #16]
.LVL88:
	.loc 3 83 299 view .LVU301
.LBE946:
.LBE948:
	.loc 1 4867 1 view .LVU302
	b	.L26
.LVL89:
.L20:
	.loc 1 4867 1 view .LVU303
.LBE930:
.LBE929:
	.loc 1 5465 3 is_stmt 1 view .LVU304
.LBB949:
.LBI949:
	.loc 1 4878 13 view .LVU305
.LBB950:
	.loc 1 4880 2 view .LVU306
	.loc 1 4882 2 view .LVU307
.LBB951:
.LBI951:
	.loc 1 307 7 view .LVU308
.LBB952:
	.loc 1 309 2 view .LVU309
	.loc 1 309 9 is_stmt 0 view .LVU310
	ldr	r3, .L29
	movs	r1, #24
.LVL90:
	.loc 1 309 9 view .LVU311
	ldrh	r0, [r3]
	bl	bt_hci_cmd_complete_create
.LVL91:
.LBB953:
.LBB954:
	.loc 2 1495 9 view .LVU312
	movs	r1, #24
.LBE954:
.LBE953:
	.loc 1 309 7 view .LVU313
	str	r0, [r4]
	.loc 1 311 2 is_stmt 1 view .LVU314
.LVL92:
.LBB957:
.LBI953:
	.loc 2 1493 21 view .LVU315
.LBB955:
	.loc 2 1495 2 view .LVU316
	.loc 2 1495 9 is_stmt 0 view .LVU317
	adds	r0, r0, #12
.LVL93:
	.loc 2 1495 9 view .LVU318
	bl	net_buf_simple_add
.LVL94:
	.loc 2 1495 9 view .LVU319
.LBE955:
.LBE957:
.LBE952:
.LBE951:
	.loc 1 4884 13 view .LVU320
	movs	r3, #0
.LBB960:
.LBB959:
.LBB958:
.LBB956:
	.loc 2 1495 9 view .LVU321
	mov	r4, r0
.LVL95:
	.loc 2 1495 9 view .LVU322
.LBE956:
.LBE958:
.LBE959:
.LBE960:
	.loc 1 4884 2 is_stmt 1 view .LVU323
	.loc 1 4885 18 is_stmt 0 view .LVU324
	movs	r1, #1
	.loc 1 4884 13 view .LVU325
	strb	r3, [r0], #2
.LVL96:
	.loc 1 4885 2 is_stmt 1 view .LVU326
	.loc 1 4885 18 is_stmt 0 view .LVU327
	bl	hci_vendor_read_static_addr
.LVL97:
	.loc 1 4885 16 view .LVU328
	strb	r0, [r4, #1]
	.loc 1 4886 1 view .LVU329
	b	.L26
.LVL98:
.L19:
	.loc 1 4886 1 view .LVU330
.LBE950:
.LBE949:
	.loc 1 5469 3 is_stmt 1 view .LVU331
.LBB961:
.LBI961:
	.loc 1 4888 13 view .LVU332
.LBB962:
	.loc 1 4891 2 view .LVU333
	.loc 1 4893 2 view .LVU334
.LBB963:
.LBI963:
	.loc 1 307 7 view .LVU335
.LBB964:
	.loc 1 309 2 view .LVU336
	.loc 1 309 9 is_stmt 0 view .LVU337
	ldr	r3, .L29
	movs	r1, #33
.LVL99:
	.loc 1 309 9 view .LVU338
	ldrh	r0, [r3]
	bl	bt_hci_cmd_complete_create
.LVL100:
.LBB965:
.LBB966:
	.loc 2 1495 9 view .LVU339
	movs	r1, #33
.LBE966:
.LBE965:
	.loc 1 309 7 view .LVU340
	str	r0, [r4]
	.loc 1 311 2 is_stmt 1 view .LVU341
.LVL101:
.LBB968:
.LBI965:
	.loc 2 1493 21 view .LVU342
.LBB967:
	.loc 2 1495 2 view .LVU343
	.loc 2 1495 9 is_stmt 0 view .LVU344
	adds	r0, r0, #12
.LVL102:
	.loc 2 1495 9 view .LVU345
	bl	net_buf_simple_add
.LVL103:
	.loc 2 1495 9 view .LVU346
.LBE967:
.LBE968:
.LBE964:
.LBE963:
	.loc 1 4894 2 is_stmt 1 view .LVU347
	.loc 1 4894 13 is_stmt 0 view .LVU348
	mov	r1, r0
	movs	r3, #0
	strb	r3, [r1], #17
	.loc 1 4895 2 is_stmt 1 view .LVU349
	adds	r0, r0, #1
.LVL104:
	.loc 1 4895 2 is_stmt 0 view .LVU350
	bl	hci_vendor_read_key_hierarchy_roots
.LVL105:
	.loc 1 4896 1 view .LVU351
	b	.L26
.L30:
	.align	2
.L29:
	.word	_opcode
	.word	.LC0
.LBE962:
.LBE961:
	.cfi_endproc
.LFE692:
	.size	hci_vendor_cmd_handle_common, .-hci_vendor_cmd_handle_common
	.section	.text.hci_vendor_cmd_handle,"ax",%progbits
	.align	1
	.p2align 2,,3
	.global	hci_vendor_cmd_handle
	.syntax unified
	.thumb
	.thumb_func
	.type	hci_vendor_cmd_handle, %function
hci_vendor_cmd_handle:
.LVL106:
.LFB593:
	.file 4 "/home/g/mise-work/zmk-firmware/zmk/zephyr/subsys/bluetooth/controller/hci/nordic/hci_vendor.h"
	.loc 4 24 1 is_stmt 1 view -0
	.cfi_startproc
	@ args = 0, pretend = 0, frame = 0
	@ frame_needed = 0, uses_anonymous_args = 0
	@ link register save eliminated.
	.loc 4 25 2 view .LVU353
	.loc 4 25 9 is_stmt 0 view .LVU354
	b	hci_vendor_cmd_handle_common
.LVL107:
	.loc 4 25 9 view .LVU355
	.cfi_endproc
.LFE593:
	.size	hci_vendor_cmd_handle, .-hci_vendor_cmd_handle
	.section	.rodata.hci_cmd_handle.str1.4,"aMS",%progbits,1
	.align	2
.LC1:
	.ascii	"No HCI Command header\000"
	.align	2
.LC2:
	.ascii	"Invalid HCI CMD packet length\000"
	.section	.text.hci_cmd_handle,"ax",%progbits
	.align	1
	.p2align 2,,3
	.global	hci_cmd_handle
	.syntax unified
	.thumb
	.thumb_func
	.type	hci_cmd_handle, %function
hci_cmd_handle:
.LVL108:
.LFB693:
	.loc 1 5504 1 is_stmt 1 view -0
	.cfi_startproc
	@ args = 0, pretend = 0, frame = 40
	@ frame_needed = 0, uses_anonymous_args = 0
	.loc 1 5505 2 view .LVU357
	.loc 1 5506 2 view .LVU358
	.loc 1 5504 1 is_stmt 0 view .LVU359
	push	{r4, r5, r6, r7, r8, lr}
	.cfi_def_cfa_offset 24
	.cfi_offset 4, -24
	.cfi_offset 5, -20
	.cfi_offset 6, -16
	.cfi_offset 7, -12
	.cfi_offset 8, -8
	.cfi_offset 14, -4
	.loc 1 5510 5 view .LVU360
	ldrh	r2, [r0, #16]
	.loc 1 5504 1 view .LVU361
	sub	sp, sp, #56
	.cfi_def_cfa_offset 80
	.loc 1 5506 18 view .LVU362
	movs	r4, #0
	.loc 1 5510 5 view .LVU363
	cmp	r2, #2
	.loc 1 5506 18 view .LVU364
	str	r4, [sp, #28]
	.loc 1 5507 2 is_stmt 1 view .LVU365
	.loc 1 5508 2 view .LVU366
	.loc 1 5510 2 view .LVU367
	.loc 1 5510 5 is_stmt 0 view .LVU368
	bls	.L144
	.loc 1 5515 2 is_stmt 1 view .LVU369
.LVL109:
.LBB1435:
.LBI1435:
	.loc 2 2076 21 view .LVU370
.LBB1436:
	.loc 2 2078 2 view .LVU371
	mov	r5, r0
	.loc 2 2078 9 is_stmt 0 view .LVU372
	movs	r1, #3
.LVL110:
	.loc 2 2078 9 view .LVU373
	adds	r0, r0, #12
.LVL111:
	.loc 2 2078 9 view .LVU374
	bl	net_buf_simple_pull_mem
.LVL112:
	.loc 2 2078 9 view .LVU375
.LBE1436:
.LBE1435:
	.loc 1 5516 2 is_stmt 1 view .LVU376
	.loc 1 5516 5 is_stmt 0 view .LVU377
	ldrh	r1, [r5, #16]
	ldrb	r2, [r0, #2]	@ zero_extendqisi2
	cmp	r1, r2
	bcc	.L145
	.loc 1 5522 2 is_stmt 1 view .LVU378
	.loc 1 5522 17 is_stmt 0 view .LVU379
	ldrh	r2, [r0]	@ unaligned
	.loc 1 5522 10 view .LVU380
	ldr	r6, .L149
	.loc 1 5526 29 view .LVU381
	ubfx	r3, r2, #10, #6
	.loc 1 5526 2 view .LVU382
	cmp	r3, #8
	.loc 1 5522 10 view .LVU383
	strh	r2, [r6]	@ movhi
	.loc 1 5524 2 is_stmt 1 view .LVU384
	.loc 1 5522 17 is_stmt 0 view .LVU385
	uxth	ip, r2
	.loc 1 5524 6 view .LVU386
	ubfx	r4, r2, #0, #10
.LVL113:
	.loc 1 5526 2 is_stmt 1 view .LVU387
	bhi	.L37
	cbz	r3, .L38
	subs	r3, r3, #1
	cmp	r3, #7
	bhi	.L38
	tbb	[pc, r3]
.L40:
	.byte	(.L43-.L40)/2
	.byte	(.L38-.L40)/2
	.byte	(.L42-.L40)/2
	.byte	(.L41-.L40)/2
	.byte	(.L38-.L40)/2
	.byte	(.L38-.L40)/2
	.byte	(.L38-.L40)/2
	.byte	(.L39-.L40)/2
	.p2align 1
.L37:
	cmp	r3, #63
	bne	.L38
	.loc 1 5544 3 view .LVU388
.LVL114:
.LBB1437:
.LBI1437:
	.loc 4 22 12 view .LVU389
.LBB1438:
	.loc 4 25 2 view .LVU390
	.loc 4 25 9 is_stmt 0 view .LVU391
	add	r2, sp, #28
.LVL115:
	.loc 4 25 9 view .LVU392
	mov	r1, r5
	mov	r0, r4
.LVL116:
	.loc 4 25 9 view .LVU393
	bl	hci_vendor_cmd_handle_common
.LVL117:
	.loc 4 25 9 view .LVU394
.LBE1438:
.LBE1437:
	.loc 1 5545 3 is_stmt 1 view .LVU395
	.loc 1 5552 2 view .LVU396
	.loc 1 5552 5 is_stmt 0 view .LVU397
	adds	r0, r0, #22
.LVL118:
	.loc 1 5552 5 view .LVU398
	bne	.L146
.LBB1439:
.LBB1440:
	.loc 1 316 9 view .LVU399
	ldrh	ip, [r6]
.LVL119:
.L38:
	.loc 1 316 9 view .LVU400
.LBE1440:
.LBE1439:
	.loc 1 5553 3 is_stmt 1 view .LVU401
.LBB1443:
.LBI1439:
	.loc 1 314 24 view .LVU402
.LBB1441:
	.loc 1 316 2 view .LVU403
	.loc 1 316 9 is_stmt 0 view .LVU404
	movs	r1, #1
.LVL120:
.L143:
	.loc 1 316 9 view .LVU405
	mov	r0, ip
.L142:
.LBE1441:
.LBE1443:
	.loc 1 5557 1 view .LVU406
	add	sp, sp, #56
	.cfi_remember_state
	.cfi_def_cfa_offset 24
	@ sp needed
	pop	{r4, r5, r6, r7, r8, lr}
	.cfi_restore 14
	.cfi_restore 8
	.cfi_restore 7
	.cfi_restore 6
	.cfi_restore 5
	.cfi_restore 4
	.cfi_def_cfa_offset 0
.LBB1444:
.LBB1442:
	.loc 1 316 9 view .LVU407
	b	bt_hci_cmd_status_create
.LVL121:
.L43:
	.cfi_restore_state
	.loc 1 316 9 view .LVU408
.LBE1442:
.LBE1444:
	.loc 1 5528 3 is_stmt 1 view .LVU409
.LBB1445:
.LBI1445:
	.loc 1 395 12 view .LVU410
.LBB1446:
	.loc 1 398 2 view .LVU411
	cmp	r4, #6
	beq	.L45
	cmp	r4, #29
	bne	.L38
	.loc 1 404 3 view .LVU412
.LVL122:
.LBB1447:
.LBI1447:
	.loc 1 382 13 view .LVU413
.LBB1448:
	.loc 1 384 2 view .LVU414
	.loc 1 385 2 view .LVU415
	.loc 1 386 2 view .LVU416
	.loc 1 388 2 view .LVU417
	.loc 1 389 2 view .LVU418
	.loc 1 388 9 is_stmt 0 view .LVU419
	ldr	r3, [r5, #12]
	.loc 1 389 11 view .LVU420
	ldrh	r0, [r3]	@ unaligned
.LVL123:
	.loc 1 389 11 view .LVU421
	bl	ll_version_ind_send
.LVL124:
	.loc 1 389 11 view .LVU422
	mov	r1, r0
.LVL125:
	.loc 1 391 2 is_stmt 1 view .LVU423
.LBB1449:
.LBI1449:
	.loc 1 314 24 view .LVU424
.LBB1450:
	.loc 1 316 2 view .LVU425
	.loc 1 316 9 is_stmt 0 view .LVU426
	ldrh	r0, [r6]
	b	.L142
.LVL126:
.L39:
	.loc 1 316 9 view .LVU427
.LBE1450:
.LBE1449:
.LBE1448:
.LBE1447:
.LBE1446:
.LBE1445:
	.loc 1 5540 3 is_stmt 1 view .LVU428
.LBB1456:
.LBI1456:
	.loc 1 4267 12 view .LVU429
.LBB1457:
	.loc 1 4270 2 view .LVU430
	subs	r2, r4, #1
	cmp	r2, #77
	bhi	.L38
	adr	r3, .L61
	ldr	pc, [r3, r2, lsl #2]
	.p2align 2
.L61:
	.word	.L100+1
	.word	.L99+1
	.word	.L98+1
	.word	.L38+1
	.word	.L97+1
	.word	.L96+1
	.word	.L95+1
	.word	.L94+1
	.word	.L93+1
	.word	.L92+1
	.word	.L38+1
	.word	.L38+1
	.word	.L38+1
	.word	.L38+1
	.word	.L91+1
	.word	.L90+1
	.word	.L89+1
	.word	.L88+1
	.word	.L87+1
	.word	.L38+1
	.word	.L86+1
	.word	.L85+1
	.word	.L84+1
	.word	.L83+1
	.word	.L38+1
	.word	.L82+1
	.word	.L81+1
	.word	.L80+1
	.word	.L38+1
	.word	.L38+1
	.word	.L38+1
	.word	.L79+1
	.word	.L78+1
	.word	.L77+1
	.word	.L76+1
	.word	.L75+1
	.word	.L38+1
	.word	.L38+1
	.word	.L74+1
	.word	.L73+1
	.word	.L72+1
	.word	.L71+1
	.word	.L70+1
	.word	.L69+1
	.word	.L68+1
	.word	.L67+1
	.word	.L66+1
	.word	.L65+1
	.word	.L64+1
	.word	.L63+1
	.word	.L38+1
	.word	.L38+1
	.word	.L38+1
	.word	.L38+1
	.word	.L38+1
	.word	.L38+1
	.word	.L38+1
	.word	.L38+1
	.word	.L38+1
	.word	.L38+1
	.word	.L38+1
	.word	.L38+1
	.word	.L38+1
	.word	.L38+1
	.word	.L38+1
	.word	.L38+1
	.word	.L38+1
	.word	.L38+1
	.word	.L38+1
	.word	.L38+1
	.word	.L38+1
	.word	.L38+1
	.word	.L38+1
	.word	.L38+1
	.word	.L62+1
	.word	.L38+1
	.word	.L38+1
	.word	.L60+1
.LVL127:
	.p2align 1
.L42:
	.loc 1 4270 2 is_stmt 0 view .LVU431
.LBE1457:
.LBE1456:
	.loc 1 5531 3 is_stmt 1 view .LVU432
.LBB1798:
.LBI1798:
	.loc 1 705 12 view .LVU433
.LBB1799:
	.loc 1 708 2 view .LVU434
	cmp	r4, #99
	beq	.L47
	bhi	.L48
	cmp	r4, #3
	beq	.L49
	cmp	r4, #45
	bne	.L147
	.loc 1 733 3 view .LVU435
.LVL128:
.LBB1800:
.LBI1800:
	.loc 1 684 13 view .LVU436
.LBB1801:
	.loc 1 686 2 view .LVU437
	.loc 1 686 40 is_stmt 0 view .LVU438
	ldr	r3, [r5, #12]
.LVL129:
	.loc 1 687 2 is_stmt 1 view .LVU439
	.loc 1 688 2 view .LVU440
	.loc 1 689 2 view .LVU441
	.loc 1 690 2 view .LVU442
	.loc 1 692 2 view .LVU443
.LBB1802:
.LBB1803:
	.loc 1 309 9 is_stmt 0 view .LVU444
	mov	r0, ip
.LVL130:
	.loc 1 309 9 view .LVU445
	movs	r1, #4
.LBE1803:
.LBE1802:
	.loc 1 692 9 view .LVU446
	ldrh	r6, [r3]	@ unaligned
	.loc 1 693 7 view .LVU447
	ldrb	r8, [r3, #2]	@ zero_extendqisi2
.LBB1812:
.LBB1810:
	.loc 1 309 9 view .LVU448
	bl	bt_hci_cmd_complete_create
.LVL131:
.LBB1804:
.LBB1805:
	.loc 2 1495 9 view .LVU449
	movs	r1, #4
.LBE1805:
.LBE1804:
	.loc 1 309 9 view .LVU450
	mov	r5, r0
.LVL132:
.LBB1808:
.LBB1806:
	.loc 2 1495 9 view .LVU451
	adds	r0, r0, #12
	bl	net_buf_simple_add
.LVL133:
.LBE1806:
.LBE1808:
.LBE1810:
.LBE1812:
	.loc 1 692 9 view .LVU452
	uxth	r7, r6
.LVL134:
	.loc 1 693 2 is_stmt 1 view .LVU453
	.loc 1 695 2 view .LVU454
.LBB1813:
.LBI1802:
	.loc 1 307 7 view .LVU455
.LBB1811:
	.loc 1 309 2 view .LVU456
	.loc 1 311 2 view .LVU457
.LBB1809:
.LBI1804:
	.loc 2 1493 21 view .LVU458
.LBB1807:
	.loc 2 1495 2 view .LVU459
	.loc 2 1495 9 is_stmt 0 view .LVU460
	mov	r4, r0
.LVL135:
	.loc 2 1495 9 view .LVU461
.LBE1807:
.LBE1809:
.LBE1811:
.LBE1813:
	.loc 1 697 2 is_stmt 1 view .LVU462
	.loc 1 697 11 is_stmt 0 view .LVU463
	adds	r3, r0, #3
	mov	r2, r8
	mov	r1, r7
	movs	r0, #2
.LVL136:
	.loc 1 697 11 view .LVU464
	bl	ll_tx_pwr_lvl_get
.LVL137:
	.loc 1 700 2 is_stmt 1 view .LVU465
	.loc 1 701 13 is_stmt 0 view .LVU466
	strh	r6, [r4, #1]	@ unaligned
	.loc 1 700 13 view .LVU467
	strb	r0, [r4]
	.loc 1 701 2 is_stmt 1 view .LVU468
.LVL138:
	.loc 1 701 2 is_stmt 0 view .LVU469
.LBE1801:
.LBE1800:
.LBE1799:
.LBE1798:
	.loc 1 5552 2 is_stmt 1 view .LVU470
.L32:
	.loc 1 5557 1 is_stmt 0 view .LVU471
	mov	r0, r5
	add	sp, sp, #56
	.cfi_remember_state
	.cfi_def_cfa_offset 24
	@ sp needed
	pop	{r4, r5, r6, r7, r8, pc}
.LVL139:
.L41:
	.cfi_restore_state
	.loc 1 5534 3 is_stmt 1 view .LVU472
.LBB1870:
.LBI1870:
	.loc 1 1290 12 view .LVU473
.LBB1871:
	.loc 1 1293 2 view .LVU474
	subs	r2, r4, #1
	cmp	r2, #8
	bhi	.L38
	adr	r3, .L56
	ldr	pc, [r3, r2, lsl #2]
	.p2align 2
.L56:
	.word	.L59+1
	.word	.L58+1
	.word	.L57+1
	.word	.L38+1
	.word	.L38+1
	.word	.L38+1
	.word	.L38+1
	.word	.L38+1
	.word	.L55+1
.LVL140:
	.p2align 1
.L144:
	.loc 1 1293 2 is_stmt 0 view .LVU475
.LBE1871:
.LBE1870:
	.loc 1 5511 3 is_stmt 1 view .LVU476
.LBB1920:
	.loc 1 5511 8 view .LVU477
	.loc 1 5511 57 view .LVU478
	.loc 1 5511 14 view .LVU479
	.loc 1 5511 2 view .LVU480
	.loc 1 5511 41 view .LVU481
	.loc 1 5511 176 view .LVU482
	.loc 1 5511 187 view .LVU483
	.loc 1 5511 275 view .LVU484
	.loc 1 5511 3 view .LVU485
	.loc 1 5511 3 view .LVU486
.LBB1921:
	.loc 1 5511 8 view .LVU487
	.loc 1 5511 2 view .LVU488
.LBE1921:
.LBE1920:
	.loc 1 5511 3 view .LVU489
	.loc 1 5511 12 view .LVU490
	.loc 1 5511 107 view .LVU491
	.loc 1 5511 3 view .LVU492
.LBB1932:
.LBB1929:
	.loc 1 5511 12 view .LVU493
	.loc 1 5511 102 view .LVU494
	.loc 1 5511 104 view .LVU495
.LBB1922:
	.loc 1 5511 109 view .LVU496
	.loc 1 5511 120 view .LVU497
	.loc 1 5511 209 view .LVU498
	.loc 1 5511 26 view .LVU499
.LBE1922:
.LBE1929:
.LBE1932:
	.loc 1 5511 3 view .LVU500
	.loc 1 5511 368 view .LVU501
	.loc 1 5511 75 view .LVU502
	.loc 1 5511 2 view .LVU503
	.loc 1 5511 2 view .LVU504
	.loc 1 5511 2 view .LVU505
	.loc 1 5511 38 view .LVU506
	.loc 1 5511 4 view .LVU507
	.loc 1 5511 30 view .LVU508
	.loc 1 5511 56 view .LVU509
	.loc 1 5511 79 view .LVU510
	.loc 1 5511 141 view .LVU511
	.loc 1 5511 198 view .LVU512
	.loc 1 5511 263 view .LVU513
	.loc 1 5511 288 view .LVU514
	.loc 1 5511 289 view .LVU515
	.loc 1 5511 291 view .LVU516
	.loc 1 5511 321 view .LVU517
	.loc 1 5511 351 view .LVU518
	.loc 1 5511 383 view .LVU519
	.loc 1 5511 415 view .LVU520
	.loc 1 5511 447 view .LVU521
	.loc 1 5511 644 view .LVU522
	.loc 1 5511 668 view .LVU523
	.loc 1 5511 669 view .LVU524
	.loc 1 5511 671 view .LVU525
	.loc 1 5511 700 view .LVU526
	.loc 1 5511 729 view .LVU527
	.loc 1 5511 760 view .LVU528
	.loc 1 5511 791 view .LVU529
	.loc 1 5511 822 view .LVU530
	.loc 1 5511 1029 view .LVU531
	.loc 1 5511 4 view .LVU532
	.loc 1 5511 22 view .LVU533
	.loc 1 5511 42 view .LVU534
	.loc 1 5511 4 view .LVU535
	.loc 1 5511 42 view .LVU536
	.loc 1 5511 13 view .LVU537
	.loc 1 5511 13 view .LVU538
	.loc 1 5511 61 view .LVU539
	.loc 1 5511 92 view .LVU540
	.loc 1 5511 126 view .LVU541
	.loc 1 5511 131 view .LVU542
	.loc 1 5511 376 view .LVU543
	.loc 1 5511 1409 view .LVU544
	.loc 1 5511 1474 view .LVU545
	.loc 1 5511 1498 view .LVU546
	.loc 1 5511 1547 view .LVU547
	.loc 1 5511 1558 view .LVU548
	.loc 1 5511 1665 view .LVU549
	.loc 1 5511 1681 view .LVU550
	.loc 1 5511 1721 view .LVU551
	.loc 1 5511 1746 view .LVU552
	.loc 1 5511 3025 view .LVU553
	.loc 1 5511 3066 view .LVU554
	.loc 1 5511 7 view .LVU555
	.loc 1 5511 30 view .LVU556
	.loc 1 5511 129 view .LVU557
	.loc 1 5511 5 view .LVU558
	.loc 1 5511 28 view .LVU559
	.loc 1 5511 52 view .LVU560
	.loc 1 5511 80 view .LVU561
	.loc 1 5511 256 view .LVU562
	.loc 1 5511 16 view .LVU563
.LBB1933:
.LBB1930:
.LBB1927:
	.loc 1 5511 29 view .LVU564
	.loc 1 5511 3 view .LVU565
	.loc 1 5511 3 view .LVU566
	.loc 1 5511 70 view .LVU567
	.loc 1 5511 74 view .LVU568
	.loc 1 5511 484 view .LVU569
	.loc 1 5511 5 view .LVU570
	.loc 1 5511 7 view .LVU571
	.loc 1 5511 12 view .LVU572
	.loc 1 5511 10 view .LVU573
	.loc 1 5511 5 view .LVU574
	.loc 1 5511 23 view .LVU575
.LBB1923:
	.loc 1 5511 3 view .LVU576
	.loc 1 5511 368 view .LVU577
	.loc 1 5511 75 view .LVU578
.LVL141:
	.loc 1 5511 2 view .LVU579
	.loc 1 5511 2 view .LVU580
	.loc 1 5511 2 view .LVU581
	.loc 1 5511 38 view .LVU582
	.loc 1 5511 67 view .LVU583
	.loc 1 5511 93 view .LVU584
	.loc 1 5511 119 view .LVU585
	.loc 1 5511 142 view .LVU586
	.loc 1 5511 204 view .LVU587
	.loc 1 5511 261 view .LVU588
	.loc 1 5511 326 view .LVU589
	.loc 1 5511 351 view .LVU590
	.loc 1 5511 352 view .LVU591
	.loc 1 5511 354 view .LVU592
	.loc 1 5511 384 view .LVU593
	.loc 1 5511 414 view .LVU594
	.loc 1 5511 446 view .LVU595
	.loc 1 5511 478 view .LVU596
	.loc 1 5511 510 view .LVU597
	.loc 1 5511 707 view .LVU598
	.loc 1 5511 731 view .LVU599
	.loc 1 5511 732 view .LVU600
	.loc 1 5511 734 view .LVU601
	.loc 1 5511 763 view .LVU602
	.loc 1 5511 792 view .LVU603
	.loc 1 5511 823 view .LVU604
	.loc 1 5511 854 view .LVU605
	.loc 1 5511 885 view .LVU606
	.loc 1 5511 1092 view .LVU607
	.loc 1 5511 4 view .LVU608
	.loc 1 5511 22 view .LVU609
	.loc 1 5511 42 view .LVU610
	.loc 1 5511 4 view .LVU611
	.loc 1 5511 42 view .LVU612
	.loc 1 5511 13 view .LVU613
	.loc 1 5511 13 view .LVU614
	.loc 1 5511 61 view .LVU615
	.loc 1 5511 92 view .LVU616
	.loc 1 5511 126 view .LVU617
.LBB1924:
	.loc 1 5511 131 view .LVU618
	.loc 1 5511 376 view .LVU619
	.loc 1 5511 1409 view .LVU620
	.loc 1 5511 1474 view .LVU621
.LBE1924:
.LBE1923:
.LBE1927:
.LBE1930:
.LBE1933:
	.loc 1 5511 1498 view .LVU622
	.loc 1 5511 1547 view .LVU623
	.loc 1 5511 1558 view .LVU624
	.loc 1 5511 1665 view .LVU625
.LBB1934:
.LBB1931:
.LBB1928:
.LBB1926:
.LBB1925:
	.loc 1 5511 1681 view .LVU626
	.loc 1 5511 1721 view .LVU627
	.loc 1 5511 1746 view .LVU628
	.loc 1 5511 3025 view .LVU629
	.loc 1 5511 3063 view .LVU630
	.loc 1 5511 3068 view .LVU631
	.loc 1 5511 3632 view .LVU632
	.loc 1 5511 0 is_stmt 0 view .LVU633
	ldr	r2, .L149+4
.LVL142:
.L135:
	.loc 1 5511 0 view .LVU634
.LBE1925:
.LBE1926:
.LBE1928:
.LBE1931:
.LBE1934:
.LBB1935:
.LBB1936:
.LBB1937:
.LBB1938:
.LBB1939:
	.loc 1 5517 176 view .LVU635
	movs	r3, #2
	strd	r3, r2, [sp, #48]
.LVL143:
	.loc 1 5517 176 view .LVU636
.LBE1939:
.LBE1938:
	.loc 1 5517 26 is_stmt 1 view .LVU637
	.loc 1 5517 7 view .LVU638
	.loc 1 5517 147 view .LVU639
	.loc 1 5517 149 view .LVU640
.LBB1942:
.LBI1942:
	.file 5 "/home/g/mise-work/zmk-firmware/zmk/app/build/zephyr/include/generated/syscalls/log_msg.h"
	.loc 5 26 20 view .LVU641
.LBB1943:
	.loc 5 38 2 view .LVU642
	.loc 5 38 7 view .LVU643
	.loc 5 38 5 view .LVU644
	.loc 5 39 2 view .LVU645
	ldr	r0, .L149+8
	mov	r3, r4
	add	r2, sp, #48
.LVL144:
	.loc 5 39 2 is_stmt 0 view .LVU646
	mov	r1, #4160
	bl	z_impl_z_log_msg_static_create
.LVL145:
	.loc 5 39 2 view .LVU647
.LBE1943:
.LBE1942:
.LBE1937:
	.loc 1 5517 107 is_stmt 1 view .LVU648
	.loc 1 5517 5 view .LVU649
.LVL146:
	.loc 1 5517 42 view .LVU650
.LBE1936:
	.loc 1 5517 6 view .LVU651
	.loc 1 5517 278 view .LVU652
	.loc 1 5517 5 view .LVU653
	.loc 1 5517 18 view .LVU654
.LBE1935:
	.loc 1 5517 6 view .LVU655
	.loc 1 5518 3 view .LVU656
	.loc 1 5512 9 is_stmt 0 view .LVU657
	movs	r5, #0
	.loc 1 5557 1 view .LVU658
	mov	r0, r5
	add	sp, sp, #56
	.cfi_remember_state
	.cfi_def_cfa_offset 24
	@ sp needed
	pop	{r4, r5, r6, r7, r8, pc}
.LVL147:
.L147:
	.cfi_restore_state
.LBB1953:
.LBB1864:
	.loc 1 708 2 view .LVU659
	cmp	r4, #1
	bne	.L38
	.loc 1 710 3 is_stmt 1 view .LVU660
.LVL148:
.LBB1814:
.LBI1814:
	.loc 1 414 13 view .LVU661
.LBB1815:
	.loc 1 416 2 view .LVU662
	.loc 1 418 2 view .LVU663
.LBB1816:
.LBI1816:
	.file 6 "/home/g/mise-work/zmk-firmware/zmk/zephyr/include/zephyr/sys/byteorder.h"
	.loc 6 595 24 view .LVU664
.LBB1817:
	.loc 6 597 2 view .LVU665
	.loc 6 597 49 is_stmt 0 view .LVU666
	ldr	r2, [r5, #12]
.LBE1817:
.LBE1816:
	.loc 1 418 13 view .LVU667
	ldr	r3, .L149+12
.LBB1819:
.LBB1818:
	.loc 6 597 49 view .LVU668
	ldr	r1, [r2]	@ unaligned
	ldr	r2, [r2, #4]	@ unaligned
.LBE1818:
.LBE1819:
	.loc 1 418 13 view .LVU669
	str	r1, [r3]
.LBB1820:
.LBB1821:
	.loc 1 324 8 view .LVU670
	mov	r0, ip
.LVL149:
	.loc 1 324 8 view .LVU671
	mov	r1, r4
.LVL150:
.L136:
	.loc 1 324 8 view .LVU672
.LBE1821:
.LBE1820:
.LBE1815:
.LBE1814:
.LBB1822:
.LBB1823:
	.loc 1 427 20 view .LVU673
	str	r2, [r3, #4]
.L138:
	.loc 1 429 2 is_stmt 1 view .LVU674
.LVL151:
.LBB1824:
.LBI1824:
	.loc 1 319 24 view .LVU675
.LBB1825:
	.loc 1 321 2 view .LVU676
	.loc 1 322 2 view .LVU677
	.loc 1 324 2 view .LVU678
	.loc 1 324 8 is_stmt 0 view .LVU679
	bl	bt_hci_cmd_complete_create
.LVL152:
.LBB1826:
.LBB1827:
	.loc 2 1495 9 view .LVU680
	movs	r1, #1
.LBE1827:
.LBE1826:
	.loc 1 324 8 view .LVU681
	mov	r5, r0
.LVL153:
	.loc 1 325 2 is_stmt 1 view .LVU682
.LBB1829:
.LBI1826:
	.loc 2 1493 21 view .LVU683
.LBB1828:
	.loc 2 1495 2 view .LVU684
	.loc 2 1495 9 is_stmt 0 view .LVU685
	adds	r0, r0, #12
.LVL154:
	.loc 2 1495 9 view .LVU686
	bl	net_buf_simple_add
.LVL155:
	.loc 2 1495 9 view .LVU687
.LBE1828:
.LBE1829:
	.loc 1 326 2 is_stmt 1 view .LVU688
	.loc 1 326 15 is_stmt 0 view .LVU689
	movs	r3, #0
	strb	r3, [r0]
	.loc 1 328 2 is_stmt 1 view .LVU690
.LVL156:
	.loc 1 328 2 is_stmt 0 view .LVU691
.LBE1825:
.LBE1824:
.LBE1823:
.LBE1822:
.LBE1864:
.LBE1953:
	.loc 1 5552 2 is_stmt 1 view .LVU692
	b	.L32
.LVL157:
.L48:
.LBB1954:
.LBB1865:
	.loc 1 708 2 is_stmt 0 view .LVU693
	cmp	r4, #123
	beq	.L52
	cmp	r4, #124
	bne	.L38
	.loc 1 757 3 is_stmt 1 view .LVU694
.LVL158:
.LBB1838:
.LBI1838:
	.loc 1 609 13 view .LVU695
.LBB1839:
	.loc 1 612 2 view .LVU696
	.loc 1 612 47 is_stmt 0 view .LVU697
	ldr	r3, [r5, #12]
.LVL159:
	.loc 1 613 2 is_stmt 1 view .LVU698
	.loc 1 614 2 view .LVU699
	.loc 1 615 2 view .LVU700
	.loc 1 616 2 view .LVU701
	.loc 1 618 2 view .LVU702
	.loc 1 618 9 is_stmt 0 view .LVU703
	ldrh	r7, [r3]	@ unaligned
.LVL160:
	.loc 1 619 2 is_stmt 1 view .LVU704
	.loc 1 621 2 view .LVU705
	.loc 1 621 11 is_stmt 0 view .LVU706
	ldrh	r1, [r3, #2]	@ unaligned
	uxth	r0, r7
.LVL161:
	.loc 1 621 11 view .LVU707
	bl	ll_apto_set
.LVL162:
.L137:
	.loc 1 621 11 view .LVU708
.LBE1839:
.LBE1838:
.LBE1865:
.LBE1954:
.LBB1955:
.LBB1778:
.LBB1458:
.LBB1459:
	.loc 1 2417 11 view .LVU709
	mov	r4, r0
.LVL163:
.LBB1460:
.LBB1461:
	.loc 1 309 9 view .LVU710
	movs	r1, #3
	ldrh	r0, [r6]
.LVL164:
	.loc 1 309 9 view .LVU711
.LBE1461:
.LBE1460:
	.loc 1 2419 2 is_stmt 1 view .LVU712
.LBB1467:
.LBI1460:
	.loc 1 307 7 view .LVU713
.LBB1466:
	.loc 1 309 2 view .LVU714
	.loc 1 309 9 is_stmt 0 view .LVU715
	bl	bt_hci_cmd_complete_create
.LVL165:
.LBB1462:
.LBB1463:
	.loc 2 1495 9 view .LVU716
	movs	r1, #3
.LBE1463:
.LBE1462:
	.loc 1 309 9 view .LVU717
	mov	r5, r0
.LVL166:
	.loc 1 311 2 is_stmt 1 view .LVU718
.LBB1465:
.LBI1462:
	.loc 2 1493 21 view .LVU719
.LBB1464:
	.loc 2 1495 2 view .LVU720
	.loc 2 1495 9 is_stmt 0 view .LVU721
	adds	r0, r0, #12
.LVL167:
	.loc 2 1495 9 view .LVU722
	bl	net_buf_simple_add
.LVL168:
	.loc 2 1495 9 view .LVU723
.LBE1464:
.LBE1465:
.LBE1466:
.LBE1467:
	.loc 1 2420 2 is_stmt 1 view .LVU724
	.loc 1 2420 13 is_stmt 0 view .LVU725
	strb	r4, [r0]
	.loc 1 2421 2 is_stmt 1 view .LVU726
	.loc 1 2421 13 is_stmt 0 view .LVU727
	strh	r7, [r0, #1]	@ unaligned
.LVL169:
	.loc 1 2421 13 view .LVU728
.LBE1459:
.LBE1458:
.LBE1778:
.LBE1955:
	.loc 1 5552 2 is_stmt 1 view .LVU729
	b	.L32
.LVL170:
.L145:
	.loc 1 5517 3 view .LVU730
.LBB1956:
	.loc 1 5517 8 view .LVU731
	.loc 1 5517 57 view .LVU732
	.loc 1 5517 14 view .LVU733
	.loc 1 5517 2 view .LVU734
	.loc 1 5517 41 view .LVU735
	.loc 1 5517 176 view .LVU736
	.loc 1 5517 187 view .LVU737
	.loc 1 5517 275 view .LVU738
	.loc 1 5517 3 view .LVU739
	.loc 1 5517 3 view .LVU740
.LBB1949:
	.loc 1 5517 8 view .LVU741
	.loc 1 5517 2 view .LVU742
.LBE1949:
.LBE1956:
	.loc 1 5517 3 view .LVU743
	.loc 1 5517 12 view .LVU744
	.loc 1 5517 107 view .LVU745
	.loc 1 5517 3 view .LVU746
.LBB1957:
.LBB1950:
	.loc 1 5517 12 view .LVU747
	.loc 1 5517 102 view .LVU748
	.loc 1 5517 104 view .LVU749
.LBB1946:
	.loc 1 5517 109 view .LVU750
	.loc 1 5517 120 view .LVU751
	.loc 1 5517 209 view .LVU752
	.loc 1 5517 26 view .LVU753
.LBE1946:
.LBE1950:
.LBE1957:
	.loc 1 5517 3 view .LVU754
	.loc 1 5517 368 view .LVU755
	.loc 1 5517 75 view .LVU756
	.loc 1 5517 2 view .LVU757
	.loc 1 5517 2 view .LVU758
	.loc 1 5517 2 view .LVU759
	.loc 1 5517 38 view .LVU760
	.loc 1 5517 4 view .LVU761
	.loc 1 5517 30 view .LVU762
	.loc 1 5517 56 view .LVU763
	.loc 1 5517 79 view .LVU764
	.loc 1 5517 141 view .LVU765
	.loc 1 5517 198 view .LVU766
	.loc 1 5517 263 view .LVU767
	.loc 1 5517 288 view .LVU768
	.loc 1 5517 289 view .LVU769
	.loc 1 5517 291 view .LVU770
	.loc 1 5517 321 view .LVU771
	.loc 1 5517 351 view .LVU772
	.loc 1 5517 383 view .LVU773
	.loc 1 5517 415 view .LVU774
	.loc 1 5517 447 view .LVU775
	.loc 1 5517 644 view .LVU776
	.loc 1 5517 668 view .LVU777
	.loc 1 5517 669 view .LVU778
	.loc 1 5517 671 view .LVU779
	.loc 1 5517 700 view .LVU780
	.loc 1 5517 729 view .LVU781
	.loc 1 5517 760 view .LVU782
	.loc 1 5517 791 view .LVU783
	.loc 1 5517 822 view .LVU784
	.loc 1 5517 1029 view .LVU785
	.loc 1 5517 4 view .LVU786
	.loc 1 5517 22 view .LVU787
	.loc 1 5517 42 view .LVU788
	.loc 1 5517 4 view .LVU789
	.loc 1 5517 42 view .LVU790
	.loc 1 5517 13 view .LVU791
	.loc 1 5517 13 view .LVU792
	.loc 1 5517 61 view .LVU793
	.loc 1 5517 92 view .LVU794
	.loc 1 5517 126 view .LVU795
	.loc 1 5517 131 view .LVU796
	.loc 1 5517 384 view .LVU797
	.loc 1 5517 1449 view .LVU798
	.loc 1 5517 1514 view .LVU799
	.loc 1 5517 1538 view .LVU800
	.loc 1 5517 1595 view .LVU801
	.loc 1 5517 1606 view .LVU802
	.loc 1 5517 1721 view .LVU803
	.loc 1 5517 1737 view .LVU804
	.loc 1 5517 1777 view .LVU805
	.loc 1 5517 1802 view .LVU806
	.loc 1 5517 3097 view .LVU807
	.loc 1 5517 3138 view .LVU808
	.loc 1 5517 7 view .LVU809
	.loc 1 5517 30 view .LVU810
	.loc 1 5517 129 view .LVU811
	.loc 1 5517 5 view .LVU812
	.loc 1 5517 28 view .LVU813
	.loc 1 5517 52 view .LVU814
	.loc 1 5517 80 view .LVU815
	.loc 1 5517 256 view .LVU816
	.loc 1 5517 16 view .LVU817
.LBB1958:
.LBB1951:
.LBB1947:
	.loc 1 5517 29 view .LVU818
	.loc 1 5517 3 view .LVU819
	.loc 1 5517 3 view .LVU820
	.loc 1 5517 70 view .LVU821
	.loc 1 5517 74 view .LVU822
	.loc 1 5517 484 view .LVU823
	.loc 1 5517 5 view .LVU824
	.loc 1 5517 7 view .LVU825
	.loc 1 5517 12 view .LVU826
	.loc 1 5517 10 view .LVU827
	.loc 1 5517 5 view .LVU828
	.loc 1 5517 23 view .LVU829
.LBB1944:
	.loc 1 5517 3 view .LVU830
	.loc 1 5517 368 view .LVU831
	.loc 1 5517 75 view .LVU832
.LVL171:
	.loc 1 5517 2 view .LVU833
	.loc 1 5517 2 view .LVU834
	.loc 1 5517 2 view .LVU835
	.loc 1 5517 38 view .LVU836
	.loc 1 5517 67 view .LVU837
	.loc 1 5517 93 view .LVU838
	.loc 1 5517 119 view .LVU839
	.loc 1 5517 142 view .LVU840
	.loc 1 5517 204 view .LVU841
	.loc 1 5517 261 view .LVU842
	.loc 1 5517 326 view .LVU843
	.loc 1 5517 351 view .LVU844
	.loc 1 5517 352 view .LVU845
	.loc 1 5517 354 view .LVU846
	.loc 1 5517 384 view .LVU847
	.loc 1 5517 414 view .LVU848
	.loc 1 5517 446 view .LVU849
	.loc 1 5517 478 view .LVU850
	.loc 1 5517 510 view .LVU851
	.loc 1 5517 707 view .LVU852
	.loc 1 5517 731 view .LVU853
	.loc 1 5517 732 view .LVU854
	.loc 1 5517 734 view .LVU855
	.loc 1 5517 763 view .LVU856
	.loc 1 5517 792 view .LVU857
	.loc 1 5517 823 view .LVU858
	.loc 1 5517 854 view .LVU859
	.loc 1 5517 885 view .LVU860
	.loc 1 5517 1092 view .LVU861
	.loc 1 5517 4 view .LVU862
	.loc 1 5517 22 view .LVU863
	.loc 1 5517 42 view .LVU864
	.loc 1 5517 4 view .LVU865
	.loc 1 5517 42 view .LVU866
	.loc 1 5517 13 view .LVU867
	.loc 1 5517 13 view .LVU868
	.loc 1 5517 61 view .LVU869
	.loc 1 5517 92 view .LVU870
	.loc 1 5517 126 view .LVU871
.LBB1940:
	.loc 1 5517 131 view .LVU872
	.loc 1 5517 384 view .LVU873
	.loc 1 5517 1449 view .LVU874
	.loc 1 5517 1514 view .LVU875
.LBE1940:
.LBE1944:
.LBE1947:
.LBE1951:
.LBE1958:
	.loc 1 5517 1538 view .LVU876
	.loc 1 5517 1595 view .LVU877
	.loc 1 5517 1606 view .LVU878
	.loc 1 5517 1721 view .LVU879
.LBB1959:
.LBB1952:
.LBB1948:
.LBB1945:
.LBB1941:
	.loc 1 5517 1737 view .LVU880
	.loc 1 5517 1777 view .LVU881
	.loc 1 5517 1802 view .LVU882
	.loc 1 5517 3097 view .LVU883
	.loc 1 5517 3135 view .LVU884
	.loc 1 5517 3140 view .LVU885
	.loc 1 5517 3752 view .LVU886
	.loc 1 5517 0 is_stmt 0 view .LVU887
	ldr	r2, .L149+16
	b	.L135
.LVL172:
.L55:
	.loc 1 5517 0 view .LVU888
.LBE1941:
.LBE1945:
.LBE1948:
.LBE1952:
.LBE1959:
.LBB1960:
.LBB1916:
	.loc 1 1307 3 is_stmt 1 view .LVU889
.LBB1872:
.LBI1872:
	.loc 1 1090 13 view .LVU890
.LBB1873:
	.loc 1 1092 2 view .LVU891
	.loc 1 1094 2 view .LVU892
.LBB1874:
.LBI1874:
	.loc 1 307 7 view .LVU893
.LBB1875:
	.loc 1 309 2 view .LVU894
	.loc 1 309 9 is_stmt 0 view .LVU895
	mov	r0, ip
.LVL173:
	.loc 1 309 9 view .LVU896
	movs	r1, #7
	bl	bt_hci_cmd_complete_create
.LVL174:
.LBB1876:
.LBB1877:
	.loc 2 1495 9 view .LVU897
	movs	r1, #7
.LBE1877:
.LBE1876:
	.loc 1 309 9 view .LVU898
	mov	r5, r0
.LVL175:
	.loc 1 311 2 is_stmt 1 view .LVU899
.LBB1879:
.LBI1876:
	.loc 2 1493 21 view .LVU900
.LBB1878:
	.loc 2 1495 2 view .LVU901
	.loc 2 1495 9 is_stmt 0 view .LVU902
	adds	r0, r0, #12
.LVL176:
	.loc 2 1495 9 view .LVU903
	bl	net_buf_simple_add
.LVL177:
	.loc 2 1495 9 view .LVU904
.LBE1878:
.LBE1879:
.LBE1875:
.LBE1874:
	.loc 1 1096 2 is_stmt 1 view .LVU905
	.loc 1 1096 13 is_stmt 0 view .LVU906
	mov	r1, r0
	movs	r0, #0
.LVL178:
	.loc 1 1096 13 view .LVU907
	strb	r0, [r1], #1
.LVL179:
	.loc 1 1098 2 is_stmt 1 view .LVU908
	.loc 1 1098 8 is_stmt 0 view .LVU909
	bl	ll_addr_read
.LVL180:
	.loc 1 1098 8 view .LVU910
.LBE1873:
.LBE1872:
.LBE1916:
.LBE1960:
	.loc 1 5552 2 is_stmt 1 view .LVU911
	b	.L32
.LVL181:
.L57:
.LBB1961:
.LBB1917:
	.loc 1 1303 3 view .LVU912
.LBB1880:
.LBI1880:
	.loc 1 1078 13 view .LVU913
.LBB1881:
	.loc 1 1080 2 view .LVU914
	.loc 1 1082 2 view .LVU915
.LBB1882:
.LBI1882:
	.loc 1 307 7 view .LVU916
.LBB1883:
	.loc 1 309 2 view .LVU917
	.loc 1 309 9 is_stmt 0 view .LVU918
	movs	r1, #9
	mov	r0, ip
.LVL182:
	.loc 1 309 9 view .LVU919
	bl	bt_hci_cmd_complete_create
.LVL183:
.LBB1884:
.LBB1885:
	.loc 2 1495 9 view .LVU920
	movs	r1, #9
.LBE1885:
.LBE1884:
	.loc 1 309 9 view .LVU921
	mov	r5, r0
.LVL184:
	.loc 1 311 2 is_stmt 1 view .LVU922
.LBB1887:
.LBI1884:
	.loc 2 1493 21 view .LVU923
.LBB1886:
	.loc 2 1495 2 view .LVU924
	.loc 2 1495 9 is_stmt 0 view .LVU925
	adds	r0, r0, #12
.LVL185:
	.loc 2 1495 9 view .LVU926
	bl	net_buf_simple_add
.LVL186:
	.loc 2 1495 9 view .LVU927
.LBE1886:
.LBE1887:
.LBE1883:
.LBE1882:
	.loc 1 1084 2 is_stmt 1 view .LVU928
	.loc 1 1084 13 is_stmt 0 view .LVU929
	mov	r3, r0
	movs	r2, #0
	strb	r2, [r3], #1
	.loc 1 1085 2 is_stmt 1 view .LVU930
.LVL187:
.LBB1888:
.LBI1888:
	.loc 3 86 189 view .LVU931
.LBB1889:
	.loc 3 86 238 view .LVU932
.LBE1889:
.LBE1888:
	.loc 1 1087 18 is_stmt 0 view .LVU933
	movs	r1, #96
.LBB1891:
.LBB1890:
	.loc 3 86 245 view .LVU934
	str	r2, [r0, #1]	@ unaligned
	str	r2, [r3, #4]	@ unaligned
.LVL188:
	.loc 3 86 245 view .LVU935
.LBE1890:
.LBE1891:
	.loc 1 1087 2 is_stmt 1 view .LVU936
	.loc 1 1087 18 is_stmt 0 view .LVU937
	strb	r1, [r0, #5]
.LVL189:
	.loc 1 1087 18 view .LVU938
.LBE1881:
.LBE1880:
.LBE1917:
.LBE1961:
	.loc 1 5552 2 is_stmt 1 view .LVU939
	b	.L32
.LVL190:
.L58:
.LBB1962:
.LBB1918:
	.loc 1 1299 3 view .LVU940
.LBB1892:
.LBI1892:
	.loc 1 788 13 view .LVU941
.LBB1893:
	.loc 1 790 2 view .LVU942
	.loc 1 792 2 view .LVU943
.LBB1894:
.LBI1894:
	.loc 1 307 7 view .LVU944
.LBB1895:
	.loc 1 309 2 view .LVU945
	.loc 1 309 9 is_stmt 0 view .LVU946
	mov	r0, ip
.LVL191:
	.loc 1 309 9 view .LVU947
	movs	r1, #65
	bl	bt_hci_cmd_complete_create
.LVL192:
.LBB1896:
.LBB1897:
	.loc 2 1495 9 view .LVU948
	movs	r1, #65
.LBE1897:
.LBE1896:
	.loc 1 309 9 view .LVU949
	mov	r5, r0
.LVL193:
	.loc 1 311 2 is_stmt 1 view .LVU950
.LBB1900:
.LBI1896:
	.loc 2 1493 21 view .LVU951
.LBB1898:
	.loc 2 1495 2 view .LVU952
	.loc 2 1495 9 is_stmt 0 view .LVU953
	adds	r0, r0, #12
.LVL194:
	.loc 2 1495 9 view .LVU954
	bl	net_buf_simple_add
.LVL195:
.LBE1898:
.LBE1900:
.LBE1895:
.LBE1894:
	.loc 1 794 13 view .LVU955
	movs	r1, #0
.LBB1903:
.LBB1902:
.LBB1901:
.LBB1899:
	.loc 2 1495 9 view .LVU956
	mov	r4, r0
.LVL196:
	.loc 2 1495 9 view .LVU957
.LBE1899:
.LBE1901:
.LBE1902:
.LBE1903:
	.loc 1 794 2 is_stmt 1 view .LVU958
.LBB1904:
.LBB1905:
	.loc 3 86 245 is_stmt 0 view .LVU959
	movs	r2, #63
.LBE1905:
.LBE1904:
	.loc 1 794 13 view .LVU960
	strb	r1, [r0], #2
.LVL197:
	.loc 1 795 2 is_stmt 1 view .LVU961
.LBB1907:
.LBI1904:
	.loc 3 86 189 view .LVU962
.LBB1906:
	.loc 3 86 238 view .LVU963
	.loc 3 86 245 is_stmt 0 view .LVU964
	bl	memset
.LVL198:
	.loc 3 86 245 view .LVU965
.LBE1906:
.LBE1907:
	.loc 1 802 2 is_stmt 1 view .LVU966
	.loc 1 810 19 is_stmt 0 view .LVU967
	movs	r3, #4
	.loc 1 848 19 view .LVU968
	ldr	r2, .L149+20
	.loc 1 810 19 view .LVU969
	strb	r3, [r4, #11]
	.loc 1 828 19 view .LVU970
	strb	r3, [r4, #23]
	.loc 1 938 18 view .LVU971
	movs	r3, #32
	.loc 1 949 19 view .LVU972
	ldr	r1, .L149+24
	.loc 1 848 19 view .LVU973
	str	r2, [r4, #26]	@ unaligned
	.loc 1 802 18 view .LVU974
	movs	r0, #192
	.loc 1 1041 19 view .LVU975
	mov	r2, #1152
	.loc 1 938 18 view .LVU976
	strb	r3, [r4, #1]
	.loc 1 818 19 view .LVU977
	mov	r3, #552
	.loc 1 802 18 view .LVU978
	strb	r0, [r4, #6]
	.loc 1 810 2 is_stmt 1 view .LVU979
	.loc 1 818 2 view .LVU980
	.loc 1 820 2 view .LVU981
	.loc 1 949 19 is_stmt 0 view .LVU982
	str	r1, [r4, #33]	@ unaligned
	.loc 1 1041 19 view .LVU983
	strh	r2, [r4, #39]	@ unaligned
	.loc 1 818 19 view .LVU984
	strh	r3, [r4, #15]	@ unaligned
	.loc 1 828 2 is_stmt 1 view .LVU985
	.loc 1 832 2 view .LVU986
	.loc 1 836 2 view .LVU987
	.loc 1 838 2 view .LVU988
	.loc 1 842 2 view .LVU989
	.loc 1 844 2 view .LVU990
	.loc 1 848 2 view .LVU991
	.loc 1 850 2 view .LVU992
	.loc 1 929 2 view .LVU993
	.loc 1 938 2 view .LVU994
	.loc 1 940 2 view .LVU995
	.loc 1 944 2 view .LVU996
	.loc 1 949 2 view .LVU997
	.loc 1 954 2 view .LVU998
	.loc 1 956 2 view .LVU999
	.loc 1 958 2 view .LVU1000
	.loc 1 963 2 view .LVU1001
	.loc 1 965 2 view .LVU1002
	.loc 1 967 2 view .LVU1003
	.loc 1 997 2 view .LVU1004
	.loc 1 999 2 view .LVU1005
	.loc 1 1001 2 view .LVU1006
	.loc 1 1041 2 view .LVU1007
.LVL199:
	.loc 1 1041 2 is_stmt 0 view .LVU1008
.LBE1893:
.LBE1892:
.LBE1918:
.LBE1962:
	.loc 1 5552 2 is_stmt 1 view .LVU1009
	b	.L32
.L150:
	.align	2
.L149:
	.word	_opcode
	.word	.LC1
	.word	log_const_bt_ctlr_hci
	.word	event_mask
	.word	.LC2
	.word	251118583
	.word	2147086384
.LVL200:
.L59:
.LBB1963:
.LBB1919:
	.loc 1 1295 3 view .LVU1010
.LBB1908:
.LBI1908:
	.loc 1 774 13 view .LVU1011
.LBB1909:
	.loc 1 776 2 view .LVU1012
	.loc 1 778 2 view .LVU1013
.LBB1910:
.LBI1910:
	.loc 1 307 7 view .LVU1014
.LBB1911:
	.loc 1 309 2 view .LVU1015
	.loc 1 309 9 is_stmt 0 view .LVU1016
	movs	r1, #9
	mov	r0, ip
.LVL201:
	.loc 1 309 9 view .LVU1017
	bl	bt_hci_cmd_complete_create
.LVL202:
.LBB1912:
.LBB1913:
	.loc 2 1495 9 view .LVU1018
	movs	r1, #9
.LBE1913:
.LBE1912:
	.loc 1 309 9 view .LVU1019
	mov	r5, r0
.LVL203:
	.loc 1 311 2 is_stmt 1 view .LVU1020
.LBB1915:
.LBI1912:
	.loc 2 1493 21 view .LVU1021
.LBB1914:
	.loc 2 1495 2 view .LVU1022
	.loc 2 1495 9 is_stmt 0 view .LVU1023
	adds	r0, r0, #12
.LVL204:
	.loc 2 1495 9 view .LVU1024
	bl	net_buf_simple_add
.LVL205:
	.loc 2 1495 9 view .LVU1025
.LBE1914:
.LBE1915:
.LBE1911:
.LBE1910:
	.loc 1 780 2 is_stmt 1 view .LVU1026
	.loc 1 781 2 view .LVU1027
	.loc 1 780 13 is_stmt 0 view .LVU1028
	mov	r1, #3328
	.loc 1 782 19 view .LVU1029
	movs	r3, #0
	.loc 1 784 19 view .LVU1030
	ldr	r2, .L151
	.loc 1 780 13 view .LVU1031
	strh	r1, [r0]	@ unaligned
	.loc 1 782 2 is_stmt 1 view .LVU1032
	.loc 1 783 18 is_stmt 0 view .LVU1033
	movs	r1, #13
	.loc 1 782 19 view .LVU1034
	strb	r3, [r0, #2]
	strb	r3, [r0, #3]
	.loc 1 783 2 is_stmt 1 view .LVU1035
	.loc 1 783 18 is_stmt 0 view .LVU1036
	strb	r1, [r0, #4]
	.loc 1 784 2 is_stmt 1 view .LVU1037
	.loc 1 785 2 view .LVU1038
	.loc 1 784 19 is_stmt 0 view .LVU1039
	str	r2, [r0, #5]	@ unaligned
.LVL206:
	.loc 1 784 19 view .LVU1040
.LBE1909:
.LBE1908:
.LBE1919:
.LBE1963:
	.loc 1 5552 2 is_stmt 1 view .LVU1041
	b	.L32
.LVL207:
.L60:
.LBB1964:
.LBB1779:
	.loc 1 4674 3 view .LVU1042
.LBB1470:
.LBI1470:
	.loc 1 2829 13 view .LVU1043
.LBB1471:
	.loc 1 2831 2 view .LVU1044
	.loc 1 2831 40 is_stmt 0 view .LVU1045
	ldr	r0, [r5, #12]
.LVL208:
	.loc 1 2832 2 is_stmt 1 view .LVU1046
	.loc 1 2834 2 view .LVU1047
	.loc 1 2834 11 is_stmt 0 view .LVU1048
	ldrb	r1, [r0, #7]	@ zero_extendqisi2
	bl	ll_priv_mode_set
.LVL209:
.L139:
	.loc 1 2834 11 view .LVU1049
	mov	r4, r0
.LBB1472:
.LBB1473:
	.loc 1 324 8 view .LVU1050
	movs	r1, #1
	ldrh	r0, [r6]
.LVL210:
	.loc 1 324 8 view .LVU1051
.LBE1473:
.LBE1472:
	.loc 1 2836 2 is_stmt 1 view .LVU1052
.LBB1479:
.LBI1472:
	.loc 1 319 24 view .LVU1053
.LBB1478:
	.loc 1 321 2 view .LVU1054
	.loc 1 322 2 view .LVU1055
	.loc 1 324 2 view .LVU1056
	.loc 1 324 8 is_stmt 0 view .LVU1057
	bl	bt_hci_cmd_complete_create
.LVL211:
.LBB1474:
.LBB1475:
	.loc 2 1495 9 view .LVU1058
	movs	r1, #1
.LBE1475:
.LBE1474:
	.loc 1 324 8 view .LVU1059
	mov	r5, r0
.LVL212:
	.loc 1 325 2 is_stmt 1 view .LVU1060
.LBB1477:
.LBI1474:
	.loc 2 1493 21 view .LVU1061
.LBB1476:
	.loc 2 1495 2 view .LVU1062
	.loc 2 1495 9 is_stmt 0 view .LVU1063
	adds	r0, r0, #12
.LVL213:
	.loc 2 1495 9 view .LVU1064
	bl	net_buf_simple_add
.LVL214:
	.loc 2 1495 9 view .LVU1065
.LBE1476:
.LBE1477:
	.loc 1 326 2 is_stmt 1 view .LVU1066
	.loc 1 326 15 is_stmt 0 view .LVU1067
	strb	r4, [r0]
	.loc 1 328 2 is_stmt 1 view .LVU1068
.LVL215:
	.loc 1 328 2 is_stmt 0 view .LVU1069
.LBE1478:
.LBE1479:
.LBE1471:
.LBE1470:
.LBE1779:
.LBE1964:
	.loc 1 5552 2 is_stmt 1 view .LVU1070
	b	.L32
.LVL216:
.L62:
.LBB1965:
.LBB1780:
	.loc 1 4679 3 view .LVU1071
.LBB1480:
.LBI1480:
	.loc 1 2840 13 view .LVU1072
.LBB1481:
	.loc 1 2842 2 view .LVU1073
	.loc 1 2844 2 view .LVU1074
.LBB1482:
.LBI1482:
	.loc 1 307 7 view .LVU1075
.LBB1483:
	.loc 1 309 2 view .LVU1076
	.loc 1 309 9 is_stmt 0 view .LVU1077
	mov	r0, ip
.LVL217:
	.loc 1 309 9 view .LVU1078
	movs	r1, #3
	bl	bt_hci_cmd_complete_create
.LVL218:
.LBB1484:
.LBB1485:
	.loc 2 1495 9 view .LVU1079
	movs	r1, #3
.LBE1485:
.LBE1484:
	.loc 1 309 9 view .LVU1080
	mov	r5, r0
.LVL219:
	.loc 1 311 2 is_stmt 1 view .LVU1081
.LBB1487:
.LBI1484:
	.loc 2 1493 21 view .LVU1082
.LBB1486:
	.loc 2 1495 2 view .LVU1083
	.loc 2 1495 9 is_stmt 0 view .LVU1084
	adds	r0, r0, #12
.LVL220:
	.loc 2 1495 9 view .LVU1085
	bl	net_buf_simple_add
.LVL221:
	.loc 2 1495 9 view .LVU1086
.LBE1486:
.LBE1487:
.LBE1483:
.LBE1482:
	.loc 1 2845 2 is_stmt 1 view .LVU1087
	.loc 1 2845 13 is_stmt 0 view .LVU1088
	mov	r1, r0
	movs	r3, #0
	strb	r3, [r1], #2
	.loc 1 2846 2 is_stmt 1 view .LVU1089
	adds	r0, r0, #1
.LVL222:
	.loc 1 2846 2 is_stmt 0 view .LVU1090
	bl	ll_tx_pwr_get
.LVL223:
	.loc 1 2846 2 view .LVU1091
.LBE1481:
.LBE1480:
.LBE1780:
.LBE1965:
	.loc 1 5552 2 is_stmt 1 view .LVU1092
	b	.L32
.LVL224:
.L63:
.LBB1966:
.LBB1781:
	.loc 1 4535 3 view .LVU1093
.LBB1488:
.LBI1488:
	.loc 1 2691 13 view .LVU1094
.LBB1489:
	.loc 1 2693 2 view .LVU1095
	.loc 1 2693 31 is_stmt 0 view .LVU1096
	ldr	r2, [r5, #12]
.LVL225:
	.loc 1 2694 2 is_stmt 1 view .LVU1097
	.loc 1 2695 2 view .LVU1098
	.loc 1 2696 2 view .LVU1099
	.loc 1 2697 2 view .LVU1100
	.loc 1 2699 2 view .LVU1101
	.loc 1 2710 9 is_stmt 0 view .LVU1102
	ldrb	r1, [r2, #2]	@ zero_extendqisi2
	.loc 1 2699 9 view .LVU1103
	ldrh	r0, [r2]	@ unaligned
.LVL226:
	.loc 1 2700 2 is_stmt 1 view .LVU1104
	.loc 1 2700 11 is_stmt 0 view .LVU1105
	ldrh	r4, [r2, #5]	@ unaligned
.LVL227:
	.loc 1 2702 2 is_stmt 1 view .LVU1106
	.loc 1 2703 2 view .LVU1107
	.loc 1 2704 3 view .LVU1108
	.loc 1 2706 2 view .LVU1109
	.loc 1 2710 2 view .LVU1110
	.loc 1 2710 5 is_stmt 0 view .LVU1111
	lsls	r3, r1, #31
	bpl	.L106
	.loc 1 2711 3 is_stmt 1 view .LVU1112
	.loc 1 2711 16 is_stmt 0 view .LVU1113
	ldrb	r3, [r2, #3]	@ zero_extendqisi2
	orr	r3, r3, #3
	strb	r3, [r2, #3]
.L106:
	.loc 1 2713 2 is_stmt 1 view .LVU1114
	.loc 1 2714 3 view .LVU1115
	.loc 1 2717 2 view .LVU1116
	.loc 1 2714 6 is_stmt 0 view .LVU1117
	ldrb	r3, [r2, #4]	@ zero_extendqisi2
	.loc 1 2713 5 view .LVU1118
	lsls	r7, r1, #30
	.loc 1 2717 10 view .LVU1119
	ldrb	r1, [r2, #3]	@ zero_extendqisi2
	.loc 1 2714 16 view .LVU1120
	itt	mi
	orrmi	r3, r3, #3
	strbmi	r3, [r2, #4]
	.loc 1 2717 5 view .LVU1121
	orr	r2, r3, r1
.LVL228:
	.loc 1 2717 5 view .LVU1122
	cmp	r2, #3
	bhi	.L148
	.loc 1 2723 2 is_stmt 1 view .LVU1123
	.loc 1 2723 5 is_stmt 0 view .LVU1124
	lsls	r5, r1, #29
.LVL229:
	.loc 1 2723 5 view .LVU1125
	beq	.L109
	.loc 1 2723 29 view .LVU1126
	lsls	r2, r3, #29
	beq	.L109
	.loc 1 2730 2 is_stmt 1 view .LVU1127
	.loc 1 2731 3 view .LVU1128
	.loc 1 2730 5 is_stmt 0 view .LVU1129
	ands	r2, r4, #3
	.loc 1 2731 12 view .LVU1130
	itt	ne
	addne	r4, r4, #-1
.LVL230:
	.loc 1 2732 3 is_stmt 1 view .LVU1131
	.loc 1 2732 12 is_stmt 0 view .LVU1132
	andne	r2, r4, #1
.LVL231:
	.loc 1 2737 2 is_stmt 1 view .LVU1133
	.loc 1 2737 11 is_stmt 0 view .LVU1134
	bl	ll_phy_req_send
.LVL232:
	.loc 1 2737 11 view .LVU1135
	mov	r1, r0
.LVL233:
	.loc 1 2740 2 is_stmt 1 view .LVU1136
.LBB1490:
.LBI1490:
	.loc 1 314 24 view .LVU1137
.LBB1491:
	.loc 1 316 2 view .LVU1138
	.loc 1 316 9 is_stmt 0 view .LVU1139
	ldrh	r0, [r6]
	b	.L142
.LVL234:
.L64:
	.loc 1 316 9 view .LVU1140
.LBE1491:
.LBE1490:
.LBE1489:
.LBE1488:
	.loc 1 4531 3 is_stmt 1 view .LVU1141
.LBB1497:
.LBI1497:
	.loc 1 2674 13 view .LVU1142
.LBB1498:
	.loc 1 2676 2 view .LVU1143
	.loc 1 2676 39 is_stmt 0 view .LVU1144
	ldr	r3, [r5, #12]
.LVL235:
	.loc 1 2677 2 is_stmt 1 view .LVU1145
	.loc 1 2679 2 view .LVU1146
	.loc 1 2679 9 is_stmt 0 view .LVU1147
	ldrb	r2, [r3]	@ zero_extendqisi2
	.loc 1 2679 5 view .LVU1148
	lsls	r1, r2, #31
	.loc 1 2680 3 is_stmt 1 view .LVU1149
	.loc 1 2682 2 view .LVU1150
	.loc 1 2680 16 is_stmt 0 view .LVU1151
	itt	mi
	movmi	r1, #7
	strbmi	r1, [r3, #1]
	.loc 1 2682 5 view .LVU1152
	lsls	r2, r2, #30
	.loc 1 2683 16 view .LVU1153
	ite	mi
	movmi	r1, #7
	.loc 1 2686 11 view .LVU1154
	ldrbpl	r1, [r3, #2]	@ zero_extendqisi2
	.loc 1 2683 3 is_stmt 1 view .LVU1155
	.loc 1 2686 2 view .LVU1156
	.loc 1 2686 11 is_stmt 0 view .LVU1157
	ldrb	r0, [r3, #1]	@ zero_extendqisi2
.LVL236:
	.loc 1 2683 16 view .LVU1158
	it	mi
	strbmi	r1, [r3, #2]
	.loc 1 2686 11 view .LVU1159
	bl	ll_phy_default_set
.LVL237:
	.loc 1 2686 11 view .LVU1160
	b	.L139
.LVL238:
.L65:
	.loc 1 2686 11 view .LVU1161
.LBE1498:
.LBE1497:
	.loc 1 4527 3 is_stmt 1 view .LVU1162
.LBB1499:
.LBI1499:
	.loc 1 2655 13 view .LVU1163
.LBB1500:
	.loc 1 2657 2 view .LVU1164
	.loc 1 2658 2 view .LVU1165
	.loc 1 2659 2 view .LVU1166
	.loc 1 2660 2 view .LVU1167
	.loc 1 2662 2 view .LVU1168
	.loc 1 2662 9 is_stmt 0 view .LVU1169
	ldr	r3, [r5, #12]
.LBB1501:
.LBB1502:
	.loc 1 309 9 view .LVU1170
	mov	r0, ip
.LVL239:
	.loc 1 309 9 view .LVU1171
	movs	r1, #5
.LBE1502:
.LBE1501:
	.loc 1 2662 9 view .LVU1172
	ldrh	r6, [r3]	@ unaligned
.LBB1511:
.LBB1509:
	.loc 1 309 9 view .LVU1173
	bl	bt_hci_cmd_complete_create
.LVL240:
.LBB1503:
.LBB1504:
	.loc 2 1495 9 view .LVU1174
	movs	r1, #5
.LBE1504:
.LBE1503:
	.loc 1 309 9 view .LVU1175
	mov	r5, r0
.LVL241:
.LBB1507:
.LBB1505:
	.loc 2 1495 9 view .LVU1176
	adds	r0, r0, #12
	bl	net_buf_simple_add
.LVL242:
	mov	r4, r0
.LVL243:
	.loc 2 1495 9 view .LVU1177
.LBE1505:
.LBE1507:
.LBE1509:
.LBE1511:
	.loc 1 2666 11 view .LVU1178
	adds	r2, r4, #4
	.loc 1 2662 9 view .LVU1179
	uxth	r0, r6
.LVL244:
	.loc 1 2664 2 is_stmt 1 view .LVU1180
.LBB1512:
.LBI1501:
	.loc 1 307 7 view .LVU1181
.LBB1510:
	.loc 1 309 2 view .LVU1182
	.loc 1 311 2 view .LVU1183
.LBB1508:
.LBI1503:
	.loc 2 1493 21 view .LVU1184
.LBB1506:
	.loc 2 1495 2 view .LVU1185
	.loc 2 1495 2 is_stmt 0 view .LVU1186
.LBE1506:
.LBE1508:
.LBE1510:
.LBE1512:
	.loc 1 2666 2 is_stmt 1 view .LVU1187
	.loc 1 2666 11 is_stmt 0 view .LVU1188
	adds	r1, r4, #3
	bl	ll_phy_get
.LVL245:
	.loc 1 2668 2 is_stmt 1 view .LVU1189
.LBB1513:
.LBB1514:
	.file 7 "/home/g/mise-work/zmk-firmware/zmk/zephyr/include/zephyr/arch/common/ffs.h"
	.loc 7 56 9 is_stmt 0 view .LVU1190
	ldrb	r3, [r4, #3]	@ zero_extendqisi2
.LBE1514:
.LBE1513:
.LBB1517:
.LBB1518:
	ldrb	r2, [r4, #4]	@ zero_extendqisi2
.LBE1518:
.LBE1517:
	.loc 1 2668 13 view .LVU1191
	strb	r0, [r4]
	.loc 1 2669 2 is_stmt 1 view .LVU1192
.LBB1521:
.LBB1515:
	.loc 7 56 9 is_stmt 0 view .LVU1193
	cmp	r3, #0
	rbit	r3, r3
	clz	r3, r3
	it	eq
	moveq	r3, #-1
	adds	r3, r3, #1
.LBE1515:
.LBE1521:
	.loc 1 2670 13 view .LVU1194
	strb	r3, [r4, #3]
.LBB1522:
.LBB1519:
	.loc 7 56 9 view .LVU1195
	cmp	r2, #0
	rbit	r3, r2
	clz	r3, r3
	it	eq
	moveq	r3, #-1
	adds	r3, r3, #1
.LBE1519:
.LBE1522:
	.loc 1 2669 13 view .LVU1196
	strh	r6, [r4, #1]	@ unaligned
	.loc 1 2670 2 is_stmt 1 view .LVU1197
.LBB1523:
.LBI1513:
	.loc 7 53 59 view .LVU1198
.LBB1516:
	.loc 7 56 2 view .LVU1199
.LBE1516:
.LBE1523:
	.loc 1 2671 2 view .LVU1200
.LVL246:
.LBB1524:
.LBI1517:
	.loc 7 53 59 view .LVU1201
.LBB1520:
	.loc 7 56 2 view .LVU1202
	.loc 7 56 2 is_stmt 0 view .LVU1203
.LBE1520:
.LBE1524:
	.loc 1 2671 13 view .LVU1204
	strb	r3, [r4, #4]
.LVL247:
	.loc 1 2671 13 view .LVU1205
.LBE1500:
.LBE1499:
.LBE1781:
.LBE1966:
	.loc 1 5552 2 is_stmt 1 view .LVU1206
	b	.L32
.LVL248:
.L66:
.LBB1967:
.LBB1782:
	.loc 1 4521 3 view .LVU1207
.LBB1525:
.LBI1525:
	.loc 1 2633 13 view .LVU1208
.LBB1526:
	.loc 1 2635 2 view .LVU1209
	.loc 1 2636 2 view .LVU1210
	.loc 1 2637 2 view .LVU1211
	.loc 1 2638 2 view .LVU1212
	.loc 1 2639 2 view .LVU1213
	.loc 1 2641 2 view .LVU1214
.LBB1527:
.LBI1527:
	.loc 1 307 7 view .LVU1215
.LBB1528:
	.loc 1 309 2 view .LVU1216
	.loc 1 309 9 is_stmt 0 view .LVU1217
	mov	r0, ip
.LVL249:
	.loc 1 309 9 view .LVU1218
	movs	r1, #9
	bl	bt_hci_cmd_complete_create
.LVL250:
.LBB1529:
.LBB1530:
	.loc 2 1495 9 view .LVU1219
	movs	r1, #9
.LBE1530:
.LBE1529:
	.loc 1 309 9 view .LVU1220
	mov	r5, r0
.LVL251:
	.loc 1 311 2 is_stmt 1 view .LVU1221
.LBB1533:
.LBI1529:
	.loc 2 1493 21 view .LVU1222
.LBB1531:
	.loc 2 1495 2 view .LVU1223
	.loc 2 1495 9 is_stmt 0 view .LVU1224
	adds	r0, r0, #12
.LVL252:
	.loc 2 1495 9 view .LVU1225
	bl	net_buf_simple_add
.LVL253:
.LBE1531:
.LBE1533:
.LBE1528:
.LBE1527:
	.loc 1 2643 2 view .LVU1226
	add	r3, sp, #32
.LBB1536:
.LBB1535:
.LBB1534:
.LBB1532:
	.loc 2 1495 9 view .LVU1227
	mov	r4, r0
.LVL254:
	.loc 2 1495 9 view .LVU1228
.LBE1532:
.LBE1534:
.LBE1535:
.LBE1536:
	.loc 1 2643 2 is_stmt 1 view .LVU1229
	add	r2, sp, #26
	add	r1, sp, #24
	add	r0, sp, #22
.LVL255:
	.loc 1 2643 2 is_stmt 0 view .LVU1230
	bl	ll_length_max_get
.LVL256:
	.loc 1 2646 2 is_stmt 1 view .LVU1231
	.loc 1 2646 20 is_stmt 0 view .LVU1232
	ldrh	r3, [sp, #22]
	strh	r3, [r4, #1]	@ unaligned
	.loc 1 2647 2 is_stmt 1 view .LVU1233
	.loc 1 2647 18 is_stmt 0 view .LVU1234
	ldrh	r3, [sp, #24]
	strh	r3, [r4, #3]	@ unaligned
	.loc 1 2648 2 is_stmt 1 view .LVU1235
	.loc 1 2648 20 is_stmt 0 view .LVU1236
	ldrh	r3, [sp, #26]
	strh	r3, [r4, #5]	@ unaligned
	.loc 1 2649 2 is_stmt 1 view .LVU1237
	.loc 1 2649 18 is_stmt 0 view .LVU1238
	ldrh	r2, [sp, #32]
	strh	r2, [r4, #7]	@ unaligned
	.loc 1 2650 2 is_stmt 1 view .LVU1239
	.loc 1 2650 13 is_stmt 0 view .LVU1240
	movs	r3, #0
	strb	r3, [r4]
.LVL257:
	.loc 1 2650 13 view .LVU1241
.LBE1526:
.LBE1525:
.LBE1782:
.LBE1967:
	.loc 1 5552 2 is_stmt 1 view .LVU1242
	b	.L32
.LVL258:
.L67:
.LBB1968:
.LBB1783:
	.loc 1 4671 3 view .LVU1243
.LBB1537:
.LBI1537:
	.loc 1 2819 13 view .LVU1244
.LBB1538:
	.loc 1 2821 2 view .LVU1245
	.loc 1 2822 2 view .LVU1246
	.loc 1 2824 2 view .LVU1247
	.loc 1 2822 11 is_stmt 0 view .LVU1248
	ldr	r3, [r5, #12]
	.loc 1 2824 2 view .LVU1249
	ldrh	r0, [r3]	@ unaligned
.LVL259:
	.loc 1 2824 2 view .LVU1250
	bl	ll_rl_timeout_set
.LVL260:
	.loc 1 2826 2 is_stmt 1 view .LVU1251
.LBB1539:
.LBI1539:
	.loc 1 319 24 view .LVU1252
.LBB1540:
	.loc 1 321 2 view .LVU1253
	.loc 1 322 2 view .LVU1254
	.loc 1 324 2 view .LVU1255
	.loc 1 324 8 is_stmt 0 view .LVU1256
	ldrh	r0, [r6]
	movs	r1, #1
	b	.L138
.LVL261:
.L68:
	.loc 1 324 8 view .LVU1257
.LBE1540:
.LBE1539:
.LBE1538:
.LBE1537:
	.loc 1 4668 3 is_stmt 1 view .LVU1258
.LBB1541:
.LBI1541:
	.loc 1 2809 13 view .LVU1259
.LBB1542:
	.loc 1 2811 2 view .LVU1260
	.loc 1 2812 2 view .LVU1261
	.loc 1 2814 2 view .LVU1262
	.loc 1 2814 11 is_stmt 0 view .LVU1263
	ldr	r3, [r5, #12]
	ldrb	r0, [r3]	@ zero_extendqisi2
.LVL262:
	.loc 1 2814 11 view .LVU1264
	bl	ll_rl_enable
.LVL263:
	.loc 1 2814 11 view .LVU1265
	b	.L139
.LVL264:
.L69:
	.loc 1 2814 11 view .LVU1266
.LBE1542:
.LBE1541:
	.loc 1 4665 3 is_stmt 1 view .LVU1267
.LBB1543:
.LBI1543:
	.loc 1 2797 13 view .LVU1268
.LBB1544:
	.loc 1 2799 2 view .LVU1269
	.loc 1 2800 2 view .LVU1270
	.loc 1 2801 2 view .LVU1271
	.loc 1 2803 2 view .LVU1272
.LBB1545:
.LBI1545:
	.file 8 "/home/g/mise-work/zmk-firmware/zmk/zephyr/include/zephyr/bluetooth/addr.h"
	.loc 8 137 20 view .LVU1273
.LBB1546:
	.loc 8 139 1 view .LVU1274
	.loc 8 139 23 is_stmt 0 view .LVU1275
	ldr	r3, [r5, #12]
	ldr	r0, [r3]	@ unaligned
.LVL265:
	.loc 8 139 23 view .LVU1276
	str	r0, [sp, #32]
	ldrh	r2, [r3, #4]	@ unaligned
	ldrb	r3, [r3, #6]	@ zero_extendqisi2
	strb	r3, [sp, #38]
.LVL266:
	.loc 8 139 23 view .LVU1277
.LBE1546:
.LBE1545:
	.loc 1 2804 2 is_stmt 1 view .LVU1278
.LBB1548:
.LBI1548:
	.loc 1 307 7 view .LVU1279
.LBB1549:
	.loc 1 309 2 view .LVU1280
	.loc 1 309 9 is_stmt 0 view .LVU1281
	mov	r0, ip
	movs	r1, #7
.LBE1549:
.LBE1548:
.LBB1555:
.LBB1547:
	.loc 8 139 23 view .LVU1282
	strh	r2, [sp, #36]	@ unaligned
.LBE1547:
.LBE1555:
.LBB1556:
.LBB1554:
	.loc 1 309 9 view .LVU1283
	bl	bt_hci_cmd_complete_create
.LVL267:
.LBB1550:
.LBB1551:
	.loc 2 1495 9 view .LVU1284
	movs	r1, #7
.LBE1551:
.LBE1550:
	.loc 1 309 9 view .LVU1285
	mov	r5, r0
.LVL268:
	.loc 1 311 2 is_stmt 1 view .LVU1286
.LBB1553:
.LBI1550:
	.loc 2 1493 21 view .LVU1287
.LBB1552:
	.loc 2 1495 2 view .LVU1288
	.loc 2 1495 9 is_stmt 0 view .LVU1289
	adds	r0, r0, #12
.LVL269:
	.loc 2 1495 9 view .LVU1290
	bl	net_buf_simple_add
.LVL270:
	mov	r4, r0
.LVL271:
	.loc 2 1495 9 view .LVU1291
.LBE1552:
.LBE1553:
.LBE1554:
.LBE1556:
	.loc 1 2806 2 is_stmt 1 view .LVU1292
	.loc 1 2806 15 is_stmt 0 view .LVU1293
	adds	r1, r0, #1
	add	r0, sp, #32
.LVL272:
	.loc 1 2806 15 view .LVU1294
	bl	ll_rl_lrpa_get
.LVL273:
	.loc 1 2806 13 view .LVU1295
	strb	r0, [r4]
.LVL274:
	.loc 1 2806 13 view .LVU1296
.LBE1544:
.LBE1543:
.LBE1783:
.LBE1968:
	.loc 1 5552 2 is_stmt 1 view .LVU1297
	b	.L32
.LVL275:
.L70:
.LBB1969:
.LBB1784:
	.loc 1 4662 3 view .LVU1298
.LBB1557:
.LBI1557:
	.loc 1 2785 13 view .LVU1299
.LBB1558:
	.loc 1 2787 2 view .LVU1300
	.loc 1 2788 2 view .LVU1301
	.loc 1 2789 2 view .LVU1302
	.loc 1 2791 2 view .LVU1303
.LBB1559:
.LBI1559:
	.loc 8 137 20 view .LVU1304
.LBB1560:
	.loc 8 139 1 view .LVU1305
	.loc 8 139 23 is_stmt 0 view .LVU1306
	ldr	r3, [r5, #12]
	ldr	r0, [r3]	@ unaligned
.LVL276:
	.loc 8 139 23 view .LVU1307
	str	r0, [sp, #32]
	ldrh	r2, [r3, #4]	@ unaligned
	ldrb	r3, [r3, #6]	@ zero_extendqisi2
	strb	r3, [sp, #38]
.LVL277:
	.loc 8 139 23 view .LVU1308
.LBE1560:
.LBE1559:
	.loc 1 2792 2 is_stmt 1 view .LVU1309
.LBB1562:
.LBI1562:
	.loc 1 307 7 view .LVU1310
.LBB1563:
	.loc 1 309 2 view .LVU1311
	.loc 1 309 9 is_stmt 0 view .LVU1312
	mov	r0, ip
	movs	r1, #7
.LBE1563:
.LBE1562:
.LBB1569:
.LBB1561:
	.loc 8 139 23 view .LVU1313
	strh	r2, [sp, #36]	@ unaligned
.LBE1561:
.LBE1569:
.LBB1570:
.LBB1568:
	.loc 1 309 9 view .LVU1314
	bl	bt_hci_cmd_complete_create
.LVL278:
.LBB1564:
.LBB1565:
	.loc 2 1495 9 view .LVU1315
	movs	r1, #7
.LBE1565:
.LBE1564:
	.loc 1 309 9 view .LVU1316
	mov	r5, r0
.LVL279:
	.loc 1 311 2 is_stmt 1 view .LVU1317
.LBB1567:
.LBI1564:
	.loc 2 1493 21 view .LVU1318
.LBB1566:
	.loc 2 1495 2 view .LVU1319
	.loc 2 1495 9 is_stmt 0 view .LVU1320
	adds	r0, r0, #12
.LVL280:
	.loc 2 1495 9 view .LVU1321
	bl	net_buf_simple_add
.LVL281:
	mov	r4, r0
.LVL282:
	.loc 2 1495 9 view .LVU1322
.LBE1566:
.LBE1567:
.LBE1568:
.LBE1570:
	.loc 1 2794 2 is_stmt 1 view .LVU1323
	.loc 1 2794 15 is_stmt 0 view .LVU1324
	adds	r1, r0, #1
	add	r0, sp, #32
.LVL283:
	.loc 1 2794 15 view .LVU1325
	bl	ll_rl_crpa_get
.LVL284:
	.loc 1 2794 13 view .LVU1326
	strb	r0, [r4]
.LVL285:
	.loc 1 2794 13 view .LVU1327
.LBE1558:
.LBE1557:
.LBE1784:
.LBE1969:
	.loc 1 5552 2 is_stmt 1 view .LVU1328
	b	.L32
.LVL286:
.L71:
.LBB1970:
.LBB1785:
	.loc 1 4659 3 view .LVU1329
.LBB1571:
.LBI1571:
	.loc 1 2775 13 view .LVU1330
.LBB1572:
	.loc 1 2777 2 view .LVU1331
	.loc 1 2779 2 view .LVU1332
.LBB1573:
.LBI1573:
	.loc 1 307 7 view .LVU1333
.LBB1574:
	.loc 1 309 2 view .LVU1334
	.loc 1 309 9 is_stmt 0 view .LVU1335
	mov	r0, ip
.LVL287:
	.loc 1 309 9 view .LVU1336
	movs	r1, #2
	bl	bt_hci_cmd_complete_create
.LVL288:
.LBB1575:
.LBB1576:
	.loc 2 1495 9 view .LVU1337
	movs	r1, #2
.LBE1576:
.LBE1575:
	.loc 1 309 9 view .LVU1338
	mov	r5, r0
.LVL289:
	.loc 1 311 2 is_stmt 1 view .LVU1339
.LBB1578:
.LBI1575:
	.loc 2 1493 21 view .LVU1340
.LBB1577:
	.loc 2 1495 2 view .LVU1341
	.loc 2 1495 9 is_stmt 0 view .LVU1342
	adds	r0, r0, #12
.LVL290:
	.loc 2 1495 9 view .LVU1343
	bl	net_buf_simple_add
.LVL291:
	mov	r4, r0
.LVL292:
	.loc 2 1495 9 view .LVU1344
.LBE1577:
.LBE1578:
.LBE1574:
.LBE1573:
	.loc 1 2781 2 is_stmt 1 view .LVU1345
	.loc 1 2781 16 is_stmt 0 view .LVU1346
	bl	ll_rl_size_get
.LVL293:
	.loc 1 2782 13 view .LVU1347
	movs	r3, #0
	.loc 1 2781 14 view .LVU1348
	strb	r0, [r4, #1]
	.loc 1 2782 2 is_stmt 1 view .LVU1349
	.loc 1 2782 13 is_stmt 0 view .LVU1350
	strb	r3, [r4]
.LVL294:
	.loc 1 2782 13 view .LVU1351
.LBE1572:
.LBE1571:
.LBE1785:
.LBE1970:
	.loc 1 5552 2 is_stmt 1 view .LVU1352
	b	.L32
.LVL295:
.L72:
.LBB1971:
.LBB1786:
	.loc 1 4656 3 view .LVU1353
.LBB1579:
.LBI1579:
	.loc 1 2766 13 view .LVU1354
.LBB1580:
	.loc 1 2768 2 view .LVU1355
	.loc 1 2770 2 view .LVU1356
	.loc 1 2770 11 is_stmt 0 view .LVU1357
	bl	ll_rl_clear
.LVL296:
	.loc 1 2770 11 view .LVU1358
	b	.L139
.LVL297:
.L97:
	.loc 1 2770 11 view .LVU1359
.LBE1580:
.LBE1579:
	.loc 1 4290 3 is_stmt 1 view .LVU1360
.LBB1581:
.LBI1581:
	.loc 1 1416 13 view .LVU1361
.LBB1582:
	.loc 1 1418 2 view .LVU1362
	.loc 1 1419 2 view .LVU1363
	.loc 1 1421 2 view .LVU1364
	.loc 1 1421 11 is_stmt 0 view .LVU1365
	ldr	r1, [r5, #12]
	movs	r0, #1
.LVL298:
	.loc 1 1421 11 view .LVU1366
	bl	ll_addr_set
.LVL299:
	.loc 1 1421 11 view .LVU1367
	b	.L139
.LVL300:
.L98:
	.loc 1 1421 11 view .LVU1368
.LBE1582:
.LBE1581:
	.loc 1 4286 3 is_stmt 1 view .LVU1369
.LBB1583:
.LBI1583:
	.loc 1 1404 13 view .LVU1370
.LBB1584:
	.loc 1 1406 2 view .LVU1371
	.loc 1 1408 2 view .LVU1372
.LBB1585:
.LBI1585:
	.loc 1 307 7 view .LVU1373
.LBB1586:
	.loc 1 309 2 view .LVU1374
	.loc 1 309 9 is_stmt 0 view .LVU1375
	mov	r0, ip
.LVL301:
	.loc 1 309 9 view .LVU1376
	movs	r1, #9
	bl	bt_hci_cmd_complete_create
.LVL302:
.LBB1587:
.LBB1588:
	.loc 2 1495 9 view .LVU1377
	movs	r1, #9
.LBE1588:
.LBE1587:
	.loc 1 309 9 view .LVU1378
	mov	r5, r0
.LVL303:
	.loc 1 311 2 is_stmt 1 view .LVU1379
.LBB1591:
.LBI1587:
	.loc 2 1493 21 view .LVU1380
.LBB1589:
	.loc 2 1495 2 view .LVU1381
	.loc 2 1495 9 is_stmt 0 view .LVU1382
	adds	r0, r0, #12
.LVL304:
	.loc 2 1495 9 view .LVU1383
	bl	net_buf_simple_add
.LVL305:
.LBE1589:
.LBE1591:
.LBE1586:
.LBE1585:
	.loc 1 1410 13 view .LVU1384
	mov	r3, r0
	movs	r4, #0
.LVL306:
	.loc 1 1410 13 view .LVU1385
	strb	r4, [r3], #1
.LBB1594:
.LBB1595:
	.loc 3 86 245 view .LVU1386
	str	r4, [r0, #1]	@ unaligned
	str	r4, [r3, #4]	@ unaligned
.LBE1595:
.LBE1594:
.LBB1597:
.LBB1593:
.LBB1592:
.LBB1590:
	.loc 2 1495 9 view .LVU1387
	mov	r6, r0
.LVL307:
	.loc 2 1495 9 view .LVU1388
.LBE1590:
.LBE1592:
.LBE1593:
.LBE1597:
	.loc 1 1410 2 is_stmt 1 view .LVU1389
	.loc 1 1412 2 view .LVU1390
.LBB1598:
.LBI1594:
	.loc 3 86 189 view .LVU1391
.LBB1596:
	.loc 3 86 238 view .LVU1392
	.loc 3 86 238 is_stmt 0 view .LVU1393
.LBE1596:
.LBE1598:
	.loc 1 1413 2 is_stmt 1 view .LVU1394
	bl	ll_feat_get
.LVL308:
.LBB1599:
.LBB1600:
.LBB1601:
.LBB1602:
.LBB1603:
	.loc 6 386 9 is_stmt 0 view .LVU1395
	mov	r3, r4
	bfi	r3, r1, #0, #8
.LBE1603:
.LBE1602:
.LBE1601:
.LBB1614:
.LBB1615:
.LBB1616:
.LBB1617:
	.loc 6 387 9 view .LVU1396
	ubfx	r2, r1, #8, #8
.LBE1617:
.LBE1616:
.LBE1615:
.LBE1614:
.LBB1627:
.LBB1609:
.LBB1604:
	.loc 6 386 9 view .LVU1397
	bfi	r3, r2, #8, #8
.LBE1604:
.LBE1609:
.LBE1627:
.LBB1628:
.LBB1624:
	.loc 6 417 19 view .LVU1398
	lsrs	r1, r1, #16
.LBE1624:
.LBE1628:
.LBB1629:
.LBB1610:
.LBB1605:
	.loc 6 386 9 view .LVU1399
	bfi	r3, r1, #16, #8
.LBE1605:
.LBE1610:
.LBE1629:
.LBB1630:
.LBB1625:
.LBB1619:
.LBB1620:
	.loc 6 387 9 view .LVU1400
	lsrs	r1, r1, #8
.LBE1620:
.LBE1619:
.LBE1625:
.LBE1630:
.LBB1631:
.LBB1611:
.LBB1606:
	.loc 6 386 9 view .LVU1401
	bfi	r3, r1, #24, #8
	str	r0, [r6, #1]	@ unaligned
.LVL309:
	.loc 6 386 9 view .LVU1402
.LBE1606:
.LBE1611:
.LBE1631:
.LBE1600:
.LBI1599:
	.loc 6 444 20 is_stmt 1 view .LVU1403
.LBB1635:
	.loc 6 446 2 view .LVU1404
.LBB1632:
.LBI1601:
	.loc 6 414 20 view .LVU1405
	.loc 6 416 2 view .LVU1406
.LBB1612:
.LBI1602:
	.loc 6 384 20 view .LVU1407
.LBB1607:
	.loc 6 386 2 view .LVU1408
	.loc 6 387 2 view .LVU1409
	.loc 6 387 2 is_stmt 0 view .LVU1410
.LBE1607:
.LBE1612:
	.loc 6 417 2 is_stmt 1 view .LVU1411
	.loc 6 417 2 is_stmt 0 view .LVU1412
.LBE1632:
	.loc 6 447 2 is_stmt 1 view .LVU1413
.LBB1633:
.LBI1614:
	.loc 6 414 20 view .LVU1414
.LBB1626:
	.loc 6 416 2 view .LVU1415
.LBB1622:
.LBI1616:
	.loc 6 384 20 view .LVU1416
.LBB1618:
	.loc 6 386 2 view .LVU1417
	.loc 6 387 2 view .LVU1418
	.loc 6 387 2 is_stmt 0 view .LVU1419
.LBE1618:
.LBE1622:
	.loc 6 417 2 is_stmt 1 view .LVU1420
.LBB1623:
.LBI1619:
	.loc 6 384 20 view .LVU1421
.LBB1621:
	.loc 6 386 2 view .LVU1422
	.loc 6 387 2 view .LVU1423
.LBE1621:
.LBE1623:
.LBE1626:
.LBE1633:
.LBB1634:
.LBB1613:
.LBB1608:
	.loc 6 386 9 is_stmt 0 view .LVU1424
	str	r3, [r6, #5]	@ unaligned
.LVL310:
	.loc 6 386 9 view .LVU1425
.LBE1608:
.LBE1613:
.LBE1634:
.LBE1635:
.LBE1599:
.LBE1584:
.LBE1583:
.LBE1786:
.LBE1971:
	.loc 1 5552 2 is_stmt 1 view .LVU1426
	b	.L32
.LVL311:
.L99:
.LBB1972:
.LBB1787:
	.loc 1 4276 3 view .LVU1427
.LBB1636:
.LBI1636:
	.loc 1 1376 13 view .LVU1428
.LBB1637:
	.loc 1 1378 2 view .LVU1429
	.loc 1 1380 2 view .LVU1430
.LBB1638:
.LBI1638:
	.loc 1 307 7 view .LVU1431
.LBB1639:
	.loc 1 309 2 view .LVU1432
	.loc 1 309 9 is_stmt 0 view .LVU1433
	movs	r1, #4
	mov	r0, ip
.LVL312:
	.loc 1 309 9 view .LVU1434
	bl	bt_hci_cmd_complete_create
.LVL313:
.LBB1640:
.LBB1641:
	.loc 2 1495 9 view .LVU1435
	movs	r1, #4
.LBE1641:
.LBE1640:
	.loc 1 309 9 view .LVU1436
	mov	r5, r0
.LVL314:
	.loc 1 311 2 is_stmt 1 view .LVU1437
.LBB1643:
.LBI1640:
	.loc 2 1493 21 view .LVU1438
.LBB1642:
	.loc 2 1495 2 view .LVU1439
	.loc 2 1495 9 is_stmt 0 view .LVU1440
	adds	r0, r0, #12
.LVL315:
	.loc 2 1495 9 view .LVU1441
	bl	net_buf_simple_add
.LVL316:
	.loc 2 1495 9 view .LVU1442
.LBE1642:
.LBE1643:
.LBE1639:
.LBE1638:
	.loc 1 1382 2 is_stmt 1 view .LVU1443
	.loc 1 1382 13 is_stmt 0 view .LVU1444
	movs	r3, #0
	.loc 1 1384 17 view .LVU1445
	movs	r1, #27
	.loc 1 1385 17 view .LVU1446
	movs	r2, #3
	.loc 1 1382 13 view .LVU1447
	strb	r3, [r0]
	.loc 1 1384 2 is_stmt 1 view .LVU1448
	.loc 1 1384 17 is_stmt 0 view .LVU1449
	strb	r1, [r0, #1]
	strb	r3, [r0, #2]
	.loc 1 1385 2 is_stmt 1 view .LVU1450
	.loc 1 1385 17 is_stmt 0 view .LVU1451
	strb	r2, [r0, #3]
.LVL317:
	.loc 1 1385 17 view .LVU1452
.LBE1637:
.LBE1636:
.LBE1787:
.LBE1972:
	.loc 1 5552 2 is_stmt 1 view .LVU1453
	b	.L32
.LVL318:
.L100:
.LBB1973:
.LBB1788:
	.loc 1 4272 3 view .LVU1454
.LBB1644:
.LBI1644:
	.loc 1 1367 13 view .LVU1455
.LBB1645:
	.loc 1 1369 2 view .LVU1456
	.loc 1 1371 2 view .LVU1457
.LBB1646:
.LBI1646:
	.loc 6 595 24 view .LVU1458
.LBB1647:
	.loc 6 597 2 view .LVU1459
	.loc 6 597 49 is_stmt 0 view .LVU1460
	ldr	r2, [r5, #12]
.LBE1647:
.LBE1646:
	.loc 1 1371 16 view .LVU1461
	ldr	r3, .L151+4
.LVL319:
.L140:
	.loc 1 1371 16 view .LVU1462
.LBE1645:
.LBE1644:
.LBE1788:
.LBE1973:
.LBB1974:
.LBB1866:
.LBB1840:
.LBB1836:
.LBB1831:
.LBB1832:
	.loc 6 597 49 view .LVU1463
	ldr	r1, [r2]	@ unaligned
	ldr	r2, [r2, #4]	@ unaligned
.LBE1832:
.LBE1831:
	.loc 1 427 20 view .LVU1464
	str	r1, [r3]
.LBB1834:
.LBB1830:
	.loc 1 324 8 view .LVU1465
	mov	r0, ip
.LVL320:
	.loc 1 324 8 view .LVU1466
	movs	r1, #1
	b	.L136
.LVL321:
.L89:
	.loc 1 324 8 view .LVU1467
.LBE1830:
.LBE1834:
.LBE1836:
.LBE1840:
.LBE1866:
.LBE1974:
.LBB1975:
.LBB1789:
	.loc 1 4303 3 is_stmt 1 view .LVU1468
.LBB1648:
.LBI1648:
	.loc 1 1446 13 view .LVU1469
.LBB1649:
	.loc 1 1448 2 view .LVU1470
	.loc 1 1449 2 view .LVU1471
	.loc 1 1451 2 view .LVU1472
	.loc 1 1451 11 is_stmt 0 view .LVU1473
	ldr	r0, [r5, #12]
.LVL322:
	.loc 1 1451 11 view .LVU1474
	bl	ll_fal_add
.LVL323:
	.loc 1 1451 11 view .LVU1475
	b	.L139
.LVL324:
.L90:
	.loc 1 1451 11 view .LVU1476
.LBE1649:
.LBE1648:
	.loc 1 4299 3 is_stmt 1 view .LVU1477
.LBB1650:
.LBI1650:
	.loc 1 1437 13 view .LVU1478
.LBB1651:
	.loc 1 1439 2 view .LVU1479
	.loc 1 1441 2 view .LVU1480
	.loc 1 1441 11 is_stmt 0 view .LVU1481
	bl	ll_fal_clear
.LVL325:
	.loc 1 1441 11 view .LVU1482
	b	.L139
.LVL326:
.L91:
	.loc 1 1441 11 view .LVU1483
.LBE1651:
.LBE1650:
	.loc 1 4295 3 is_stmt 1 view .LVU1484
.LBB1652:
.LBI1652:
	.loc 1 1427 13 view .LVU1485
.LBB1653:
	.loc 1 1429 2 view .LVU1486
	.loc 1 1431 2 view .LVU1487
.LBB1654:
.LBI1654:
	.loc 1 307 7 view .LVU1488
.LBB1655:
	.loc 1 309 2 view .LVU1489
	.loc 1 309 9 is_stmt 0 view .LVU1490
	mov	r0, ip
.LVL327:
	.loc 1 309 9 view .LVU1491
	movs	r1, #2
	bl	bt_hci_cmd_complete_create
.LVL328:
.LBB1656:
.LBB1657:
	.loc 2 1495 9 view .LVU1492
	movs	r1, #2
.LBE1657:
.LBE1656:
	.loc 1 309 9 view .LVU1493
	mov	r5, r0
.LVL329:
	.loc 1 311 2 is_stmt 1 view .LVU1494
.LBB1660:
.LBI1656:
	.loc 2 1493 21 view .LVU1495
.LBB1658:
	.loc 2 1495 2 view .LVU1496
	.loc 2 1495 9 is_stmt 0 view .LVU1497
	adds	r0, r0, #12
.LVL330:
	.loc 2 1495 9 view .LVU1498
	bl	net_buf_simple_add
.LVL331:
.LBE1658:
.LBE1660:
.LBE1655:
.LBE1654:
	.loc 1 1432 13 view .LVU1499
	movs	r3, #0
	strb	r3, [r0]
.LBB1663:
.LBB1662:
.LBB1661:
.LBB1659:
	.loc 2 1495 9 view .LVU1500
	mov	r4, r0
.LVL332:
	.loc 2 1495 9 view .LVU1501
.LBE1659:
.LBE1661:
.LBE1662:
.LBE1663:
	.loc 1 1432 2 is_stmt 1 view .LVU1502
	.loc 1 1434 2 view .LVU1503
	.loc 1 1434 17 is_stmt 0 view .LVU1504
	bl	ll_fal_size_get
.LVL333:
	.loc 1 1434 15 view .LVU1505
	strb	r0, [r4, #1]
.LVL334:
	.loc 1 1434 15 view .LVU1506
.LBE1653:
.LBE1652:
.LBE1789:
.LBE1975:
	.loc 1 5552 2 is_stmt 1 view .LVU1507
	b	.L32
.LVL335:
.L92:
.LBB1976:
.LBB1790:
	.loc 1 4341 3 view .LVU1508
.LBB1664:
.LBI1664:
	.loc 1 1640 13 view .LVU1509
.LBB1665:
	.loc 1 1642 2 view .LVU1510
	.loc 1 1643 2 view .LVU1511
	.loc 1 1645 2 view .LVU1512
	.loc 1 1656 2 view .LVU1513
	.loc 1 1656 11 is_stmt 0 view .LVU1514
	ldr	r3, [r5, #12]
	ldrb	r0, [r3]	@ zero_extendqisi2
.LVL336:
	.loc 1 1656 11 view .LVU1515
	bl	ll_adv_enable
.LVL337:
	.loc 1 1656 11 view .LVU1516
	b	.L139
.LVL338:
.L93:
	.loc 1 1656 11 view .LVU1517
.LBE1665:
.LBE1664:
	.loc 1 4337 3 is_stmt 1 view .LVU1518
.LBB1666:
.LBI1666:
	.loc 1 1622 13 view .LVU1519
.LBB1667:
	.loc 1 1624 2 view .LVU1520
	.loc 1 1625 2 view .LVU1521
	.loc 1 1627 2 view .LVU1522
	.loc 1 1634 2 view .LVU1523
	.loc 1 1634 41 is_stmt 0 view .LVU1524
	ldr	r1, [r5, #12]
	.loc 1 1634 11 view .LVU1525
	ldrb	r0, [r1], #1	@ zero_extendqisi2
.LVL339:
	.loc 1 1634 11 view .LVU1526
	bl	ll_adv_scan_rsp_set
.LVL340:
	.loc 1 1634 11 view .LVU1527
	b	.L139
.LVL341:
.L94:
	.loc 1 1634 11 view .LVU1528
.LBE1667:
.LBE1666:
	.loc 1 4333 3 is_stmt 1 view .LVU1529
.LBB1668:
.LBI1668:
	.loc 1 1604 13 view .LVU1530
.LBB1669:
	.loc 1 1606 2 view .LVU1531
	.loc 1 1607 2 view .LVU1532
	.loc 1 1609 2 view .LVU1533
	.loc 1 1616 2 view .LVU1534
	.loc 1 1616 37 is_stmt 0 view .LVU1535
	ldr	r1, [r5, #12]
	.loc 1 1616 11 view .LVU1536
	ldrb	r0, [r1], #1	@ zero_extendqisi2
.LVL342:
	.loc 1 1616 11 view .LVU1537
	bl	ll_adv_data_set
.LVL343:
	.loc 1 1616 11 view .LVU1538
	b	.L139
.LVL344:
.L95:
	.loc 1 1616 11 view .LVU1539
.LBE1669:
.LBE1668:
	.loc 1 4329 3 is_stmt 1 view .LVU1540
.LBB1670:
.LBI1670:
	.loc 1 1589 13 view .LVU1541
.LBB1671:
	.loc 1 1591 2 view .LVU1542
	.loc 1 1593 2 view .LVU1543
	.loc 1 1597 2 view .LVU1544
.LBB1672:
.LBI1672:
	.loc 1 307 7 view .LVU1545
.LBB1673:
	.loc 1 309 2 view .LVU1546
	.loc 1 309 9 is_stmt 0 view .LVU1547
	movs	r1, #2
	mov	r0, ip
.LVL345:
	.loc 1 309 9 view .LVU1548
	bl	bt_hci_cmd_complete_create
.LVL346:
.LBB1674:
.LBB1675:
	.loc 2 1495 9 view .LVU1549
	movs	r1, #2
.LBE1675:
.LBE1674:
	.loc 1 309 9 view .LVU1550
	mov	r5, r0
.LVL347:
	.loc 1 311 2 is_stmt 1 view .LVU1551
.LBB1677:
.LBI1674:
	.loc 2 1493 21 view .LVU1552
.LBB1676:
	.loc 2 1495 2 view .LVU1553
	.loc 2 1495 9 is_stmt 0 view .LVU1554
	adds	r0, r0, #12
.LVL348:
	.loc 2 1495 9 view .LVU1555
	bl	net_buf_simple_add
.LVL349:
	.loc 2 1495 9 view .LVU1556
.LBE1676:
.LBE1677:
.LBE1673:
.LBE1672:
	.loc 1 1599 2 is_stmt 1 view .LVU1557
	.loc 1 1599 13 is_stmt 0 view .LVU1558
	movs	r3, #0
	strb	r3, [r0]
	.loc 1 1601 2 is_stmt 1 view .LVU1559
	.loc 1 1601 21 is_stmt 0 view .LVU1560
	strb	r3, [r0, #1]
.LVL350:
	.loc 1 1601 21 view .LVU1561
.LBE1671:
.LBE1670:
.LBE1790:
.LBE1976:
	.loc 1 5552 2 is_stmt 1 view .LVU1562
	b	.L32
.LVL351:
.L96:
.LBB1977:
.LBB1791:
	.loc 1 4325 3 view .LVU1563
.LBB1678:
.LBI1678:
	.loc 1 1550 13 view .LVU1564
.LBB1679:
	.loc 1 1552 2 view .LVU1565
	.loc 1 1552 37 is_stmt 0 view .LVU1566
	ldr	r4, [r5, #12]
.LVL352:
	.loc 1 1553 2 is_stmt 1 view .LVU1567
	.loc 1 1554 2 view .LVU1568
	.loc 1 1556 2 view .LVU1569
	.loc 1 1560 2 view .LVU1570
	.loc 1 1562 2 view .LVU1571
	.loc 1 1580 2 view .LVU1572
	.loc 1 1580 11 is_stmt 0 view .LVU1573
	ldrb	r5, [r4, #14]	@ zero_extendqisi2
.LVL353:
	.loc 1 1580 11 view .LVU1574
	ldrb	r3, [r4, #6]	@ zero_extendqisi2
	ldrb	r2, [r4, #5]	@ zero_extendqisi2
.LVL354:
	.loc 1 1580 11 view .LVU1575
	ldrb	r1, [r4, #4]	@ zero_extendqisi2
	ldrh	r0, [r4]	@ unaligned
.LVL355:
	.loc 1 1580 11 view .LVU1576
	str	r5, [sp, #8]
.LVL356:
	.loc 1 1580 11 view .LVU1577
	ldrb	r5, [r4, #13]	@ zero_extendqisi2
	str	r5, [sp, #4]
	.loc 1 1582 8 view .LVU1578
	adds	r4, r4, #7
.LVL357:
	.loc 1 1580 11 view .LVU1579
	str	r4, [sp]
	bl	ll_adv_params_set
.LVL358:
	b	.L139
.LVL359:
.L73:
	.loc 1 1580 11 view .LVU1580
.LBE1679:
.LBE1678:
	.loc 1 4653 3 is_stmt 1 view .LVU1581
.LBB1680:
.LBI1680:
	.loc 1 2756 13 view .LVU1582
.LBB1681:
	.loc 1 2758 2 view .LVU1583
	.loc 1 2759 2 view .LVU1584
	.loc 1 2761 2 view .LVU1585
	.loc 1 2761 11 is_stmt 0 view .LVU1586
	ldr	r0, [r5, #12]
.LVL360:
	.loc 1 2761 11 view .LVU1587
	bl	ll_rl_remove
.LVL361:
	.loc 1 2761 11 view .LVU1588
	b	.L139
.LVL362:
.L74:
	.loc 1 2761 11 view .LVU1589
.LBE1681:
.LBE1680:
	.loc 1 4650 3 is_stmt 1 view .LVU1590
.LBB1682:
.LBI1682:
	.loc 1 2746 13 view .LVU1591
.LBB1683:
	.loc 1 2748 2 view .LVU1592
	.loc 1 2748 37 is_stmt 0 view .LVU1593
	ldr	r0, [r5, #12]
.LVL363:
	.loc 1 2749 2 is_stmt 1 view .LVU1594
	.loc 1 2751 2 view .LVU1595
	.loc 1 2751 11 is_stmt 0 view .LVU1596
	add	r2, r0, #23
	adds	r1, r0, #7
	bl	ll_rl_add
.LVL364:
	.loc 1 2751 11 view .LVU1597
	b	.L139
.L152:
	.align	2
.L151:
	.word	-64015
	.word	le_event_mask
.LVL365:
.L75:
	.loc 1 2751 11 view .LVU1598
.LBE1683:
.LBE1682:
	.loc 1 4517 3 is_stmt 1 view .LVU1599
.LBB1684:
.LBI1684:
	.loc 1 2618 13 view .LVU1600
.LBB1685:
	.loc 1 2621 2 view .LVU1601
	.loc 1 2621 46 is_stmt 0 view .LVU1602
	ldr	r3, [r5, #12]
.LVL366:
	.loc 1 2622 2 is_stmt 1 view .LVU1603
	.loc 1 2623 2 view .LVU1604
	.loc 1 2624 2 view .LVU1605
	.loc 1 2626 2 view .LVU1606
	.loc 1 2627 2 view .LVU1607
	.loc 1 2628 2 view .LVU1608
	.loc 1 2628 11 is_stmt 0 view .LVU1609
	ldrh	r1, [r3, #2]	@ unaligned
	ldrh	r0, [r3]	@ unaligned
.LVL367:
	.loc 1 2628 11 view .LVU1610
	bl	ll_length_default_set
.LVL368:
	.loc 1 2628 11 view .LVU1611
	b	.L139
.LVL369:
.L76:
	.loc 1 2628 11 view .LVU1612
.LBE1685:
.LBE1684:
	.loc 1 4513 3 is_stmt 1 view .LVU1613
.LBB1686:
.LBI1686:
	.loc 1 2603 13 view .LVU1614
.LBB1687:
	.loc 1 2605 2 view .LVU1615
	.loc 1 2606 2 view .LVU1616
	.loc 1 2607 2 view .LVU1617
	.loc 1 2609 2 view .LVU1618
.LBB1688:
.LBI1688:
	.loc 1 307 7 view .LVU1619
.LBB1689:
	.loc 1 309 2 view .LVU1620
	.loc 1 309 9 is_stmt 0 view .LVU1621
	mov	r0, ip
.LVL370:
	.loc 1 309 9 view .LVU1622
	movs	r1, #5
	bl	bt_hci_cmd_complete_create
.LVL371:
.LBB1690:
.LBB1691:
	.loc 2 1495 9 view .LVU1623
	movs	r1, #5
.LBE1691:
.LBE1690:
	.loc 1 309 9 view .LVU1624
	mov	r5, r0
.LVL372:
	.loc 1 311 2 is_stmt 1 view .LVU1625
.LBB1694:
.LBI1690:
	.loc 2 1493 21 view .LVU1626
.LBB1692:
	.loc 2 1495 2 view .LVU1627
	.loc 2 1495 9 is_stmt 0 view .LVU1628
	adds	r0, r0, #12
.LVL373:
	.loc 2 1495 9 view .LVU1629
	bl	net_buf_simple_add
.LVL374:
.LBE1692:
.LBE1694:
.LBE1689:
.LBE1688:
	.loc 1 2611 2 view .LVU1630
	add	r1, sp, #32
.LBB1697:
.LBB1696:
.LBB1695:
.LBB1693:
	.loc 2 1495 9 view .LVU1631
	mov	r4, r0
.LVL375:
	.loc 2 1495 9 view .LVU1632
.LBE1693:
.LBE1695:
.LBE1696:
.LBE1697:
	.loc 1 2611 2 is_stmt 1 view .LVU1633
	add	r0, sp, #26
.LVL376:
	.loc 1 2611 2 is_stmt 0 view .LVU1634
	bl	ll_length_default_get
.LVL377:
	.loc 1 2613 2 is_stmt 1 view .LVU1635
	.loc 1 2613 20 is_stmt 0 view .LVU1636
	ldrh	r3, [sp, #26]
	strh	r3, [r4, #1]	@ unaligned
	.loc 1 2614 2 is_stmt 1 view .LVU1637
	.loc 1 2614 18 is_stmt 0 view .LVU1638
	ldrh	r2, [sp, #32]
	strh	r2, [r4, #3]	@ unaligned
	.loc 1 2615 2 is_stmt 1 view .LVU1639
	.loc 1 2615 13 is_stmt 0 view .LVU1640
	movs	r3, #0
	strb	r3, [r4]
.LVL378:
	.loc 1 2615 13 view .LVU1641
.LBE1687:
.LBE1686:
.LBE1791:
.LBE1977:
	.loc 1 5552 2 is_stmt 1 view .LVU1642
	b	.L32
.LVL379:
.L77:
.LBB1978:
.LBB1792:
	.loc 1 4509 3 view .LVU1643
.LBB1698:
.LBI1698:
	.loc 1 2584 13 view .LVU1644
.LBB1699:
	.loc 1 2586 2 view .LVU1645
	.loc 1 2586 36 is_stmt 0 view .LVU1646
	ldr	r3, [r5, #12]
.LVL380:
	.loc 1 2587 2 is_stmt 1 view .LVU1647
	.loc 1 2588 2 view .LVU1648
	.loc 1 2589 2 view .LVU1649
	.loc 1 2590 2 view .LVU1650
	.loc 1 2591 2 view .LVU1651
	.loc 1 2593 2 view .LVU1652
	.loc 1 2593 9 is_stmt 0 view .LVU1653
	ldrh	r7, [r3]	@ unaligned
.LVL381:
	.loc 1 2594 2 is_stmt 1 view .LVU1654
	.loc 1 2595 2 view .LVU1655
	.loc 1 2596 2 view .LVU1656
	.loc 1 2596 11 is_stmt 0 view .LVU1657
	ldrh	r2, [r3, #4]	@ unaligned
	ldrh	r1, [r3, #2]	@ unaligned
	uxth	r0, r7
.LVL382:
	.loc 1 2596 11 view .LVU1658
	bl	ll_length_req_send
.LVL383:
	.loc 1 2596 11 view .LVU1659
	b	.L137
.LVL384:
.L78:
	.loc 1 2596 11 view .LVU1660
.LBE1699:
.LBE1698:
	.loc 1 4503 3 is_stmt 1 view .LVU1661
.LBB1700:
.LBI1700:
	.loc 1 2566 13 view .LVU1662
.LBB1701:
	.loc 1 2569 2 view .LVU1663
	.loc 1 2569 48 is_stmt 0 view .LVU1664
	ldr	r2, [r5, #12]
.LVL385:
	.loc 1 2570 2 is_stmt 1 view .LVU1665
	.loc 1 2571 2 view .LVU1666
	.loc 1 2572 2 view .LVU1667
	.loc 1 2574 2 view .LVU1668
	.loc 1 2574 9 is_stmt 0 view .LVU1669
	ldrh	r7, [r2]	@ unaligned
.LVL386:
	.loc 1 2575 2 is_stmt 1 view .LVU1670
	.loc 1 2575 11 is_stmt 0 view .LVU1671
	ldrb	r2, [r2, #2]	@ zero_extendqisi2
.LVL387:
	.loc 1 2575 11 view .LVU1672
	movs	r3, #0
	strd	r3, r3, [sp, #8]
.LVL388:
	.loc 1 2575 11 view .LVU1673
	strd	r3, r3, [sp]
	movs	r1, #2
	uxth	r0, r7
.LVL389:
	.loc 1 2575 11 view .LVU1674
	bl	ll_conn_update
.LVL390:
	b	.L137
.LVL391:
.L79:
	.loc 1 2575 11 view .LVU1675
.LBE1701:
.LBE1700:
	.loc 1 4499 3 is_stmt 1 view .LVU1676
.LBB1702:
.LBI1702:
	.loc 1 2541 13 view .LVU1677
.LBB1703:
	.loc 1 2543 2 view .LVU1678
	.loc 1 2543 44 is_stmt 0 view .LVU1679
	ldr	r1, [r5, #12]
.LVL392:
	.loc 1 2544 2 is_stmt 1 view .LVU1680
	.loc 1 2545 2 view .LVU1681
	.loc 1 2546 2 view .LVU1682
	.loc 1 2547 2 view .LVU1683
	.loc 1 2548 2 view .LVU1684
	.loc 1 2549 2 view .LVU1685
	.loc 1 2550 2 view .LVU1686
	.loc 1 2552 2 view .LVU1687
	.loc 1 2558 11 is_stmt 0 view .LVU1688
	movs	r2, #0
	.loc 1 2552 9 view .LVU1689
	ldrh	r7, [r1]	@ unaligned
.LVL393:
	.loc 1 2553 2 is_stmt 1 view .LVU1690
	.loc 1 2554 2 view .LVU1691
	.loc 1 2555 2 view .LVU1692
	.loc 1 2556 2 view .LVU1693
	.loc 1 2558 2 view .LVU1694
	.loc 1 2558 11 is_stmt 0 view .LVU1695
	ldrh	r3, [r1, #2]	@ unaligned
	str	r2, [sp, #12]
.LVL394:
	.loc 1 2558 11 view .LVU1696
	ldrh	r0, [r1, #8]	@ unaligned
.LVL395:
	.loc 1 2558 11 view .LVU1697
	str	r0, [sp, #8]
	ldrh	r0, [r1, #6]	@ unaligned
	str	r0, [sp, #4]
	ldrh	r1, [r1, #4]	@ unaligned
.LVL396:
	.loc 1 2558 11 view .LVU1698
	str	r1, [sp]
	uxth	r0, r7
	movs	r1, #2
	bl	ll_conn_update
.LVL397:
	b	.L137
.LVL398:
.L80:
	.loc 1 2558 11 view .LVU1699
.LBE1703:
.LBE1702:
	.loc 1 4320 3 is_stmt 1 view .LVU1700
.LBB1704:
.LBI1704:
	.loc 1 1492 13 view .LVU1701
.LBB1705:
	.loc 1 1494 2 view .LVU1702
	.loc 1 1495 2 view .LVU1703
	.loc 1 1497 2 view .LVU1704
.LBB1706:
.LBI1706:
	.loc 1 307 7 view .LVU1705
.LBB1707:
	.loc 1 309 2 view .LVU1706
	.loc 1 309 9 is_stmt 0 view .LVU1707
	movs	r1, #9
	mov	r0, ip
.LVL399:
	.loc 1 309 9 view .LVU1708
	bl	bt_hci_cmd_complete_create
.LVL400:
.LBB1708:
.LBB1709:
	.loc 2 1495 9 view .LVU1709
	movs	r1, #9
.LBE1709:
.LBE1708:
	.loc 1 309 9 view .LVU1710
	mov	r5, r0
.LVL401:
	.loc 1 311 2 is_stmt 1 view .LVU1711
.LBB1711:
.LBI1708:
	.loc 2 1493 21 view .LVU1712
.LBB1710:
	.loc 2 1495 2 view .LVU1713
	.loc 2 1495 9 is_stmt 0 view .LVU1714
	adds	r0, r0, #12
.LVL402:
	.loc 2 1495 9 view .LVU1715
	bl	net_buf_simple_add
.LVL403:
	.loc 2 1495 9 view .LVU1716
.LBE1710:
.LBE1711:
.LBE1707:
.LBE1706:
	.loc 1 1498 2 is_stmt 1 view .LVU1717
	.loc 1 1521 2 view .LVU1718
	.loc 1 1528 2 view .LVU1719
	.loc 1 1531 2 view .LVU1720
	.loc 1 1538 2 view .LVU1721
	.loc 1 1544 2 view .LVU1722
	.loc 1 1545 2 view .LVU1723
.LBB1712:
	.loc 1 1545 7 view .LVU1724
.LBE1712:
	.loc 1 1545 5 view .LVU1725
	.loc 1 1546 2 view .LVU1726
.LBB1713:
.LBI1713:
	.loc 6 444 20 view .LVU1727
	.loc 6 446 2 view .LVU1728
	.loc 6 447 2 view .LVU1729
.LBB1714:
.LBI1714:
	.loc 6 414 20 view .LVU1730
	.loc 6 416 2 view .LVU1731
	.loc 6 417 2 view .LVU1732
.LBB1715:
.LBI1715:
	.loc 6 384 20 view .LVU1733
.LBB1716:
	.loc 6 386 2 view .LVU1734
.LBE1716:
.LBE1715:
.LBE1714:
.LBE1713:
	.loc 1 1498 13 is_stmt 0 view .LVU1735
	ldr	r1, .L153
	ldr	r2, .L153+4
	str	r1, [r0]	@ unaligned
.LBB1723:
.LBB1721:
.LBB1719:
.LBB1717:
	.loc 6 387 9 view .LVU1736
	movs	r3, #0
.LBE1717:
.LBE1719:
.LBE1721:
.LBE1723:
	.loc 1 1498 13 view .LVU1737
	str	r2, [r0, #4]	@ unaligned
.LBB1724:
.LBB1722:
.LBB1720:
.LBB1718:
	.loc 6 387 2 is_stmt 1 view .LVU1738
	.loc 6 387 9 is_stmt 0 view .LVU1739
	strb	r3, [r0, #8]
.LVL404:
	.loc 6 387 9 view .LVU1740
.LBE1718:
.LBE1720:
.LBE1722:
.LBE1724:
.LBE1705:
.LBE1704:
.LBE1792:
.LBE1978:
	.loc 1 5552 2 is_stmt 1 view .LVU1741
	b	.L32
.LVL405:
.L81:
.LBB1979:
.LBB1793:
	.loc 1 4421 3 view .LVU1742
.LBB1725:
.LBI1725:
	.loc 1 2424 13 view .LVU1743
.LBB1726:
	.loc 1 2426 2 view .LVU1744
	.loc 1 2427 2 view .LVU1745
	.loc 1 2428 2 view .LVU1746
	.loc 1 2429 2 view .LVU1747
	.loc 1 2431 2 view .LVU1748
	.loc 1 2431 9 is_stmt 0 view .LVU1749
	ldr	r3, [r5, #12]
	ldrh	r7, [r3]	@ unaligned
.LVL406:
	.loc 1 2432 2 is_stmt 1 view .LVU1750
	.loc 1 2432 11 is_stmt 0 view .LVU1751
	movs	r2, #0
	movs	r1, #6
.LVL407:
.L141:
	.loc 1 2432 11 view .LVU1752
.LBE1726:
.LBE1725:
.LBB1727:
.LBB1468:
	.loc 1 2417 2 is_stmt 1 view .LVU1753
	.loc 1 2417 11 is_stmt 0 view .LVU1754
	uxth	r0, r7
.LVL408:
	.loc 1 2417 11 view .LVU1755
	bl	ll_start_enc_req_send
.LVL409:
	b	.L137
.LVL410:
.L82:
	.loc 1 2417 11 view .LVU1756
.LBE1468:
.LBE1727:
	.loc 1 4417 3 is_stmt 1 view .LVU1757
.LBB1728:
.LBI1458:
	.loc 1 2409 13 view .LVU1758
.LBB1469:
	.loc 1 2411 2 view .LVU1759
	.loc 1 2412 2 view .LVU1760
	.loc 1 2413 2 view .LVU1761
	.loc 1 2414 2 view .LVU1762
	.loc 1 2416 2 view .LVU1763
	.loc 1 2416 9 is_stmt 0 view .LVU1764
	ldr	r2, [r5, #12]
	.loc 1 2417 11 view .LVU1765
	movs	r1, #0
	.loc 1 2416 9 view .LVU1766
	ldrh	r7, [r2], #2	@ unaligned
	b	.L141
.LVL411:
.L83:
	.loc 1 2416 9 view .LVU1767
.LBE1469:
.LBE1728:
	.loc 1 4316 3 is_stmt 1 view .LVU1768
.LBB1729:
.LBI1729:
	.loc 1 1481 13 view .LVU1769
.LBB1730:
	.loc 1 1483 2 view .LVU1770
	.loc 1 1484 2 view .LVU1771
	.loc 1 1486 2 view .LVU1772
.LBB1731:
.LBI1731:
	.loc 1 307 7 view .LVU1773
.LBB1732:
	.loc 1 309 2 view .LVU1774
	.loc 1 309 9 is_stmt 0 view .LVU1775
	mov	r0, ip
.LVL412:
	.loc 1 309 9 view .LVU1776
	movs	r1, #9
	bl	bt_hci_cmd_complete_create
.LVL413:
.LBB1733:
.LBB1734:
	.loc 2 1495 9 view .LVU1777
	movs	r1, #9
.LBE1734:
.LBE1733:
	.loc 1 309 9 view .LVU1778
	mov	r5, r0
.LVL414:
	.loc 1 311 2 is_stmt 1 view .LVU1779
.LBB1736:
.LBI1733:
	.loc 2 1493 21 view .LVU1780
.LBB1735:
	.loc 2 1495 2 view .LVU1781
	.loc 2 1495 9 is_stmt 0 view .LVU1782
	adds	r0, r0, #12
.LVL415:
	.loc 2 1495 9 view .LVU1783
	bl	net_buf_simple_add
.LVL416:
	.loc 2 1495 9 view .LVU1784
.LBE1735:
.LBE1736:
.LBE1732:
.LBE1731:
	.loc 1 1487 2 is_stmt 1 view .LVU1785
	.loc 1 1487 13 is_stmt 0 view .LVU1786
	movs	r3, #0
	strb	r3, [r0], #1
.LVL417:
	.loc 1 1489 2 is_stmt 1 view .LVU1787
	movs	r1, #8
	bl	lll_csrand_get
.LVL418:
	.loc 1 1489 2 is_stmt 0 view .LVU1788
.LBE1730:
.LBE1729:
.LBE1793:
.LBE1979:
	.loc 1 5552 2 is_stmt 1 view .LVU1789
	b	.L32
.LVL419:
.L84:
.LBB1980:
.LBB1794:
	.loc 1 4312 3 view .LVU1790
.LBB1737:
.LBI1737:
	.loc 1 1467 13 view .LVU1791
.LBB1738:
	.loc 1 1469 2 view .LVU1792
	.loc 1 1469 31 is_stmt 0 view .LVU1793
	ldr	r0, [r5, #12]
.LVL420:
	.loc 1 1470 2 is_stmt 1 view .LVU1794
	.loc 1 1471 2 view .LVU1795
	.loc 1 1473 2 view .LVU1796
	movs	r3, #0
	add	r2, sp, #32
	add	r1, r0, #16
	bl	ecb_encrypt
.LVL421:
	.loc 1 1475 2 view .LVU1797
.LBB1739:
.LBI1739:
	.loc 1 307 7 view .LVU1798
.LBB1740:
	.loc 1 309 2 view .LVU1799
	.loc 1 309 9 is_stmt 0 view .LVU1800
	ldrh	r0, [r6]
	movs	r1, #17
	bl	bt_hci_cmd_complete_create
.LVL422:
.LBB1741:
.LBB1742:
	.loc 2 1495 9 view .LVU1801
	movs	r1, #17
.LBE1742:
.LBE1741:
	.loc 1 309 9 view .LVU1802
	mov	r5, r0
.LVL423:
	.loc 1 311 2 is_stmt 1 view .LVU1803
.LBB1745:
.LBI1741:
	.loc 2 1493 21 view .LVU1804
.LBB1743:
	.loc 2 1495 2 view .LVU1805
	.loc 2 1495 9 is_stmt 0 view .LVU1806
	adds	r0, r0, #12
.LVL424:
	.loc 2 1495 9 view .LVU1807
	bl	net_buf_simple_add
.LVL425:
.LBE1743:
.LBE1745:
.LBE1740:
.LBE1739:
	.loc 1 1477 13 view .LVU1808
	mov	r6, r0
	movs	r3, #0
	strb	r3, [r6], #1
.LBB1748:
.LBB1749:
	.loc 3 83 299 view .LVU1809
	add	r4, sp, #32
.LVL426:
	.loc 3 83 299 view .LVU1810
.LBE1749:
.LBE1748:
.LBB1751:
.LBB1747:
.LBB1746:
.LBB1744:
	.loc 2 1495 9 view .LVU1811
	mov	r7, r0
.LVL427:
	.loc 2 1495 9 view .LVU1812
.LBE1744:
.LBE1746:
.LBE1747:
.LBE1751:
	.loc 1 1477 2 is_stmt 1 view .LVU1813
	.loc 1 1478 1 view .LVU1814
.LBB1752:
.LBI1748:
	.loc 3 83 216 view .LVU1815
.LBB1750:
	.loc 3 83 292 view .LVU1816
	.loc 3 83 299 is_stmt 0 view .LVU1817
	ldmia	r4!, {r0, r1, r2, r3}
.LVL428:
	.loc 3 83 299 view .LVU1818
	str	r0, [r7, #1]	@ unaligned
	str	r1, [r6, #4]	@ unaligned
	str	r2, [r6, #8]	@ unaligned
	str	r3, [r6, #12]	@ unaligned
.LVL429:
	.loc 3 83 299 view .LVU1819
.LBE1750:
.LBE1752:
.LBE1738:
.LBE1737:
.LBE1794:
.LBE1980:
	.loc 1 5552 2 is_stmt 1 view .LVU1820
	b	.L32
.LVL430:
.L85:
.LBB1981:
.LBB1795:
	.loc 1 4489 3 view .LVU1821
.LBB1753:
.LBI1753:
	.loc 1 2487 13 view .LVU1822
.LBB1754:
	.loc 1 2489 2 view .LVU1823
	.loc 1 2490 2 view .LVU1824
	.loc 1 2491 2 view .LVU1825
	.loc 1 2493 2 view .LVU1826
	.loc 1 2494 2 view .LVU1827
	.loc 1 2493 9 is_stmt 0 view .LVU1828
	ldr	r3, [r5, #12]
	.loc 1 2494 11 view .LVU1829
	ldrh	r0, [r3]	@ unaligned
.LVL431:
	.loc 1 2494 11 view .LVU1830
	bl	ll_feature_req_send
.LVL432:
	.loc 1 2494 11 view .LVU1831
	mov	r1, r0
.LVL433:
	.loc 1 2496 2 is_stmt 1 view .LVU1832
.LBB1755:
.LBI1755:
	.loc 1 314 24 view .LVU1833
.LBB1756:
	.loc 1 316 2 view .LVU1834
	.loc 1 316 9 is_stmt 0 view .LVU1835
	ldrh	r0, [r6]
	b	.L142
.LVL434:
.L86:
	.loc 1 316 9 view .LVU1836
.LBE1756:
.LBE1755:
.LBE1754:
.LBE1753:
	.loc 1 4484 3 is_stmt 1 view .LVU1837
.LBB1757:
.LBI1757:
	.loc 1 2500 13 view .LVU1838
.LBB1758:
	.loc 1 2502 2 view .LVU1839
	.loc 1 2503 2 view .LVU1840
	.loc 1 2504 2 view .LVU1841
	.loc 1 2505 2 view .LVU1842
	.loc 1 2507 2 view .LVU1843
	.loc 1 2507 9 is_stmt 0 view .LVU1844
	ldr	r3, [r5, #12]
.LBB1759:
.LBB1760:
	.loc 1 309 9 view .LVU1845
	mov	r0, ip
.LVL435:
	.loc 1 309 9 view .LVU1846
	movs	r1, #8
.LBE1760:
.LBE1759:
	.loc 1 2507 9 view .LVU1847
	ldrh	r6, [r3]	@ unaligned
.LBB1769:
.LBB1767:
	.loc 1 309 9 view .LVU1848
	bl	bt_hci_cmd_complete_create
.LVL436:
.LBB1761:
.LBB1762:
	.loc 2 1495 9 view .LVU1849
	movs	r1, #8
.LBE1762:
.LBE1761:
	.loc 1 309 9 view .LVU1850
	mov	r5, r0
.LVL437:
.LBB1765:
.LBB1763:
	.loc 2 1495 9 view .LVU1851
	adds	r0, r0, #12
	bl	net_buf_simple_add
.LVL438:
	mov	r4, r0
.LVL439:
	.loc 2 1495 9 view .LVU1852
.LBE1763:
.LBE1765:
.LBE1767:
.LBE1769:
	.loc 1 2511 11 view .LVU1853
	adds	r1, r4, #3
	.loc 1 2507 9 view .LVU1854
	uxth	r0, r6
.LVL440:
	.loc 1 2509 2 is_stmt 1 view .LVU1855
.LBB1770:
.LBI1759:
	.loc 1 307 7 view .LVU1856
.LBB1768:
	.loc 1 309 2 view .LVU1857
	.loc 1 311 2 view .LVU1858
.LBB1766:
.LBI1761:
	.loc 2 1493 21 view .LVU1859
.LBB1764:
	.loc 2 1495 2 view .LVU1860
	.loc 2 1495 2 is_stmt 0 view .LVU1861
.LBE1764:
.LBE1766:
.LBE1768:
.LBE1770:
	.loc 1 2511 2 is_stmt 1 view .LVU1862
	.loc 1 2511 11 is_stmt 0 view .LVU1863
	bl	ll_chm_get
.LVL441:
	.loc 1 2513 2 is_stmt 1 view .LVU1864
	.loc 1 2514 13 is_stmt 0 view .LVU1865
	strh	r6, [r4, #1]	@ unaligned
	.loc 1 2513 13 view .LVU1866
	strb	r0, [r4]
	.loc 1 2514 2 is_stmt 1 view .LVU1867
.LVL442:
	.loc 1 2514 2 is_stmt 0 view .LVU1868
.LBE1758:
.LBE1757:
.LBE1795:
.LBE1981:
	.loc 1 5552 2 is_stmt 1 view .LVU1869
	b	.L32
.LVL443:
.L87:
.LBB1982:
.LBB1796:
	.loc 1 4494 3 view .LVU1870
.LBB1771:
.LBI1771:
	.loc 1 2517 13 view .LVU1871
.LBB1772:
	.loc 1 2519 2 view .LVU1872
	.loc 1 2519 32 is_stmt 0 view .LVU1873
	ldr	r1, [r5, #12]
.LVL444:
	.loc 1 2520 2 is_stmt 1 view .LVU1874
	.loc 1 2521 2 view .LVU1875
	.loc 1 2522 2 view .LVU1876
	.loc 1 2523 2 view .LVU1877
	.loc 1 2524 2 view .LVU1878
	.loc 1 2525 2 view .LVU1879
	.loc 1 2527 2 view .LVU1880
	.loc 1 2528 2 view .LVU1881
	.loc 1 2529 2 view .LVU1882
	.loc 1 2530 2 view .LVU1883
	.loc 1 2531 2 view .LVU1884
	.loc 1 2533 2 view .LVU1885
	.loc 1 2533 11 is_stmt 0 view .LVU1886
	movs	r2, #0
	ldrh	r3, [r1, #2]	@ unaligned
	ldrh	r0, [r1]	@ unaligned
.LVL445:
	.loc 1 2533 11 view .LVU1887
	str	r2, [sp, #12]
.LVL446:
	.loc 1 2533 11 view .LVU1888
	ldrh	r4, [r1, #8]	@ unaligned
.LVL447:
	.loc 1 2533 11 view .LVU1889
	str	r4, [sp, #8]
	ldrh	r4, [r1, #6]	@ unaligned
	str	r4, [sp, #4]
	ldrh	r1, [r1, #4]	@ unaligned
.LVL448:
	.loc 1 2533 11 view .LVU1890
	str	r1, [sp]
	mov	r1, r2
	bl	ll_conn_update
.LVL449:
	mov	r1, r0
.LVL450:
	.loc 1 2537 2 is_stmt 1 view .LVU1891
.LBB1773:
.LBI1773:
	.loc 1 314 24 view .LVU1892
.LBB1774:
	.loc 1 316 2 view .LVU1893
	.loc 1 316 9 is_stmt 0 view .LVU1894
	ldrh	r0, [r6]
	b	.L142
.LVL451:
.L88:
	.loc 1 316 9 view .LVU1895
.LBE1774:
.LBE1773:
.LBE1772:
.LBE1771:
	.loc 1 4307 3 is_stmt 1 view .LVU1896
.LBB1775:
.LBI1775:
	.loc 1 1456 13 view .LVU1897
.LBB1776:
	.loc 1 1458 2 view .LVU1898
	.loc 1 1459 2 view .LVU1899
	.loc 1 1461 2 view .LVU1900
	.loc 1 1461 11 is_stmt 0 view .LVU1901
	ldr	r0, [r5, #12]
.LVL452:
	.loc 1 1461 11 view .LVU1902
	bl	ll_fal_remove
.LVL453:
	.loc 1 1461 11 view .LVU1903
	b	.L139
.LVL454:
.L45:
	.loc 1 1461 11 view .LVU1904
.LBE1776:
.LBE1775:
.LBE1796:
.LBE1982:
.LBB1983:
.LBB1455:
	.loc 1 401 3 is_stmt 1 view .LVU1905
.LBB1451:
.LBI1451:
	.loc 1 370 13 view .LVU1906
.LBB1452:
	.loc 1 372 2 view .LVU1907
	.loc 1 372 31 is_stmt 0 view .LVU1908
	ldr	r3, [r5, #12]
.LVL455:
	.loc 1 373 2 is_stmt 1 view .LVU1909
	.loc 1 374 2 view .LVU1910
	.loc 1 376 2 view .LVU1911
	.loc 1 377 2 view .LVU1912
	.loc 1 377 11 is_stmt 0 view .LVU1913
	ldrb	r1, [r3, #2]	@ zero_extendqisi2
	ldrh	r0, [r3]	@ unaligned
.LVL456:
	.loc 1 377 11 view .LVU1914
	bl	ll_terminate_ind_send
.LVL457:
	.loc 1 377 11 view .LVU1915
	mov	r1, r0
.LVL458:
	.loc 1 379 2 is_stmt 1 view .LVU1916
.LBB1453:
.LBI1453:
	.loc 1 314 24 view .LVU1917
.LBB1454:
	.loc 1 316 2 view .LVU1918
	.loc 1 316 9 is_stmt 0 view .LVU1919
	ldrh	r0, [r6]
	b	.L142
.LVL459:
.L52:
	.loc 1 316 9 view .LVU1920
.LBE1454:
.LBE1453:
.LBE1452:
.LBE1451:
.LBE1455:
.LBE1983:
.LBB1984:
.LBB1867:
	.loc 1 753 3 is_stmt 1 view .LVU1921
.LBB1841:
.LBI1841:
	.loc 1 591 13 view .LVU1922
.LBB1842:
	.loc 1 593 2 view .LVU1923
	.loc 1 594 2 view .LVU1924
	.loc 1 595 2 view .LVU1925
	.loc 1 596 2 view .LVU1926
	.loc 1 597 2 view .LVU1927
	.loc 1 599 2 view .LVU1928
	.loc 1 599 9 is_stmt 0 view .LVU1929
	ldr	r3, [r5, #12]
	ldrh	r7, [r3]	@ unaligned
.LVL460:
	.loc 1 601 2 is_stmt 1 view .LVU1930
	.loc 1 601 11 is_stmt 0 view .LVU1931
	add	r1, sp, #32
	uxth	r0, r7
.LVL461:
	.loc 1 601 11 view .LVU1932
	bl	ll_apto_get
.LVL462:
.LBB1843:
.LBB1844:
	.loc 1 309 9 view .LVU1933
	movs	r1, #5
.LBE1844:
.LBE1843:
	.loc 1 601 11 view .LVU1934
	mov	r4, r0
.LVL463:
.LBB1851:
.LBB1849:
	.loc 1 309 9 view .LVU1935
	ldrh	r0, [r6]
.LVL464:
	.loc 1 309 9 view .LVU1936
.LBE1849:
.LBE1851:
	.loc 1 603 2 is_stmt 1 view .LVU1937
.LBB1852:
.LBI1843:
	.loc 1 307 7 view .LVU1938
.LBB1850:
	.loc 1 309 2 view .LVU1939
	.loc 1 309 9 is_stmt 0 view .LVU1940
	bl	bt_hci_cmd_complete_create
.LVL465:
.LBB1845:
.LBB1846:
	.loc 2 1495 9 view .LVU1941
	movs	r1, #5
.LBE1846:
.LBE1845:
	.loc 1 309 9 view .LVU1942
	mov	r5, r0
.LVL466:
	.loc 1 311 2 is_stmt 1 view .LVU1943
.LBB1848:
.LBI1845:
	.loc 2 1493 21 view .LVU1944
.LBB1847:
	.loc 2 1495 2 view .LVU1945
	.loc 2 1495 9 is_stmt 0 view .LVU1946
	adds	r0, r0, #12
.LVL467:
	.loc 2 1495 9 view .LVU1947
	bl	net_buf_simple_add
.LVL468:
	.loc 2 1495 9 view .LVU1948
.LBE1847:
.LBE1848:
.LBE1850:
.LBE1852:
	.loc 1 604 2 is_stmt 1 view .LVU1949
	.loc 1 604 13 is_stmt 0 view .LVU1950
	strb	r4, [r0]
	.loc 1 605 2 is_stmt 1 view .LVU1951
	.loc 1 605 13 is_stmt 0 view .LVU1952
	strh	r7, [r0, #1]	@ unaligned
	.loc 1 606 2 is_stmt 1 view .LVU1953
	.loc 1 606 27 is_stmt 0 view .LVU1954
	ldrh	r3, [sp, #32]
	strh	r3, [r0, #3]	@ unaligned
.LVL469:
	.loc 1 606 27 view .LVU1955
.LBE1842:
.LBE1841:
.LBE1867:
.LBE1984:
	.loc 1 5552 2 is_stmt 1 view .LVU1956
	b	.L32
.LVL470:
.L49:
.LBB1985:
.LBB1868:
	.loc 1 714 3 view .LVU1957
.LBB1853:
.LBI1853:
	.loc 1 432 13 view .LVU1958
.LBB1854:
	.loc 1 451 2 view .LVU1959
	.loc 1 451 13 is_stmt 0 view .LVU1960
	ldr	r3, .L153+8
	.loc 1 452 20 view .LVU1961
	ldr	r2, .L153+12
	.loc 1 451 13 view .LVU1962
	mov	r0, #-1
.LVL471:
	.loc 1 451 13 view .LVU1963
	movw	r1, #8191
	strd	r0, [r3]
	.loc 1 452 2 is_stmt 1 view .LVU1964
	.loc 1 453 16 is_stmt 0 view .LVU1965
	ldr	r3, .L153+16
	.loc 1 452 20 view .LVU1966
	movs	r0, #0
	movs	r1, #0
	strd	r0, [r2]
	.loc 1 453 2 is_stmt 1 view .LVU1967
	.loc 1 453 16 is_stmt 0 view .LVU1968
	movs	r0, #31
	movs	r1, #0
	strd	r0, [r3]
	.loc 1 455 2 is_stmt 1 view .LVU1969
	.loc 1 456 3 view .LVU1970
	bl	ll_reset
.LVL472:
	.loc 1 457 3 view .LVU1971
.LBB1855:
.LBI1855:
	.loc 1 319 24 view .LVU1972
.LBB1856:
	.loc 1 321 2 view .LVU1973
	.loc 1 322 2 view .LVU1974
	.loc 1 324 2 view .LVU1975
	.loc 1 324 8 is_stmt 0 view .LVU1976
	ldrh	r0, [r6]
	movs	r1, #1
	bl	bt_hci_cmd_complete_create
.LVL473:
.LBB1857:
.LBB1858:
	.loc 2 1495 9 view .LVU1977
	movs	r1, #1
.LBE1858:
.LBE1857:
	.loc 1 324 8 view .LVU1978
	mov	r5, r0
.LVL474:
	.loc 1 325 2 is_stmt 1 view .LVU1979
.LBB1860:
.LBI1857:
	.loc 2 1493 21 view .LVU1980
.LBB1859:
	.loc 2 1495 2 view .LVU1981
	.loc 2 1495 9 is_stmt 0 view .LVU1982
	adds	r0, r0, #12
.LVL475:
	.loc 2 1495 9 view .LVU1983
	bl	net_buf_simple_add
.LVL476:
	.loc 2 1495 9 view .LVU1984
.LBE1859:
.LBE1860:
	.loc 1 326 2 is_stmt 1 view .LVU1985
	.loc 1 326 15 is_stmt 0 view .LVU1986
	movs	r3, #0
.LBE1856:
.LBE1855:
	.loc 1 461 13 view .LVU1987
	ldr	r2, .L153+20
.LBB1862:
.LBB1861:
	.loc 1 326 15 view .LVU1988
	strb	r3, [r0]
	.loc 1 328 2 is_stmt 1 view .LVU1989
.LVL477:
	.loc 1 328 2 is_stmt 0 view .LVU1990
.LBE1861:
.LBE1862:
	.loc 1 461 2 is_stmt 1 view .LVU1991
	.loc 1 461 13 is_stmt 0 view .LVU1992
	str	r3, [r2]
	.loc 1 479 2 is_stmt 1 view .LVU1993
	bl	hci_recv_fifo_reset
.LVL478:
	.loc 1 479 2 is_stmt 0 view .LVU1994
.LBE1854:
.LBE1853:
.LBE1868:
.LBE1985:
	.loc 1 5552 2 is_stmt 1 view .LVU1995
	b	.L32
.LVL479:
.L47:
.LBB1986:
.LBB1869:
	.loc 1 718 3 view .LVU1996
.LBB1863:
.LBI1822:
	.loc 1 423 13 view .LVU1997
.LBB1837:
	.loc 1 425 2 view .LVU1998
	.loc 1 427 2 view .LVU1999
.LBB1835:
.LBI1831:
	.loc 6 595 24 view .LVU2000
.LBB1833:
	.loc 6 597 2 view .LVU2001
	.loc 6 597 49 is_stmt 0 view .LVU2002
	ldr	r2, [r5, #12]
.LBE1833:
.LBE1835:
	.loc 1 427 20 view .LVU2003
	ldr	r3, .L153+12
	b	.L140
.LVL480:
.L146:
	.loc 1 427 20 view .LVU2004
.LBE1837:
.LBE1863:
.LBE1869:
.LBE1986:
	.loc 1 5556 9 view .LVU2005
	ldr	r5, [sp, #28]
.LVL481:
	.loc 1 5556 9 view .LVU2006
	b	.L32
.LVL482:
.L109:
.LBB1987:
.LBB1797:
.LBB1777:
.LBB1496:
	.loc 1 2725 3 is_stmt 1 view .LVU2007
.LBB1492:
.LBI1492:
	.loc 1 314 24 view .LVU2008
.LBB1493:
	.loc 1 316 2 view .LVU2009
	.loc 1 316 9 is_stmt 0 view .LVU2010
	movs	r1, #18
	b	.L143
.LVL483:
.L148:
	.loc 1 316 9 view .LVU2011
.LBE1493:
.LBE1492:
	.loc 1 2718 3 is_stmt 1 view .LVU2012
.LBB1494:
.LBI1494:
	.loc 1 314 24 view .LVU2013
.LBB1495:
	.loc 1 316 2 view .LVU2014
	.loc 1 316 9 is_stmt 0 view .LVU2015
	movs	r1, #17
	b	.L143
.L154:
	.align	2
.L153:
	.word	818712320
	.word	114924
	.word	event_mask
	.word	event_mask_page_2
	.word	le_event_mask
	.word	conn_count
.LBE1495:
.LBE1494:
.LBE1496:
.LBE1777:
.LBE1797:
.LBE1987:
	.cfi_endproc
.LFE693:
	.size	hci_cmd_handle, .-hci_cmd_handle
	.section	.rodata.hci_acl_handle.str1.4,"aMS",%progbits,1
	.align	2
.LC3:
	.ascii	"No HCI ACL header\000"
	.align	2
.LC4:
	.ascii	"Invalid HCI ACL packet length\000"
	.align	2
.LC5:
	.ascii	"Invalid HCI ACL Data length\000"
	.align	2
.LC6:
	.ascii	"Tx Buffer Overflow\000"
	.align	2
.LC7:
	.ascii	"Invalid Tx Enqueue\000"
	.section	.text.hci_acl_handle,"ax",%progbits
	.align	1
	.p2align 2,,3
	.global	hci_acl_handle
	.syntax unified
	.thumb
	.thumb_func
	.type	hci_acl_handle, %function
hci_acl_handle:
.LVL484:
.LFB695:
	.loc 1 5581 1 is_stmt 1 view -0
	.cfi_startproc
	@ args = 0, pretend = 0, frame = 24
	@ frame_needed = 0, uses_anonymous_args = 0
	.loc 1 5582 2 view .LVU2017
	.loc 1 5583 2 view .LVU2018
	.loc 1 5584 2 view .LVU2019
	.loc 1 5585 2 view .LVU2020
	.loc 1 5586 2 view .LVU2021
	.loc 1 5587 2 view .LVU2022
	.loc 1 5589 2 view .LVU2023
	.loc 1 5581 1 is_stmt 0 view .LVU2024
	push	{r4, r5, r6, r7, r8, r9, lr}
	.cfi_def_cfa_offset 28
	.cfi_offset 4, -28
	.cfi_offset 5, -24
	.cfi_offset 6, -20
	.cfi_offset 7, -16
	.cfi_offset 8, -12
	.cfi_offset 9, -8
	.cfi_offset 14, -4
	.loc 1 5589 7 view .LVU2025
	movs	r4, #0
	str	r4, [r1]
	.loc 1 5591 2 is_stmt 1 view .LVU2026
	.loc 1 5591 5 is_stmt 0 view .LVU2027
	ldrh	r3, [r0, #16]
	cmp	r3, #3
	.loc 1 5581 1 view .LVU2028
	sub	sp, sp, #28
	.cfi_def_cfa_offset 56
	.loc 1 5591 5 view .LVU2029
	bls	.L170
	.loc 1 5596 2 is_stmt 1 view .LVU2030
.LVL485:
.LBB2046:
.LBI2046:
	.loc 2 2076 21 view .LVU2031
.LBB2047:
	.loc 2 2078 2 view .LVU2032
	mov	r5, r0
	mov	r8, r1
	.loc 2 2078 9 is_stmt 0 view .LVU2033
	adds	r0, r0, #12
.LVL486:
	.loc 2 2078 9 view .LVU2034
	movs	r1, #4
.LVL487:
	.loc 2 2078 9 view .LVU2035
	bl	net_buf_simple_pull_mem
.LVL488:
	.loc 2 2078 9 view .LVU2036
.LBE2047:
.LBE2046:
	.loc 1 5597 2 is_stmt 1 view .LVU2037
	.loc 1 5600 5 is_stmt 0 view .LVU2038
	ldrh	r3, [r5, #16]
	.loc 1 5597 6 view .LVU2039
	ldrh	r7, [r0, #2]	@ unaligned
.LVL489:
	.loc 1 5598 2 is_stmt 1 view .LVU2040
	.loc 1 5598 9 is_stmt 0 view .LVU2041
	ldrh	r9, [r0]	@ unaligned
.LVL490:
	.loc 1 5600 2 is_stmt 1 view .LVU2042
	.loc 1 5600 5 is_stmt 0 view .LVU2043
	cmp	r3, r7
	bcc	.L171
	.loc 1 5605 2 is_stmt 1 view .LVU2044
	.loc 1 5605 5 is_stmt 0 view .LVU2045
	cmp	r7, #27
	bhi	.L172
	.loc 1 5611 2 is_stmt 1 view .LVU2046
	.loc 1 5614 12 is_stmt 0 view .LVU2047
	bl	ll_tx_mem_acquire
.LVL491:
	.loc 1 5611 8 view .LVU2048
	lsr	r6, r9, #12
	mov	r3, r6
.LVL492:
	.loc 1 5612 2 is_stmt 1 view .LVU2049
	.loc 1 5614 2 view .LVU2050
	.loc 1 5615 2 view .LVU2051
	.loc 1 5615 5 is_stmt 0 view .LVU2052
	mov	r4, r0
	cmp	r0, #0
	beq	.L173
	.loc 1 5621 2 is_stmt 1 view .LVU2053
.LVL493:
	.loc 1 5623 2 view .LVU2054
	.loc 1 5623 5 is_stmt 0 view .LVU2055
	lsrs	r3, r3, #2
	bne	.L157
	.loc 1 5627 2 is_stmt 1 view .LVU2056
	cbz	r6, .L164
	cmp	r6, #1
	bne	.L157
.LVL494:
.L163:
	.loc 1 5629 19 is_stmt 0 view .LVU2057
	ldrb	r3, [r4, #4]	@ zero_extendqisi2
	.loc 1 5641 16 view .LVU2058
	strb	r7, [r4, #5]
	.loc 1 5629 19 view .LVU2059
	bfi	r3, r6, #0, #2
	strb	r3, [r4, #4]
	.loc 1 5641 2 is_stmt 1 view .LVU2060
	.loc 1 5642 1 view .LVU2061
.LVL495:
.LBB2048:
.LBI2048:
	.loc 3 83 216 view .LVU2062
.LBB2049:
	.loc 3 83 292 view .LVU2063
	.loc 3 83 299 is_stmt 0 view .LVU2064
	ldr	r1, [r5, #12]
	mov	r2, r7
	adds	r0, r4, #7
.LVL496:
	.loc 3 83 299 view .LVU2065
	bl	memcpy
.LVL497:
	.loc 3 83 299 view .LVU2066
.LBE2049:
.LBE2048:
	.loc 1 5644 2 is_stmt 1 view .LVU2067
	.loc 1 5644 6 is_stmt 0 view .LVU2068
	mov	r1, r4
	ubfx	r0, r9, #0, #12
	bl	ll_tx_mem_enqueue
.LVL498:
	.loc 1 5644 5 view .LVU2069
	cbnz	r0, .L174
.LVL499:
.L155:
	.loc 1 5651 1 view .LVU2070
	add	sp, sp, #28
	.cfi_remember_state
	.cfi_def_cfa_offset 28
	@ sp needed
	pop	{r4, r5, r6, r7, r8, r9, pc}
.LVL500:
.L164:
	.cfi_restore_state
	.loc 1 5627 2 view .LVU2071
	movs	r6, #2
.LVL501:
	.loc 1 5627 2 view .LVU2072
	b	.L163
.LVL502:
.L170:
	.loc 1 5592 3 is_stmt 1 view .LVU2073
.LBB2050:
	.loc 1 5592 8 view .LVU2074
	.loc 1 5592 57 view .LVU2075
	.loc 1 5592 14 view .LVU2076
	.loc 1 5592 2 view .LVU2077
	.loc 1 5592 41 view .LVU2078
	.loc 1 5592 176 view .LVU2079
	.loc 1 5592 187 view .LVU2080
	.loc 1 5592 275 view .LVU2081
	.loc 1 5592 3 view .LVU2082
	.loc 1 5592 3 view .LVU2083
.LBB2051:
	.loc 1 5592 8 view .LVU2084
	.loc 1 5592 2 view .LVU2085
.LBE2051:
.LBE2050:
	.loc 1 5592 3 view .LVU2086
	.loc 1 5592 12 view .LVU2087
	.loc 1 5592 107 view .LVU2088
	.loc 1 5592 3 view .LVU2089
.LBB2062:
.LBB2059:
	.loc 1 5592 12 view .LVU2090
	.loc 1 5592 102 view .LVU2091
	.loc 1 5592 104 view .LVU2092
.LBB2052:
	.loc 1 5592 109 view .LVU2093
	.loc 1 5592 120 view .LVU2094
	.loc 1 5592 209 view .LVU2095
	.loc 1 5592 26 view .LVU2096
.LBE2052:
.LBE2059:
.LBE2062:
	.loc 1 5592 3 view .LVU2097
	.loc 1 5592 368 view .LVU2098
	.loc 1 5592 75 view .LVU2099
	.loc 1 5592 2 view .LVU2100
	.loc 1 5592 2 view .LVU2101
	.loc 1 5592 2 view .LVU2102
	.loc 1 5592 38 view .LVU2103
	.loc 1 5592 4 view .LVU2104
	.loc 1 5592 30 view .LVU2105
	.loc 1 5592 56 view .LVU2106
	.loc 1 5592 79 view .LVU2107
	.loc 1 5592 141 view .LVU2108
	.loc 1 5592 198 view .LVU2109
	.loc 1 5592 263 view .LVU2110
	.loc 1 5592 288 view .LVU2111
	.loc 1 5592 289 view .LVU2112
	.loc 1 5592 291 view .LVU2113
	.loc 1 5592 321 view .LVU2114
	.loc 1 5592 351 view .LVU2115
	.loc 1 5592 383 view .LVU2116
	.loc 1 5592 415 view .LVU2117
	.loc 1 5592 447 view .LVU2118
	.loc 1 5592 644 view .LVU2119
	.loc 1 5592 668 view .LVU2120
	.loc 1 5592 669 view .LVU2121
	.loc 1 5592 671 view .LVU2122
	.loc 1 5592 700 view .LVU2123
	.loc 1 5592 729 view .LVU2124
	.loc 1 5592 760 view .LVU2125
	.loc 1 5592 791 view .LVU2126
	.loc 1 5592 822 view .LVU2127
	.loc 1 5592 1029 view .LVU2128
	.loc 1 5592 4 view .LVU2129
	.loc 1 5592 22 view .LVU2130
	.loc 1 5592 42 view .LVU2131
	.loc 1 5592 4 view .LVU2132
	.loc 1 5592 42 view .LVU2133
	.loc 1 5592 13 view .LVU2134
	.loc 1 5592 13 view .LVU2135
	.loc 1 5592 61 view .LVU2136
	.loc 1 5592 92 view .LVU2137
	.loc 1 5592 126 view .LVU2138
	.loc 1 5592 131 view .LVU2139
	.loc 1 5592 372 view .LVU2140
	.loc 1 5592 1389 view .LVU2141
	.loc 1 5592 1454 view .LVU2142
	.loc 1 5592 1478 view .LVU2143
	.loc 1 5592 1523 view .LVU2144
	.loc 1 5592 1534 view .LVU2145
	.loc 1 5592 1637 view .LVU2146
	.loc 1 5592 1653 view .LVU2147
	.loc 1 5592 1693 view .LVU2148
	.loc 1 5592 1718 view .LVU2149
	.loc 1 5592 2989 view .LVU2150
	.loc 1 5592 3030 view .LVU2151
	.loc 1 5592 7 view .LVU2152
	.loc 1 5592 30 view .LVU2153
	.loc 1 5592 129 view .LVU2154
	.loc 1 5592 5 view .LVU2155
	.loc 1 5592 28 view .LVU2156
	.loc 1 5592 52 view .LVU2157
	.loc 1 5592 80 view .LVU2158
	.loc 1 5592 256 view .LVU2159
	.loc 1 5592 16 view .LVU2160
.LBB2063:
.LBB2060:
.LBB2057:
	.loc 1 5592 29 view .LVU2161
	.loc 1 5592 3 view .LVU2162
	.loc 1 5592 3 view .LVU2163
	.loc 1 5592 70 view .LVU2164
	.loc 1 5592 74 view .LVU2165
	.loc 1 5592 484 view .LVU2166
	.loc 1 5592 5 view .LVU2167
	.loc 1 5592 7 view .LVU2168
	.loc 1 5592 12 view .LVU2169
	.loc 1 5592 10 view .LVU2170
	.loc 1 5592 5 view .LVU2171
	.loc 1 5592 23 view .LVU2172
.LBB2053:
	.loc 1 5592 3 view .LVU2173
	.loc 1 5592 368 view .LVU2174
	.loc 1 5592 75 view .LVU2175
.LVL503:
	.loc 1 5592 2 view .LVU2176
	.loc 1 5592 2 view .LVU2177
	.loc 1 5592 2 view .LVU2178
	.loc 1 5592 38 view .LVU2179
	.loc 1 5592 67 view .LVU2180
	.loc 1 5592 93 view .LVU2181
	.loc 1 5592 119 view .LVU2182
	.loc 1 5592 142 view .LVU2183
	.loc 1 5592 204 view .LVU2184
	.loc 1 5592 261 view .LVU2185
	.loc 1 5592 326 view .LVU2186
	.loc 1 5592 351 view .LVU2187
	.loc 1 5592 352 view .LVU2188
	.loc 1 5592 354 view .LVU2189
	.loc 1 5592 384 view .LVU2190
	.loc 1 5592 414 view .LVU2191
	.loc 1 5592 446 view .LVU2192
	.loc 1 5592 478 view .LVU2193
	.loc 1 5592 510 view .LVU2194
	.loc 1 5592 707 view .LVU2195
	.loc 1 5592 731 view .LVU2196
	.loc 1 5592 732 view .LVU2197
	.loc 1 5592 734 view .LVU2198
	.loc 1 5592 763 view .LVU2199
	.loc 1 5592 792 view .LVU2200
	.loc 1 5592 823 view .LVU2201
	.loc 1 5592 854 view .LVU2202
	.loc 1 5592 885 view .LVU2203
	.loc 1 5592 1092 view .LVU2204
	.loc 1 5592 4 view .LVU2205
	.loc 1 5592 22 view .LVU2206
	.loc 1 5592 42 view .LVU2207
	.loc 1 5592 4 view .LVU2208
	.loc 1 5592 42 view .LVU2209
	.loc 1 5592 13 view .LVU2210
	.loc 1 5592 13 view .LVU2211
	.loc 1 5592 61 view .LVU2212
	.loc 1 5592 92 view .LVU2213
	.loc 1 5592 126 view .LVU2214
.LBB2054:
	.loc 1 5592 131 view .LVU2215
	.loc 1 5592 372 view .LVU2216
	.loc 1 5592 1389 view .LVU2217
	.loc 1 5592 1454 view .LVU2218
.LBE2054:
.LBE2053:
.LBE2057:
.LBE2060:
.LBE2063:
	.loc 1 5592 1478 view .LVU2219
	.loc 1 5592 1523 view .LVU2220
	.loc 1 5592 1534 view .LVU2221
	.loc 1 5592 1637 view .LVU2222
.LBB2064:
.LBB2061:
.LBB2058:
.LBB2056:
.LBB2055:
	.loc 1 5592 1653 view .LVU2223
	.loc 1 5592 1693 view .LVU2224
	.loc 1 5592 1718 view .LVU2225
	.loc 1 5592 2989 view .LVU2226
	.loc 1 5592 3027 view .LVU2227
	.loc 1 5592 3032 view .LVU2228
	.loc 1 5592 3572 view .LVU2229
	.loc 1 5592 0 is_stmt 0 view .LVU2230
	ldr	r2, .L175
.LVL504:
.L169:
	.loc 1 5592 0 view .LVU2231
.LBE2055:
.LBE2056:
.LBE2058:
.LBE2061:
.LBE2064:
.LBB2065:
.LBB2066:
.LBB2067:
.LBB2068:
.LBB2069:
	.loc 1 5601 176 view .LVU2232
	movs	r3, #2
	strd	r3, r2, [sp, #16]
.LVL505:
	.loc 1 5601 176 view .LVU2233
.LBE2069:
.LBE2068:
	.loc 1 5601 26 is_stmt 1 view .LVU2234
	.loc 1 5601 7 view .LVU2235
	.loc 1 5601 147 view .LVU2236
	.loc 1 5601 149 view .LVU2237
.LBB2072:
.LBI2072:
	.loc 5 26 20 view .LVU2238
.LBB2073:
	.loc 5 38 2 view .LVU2239
	.loc 5 38 7 view .LVU2240
	.loc 5 38 5 view .LVU2241
	.loc 5 39 2 view .LVU2242
	ldr	r0, .L175+4
	mov	r3, r4
	add	r2, sp, #16
.LVL506:
	.loc 5 39 2 is_stmt 0 view .LVU2243
	mov	r1, #4160
	bl	z_impl_z_log_msg_static_create
.LVL507:
	.loc 5 39 2 view .LVU2244
.LBE2073:
.LBE2072:
.LBE2067:
	.loc 1 5601 107 is_stmt 1 view .LVU2245
	.loc 1 5601 5 view .LVU2246
.LVL508:
	.loc 1 5601 42 view .LVU2247
.LBE2066:
	.loc 1 5601 6 view .LVU2248
	.loc 1 5601 278 view .LVU2249
	.loc 1 5601 5 view .LVU2250
	.loc 1 5601 18 view .LVU2251
.LBE2065:
	.loc 1 5601 6 view .LVU2252
	.loc 1 5602 3 view .LVU2253
.L157:
	.loc 1 5593 10 is_stmt 0 view .LVU2254
	mvn	r0, #21
	b	.L155
.LVL509:
.L172:
	.loc 1 5606 3 is_stmt 1 view .LVU2255
.LBB2083:
	.loc 1 5606 8 view .LVU2256
	.loc 1 5606 57 view .LVU2257
	.loc 1 5606 14 view .LVU2258
	.loc 1 5606 2 view .LVU2259
	.loc 1 5606 41 view .LVU2260
	.loc 1 5606 176 view .LVU2261
	.loc 1 5606 187 view .LVU2262
	.loc 1 5606 275 view .LVU2263
	.loc 1 5606 3 view .LVU2264
	.loc 1 5606 3 view .LVU2265
.LBB2084:
	.loc 1 5606 8 view .LVU2266
	.loc 1 5606 2 view .LVU2267
.LBE2084:
.LBE2083:
	.loc 1 5606 3 view .LVU2268
	.loc 1 5606 12 view .LVU2269
	.loc 1 5606 107 view .LVU2270
	.loc 1 5606 3 view .LVU2271
.LBB2095:
.LBB2092:
	.loc 1 5606 12 view .LVU2272
	.loc 1 5606 102 view .LVU2273
	.loc 1 5606 104 view .LVU2274
.LBB2085:
	.loc 1 5606 109 view .LVU2275
	.loc 1 5606 120 view .LVU2276
	.loc 1 5606 209 view .LVU2277
	.loc 1 5606 26 view .LVU2278
.LBE2085:
.LBE2092:
.LBE2095:
	.loc 1 5606 3 view .LVU2279
	.loc 1 5606 368 view .LVU2280
	.loc 1 5606 75 view .LVU2281
	.loc 1 5606 2 view .LVU2282
	.loc 1 5606 2 view .LVU2283
	.loc 1 5606 2 view .LVU2284
	.loc 1 5606 38 view .LVU2285
	.loc 1 5606 4 view .LVU2286
	.loc 1 5606 30 view .LVU2287
	.loc 1 5606 56 view .LVU2288
	.loc 1 5606 79 view .LVU2289
	.loc 1 5606 141 view .LVU2290
	.loc 1 5606 198 view .LVU2291
	.loc 1 5606 263 view .LVU2292
	.loc 1 5606 288 view .LVU2293
	.loc 1 5606 289 view .LVU2294
	.loc 1 5606 291 view .LVU2295
	.loc 1 5606 321 view .LVU2296
	.loc 1 5606 351 view .LVU2297
	.loc 1 5606 383 view .LVU2298
	.loc 1 5606 415 view .LVU2299
	.loc 1 5606 447 view .LVU2300
	.loc 1 5606 644 view .LVU2301
	.loc 1 5606 668 view .LVU2302
	.loc 1 5606 669 view .LVU2303
	.loc 1 5606 671 view .LVU2304
	.loc 1 5606 700 view .LVU2305
	.loc 1 5606 729 view .LVU2306
	.loc 1 5606 760 view .LVU2307
	.loc 1 5606 791 view .LVU2308
	.loc 1 5606 822 view .LVU2309
	.loc 1 5606 1029 view .LVU2310
	.loc 1 5606 4 view .LVU2311
	.loc 1 5606 22 view .LVU2312
	.loc 1 5606 42 view .LVU2313
	.loc 1 5606 4 view .LVU2314
	.loc 1 5606 42 view .LVU2315
	.loc 1 5606 13 view .LVU2316
	.loc 1 5606 13 view .LVU2317
	.loc 1 5606 61 view .LVU2318
	.loc 1 5606 92 view .LVU2319
	.loc 1 5606 126 view .LVU2320
	.loc 1 5606 131 view .LVU2321
	.loc 1 5606 382 view .LVU2322
	.loc 1 5606 1439 view .LVU2323
	.loc 1 5606 1504 view .LVU2324
	.loc 1 5606 1528 view .LVU2325
	.loc 1 5606 1583 view .LVU2326
	.loc 1 5606 1594 view .LVU2327
	.loc 1 5606 1707 view .LVU2328
	.loc 1 5606 1723 view .LVU2329
	.loc 1 5606 1763 view .LVU2330
	.loc 1 5606 1788 view .LVU2331
	.loc 1 5606 3079 view .LVU2332
	.loc 1 5606 3120 view .LVU2333
	.loc 1 5606 7 view .LVU2334
	.loc 1 5606 30 view .LVU2335
	.loc 1 5606 129 view .LVU2336
	.loc 1 5606 5 view .LVU2337
	.loc 1 5606 28 view .LVU2338
	.loc 1 5606 52 view .LVU2339
	.loc 1 5606 80 view .LVU2340
	.loc 1 5606 256 view .LVU2341
	.loc 1 5606 16 view .LVU2342
.LBB2096:
.LBB2093:
.LBB2090:
	.loc 1 5606 29 view .LVU2343
	.loc 1 5606 3 view .LVU2344
	.loc 1 5606 3 view .LVU2345
	.loc 1 5606 70 view .LVU2346
	.loc 1 5606 74 view .LVU2347
	.loc 1 5606 484 view .LVU2348
	.loc 1 5606 5 view .LVU2349
	.loc 1 5606 7 view .LVU2350
	.loc 1 5606 12 view .LVU2351
	.loc 1 5606 10 view .LVU2352
	.loc 1 5606 5 view .LVU2353
	.loc 1 5606 23 view .LVU2354
.LBB2086:
	.loc 1 5606 3 view .LVU2355
	.loc 1 5606 368 view .LVU2356
	.loc 1 5606 75 view .LVU2357
.LVL510:
	.loc 1 5606 2 view .LVU2358
	.loc 1 5606 2 view .LVU2359
	.loc 1 5606 2 view .LVU2360
	.loc 1 5606 38 view .LVU2361
	.loc 1 5606 67 view .LVU2362
	.loc 1 5606 93 view .LVU2363
	.loc 1 5606 119 view .LVU2364
	.loc 1 5606 142 view .LVU2365
	.loc 1 5606 204 view .LVU2366
	.loc 1 5606 261 view .LVU2367
	.loc 1 5606 326 view .LVU2368
	.loc 1 5606 351 view .LVU2369
	.loc 1 5606 352 view .LVU2370
	.loc 1 5606 354 view .LVU2371
	.loc 1 5606 384 view .LVU2372
	.loc 1 5606 414 view .LVU2373
	.loc 1 5606 446 view .LVU2374
	.loc 1 5606 478 view .LVU2375
	.loc 1 5606 510 view .LVU2376
	.loc 1 5606 707 view .LVU2377
	.loc 1 5606 731 view .LVU2378
	.loc 1 5606 732 view .LVU2379
	.loc 1 5606 734 view .LVU2380
	.loc 1 5606 763 view .LVU2381
	.loc 1 5606 792 view .LVU2382
	.loc 1 5606 823 view .LVU2383
	.loc 1 5606 854 view .LVU2384
	.loc 1 5606 885 view .LVU2385
	.loc 1 5606 1092 view .LVU2386
	.loc 1 5606 4 view .LVU2387
	.loc 1 5606 22 view .LVU2388
	.loc 1 5606 42 view .LVU2389
	.loc 1 5606 4 view .LVU2390
	.loc 1 5606 42 view .LVU2391
	.loc 1 5606 13 view .LVU2392
	.loc 1 5606 13 view .LVU2393
	.loc 1 5606 61 view .LVU2394
	.loc 1 5606 92 view .LVU2395
	.loc 1 5606 126 view .LVU2396
.LBB2087:
	.loc 1 5606 131 view .LVU2397
	.loc 1 5606 382 view .LVU2398
	.loc 1 5606 1439 view .LVU2399
	.loc 1 5606 1504 view .LVU2400
.LBE2087:
.LBE2086:
.LBE2090:
.LBE2093:
.LBE2096:
	.loc 1 5606 1528 view .LVU2401
	.loc 1 5606 1583 view .LVU2402
	.loc 1 5606 1594 view .LVU2403
	.loc 1 5606 1707 view .LVU2404
.LBB2097:
.LBB2094:
.LBB2091:
.LBB2089:
.LBB2088:
	.loc 1 5606 1723 view .LVU2405
	.loc 1 5606 1763 view .LVU2406
	.loc 1 5606 1788 view .LVU2407
	.loc 1 5606 3079 view .LVU2408
	.loc 1 5606 3117 view .LVU2409
	.loc 1 5606 3122 view .LVU2410
	.loc 1 5606 3722 view .LVU2411
	.loc 1 5606 0 is_stmt 0 view .LVU2412
	ldr	r2, .L175+8
	b	.L169
.LVL511:
.L171:
	.loc 1 5606 0 view .LVU2413
.LBE2088:
.LBE2089:
.LBE2091:
.LBE2094:
.LBE2097:
	.loc 1 5601 3 is_stmt 1 view .LVU2414
.LBB2098:
	.loc 1 5601 8 view .LVU2415
	.loc 1 5601 57 view .LVU2416
	.loc 1 5601 14 view .LVU2417
	.loc 1 5601 2 view .LVU2418
	.loc 1 5601 41 view .LVU2419
	.loc 1 5601 176 view .LVU2420
	.loc 1 5601 187 view .LVU2421
	.loc 1 5601 275 view .LVU2422
	.loc 1 5601 3 view .LVU2423
	.loc 1 5601 3 view .LVU2424
.LBB2079:
	.loc 1 5601 8 view .LVU2425
	.loc 1 5601 2 view .LVU2426
.LBE2079:
.LBE2098:
	.loc 1 5601 3 view .LVU2427
	.loc 1 5601 12 view .LVU2428
	.loc 1 5601 107 view .LVU2429
	.loc 1 5601 3 view .LVU2430
.LBB2099:
.LBB2080:
	.loc 1 5601 12 view .LVU2431
	.loc 1 5601 102 view .LVU2432
	.loc 1 5601 104 view .LVU2433
.LBB2076:
	.loc 1 5601 109 view .LVU2434
	.loc 1 5601 120 view .LVU2435
	.loc 1 5601 209 view .LVU2436
	.loc 1 5601 26 view .LVU2437
.LBE2076:
.LBE2080:
.LBE2099:
	.loc 1 5601 3 view .LVU2438
	.loc 1 5601 368 view .LVU2439
	.loc 1 5601 75 view .LVU2440
	.loc 1 5601 2 view .LVU2441
	.loc 1 5601 2 view .LVU2442
	.loc 1 5601 2 view .LVU2443
	.loc 1 5601 38 view .LVU2444
	.loc 1 5601 4 view .LVU2445
	.loc 1 5601 30 view .LVU2446
	.loc 1 5601 56 view .LVU2447
	.loc 1 5601 79 view .LVU2448
	.loc 1 5601 141 view .LVU2449
	.loc 1 5601 198 view .LVU2450
	.loc 1 5601 263 view .LVU2451
	.loc 1 5601 288 view .LVU2452
	.loc 1 5601 289 view .LVU2453
	.loc 1 5601 291 view .LVU2454
	.loc 1 5601 321 view .LVU2455
	.loc 1 5601 351 view .LVU2456
	.loc 1 5601 383 view .LVU2457
	.loc 1 5601 415 view .LVU2458
	.loc 1 5601 447 view .LVU2459
	.loc 1 5601 644 view .LVU2460
	.loc 1 5601 668 view .LVU2461
	.loc 1 5601 669 view .LVU2462
	.loc 1 5601 671 view .LVU2463
	.loc 1 5601 700 view .LVU2464
	.loc 1 5601 729 view .LVU2465
	.loc 1 5601 760 view .LVU2466
	.loc 1 5601 791 view .LVU2467
	.loc 1 5601 822 view .LVU2468
	.loc 1 5601 1029 view .LVU2469
	.loc 1 5601 4 view .LVU2470
	.loc 1 5601 22 view .LVU2471
	.loc 1 5601 42 view .LVU2472
	.loc 1 5601 4 view .LVU2473
	.loc 1 5601 42 view .LVU2474
	.loc 1 5601 13 view .LVU2475
	.loc 1 5601 13 view .LVU2476
	.loc 1 5601 61 view .LVU2477
	.loc 1 5601 92 view .LVU2478
	.loc 1 5601 126 view .LVU2479
	.loc 1 5601 131 view .LVU2480
	.loc 1 5601 384 view .LVU2481
	.loc 1 5601 1449 view .LVU2482
	.loc 1 5601 1514 view .LVU2483
	.loc 1 5601 1538 view .LVU2484
	.loc 1 5601 1595 view .LVU2485
	.loc 1 5601 1606 view .LVU2486
	.loc 1 5601 1721 view .LVU2487
	.loc 1 5601 1737 view .LVU2488
	.loc 1 5601 1777 view .LVU2489
	.loc 1 5601 1802 view .LVU2490
	.loc 1 5601 3097 view .LVU2491
	.loc 1 5601 3138 view .LVU2492
	.loc 1 5601 7 view .LVU2493
	.loc 1 5601 30 view .LVU2494
	.loc 1 5601 129 view .LVU2495
	.loc 1 5601 5 view .LVU2496
	.loc 1 5601 28 view .LVU2497
	.loc 1 5601 52 view .LVU2498
	.loc 1 5601 80 view .LVU2499
	.loc 1 5601 256 view .LVU2500
	.loc 1 5601 16 view .LVU2501
.LBB2100:
.LBB2081:
.LBB2077:
	.loc 1 5601 29 view .LVU2502
	.loc 1 5601 3 view .LVU2503
	.loc 1 5601 3 view .LVU2504
	.loc 1 5601 70 view .LVU2505
	.loc 1 5601 74 view .LVU2506
	.loc 1 5601 484 view .LVU2507
	.loc 1 5601 5 view .LVU2508
	.loc 1 5601 7 view .LVU2509
	.loc 1 5601 12 view .LVU2510
	.loc 1 5601 10 view .LVU2511
	.loc 1 5601 5 view .LVU2512
	.loc 1 5601 23 view .LVU2513
.LBB2074:
	.loc 1 5601 3 view .LVU2514
	.loc 1 5601 368 view .LVU2515
	.loc 1 5601 75 view .LVU2516
.LVL512:
	.loc 1 5601 2 view .LVU2517
	.loc 1 5601 2 view .LVU2518
	.loc 1 5601 2 view .LVU2519
	.loc 1 5601 38 view .LVU2520
	.loc 1 5601 67 view .LVU2521
	.loc 1 5601 93 view .LVU2522
	.loc 1 5601 119 view .LVU2523
	.loc 1 5601 142 view .LVU2524
	.loc 1 5601 204 view .LVU2525
	.loc 1 5601 261 view .LVU2526
	.loc 1 5601 326 view .LVU2527
	.loc 1 5601 351 view .LVU2528
	.loc 1 5601 352 view .LVU2529
	.loc 1 5601 354 view .LVU2530
	.loc 1 5601 384 view .LVU2531
	.loc 1 5601 414 view .LVU2532
	.loc 1 5601 446 view .LVU2533
	.loc 1 5601 478 view .LVU2534
	.loc 1 5601 510 view .LVU2535
	.loc 1 5601 707 view .LVU2536
	.loc 1 5601 731 view .LVU2537
	.loc 1 5601 732 view .LVU2538
	.loc 1 5601 734 view .LVU2539
	.loc 1 5601 763 view .LVU2540
	.loc 1 5601 792 view .LVU2541
	.loc 1 5601 823 view .LVU2542
	.loc 1 5601 854 view .LVU2543
	.loc 1 5601 885 view .LVU2544
	.loc 1 5601 1092 view .LVU2545
	.loc 1 5601 4 view .LVU2546
	.loc 1 5601 22 view .LVU2547
	.loc 1 5601 42 view .LVU2548
	.loc 1 5601 4 view .LVU2549
	.loc 1 5601 42 view .LVU2550
	.loc 1 5601 13 view .LVU2551
	.loc 1 5601 13 view .LVU2552
	.loc 1 5601 61 view .LVU2553
	.loc 1 5601 92 view .LVU2554
	.loc 1 5601 126 view .LVU2555
.LBB2070:
	.loc 1 5601 131 view .LVU2556
	.loc 1 5601 384 view .LVU2557
	.loc 1 5601 1449 view .LVU2558
	.loc 1 5601 1514 view .LVU2559
.LBE2070:
.LBE2074:
.LBE2077:
.LBE2081:
.LBE2100:
	.loc 1 5601 1538 view .LVU2560
	.loc 1 5601 1595 view .LVU2561
	.loc 1 5601 1606 view .LVU2562
	.loc 1 5601 1721 view .LVU2563
.LBB2101:
.LBB2082:
.LBB2078:
.LBB2075:
.LBB2071:
	.loc 1 5601 1737 view .LVU2564
	.loc 1 5601 1777 view .LVU2565
	.loc 1 5601 1802 view .LVU2566
	.loc 1 5601 3097 view .LVU2567
	.loc 1 5601 3135 view .LVU2568
	.loc 1 5601 3140 view .LVU2569
	.loc 1 5601 3752 view .LVU2570
	.loc 1 5601 0 is_stmt 0 view .LVU2571
	ldr	r2, .L175+12
	b	.L169
.LVL513:
.L174:
	.loc 1 5601 0 view .LVU2572
.LBE2071:
.LBE2075:
.LBE2078:
.LBE2082:
.LBE2101:
	.loc 1 5645 3 is_stmt 1 view .LVU2573
.LBB2102:
	.loc 1 5645 8 view .LVU2574
	.loc 1 5645 57 view .LVU2575
	.loc 1 5645 14 view .LVU2576
	.loc 1 5645 2 view .LVU2577
	.loc 1 5645 41 view .LVU2578
	.loc 1 5645 176 view .LVU2579
	.loc 1 5645 187 view .LVU2580
	.loc 1 5645 275 view .LVU2581
	.loc 1 5645 3 view .LVU2582
	.loc 1 5645 3 view .LVU2583
.LBB2103:
	.loc 1 5645 8 view .LVU2584
	.loc 1 5645 2 view .LVU2585
.LBE2103:
.LBE2102:
	.loc 1 5645 3 view .LVU2586
	.loc 1 5645 12 view .LVU2587
	.loc 1 5645 107 view .LVU2588
	.loc 1 5645 3 view .LVU2589
.LBB2118:
.LBB2114:
	.loc 1 5645 12 view .LVU2590
	.loc 1 5645 102 view .LVU2591
	.loc 1 5645 104 view .LVU2592
.LBB2104:
	.loc 1 5645 109 view .LVU2593
	.loc 1 5645 120 view .LVU2594
	.loc 1 5645 209 view .LVU2595
	.loc 1 5645 26 view .LVU2596
.LBE2104:
.LBE2114:
.LBE2118:
	.loc 1 5645 3 view .LVU2597
	.loc 1 5645 368 view .LVU2598
	.loc 1 5645 75 view .LVU2599
	.loc 1 5645 2 view .LVU2600
	.loc 1 5645 2 view .LVU2601
	.loc 1 5645 2 view .LVU2602
	.loc 1 5645 38 view .LVU2603
	.loc 1 5645 4 view .LVU2604
	.loc 1 5645 30 view .LVU2605
	.loc 1 5645 56 view .LVU2606
	.loc 1 5645 79 view .LVU2607
	.loc 1 5645 141 view .LVU2608
	.loc 1 5645 198 view .LVU2609
	.loc 1 5645 263 view .LVU2610
	.loc 1 5645 288 view .LVU2611
	.loc 1 5645 289 view .LVU2612
	.loc 1 5645 291 view .LVU2613
	.loc 1 5645 321 view .LVU2614
	.loc 1 5645 351 view .LVU2615
	.loc 1 5645 383 view .LVU2616
	.loc 1 5645 415 view .LVU2617
	.loc 1 5645 447 view .LVU2618
	.loc 1 5645 644 view .LVU2619
	.loc 1 5645 668 view .LVU2620
	.loc 1 5645 669 view .LVU2621
	.loc 1 5645 671 view .LVU2622
	.loc 1 5645 700 view .LVU2623
	.loc 1 5645 729 view .LVU2624
	.loc 1 5645 760 view .LVU2625
	.loc 1 5645 791 view .LVU2626
	.loc 1 5645 822 view .LVU2627
	.loc 1 5645 1029 view .LVU2628
	.loc 1 5645 4 view .LVU2629
	.loc 1 5645 22 view .LVU2630
	.loc 1 5645 42 view .LVU2631
	.loc 1 5645 4 view .LVU2632
	.loc 1 5645 42 view .LVU2633
	.loc 1 5645 13 view .LVU2634
	.loc 1 5645 13 view .LVU2635
	.loc 1 5645 61 view .LVU2636
	.loc 1 5645 92 view .LVU2637
	.loc 1 5645 126 view .LVU2638
	.loc 1 5645 131 view .LVU2639
	.loc 1 5645 373 view .LVU2640
	.loc 1 5645 1394 view .LVU2641
	.loc 1 5645 1459 view .LVU2642
	.loc 1 5645 1483 view .LVU2643
	.loc 1 5645 1529 view .LVU2644
	.loc 1 5645 1540 view .LVU2645
	.loc 1 5645 1644 view .LVU2646
	.loc 1 5645 1660 view .LVU2647
	.loc 1 5645 1700 view .LVU2648
	.loc 1 5645 1725 view .LVU2649
	.loc 1 5645 2998 view .LVU2650
	.loc 1 5645 3039 view .LVU2651
	.loc 1 5645 7 view .LVU2652
	.loc 1 5645 30 view .LVU2653
	.loc 1 5645 129 view .LVU2654
	.loc 1 5645 5 view .LVU2655
	.loc 1 5645 28 view .LVU2656
	.loc 1 5645 52 view .LVU2657
	.loc 1 5645 80 view .LVU2658
	.loc 1 5645 256 view .LVU2659
	.loc 1 5645 16 view .LVU2660
.LBB2119:
.LBB2115:
.LBB2112:
	.loc 1 5645 29 view .LVU2661
	.loc 1 5645 3 view .LVU2662
	.loc 1 5645 3 view .LVU2663
	.loc 1 5645 70 view .LVU2664
	.loc 1 5645 74 view .LVU2665
	.loc 1 5645 484 view .LVU2666
	.loc 1 5645 5 view .LVU2667
	.loc 1 5645 7 view .LVU2668
	.loc 1 5645 12 view .LVU2669
	.loc 1 5645 10 view .LVU2670
	.loc 1 5645 5 view .LVU2671
	.loc 1 5645 23 view .LVU2672
.LBB2105:
	.loc 1 5645 3 view .LVU2673
	.loc 1 5645 368 view .LVU2674
	.loc 1 5645 75 view .LVU2675
.LVL514:
	.loc 1 5645 2 view .LVU2676
	.loc 1 5645 2 view .LVU2677
	.loc 1 5645 2 view .LVU2678
	.loc 1 5645 38 view .LVU2679
	.loc 1 5645 67 view .LVU2680
	.loc 1 5645 93 view .LVU2681
	.loc 1 5645 119 view .LVU2682
	.loc 1 5645 142 view .LVU2683
	.loc 1 5645 204 view .LVU2684
	.loc 1 5645 261 view .LVU2685
	.loc 1 5645 326 view .LVU2686
	.loc 1 5645 351 view .LVU2687
	.loc 1 5645 352 view .LVU2688
	.loc 1 5645 354 view .LVU2689
	.loc 1 5645 384 view .LVU2690
	.loc 1 5645 414 view .LVU2691
	.loc 1 5645 446 view .LVU2692
	.loc 1 5645 478 view .LVU2693
	.loc 1 5645 510 view .LVU2694
	.loc 1 5645 707 view .LVU2695
	.loc 1 5645 731 view .LVU2696
	.loc 1 5645 732 view .LVU2697
	.loc 1 5645 734 view .LVU2698
	.loc 1 5645 763 view .LVU2699
	.loc 1 5645 792 view .LVU2700
	.loc 1 5645 823 view .LVU2701
	.loc 1 5645 854 view .LVU2702
	.loc 1 5645 885 view .LVU2703
	.loc 1 5645 1092 view .LVU2704
	.loc 1 5645 4 view .LVU2705
	.loc 1 5645 22 view .LVU2706
	.loc 1 5645 42 view .LVU2707
	.loc 1 5645 4 view .LVU2708
	.loc 1 5645 42 view .LVU2709
	.loc 1 5645 13 view .LVU2710
	.loc 1 5645 13 view .LVU2711
	.loc 1 5645 61 view .LVU2712
	.loc 1 5645 92 view .LVU2713
	.loc 1 5645 126 view .LVU2714
.LBB2106:
	.loc 1 5645 131 view .LVU2715
	.loc 1 5645 373 view .LVU2716
	.loc 1 5645 1394 view .LVU2717
	.loc 1 5645 1459 view .LVU2718
.LBE2106:
.LBE2105:
.LBE2112:
.LBE2115:
.LBE2119:
	.loc 1 5645 1483 view .LVU2719
	.loc 1 5645 1529 view .LVU2720
	.loc 1 5645 1540 view .LVU2721
	.loc 1 5645 1644 view .LVU2722
.LBB2120:
.LBB2116:
.LBB2113:
.LBB2109:
.LBB2107:
	.loc 1 5645 1660 view .LVU2723
	.loc 1 5645 1700 view .LVU2724
	.loc 1 5645 1725 view .LVU2725
	.loc 1 5645 2998 view .LVU2726
	.loc 1 5645 3036 view .LVU2727
	.loc 1 5645 3041 view .LVU2728
	.loc 1 5645 3587 view .LVU2729
	.loc 1 5645 0 is_stmt 0 view .LVU2730
	ldr	r2, .L175+16
.LBE2107:
.LBB2108:
	.loc 1 5645 176 view .LVU2731
	movs	r3, #2
	strd	r3, r2, [sp, #16]
	.loc 1 5645 176 view .LVU2732
.LBE2108:
.LBE2109:
	.loc 1 5645 26 is_stmt 1 view .LVU2733
	.loc 1 5645 7 view .LVU2734
	.loc 1 5645 147 view .LVU2735
	.loc 1 5645 149 view .LVU2736
.LVL515:
.LBB2110:
.LBI2110:
	.loc 5 26 20 view .LVU2737
.LBB2111:
	.loc 5 38 2 view .LVU2738
	.loc 5 38 7 view .LVU2739
	.loc 5 38 5 view .LVU2740
	.loc 5 39 2 view .LVU2741
	movs	r3, #0
	add	r2, sp, #16
.LVL516:
	.loc 5 39 2 is_stmt 0 view .LVU2742
	mov	r1, #4160
	ldr	r0, .L175+4
	bl	z_impl_z_log_msg_static_create
.LVL517:
	.loc 5 39 2 view .LVU2743
.LBE2111:
.LBE2110:
.LBE2113:
.LBE2116:
.LBE2120:
	.loc 1 5646 3 view .LVU2744
	mov	r0, r4
.LBB2121:
.LBB2117:
	.loc 1 5645 107 is_stmt 1 view .LVU2745
	.loc 1 5645 5 view .LVU2746
.LVL518:
	.loc 1 5645 42 view .LVU2747
.LBE2117:
	.loc 1 5645 6 view .LVU2748
	.loc 1 5645 278 view .LVU2749
	.loc 1 5645 5 view .LVU2750
	.loc 1 5645 18 view .LVU2751
.LBE2121:
	.loc 1 5645 6 view .LVU2752
	.loc 1 5646 3 view .LVU2753
	bl	ll_tx_mem_release
.LVL519:
	.loc 1 5647 3 view .LVU2754
	.loc 1 5647 10 is_stmt 0 view .LVU2755
	b	.L157
.LVL520:
.L173:
	.loc 1 5616 3 is_stmt 1 view .LVU2756
.LBB2122:
	.loc 1 5616 8 view .LVU2757
	.loc 1 5616 57 view .LVU2758
	.loc 1 5616 14 view .LVU2759
	.loc 1 5616 2 view .LVU2760
	.loc 1 5616 41 view .LVU2761
	.loc 1 5616 176 view .LVU2762
	.loc 1 5616 187 view .LVU2763
	.loc 1 5616 275 view .LVU2764
	.loc 1 5616 3 view .LVU2765
	.loc 1 5616 3 view .LVU2766
.LBB2123:
	.loc 1 5616 8 view .LVU2767
	.loc 1 5616 2 view .LVU2768
.LBE2123:
.LBE2122:
	.loc 1 5616 3 view .LVU2769
	.loc 1 5616 12 view .LVU2770
	.loc 1 5616 107 view .LVU2771
	.loc 1 5616 3 view .LVU2772
.LBB2137:
.LBB2134:
	.loc 1 5616 12 view .LVU2773
	.loc 1 5616 102 view .LVU2774
	.loc 1 5616 104 view .LVU2775
.LBB2124:
	.loc 1 5616 109 view .LVU2776
	.loc 1 5616 120 view .LVU2777
	.loc 1 5616 209 view .LVU2778
	.loc 1 5616 26 view .LVU2779
.LBE2124:
.LBE2134:
.LBE2137:
	.loc 1 5616 3 view .LVU2780
	.loc 1 5616 368 view .LVU2781
	.loc 1 5616 75 view .LVU2782
	.loc 1 5616 2 view .LVU2783
	.loc 1 5616 2 view .LVU2784
	.loc 1 5616 2 view .LVU2785
	.loc 1 5616 38 view .LVU2786
	.loc 1 5616 4 view .LVU2787
	.loc 1 5616 30 view .LVU2788
	.loc 1 5616 56 view .LVU2789
	.loc 1 5616 79 view .LVU2790
	.loc 1 5616 141 view .LVU2791
	.loc 1 5616 198 view .LVU2792
	.loc 1 5616 263 view .LVU2793
	.loc 1 5616 288 view .LVU2794
	.loc 1 5616 289 view .LVU2795
	.loc 1 5616 291 view .LVU2796
	.loc 1 5616 321 view .LVU2797
	.loc 1 5616 351 view .LVU2798
	.loc 1 5616 383 view .LVU2799
	.loc 1 5616 415 view .LVU2800
	.loc 1 5616 447 view .LVU2801
	.loc 1 5616 644 view .LVU2802
	.loc 1 5616 668 view .LVU2803
	.loc 1 5616 669 view .LVU2804
	.loc 1 5616 671 view .LVU2805
	.loc 1 5616 700 view .LVU2806
	.loc 1 5616 729 view .LVU2807
	.loc 1 5616 760 view .LVU2808
	.loc 1 5616 791 view .LVU2809
	.loc 1 5616 822 view .LVU2810
	.loc 1 5616 1029 view .LVU2811
	.loc 1 5616 4 view .LVU2812
	.loc 1 5616 22 view .LVU2813
	.loc 1 5616 42 view .LVU2814
	.loc 1 5616 4 view .LVU2815
	.loc 1 5616 42 view .LVU2816
	.loc 1 5616 13 view .LVU2817
	.loc 1 5616 13 view .LVU2818
	.loc 1 5616 61 view .LVU2819
	.loc 1 5616 92 view .LVU2820
	.loc 1 5616 126 view .LVU2821
	.loc 1 5616 131 view .LVU2822
	.loc 1 5616 373 view .LVU2823
	.loc 1 5616 1394 view .LVU2824
	.loc 1 5616 1459 view .LVU2825
	.loc 1 5616 1483 view .LVU2826
	.loc 1 5616 1529 view .LVU2827
	.loc 1 5616 1540 view .LVU2828
	.loc 1 5616 1644 view .LVU2829
	.loc 1 5616 1660 view .LVU2830
	.loc 1 5616 1700 view .LVU2831
	.loc 1 5616 1725 view .LVU2832
	.loc 1 5616 2998 view .LVU2833
	.loc 1 5616 3039 view .LVU2834
	.loc 1 5616 7 view .LVU2835
	.loc 1 5616 30 view .LVU2836
	.loc 1 5616 129 view .LVU2837
	.loc 1 5616 5 view .LVU2838
	.loc 1 5616 28 view .LVU2839
	.loc 1 5616 52 view .LVU2840
	.loc 1 5616 80 view .LVU2841
	.loc 1 5616 256 view .LVU2842
	.loc 1 5616 16 view .LVU2843
.LBB2138:
.LBB2135:
.LBB2132:
	.loc 1 5616 29 view .LVU2844
	.loc 1 5616 3 view .LVU2845
	.loc 1 5616 3 view .LVU2846
	.loc 1 5616 70 view .LVU2847
	.loc 1 5616 74 view .LVU2848
	.loc 1 5616 484 view .LVU2849
	.loc 1 5616 5 view .LVU2850
	.loc 1 5616 7 view .LVU2851
	.loc 1 5616 12 view .LVU2852
	.loc 1 5616 10 view .LVU2853
	.loc 1 5616 5 view .LVU2854
	.loc 1 5616 23 view .LVU2855
.LBB2125:
	.loc 1 5616 3 view .LVU2856
	.loc 1 5616 368 view .LVU2857
	.loc 1 5616 75 view .LVU2858
.LVL521:
	.loc 1 5616 2 view .LVU2859
	.loc 1 5616 2 view .LVU2860
	.loc 1 5616 2 view .LVU2861
	.loc 1 5616 38 view .LVU2862
	.loc 1 5616 67 view .LVU2863
	.loc 1 5616 93 view .LVU2864
	.loc 1 5616 119 view .LVU2865
	.loc 1 5616 142 view .LVU2866
	.loc 1 5616 204 view .LVU2867
	.loc 1 5616 261 view .LVU2868
	.loc 1 5616 326 view .LVU2869
	.loc 1 5616 351 view .LVU2870
	.loc 1 5616 352 view .LVU2871
	.loc 1 5616 354 view .LVU2872
	.loc 1 5616 384 view .LVU2873
	.loc 1 5616 414 view .LVU2874
	.loc 1 5616 446 view .LVU2875
	.loc 1 5616 478 view .LVU2876
	.loc 1 5616 510 view .LVU2877
	.loc 1 5616 707 view .LVU2878
	.loc 1 5616 731 view .LVU2879
	.loc 1 5616 732 view .LVU2880
	.loc 1 5616 734 view .LVU2881
	.loc 1 5616 763 view .LVU2882
	.loc 1 5616 792 view .LVU2883
	.loc 1 5616 823 view .LVU2884
	.loc 1 5616 854 view .LVU2885
	.loc 1 5616 885 view .LVU2886
	.loc 1 5616 1092 view .LVU2887
	.loc 1 5616 4 view .LVU2888
	.loc 1 5616 22 view .LVU2889
	.loc 1 5616 42 view .LVU2890
	.loc 1 5616 4 view .LVU2891
	.loc 1 5616 42 view .LVU2892
	.loc 1 5616 13 view .LVU2893
	.loc 1 5616 13 view .LVU2894
	.loc 1 5616 61 view .LVU2895
	.loc 1 5616 92 view .LVU2896
	.loc 1 5616 126 view .LVU2897
.LBB2126:
	.loc 1 5616 131 view .LVU2898
	.loc 1 5616 373 view .LVU2899
	.loc 1 5616 1394 view .LVU2900
	.loc 1 5616 1459 view .LVU2901
.LBE2126:
.LBE2125:
.LBE2132:
.LBE2135:
.LBE2138:
	.loc 1 5616 1483 view .LVU2902
	.loc 1 5616 1529 view .LVU2903
	.loc 1 5616 1540 view .LVU2904
	.loc 1 5616 1644 view .LVU2905
.LBB2139:
.LBB2136:
.LBB2133:
.LBB2129:
.LBB2127:
	.loc 1 5616 1660 view .LVU2906
	.loc 1 5616 1700 view .LVU2907
	.loc 1 5616 1725 view .LVU2908
	.loc 1 5616 2998 view .LVU2909
	.loc 1 5616 3036 view .LVU2910
	.loc 1 5616 3041 view .LVU2911
	.loc 1 5616 3587 view .LVU2912
	.loc 1 5616 0 is_stmt 0 view .LVU2913
	ldr	r3, .L175+20
.LBE2127:
.LBB2128:
	.loc 1 5616 176 view .LVU2914
	movs	r5, #2
.LVL522:
	.loc 1 5616 176 view .LVU2915
	strd	r5, r3, [sp, #16]
	.loc 1 5616 176 view .LVU2916
.LBE2128:
.LBE2129:
	.loc 1 5616 26 is_stmt 1 view .LVU2917
	.loc 1 5616 7 view .LVU2918
	.loc 1 5616 147 view .LVU2919
	.loc 1 5616 149 view .LVU2920
.LVL523:
.LBB2130:
.LBI2130:
	.loc 5 26 20 view .LVU2921
.LBB2131:
	.loc 5 38 2 view .LVU2922
	.loc 5 38 7 view .LVU2923
	.loc 5 38 5 view .LVU2924
	.loc 5 39 2 view .LVU2925
	mov	r1, #4160
	mov	r3, r0
	add	r2, sp, #16
.LVL524:
	.loc 5 39 2 is_stmt 0 view .LVU2926
	ldr	r0, .L175+4
.LVL525:
	.loc 5 39 2 view .LVU2927
	bl	z_impl_z_log_msg_static_create
.LVL526:
	.loc 5 39 2 view .LVU2928
.LBE2131:
.LBE2130:
.LBE2133:
	.loc 1 5616 107 is_stmt 1 view .LVU2929
	.loc 1 5616 5 view .LVU2930
.LVL527:
	.loc 1 5616 42 view .LVU2931
.LBE2136:
	.loc 1 5616 6 view .LVU2932
	.loc 1 5616 278 view .LVU2933
	.loc 1 5616 5 view .LVU2934
	.loc 1 5616 18 view .LVU2935
.LBE2139:
	.loc 1 5616 6 view .LVU2936
	.loc 1 5617 3 view .LVU2937
.LBB2140:
.LBI2140:
	.loc 1 5561 13 view .LVU2938
.LBB2141:
	.loc 1 5563 2 view .LVU2939
	.loc 1 5565 2 view .LVU2940
	.loc 1 5565 19 is_stmt 0 view .LVU2941
	ldr	r3, .L175+24
	ldr	r3, [r3]
	.loc 1 5565 5 view .LVU2942
	lsls	r3, r3, #6
	bpl	.L162
	.loc 1 5569 2 is_stmt 1 view .LVU2943
	.loc 1 5569 9 is_stmt 0 view .LVU2944
	mov	r2, #-1
	mov	r3, #-1
	movs	r0, #1
	bl	bt_buf_get_rx
.LVL528:
.LBB2142:
.LBB2143:
.LBB2144:
.LBB2145:
	.loc 2 1495 9 view .LVU2945
	mov	r1, r5
.LBE2145:
.LBE2144:
.LBE2143:
.LBE2142:
	.loc 1 5569 7 view .LVU2946
	str	r0, [r8]
	.loc 1 5570 2 is_stmt 1 view .LVU2947
.LVL529:
.LBB2149:
.LBI2142:
	.loc 1 298 13 view .LVU2948
.LBB2148:
	.loc 1 300 2 view .LVU2949
	.loc 1 302 2 view .LVU2950
.LBB2147:
.LBI2144:
	.loc 2 1493 21 view .LVU2951
.LBB2146:
	.loc 2 1495 2 view .LVU2952
	.loc 2 1495 9 is_stmt 0 view .LVU2953
	adds	r0, r0, #12
.LVL530:
	.loc 2 1495 9 view .LVU2954
	bl	net_buf_simple_add
.LVL531:
	.loc 2 1495 9 view .LVU2955
.LBE2146:
.LBE2147:
	.loc 1 303 2 is_stmt 1 view .LVU2956
	.loc 1 304 2 view .LVU2957
	.loc 1 303 11 is_stmt 0 view .LVU2958
	mov	r3, #282
	strh	r3, [r0]	@ unaligned
.LVL532:
	.loc 1 303 11 view .LVU2959
.LBE2148:
.LBE2149:
	.loc 1 5571 2 is_stmt 1 view .LVU2960
.LBB2150:
.LBI2150:
	.loc 2 1493 21 view .LVU2961
.LBB2151:
	.loc 2 1495 2 view .LVU2962
	.loc 2 1495 9 is_stmt 0 view .LVU2963
	ldr	r0, [r8]
.LVL533:
	.loc 2 1495 9 view .LVU2964
	movs	r1, #1
	adds	r0, r0, #12
	bl	net_buf_simple_add
.LVL534:
	.loc 2 1495 9 view .LVU2965
.LBE2151:
.LBE2150:
	.loc 1 5573 2 is_stmt 1 view .LVU2966
	.loc 1 5573 16 is_stmt 0 view .LVU2967
	movs	r3, #1
	strb	r3, [r0]
.LVL535:
.L162:
	.loc 1 5573 16 view .LVU2968
.LBE2141:
.LBE2140:
	.loc 1 5618 10 view .LVU2969
	mvn	r0, #104
	b	.L155
.L176:
	.align	2
.L175:
	.word	.LC3
	.word	log_const_bt_ctlr_hci
	.word	.LC5
	.word	.LC4
	.word	.LC7
	.word	.LC6
	.word	event_mask
	.cfi_endproc
.LFE695:
	.size	hci_acl_handle, .-hci_acl_handle
	.section	.text.hci_disconn_complete_encode,"ax",%progbits
	.align	1
	.p2align 2,,3
	.global	hci_disconn_complete_encode
	.syntax unified
	.thumb
	.thumb_func
	.type	hci_disconn_complete_encode, %function
hci_disconn_complete_encode:
.LVL536:
.LFB697:
	.loc 1 8090 1 is_stmt 1 view -0
	.cfi_startproc
	@ args = 0, pretend = 0, frame = 0
	@ frame_needed = 0, uses_anonymous_args = 0
	.loc 1 8090 1 is_stmt 0 view .LVU2971
	push	{r3, r4, r5, r6, r7, lr}
	.cfi_def_cfa_offset 24
	.cfi_offset 3, -24
	.cfi_offset 4, -20
	.cfi_offset 5, -16
	.cfi_offset 6, -12
	.cfi_offset 7, -8
	.cfi_offset 14, -4
	.loc 1 8093 19 view .LVU2972
	ldr	r3, .L181
	ldr	r3, [r3]
	.loc 1 8091 2 is_stmt 1 view .LVU2973
	.loc 1 8093 2 view .LVU2974
	.loc 1 8093 5 is_stmt 0 view .LVU2975
	lsls	r3, r3, #27
	bmi	.L180
	.loc 1 8103 1 view .LVU2976
	pop	{r3, r4, r5, r6, r7, pc}
.L180:
.LBB2160:
.LBB2161:
.LBB2162:
.LBB2163:
.LBB2164:
.LBB2165:
	.loc 2 1495 9 view .LVU2977
	add	r4, r2, #12
	mov	r6, r0
.LVL537:
	.loc 2 1495 9 view .LVU2978
	mov	r5, r1
.LVL538:
	.loc 2 1495 9 view .LVU2979
.LBE2165:
.LBE2164:
.LBE2163:
.LBE2162:
.LBE2161:
.LBI2160:
	.loc 1 8088 6 is_stmt 1 view .LVU2980
.LBB2172:
	.loc 1 8097 2 view .LVU2981
.LBB2169:
.LBI2162:
	.loc 1 298 13 view .LVU2982
.LBB2168:
	.loc 1 300 2 view .LVU2983
	.loc 1 302 2 view .LVU2984
.LBB2167:
.LBI2164:
	.loc 2 1493 21 view .LVU2985
.LBB2166:
	.loc 2 1495 2 view .LVU2986
	.loc 2 1495 9 is_stmt 0 view .LVU2987
	mov	r0, r4
.LVL539:
	.loc 2 1495 9 view .LVU2988
	movs	r1, #2
.LVL540:
	.loc 2 1495 9 view .LVU2989
	bl	net_buf_simple_add
.LVL541:
	.loc 2 1495 9 view .LVU2990
	mov	r3, r0
.LVL542:
	.loc 2 1495 9 view .LVU2991
.LBE2166:
.LBE2167:
	.loc 1 303 2 is_stmt 1 view .LVU2992
	.loc 1 304 2 view .LVU2993
	.loc 1 303 11 is_stmt 0 view .LVU2994
	movw	r2, #1029
	strh	r2, [r3]	@ unaligned
.LVL543:
	.loc 1 303 11 view .LVU2995
.LBE2168:
.LBE2169:
	.loc 1 8098 2 is_stmt 1 view .LVU2996
.LBB2170:
.LBI2170:
	.loc 2 1493 21 view .LVU2997
.LBB2171:
	.loc 2 1495 2 view .LVU2998
	.loc 2 1495 9 is_stmt 0 view .LVU2999
	mov	r0, r4
.LVL544:
	.loc 2 1495 9 view .LVU3000
	movs	r1, #4
	bl	net_buf_simple_add
.LVL545:
	.loc 2 1495 9 view .LVU3001
.LBE2171:
.LBE2170:
	.loc 1 8100 2 is_stmt 1 view .LVU3002
	movs	r7, #0
	.loc 1 8100 13 is_stmt 0 view .LVU3003
	strb	r7, [r0]
	.loc 1 8101 2 is_stmt 1 view .LVU3004
	.loc 1 8101 13 is_stmt 0 view .LVU3005
	strh	r5, [r0, #1]	@ unaligned
	.loc 1 8102 2 is_stmt 1 view .LVU3006
	.loc 1 8102 15 is_stmt 0 view .LVU3007
	ldrb	r2, [r6]	@ zero_extendqisi2
	.loc 1 8102 13 view .LVU3008
	strb	r2, [r0, #3]
.LVL546:
	.loc 1 8102 13 view .LVU3009
.LBE2172:
.LBE2160:
	.loc 1 8103 1 view .LVU3010
	pop	{r3, r4, r5, r6, r7, pc}
.LVL547:
.L182:
	.loc 1 8103 1 view .LVU3011
	.align	2
.L181:
	.word	event_mask
	.cfi_endproc
.LFE697:
	.size	hci_disconn_complete_encode, .-hci_disconn_complete_encode
	.section	.text.hci_disconn_complete_process,"ax",%progbits
	.align	1
	.p2align 2,,3
	.global	hci_disconn_complete_process
	.syntax unified
	.thumb
	.thumb_func
	.type	hci_disconn_complete_process, %function
hci_disconn_complete_process:
.LVL548:
.LFB698:
	.loc 1 8106 1 is_stmt 1 view -0
	.cfi_startproc
	@ args = 0, pretend = 0, frame = 0
	@ frame_needed = 0, uses_anonymous_args = 0
	@ link register save eliminated.
	.loc 1 8118 2 view .LVU3013
	.loc 1 8118 12 is_stmt 0 view .LVU3014
	ldr	r2, .L184
	ldr	r3, [r2]
	subs	r3, r3, #1
	str	r3, [r2]
	.loc 1 8119 1 view .LVU3015
	bx	lr
.L185:
	.align	2
.L184:
	.word	conn_count
	.cfi_endproc
.LFE698:
	.size	hci_disconn_complete_process, .-hci_disconn_complete_process
	.section	.rodata.hci_acl_encode.str1.4,"aMS",%progbits,1
	.align	2
.LC8:
	.ascii	"WEST_TOPDIR/zephyr/subsys/bluetooth/controller/hci/"
	.ascii	"hci.c\000"
	.align	2
.LC9:
	.ascii	"0\000"
	.align	2
.LC10:
	.ascii	"ASSERTION FAIL [%s] @ %s:%d\012\000"
	.section	.text.hci_acl_encode,"ax",%progbits
	.align	1
	.p2align 2,,3
	.global	hci_acl_encode
	.syntax unified
	.thumb
	.thumb_func
	.type	hci_acl_encode, %function
hci_acl_encode:
.LVL549:
.LFB713:
	.loc 1 8719 1 is_stmt 1 view -0
	.cfi_startproc
	@ args = 0, pretend = 0, frame = 0
	@ frame_needed = 0, uses_anonymous_args = 0
	.loc 1 8720 2 view .LVU3017
	.loc 1 8721 2 view .LVU3018
	.loc 1 8722 2 view .LVU3019
	.loc 1 8723 2 view .LVU3020
	.loc 1 8724 2 view .LVU3021
	.loc 1 8726 2 view .LVU3022
	.loc 1 8719 1 is_stmt 0 view .LVU3023
	push	{r4, r5, r6, lr}
	.cfi_def_cfa_offset 16
	.cfi_offset 4, -16
	.cfi_offset 5, -12
	.cfi_offset 6, -8
	.cfi_offset 14, -4
	.loc 1 8728 18 view .LVU3024
	ldrb	r3, [r0, #28]	@ zero_extendqisi2
	.loc 1 8726 9 view .LVU3025
	ldrh	r6, [r0, #6]
.LVL550:
	.loc 1 8728 2 is_stmt 1 view .LVU3026
	and	r3, r3, #3
	subs	r3, r3, #1
	cmp	r3, #1
	bls	.L191
	.loc 1 8756 3 discriminator 1 view .LVU3027
	.loc 1 8756 8 discriminator 1 view .LVU3028
	.loc 1 8756 20 discriminator 1 view .LVU3029
	ldr	r2, .L192
	ldr	r1, .L192+4
.LVL551:
	.loc 1 8756 20 is_stmt 0 discriminator 1 view .LVU3030
	ldr	r0, .L192+8
.LVL552:
	.loc 1 8756 20 discriminator 1 view .LVU3031
	movw	r3, #8756
	bl	assert_print
.LVL553:
	.loc 1 8756 138 is_stmt 1 discriminator 1 view .LVU3032
	.loc 1 8756 143 discriminator 1 view .LVU3033
	.syntax unified
@ 8756 "/home/g/mise-work/zmk-firmware/zmk/zephyr/subsys/bluetooth/controller/hci/hci.c" 1
	eors.n r0, r0
	msr BASEPRI, r0
	mov r0, #3
	svc #2
	
@ 0 "" 2
	.loc 1 8756 141 discriminator 1 view .LVU3034
	.loc 1 8756 6 discriminator 1 view .LVU3035
	.loc 1 8757 3 discriminator 1 view .LVU3036
	.loc 1 8759 1 is_stmt 0 discriminator 1 view .LVU3037
	.thumb
	.syntax unified
	pop	{r4, r5, r6, pc}
.LVL554:
.L191:
	.loc 1 8731 3 is_stmt 1 view .LVU3038
.LBB2173:
.LBI2173:
	.loc 2 1493 21 view .LVU3039
.LBB2174:
	.loc 2 1495 2 view .LVU3040
	mov	r4, r0
	.loc 2 1495 9 is_stmt 0 view .LVU3041
	add	r5, r1, #12
	mov	r0, r5
.LVL555:
	.loc 2 1495 9 view .LVU3042
	movs	r1, #4
.LVL556:
	.loc 2 1495 9 view .LVU3043
	bl	net_buf_simple_add
.LVL557:
	.loc 2 1495 9 view .LVU3044
.LBE2174:
.LBE2173:
	.loc 1 8732 23 view .LVU3045
	ldrb	r3, [r4, #28]	@ zero_extendqisi2
.LVL558:
	.loc 1 8732 3 is_stmt 1 view .LVU3046
	.loc 1 8733 4 view .LVU3047
	.loc 1 8732 6 is_stmt 0 view .LVU3048
	and	r3, r3, #3
	cmp	r3, #2
	.loc 1 8733 17 view .LVU3049
	ite	eq
	orreq	r6, r6, #8192
.LVL559:
	.loc 1 8735 4 is_stmt 1 view .LVU3050
	.loc 1 8735 17 is_stmt 0 view .LVU3051
	orrne	r6, r6, #4096
.LVL560:
	.loc 1 8737 3 is_stmt 1 view .LVU3052
	.loc 1 8737 15 is_stmt 0 view .LVU3053
	strh	r6, [r0]	@ unaligned
	.loc 1 8738 3 is_stmt 1 view .LVU3054
	.loc 1 8738 23 is_stmt 0 view .LVU3055
	ldrb	r3, [r4, #29]	@ zero_extendqisi2
	.loc 1 8738 12 view .LVU3056
	strh	r3, [r0, #2]	@ unaligned
	.loc 1 8739 3 is_stmt 1 view .LVU3057
.LVL561:
.LBB2175:
.LBI2175:
	.loc 2 1493 21 view .LVU3058
.LBB2176:
	.loc 2 1495 2 view .LVU3059
	.loc 2 1495 9 is_stmt 0 view .LVU3060
	ldrb	r1, [r4, #29]	@ zero_extendqisi2
.LVL562:
	.loc 2 1495 9 view .LVU3061
	mov	r0, r5
.LVL563:
	.loc 2 1495 9 view .LVU3062
	bl	net_buf_simple_add
.LVL564:
	.loc 2 1495 9 view .LVU3063
.LBE2176:
.LBE2175:
	.loc 1 8740 2 is_stmt 1 view .LVU3064
.LBB2177:
.LBI2177:
	.loc 3 83 216 view .LVU3065
.LBB2178:
	.loc 3 83 292 view .LVU3066
	.loc 3 83 299 is_stmt 0 view .LVU3067
	ldrb	r2, [r4, #29]	@ zero_extendqisi2
.LVL565:
	.loc 3 83 299 view .LVU3068
	add	r1, r4, #31
.LBE2178:
.LBE2177:
	.loc 1 8759 1 view .LVU3069
	pop	{r4, r5, r6, lr}
	.cfi_restore 14
	.cfi_restore 6
	.cfi_restore 5
	.cfi_restore 4
	.cfi_def_cfa_offset 0
.LVL566:
.LBB2180:
.LBB2179:
	.loc 3 83 299 view .LVU3070
	b	memcpy
.LVL567:
.L193:
	.loc 3 83 299 view .LVU3071
	.align	2
.L192:
	.word	.LC8
	.word	.LC9
	.word	.LC10
.LBE2179:
.LBE2180:
	.cfi_endproc
.LFE713:
	.size	hci_acl_encode, .-hci_acl_encode
	.section	.rodata.hci_evt_encode.str1.4,"aMS",%progbits,1
	.align	2
.LC11:
	.ascii	"((((uintptr_t)node) % __alignof(struct node_rx_cc))"
	.ascii	" == 0)\000"
	.align	2
.LC12:
	.ascii	"((((uintptr_t)node) % __alignof(struct node_rx_cu))"
	.ascii	" == 0)\000"
	.align	2
.LC13:
	.ascii	"handle: 0x%04x, status: %x, tx: %x, rx: %x.\000"
	.align	2
.LC14:
	.ascii	"type: 0x%02x\000"
	.align	2
.LC15:
	.ascii	"reject opcode: 0x%02x\000"
	.section	.text.hci_evt_encode,"ax",%progbits
	.align	1
	.p2align 2,,3
	.global	hci_evt_encode
	.syntax unified
	.thumb
	.thumb_func
	.type	hci_evt_encode, %function
hci_evt_encode:
.LVL568:
.LFB714:
	.loc 1 8763 1 is_stmt 1 view -0
	.cfi_startproc
	@ args = 0, pretend = 0, frame = 0
	@ frame_needed = 1, uses_anonymous_args = 0
	.loc 1 8763 1 is_stmt 0 view .LVU3073
	push	{r4, r5, r6, r7, r8, r9, lr}
	.cfi_def_cfa_offset 28
	.cfi_offset 4, -28
	.cfi_offset 5, -24
	.cfi_offset 6, -20
	.cfi_offset 7, -16
	.cfi_offset 8, -12
	.cfi_offset 9, -8
	.cfi_offset 14, -4
	sub	sp, sp, #20
	.cfi_def_cfa_offset 48
	.loc 1 8766 18 view .LVU3074
	ldrb	ip, [r0, #4]	@ zero_extendqisi2
	ldrh	r6, [r0, #6]
	.loc 1 8766 5 view .LVU3075
	cmp	ip, #3
	.loc 1 8763 1 view .LVU3076
	add	r7, sp, #16
	.cfi_def_cfa 7, 32
	.loc 1 8763 1 view .LVU3077
	mov	r4, r0
	.loc 1 8764 2 is_stmt 1 view .LVU3078
	.loc 1 8763 1 is_stmt 0 view .LVU3079
	mov	r5, r1
	.loc 1 8764 19 view .LVU3080
	add	r8, r0, #28
.LVL569:
	.loc 1 8766 2 is_stmt 1 view .LVU3081
	.loc 1 8766 5 is_stmt 0 view .LVU3082
	beq	.L195
	.loc 1 8767 3 is_stmt 1 view .LVU3083
.LVL570:
.LBB2423:
.LBI2423:
	.loc 1 8278 13 view .LVU3084
.LBB2424:
	.loc 1 8281 2 view .LVU3085
	.loc 1 8283 2 view .LVU3086
	.loc 1 8285 2 view .LVU3087
	sub	ip, ip, #23
	cmp	ip, #6
	bhi	.L196
	tbh	[pc, ip, lsl #1]
.L198:
	.2byte	(.L204-.L198)/2
	.2byte	(.L203-.L198)/2
	.2byte	(.L202-.L198)/2
	.2byte	(.L201-.L198)/2
	.2byte	(.L200-.L198)/2
	.2byte	(.L199-.L198)/2
	.2byte	(.L197-.L198)/2
.LVL571:
	.p2align 1
.L195:
	.loc 1 8285 2 is_stmt 0 view .LVU3088
.LBE2424:
.LBE2423:
	.loc 1 8768 9 is_stmt 1 view .LVU3089
	.loc 1 8769 3 view .LVU3090
.LBB2608:
.LBI2608:
	.loc 1 8650 13 view .LVU3091
.LBB2609:
	.loc 1 8653 2 view .LVU3092
	.loc 1 8655 2 view .LVU3093
	ldrb	r3, [r0, #31]	@ zero_extendqisi2
	subs	r3, r3, #3
	cmp	r3, #18
	bhi	.L220
	tbh	[pc, r3, lsl #1]
.L222:
	.2byte	(.L229-.L222)/2
	.2byte	(.L220-.L222)/2
	.2byte	(.L220-.L222)/2
	.2byte	(.L228-.L222)/2
	.2byte	(.L227-.L222)/2
	.2byte	(.L220-.L222)/2
	.2byte	(.L226-.L222)/2
	.2byte	(.L220-.L222)/2
	.2byte	(.L220-.L222)/2
	.2byte	(.L220-.L222)/2
	.2byte	(.L225-.L222)/2
	.2byte	(.L220-.L222)/2
	.2byte	(.L224-.L222)/2
	.2byte	(.L220-.L222)/2
	.2byte	(.L223-.L222)/2
	.2byte	(.L220-.L222)/2
	.2byte	(.L220-.L222)/2
	.2byte	(.L221-.L222)/2
	.2byte	(.L221-.L222)/2
.LVL572:
	.p2align 1
.L204:
	.loc 1 8655 2 is_stmt 0 view .LVU3094
.LBE2609:
.LBE2608:
.LBB2716:
.LBB2602:
	.loc 1 8369 3 is_stmt 1 view .LVU3095
.LBB2425:
.LBI2425:
	.loc 1 7990 13 view .LVU3096
.LBB2426:
	.loc 1 7993 2 view .LVU3097
	.loc 1 7994 2 view .LVU3098
	.loc 1 7995 2 view .LVU3099
	.loc 1 7996 2 view .LVU3100
	.loc 1 8001 2 view .LVU3101
	.loc 1 8002 2 view .LVU3102
	.loc 1 8002 7 view .LVU3103
	.loc 1 8002 10 is_stmt 0 view .LVU3104
	tst	r8, #1
	bne	.L244
.LVL573:
.L205:
	.loc 1 8002 252 is_stmt 1 view .LVU3105
	.loc 1 8002 5 view .LVU3106
	.loc 1 8004 2 view .LVU3107
	.loc 1 8005 2 view .LVU3108
	.loc 1 8005 9 is_stmt 0 view .LVU3109
	ldrb	r8, [r4, #28]	@ zero_extendqisi2
.LVL574:
	.loc 1 8008 2 is_stmt 1 view .LVU3110
	.loc 1 8008 5 is_stmt 0 view .LVU3111
	cmp	r8, #0
	beq	.L245
.L206:
	.loc 1 8016 2 is_stmt 1 view .LVU3112
	.loc 1 8016 19 is_stmt 0 view .LVU3113
	ldr	r3, .L250
	ldr	r3, [r3, #4]
	.loc 1 8016 5 view .LVU3114
	lsls	r0, r3, #2
	bpl	.L194
	.loc 1 8017 23 view .LVU3115
	ldr	r3, .L250+4
	ldr	r3, [r3]
	.loc 1 8017 40 view .LVU3116
	movw	r2, #513
	tst	r3, r2
	.loc 1 8019 23 view .LVU3117
	and	r9, r3, #512
	.loc 1 8017 40 view .LVU3118
	beq	.L194
	.loc 1 8026 2 is_stmt 1 view .LVU3119
.LBB2427:
.LBB2428:
.LBB2429:
.LBB2430:
.LBB2431:
.LBB2432:
.LBB2433:
	.loc 2 1495 9 is_stmt 0 view .LVU3120
	adds	r5, r5, #12
.LVL575:
	.loc 2 1495 9 view .LVU3121
.LBE2433:
.LBE2432:
.LBE2431:
.LBE2430:
.LBE2429:
.LBE2428:
.LBE2427:
	.loc 1 8026 5 view .LVU3122
	cmp	r8, #0
	bne	.L210
	.loc 1 8027 3 is_stmt 1 view .LVU3123
	.loc 1 8027 13 is_stmt 0 view .LVU3124
	ldr	r2, .L250+8
	ldr	r3, [r2]
	adds	r3, r3, #1
	str	r3, [r2]
	.loc 1 8031 2 is_stmt 1 view .LVU3125
	.loc 1 8031 5 is_stmt 0 view .LVU3126
	cmp	r9, #0
	beq	.L246
.LBB2462:
	.loc 1 8032 3 is_stmt 1 view .LVU3127
	.loc 1 8034 3 view .LVU3128
.LVL576:
.LBB2452:
.LBI2428:
	.loc 1 331 14 view .LVU3129
.LBB2450:
	.loc 1 333 2 view .LVU3130
	.loc 1 335 2 view .LVU3131
.LBB2440:
.LBI2430:
	.loc 1 298 13 view .LVU3132
.LBB2438:
	.loc 1 300 2 view .LVU3133
	.loc 1 302 2 view .LVU3134
.LBB2436:
.LBI2432:
	.loc 2 1493 21 view .LVU3135
.LBB2434:
	.loc 2 1495 2 view .LVU3136
	.loc 2 1495 9 is_stmt 0 view .LVU3137
	movs	r1, #2
	mov	r0, r5
	bl	net_buf_simple_add
.LVL577:
	.loc 2 1495 9 view .LVU3138
.LBE2434:
.LBE2436:
	.loc 1 303 2 is_stmt 1 view .LVU3139
	.loc 1 304 2 view .LVU3140
	.loc 1 303 11 is_stmt 0 view .LVU3141
	movw	r3, #7998
	strh	r3, [r0]	@ unaligned
.LVL578:
	.loc 1 303 11 view .LVU3142
.LBE2438:
.LBE2440:
	.loc 1 336 2 is_stmt 1 view .LVU3143
.LBB2441:
.LBI2441:
	.loc 2 1493 21 view .LVU3144
.LBB2442:
	.loc 2 1495 2 view .LVU3145
	.loc 2 1495 9 is_stmt 0 view .LVU3146
	movs	r1, #1
	mov	r0, r5
.LVL579:
	.loc 2 1495 9 view .LVU3147
	bl	net_buf_simple_add
.LVL580:
	.loc 2 1495 9 view .LVU3148
.LBE2442:
.LBE2441:
	.loc 1 337 2 is_stmt 1 view .LVU3149
	.loc 1 337 15 is_stmt 0 view .LVU3150
	movs	r3, #10
	strb	r3, [r0]
	.loc 1 339 2 is_stmt 1 view .LVU3151
.LVL581:
.LBB2444:
.LBI2444:
	.loc 2 1493 21 view .LVU3152
.LBB2445:
	.loc 2 1495 2 view .LVU3153
	.loc 2 1495 9 is_stmt 0 view .LVU3154
	movs	r1, #30
	mov	r0, r5
.LVL582:
	.loc 2 1495 9 view .LVU3155
	bl	net_buf_simple_add
.LVL583:
	.loc 2 1495 9 view .LVU3156
.LBE2445:
.LBE2444:
.LBE2450:
.LBE2452:
	.loc 1 8037 3 is_stmt 1 view .LVU3157
	.loc 1 8043 3 view .LVU3158
	.loc 1 8043 17 is_stmt 0 view .LVU3159
	strb	r8, [r0]
	.loc 1 8044 3 is_stmt 1 view .LVU3160
	.loc 1 8044 17 is_stmt 0 view .LVU3161
	strh	r6, [r0, #1]	@ unaligned
	.loc 1 8045 3 is_stmt 1 view .LVU3162
	.loc 1 8045 19 is_stmt 0 view .LVU3163
	ldrb	r3, [r4, #29]	@ zero_extendqisi2
	.loc 1 8045 15 view .LVU3164
	strb	r3, [r0, #3]
	.loc 1 8047 3 is_stmt 1 view .LVU3165
	.loc 1 8047 29 is_stmt 0 view .LVU3166
	ldrb	r3, [r4, #30]	@ zero_extendqisi2
	.loc 1 8047 25 view .LVU3167
	strb	r3, [r0, #4]
	.loc 1 8048 2 is_stmt 1 view .LVU3168
.LVL584:
.LBB2453:
.LBI2453:
	.loc 3 83 216 view .LVU3169
.LBB2454:
	.loc 3 83 292 view .LVU3170
	.loc 3 83 299 is_stmt 0 view .LVU3171
	ldr	r3, [r4, #31]	@ unaligned
	str	r3, [r0, #5]	@ unaligned
	ldrh	r3, [r4, #35]	@ unaligned
	strh	r3, [r0, #9]	@ unaligned
.LVL585:
	.loc 3 83 299 view .LVU3172
.LBE2454:
.LBE2453:
	.loc 1 8052 2 is_stmt 1 view .LVU3173
.LBB2455:
.LBI2455:
	.loc 3 83 216 view .LVU3174
.LBB2456:
	.loc 3 83 292 view .LVU3175
	.loc 3 83 299 is_stmt 0 view .LVU3176
	ldr	r3, [r4, #43]	@ unaligned
	str	r3, [r0, #11]	@ unaligned
	ldrh	r3, [r4, #47]	@ unaligned
	strh	r3, [r0, #15]	@ unaligned
.LVL586:
	.loc 3 83 299 view .LVU3177
.LBE2456:
.LBE2455:
	.loc 1 8054 2 is_stmt 1 view .LVU3178
.LBB2457:
.LBI2457:
	.loc 3 83 216 view .LVU3179
.LBB2458:
	.loc 3 83 292 view .LVU3180
	.loc 3 83 299 is_stmt 0 view .LVU3181
	ldr	r3, [r4, #37]	@ unaligned
	str	r3, [r0, #17]	@ unaligned
	ldrh	r3, [r4, #41]	@ unaligned
	strh	r3, [r0, #21]	@ unaligned
.LVL587:
	.loc 3 83 299 view .LVU3182
.LBE2458:
.LBE2457:
	.loc 1 8061 3 is_stmt 1 view .LVU3183
	.loc 1 8061 24 is_stmt 0 view .LVU3184
	ldrh	r3, [r4, #50]
	.loc 1 8061 19 view .LVU3185
	strh	r3, [r0, #23]	@ unaligned
	.loc 1 8062 3 is_stmt 1 view .LVU3186
	.loc 1 8062 23 is_stmt 0 view .LVU3187
	ldrh	r3, [r4, #52]
	.loc 1 8062 18 view .LVU3188
	strh	r3, [r0, #25]	@ unaligned
	.loc 1 8063 3 is_stmt 1 view .LVU3189
	.loc 1 8063 28 is_stmt 0 view .LVU3190
	ldrh	r3, [r4, #54]
	.loc 1 8063 23 view .LVU3191
	strh	r3, [r0, #27]	@ unaligned
	.loc 1 8064 3 is_stmt 1 view .LVU3192
	.loc 1 8064 29 is_stmt 0 view .LVU3193
	ldrb	r3, [r4, #56]	@ zero_extendqisi2
	.loc 1 8064 25 view .LVU3194
	strb	r3, [r0, #29]
	.loc 1 8065 3 is_stmt 1 view .LVU3195
	b	.L194
.LVL588:
.L203:
	.loc 1 8065 3 is_stmt 0 view .LVU3196
.LBE2462:
.LBE2426:
.LBE2425:
	.loc 1 8373 3 is_stmt 1 view .LVU3197
	mov	r2, r1
	mov	r0, r8
.LVL589:
	.loc 1 8373 3 is_stmt 0 view .LVU3198
	mov	r1, r6
.LVL590:
	.loc 1 8373 3 view .LVU3199
	bl	hci_disconn_complete_encode
.LVL591:
	.loc 1 8374 3 is_stmt 1 view .LVU3200
.L194:
	.loc 1 8374 3 is_stmt 0 view .LVU3201
.LBE2602:
.LBE2716:
	.loc 1 8771 1 view .LVU3202
	adds	r7, r7, #4
	.cfi_remember_state
	.cfi_def_cfa_offset 28
	mov	sp, r7
	.cfi_def_cfa_register 13
	@ sp needed
	pop	{r4, r5, r6, r7, r8, r9, pc}
.LVL592:
.L202:
	.cfi_restore_state
.LBB2717:
.LBB2603:
	.loc 1 8377 3 is_stmt 1 view .LVU3203
.LBB2491:
.LBI2491:
	.loc 1 8121 13 view .LVU3204
.LBB2492:
	.loc 1 8124 2 view .LVU3205
	.loc 1 8125 2 view .LVU3206
	.loc 1 8126 2 view .LVU3207
	.loc 1 8128 2 view .LVU3208
	.loc 1 8128 19 is_stmt 0 view .LVU3209
	ldr	r3, .L250
	ldr	r3, [r3, #4]
	.loc 1 8128 5 view .LVU3210
	lsls	r1, r3, #2
.LVL593:
	.loc 1 8128 5 view .LVU3211
	bpl	.L194
	.loc 1 8129 22 view .LVU3212
	ldr	r3, .L250+4
	ldr	r3, [r3]
	.loc 1 8128 37 view .LVU3213
	lsls	r2, r3, #29
	bpl	.L194
	.loc 1 8133 2 is_stmt 1 view .LVU3214
.LVL594:
.LBB2493:
.LBI2493:
	.loc 1 331 14 view .LVU3215
.LBB2494:
	.loc 1 333 2 view .LVU3216
	.loc 1 335 2 view .LVU3217
.LBB2495:
.LBI2495:
	.loc 1 298 13 view .LVU3218
.LBB2496:
	.loc 1 300 2 view .LVU3219
	.loc 1 302 2 view .LVU3220
.LBB2497:
.LBI2497:
	.loc 2 1493 21 view .LVU3221
.LBB2498:
	.loc 2 1495 2 view .LVU3222
	.loc 2 1495 9 is_stmt 0 view .LVU3223
	adds	r5, r5, #12
.LVL595:
	.loc 2 1495 9 view .LVU3224
	movs	r1, #2
	mov	r0, r5
.LVL596:
	.loc 2 1495 9 view .LVU3225
	bl	net_buf_simple_add
.LVL597:
	.loc 2 1495 9 view .LVU3226
.LBE2498:
.LBE2497:
	.loc 1 303 2 is_stmt 1 view .LVU3227
	.loc 1 304 2 view .LVU3228
	.loc 1 303 11 is_stmt 0 view .LVU3229
	movw	r3, #2622
	strh	r3, [r0]	@ unaligned
.LVL598:
	.loc 1 303 11 view .LVU3230
.LBE2496:
.LBE2495:
	.loc 1 336 2 is_stmt 1 view .LVU3231
.LBB2499:
.LBI2499:
	.loc 2 1493 21 view .LVU3232
.LBB2500:
	.loc 2 1495 2 view .LVU3233
	.loc 2 1495 9 is_stmt 0 view .LVU3234
	movs	r1, #1
	mov	r0, r5
.LVL599:
	.loc 2 1495 9 view .LVU3235
	bl	net_buf_simple_add
.LVL600:
	.loc 2 1495 9 view .LVU3236
.LBE2500:
.LBE2499:
	.loc 1 337 2 is_stmt 1 view .LVU3237
	.loc 1 337 15 is_stmt 0 view .LVU3238
	movs	r3, #3
	strb	r3, [r0]
	.loc 1 339 2 is_stmt 1 view .LVU3239
.LVL601:
.LBB2501:
.LBI2501:
	.loc 2 1493 21 view .LVU3240
.LBB2502:
	.loc 2 1495 2 view .LVU3241
	.loc 2 1495 9 is_stmt 0 view .LVU3242
	movs	r1, #9
	mov	r0, r5
.LVL602:
	.loc 2 1495 9 view .LVU3243
	bl	net_buf_simple_add
.LVL603:
.LBE2502:
.LBE2501:
.LBE2494:
.LBE2493:
	.loc 1 8139 10 view .LVU3244
	tst	r8, #1
.LBB2506:
.LBB2505:
.LBB2504:
.LBB2503:
	.loc 2 1495 9 view .LVU3245
	mov	r5, r0
.LVL604:
	.loc 2 1495 9 view .LVU3246
.LBE2503:
.LBE2504:
.LBE2505:
.LBE2506:
	.loc 1 8138 2 is_stmt 1 view .LVU3247
	.loc 1 8139 2 view .LVU3248
	.loc 1 8139 7 view .LVU3249
	.loc 1 8139 10 is_stmt 0 view .LVU3250
	bne	.L247
.LVL605:
.L213:
	.loc 1 8139 252 is_stmt 1 view .LVU3251
	.loc 1 8139 5 view .LVU3252
	.loc 1 8141 2 view .LVU3253
	.loc 1 8142 2 view .LVU3254
	.loc 1 8142 18 is_stmt 0 view .LVU3255
	ldrb	r3, [r4, #28]	@ zero_extendqisi2
	.loc 1 8142 14 view .LVU3256
	strb	r3, [r5]
	.loc 1 8143 2 is_stmt 1 view .LVU3257
	.loc 1 8143 14 is_stmt 0 view .LVU3258
	strh	r6, [r5, #1]	@ unaligned
	.loc 1 8144 2 is_stmt 1 view .LVU3259
	.loc 1 8144 21 is_stmt 0 view .LVU3260
	ldrh	r3, [r4, #30]
	.loc 1 8144 16 view .LVU3261
	strh	r3, [r5, #3]	@ unaligned
	.loc 1 8145 2 is_stmt 1 view .LVU3262
	.loc 1 8145 20 is_stmt 0 view .LVU3263
	ldrh	r3, [r4, #32]
	.loc 1 8145 15 view .LVU3264
	strh	r3, [r5, #5]	@ unaligned
	.loc 1 8146 2 is_stmt 1 view .LVU3265
	.loc 1 8146 25 is_stmt 0 view .LVU3266
	ldrh	r3, [r4, #34]
	.loc 1 8146 20 view .LVU3267
	strh	r3, [r5, #7]	@ unaligned
	b	.L194
.LVL606:
.L201:
	.loc 1 8146 20 view .LVU3268
.LBE2492:
.LBE2491:
	.loc 1 8382 3 is_stmt 1 view .LVU3269
.LBB2508:
.LBI2508:
	.loc 1 8150 13 view .LVU3270
.LBB2509:
	.loc 1 8153 2 view .LVU3271
	.loc 1 8155 2 view .LVU3272
	.loc 1 8155 19 is_stmt 0 view .LVU3273
	ldr	r3, .L250
	ldr	r3, [r3, #4]
	.loc 1 8155 5 view .LVU3274
	lsls	r3, r3, #16
	.loc 1 8155 19 view .LVU3275
	mov	r4, #0
	.loc 1 8155 5 view .LVU3276
	bpl	.L194
	.loc 1 8159 2 is_stmt 1 view .LVU3277
.LVL607:
.LBB2510:
.LBI2510:
	.loc 1 298 13 view .LVU3278
.LBB2511:
	.loc 1 300 2 view .LVU3279
	.loc 1 302 2 view .LVU3280
.LBB2512:
.LBI2512:
	.loc 2 1493 21 view .LVU3281
.LBB2513:
	.loc 2 1495 2 view .LVU3282
	.loc 2 1495 9 is_stmt 0 view .LVU3283
	adds	r5, r5, #12
	movs	r1, #2
.LVL608:
	.loc 2 1495 9 view .LVU3284
	mov	r0, r5
.LVL609:
	.loc 2 1495 9 view .LVU3285
	bl	net_buf_simple_add
.LVL610:
	.loc 2 1495 9 view .LVU3286
.LBE2513:
.LBE2512:
	.loc 1 303 2 is_stmt 1 view .LVU3287
	.loc 1 304 2 view .LVU3288
	.loc 1 303 11 is_stmt 0 view .LVU3289
	mov	r3, #816
	strh	r3, [r0]	@ unaligned
.LVL611:
	.loc 1 303 11 view .LVU3290
.LBE2511:
.LBE2510:
	.loc 1 8161 2 is_stmt 1 view .LVU3291
.LBB2514:
.LBI2514:
	.loc 2 1493 21 view .LVU3292
.LBB2515:
	.loc 2 1495 2 view .LVU3293
	.loc 2 1495 9 is_stmt 0 view .LVU3294
	movs	r1, #3
	mov	r0, r5
.LVL612:
	.loc 2 1495 9 view .LVU3295
	bl	net_buf_simple_add
.LVL613:
	.loc 2 1495 9 view .LVU3296
.LBE2515:
.LBE2514:
	.loc 1 8163 2 is_stmt 1 view .LVU3297
	.loc 1 8163 13 is_stmt 0 view .LVU3298
	strb	r4, [r0]
	.loc 1 8164 2 is_stmt 1 view .LVU3299
	.loc 1 8164 13 is_stmt 0 view .LVU3300
	strh	r6, [r0, #1]	@ unaligned
	b	.L194
.LVL614:
.L200:
	.loc 1 8164 13 view .LVU3301
.LBE2509:
.LBE2508:
	.loc 1 8388 3 is_stmt 1 view .LVU3302
.LBB2516:
.LBI2516:
	.loc 1 8169 13 view .LVU3303
.LBB2517:
	.loc 1 8172 2 view .LVU3304
	.loc 1 8174 2 view .LVU3305
	.loc 1 8174 26 is_stmt 0 view .LVU3306
	ldr	r3, .L250+12
	ldr	r3, [r3]
	.loc 1 8174 5 view .LVU3307
	lsls	r4, r3, #8
	bpl	.L194
	.loc 1 8178 2 is_stmt 1 view .LVU3308
.LVL615:
.LBB2518:
.LBI2518:
	.loc 1 298 13 view .LVU3309
.LBB2519:
	.loc 1 300 2 view .LVU3310
	.loc 1 302 2 view .LVU3311
.LBB2520:
.LBI2520:
	.loc 2 1493 21 view .LVU3312
.LBB2521:
	.loc 2 1495 2 view .LVU3313
	.loc 2 1495 9 is_stmt 0 view .LVU3314
	adds	r5, r5, #12
	movs	r1, #2
.LVL616:
	.loc 2 1495 9 view .LVU3315
	mov	r0, r5
.LVL617:
	.loc 2 1495 9 view .LVU3316
	bl	net_buf_simple_add
.LVL618:
	.loc 2 1495 9 view .LVU3317
.LBE2521:
.LBE2520:
	.loc 1 303 2 is_stmt 1 view .LVU3318
	.loc 1 304 2 view .LVU3319
	.loc 1 303 11 is_stmt 0 view .LVU3320
	movw	r3, #599
	strh	r3, [r0]	@ unaligned
.LVL619:
	.loc 1 303 11 view .LVU3321
.LBE2519:
.LBE2518:
	.loc 1 8179 2 is_stmt 1 view .LVU3322
.LBB2522:
.LBI2522:
	.loc 2 1493 21 view .LVU3323
.LBB2523:
	.loc 2 1495 2 view .LVU3324
	.loc 2 1495 9 is_stmt 0 view .LVU3325
	movs	r1, #2
	mov	r0, r5
.LVL620:
	.loc 2 1495 9 view .LVU3326
	bl	net_buf_simple_add
.LVL621:
	.loc 2 1495 9 view .LVU3327
.LBE2523:
.LBE2522:
	.loc 1 8181 2 is_stmt 1 view .LVU3328
	.loc 1 8181 13 is_stmt 0 view .LVU3329
	strh	r6, [r0]	@ unaligned
	b	.L194
.LVL622:
.L199:
	.loc 1 8181 13 view .LVU3330
.LBE2517:
.LBE2516:
	.loc 1 8394 3 is_stmt 1 view .LVU3331
.LBB2524:
.LBI2524:
	.loc 1 8186 13 view .LVU3332
.LBB2525:
	.loc 1 8189 2 view .LVU3333
	.loc 1 8190 2 view .LVU3334
	.loc 1 8192 2 view .LVU3335
	.loc 1 8194 2 view .LVU3336
	.loc 1 8194 19 is_stmt 0 view .LVU3337
	ldr	r3, .L250
	ldr	r3, [r3, #4]
	.loc 1 8194 5 view .LVU3338
	lsls	r0, r3, #2
.LVL623:
	.loc 1 8194 5 view .LVU3339
	bpl	.L194
	.loc 1 8195 22 view .LVU3340
	ldr	r3, .L250+4
	ldr	r3, [r3]
	.loc 1 8194 37 view .LVU3341
	lsls	r1, r3, #12
.LVL624:
	.loc 1 8194 37 view .LVU3342
	bpl	.L194
	.loc 1 8200 2 is_stmt 1 view .LVU3343
.LVL625:
.LBB2526:
.LBI2526:
	.loc 1 331 14 view .LVU3344
.LBB2527:
	.loc 1 333 2 view .LVU3345
	.loc 1 335 2 view .LVU3346
.LBB2528:
.LBI2528:
	.loc 1 298 13 view .LVU3347
.LBB2529:
	.loc 1 300 2 view .LVU3348
	.loc 1 302 2 view .LVU3349
.LBB2530:
.LBI2530:
	.loc 2 1493 21 view .LVU3350
.LBB2531:
	.loc 2 1495 2 view .LVU3351
	.loc 2 1495 9 is_stmt 0 view .LVU3352
	adds	r5, r5, #12
.LVL626:
	.loc 2 1495 9 view .LVU3353
	movs	r1, #2
	mov	r0, r5
	bl	net_buf_simple_add
.LVL627:
	.loc 2 1495 9 view .LVU3354
.LBE2531:
.LBE2530:
	.loc 1 303 2 is_stmt 1 view .LVU3355
	.loc 1 304 2 view .LVU3356
	.loc 1 303 11 is_stmt 0 view .LVU3357
	movw	r3, #1086
	strh	r3, [r0]	@ unaligned
.LVL628:
	.loc 1 303 11 view .LVU3358
.LBE2529:
.LBE2528:
	.loc 1 336 2 is_stmt 1 view .LVU3359
.LBB2532:
.LBI2532:
	.loc 2 1493 21 view .LVU3360
.LBB2533:
	.loc 2 1495 2 view .LVU3361
	.loc 2 1495 9 is_stmt 0 view .LVU3362
	movs	r1, #1
	mov	r0, r5
.LVL629:
	.loc 2 1495 9 view .LVU3363
	bl	net_buf_simple_add
.LVL630:
	.loc 2 1495 9 view .LVU3364
.LBE2533:
.LBE2532:
	.loc 1 337 2 is_stmt 1 view .LVU3365
	.loc 1 337 15 is_stmt 0 view .LVU3366
	movs	r3, #20
	strb	r3, [r0]
	.loc 1 339 2 is_stmt 1 view .LVU3367
.LVL631:
.LBB2534:
.LBI2534:
	.loc 2 1493 21 view .LVU3368
.LBB2535:
	.loc 2 1495 2 view .LVU3369
	.loc 2 1495 9 is_stmt 0 view .LVU3370
	movs	r1, #3
	mov	r0, r5
.LVL632:
	.loc 2 1495 9 view .LVU3371
	bl	net_buf_simple_add
.LVL633:
	.loc 2 1495 9 view .LVU3372
.LBE2535:
.LBE2534:
.LBE2527:
.LBE2526:
	.loc 1 8202 2 is_stmt 1 view .LVU3373
	.loc 1 8202 14 is_stmt 0 view .LVU3374
	strh	r6, [r0]	@ unaligned
	.loc 1 8203 2 is_stmt 1 view .LVU3375
	.loc 1 8203 25 is_stmt 0 view .LVU3376
	ldrb	r3, [r4, #28]	@ zero_extendqisi2
	.loc 1 8203 21 view .LVU3377
	strb	r3, [r0, #2]
	b	.L194
.LVL634:
.L197:
	.loc 1 8203 21 view .LVU3378
.LBE2525:
.LBE2524:
	.loc 1 8400 3 is_stmt 1 view .LVU3379
.LBB2536:
.LBI2536:
	.loc 1 8208 13 view .LVU3380
.LBB2537:
	.loc 1 8211 2 view .LVU3381
	.loc 1 8212 2 view .LVU3382
	.loc 1 8214 2 view .LVU3383
	.loc 1 8216 2 view .LVU3384
	.loc 1 8216 19 is_stmt 0 view .LVU3385
	ldr	r3, .L250
	ldr	r3, [r3, #4]
	.loc 1 8216 5 view .LVU3386
	lsls	r2, r3, #2
	bpl	.L214
	.loc 1 8217 22 view .LVU3387
	ldr	r3, .L250+4
	ldr	r3, [r3]
	.loc 1 8216 37 view .LVU3388
	lsls	r3, r3, #20
	bmi	.L215
.L214:
	.loc 1 8218 3 is_stmt 1 view .LVU3389
.LBB2538:
	.loc 1 8218 8 view .LVU3390
	.loc 1 8218 57 view .LVU3391
	.loc 1 8218 14 view .LVU3392
	.loc 1 8218 2 view .LVU3393
.LVL635:
	.loc 1 8218 41 view .LVU3394
	.loc 1 8218 176 view .LVU3395
	.loc 1 8218 187 view .LVU3396
	.loc 1 8218 275 view .LVU3397
.LBB2539:
	.loc 1 8218 3 view .LVU3398
	.loc 1 8218 5 view .LVU3399
	.loc 1 8218 38 view .LVU3400
.LBB2540:
.LBB2541:
	.loc 7 56 9 is_stmt 0 view .LVU3401
	ldrb	r2, [r4, #29]	@ zero_extendqisi2
.LBE2541:
.LBE2540:
.LBB2545:
.LBB2546:
	ldrb	r3, [r4, #30]	@ zero_extendqisi2
.LBE2546:
.LBE2545:
	.loc 1 8218 50 view .LVU3402
	ldrb	ip, [r4, #28]	@ zero_extendqisi2
.LBB2551:
.LBB2542:
	.loc 7 56 9 view .LVU3403
	cmp	r2, #0
	rbit	r2, r2
	clz	r2, r2
	it	eq
	moveq	r2, #-1
.LBE2542:
.LBE2551:
.LBB2552:
.LBB2547:
	cmp	r3, #0
	rbit	r3, r3
	clz	r3, r3
.LBE2547:
.LBE2552:
.LBB2553:
.LBB2554:
	.loc 1 8218 107 view .LVU3404
	mov	r5, sp
.LBE2554:
.LBE2553:
.LBB2574:
.LBB2548:
	.loc 7 56 9 view .LVU3405
	it	eq
	moveq	r3, #-1
.LBE2548:
.LBE2574:
.LBB2575:
.LBB2571:
	.loc 1 8218 82 view .LVU3406
	sub	sp, sp, #40
.LBE2571:
.LBE2575:
.LBB2576:
.LBB2543:
	.loc 7 56 9 view .LVU3407
	adds	r1, r2, #1
.LVL636:
	.loc 7 56 9 view .LVU3408
.LBE2543:
.LBE2576:
.LBB2577:
.LBB2549:
	adds	r3, r3, #1
.LVL637:
	.loc 7 56 9 view .LVU3409
.LBE2549:
.LBE2577:
	.loc 1 8218 75 is_stmt 1 view .LVU3410
.LBB2578:
.LBI2540:
	.loc 7 53 59 view .LVU3411
.LBB2544:
	.loc 7 56 2 view .LVU3412
	.loc 7 56 2 is_stmt 0 view .LVU3413
.LBE2544:
.LBE2578:
	.loc 1 8218 122 is_stmt 1 view .LVU3414
.LBB2579:
.LBI2545:
	.loc 7 53 59 view .LVU3415
.LBB2550:
	.loc 7 56 2 view .LVU3416
	.loc 7 56 2 is_stmt 0 view .LVU3417
.LBE2550:
.LBE2579:
	.loc 1 8218 3 is_stmt 1 view .LVU3418
.LBB2580:
	.loc 1 8218 8 view .LVU3419
	.loc 1 8218 2 view .LVU3420
	.loc 1 8218 12 view .LVU3421
	.loc 1 8218 102 view .LVU3422
	.loc 1 8218 104 view .LVU3423
.LBB2572:
	.loc 1 8218 109 view .LVU3424
	.loc 1 8218 120 view .LVU3425
	.loc 1 8218 209 view .LVU3426
	.loc 1 8218 26 view .LVU3427
	.loc 1 8218 29 view .LVU3428
	.loc 1 8218 3 view .LVU3429
	.loc 1 8218 3 view .LVU3430
	.loc 1 8218 70 view .LVU3431
	.loc 1 8218 82 is_stmt 0 view .LVU3432
	add	r0, sp, #16
.LVL638:
	.loc 1 8218 74 is_stmt 1 view .LVU3433
	.loc 1 8218 484 view .LVU3434
	.loc 1 8218 5 view .LVU3435
	.loc 1 8218 7 view .LVU3436
	.loc 1 8218 12 view .LVU3437
	.loc 1 8218 10 view .LVU3438
	.loc 1 8218 5 view .LVU3439
	.loc 1 8218 23 view .LVU3440
.LBB2555:
	.loc 1 8218 3 view .LVU3441
	.loc 1 8218 368 view .LVU3442
	.loc 1 8218 75 view .LVU3443
.LVL639:
	.loc 1 8218 2 view .LVU3444
	.loc 1 8218 2 view .LVU3445
	.loc 1 8218 2 view .LVU3446
	.loc 1 8218 38 view .LVU3447
	.loc 1 8218 67 view .LVU3448
	.loc 1 8218 93 view .LVU3449
	.loc 1 8218 119 view .LVU3450
	.loc 1 8218 1924 view .LVU3451
	.loc 1 8218 1986 view .LVU3452
	.loc 1 8218 3905 view .LVU3453
	.loc 1 8218 3970 view .LVU3454
	.loc 1 8218 3995 view .LVU3455
	.loc 1 8218 3996 view .LVU3456
	.loc 1 8218 3998 view .LVU3457
	.loc 1 8218 4028 view .LVU3458
	.loc 1 8218 4058 view .LVU3459
	.loc 1 8218 4090 view .LVU3460
	.loc 1 8218 0 view .LVU3461
	.loc 1 8218 0 view .LVU3462
	.loc 1 8218 0 view .LVU3463
	.loc 1 8218 0 view .LVU3464
	.loc 1 8218 0 view .LVU3465
	.loc 1 8218 0 view .LVU3466
	.loc 1 8218 0 view .LVU3467
	.loc 1 8218 0 view .LVU3468
	.loc 1 8218 0 view .LVU3469
	.loc 1 8218 0 view .LVU3470
	.loc 1 8218 0 view .LVU3471
	.loc 1 8218 0 view .LVU3472
.LBB2556:
	.loc 1 8218 3261 view .LVU3473
	.loc 1 8218 3266 view .LVU3474
	.loc 1 8218 3962 view .LVU3475
.LBE2556:
.LBB2557:
	.loc 1 8218 176 is_stmt 0 view .LVU3476
	mov	r2, r0
.LBE2557:
.LBB2558:
	.loc 1 8218 3811 view .LVU3477
	str	r3, [r0, #36]
.LBE2558:
.LBB2559:
	.loc 1 8218 176 view .LVU3478
	movs	r4, #6
.LVL640:
	.loc 1 8218 176 view .LVU3479
.LBE2559:
.LBB2560:
	.loc 1 8218 0 view .LVU3480
	ldr	r3, .L250+16
.LVL641:
	.loc 1 8218 0 view .LVU3481
.LBE2560:
.LBE2555:
.LBE2572:
.LBE2580:
	.loc 1 8218 17 view .LVU3482
	str	r6, [r0, #24]
.LBB2581:
.LBB2573:
.LBB2568:
.LBB2561:
	.loc 1 8218 3811 view .LVU3483
	strd	ip, r1, [r0, #28]
.LBE2561:
.LBB2562:
	.loc 1 8218 0 view .LVU3484
	str	r3, [r0, #20]
	.loc 1 8218 3264 is_stmt 1 view .LVU3485
	.loc 1 8218 7 view .LVU3486
.LVL642:
	.loc 1 8218 30 view .LVU3487
	.loc 1 8218 30 is_stmt 0 view .LVU3488
.LBE2562:
	.loc 1 8218 129 is_stmt 1 view .LVU3489
	.loc 1 8218 6 view .LVU3490
.LBB2563:
	.loc 1 8218 11 view .LVU3491
	.loc 1 8218 236 view .LVU3492
	.loc 1 8218 1189 view .LVU3493
	.loc 1 8218 1254 view .LVU3494
	.loc 1 8218 1421 view .LVU3495
	.loc 1 8218 1461 view .LVU3496
	.loc 1 8218 2725 view .LVU3497
	.loc 1 8218 2763 view .LVU3498
	.loc 1 8218 2768 view .LVU3499
	.loc 1 8218 3212 view .LVU3500
	.loc 1 8218 2766 view .LVU3501
	.loc 1 8218 7 view .LVU3502
	.loc 1 8218 30 view .LVU3503
	.loc 1 8218 30 is_stmt 0 view .LVU3504
.LBE2563:
	.loc 1 8218 9 is_stmt 1 view .LVU3505
	.loc 1 8218 6 view .LVU3506
.LBB2564:
	.loc 1 8218 11 view .LVU3507
	.loc 1 8218 236 view .LVU3508
	.loc 1 8218 1189 view .LVU3509
	.loc 1 8218 1254 view .LVU3510
	.loc 1 8218 1421 view .LVU3511
	.loc 1 8218 1461 view .LVU3512
	.loc 1 8218 2725 view .LVU3513
	.loc 1 8218 2763 view .LVU3514
	.loc 1 8218 2768 view .LVU3515
	.loc 1 8218 3212 view .LVU3516
	.loc 1 8218 2766 view .LVU3517
	.loc 1 8218 7 view .LVU3518
	.loc 1 8218 30 view .LVU3519
	.loc 1 8218 30 is_stmt 0 view .LVU3520
.LBE2564:
	.loc 1 8218 9 is_stmt 1 view .LVU3521
	.loc 1 8218 6 view .LVU3522
.LBB2565:
	.loc 1 8218 11 view .LVU3523
	.loc 1 8218 236 view .LVU3524
	.loc 1 8218 1189 view .LVU3525
	.loc 1 8218 1254 view .LVU3526
	.loc 1 8218 1421 view .LVU3527
	.loc 1 8218 1461 view .LVU3528
	.loc 1 8218 2725 view .LVU3529
	.loc 1 8218 2763 view .LVU3530
	.loc 1 8218 2768 view .LVU3531
	.loc 1 8218 3212 view .LVU3532
	.loc 1 8218 2766 view .LVU3533
	.loc 1 8218 7 view .LVU3534
	.loc 1 8218 30 view .LVU3535
	.loc 1 8218 30 is_stmt 0 view .LVU3536
.LBE2565:
	.loc 1 8218 9 is_stmt 1 view .LVU3537
	.loc 1 8218 6 view .LVU3538
.LBB2566:
	.loc 1 8218 11 view .LVU3539
	.loc 1 8218 236 view .LVU3540
	.loc 1 8218 1189 view .LVU3541
	.loc 1 8218 1254 view .LVU3542
	.loc 1 8218 1421 view .LVU3543
	.loc 1 8218 1461 view .LVU3544
	.loc 1 8218 2725 view .LVU3545
	.loc 1 8218 2763 view .LVU3546
	.loc 1 8218 2768 view .LVU3547
	.loc 1 8218 3212 view .LVU3548
	.loc 1 8218 2766 view .LVU3549
	.loc 1 8218 7 view .LVU3550
	.loc 1 8218 30 view .LVU3551
	.loc 1 8218 30 is_stmt 0 view .LVU3552
.LBE2566:
	.loc 1 8218 9 is_stmt 1 view .LVU3553
	.loc 1 8218 5 view .LVU3554
	.loc 1 8218 28 view .LVU3555
	.loc 1 8218 52 view .LVU3556
	.loc 1 8218 80 view .LVU3557
	.loc 1 8218 256 view .LVU3558
	.loc 1 8218 16 view .LVU3559
.LBB2567:
	.loc 1 8218 6 view .LVU3560
	.loc 1 8218 164 view .LVU3561
	.loc 1 8218 166 view .LVU3562
	.loc 1 8218 176 is_stmt 0 view .LVU3563
	str	r4, [r2, #16]!
.LVL643:
	.loc 1 8218 176 view .LVU3564
.LBE2567:
.LBE2568:
	.loc 1 8218 26 is_stmt 1 view .LVU3565
	.loc 1 8218 7 view .LVU3566
	.loc 1 8218 147 view .LVU3567
	.loc 1 8218 149 view .LVU3568
.LBB2569:
.LBI2569:
	.loc 5 26 20 view .LVU3569
.LBB2570:
	.loc 5 38 2 view .LVU3570
	.loc 5 38 7 view .LVU3571
	.loc 5 38 5 view .LVU3572
	.loc 5 39 2 view .LVU3573
	ldr	r0, .L250+20
.LVL644:
	.loc 5 39 2 is_stmt 0 view .LVU3574
	movs	r3, #0
	mov	r1, #12416
.LVL645:
	.loc 5 39 2 view .LVU3575
	bl	z_impl_z_log_msg_static_create
.LVL646:
	.loc 5 39 2 view .LVU3576
.LBE2570:
.LBE2569:
	mov	sp, r5
.LBE2573:
	.loc 1 8218 107 is_stmt 1 view .LVU3577
	.loc 1 8218 5 view .LVU3578
.LVL647:
	.loc 1 8218 42 view .LVU3579
.LBE2581:
	.loc 1 8218 6 view .LVU3580
.LBE2539:
	.loc 1 8218 278 view .LVU3581
	.loc 1 8218 5 view .LVU3582
	.loc 1 8218 18 view .LVU3583
.LBE2538:
	.loc 1 8218 6 view .LVU3584
	.loc 1 8220 3 view .LVU3585
	b	.L194
.LVL648:
.L220:
	.loc 1 8220 3 is_stmt 0 view .LVU3586
.LBE2537:
.LBE2536:
.LBE2603:
.LBE2717:
.LBB2718:
.LBB2711:
	.loc 1 8712 3 is_stmt 1 view .LVU3587
	.loc 1 8712 8 view .LVU3588
	.loc 1 8712 20 view .LVU3589
	ldr	r2, .L250+24
	ldr	r1, .L250+28
.LVL649:
	.loc 1 8712 20 is_stmt 0 view .LVU3590
	ldr	r0, .L250+32
.LVL650:
	.loc 1 8712 20 view .LVU3591
	movw	r3, #8712
	bl	assert_print
.LVL651:
	.loc 1 8712 138 is_stmt 1 view .LVU3592
	.loc 1 8712 143 view .LVU3593
	.syntax unified
@ 8712 "/home/g/mise-work/zmk-firmware/zmk/zephyr/subsys/bluetooth/controller/hci/hci.c" 1
	eors.n r0, r0
	msr BASEPRI, r0
	mov r0, #3
	svc #2
	
@ 0 "" 2
	.loc 1 8712 141 view .LVU3594
	.loc 1 8712 6 view .LVU3595
	.loc 1 8713 3 view .LVU3596
.LVL652:
	.loc 1 8713 3 is_stmt 0 view .LVU3597
	.thumb
	.syntax unified
.LBE2711:
.LBE2718:
	.loc 1 8771 1 view .LVU3598
	b	.L194
.LVL653:
.L221:
.LBB2719:
.LBB2712:
	.loc 1 8693 3 is_stmt 1 view .LVU3599
.LBB2610:
.LBI2610:
	.loc 1 8607 13 view .LVU3600
.LBB2611:
	.loc 1 8610 2 view .LVU3601
	.loc 1 8612 2 view .LVU3602
	.loc 1 8612 19 is_stmt 0 view .LVU3603
	ldr	r3, .L250
	ldr	r3, [r3, #4]
	.loc 1 8612 5 view .LVU3604
	lsls	r2, r3, #2
	bpl	.L194
	.loc 1 8613 22 view .LVU3605
	ldr	r3, .L250+4
	ldr	r3, [r3]
	.loc 1 8612 37 view .LVU3606
	lsls	r3, r3, #25
	bpl	.L194
	.loc 1 8617 2 is_stmt 1 view .LVU3607
.LVL654:
.LBB2612:
.LBI2612:
	.loc 1 331 14 view .LVU3608
.LBB2613:
	.loc 1 333 2 view .LVU3609
	.loc 1 335 2 view .LVU3610
.LBB2614:
.LBI2614:
	.loc 1 298 13 view .LVU3611
.LBB2615:
	.loc 1 300 2 view .LVU3612
	.loc 1 302 2 view .LVU3613
.LBB2616:
.LBI2616:
	.loc 2 1493 21 view .LVU3614
.LBB2617:
	.loc 2 1495 2 view .LVU3615
	.loc 2 1495 9 is_stmt 0 view .LVU3616
	adds	r5, r5, #12
	movs	r1, #2
.LVL655:
	.loc 2 1495 9 view .LVU3617
	mov	r0, r5
.LVL656:
	.loc 2 1495 9 view .LVU3618
	bl	net_buf_simple_add
.LVL657:
	.loc 2 1495 9 view .LVU3619
.LBE2617:
.LBE2616:
	.loc 1 303 2 is_stmt 1 view .LVU3620
	.loc 1 304 2 view .LVU3621
	.loc 1 303 11 is_stmt 0 view .LVU3622
	movw	r3, #2878
	strh	r3, [r0]	@ unaligned
.LVL658:
	.loc 1 303 11 view .LVU3623
.LBE2615:
.LBE2614:
	.loc 1 336 2 is_stmt 1 view .LVU3624
.LBB2618:
.LBI2618:
	.loc 2 1493 21 view .LVU3625
.LBB2619:
	.loc 2 1495 2 view .LVU3626
	.loc 2 1495 9 is_stmt 0 view .LVU3627
	movs	r1, #1
	mov	r0, r5
.LVL659:
	.loc 2 1495 9 view .LVU3628
	bl	net_buf_simple_add
.LVL660:
	.loc 2 1495 9 view .LVU3629
.LBE2619:
.LBE2618:
	.loc 1 337 2 is_stmt 1 view .LVU3630
	.loc 1 337 15 is_stmt 0 view .LVU3631
	movs	r3, #7
	strb	r3, [r0]
	.loc 1 339 2 is_stmt 1 view .LVU3632
.LVL661:
.LBB2620:
.LBI2620:
	.loc 2 1493 21 view .LVU3633
.LBB2621:
	.loc 2 1495 2 view .LVU3634
	.loc 2 1495 9 is_stmt 0 view .LVU3635
	movs	r1, #10
	mov	r0, r5
.LVL662:
	.loc 2 1495 9 view .LVU3636
	bl	net_buf_simple_add
.LVL663:
	.loc 2 1495 9 view .LVU3637
.LBE2621:
.LBE2620:
.LBE2613:
.LBE2612:
	.loc 1 8619 2 is_stmt 1 view .LVU3638
	.loc 1 8619 14 is_stmt 0 view .LVU3639
	strh	r6, [r0]	@ unaligned
	.loc 1 8620 2 is_stmt 1 view .LVU3640
	.loc 1 8620 50 is_stmt 0 view .LVU3641
	ldrh	r3, [r4, #36]	@ unaligned
	.loc 1 8620 21 view .LVU3642
	strh	r3, [r0, #2]	@ unaligned
	.loc 1 8621 2 is_stmt 1 view .LVU3643
	.loc 1 8621 48 is_stmt 0 view .LVU3644
	ldrh	r3, [r4, #38]	@ unaligned
	.loc 1 8621 19 view .LVU3645
	strh	r3, [r0, #4]	@ unaligned
	.loc 1 8622 2 is_stmt 1 view .LVU3646
	.loc 1 8622 50 is_stmt 0 view .LVU3647
	ldrh	r3, [r4, #32]	@ unaligned
	.loc 1 8622 21 view .LVU3648
	strh	r3, [r0, #6]	@ unaligned
	.loc 1 8623 2 is_stmt 1 view .LVU3649
	.loc 1 8623 48 is_stmt 0 view .LVU3650
	ldrh	r3, [r4, #34]	@ unaligned
	.loc 1 8623 19 view .LVU3651
	strh	r3, [r0, #8]	@ unaligned
	b	.L194
.LVL664:
.L215:
	.loc 1 8623 19 view .LVU3652
.LBE2611:
.LBE2610:
.LBE2712:
.LBE2719:
.LBB2720:
.LBB2604:
.LBB2597:
.LBB2596:
	.loc 1 8223 2 is_stmt 1 view .LVU3653
.LBB2582:
.LBI2582:
	.loc 1 331 14 view .LVU3654
.LBB2583:
	.loc 1 333 2 view .LVU3655
	.loc 1 335 2 view .LVU3656
.LBB2584:
.LBI2584:
	.loc 1 298 13 view .LVU3657
.LBB2585:
	.loc 1 300 2 view .LVU3658
	.loc 1 302 2 view .LVU3659
.LBB2586:
.LBI2586:
	.loc 2 1493 21 view .LVU3660
.LBB2587:
	.loc 2 1495 2 view .LVU3661
	.loc 2 1495 9 is_stmt 0 view .LVU3662
	adds	r5, r5, #12
	movs	r1, #2
.LVL665:
	.loc 2 1495 9 view .LVU3663
	mov	r0, r5
.LVL666:
	.loc 2 1495 9 view .LVU3664
	bl	net_buf_simple_add
.LVL667:
	.loc 2 1495 9 view .LVU3665
.LBE2587:
.LBE2586:
	.loc 1 303 2 is_stmt 1 view .LVU3666
	.loc 1 304 2 view .LVU3667
	.loc 1 303 11 is_stmt 0 view .LVU3668
	movw	r3, #1598
	strh	r3, [r0]	@ unaligned
.LVL668:
	.loc 1 303 11 view .LVU3669
.LBE2585:
.LBE2584:
	.loc 1 336 2 is_stmt 1 view .LVU3670
.LBB2588:
.LBI2588:
	.loc 2 1493 21 view .LVU3671
.LBB2589:
	.loc 2 1495 2 view .LVU3672
	.loc 2 1495 9 is_stmt 0 view .LVU3673
	movs	r1, #1
	mov	r0, r5
.LVL669:
	.loc 2 1495 9 view .LVU3674
	bl	net_buf_simple_add
.LVL670:
	.loc 2 1495 9 view .LVU3675
.LBE2589:
.LBE2588:
	.loc 1 337 2 is_stmt 1 view .LVU3676
	.loc 1 337 15 is_stmt 0 view .LVU3677
	movs	r3, #12
	strb	r3, [r0]
	.loc 1 339 2 is_stmt 1 view .LVU3678
.LVL671:
.LBB2590:
.LBI2590:
	.loc 2 1493 21 view .LVU3679
.LBB2591:
	.loc 2 1495 2 view .LVU3680
	.loc 2 1495 9 is_stmt 0 view .LVU3681
	movs	r1, #5
	mov	r0, r5
.LVL672:
	.loc 2 1495 9 view .LVU3682
	bl	net_buf_simple_add
.LVL673:
	.loc 2 1495 9 view .LVU3683
.LBE2591:
.LBE2590:
.LBE2583:
.LBE2582:
	.loc 1 8225 2 is_stmt 1 view .LVU3684
	.loc 1 8225 18 is_stmt 0 view .LVU3685
	ldrb	r3, [r4, #28]	@ zero_extendqisi2
	.loc 1 8225 14 view .LVU3686
	strb	r3, [r0]
	.loc 1 8226 2 is_stmt 1 view .LVU3687
	.loc 1 8226 14 is_stmt 0 view .LVU3688
	strh	r6, [r0, #1]	@ unaligned
	.loc 1 8227 2 is_stmt 1 view .LVU3689
.LVL674:
.LBB2592:
.LBI2592:
	.loc 7 53 59 view .LVU3690
.LBB2593:
	.loc 7 56 2 view .LVU3691
	.loc 7 56 9 is_stmt 0 view .LVU3692
	ldrb	r2, [r4, #29]	@ zero_extendqisi2
.LVL675:
	.loc 7 56 9 view .LVU3693
	cmp	r2, #0
	rbit	r3, r2
	clz	r3, r3
	it	eq
	moveq	r3, #-1
	adds	r3, r3, #1
.LVL676:
	.loc 7 56 9 view .LVU3694
.LBE2593:
.LBE2592:
	.loc 1 8227 14 view .LVU3695
	strb	r3, [r0, #3]
	.loc 1 8228 2 is_stmt 1 view .LVU3696
.LVL677:
.LBB2594:
.LBI2594:
	.loc 7 53 59 view .LVU3697
.LBB2595:
	.loc 7 56 2 view .LVU3698
	.loc 7 56 9 is_stmt 0 view .LVU3699
	ldrb	r2, [r4, #30]	@ zero_extendqisi2
.LVL678:
	.loc 7 56 9 view .LVU3700
	rbit	r3, r2
	cmp	r2, #0
	clz	r3, r3
	it	eq
	moveq	r3, #-1
	adds	r3, r3, #1
.LVL679:
	.loc 7 56 9 view .LVU3701
.LBE2595:
.LBE2594:
	.loc 1 8228 14 view .LVU3702
	strb	r3, [r0, #4]
	b	.L194
.LVL680:
.L223:
	.loc 1 8228 14 view .LVU3703
.LBE2596:
.LBE2597:
.LBE2604:
.LBE2720:
.LBB2721:
.LBB2713:
	.loc 1 8708 3 is_stmt 1 view .LVU3704
.LBB2622:
.LBI2622:
	.loc 1 8568 13 view .LVU3705
.LBB2623:
	.loc 1 8570 2 view .LVU3706
.LBB2624:
.LBB2625:
.LBB2626:
.LBB2627:
	.loc 1 8577 107 is_stmt 0 view .LVU3707
	mov	r5, sp
	.loc 1 8577 82 view .LVU3708
	sub	sp, sp, #32
.LBE2627:
.LBE2626:
.LBE2625:
.LBE2624:
	.loc 1 8570 36 view .LVU3709
	ldrb	r0, [r0, #32]	@ zero_extendqisi2
.LVL681:
	.loc 1 8577 3 is_stmt 1 view .LVU3710
.LBB2638:
	.loc 1 8577 8 view .LVU3711
	.loc 1 8577 57 view .LVU3712
	.loc 1 8577 14 view .LVU3713
	.loc 1 8577 2 view .LVU3714
	.loc 1 8577 41 view .LVU3715
	.loc 1 8577 176 view .LVU3716
	.loc 1 8577 187 view .LVU3717
	.loc 1 8577 275 view .LVU3718
.LBB2637:
	.loc 1 8577 3 view .LVU3719
	.loc 1 8577 5 view .LVU3720
	.loc 1 8577 3 view .LVU3721
.LBB2636:
	.loc 1 8577 8 view .LVU3722
	.loc 1 8577 2 view .LVU3723
	.loc 1 8577 12 view .LVU3724
	.loc 1 8577 102 view .LVU3725
	.loc 1 8577 104 view .LVU3726
.LBB2635:
	.loc 1 8577 109 view .LVU3727
	.loc 1 8577 120 view .LVU3728
	.loc 1 8577 209 view .LVU3729
	.loc 1 8577 26 view .LVU3730
	.loc 1 8577 29 view .LVU3731
	.loc 1 8577 3 view .LVU3732
	.loc 1 8577 3 view .LVU3733
	.loc 1 8577 70 view .LVU3734
	.loc 1 8577 82 is_stmt 0 view .LVU3735
	add	r3, sp, #16
.LVL682:
	.loc 1 8577 74 is_stmt 1 view .LVU3736
	.loc 1 8577 484 view .LVU3737
	.loc 1 8577 5 view .LVU3738
	.loc 1 8577 7 view .LVU3739
	.loc 1 8577 12 view .LVU3740
	.loc 1 8577 10 view .LVU3741
	.loc 1 8577 5 view .LVU3742
	.loc 1 8577 23 view .LVU3743
.LBB2628:
	.loc 1 8577 3 view .LVU3744
	.loc 1 8577 368 view .LVU3745
	.loc 1 8577 75 view .LVU3746
.LVL683:
	.loc 1 8577 2 view .LVU3747
	.loc 1 8577 2 view .LVU3748
	.loc 1 8577 2 view .LVU3749
	.loc 1 8577 38 view .LVU3750
	.loc 1 8577 67 view .LVU3751
	.loc 1 8577 93 view .LVU3752
	.loc 1 8577 119 view .LVU3753
	.loc 1 8577 586 view .LVU3754
	.loc 1 8577 648 view .LVU3755
	.loc 1 8577 1169 view .LVU3756
	.loc 1 8577 1234 view .LVU3757
	.loc 1 8577 1259 view .LVU3758
	.loc 1 8577 1260 view .LVU3759
	.loc 1 8577 1262 view .LVU3760
	.loc 1 8577 1292 view .LVU3761
	.loc 1 8577 1322 view .LVU3762
	.loc 1 8577 1354 view .LVU3763
	.loc 1 8577 1386 view .LVU3764
	.loc 1 8577 1418 view .LVU3765
	.loc 1 8577 1615 view .LVU3766
	.loc 1 8577 1639 view .LVU3767
	.loc 1 8577 1640 view .LVU3768
	.loc 1 8577 1642 view .LVU3769
	.loc 1 8577 1671 view .LVU3770
	.loc 1 8577 1700 view .LVU3771
	.loc 1 8577 1731 view .LVU3772
	.loc 1 8577 1762 view .LVU3773
	.loc 1 8577 1793 view .LVU3774
	.loc 1 8577 2000 view .LVU3775
.LBB2629:
	.loc 1 8577 3063 view .LVU3776
	.loc 1 8577 3068 view .LVU3777
	.loc 1 8577 3632 view .LVU3778
	.loc 1 8577 0 is_stmt 0 view .LVU3779
	ldr	r4, .L250+36
.LVL684:
	.loc 1 8577 0 view .LVU3780
.LBE2629:
.LBB2630:
	.loc 1 8577 176 view .LVU3781
	mov	r2, r3
	movs	r1, #3
.LVL685:
	.loc 1 8577 176 view .LVU3782
.LBE2630:
.LBB2631:
	.loc 1 8577 3811 view .LVU3783
	strd	r4, r0, [r3, #20]
	.loc 1 8577 2766 is_stmt 1 view .LVU3784
	.loc 1 8577 7 view .LVU3785
.LVL686:
	.loc 1 8577 30 view .LVU3786
	.loc 1 8577 30 is_stmt 0 view .LVU3787
.LBE2631:
	.loc 1 8577 9 is_stmt 1 view .LVU3788
	.loc 1 8577 5 view .LVU3789
	.loc 1 8577 28 view .LVU3790
	.loc 1 8577 52 view .LVU3791
	.loc 1 8577 80 view .LVU3792
	.loc 1 8577 256 view .LVU3793
	.loc 1 8577 16 view .LVU3794
.LBB2632:
	.loc 1 8577 6 view .LVU3795
	.loc 1 8577 164 view .LVU3796
	.loc 1 8577 166 view .LVU3797
	.loc 1 8577 176 is_stmt 0 view .LVU3798
	str	r1, [r2, #16]!
.LVL687:
	.loc 1 8577 176 view .LVU3799
.LBE2632:
.LBE2628:
	.loc 1 8577 26 is_stmt 1 view .LVU3800
	.loc 1 8577 7 view .LVU3801
	.loc 1 8577 147 view .LVU3802
	.loc 1 8577 149 view .LVU3803
.LBB2633:
.LBI2633:
	.loc 5 26 20 view .LVU3804
.LBB2634:
	.loc 5 38 2 view .LVU3805
	.loc 5 38 7 view .LVU3806
	.loc 5 38 5 view .LVU3807
	.loc 5 39 2 view .LVU3808
	ldr	r0, .L250+20
.LVL688:
	.loc 5 39 2 is_stmt 0 view .LVU3809
	movs	r3, #0
.LVL689:
	.loc 5 39 2 view .LVU3810
	mov	r1, #6272
	bl	z_impl_z_log_msg_static_create
.LVL690:
	.loc 5 39 2 view .LVU3811
.LBE2634:
.LBE2633:
	mov	sp, r5
.LBE2635:
	.loc 1 8577 107 is_stmt 1 view .LVU3812
	.loc 1 8577 5 view .LVU3813
.LVL691:
	.loc 1 8577 42 view .LVU3814
.LBE2636:
	.loc 1 8577 6 view .LVU3815
.LBE2637:
	.loc 1 8577 278 view .LVU3816
	.loc 1 8577 5 view .LVU3817
	.loc 1 8577 18 view .LVU3818
.LBE2638:
	.loc 1 8577 6 view .LVU3819
	.loc 1 8578 3 view .LVU3820
	.loc 1 8580 1 is_stmt 0 view .LVU3821
	b	.L194
.L251:
	.align	2
.L250:
	.word	event_mask
	.word	le_event_mask
	.word	conn_count
	.word	event_mask_page_2
	.word	.LC13
	.word	log_const_bt_ctlr_hci
	.word	.LC8
	.word	.LC9
	.word	.LC10
	.word	.LC15
.LVL692:
.L225:
	.loc 1 8580 1 view .LVU3822
.LBE2623:
.LBE2622:
	.loc 1 8679 3 is_stmt 1 view .LVU3823
.LBB2639:
.LBB2640:
	.loc 1 8512 19 is_stmt 0 view .LVU3824
	ldr	r3, .L252
.LBE2640:
.LBE2639:
	.loc 1 8679 3 view .LVU3825
	ldrb	r4, [r0, #32]	@ zero_extendqisi2
.LVL693:
.LBB2650:
.LBI2639:
	.loc 1 8507 13 is_stmt 1 view .LVU3826
.LBB2649:
	.loc 1 8510 2 view .LVU3827
	.loc 1 8512 2 view .LVU3828
	.loc 1 8512 19 is_stmt 0 view .LVU3829
	ldr	r3, [r3]
	.loc 1 8512 5 view .LVU3830
	lsls	r3, r3, #24
	bpl	.L194
.LVL694:
.LBB2641:
.LBI2641:
	.loc 1 8507 13 is_stmt 1 view .LVU3831
.LBB2642:
	.loc 1 8516 2 view .LVU3832
.LBB2643:
.LBI2643:
	.loc 1 298 13 view .LVU3833
.LBB2644:
	.loc 1 300 2 view .LVU3834
	.loc 1 302 2 view .LVU3835
.LBB2645:
.LBI2645:
	.loc 2 1493 21 view .LVU3836
.LBB2646:
	.loc 2 1495 2 view .LVU3837
	.loc 2 1495 9 is_stmt 0 view .LVU3838
	adds	r5, r5, #12
	movs	r1, #2
.LVL695:
	.loc 2 1495 9 view .LVU3839
	mov	r0, r5
.LVL696:
	.loc 2 1495 9 view .LVU3840
	bl	net_buf_simple_add
.LVL697:
	.loc 2 1495 9 view .LVU3841
.LBE2646:
.LBE2645:
	.loc 1 303 2 is_stmt 1 view .LVU3842
	.loc 1 304 2 view .LVU3843
	.loc 1 303 11 is_stmt 0 view .LVU3844
	mov	r3, #1032
	strh	r3, [r0]	@ unaligned
.LVL698:
	.loc 1 303 11 view .LVU3845
.LBE2644:
.LBE2643:
	.loc 1 8517 2 is_stmt 1 view .LVU3846
.LBB2647:
.LBI2647:
	.loc 2 1493 21 view .LVU3847
.LBB2648:
	.loc 2 1495 2 view .LVU3848
	.loc 2 1495 9 is_stmt 0 view .LVU3849
	movs	r1, #4
	mov	r0, r5
.LVL699:
	.loc 2 1495 9 view .LVU3850
	bl	net_buf_simple_add
.LVL700:
	.loc 2 1495 9 view .LVU3851
.LBE2648:
.LBE2647:
	.loc 1 8519 2 is_stmt 1 view .LVU3852
	.loc 1 8521 25 is_stmt 0 view .LVU3853
	clz	r3, r4
	lsrs	r3, r3, #5
	.loc 1 8519 13 view .LVU3854
	strb	r4, [r0]
	.loc 1 8520 2 is_stmt 1 view .LVU3855
	.loc 1 8520 13 is_stmt 0 view .LVU3856
	strh	r6, [r0, #1]	@ unaligned
	.loc 1 8521 2 is_stmt 1 view .LVU3857
	.loc 1 8521 25 is_stmt 0 view .LVU3858
	strb	r3, [r0, #3]
	b	.L194
.LVL701:
.L224:
	.loc 1 8521 25 view .LVU3859
.LBE2642:
.LBE2641:
.LBE2649:
.LBE2650:
	.loc 1 8686 3 is_stmt 1 view .LVU3860
.LBB2651:
.LBI2651:
	.loc 1 8582 13 view .LVU3861
.LBB2652:
	.loc 1 8585 2 view .LVU3862
	.loc 1 8587 2 view .LVU3863
	.loc 1 8587 19 is_stmt 0 view .LVU3864
	ldr	r3, .L252
	ldr	r3, [r3, #4]
	.loc 1 8587 5 view .LVU3865
	lsls	r0, r3, #2
.LVL702:
	.loc 1 8587 5 view .LVU3866
	bpl	.L230
	.loc 1 8588 22 view .LVU3867
	ldr	r3, .L252+4
	ldr	r3, [r3]
	.loc 1 8587 37 view .LVU3868
	lsls	r1, r3, #26
.LVL703:
	.loc 1 8587 37 view .LVU3869
	bpl	.L230
	.loc 1 8596 2 is_stmt 1 view .LVU3870
.LVL704:
.LBB2653:
.LBI2653:
	.loc 1 331 14 view .LVU3871
.LBB2654:
	.loc 1 333 2 view .LVU3872
	.loc 1 335 2 view .LVU3873
.LBB2655:
.LBI2655:
	.loc 1 298 13 view .LVU3874
.LBB2656:
	.loc 1 300 2 view .LVU3875
	.loc 1 302 2 view .LVU3876
.LBB2657:
.LBI2657:
	.loc 2 1493 21 view .LVU3877
.LBB2658:
	.loc 2 1495 2 view .LVU3878
	.loc 2 1495 9 is_stmt 0 view .LVU3879
	adds	r5, r5, #12
.LVL705:
	.loc 2 1495 9 view .LVU3880
	movs	r1, #2
	mov	r0, r5
	bl	net_buf_simple_add
.LVL706:
	.loc 2 1495 9 view .LVU3881
.LBE2658:
.LBE2657:
	.loc 1 303 2 is_stmt 1 view .LVU3882
	.loc 1 304 2 view .LVU3883
	.loc 1 303 11 is_stmt 0 view .LVU3884
	movw	r3, #2878
	strh	r3, [r0]	@ unaligned
.LVL707:
	.loc 1 303 11 view .LVU3885
.LBE2656:
.LBE2655:
	.loc 1 336 2 is_stmt 1 view .LVU3886
.LBB2659:
.LBI2659:
	.loc 2 1493 21 view .LVU3887
.LBB2660:
	.loc 2 1495 2 view .LVU3888
	.loc 2 1495 9 is_stmt 0 view .LVU3889
	movs	r1, #1
	mov	r0, r5
.LVL708:
	.loc 2 1495 9 view .LVU3890
	bl	net_buf_simple_add
.LVL709:
	.loc 2 1495 9 view .LVU3891
.LBE2660:
.LBE2659:
	.loc 1 337 2 is_stmt 1 view .LVU3892
	.loc 1 337 15 is_stmt 0 view .LVU3893
	movs	r3, #6
	strb	r3, [r0]
	.loc 1 339 2 is_stmt 1 view .LVU3894
.LVL710:
.LBB2661:
.LBI2661:
	.loc 2 1493 21 view .LVU3895
.LBB2662:
	.loc 2 1495 2 view .LVU3896
	.loc 2 1495 9 is_stmt 0 view .LVU3897
	movs	r1, #10
	mov	r0, r5
.LVL711:
	.loc 2 1495 9 view .LVU3898
	bl	net_buf_simple_add
.LVL712:
	.loc 2 1495 9 view .LVU3899
.LBE2662:
.LBE2661:
.LBE2654:
.LBE2653:
	.loc 1 8598 2 is_stmt 1 view .LVU3900
	.loc 1 8598 14 is_stmt 0 view .LVU3901
	strh	r6, [r0]	@ unaligned
	.loc 1 8599 2 is_stmt 1 view .LVU3902
	.loc 1 8599 53 is_stmt 0 view .LVU3903
	ldrh	r3, [r4, #32]	@ unaligned
	.loc 1 8599 20 view .LVU3904
	strh	r3, [r0, #2]	@ unaligned
	.loc 1 8600 2 is_stmt 1 view .LVU3905
	.loc 1 8600 53 is_stmt 0 view .LVU3906
	ldrh	r3, [r4, #34]	@ unaligned
	.loc 1 8600 20 view .LVU3907
	strh	r3, [r0, #4]	@ unaligned
	.loc 1 8601 2 is_stmt 1 view .LVU3908
	.loc 1 8601 48 is_stmt 0 view .LVU3909
	ldrh	r3, [r4, #36]	@ unaligned
	.loc 1 8601 15 view .LVU3910
	strh	r3, [r0, #6]	@ unaligned
	.loc 1 8602 2 is_stmt 1 view .LVU3911
	.loc 1 8602 48 is_stmt 0 view .LVU3912
	ldrh	r3, [r4, #38]	@ unaligned
	.loc 1 8602 15 view .LVU3913
	strh	r3, [r0, #8]	@ unaligned
	b	.L194
.LVL713:
.L229:
	.loc 1 8602 15 view .LVU3914
.LBE2652:
.LBE2651:
	.loc 1 8659 3 is_stmt 1 view .LVU3915
.LBB2664:
.LBI2664:
	.loc 1 8490 13 view .LVU3916
.LBB2665:
	.loc 1 8493 2 view .LVU3917
	.loc 1 8495 2 view .LVU3918
	.loc 1 8495 19 is_stmt 0 view .LVU3919
	ldr	r3, .L252
	ldr	r3, [r3, #4]
	.loc 1 8495 5 view .LVU3920
	lsls	r0, r3, #2
.LVL714:
	.loc 1 8495 5 view .LVU3921
	bpl	.L194
	.loc 1 8496 22 view .LVU3922
	ldr	r3, .L252+4
	ldr	r3, [r3]
	.loc 1 8495 37 view .LVU3923
	lsls	r1, r3, #27
.LVL715:
	.loc 1 8495 37 view .LVU3924
	bpl	.L194
	.loc 1 8500 2 is_stmt 1 view .LVU3925
.LVL716:
.LBB2666:
.LBI2666:
	.loc 1 331 14 view .LVU3926
.LBB2667:
	.loc 1 333 2 view .LVU3927
	.loc 1 335 2 view .LVU3928
.LBB2668:
.LBI2668:
	.loc 1 298 13 view .LVU3929
.LBB2669:
	.loc 1 300 2 view .LVU3930
	.loc 1 302 2 view .LVU3931
.LBB2670:
.LBI2670:
	.loc 2 1493 21 view .LVU3932
.LBB2671:
	.loc 2 1495 2 view .LVU3933
	.loc 2 1495 9 is_stmt 0 view .LVU3934
	adds	r5, r5, #12
.LVL717:
	.loc 2 1495 9 view .LVU3935
	movs	r1, #2
	mov	r0, r5
	bl	net_buf_simple_add
.LVL718:
	.loc 2 1495 9 view .LVU3936
.LBE2671:
.LBE2670:
	.loc 1 303 2 is_stmt 1 view .LVU3937
	.loc 1 304 2 view .LVU3938
	.loc 1 303 11 is_stmt 0 view .LVU3939
	movw	r3, #3390
	strh	r3, [r0]	@ unaligned
.LVL719:
	.loc 1 303 11 view .LVU3940
.LBE2669:
.LBE2668:
	.loc 1 336 2 is_stmt 1 view .LVU3941
.LBB2672:
.LBI2672:
	.loc 2 1493 21 view .LVU3942
.LBB2673:
	.loc 2 1495 2 view .LVU3943
	.loc 2 1495 9 is_stmt 0 view .LVU3944
	movs	r1, #1
	mov	r0, r5
.LVL720:
	.loc 2 1495 9 view .LVU3945
	bl	net_buf_simple_add
.LVL721:
	.loc 2 1495 9 view .LVU3946
.LBE2673:
.LBE2672:
	.loc 1 337 2 is_stmt 1 view .LVU3947
	.loc 1 337 15 is_stmt 0 view .LVU3948
	movs	r3, #5
	strb	r3, [r0]
	.loc 1 339 2 is_stmt 1 view .LVU3949
.LVL722:
.LBB2674:
.LBI2674:
	.loc 2 1493 21 view .LVU3950
.LBB2675:
	.loc 2 1495 2 view .LVU3951
	.loc 2 1495 9 is_stmt 0 view .LVU3952
	movs	r1, #12
	mov	r0, r5
.LVL723:
	.loc 2 1495 9 view .LVU3953
	bl	net_buf_simple_add
.LVL724:
	.loc 2 1495 9 view .LVU3954
.LBE2675:
.LBE2674:
.LBE2667:
.LBE2666:
	.loc 1 8502 2 is_stmt 1 view .LVU3955
	.loc 1 8502 14 is_stmt 0 view .LVU3956
	mov	r3, r0
	strh	r6, [r3], #2	@ unaligned
	.loc 1 8503 1 is_stmt 1 view .LVU3957
.LVL725:
.LBB2676:
.LBI2676:
	.loc 3 83 216 view .LVU3958
.LBB2677:
	.loc 3 83 292 view .LVU3959
	.loc 3 83 299 is_stmt 0 view .LVU3960
	ldr	r1, [r4, #32]	@ unaligned
	ldr	r2, [r4, #36]	@ unaligned
	str	r1, [r0, #2]	@ unaligned
	str	r2, [r3, #4]	@ unaligned
.LVL726:
	.loc 3 83 299 view .LVU3961
.LBE2677:
.LBE2676:
	.loc 1 8504 1 is_stmt 1 view .LVU3962
.LBB2678:
.LBI2678:
	.loc 3 83 216 view .LVU3963
.LBB2679:
	.loc 3 83 292 view .LVU3964
	.loc 3 83 299 is_stmt 0 view .LVU3965
	ldrh	r3, [r4, #40]	@ unaligned
	strh	r3, [r0, #10]	@ unaligned
.LVL727:
	.loc 3 83 299 view .LVU3966
	b	.L194
.LVL728:
.L227:
	.loc 3 83 299 view .LVU3967
.LBE2679:
.LBE2678:
.LBE2665:
.LBE2664:
	.loc 1 8704 3 is_stmt 1 view .LVU3968
	ldrb	r3, [r0, #32]	@ zero_extendqisi2
.LVL729:
.LBB2680:
.LBI2680:
	.loc 1 8548 13 view .LVU3969
.LBB2681:
	.loc 1 8552 2 view .LVU3970
	cmp	r3, #14
	beq	.L248
	.loc 1 8563 3 view .LVU3971
.LBB2682:
	.loc 1 8563 8 view .LVU3972
	.loc 1 8563 57 view .LVU3973
	.loc 1 8563 14 view .LVU3974
	.loc 1 8563 2 view .LVU3975
.LVL730:
	.loc 1 8563 41 view .LVU3976
	.loc 1 8563 176 view .LVU3977
	.loc 1 8563 187 view .LVU3978
	.loc 1 8563 275 view .LVU3979
.LBB2683:
	.loc 1 8563 3 view .LVU3980
	.loc 1 8563 5 view .LVU3981
	.loc 1 8563 3 view .LVU3982
.LBB2684:
	.loc 1 8563 8 view .LVU3983
	.loc 1 8563 2 view .LVU3984
	.loc 1 8563 12 view .LVU3985
	.loc 1 8563 102 view .LVU3986
	.loc 1 8563 104 view .LVU3987
.LBB2685:
	.loc 1 8563 107 is_stmt 0 view .LVU3988
	mov	r4, sp
	.loc 1 8563 109 is_stmt 1 view .LVU3989
	.loc 1 8563 120 view .LVU3990
.LVL731:
	.loc 1 8563 209 view .LVU3991
	.loc 1 8563 26 view .LVU3992
	.loc 1 8563 29 view .LVU3993
	.loc 1 8563 3 view .LVU3994
	.loc 1 8563 3 view .LVU3995
	.loc 1 8563 70 view .LVU3996
	.loc 1 8563 82 is_stmt 0 view .LVU3997
	sub	sp, sp, #32
	add	r1, sp, #16
.LVL732:
	.loc 1 8563 74 is_stmt 1 view .LVU3998
	.loc 1 8563 484 view .LVU3999
	.loc 1 8563 5 view .LVU4000
	.loc 1 8563 7 view .LVU4001
	.loc 1 8563 12 view .LVU4002
	.loc 1 8563 10 view .LVU4003
	.loc 1 8563 5 view .LVU4004
	.loc 1 8563 23 view .LVU4005
.LBB2686:
	.loc 1 8563 3 view .LVU4006
	.loc 1 8563 368 view .LVU4007
	.loc 1 8563 75 view .LVU4008
.LVL733:
	.loc 1 8563 2 view .LVU4009
	.loc 1 8563 2 view .LVU4010
	.loc 1 8563 2 view .LVU4011
	.loc 1 8563 38 view .LVU4012
	.loc 1 8563 67 view .LVU4013
	.loc 1 8563 93 view .LVU4014
	.loc 1 8563 119 view .LVU4015
	.loc 1 8563 586 view .LVU4016
	.loc 1 8563 648 view .LVU4017
	.loc 1 8563 1169 view .LVU4018
	.loc 1 8563 1234 view .LVU4019
	.loc 1 8563 1259 view .LVU4020
	.loc 1 8563 1260 view .LVU4021
	.loc 1 8563 1262 view .LVU4022
	.loc 1 8563 1292 view .LVU4023
	.loc 1 8563 1322 view .LVU4024
	.loc 1 8563 1354 view .LVU4025
	.loc 1 8563 1386 view .LVU4026
	.loc 1 8563 1418 view .LVU4027
	.loc 1 8563 1615 view .LVU4028
	.loc 1 8563 1639 view .LVU4029
	.loc 1 8563 1640 view .LVU4030
	.loc 1 8563 1642 view .LVU4031
	.loc 1 8563 1671 view .LVU4032
	.loc 1 8563 1700 view .LVU4033
	.loc 1 8563 1731 view .LVU4034
	.loc 1 8563 1762 view .LVU4035
	.loc 1 8563 1793 view .LVU4036
	.loc 1 8563 2000 view .LVU4037
.LBB2687:
	.loc 1 8563 2982 view .LVU4038
	.loc 1 8563 2987 view .LVU4039
	.loc 1 8563 3497 view .LVU4040
	.loc 1 8563 0 is_stmt 0 view .LVU4041
	ldr	r5, .L252+8
.LVL734:
	.loc 1 8563 0 view .LVU4042
.LBE2687:
.LBB2688:
	.loc 1 8563 176 view .LVU4043
	mov	r2, r1
	movs	r0, #3
.LVL735:
	.loc 1 8563 176 view .LVU4044
.LBE2688:
.LBE2686:
.LBE2685:
.LBE2684:
.LBE2683:
.LBE2682:
	.loc 1 8552 38 view .LVU4045
	strd	r5, r3, [r1, #20]
.LBB2697:
.LBB2696:
.LBB2695:
.LBB2694:
.LBB2691:
.LBB2689:
	.loc 1 8563 2766 is_stmt 1 view .LVU4046
	.loc 1 8563 7 view .LVU4047
.LVL736:
	.loc 1 8563 30 view .LVU4048
	.loc 1 8563 30 is_stmt 0 view .LVU4049
.LBE2689:
	.loc 1 8563 9 is_stmt 1 view .LVU4050
	.loc 1 8563 5 view .LVU4051
	.loc 1 8563 28 view .LVU4052
	.loc 1 8563 52 view .LVU4053
	.loc 1 8563 80 view .LVU4054
	.loc 1 8563 256 view .LVU4055
	.loc 1 8563 16 view .LVU4056
.LBB2690:
	.loc 1 8563 6 view .LVU4057
	.loc 1 8563 164 view .LVU4058
	.loc 1 8563 166 view .LVU4059
	.loc 1 8563 176 is_stmt 0 view .LVU4060
	str	r0, [r2, #16]!
.LVL737:
	.loc 1 8563 176 view .LVU4061
.LBE2690:
.LBE2691:
	.loc 1 8563 26 is_stmt 1 view .LVU4062
	.loc 1 8563 7 view .LVU4063
	.loc 1 8563 147 view .LVU4064
	.loc 1 8563 149 view .LVU4065
.LBB2692:
.LBI2692:
	.loc 5 26 20 view .LVU4066
.LBB2693:
	.loc 5 38 2 view .LVU4067
	.loc 5 38 7 view .LVU4068
	.loc 5 38 5 view .LVU4069
	.loc 5 39 2 view .LVU4070
	ldr	r0, .L252+12
	movs	r3, #0
.LVL738:
	.loc 5 39 2 is_stmt 0 view .LVU4071
	mov	r1, #6272
.LVL739:
	.loc 5 39 2 view .LVU4072
	bl	z_impl_z_log_msg_static_create
.LVL740:
	.loc 5 39 2 view .LVU4073
.LBE2693:
.LBE2692:
	mov	sp, r4
.LBE2694:
	.loc 1 8563 107 is_stmt 1 view .LVU4074
	.loc 1 8563 5 view .LVU4075
.LVL741:
	.loc 1 8563 42 view .LVU4076
.LBE2695:
	.loc 1 8563 6 view .LVU4077
.LBE2696:
	.loc 1 8563 278 view .LVU4078
	.loc 1 8563 5 view .LVU4079
	.loc 1 8563 18 view .LVU4080
	b	.L194
.LVL742:
.L226:
	.loc 1 8563 18 is_stmt 0 view .LVU4081
.LBE2697:
.LBE2681:
.LBE2680:
	.loc 1 8674 3 is_stmt 1 view .LVU4082
	mov	r3, r1
	mov	r2, r6
	mov	r1, r8
.LVL743:
	.loc 1 8674 3 is_stmt 0 view .LVU4083
	movs	r0, #0
.LVL744:
	.loc 1 8674 3 view .LVU4084
	bl	le_remote_feat_complete
.LVL745:
	.loc 1 8675 3 is_stmt 1 view .LVU4085
	b	.L194
.LVL746:
.L228:
	.loc 1 8663 3 view .LVU4086
.LBB2699:
.LBI2699:
	.loc 1 8507 13 view .LVU4087
.LBB2700:
	.loc 1 8510 2 view .LVU4088
	.loc 1 8512 2 view .LVU4089
	.loc 1 8512 19 is_stmt 0 view .LVU4090
	ldr	r3, .L252
	ldr	r3, [r3]
	.loc 1 8512 5 view .LVU4091
	lsls	r2, r3, #24
	.loc 1 8512 19 view .LVU4092
	mov	r4, #0
	.loc 1 8512 5 view .LVU4093
	bpl	.L194
.LVL747:
.LBB2701:
.LBI2701:
	.loc 1 8507 13 is_stmt 1 view .LVU4094
.LBB2702:
	.loc 1 8516 2 view .LVU4095
.LBB2703:
.LBI2703:
	.loc 1 298 13 view .LVU4096
.LBB2704:
	.loc 1 300 2 view .LVU4097
	.loc 1 302 2 view .LVU4098
.LBB2705:
.LBI2705:
	.loc 2 1493 21 view .LVU4099
.LBB2706:
	.loc 2 1495 2 view .LVU4100
	.loc 2 1495 9 is_stmt 0 view .LVU4101
	adds	r5, r5, #12
	movs	r1, #2
.LVL748:
	.loc 2 1495 9 view .LVU4102
	mov	r0, r5
.LVL749:
	.loc 2 1495 9 view .LVU4103
	bl	net_buf_simple_add
.LVL750:
	.loc 2 1495 9 view .LVU4104
.LBE2706:
.LBE2705:
	.loc 1 303 2 is_stmt 1 view .LVU4105
	.loc 1 304 2 view .LVU4106
	.loc 1 303 11 is_stmt 0 view .LVU4107
	mov	r3, #1032
	strh	r3, [r0]	@ unaligned
.LVL751:
	.loc 1 303 11 view .LVU4108
.LBE2704:
.LBE2703:
	.loc 1 8517 2 is_stmt 1 view .LVU4109
.LBB2707:
.LBI2707:
	.loc 2 1493 21 view .LVU4110
.LBB2708:
	.loc 2 1495 2 view .LVU4111
	.loc 2 1495 9 is_stmt 0 view .LVU4112
	movs	r1, #4
	mov	r0, r5
.LVL752:
	.loc 2 1495 9 view .LVU4113
	bl	net_buf_simple_add
.LVL753:
	.loc 2 1495 9 view .LVU4114
.LBE2708:
.LBE2707:
	.loc 1 8519 2 is_stmt 1 view .LVU4115
	.loc 1 8521 14 is_stmt 0 view .LVU4116
	movs	r3, #1
	.loc 1 8519 13 view .LVU4117
	strb	r4, [r0]
	.loc 1 8520 2 is_stmt 1 view .LVU4118
	.loc 1 8520 13 is_stmt 0 view .LVU4119
	strh	r6, [r0, #1]	@ unaligned
	.loc 1 8521 2 is_stmt 1 view .LVU4120
	.loc 1 8521 14 is_stmt 0 view .LVU4121
	strb	r3, [r0, #3]
	b	.L194
.LVL754:
.L245:
	.loc 1 8521 14 view .LVU4122
.LBE2702:
.LBE2701:
.LBE2700:
.LBE2699:
.LBE2713:
.LBE2721:
.LBB2722:
.LBB2605:
.LBB2598:
.LBB2488:
	.loc 1 8010 3 is_stmt 1 view .LVU4123
	ldrb	r0, [r4, #30]	@ zero_extendqisi2
	add	r3, r4, #37
	movs	r2, #255
	add	r1, r4, #31
	bl	ll_rl_crpa_set
.LVL755:
	b	.L206
.LVL756:
.L244:
	.loc 1 8002 75 view .LVU4124
	ldr	r2, .L252+16
	ldr	r1, .L252+20
.LVL757:
	.loc 1 8002 75 is_stmt 0 view .LVU4125
	ldr	r0, .L252+24
.LVL758:
	.loc 1 8002 75 view .LVU4126
	movw	r3, #8002
	bl	assert_print
.LVL759:
	.loc 1 8002 249 is_stmt 1 view .LVU4127
	.loc 1 8002 254 view .LVU4128
	.syntax unified
@ 8002 "/home/g/mise-work/zmk-firmware/zmk/zephyr/subsys/bluetooth/controller/hci/hci.c" 1
	eors.n r0, r0
	msr BASEPRI, r0
	mov r0, #3
	svc #2
	
@ 0 "" 2
	.thumb
	.syntax unified
	b	.L205
.LVL760:
.L230:
	.loc 1 8002 254 is_stmt 0 view .LVU4129
.LBE2488:
.LBE2598:
.LBE2605:
.LBE2722:
.LBB2723:
.LBB2714:
.LBB2709:
.LBB2663:
	.loc 1 8590 3 is_stmt 1 view .LVU4130
	movs	r3, #0
	strd	r3, r3, [sp, #8]
.LVL761:
	.loc 1 8590 3 is_stmt 0 view .LVU4131
	strd	r3, r3, [sp]
	movs	r2, #26
	movs	r1, #2
	mov	r0, r6
	bl	ll_conn_update
.LVL762:
	.loc 1 8593 3 is_stmt 1 view .LVU4132
	b	.L194
.LVL763:
.L210:
	.loc 1 8593 3 is_stmt 0 view .LVU4133
.LBE2663:
.LBE2709:
.LBE2714:
.LBE2723:
.LBB2724:
.LBB2606:
.LBB2599:
.LBB2489:
	.loc 1 8031 2 is_stmt 1 view .LVU4134
	.loc 1 8031 5 is_stmt 0 view .LVU4135
	cmp	r9, #0
	bne	.L249
	.loc 1 8069 2 is_stmt 1 view .LVU4136
.LVL764:
.LBB2463:
.LBI2463:
	.loc 1 331 14 view .LVU4137
.LBB2464:
	.loc 1 333 2 view .LVU4138
	.loc 1 335 2 view .LVU4139
.LBB2465:
.LBI2465:
	.loc 1 298 13 view .LVU4140
.LBB2466:
	.loc 1 300 2 view .LVU4141
	.loc 1 302 2 view .LVU4142
.LBB2467:
.LBI2467:
	.loc 2 1493 21 view .LVU4143
.LBB2468:
	.loc 2 1495 2 view .LVU4144
	.loc 2 1495 9 is_stmt 0 view .LVU4145
	movs	r1, #2
	mov	r0, r5
	bl	net_buf_simple_add
.LVL765:
	.loc 2 1495 9 view .LVU4146
.LBE2468:
.LBE2467:
	.loc 1 303 2 is_stmt 1 view .LVU4147
	.loc 1 304 2 view .LVU4148
	.loc 1 303 11 is_stmt 0 view .LVU4149
	movw	r3, #4926
	strh	r3, [r0]	@ unaligned
.LVL766:
	.loc 1 303 11 view .LVU4150
.LBE2466:
.LBE2465:
	.loc 1 336 2 is_stmt 1 view .LVU4151
.LBB2472:
.LBI2472:
	.loc 2 1493 21 view .LVU4152
.LBB2473:
	.loc 2 1495 2 view .LVU4153
	.loc 2 1495 9 is_stmt 0 view .LVU4154
	movs	r1, #1
	mov	r0, r5
.LVL767:
	.loc 2 1495 9 view .LVU4155
	bl	net_buf_simple_add
.LVL768:
	.loc 2 1495 9 view .LVU4156
.LBE2473:
.LBE2472:
	.loc 1 337 2 is_stmt 1 view .LVU4157
	.loc 1 337 15 is_stmt 0 view .LVU4158
	movs	r3, #1
	strb	r3, [r0]
	.loc 1 339 2 is_stmt 1 view .LVU4159
.LVL769:
.LBB2475:
.LBI2475:
	.loc 2 1493 21 view .LVU4160
.LBB2476:
	.loc 2 1495 2 view .LVU4161
	.loc 2 1495 9 is_stmt 0 view .LVU4162
	movs	r1, #18
	mov	r0, r5
.LVL770:
	.loc 2 1495 9 view .LVU4163
	bl	net_buf_simple_add
.LVL771:
	.loc 2 1495 9 view .LVU4164
.LBE2476:
.LBE2475:
.LBE2464:
.LBE2463:
	.loc 1 8071 2 is_stmt 1 view .LVU4165
	.loc 1 8072 3 view .LVU4166
.LBB2482:
.LBI2482:
	.loc 3 86 189 view .LVU4167
.LBB2483:
	.loc 3 86 238 view .LVU4168
	.loc 3 86 245 is_stmt 0 view .LVU4169
	str	r9, [r0, #1]	@ unaligned
	str	r9, [r0, #5]	@ unaligned
	str	r9, [r0, #9]	@ unaligned
	str	r9, [r0, #13]	@ unaligned
	strb	r9, [r0, #17]
.LVL772:
	.loc 3 86 245 view .LVU4170
.LBE2483:
.LBE2482:
	.loc 1 8073 3 is_stmt 1 view .LVU4171
	.loc 1 8073 16 is_stmt 0 view .LVU4172
	strb	r8, [r0]
	.loc 1 8074 3 is_stmt 1 view .LVU4173
	b	.L194
.LVL773:
.L246:
	.loc 1 8069 2 view .LVU4174
.LBB2484:
	.loc 1 331 14 view .LVU4175
.LBB2481:
	.loc 1 333 2 view .LVU4176
	.loc 1 335 2 view .LVU4177
.LBB2478:
	.loc 1 298 13 view .LVU4178
.LBB2471:
	.loc 1 300 2 view .LVU4179
	.loc 1 302 2 view .LVU4180
.LBB2470:
	.loc 2 1493 21 view .LVU4181
.LBB2469:
	.loc 2 1495 2 view .LVU4182
	.loc 2 1495 9 is_stmt 0 view .LVU4183
	movs	r1, #2
	mov	r0, r5
	bl	net_buf_simple_add
.LVL774:
	.loc 2 1495 9 view .LVU4184
.LBE2469:
.LBE2470:
	.loc 1 303 2 is_stmt 1 view .LVU4185
	.loc 1 304 2 view .LVU4186
	.loc 1 303 11 is_stmt 0 view .LVU4187
	movw	r3, #4926
	strh	r3, [r0]	@ unaligned
.LVL775:
	.loc 1 303 11 view .LVU4188
.LBE2471:
.LBE2478:
	.loc 1 336 2 is_stmt 1 view .LVU4189
.LBB2479:
	.loc 2 1493 21 view .LVU4190
.LBB2474:
	.loc 2 1495 2 view .LVU4191
	.loc 2 1495 9 is_stmt 0 view .LVU4192
	movs	r1, #1
	mov	r0, r5
.LVL776:
	.loc 2 1495 9 view .LVU4193
	bl	net_buf_simple_add
.LVL777:
	.loc 2 1495 9 view .LVU4194
.LBE2474:
.LBE2479:
	.loc 1 337 2 is_stmt 1 view .LVU4195
	.loc 1 337 15 is_stmt 0 view .LVU4196
	movs	r3, #1
	strb	r3, [r0]
	.loc 1 339 2 is_stmt 1 view .LVU4197
.LVL778:
.LBB2480:
	.loc 2 1493 21 view .LVU4198
.LBB2477:
	.loc 2 1495 2 view .LVU4199
	.loc 2 1495 9 is_stmt 0 view .LVU4200
	movs	r1, #18
	mov	r0, r5
.LVL779:
	.loc 2 1495 9 view .LVU4201
	bl	net_buf_simple_add
.LVL780:
	.loc 2 1495 9 view .LVU4202
.LBE2477:
.LBE2480:
.LBE2481:
.LBE2484:
	.loc 1 8071 2 is_stmt 1 view .LVU4203
	.loc 1 8077 2 view .LVU4204
	.loc 1 8077 15 is_stmt 0 view .LVU4205
	strb	r8, [r0]
	.loc 1 8078 2 is_stmt 1 view .LVU4206
	.loc 1 8078 15 is_stmt 0 view .LVU4207
	strh	r6, [r0, #1]	@ unaligned
	.loc 1 8079 2 is_stmt 1 view .LVU4208
	.loc 1 8079 17 is_stmt 0 view .LVU4209
	ldrb	r3, [r4, #29]	@ zero_extendqisi2
	.loc 1 8079 13 view .LVU4210
	strb	r3, [r0, #3]
	.loc 1 8080 2 is_stmt 1 view .LVU4211
	.loc 1 8080 44 is_stmt 0 view .LVU4212
	ldrb	r3, [r4, #30]	@ zero_extendqisi2
	and	r3, r3, #1
	.loc 1 8080 23 view .LVU4213
	strb	r3, [r0, #4]
	.loc 1 8081 1 is_stmt 1 view .LVU4214
.LVL781:
.LBB2485:
.LBI2485:
	.loc 3 83 216 view .LVU4215
.LBB2486:
	.loc 3 83 292 view .LVU4216
	.loc 3 83 299 is_stmt 0 view .LVU4217
	ldr	r3, [r4, #31]	@ unaligned
	str	r3, [r0, #5]	@ unaligned
	ldrh	r3, [r4, #35]	@ unaligned
	strh	r3, [r0, #9]	@ unaligned
.LVL782:
	.loc 3 83 299 view .LVU4218
.LBE2486:
.LBE2485:
	.loc 1 8082 2 is_stmt 1 view .LVU4219
	.loc 1 8082 22 is_stmt 0 view .LVU4220
	ldrh	r3, [r4, #50]
	.loc 1 8082 17 view .LVU4221
	strh	r3, [r0, #11]	@ unaligned
	.loc 1 8083 2 is_stmt 1 view .LVU4222
	.loc 1 8083 21 is_stmt 0 view .LVU4223
	ldrh	r3, [r4, #52]
	.loc 1 8083 16 view .LVU4224
	strh	r3, [r0, #13]	@ unaligned
	.loc 1 8084 2 is_stmt 1 view .LVU4225
	.loc 1 8084 26 is_stmt 0 view .LVU4226
	ldrh	r3, [r4, #54]
	.loc 1 8084 21 view .LVU4227
	strh	r3, [r0, #15]	@ unaligned
	.loc 1 8085 2 is_stmt 1 view .LVU4228
	.loc 1 8085 27 is_stmt 0 view .LVU4229
	ldrb	r3, [r4, #56]	@ zero_extendqisi2
	.loc 1 8085 23 view .LVU4230
	strb	r3, [r0, #17]
	b	.L194
.LVL783:
.L248:
	.loc 1 8085 23 view .LVU4231
.LBE2489:
.LBE2599:
.LBE2606:
.LBE2724:
.LBB2725:
.LBB2715:
.LBB2710:
.LBB2698:
	.loc 1 8554 3 is_stmt 1 view .LVU4232
	mov	r3, r1
	mov	r2, r6
	movs	r1, #0
.LVL784:
	.loc 1 8554 3 is_stmt 0 view .LVU4233
	movs	r0, #26
.LVL785:
	.loc 1 8554 3 view .LVU4234
	bl	le_remote_feat_complete
.LVL786:
	.loc 1 8556 3 is_stmt 1 view .LVU4235
	b	.L194
.LVL787:
.L249:
	.loc 1 8556 3 is_stmt 0 view .LVU4236
.LBE2698:
.LBE2710:
.LBE2715:
.LBE2725:
.LBB2726:
.LBB2607:
.LBB2600:
.LBB2490:
.LBB2487:
	.loc 1 8032 3 is_stmt 1 view .LVU4237
	.loc 1 8034 3 view .LVU4238
.LBB2459:
	.loc 1 331 14 view .LVU4239
.LBB2451:
	.loc 1 333 2 view .LVU4240
	.loc 1 335 2 view .LVU4241
.LBB2447:
	.loc 1 298 13 view .LVU4242
.LBB2439:
	.loc 1 300 2 view .LVU4243
	.loc 1 302 2 view .LVU4244
.LBB2437:
	.loc 2 1493 21 view .LVU4245
.LBB2435:
	.loc 2 1495 2 view .LVU4246
	.loc 2 1495 9 is_stmt 0 view .LVU4247
	movs	r1, #2
	mov	r0, r5
	bl	net_buf_simple_add
.LVL788:
	.loc 2 1495 9 view .LVU4248
.LBE2435:
.LBE2437:
	.loc 1 303 2 is_stmt 1 view .LVU4249
	.loc 1 304 2 view .LVU4250
	.loc 1 303 11 is_stmt 0 view .LVU4251
	movw	r3, #7998
	strh	r3, [r0]	@ unaligned
.LVL789:
	.loc 1 303 11 view .LVU4252
.LBE2439:
.LBE2447:
	.loc 1 336 2 is_stmt 1 view .LVU4253
.LBB2448:
	.loc 2 1493 21 view .LVU4254
.LBB2443:
	.loc 2 1495 2 view .LVU4255
	.loc 2 1495 9 is_stmt 0 view .LVU4256
	movs	r1, #1
	mov	r0, r5
.LVL790:
	.loc 2 1495 9 view .LVU4257
	bl	net_buf_simple_add
.LVL791:
	.loc 2 1495 9 view .LVU4258
.LBE2443:
.LBE2448:
	.loc 1 337 2 is_stmt 1 view .LVU4259
	.loc 1 337 15 is_stmt 0 view .LVU4260
	movs	r3, #10
	strb	r3, [r0]
	.loc 1 339 2 is_stmt 1 view .LVU4261
.LVL792:
.LBB2449:
	.loc 2 1493 21 view .LVU4262
.LBB2446:
	.loc 2 1495 2 view .LVU4263
	.loc 2 1495 9 is_stmt 0 view .LVU4264
	movs	r1, #30
	mov	r0, r5
.LVL793:
	.loc 2 1495 9 view .LVU4265
	bl	net_buf_simple_add
.LVL794:
	mov	r4, r0
.LVL795:
	.loc 2 1495 9 view .LVU4266
.LBE2446:
.LBE2449:
.LBE2451:
.LBE2459:
	.loc 1 8037 3 is_stmt 1 view .LVU4267
	.loc 1 8038 4 view .LVU4268
.LBB2460:
.LBI2460:
	.loc 3 86 189 view .LVU4269
.LBB2461:
	.loc 3 86 238 view .LVU4270
	.loc 3 86 245 is_stmt 0 view .LVU4271
	movs	r2, #29
	movs	r1, #0
	adds	r0, r0, #1
.LVL796:
	.loc 3 86 245 view .LVU4272
	bl	memset
.LVL797:
	.loc 3 86 245 view .LVU4273
.LBE2461:
.LBE2460:
	.loc 1 8039 4 is_stmt 1 view .LVU4274
	.loc 1 8039 18 is_stmt 0 view .LVU4275
	strb	r8, [r4]
	.loc 1 8040 4 is_stmt 1 view .LVU4276
	b	.L194
.LVL798:
.L247:
	.loc 1 8040 4 is_stmt 0 view .LVU4277
.LBE2487:
.LBE2490:
.LBE2600:
.LBB2601:
.LBB2507:
	.loc 1 8139 75 is_stmt 1 view .LVU4278
	ldr	r2, .L252+16
	ldr	r1, .L252+28
	ldr	r0, .L252+24
.LVL799:
	.loc 1 8139 75 is_stmt 0 view .LVU4279
	movw	r3, #8139
	bl	assert_print
.LVL800:
	.loc 1 8139 249 is_stmt 1 view .LVU4280
	.loc 1 8139 254 view .LVU4281
	.syntax unified
@ 8139 "/home/g/mise-work/zmk-firmware/zmk/zephyr/subsys/bluetooth/controller/hci/hci.c" 1
	eors.n r0, r0
	msr BASEPRI, r0
	mov r0, #3
	svc #2
	
@ 0 "" 2
	.thumb
	.syntax unified
	b	.L213
.LVL801:
.L196:
	.loc 1 8139 254 is_stmt 0 view .LVU4282
.LBE2507:
.LBE2601:
	.loc 1 8484 3 is_stmt 1 view .LVU4283
	.loc 1 8484 8 view .LVU4284
	.loc 1 8484 20 view .LVU4285
	ldr	r2, .L252+16
	ldr	r1, .L252+32
.LVL802:
	.loc 1 8484 20 is_stmt 0 view .LVU4286
	ldr	r0, .L252+24
.LVL803:
	.loc 1 8484 20 view .LVU4287
	movw	r3, #8484
	bl	assert_print
.LVL804:
	.loc 1 8484 138 is_stmt 1 view .LVU4288
	.loc 1 8484 143 view .LVU4289
	.syntax unified
@ 8484 "/home/g/mise-work/zmk-firmware/zmk/zephyr/subsys/bluetooth/controller/hci/hci.c" 1
	eors.n r0, r0
	msr BASEPRI, r0
	mov r0, #3
	svc #2
	
@ 0 "" 2
	.loc 1 8484 141 view .LVU4290
	.loc 1 8484 6 view .LVU4291
	.loc 1 8485 3 view .LVU4292
	.thumb
	.syntax unified
	b	.L194
.L253:
	.align	2
.L252:
	.word	event_mask
	.word	le_event_mask
	.word	.LC14
	.word	log_const_bt_ctlr_hci
	.word	.LC8
	.word	.LC11
	.word	.LC10
	.word	.LC12
	.word	.LC9
.LBE2607:
.LBE2726:
	.cfi_endproc
.LFE714:
	.size	hci_evt_encode, .-hci_evt_encode
	.section	.text.hci_num_cmplt_encode,"ax",%progbits
	.align	1
	.p2align 2,,3
	.global	hci_num_cmplt_encode
	.syntax unified
	.thumb
	.thumb_func
	.type	hci_num_cmplt_encode, %function
hci_num_cmplt_encode:
.LVL805:
.LFB715:
	.loc 1 8776 1 view -0
	.cfi_startproc
	@ args = 0, pretend = 0, frame = 0
	@ frame_needed = 0, uses_anonymous_args = 0
	.loc 1 8777 2 view .LVU4294
	.loc 1 8778 2 view .LVU4295
	.loc 1 8779 2 view .LVU4296
	.loc 1 8780 2 view .LVU4297
	.loc 1 8782 2 view .LVU4298
	.loc 1 8784 2 view .LVU4299
	.loc 1 8785 2 view .LVU4300
.LBB2727:
.LBI2727:
	.loc 1 298 13 view .LVU4301
.LBB2728:
	.loc 1 300 2 view .LVU4302
	.loc 1 302 2 view .LVU4303
.LBB2729:
.LBI2729:
	.loc 2 1493 21 view .LVU4304
.LBB2730:
	.loc 2 1495 2 view .LVU4305
.LBE2730:
.LBE2729:
.LBE2728:
.LBE2727:
	.loc 1 8776 1 is_stmt 0 view .LVU4306
	push	{r4, r5, r6, lr}
	.cfi_def_cfa_offset 16
	.cfi_offset 4, -16
	.cfi_offset 5, -12
	.cfi_offset 6, -8
	.cfi_offset 14, -4
.LBB2740:
.LBB2737:
.LBB2734:
.LBB2731:
	.loc 2 1495 9 view .LVU4307
	add	r4, r0, #12
.LBE2731:
.LBE2734:
.LBE2737:
.LBE2740:
	.loc 1 8776 1 view .LVU4308
	mov	r6, r1
.LBB2741:
.LBB2738:
.LBB2735:
.LBB2732:
	.loc 2 1495 9 view .LVU4309
	mov	r0, r4
.LVL806:
	.loc 2 1495 9 view .LVU4310
	movs	r1, #2
.LVL807:
	.loc 2 1495 9 view .LVU4311
.LBE2732:
.LBE2735:
.LBE2738:
.LBE2741:
	.loc 1 8776 1 view .LVU4312
	mov	r5, r2
.LBB2742:
.LBB2739:
.LBB2736:
.LBB2733:
	.loc 2 1495 9 view .LVU4313
	bl	net_buf_simple_add
.LVL808:
	.loc 2 1495 9 view .LVU4314
.LBE2733:
.LBE2736:
	.loc 1 303 2 is_stmt 1 view .LVU4315
	.loc 1 304 2 view .LVU4316
	.loc 1 303 11 is_stmt 0 view .LVU4317
	movw	r3, #1299
	strh	r3, [r0]	@ unaligned
.LVL809:
	.loc 1 303 11 view .LVU4318
.LBE2739:
.LBE2742:
	.loc 1 8787 2 is_stmt 1 view .LVU4319
.LBB2743:
.LBI2743:
	.loc 2 1493 21 view .LVU4320
.LBB2744:
	.loc 2 1495 2 view .LVU4321
	.loc 2 1495 9 is_stmt 0 view .LVU4322
	movs	r1, #5
	mov	r0, r4
.LVL810:
	.loc 2 1495 9 view .LVU4323
	bl	net_buf_simple_add
.LVL811:
	.loc 2 1495 9 view .LVU4324
.LBE2744:
.LBE2743:
	.loc 1 8788 2 is_stmt 1 view .LVU4325
	.loc 1 8788 18 is_stmt 0 view .LVU4326
	movs	r3, #1
	strb	r3, [r0]
	.loc 1 8789 2 is_stmt 1 view .LVU4327
.LVL812:
	.loc 1 8790 2 view .LVU4328
	.loc 1 8790 13 is_stmt 0 view .LVU4329
	strh	r6, [r0, #1]	@ unaligned
	.loc 1 8791 2 is_stmt 1 view .LVU4330
	.loc 1 8791 12 is_stmt 0 view .LVU4331
	strh	r5, [r0, #3]	@ unaligned
	.loc 1 8792 1 view .LVU4332
	pop	{r4, r5, r6, pc}
	.loc 1 8792 1 view .LVU4333
	.cfi_endproc
.LFE715:
	.size	hci_num_cmplt_encode, .-hci_num_cmplt_encode
	.section	.text.hci_get_class,"ax",%progbits
	.align	1
	.p2align 2,,3
	.global	hci_get_class
	.syntax unified
	.thumb
	.thumb_func
	.type	hci_get_class, %function
hci_get_class:
.LVL813:
.LFB716:
	.loc 1 8796 1 is_stmt 1 view -0
	.cfi_startproc
	@ args = 0, pretend = 0, frame = 0
	@ frame_needed = 0, uses_anonymous_args = 0
	@ link register save eliminated.
	.loc 1 8798 2 view .LVU4335
	.loc 1 8801 2 view .LVU4336
	.loc 1 8801 18 is_stmt 0 view .LVU4337
	ldrb	r3, [r0, #4]	@ zero_extendqisi2
	.loc 1 8801 5 view .LVU4338
	cmp	r3, #3
	beq	.L257
	.loc 1 8803 3 is_stmt 1 view .LVU4339
	cmp	r3, #23
	beq	.L259
	subs	r3, r3, #24
	cmp	r3, #5
	ite	hi
	movhi	r0, #0
.LVL814:
	.loc 1 8803 3 is_stmt 0 view .LVU4340
	movls	r0, #3
	bx	lr
.LVL815:
.L259:
	.loc 1 8890 11 view .LVU4341
	movs	r0, #1
.LVL816:
	.loc 1 8948 1 view .LVU4342
	bx	lr
.LVL817:
.L257:
	.loc 1 8938 9 is_stmt 1 view .LVU4343
	.loc 1 8938 29 is_stmt 0 view .LVU4344
	ldrb	r3, [r0, #28]	@ zero_extendqisi2
	.loc 1 8938 12 view .LVU4345
	and	r3, r3, #3
	.loc 1 8939 10 view .LVU4346
	cmp	r3, #3
	ite	ne
	movne	r0, #5
.LVL818:
	.loc 1 8939 10 view .LVU4347
	moveq	r0, #4
	bx	lr
	.cfi_endproc
.LFE716:
	.size	hci_get_class, .-hci_get_class
	.section	.text.hci_init,"ax",%progbits
	.align	1
	.p2align 2,,3
	.global	hci_init
	.syntax unified
	.thumb
	.thumb_func
	.type	hci_init, %function
hci_init:
.LVL819:
.LFB717:
	.loc 1 8951 1 is_stmt 1 view -0
	.cfi_startproc
	@ args = 0, pretend = 0, frame = 0
	@ frame_needed = 0, uses_anonymous_args = 0
	@ link register save eliminated.
	.loc 1 8955 2 view .LVU4349
.LBB2747:
.LBI2747:
	.loc 1 432 13 view .LVU4350
.LBB2748:
	.loc 1 451 2 view .LVU4351
	.loc 1 451 13 is_stmt 0 view .LVU4352
	vldr.64	d7, .L263	@ int
	ldr	r3, .L263+24
	.loc 1 452 20 view .LVU4353
	ldr	r2, .L263+28
	.loc 1 453 16 view .LVU4354
	ldr	r1, .L263+32
	.loc 1 451 13 view .LVU4355
	vstr.64	d7, [r3]	@ int
	.loc 1 452 2 is_stmt 1 view .LVU4356
	.loc 1 452 20 is_stmt 0 view .LVU4357
	vldr.64	d7, .L263+8	@ int
	vstr.64	d7, [r2]	@ int
	.loc 1 453 2 is_stmt 1 view .LVU4358
	.loc 1 453 16 is_stmt 0 view .LVU4359
	vldr.64	d7, .L263+16	@ int
	.loc 1 461 13 view .LVU4360
	ldr	r3, .L263+36
	movs	r2, #0
	.loc 1 453 16 view .LVU4361
	vstr.64	d7, [r1]	@ int
	.loc 1 455 2 is_stmt 1 view .LVU4362
	.loc 1 461 2 view .LVU4363
	.loc 1 461 13 is_stmt 0 view .LVU4364
	str	r2, [r3]
	.loc 1 479 2 is_stmt 1 view .LVU4365
	b	hci_recv_fifo_reset
.LVL820:
.L264:
	.loc 1 479 2 is_stmt 0 view .LVU4366
	.align	3
.L263:
	.word	-1
	.word	8191
	.word	0
	.word	0
	.word	31
	.word	0
	.word	event_mask
	.word	event_mask_page_2
	.word	le_event_mask
	.word	conn_count
.LBE2748:
.LBE2747:
	.cfi_endproc
.LFE717:
	.size	hci_init, .-hci_init
	.section	.data.le_event_mask,"aw"
	.align	3
	.type	le_event_mask, %object
	.size	le_event_mask, 8
le_event_mask:
	.word	31
	.word	0
	.section	.bss.event_mask_page_2,"aw",%nobits
	.align	3
	.type	event_mask_page_2, %object
	.size	event_mask_page_2, 8
event_mask_page_2:
	.space	8
	.section	.data.event_mask,"aw"
	.align	3
	.type	event_mask, %object
	.size	event_mask, 8
event_mask:
	.word	-1
	.word	8191
	.section	.bss.conn_count,"aw",%nobits
	.align	2
	.type	conn_count, %object
	.size	conn_count, 4
conn_count:
	.space	4
	.section	.bss._opcode,"aw",%nobits
	.align	1
	.type	_opcode, %object
	.size	_opcode, 2
_opcode:
	.space	2
	.global	log_const_bt_ctlr_hci
	.section	.rodata.str1.4,"aMS",%progbits,1
	.align	2
.LC16:
	.ascii	"bt_ctlr_hci\000"
	.section	._log_const.static.log_const_bt_ctlr_hci_,"a"
	.align	2
	.type	log_const_bt_ctlr_hci, %object
	.size	log_const_bt_ctlr_hci, 8
log_const_bt_ctlr_hci:
	.word	.LC16
	.byte	3
	.space	3
	.text
.Letext0:
	.file 9 "/home/g/zephyr-sdk-0.16.3/arm-zephyr-eabi/lib/gcc/arm-zephyr-eabi/12.2.0/include/stddef.h"
	.file 10 "/home/g/zephyr-sdk-0.16.3/arm-zephyr-eabi/picolibc/include/machine/_default_types.h"
	.file 11 "/home/g/zephyr-sdk-0.16.3/arm-zephyr-eabi/picolibc/include/sys/_stdint.h"
	.file 12 "/home/g/mise-work/zmk-firmware/zmk/zephyr/include/zephyr/sys/dlist.h"
	.file 13 "/home/g/mise-work/zmk-firmware/zmk/zephyr/include/zephyr/sys/slist.h"
	.file 14 "/home/g/mise-work/zmk-firmware/zmk/zephyr/include/zephyr/sys_clock.h"
	.file 15 "/home/g/mise-work/zmk-firmware/zmk/zephyr/include/zephyr/fatal_types.h"
	.file 16 "/home/g/mise-work/zmk-firmware/zmk/zephyr/include/zephyr/kernel.h"
	.file 17 "/home/g/mise-work/zmk-firmware/zmk/zephyr/include/zephyr/bluetooth/hci_types.h"
	.file 18 "/home/g/mise-work/zmk-firmware/zmk/zephyr/include/zephyr/bluetooth/buf.h"
	.file 19 "/home/g/mise-work/zmk-firmware/zmk/zephyr/include/zephyr/bluetooth/hci_vs.h"
	.file 20 "/home/g/mise-work/zmk-firmware/zmk/zephyr/subsys/bluetooth/controller/./util/memq.h"
	.file 21 "/home/g/mise-work/zmk-firmware/zmk/zephyr/subsys/bluetooth/controller/./ll_sw/pdu_df.h"
	.file 22 "/home/g/mise-work/zmk-firmware/zmk/zephyr/subsys/bluetooth/controller/ll_sw/nordic/lll/pdu_vendor.h"
	.file 23 "/home/g/mise-work/zmk-firmware/zmk/zephyr/subsys/bluetooth/controller/./ll_sw/pdu.h"
	.file 24 "/home/g/mise-work/zmk-firmware/zmk/zephyr/subsys/bluetooth/controller/./ll_sw/lll.h"
	.file 25 "/home/g/mise-work/zmk-firmware/zmk/zephyr/subsys/bluetooth/controller/ll_sw/nordic/lll/lll_df_types.h"
	.file 26 "/home/g/mise-work/zmk-firmware/zmk/zephyr/subsys/bluetooth/controller/./ll_sw/lll_conn.h"
	.file 27 "/home/g/mise-work/zmk-firmware/zmk/zephyr/subsys/bluetooth/controller/./ll_sw/ull_conn_types.h"
	.file 28 "/home/g/mise-work/zmk-firmware/zmk/zephyr/include/zephyr/logging/log_instance.h"
	.file 29 "/home/g/mise-work/zmk-firmware/zmk/zephyr/include/zephyr/sys/cbprintf.h"
	.file 30 "/home/g/mise-work/zmk-firmware/zmk/zephyr/include/zephyr/logging/log_msg.h"
	.file 31 "/home/g/mise-work/zmk-firmware/zmk/zephyr/subsys/bluetooth/controller/include/ll.h"
	.file 32 "/home/g/mise-work/zmk-firmware/zmk/zephyr/include/zephyr/sys/__assert.h"
	.file 33 "/home/g/mise-work/zmk-firmware/zmk/zephyr/include/zephyr/drivers/bluetooth/hci_driver.h"
	.file 34 "/home/g/mise-work/zmk-firmware/zmk/zephyr/subsys/bluetooth/controller/./hal/ecb.h"
	.file 35 "/home/g/mise-work/zmk-firmware/zmk/zephyr/subsys/bluetooth/controller/hci/hci_internal.h"
	.file 36 "/home/g/mise-work/zmk-firmware/zmk/zephyr/include/zephyr/sys/cbprintf_internal.h"
	.file 37 "/home/g/mise-work/zmk-firmware/zmk/zephyr/subsys/bluetooth/controller/include/ll_settings.h"
	.file 38 "/home/g/mise-work/zmk-firmware/zmk/zephyr/include/zephyr/syscall.h"
	.file 39 "<built-in>"