	.cpu cortex-m4
	.arch armv7e-m
	.fpu fpv4-sp-d16
	.eabi_attribute 27, 1
	.eabi_attribute 28, 1
	.eabi_attribute 20, 1
	.eabi_attribute 21, 1
	.eabi_attribute 23, 3
	.eabi_attribute 24, 1
	.eabi_attribute 25, 1
	.eabi_attribute 26, 1
	.eabi_attribute 30, 4
	.eabi_attribute 34, 1
	.eabi_attribute 38, 1
	.eabi_attribute 18, 4
	.file	"behavior_ext_power.c"
	.text
.Ltext0:
	.cfi_sections	.debug_frame
	.file 1 "/home/g/mise-work/zmk-firmware/zmk/app/src/behaviors/behavior_ext_power.c"
	.section	.text.ext_power_enable,"ax",%progbits
	.align	1
	.syntax unified
	.thumb
	.thumb_func
	.type	ext_power_enable, %function
ext_power_enable:
.LVL0:
.LFB555:
	.file 2 "/home/g/mise-work/zmk-firmware/zmk/app/build/zephyr/include/generated/syscalls/ext_power.h"
	.loc 2 27 1 view -0
	.cfi_startproc
	@ args = 0, pretend = 0, frame = 0
	@ frame_needed = 0, uses_anonymous_args = 0
	@ link register save eliminated.
	.loc 2 34 2 view .LVU1
	.loc 2 34 7 view .LVU2
	.loc 2 34 5 view .LVU3
	.loc 2 35 2 view .LVU4
.LVL1:
.LBB199:
.LBI199:
	.file 3 "/home/g/mise-work/zmk-firmware/zmk/app/include/drivers/ext_power.h"
	.loc 3 47 19 view .LVU5
.LBB200:
	.loc 3 48 5 view .LVU6
	.loc 3 50 5 view .LVU7
	.loc 3 50 12 is_stmt 0 view .LVU8
	ldr	r3, [r0, #8]
	ldr	r3, [r3]
	.loc 3 50 8 view .LVU9
	cbz	r3, .L2
	.loc 3 54 5 is_stmt 1 view .LVU10
	.loc 3 54 12 is_stmt 0 view .LVU11
	bx	r3
.LVL2:
.L2:
	.loc 3 54 12 view .LVU12
.LBE200:
.LBE199:
	.loc 2 36 1 view .LVU13
	mvn	r0, #133
.LVL3:
	.loc 2 36 1 view .LVU14
	bx	lr
	.cfi_endproc
.LFE555:
	.size	ext_power_enable, .-ext_power_enable
	.section	.text.ext_power_disable,"ax",%progbits
	.align	1
	.syntax unified
	.thumb
	.thumb_func
	.type	ext_power_disable, %function
ext_power_disable:
.LVL4:
.LFB556:
	.loc 2 50 1 is_stmt 1 view -0
	.cfi_startproc
	@ args = 0, pretend = 0, frame = 0
	@ frame_needed = 0, uses_anonymous_args = 0
	@ link register save eliminated.
	.loc 2 57 2 view .LVU16
	.loc 2 57 7 view .LVU17
	.loc 2 57 5 view .LVU18
	.loc 2 58 2 view .LVU19
.LVL5:
.LBB203:
.LBI203:
	.loc 3 66 19 view .LVU20
.LBB204:
	.loc 3 67 5 view .LVU21
	.loc 3 69 5 view .LVU22
	.loc 3 69 12 is_stmt 0 view .LVU23
	ldr	r3, [r0, #8]
	ldr	r3, [r3, #4]
	.loc 3 69 8 view .LVU24
	cbz	r3, .L4
	.loc 3 73 5 is_stmt 1 view .LVU25
	.loc 3 73 12 is_stmt 0 view .LVU26
	bx	r3
.LVL6:
.L4:
	.loc 3 73 12 view .LVU27
.LBE204:
.LBE203:
	.loc 2 59 1 view .LVU28
	mvn	r0, #133
.LVL7:
	.loc 2 59 1 view .LVU29
	bx	lr
	.cfi_endproc
.LFE556:
	.size	ext_power_disable, .-ext_power_disable
	.section	.text.ext_power_get,"ax",%progbits
	.align	1
	.syntax unified
	.thumb
	.thumb_func
	.type	ext_power_get, %function
ext_power_get:
.LVL8:
.LFB557:
	.loc 2 73 1 is_stmt 1 view -0
	.cfi_startproc
	@ args = 0, pretend = 0, frame = 0
	@ frame_needed = 0, uses_anonymous_args = 0
	@ link register save eliminated.
	.loc 2 80 2 view .LVU31
	.loc 2 80 7 view .LVU32
	.loc 2 80 5 view .LVU33
	.loc 2 81 2 view .LVU34
.LVL9:
.LBB207:
.LBI207:
	.loc 3 86 19 view .LVU35
.LBB208:
	.loc 3 87 5 view .LVU36
	.loc 3 89 5 view .LVU37
	.loc 3 89 12 is_stmt 0 view .LVU38
	ldr	r3, [r0, #8]
	ldr	r3, [r3, #8]
	.loc 3 89 8 view .LVU39
	cbz	r3, .L6
	.loc 3 93 5 is_stmt 1 view .LVU40
	.loc 3 93 12 is_stmt 0 view .LVU41
	bx	r3
.LVL10:
.L6:
	.loc 3 93 12 view .LVU42
.LBE208:
.LBE207:
	.loc 2 82 1 view .LVU43
	mvn	r0, #133
.LVL11:
	.loc 2 82 1 view .LVU44
	bx	lr
	.cfi_endproc
.LFE557:
	.size	ext_power_get, .-ext_power_get
	.section	.text.on_keymap_binding_released,"ax",%progbits
	.align	1
	.syntax unified
	.thumb
	.thumb_func
	.type	on_keymap_binding_released, %function
on_keymap_binding_released:
.LVL12:
.LFB585:
	.loc 1 63 80 is_stmt 1 view -0
	.cfi_startproc
	@ args = 16, pretend = 8, frame = 0
	@ frame_needed = 0, uses_anonymous_args = 0
	@ link register save eliminated.
	.loc 1 64 5 view .LVU46
	.loc 1 63 80 is_stmt 0 view .LVU47
	sub	sp, sp, #8
	.cfi_def_cfa_offset 8
	.loc 1 63 80 view .LVU48
	stm	sp, {r2, r3}
	.loc 1 65 1 view .LVU49
	movs	r0, #0
.LVL13:
	.loc 1 65 1 view .LVU50
	add	sp, sp, #8
	.cfi_def_cfa_offset 0
	bx	lr
	.cfi_endproc
.LFE585:
	.size	on_keymap_binding_released, .-on_keymap_binding_released
	.section	.rodata.on_keymap_binding_convert_central_state_dependent_params.part.0.isra.0.str1.1,"aMS",%progbits,1
.LC0:
	.ascii	"Unable to retrieve ext_power device: %d\000"
	.section	.text.on_keymap_binding_convert_central_state_dependent_params.part.0.isra.0,"ax",%progbits
	.align	1
	.syntax unified
	.thumb
	.thumb_func
	.type	on_keymap_binding_convert_central_state_dependent_params.part.0.isra.0, %function
on_keymap_binding_convert_central_state_dependent_params.part.0.isra.0:
.LFB587:
	.loc 1 22 1 is_stmt 1 view -0
	.cfi_startproc
	@ args = 0, pretend = 0, frame = 0
	@ frame_needed = 1, uses_anonymous_args = 0
.LVL14:
	.loc 1 26 9 view .LVU52
.LBB265:
	.loc 1 26 14 view .LVU53
	.loc 1 26 63 view .LVU54
	.loc 1 26 20 view .LVU55
	.loc 1 26 8 view .LVU56
	.loc 1 26 47 view .LVU57
	.loc 1 26 182 view .LVU58
	.loc 1 26 193 view .LVU59
	.loc 1 26 281 view .LVU60
.LBB266:
	.loc 1 26 9 view .LVU61
	.loc 1 26 11 view .LVU62
	.loc 1 26 9 view .LVU63
.LBB267:
	.loc 1 26 14 view .LVU64
	.loc 1 26 8 view .LVU65
.LBE267:
.LBE266:
.LBE265:
	.loc 1 26 9 view .LVU66
	.loc 1 26 18 view .LVU67
	.loc 1 26 113 view .LVU68
	.loc 1 26 9 view .LVU69
.LBB287:
.LBB283:
.LBB279:
	.loc 1 26 18 view .LVU70
	.loc 1 26 108 view .LVU71
	.loc 1 26 110 view .LVU72
.LBB268:
	.loc 1 26 115 view .LVU73
	.loc 1 26 126 view .LVU74
	.loc 1 26 215 view .LVU75
	.loc 1 26 32 view .LVU76
.LBE268:
.LBE279:
.LBE283:
.LBE287:
	.loc 1 26 9 view .LVU77
	.loc 1 26 374 view .LVU78
	.loc 1 26 81 view .LVU79
	.loc 1 26 8 view .LVU80
	.loc 1 26 8 view .LVU81
	.loc 1 26 8 view .LVU82
	.loc 1 26 44 view .LVU83
	.loc 1 26 10 view .LVU84
	.loc 1 26 36 view .LVU85
	.loc 1 26 62 view .LVU86
	.loc 1 26 529 view .LVU87
	.loc 1 26 591 view .LVU88
	.loc 1 26 1112 view .LVU89
	.loc 1 26 1177 view .LVU90
	.loc 1 26 1202 view .LVU91
	.loc 1 26 1203 view .LVU92
	.loc 1 26 1205 view .LVU93
	.loc 1 26 1235 view .LVU94
	.loc 1 26 1265 view .LVU95
	.loc 1 26 1297 view .LVU96
	.loc 1 26 1329 view .LVU97
	.loc 1 26 1361 view .LVU98
	.loc 1 26 1558 view .LVU99
	.loc 1 26 1582 view .LVU100
	.loc 1 26 1583 view .LVU101
	.loc 1 26 1585 view .LVU102
	.loc 1 26 1614 view .LVU103
	.loc 1 26 1643 view .LVU104
	.loc 1 26 1674 view .LVU105
	.loc 1 26 1705 view .LVU106
	.loc 1 26 1736 view .LVU107
	.loc 1 26 1943 view .LVU108
	.loc 1 26 10 view .LVU109
	.loc 1 26 28 view .LVU110
	.loc 1 26 48 view .LVU111
	.loc 1 26 10 view .LVU112
	.loc 1 26 48 view .LVU113
	.loc 1 26 19 view .LVU114
	.loc 1 26 19 view .LVU115
	.loc 1 26 67 view .LVU116
	.loc 1 26 98 view .LVU117
	.loc 1 26 132 view .LVU118
	.loc 1 26 137 view .LVU119
	.loc 1 26 400 view .LVU120
	.loc 1 26 1505 view .LVU121
	.loc 1 26 1570 view .LVU122
	.loc 1 26 1594 view .LVU123
	.loc 1 26 1661 view .LVU124
	.loc 1 26 1672 view .LVU125
	.loc 1 26 1797 view .LVU126
	.loc 1 26 1813 view .LVU127
	.loc 1 26 1853 view .LVU128
	.loc 1 26 1878 view .LVU129
	.loc 1 26 3193 view .LVU130
	.loc 1 26 3234 view .LVU131
	.loc 1 26 13 view .LVU132
	.loc 1 26 36 view .LVU133
	.loc 1 26 135 view .LVU134
	.loc 1 26 12 view .LVU135
	.loc 1 26 17 view .LVU136
	.loc 1 26 242 view .LVU137
	.loc 1 26 1195 view .LVU138
	.loc 1 26 1260 view .LVU139
	.loc 1 26 1284 view .LVU140
	.loc 1 26 1313 view .LVU141
	.loc 1 26 1324 view .LVU142
	.loc 1 26 1411 view .LVU143
	.loc 1 26 1427 view .LVU144
	.loc 1 26 1467 view .LVU145
	.loc 1 26 2731 view .LVU146
	.loc 1 26 2772 view .LVU147
	.loc 1 26 13 view .LVU148
	.loc 1 26 36 view .LVU149
	.loc 1 26 15 view .LVU150
	.loc 1 26 11 view .LVU151
	.loc 1 26 34 view .LVU152
	.loc 1 26 58 view .LVU153
	.loc 1 26 86 view .LVU154
	.loc 1 26 262 view .LVU155
	.loc 1 26 22 view .LVU156
.LBB288:
.LBB284:
.LBB280:
.LBB276:
	.loc 1 26 35 view .LVU157
	.loc 1 26 9 view .LVU158
	.loc 1 26 9 view .LVU159
	.loc 1 26 76 view .LVU160
	.loc 1 26 76 is_stmt 0 view .LVU161
.LBE276:
.LBE280:
.LBE284:
.LBE288:
	.loc 1 22 1 view .LVU162
	push	{r7, lr}
	.cfi_def_cfa_offset 8
	.cfi_offset 7, -8
	.cfi_offset 14, -4
	add	r7, sp, #0
	.cfi_def_cfa_register 7
.LBB289:
.LBB285:
.LBB281:
.LBB277:
	.loc 1 26 88 view .LVU163
	sub	sp, sp, #32
	mov	r2, sp
.LVL15:
	.loc 1 26 80 is_stmt 1 view .LVU164
	.loc 1 26 490 view .LVU165
	.loc 1 26 11 view .LVU166
	.loc 1 26 13 view .LVU167
	.loc 1 26 18 view .LVU168
	.loc 1 26 16 view .LVU169
	.loc 1 26 11 view .LVU170
	.loc 1 26 29 view .LVU171
.LBB269:
	.loc 1 26 9 view .LVU172
	.loc 1 26 374 view .LVU173
	.loc 1 26 81 view .LVU174
.LVL16:
	.loc 1 26 8 view .LVU175
	.loc 1 26 8 view .LVU176
	.loc 1 26 8 view .LVU177
	.loc 1 26 44 view .LVU178
	.loc 1 26 73 view .LVU179
	.loc 1 26 99 view .LVU180
	.loc 1 26 125 view .LVU181
	.loc 1 26 592 view .LVU182
	.loc 1 26 654 view .LVU183
	.loc 1 26 1175 view .LVU184
	.loc 1 26 1240 view .LVU185
	.loc 1 26 1265 view .LVU186
	.loc 1 26 1266 view .LVU187
	.loc 1 26 1268 view .LVU188
	.loc 1 26 1298 view .LVU189
	.loc 1 26 1328 view .LVU190
	.loc 1 26 1360 view .LVU191
	.loc 1 26 1392 view .LVU192
	.loc 1 26 1424 view .LVU193
	.loc 1 26 1621 view .LVU194
	.loc 1 26 1645 view .LVU195
	.loc 1 26 1646 view .LVU196
	.loc 1 26 1648 view .LVU197
	.loc 1 26 1677 view .LVU198
	.loc 1 26 1706 view .LVU199
	.loc 1 26 1737 view .LVU200
	.loc 1 26 1768 view .LVU201
	.loc 1 26 1799 view .LVU202
	.loc 1 26 2006 view .LVU203
.LBB270:
	.loc 1 26 3231 view .LVU204
	.loc 1 26 3236 view .LVU205
	.loc 1 26 3908 view .LVU206
	.loc 1 26 0 is_stmt 0 view .LVU207
	ldr	r3, .L9
.LBE270:
.LBB271:
	.loc 1 26 3817 view .LVU208
	strd	r3, r0, [r2, #20]
	.loc 1 26 2772 is_stmt 1 view .LVU209
	.loc 1 26 13 view .LVU210
.LVL17:
	.loc 1 26 36 view .LVU211
	.loc 1 26 36 is_stmt 0 view .LVU212
.LBE271:
	.loc 1 26 15 is_stmt 1 view .LVU213
	.loc 1 26 11 view .LVU214
	.loc 1 26 34 view .LVU215
	.loc 1 26 58 view .LVU216
	.loc 1 26 86 view .LVU217
.LBE269:
.LBE277:
.LBE281:
.LBE285:
.LBE289:
	.loc 1 26 12 view .LVU218
	.loc 1 26 51 view .LVU219
	.loc 1 26 56 view .LVU220
	.loc 1 26 86 view .LVU221
	.loc 1 26 153 view .LVU222
	.loc 1 26 158 view .LVU223
	.loc 1 26 188 view .LVU224
.LBB290:
.LBB286:
.LBB282:
.LBB278:
.LBB273:
	.loc 1 26 262 view .LVU225
	.loc 1 26 22 view .LVU226
.LBB272:
	.loc 1 26 12 view .LVU227
	.loc 1 26 170 view .LVU228
	.loc 1 26 172 view .LVU229
	.loc 1 26 182 is_stmt 0 view .LVU230
	movs	r3, #3
	str	r3, [r2, #16]!
.LVL18:
	.loc 1 26 182 view .LVU231
.LBE272:
.LBE273:
	.loc 1 26 32 is_stmt 1 view .LVU232
	.loc 1 26 13 view .LVU233
	.loc 1 26 153 view .LVU234
	.loc 1 26 155 view .LVU235
.LBB274:
.LBI274:
	.file 4 "/home/g/mise-work/zmk-firmware/zmk/app/build/zephyr/include/generated/syscalls/log_msg.h"
	.loc 4 26 20 view .LVU236
.LBB275:
	.loc 4 38 2 view .LVU237
	.loc 4 38 7 view .LVU238
	.loc 4 38 5 view .LVU239
	.loc 4 39 2 view .LVU240
	ldr	r0, .L9+4
.LVL19:
	.loc 4 39 2 is_stmt 0 view .LVU241
	movs	r3, #0
	mov	r1, #6208
	bl	z_impl_z_log_msg_static_create
.LVL20:
	.loc 4 39 2 view .LVU242
.LBE275:
.LBE274:
.LBE278:
	.loc 1 26 113 is_stmt 1 view .LVU243
	.loc 1 26 11 view .LVU244
	.loc 1 26 48 view .LVU245
.LBE282:
	.loc 1 26 12 view .LVU246
.LBE286:
	.loc 1 26 284 view .LVU247
	.loc 1 26 11 view .LVU248
	.loc 1 26 24 view .LVU249
.LBE290:
	.loc 1 26 12 view .LVU250
	.loc 1 27 9 view .LVU251
	.loc 1 35 1 is_stmt 0 view .LVU252
	mvn	r0, #4
	mov	sp, r7
	.cfi_def_cfa_register 13
.LVL21:
	.loc 1 35 1 view .LVU253
	@ sp needed
	pop	{r7, pc}
.L10:
	.align	2
.L9:
	.word	.LC0
	.word	log_const_zmk
	.cfi_endproc
.LFE587:
	.size	on_keymap_binding_convert_central_state_dependent_params.part.0.isra.0, .-on_keymap_binding_convert_central_state_dependent_params.part.0.isra.0
	.section	.rodata.on_keymap_binding_convert_central_state_dependent_params.str1.1,"aMS",%progbits,1
.LC1:
	.ascii	"EXT_POWER\000"
	.section	.text.on_keymap_binding_convert_central_state_dependent_params,"ax",%progbits
	.align	1
	.syntax unified
	.thumb
	.thumb_func
	.type	on_keymap_binding_convert_central_state_dependent_params, %function
on_keymap_binding_convert_central_state_dependent_params:
.LVL22:
.LFB583:
	.loc 1 23 99 is_stmt 1 view -0
	.cfi_startproc
	@ args = 16, pretend = 8, frame = 0
	@ frame_needed = 0, uses_anonymous_args = 0
	.loc 1 24 5 view .LVU255
.LBB297:
.LBI297:
	.file 5 "/home/g/mise-work/zmk-firmware/zmk/app/build/zephyr/include/generated/syscalls/device.h"
	.loc 5 26 37 view .LVU256
.LBB298:
	.loc 5 34 2 view .LVU257
	.loc 5 34 7 view .LVU258
.LBE298:
.LBE297:
	.loc 1 23 99 is_stmt 0 view .LVU259
	sub	sp, sp, #8
	.cfi_def_cfa_offset 8
	push	{r4, lr}
	.cfi_def_cfa_offset 16
	.cfi_offset 4, -16
	.cfi_offset 14, -12
	.loc 1 23 99 view .LVU260
	add	r1, sp, #8
	stm	r1, {r2, r3}
	mov	r4, r0
.LBB300:
.LBB299:
	.loc 5 34 7 view .LVU261
	.loc 5 34 5 is_stmt 1 view .LVU262
	.loc 5 35 2 view .LVU263
	.loc 5 35 9 is_stmt 0 view .LVU264
	ldr	r0, .L16
.LVL23:
	.loc 5 35 9 view .LVU265
	bl	z_impl_device_get_binding
.LVL24:
	.loc 5 35 9 view .LVU266
.LBE299:
.LBE300:
	.loc 1 25 5 is_stmt 1 view .LVU267
	.loc 1 25 8 is_stmt 0 view .LVU268
	cbnz	r0, .L12
	ldr	r0, [r4, #4]
.LVL25:
	.loc 1 35 1 view .LVU269
	pop	{r4, lr}
	.cfi_remember_state
	.cfi_restore 14
	.cfi_restore 4
	.cfi_def_cfa_offset 8
.LVL26:
	.loc 1 35 1 view .LVU270
	add	sp, sp, #8
	.cfi_def_cfa_offset 0
	b	on_keymap_binding_convert_central_state_dependent_params.part.0.isra.0
.LVL27:
.L12:
	.cfi_restore_state
	.loc 1 30 5 is_stmt 1 view .LVU271
	.loc 1 30 8 is_stmt 0 view .LVU272
	ldr	r3, [r4, #4]
	cmp	r3, #2
	bne	.L14
	.loc 1 31 9 is_stmt 1 view .LVU273
	.loc 1 31 27 is_stmt 0 view .LVU274
	bl	ext_power_get
.LVL28:
	.loc 1 31 60 view .LVU275
	cmp	r0, #0
	ite	gt
	movgt	r0, #0
	movle	r0, #1
	.loc 1 31 25 view .LVU276
	str	r0, [r4, #4]
.L14:
	.loc 1 35 1 view .LVU277
	pop	{r4, lr}
	.cfi_restore 14
	.cfi_restore 4
	.cfi_def_cfa_offset 8
.LVL29:
	.loc 1 35 1 view .LVU278
	movs	r0, #0
	add	sp, sp, #8
	.cfi_def_cfa_offset 0
	bx	lr
.L17:
	.align	2
.L16:
	.word	.LC1
	.cfi_endproc
.LFE583:
	.size	on_keymap_binding_convert_central_state_dependent_params, .-on_keymap_binding_convert_central_state_dependent_params
	.section	.rodata.on_keymap_binding_pressed.str1.1,"aMS",%progbits,1
.LC2:
	.ascii	"Unknown ext_power command: %d\000"
	.section	.text.on_keymap_binding_pressed,"ax",%progbits
	.align	1
	.syntax unified
	.thumb
	.thumb_func
	.type	on_keymap_binding_pressed, %function
on_keymap_binding_pressed:
.LVL30:
.LFB584:
	.loc 1 38 79 is_stmt 1 view -0
	.cfi_startproc
	@ args = 16, pretend = 8, frame = 0
	@ frame_needed = 1, uses_anonymous_args = 0
	.loc 1 39 5 view .LVU280
.LBB323:
.LBI323:
	.loc 5 26 37 view .LVU281
.LBB324:
	.loc 5 34 2 view .LVU282
	.loc 5 34 7 view .LVU283
.LBE324:
.LBE323:
	.loc 1 38 79 is_stmt 0 view .LVU284
	sub	sp, sp, #8
	.cfi_def_cfa_offset 8
	push	{r4, r5, r7, lr}
	.cfi_def_cfa_offset 24
	.cfi_offset 4, -24
	.cfi_offset 5, -20
	.cfi_offset 7, -16
	.cfi_offset 14, -12
	add	r7, sp, #0
	.cfi_def_cfa_register 7
	.loc 1 38 79 view .LVU285
	add	r1, r7, #16
	stm	r1, {r2, r3}
	mov	r5, r0
.LBB327:
.LBB325:
	.loc 5 34 7 view .LVU286
	.loc 5 34 5 is_stmt 1 view .LVU287
	.loc 5 35 2 view .LVU288
	.loc 5 35 9 is_stmt 0 view .LVU289
	ldr	r0, .L26
.LVL31:
	.loc 5 35 9 view .LVU290
	bl	z_impl_device_get_binding
.LVL32:
	.loc 5 35 9 view .LVU291
.LBE325:
.LBE327:
	.loc 1 40 5 is_stmt 1 view .LVU292
	ldr	r3, [r5, #4]
.LBB328:
.LBB326:
	.loc 5 35 9 is_stmt 0 view .LVU293
	mov	r4, r0
.LBE326:
.LBE328:
	.loc 1 40 8 view .LVU294
	cbnz	r0, .L19
	.loc 1 41 9 is_stmt 1 view .LVU295
.LBB329:
	.loc 1 41 14 view .LVU296
	.loc 1 41 63 view .LVU297
	.loc 1 41 20 view .LVU298
	.loc 1 41 8 view .LVU299
.LVL33:
	.loc 1 41 47 view .LVU300
	.loc 1 41 182 view .LVU301
	.loc 1 41 193 view .LVU302
	.loc 1 41 281 view .LVU303
.LBB330:
	.loc 1 41 9 view .LVU304
	.loc 1 41 11 view .LVU305
	.loc 1 41 9 view .LVU306
.LBB331:
	.loc 1 41 14 view .LVU307
	.loc 1 41 8 view .LVU308
.LBE331:
.LBE330:
.LBE329:
	.loc 1 41 9 view .LVU309
	.loc 1 41 18 view .LVU310
	.loc 1 41 113 view .LVU311
	.loc 1 41 9 view .LVU312
.LBB351:
.LBB347:
.LBB343:
	.loc 1 41 18 view .LVU313
	.loc 1 41 108 view .LVU314
	.loc 1 41 110 view .LVU315
.LBB332:
	.loc 1 41 113 is_stmt 0 view .LVU316
	mov	r5, sp
.LVL34:
	.loc 1 41 115 is_stmt 1 view .LVU317
	.loc 1 41 126 view .LVU318
	.loc 1 41 215 view .LVU319
	.loc 1 41 32 view .LVU320
.LBE332:
.LBE343:
.LBE347:
.LBE351:
	.loc 1 41 9 view .LVU321
	.loc 1 41 374 view .LVU322
	.loc 1 41 81 view .LVU323
	.loc 1 41 8 view .LVU324
	.loc 1 41 8 view .LVU325
	.loc 1 41 8 view .LVU326
	.loc 1 41 44 view .LVU327
	.loc 1 41 10 view .LVU328
	.loc 1 41 36 view .LVU329
	.loc 1 41 62 view .LVU330
	.loc 1 41 529 view .LVU331
	.loc 1 41 591 view .LVU332
	.loc 1 41 1112 view .LVU333
	.loc 1 41 1177 view .LVU334
	.loc 1 41 1202 view .LVU335
	.loc 1 41 1203 view .LVU336
	.loc 1 41 1205 view .LVU337
	.loc 1 41 1235 view .LVU338
	.loc 1 41 1265 view .LVU339
	.loc 1 41 1297 view .LVU340
	.loc 1 41 1329 view .LVU341
	.loc 1 41 1361 view .LVU342
	.loc 1 41 1558 view .LVU343
	.loc 1 41 1582 view .LVU344
	.loc 1 41 1583 view .LVU345
	.loc 1 41 1585 view .LVU346
	.loc 1 41 1614 view .LVU347
	.loc 1 41 1643 view .LVU348
	.loc 1 41 1674 view .LVU349
	.loc 1 41 1705 view .LVU350
	.loc 1 41 1736 view .LVU351
	.loc 1 41 1943 view .LVU352
	.loc 1 41 10 view .LVU353
	.loc 1 41 28 view .LVU354
	.loc 1 41 48 view .LVU355
	.loc 1 41 10 view .LVU356
	.loc 1 41 48 view .LVU357
	.loc 1 41 19 view .LVU358
	.loc 1 41 19 view .LVU359
	.loc 1 41 67 view .LVU360
	.loc 1 41 98 view .LVU361
	.loc 1 41 132 view .LVU362
	.loc 1 41 137 view .LVU363
	.loc 1 41 400 view .LVU364
	.loc 1 41 1505 view .LVU365
	.loc 1 41 1570 view .LVU366
	.loc 1 41 1594 view .LVU367
	.loc 1 41 1661 view .LVU368
	.loc 1 41 1672 view .LVU369
	.loc 1 41 1797 view .LVU370
	.loc 1 41 1813 view .LVU371
	.loc 1 41 1853 view .LVU372
	.loc 1 41 1878 view .LVU373
	.loc 1 41 3193 view .LVU374
	.loc 1 41 3234 view .LVU375
	.loc 1 41 13 view .LVU376
	.loc 1 41 36 view .LVU377
	.loc 1 41 135 view .LVU378
	.loc 1 41 12 view .LVU379
	.loc 1 41 17 view .LVU380
	.loc 1 41 242 view .LVU381
	.loc 1 41 1195 view .LVU382
	.loc 1 41 1260 view .LVU383
	.loc 1 41 1284 view .LVU384
	.loc 1 41 1313 view .LVU385
	.loc 1 41 1324 view .LVU386
	.loc 1 41 1411 view .LVU387
	.loc 1 41 1427 view .LVU388
	.loc 1 41 1467 view .LVU389
	.loc 1 41 2731 view .LVU390
	.loc 1 41 2772 view .LVU391
	.loc 1 41 13 view .LVU392
	.loc 1 41 36 view .LVU393
	.loc 1 41 15 view .LVU394
	.loc 1 41 11 view .LVU395
	.loc 1 41 34 view .LVU396
	.loc 1 41 58 view .LVU397
	.loc 1 41 86 view .LVU398
	.loc 1 41 262 view .LVU399
	.loc 1 41 22 view .LVU400
.LBB352:
.LBB348:
.LBB344:
.LBB340:
	.loc 1 41 35 view .LVU401
	.loc 1 41 9 view .LVU402
	.loc 1 41 9 view .LVU403
	.loc 1 41 76 view .LVU404
	.loc 1 41 88 is_stmt 0 view .LVU405
	sub	sp, sp, #32
	mov	r2, sp
.LVL35:
	.loc 1 41 80 is_stmt 1 view .LVU406
	.loc 1 41 490 view .LVU407
	.loc 1 41 11 view .LVU408
	.loc 1 41 13 view .LVU409
	.loc 1 41 18 view .LVU410
	.loc 1 41 16 view .LVU411
	.loc 1 41 11 view .LVU412
	.loc 1 41 29 view .LVU413
.LBB333:
	.loc 1 41 9 view .LVU414
	.loc 1 41 374 view .LVU415
	.loc 1 41 81 view .LVU416
.LVL36:
	.loc 1 41 8 view .LVU417
	.loc 1 41 8 view .LVU418
	.loc 1 41 8 view .LVU419
	.loc 1 41 44 view .LVU420
	.loc 1 41 73 view .LVU421
	.loc 1 41 99 view .LVU422
	.loc 1 41 125 view .LVU423
	.loc 1 41 592 view .LVU424
	.loc 1 41 654 view .LVU425
	.loc 1 41 1175 view .LVU426
	.loc 1 41 1240 view .LVU427
	.loc 1 41 1265 view .LVU428
	.loc 1 41 1266 view .LVU429
	.loc 1 41 1268 view .LVU430
	.loc 1 41 1298 view .LVU431
	.loc 1 41 1328 view .LVU432
	.loc 1 41 1360 view .LVU433
	.loc 1 41 1392 view .LVU434
	.loc 1 41 1424 view .LVU435
	.loc 1 41 1621 view .LVU436
	.loc 1 41 1645 view .LVU437
	.loc 1 41 1646 view .LVU438
	.loc 1 41 1648 view .LVU439
	.loc 1 41 1677 view .LVU440
	.loc 1 41 1706 view .LVU441
	.loc 1 41 1737 view .LVU442
	.loc 1 41 1768 view .LVU443
	.loc 1 41 1799 view .LVU444
	.loc 1 41 2006 view .LVU445
.LBB334:
	.loc 1 41 3231 view .LVU446
	.loc 1 41 3236 view .LVU447
	.loc 1 41 3908 view .LVU448
	.loc 1 41 0 is_stmt 0 view .LVU449
	ldr	r1, .L26+4
.LBE334:
.LBB335:
	.loc 1 41 3817 view .LVU450
	strd	r1, r3, [r2, #20]
	.loc 1 41 2772 is_stmt 1 view .LVU451
	.loc 1 41 13 view .LVU452
.LVL37:
	.loc 1 41 36 view .LVU453
	.loc 1 41 36 is_stmt 0 view .LVU454
.LBE335:
	.loc 1 41 15 is_stmt 1 view .LVU455
	.loc 1 41 11 view .LVU456
	.loc 1 41 34 view .LVU457
	.loc 1 41 58 view .LVU458
	.loc 1 41 86 view .LVU459
.LBE333:
.LBE340:
.LBE344:
.LBE348:
.LBE352:
	.loc 1 41 12 view .LVU460
	.loc 1 41 51 view .LVU461
	.loc 1 41 56 view .LVU462
	.loc 1 41 86 view .LVU463
	.loc 1 41 153 view .LVU464
	.loc 1 41 158 view .LVU465
	.loc 1 41 188 view .LVU466
.LBB353:
.LBB349:
.LBB345:
.LBB341:
.LBB337:
	.loc 1 41 262 view .LVU467
	.loc 1 41 22 view .LVU468
.LBB336:
	.loc 1 41 12 view .LVU469
	.loc 1 41 170 view .LVU470
	.loc 1 41 172 view .LVU471
	.loc 1 41 182 is_stmt 0 view .LVU472
	movs	r3, #3
.LVL38:
	.loc 1 41 182 view .LVU473
	str	r3, [r2, #16]!
.LVL39:
	.loc 1 41 182 view .LVU474
.LBE336:
.LBE337:
	.loc 1 41 32 is_stmt 1 view .LVU475
	.loc 1 41 13 view .LVU476
	.loc 1 41 153 view .LVU477
	.loc 1 41 155 view .LVU478
.LBB338:
.LBI338:
	.loc 4 26 20 view .LVU479
.LBB339:
	.loc 4 38 2 view .LVU480
	.loc 4 38 7 view .LVU481
	.loc 4 38 5 view .LVU482
	.loc 4 39 2 view .LVU483
	mov	r1, #6208
	mov	r3, r0
	ldr	r0, .L26+8
.LVL40:
	.loc 4 39 2 is_stmt 0 view .LVU484
	bl	z_impl_z_log_msg_static_create
.LVL41:
	.loc 4 39 2 view .LVU485
.LBE339:
.LBE338:
.LBE341:
.LBE345:
.LBE349:
.LBE353:
	.loc 1 42 16 view .LVU486
	mvn	r0, #4
.LBB354:
.LBB350:
.LBB346:
.LBB342:
	mov	sp, r5
.LVL42:
	.loc 1 42 16 view .LVU487
.LBE342:
	.loc 1 41 113 is_stmt 1 view .LVU488
	.loc 1 41 11 view .LVU489
	.loc 1 41 48 view .LVU490
.LBE346:
	.loc 1 41 12 view .LVU491
.LBE350:
	.loc 1 41 284 view .LVU492
	.loc 1 41 11 view .LVU493
	.loc 1 41 24 view .LVU494
.LBE354:
	.loc 1 41 12 view .LVU495
	.loc 1 42 9 view .LVU496
.L18:
	.loc 1 60 1 is_stmt 0 view .LVU497
	mov	sp, r7
	.cfi_remember_state
	.cfi_def_cfa_register 13
	@ sp needed
	pop	{r4, r5, r7, lr}
	.cfi_restore 14
	.cfi_restore 7
	.cfi_restore 5
	.cfi_restore 4
	.cfi_def_cfa_offset 8
	add	sp, sp, #8
	.cfi_def_cfa_offset 0
	bx	lr
.LVL43:
.L19:
	.cfi_restore_state
	.loc 1 45 5 is_stmt 1 view .LVU498
	cmp	r3, #1
	beq	.L24
	cmp	r3, #2
	beq	.L22
	cbnz	r3, .L23
.L25:
	.loc 1 52 13 view .LVU499
	.loc 1 52 20 is_stmt 0 view .LVU500
	bl	ext_power_disable
.LVL44:
	.loc 1 52 20 view .LVU501
	b	.L18
.LVL45:
.L22:
	.loc 1 51 9 is_stmt 1 view .LVU502
	.loc 1 51 13 is_stmt 0 view .LVU503
	bl	ext_power_get
.LVL46:
	.loc 1 51 12 view .LVU504
	cmp	r0, #0
	.loc 1 52 20 view .LVU505
	mov	r0, r4
	.loc 1 51 12 view .LVU506
	bgt	.L25
.LVL47:
.L24:
	.loc 1 54 13 is_stmt 1 view .LVU507
	.loc 1 54 20 is_stmt 0 view .LVU508
	bl	ext_power_enable
.LVL48:
	.loc 1 54 20 view .LVU509
	b	.L18
.LVL49:
.L23:
	.loc 1 56 9 is_stmt 1 view .LVU510
.LBB355:
	.loc 1 56 14 view .LVU511
	.loc 1 56 63 view .LVU512
	.loc 1 56 20 view .LVU513
	.loc 1 56 8 view .LVU514
	.loc 1 56 47 view .LVU515
	.loc 1 56 182 view .LVU516
	.loc 1 56 193 view .LVU517
	.loc 1 56 281 view .LVU518
.LBB356:
	.loc 1 56 9 view .LVU519
	.loc 1 56 11 view .LVU520
	.loc 1 56 9 view .LVU521
.LBB357:
	.loc 1 56 14 view .LVU522
	.loc 1 56 8 view .LVU523
.LBE357:
.LBE356:
.LBE355:
	.loc 1 56 9 view .LVU524
	.loc 1 56 18 view .LVU525
	.loc 1 56 113 view .LVU526
	.loc 1 56 9 view .LVU527
.LBB377:
.LBB373:
.LBB369:
	.loc 1 56 18 view .LVU528
	.loc 1 56 108 view .LVU529
	.loc 1 56 110 view .LVU530
.LBB358:
	.loc 1 56 113 is_stmt 0 view .LVU531
	mov	r4, sp
	.loc 1 56 115 is_stmt 1 view .LVU532
	.loc 1 56 126 view .LVU533
.LVL50:
	.loc 1 56 215 view .LVU534
	.loc 1 56 32 view .LVU535
.LBE358:
.LBE369:
.LBE373:
.LBE377:
	.loc 1 56 9 view .LVU536
	.loc 1 56 374 view .LVU537
	.loc 1 56 81 view .LVU538
	.loc 1 56 8 view .LVU539
	.loc 1 56 8 view .LVU540
	.loc 1 56 8 view .LVU541
	.loc 1 56 44 view .LVU542
	.loc 1 56 10 view .LVU543
	.loc 1 56 36 view .LVU544
	.loc 1 56 62 view .LVU545
	.loc 1 56 529 view .LVU546
	.loc 1 56 591 view .LVU547
	.loc 1 56 1112 view .LVU548
	.loc 1 56 1177 view .LVU549
	.loc 1 56 1202 view .LVU550
	.loc 1 56 1203 view .LVU551
	.loc 1 56 1205 view .LVU552
	.loc 1 56 1235 view .LVU553
	.loc 1 56 1265 view .LVU554
	.loc 1 56 1297 view .LVU555
	.loc 1 56 1329 view .LVU556
	.loc 1 56 1361 view .LVU557
	.loc 1 56 1558 view .LVU558
	.loc 1 56 1582 view .LVU559
	.loc 1 56 1583 view .LVU560
	.loc 1 56 1585 view .LVU561
	.loc 1 56 1614 view .LVU562
	.loc 1 56 1643 view .LVU563
	.loc 1 56 1674 view .LVU564
	.loc 1 56 1705 view .LVU565
	.loc 1 56 1736 view .LVU566
	.loc 1 56 1943 view .LVU567
	.loc 1 56 10 view .LVU568
	.loc 1 56 28 view .LVU569
	.loc 1 56 48 view .LVU570
	.loc 1 56 10 view .LVU571
	.loc 1 56 48 view .LVU572
	.loc 1 56 19 view .LVU573
	.loc 1 56 19 view .LVU574
	.loc 1 56 67 view .LVU575
	.loc 1 56 98 view .LVU576
	.loc 1 56 132 view .LVU577
	.loc 1 56 137 view .LVU578
	.loc 1 56 390 view .LVU579
	.loc 1 56 1455 view .LVU580
	.loc 1 56 1520 view .LVU581
	.loc 1 56 1544 view .LVU582
	.loc 1 56 1601 view .LVU583
	.loc 1 56 1612 view .LVU584
	.loc 1 56 1727 view .LVU585
	.loc 1 56 1743 view .LVU586
	.loc 1 56 1783 view .LVU587
	.loc 1 56 1808 view .LVU588
	.loc 1 56 3103 view .LVU589
	.loc 1 56 3144 view .LVU590
	.loc 1 56 13 view .LVU591
	.loc 1 56 36 view .LVU592
	.loc 1 56 135 view .LVU593
	.loc 1 56 12 view .LVU594
	.loc 1 56 17 view .LVU595
	.loc 1 56 242 view .LVU596
	.loc 1 56 1195 view .LVU597
	.loc 1 56 1260 view .LVU598
	.loc 1 56 1284 view .LVU599
	.loc 1 56 1313 view .LVU600
	.loc 1 56 1324 view .LVU601
	.loc 1 56 1411 view .LVU602
	.loc 1 56 1427 view .LVU603
	.loc 1 56 1467 view .LVU604
	.loc 1 56 2731 view .LVU605
	.loc 1 56 2772 view .LVU606
	.loc 1 56 13 view .LVU607
	.loc 1 56 36 view .LVU608
	.loc 1 56 15 view .LVU609
	.loc 1 56 11 view .LVU610
	.loc 1 56 34 view .LVU611
	.loc 1 56 58 view .LVU612
	.loc 1 56 86 view .LVU613
	.loc 1 56 262 view .LVU614
	.loc 1 56 22 view .LVU615
.LBB378:
.LBB374:
.LBB370:
.LBB366:
	.loc 1 56 35 view .LVU616
	.loc 1 56 9 view .LVU617
	.loc 1 56 9 view .LVU618
	.loc 1 56 76 view .LVU619
	.loc 1 56 88 is_stmt 0 view .LVU620
	sub	sp, sp, #32
	mov	r2, sp
.LVL51:
	.loc 1 56 80 is_stmt 1 view .LVU621
	.loc 1 56 490 view .LVU622
	.loc 1 56 11 view .LVU623
	.loc 1 56 13 view .LVU624
	.loc 1 56 18 view .LVU625
	.loc 1 56 16 view .LVU626
	.loc 1 56 11 view .LVU627
	.loc 1 56 29 view .LVU628
.LBB359:
	.loc 1 56 9 view .LVU629
	.loc 1 56 374 view .LVU630
	.loc 1 56 81 view .LVU631
.LVL52:
	.loc 1 56 8 view .LVU632
	.loc 1 56 8 view .LVU633
	.loc 1 56 8 view .LVU634
	.loc 1 56 44 view .LVU635
	.loc 1 56 73 view .LVU636
	.loc 1 56 99 view .LVU637
	.loc 1 56 125 view .LVU638
	.loc 1 56 592 view .LVU639
	.loc 1 56 654 view .LVU640
	.loc 1 56 1175 view .LVU641
	.loc 1 56 1240 view .LVU642
	.loc 1 56 1265 view .LVU643
	.loc 1 56 1266 view .LVU644
	.loc 1 56 1268 view .LVU645
	.loc 1 56 1298 view .LVU646
	.loc 1 56 1328 view .LVU647
	.loc 1 56 1360 view .LVU648
	.loc 1 56 1392 view .LVU649
	.loc 1 56 1424 view .LVU650
	.loc 1 56 1621 view .LVU651
	.loc 1 56 1645 view .LVU652
	.loc 1 56 1646 view .LVU653
	.loc 1 56 1648 view .LVU654
	.loc 1 56 1677 view .LVU655
	.loc 1 56 1706 view .LVU656
	.loc 1 56 1737 view .LVU657
	.loc 1 56 1768 view .LVU658
	.loc 1 56 1799 view .LVU659
	.loc 1 56 2006 view .LVU660
.LBB360:
	.loc 1 56 3141 view .LVU661
	.loc 1 56 3146 view .LVU662
	.loc 1 56 3758 view .LVU663
	.loc 1 56 0 is_stmt 0 view .LVU664
	ldr	r1, .L26+12
.LBE360:
.LBB361:
	.loc 1 56 3817 view .LVU665
	strd	r1, r3, [r2, #20]
	.loc 1 56 2772 is_stmt 1 view .LVU666
	.loc 1 56 13 view .LVU667
.LVL53:
	.loc 1 56 36 view .LVU668
	.loc 1 56 36 is_stmt 0 view .LVU669
.LBE361:
	.loc 1 56 15 is_stmt 1 view .LVU670
	.loc 1 56 11 view .LVU671
	.loc 1 56 34 view .LVU672
	.loc 1 56 58 view .LVU673
	.loc 1 56 86 view .LVU674
.LBE359:
.LBE366:
.LBE370:
.LBE374:
.LBE378:
	.loc 1 56 12 view .LVU675
	.loc 1 56 51 view .LVU676
	.loc 1 56 56 view .LVU677
	.loc 1 56 86 view .LVU678
	.loc 1 56 153 view .LVU679
	.loc 1 56 158 view .LVU680
	.loc 1 56 188 view .LVU681
.LBB379:
.LBB375:
.LBB371:
.LBB367:
.LBB363:
	.loc 1 56 262 view .LVU682
	.loc 1 56 22 view .LVU683
.LBB362:
	.loc 1 56 12 view .LVU684
	.loc 1 56 170 view .LVU685
	.loc 1 56 172 view .LVU686
	.loc 1 56 182 is_stmt 0 view .LVU687
	movs	r3, #3
.LVL54:
	.loc 1 56 182 view .LVU688
	str	r3, [r2, #16]!
.LVL55:
	.loc 1 56 182 view .LVU689
.LBE362:
.LBE363:
	.loc 1 56 32 is_stmt 1 view .LVU690
	.loc 1 56 13 view .LVU691
	.loc 1 56 153 view .LVU692
	.loc 1 56 155 view .LVU693
.LBB364:
.LBI364:
	.loc 4 26 20 view .LVU694
.LBB365:
	.loc 4 38 2 view .LVU695
	.loc 4 38 7 view .LVU696
	.loc 4 38 5 view .LVU697
	.loc 4 39 2 view .LVU698
	ldr	r0, .L26+8
.LVL56:
	.loc 4 39 2 is_stmt 0 view .LVU699
	movs	r3, #0
	mov	r1, #6208
	bl	z_impl_z_log_msg_static_create
.LVL57:
	.loc 4 39 2 view .LVU700
.LBE365:
.LBE364:
.LBE367:
.LBE371:
.LBE375:
.LBE379:
	.loc 1 59 12 view .LVU701
	mvn	r0, #133
.LBB380:
.LBB376:
.LBB372:
.LBB368:
	mov	sp, r4
.LVL58:
	.loc 1 59 12 view .LVU702
.LBE368:
	.loc 1 56 113 is_stmt 1 view .LVU703
	.loc 1 56 11 view .LVU704
	.loc 1 56 48 view .LVU705
.LBE372:
	.loc 1 56 12 view .LVU706
.LBE376:
	.loc 1 56 284 view .LVU707
	.loc 1 56 11 view .LVU708
	.loc 1 56 24 view .LVU709
.LBE380:
	.loc 1 56 12 view .LVU710
	.loc 1 59 5 view .LVU711
	.loc 1 59 12 is_stmt 0 view .LVU712
	b	.L18
.L27:
	.align	2
.L26:
	.word	.LC1
	.word	.LC0
	.word	log_const_zmk
	.word	.LC2
	.cfi_endproc
.LFE584:
	.size	on_keymap_binding_pressed, .-on_keymap_binding_pressed
	.section	._zmk_behavior_ref.static.zmk_behavior___device_dts_ord_41_,"a"
	.align	2
	.type	zmk_behavior___device_dts_ord_41, %object
	.size	zmk_behavior___device_dts_ord_41, 4
zmk_behavior___device_dts_ord_41:
	.word	__device_dts_ord_41
	.section	.z_init_POST_KERNEL40_00041_,"a"
	.align	2
	.type	__init___device_dts_ord_41, %object
	.size	__init___device_dts_ord_41, 8
__init___device_dts_ord_41:
	.word	0
	.word	__device_dts_ord_41
	.global	__device_dts_ord_41
	.section	.rodata.str1.1,"aMS",%progbits,1
.LC3:
	.ascii	"extpower\000"
	.section	._device.static.3_40_,"a"
	.align	2
	.type	__device_dts_ord_41, %object
	.size	__device_dts_ord_41, 24
__device_dts_ord_41:
	.word	.LC3
	.word	0
	.word	behavior_ext_power_driver_api
	.word	__devstate_dts_ord_41
	.word	0
	.word	0
	.section	.z_devstate,"aw"
	.type	__devstate_dts_ord_41, %object
	.size	__devstate_dts_ord_41, 2
__devstate_dts_ord_41:
	.space	2
	.section	.rodata.behavior_ext_power_driver_api,"a"
	.align	2
	.type	behavior_ext_power_driver_api, %object
	.size	behavior_ext_power_driver_api, 24
behavior_ext_power_driver_api:
	.byte	2
	.space	3
	.word	on_keymap_binding_convert_central_state_dependent_params
	.word	on_keymap_binding_pressed
	.word	on_keymap_binding_released
	.space	8
	.text
.Letext0:
	.file 6 "/home/g/zephyr-sdk-0.16.3/arm-zephyr-eabi/picolibc/include/machine/_default_types.h"
	.file 7 "/home/g/zephyr-sdk-0.16.3/arm-zephyr-eabi/picolibc/include/sys/_stdint.h"
	.file 8 "/home/g/zephyr-sdk-0.16.3/arm-zephyr-eabi/lib/gcc/arm-zephyr-eabi/12.2.0/include/stddef.h"
	.file 9 "/home/g/mise-work/zmk-firmware/zmk/zephyr/include/zephyr/init.h"
	.file 10 "/home/g/mise-work/zmk-firmware/zmk/zephyr/include/zephyr/device.h"
	.file 11 "/home/g/mise-work/zmk-firmware/zmk/zephyr/include/zephyr/fatal_types.h"
	.file 12 "/home/g/mise-work/zmk-firmware/zmk/zephyr/include/zephyr/kernel.h"
	.file 13 "/home/g/mise-work/zmk-firmware/zmk/zephyr/include/zephyr/drivers/sensor.h"
	.file 14 "/home/g/mise-work/zmk-firmware/zmk/app/include/zmk/sensors.h"
	.file 15 "/home/g/mise-work/zmk-firmware/zmk/app/include/zmk/behavior.h"
	.file 16 "/home/g/mise-work/zmk-firmware/zmk/app/include/drivers/behavior.h"
	.file 17 "/home/g/mise-work/zmk-firmware/zmk/zephyr/include/zephyr/logging/log_instance.h"
	.file 18 "/home/g/mise-work/zmk-firmware/zmk/zephyr/include/zephyr/sys/cbprintf.h"
	.file 19 "/home/g/mise-work/zmk-firmware/zmk/zephyr/include/zephyr/logging/log_msg.h"
	.file 20 "/home/g/mise-work/zmk-firmware/zmk/zephyr/include/zephyr/sys/cbprintf_internal.h"
	.file 21 "/home/g/mise-work/zmk-firmware/zmk/zephyr/include/zephyr/syscall.h"