	.cpu cortex-m4
	.arch armv7e-m
	.fpu fpv4-sp-d16
	.eabi_attribute 27, 1
	.eabi_attribute 28, 1
	.eabi_attribute 20, 1
	.eabi_attribute 21, 1
	.eabi_attribute 23, 3
	.eabi_attribute 24, 1
	.eabi_attribute 25, 1
	.eabi_attribute 26, 1
	.eabi_attribute 30, 4
	.eabi_attribute 34, 1
	.eabi_attribute 38, 1
	.eabi_attribute 18, 4
	.file	"behavior_momentary_layer.c"
	.text
.Ltext0:
	.cfi_sections	.debug_frame
	.file 1 "/home/g/mise-work/zmk-firmware/zmk/app/src/behaviors/behavior_momentary_layer.c"
	.section	.rodata.mo_keymap_binding_pressed.str1.1,"aMS",%progbits,1
.LC0:
	.ascii	"%s: position %d layer %d\000"
	.section	.text.mo_keymap_binding_pressed,"ax",%progbits
	.align	1
	.syntax unified
	.thumb
	.thumb_func
	.type	mo_keymap_binding_pressed, %function
mo_keymap_binding_pressed:
.LVL0:
.LFB577:
	.loc 1 40 79 view -0
	.cfi_startproc
	@ args = 16, pretend = 8, frame = 0
	@ frame_needed = 1, uses_anonymous_args = 0
	.loc 1 41 5 view .LVU1
.LBB158:
	.loc 1 41 10 view .LVU2
	.loc 1 41 59 view .LVU3
	.loc 1 41 16 view .LVU4
	.loc 1 41 4 view .LVU5
	.loc 1 41 43 view .LVU6
	.loc 1 41 178 view .LVU7
	.loc 1 41 189 view .LVU8
	.loc 1 41 277 view .LVU9
.LBB159:
	.loc 1 41 5 view .LVU10
	.loc 1 41 7 view .LVU11
	.loc 1 41 56 view .LVU12
.LBE159:
.LBE158:
	.loc 1 40 79 is_stmt 0 view .LVU13
	sub	sp, sp, #8
	.cfi_def_cfa_offset 8
	push	{r4, r5, r7, lr}
	.cfi_def_cfa_offset 24
	.cfi_offset 4, -24
	.cfi_offset 5, -20
	.cfi_offset 7, -16
	.cfi_offset 14, -12
	add	r7, sp, #0
	.cfi_def_cfa_register 7
	.loc 1 40 79 view .LVU14
	add	r1, r7, #16
	stm	r1, {r2, r3}
.LBB197:
.LBB190:
.LBB160:
.LBB161:
	.loc 1 41 109 view .LVU15
	mov	r5, sp
	.loc 1 41 84 view .LVU16
	sub	sp, sp, #40
.LBE161:
.LBE160:
	.loc 1 41 68 view .LVU17
	ldr	r1, [r7, #20]
.LVL1:
	.loc 1 41 97 is_stmt 1 view .LVU18
	.loc 1 41 109 is_stmt 0 view .LVU19
	ldr	r3, [r0, #4]
.LVL2:
	.loc 1 41 5 is_stmt 1 view .LVU20
.LBB183:
	.loc 1 41 10 view .LVU21
	.loc 1 41 4 view .LVU22
.LBE183:
.LBE190:
.LBE197:
	.loc 1 41 5 view .LVU23
	.loc 1 41 14 view .LVU24
	.loc 1 41 109 view .LVU25
	.loc 1 41 5 view .LVU26
.LBB198:
.LBB191:
.LBB184:
	.loc 1 41 14 view .LVU27
	.loc 1 41 104 view .LVU28
	.loc 1 41 106 view .LVU29
.LBB177:
	.loc 1 41 111 view .LVU30
	.loc 1 41 122 view .LVU31
	.loc 1 41 211 view .LVU32
	.loc 1 41 28 view .LVU33
.LBE177:
.LBE184:
.LBE191:
.LBE198:
	.loc 1 41 5 view .LVU34
	.loc 1 41 370 view .LVU35
	.loc 1 41 77 view .LVU36
	.loc 1 41 4 view .LVU37
	.loc 1 41 4 view .LVU38
	.loc 1 41 4 view .LVU39
	.loc 1 41 40 view .LVU40
	.loc 1 41 6 view .LVU41
	.loc 1 41 32 view .LVU42
	.loc 1 41 58 view .LVU43
	.loc 1 41 1417 view .LVU44
	.loc 1 41 1479 view .LVU45
	.loc 1 41 2932 view .LVU46
	.loc 1 41 2997 view .LVU47
	.loc 1 41 3022 view .LVU48
	.loc 1 41 3023 view .LVU49
	.loc 1 41 3025 view .LVU50
	.loc 1 41 3055 view .LVU51
	.loc 1 41 3085 view .LVU52
	.loc 1 41 3117 view .LVU53
	.loc 1 41 3149 view .LVU54
	.loc 1 41 3181 view .LVU55
	.loc 1 41 3378 view .LVU56
	.loc 1 41 3402 view .LVU57
	.loc 1 41 3403 view .LVU58
	.loc 1 41 3405 view .LVU59
	.loc 1 41 3434 view .LVU60
	.loc 1 41 3463 view .LVU61
	.loc 1 41 3494 view .LVU62
	.loc 1 41 3525 view .LVU63
	.loc 1 41 3556 view .LVU64
	.loc 1 41 3763 view .LVU65
	.loc 1 41 6 view .LVU66
	.loc 1 41 24 view .LVU67
	.loc 1 41 44 view .LVU68
	.loc 1 41 6 view .LVU69
	.loc 1 41 44 view .LVU70
	.loc 1 41 15 view .LVU71
	.loc 1 41 15 view .LVU72
	.loc 1 41 63 view .LVU73
	.loc 1 41 94 view .LVU74
	.loc 1 41 128 view .LVU75
	.loc 1 41 133 view .LVU76
	.loc 1 41 384 view .LVU77
	.loc 1 41 1441 view .LVU78
	.loc 1 41 1506 view .LVU79
	.loc 1 41 1530 view .LVU80
	.loc 1 41 1585 view .LVU81
	.loc 1 41 1596 view .LVU82
	.loc 1 41 1709 view .LVU83
	.loc 1 41 1725 view .LVU84
	.loc 1 41 1765 view .LVU85
	.loc 1 41 1790 view .LVU86
	.loc 1 41 3081 view .LVU87
	.loc 1 41 3122 view .LVU88
	.loc 1 41 9 view .LVU89
	.loc 1 41 32 view .LVU90
	.loc 1 41 131 view .LVU91
	.loc 1 41 8 view .LVU92
	.loc 1 41 13 view .LVU93
	.loc 1 41 238 view .LVU94
	.loc 1 41 1191 view .LVU95
	.loc 1 41 1256 view .LVU96
	.loc 1 41 1280 view .LVU97
	.loc 1 41 1309 view .LVU98
	.loc 1 41 1320 view .LVU99
	.loc 1 41 1407 view .LVU100
	.loc 1 41 1423 view .LVU101
	.loc 1 41 1463 view .LVU102
	.loc 1 41 1488 view .LVU103
	.loc 1 41 2727 view .LVU104
	.loc 1 41 2768 view .LVU105
	.loc 1 41 9 view .LVU106
	.loc 1 41 32 view .LVU107
	.loc 1 41 11 view .LVU108
	.loc 1 41 8 view .LVU109
	.loc 1 41 13 view .LVU110
	.loc 1 41 238 view .LVU111
	.loc 1 41 1191 view .LVU112
	.loc 1 41 1256 view .LVU113
	.loc 1 41 1280 view .LVU114
	.loc 1 41 1309 view .LVU115
	.loc 1 41 1320 view .LVU116
	.loc 1 41 1407 view .LVU117
	.loc 1 41 1423 view .LVU118
	.loc 1 41 1463 view .LVU119
	.loc 1 41 2727 view .LVU120
	.loc 1 41 2768 view .LVU121
	.loc 1 41 9 view .LVU122
	.loc 1 41 32 view .LVU123
	.loc 1 41 11 view .LVU124
	.loc 1 41 8 view .LVU125
	.loc 1 41 13 view .LVU126
	.loc 1 41 238 view .LVU127
	.loc 1 41 1191 view .LVU128
	.loc 1 41 1256 view .LVU129
	.loc 1 41 1280 view .LVU130
	.loc 1 41 1309 view .LVU131
	.loc 1 41 1320 view .LVU132
	.loc 1 41 1407 view .LVU133
	.loc 1 41 1423 view .LVU134
	.loc 1 41 1463 view .LVU135
	.loc 1 41 2727 view .LVU136
	.loc 1 41 2768 view .LVU137
	.loc 1 41 9 view .LVU138
	.loc 1 41 32 view .LVU139
	.loc 1 41 11 view .LVU140
	.loc 1 41 7 view .LVU141
	.loc 1 41 30 view .LVU142
	.loc 1 41 54 view .LVU143
	.loc 1 41 82 view .LVU144
	.loc 1 41 258 view .LVU145
	.loc 1 41 18 view .LVU146
.LBB199:
.LBB192:
.LBB185:
.LBB178:
	.loc 1 41 31 view .LVU147
	.loc 1 41 5 view .LVU148
	.loc 1 41 5 view .LVU149
	.loc 1 41 72 view .LVU150
	.loc 1 41 72 is_stmt 0 view .LVU151
.LBE178:
.LBE185:
.LBE192:
.LBE199:
	.loc 1 40 79 view .LVU152
	mov	r4, r0
.LBB200:
.LBB193:
.LBB186:
.LBB179:
	.loc 1 41 84 view .LVU153
	mov	r2, sp
.LVL3:
	.loc 1 41 76 is_stmt 1 view .LVU154
	.loc 1 41 486 view .LVU155
	.loc 1 41 7 view .LVU156
	.loc 1 41 9 view .LVU157
	.loc 1 41 14 view .LVU158
	.loc 1 41 12 view .LVU159
	.loc 1 41 7 view .LVU160
	.loc 1 41 25 view .LVU161
.LBB162:
	.loc 1 41 5 view .LVU162
	.loc 1 41 370 view .LVU163
	.loc 1 41 77 view .LVU164
.LVL4:
	.loc 1 41 4 view .LVU165
	.loc 1 41 4 view .LVU166
	.loc 1 41 4 view .LVU167
	.loc 1 41 40 view .LVU168
	.loc 1 41 69 view .LVU169
	.loc 1 41 95 view .LVU170
	.loc 1 41 121 view .LVU171
	.loc 1 41 1480 view .LVU172
	.loc 1 41 1542 view .LVU173
	.loc 1 41 2995 view .LVU174
	.loc 1 41 3060 view .LVU175
	.loc 1 41 3085 view .LVU176
	.loc 1 41 3086 view .LVU177
	.loc 1 41 3088 view .LVU178
	.loc 1 41 3118 view .LVU179
	.loc 1 41 3148 view .LVU180
	.loc 1 41 3180 view .LVU181
	.loc 1 41 3212 view .LVU182
	.loc 1 41 3244 view .LVU183
	.loc 1 41 3441 view .LVU184
	.loc 1 41 3465 view .LVU185
	.loc 1 41 3466 view .LVU186
	.loc 1 41 3468 view .LVU187
	.loc 1 41 3497 view .LVU188
	.loc 1 41 3526 view .LVU189
	.loc 1 41 3557 view .LVU190
	.loc 1 41 3588 view .LVU191
	.loc 1 41 3619 view .LVU192
	.loc 1 41 3826 view .LVU193
.LBB163:
	.loc 1 41 3119 view .LVU194
	.loc 1 41 3124 view .LVU195
	.loc 1 41 3724 view .LVU196
	.loc 1 41 0 is_stmt 0 view .LVU197
	ldr	r0, .L2
.LVL5:
	.loc 1 41 0 view .LVU198
	str	r0, [r2, #20]
	.loc 1 41 3122 is_stmt 1 view .LVU199
	.loc 1 41 9 view .LVU200
.LVL6:
	.loc 1 41 32 view .LVU201
	.loc 1 41 32 is_stmt 0 view .LVU202
.LBE163:
	.loc 1 41 131 is_stmt 1 view .LVU203
	.loc 1 41 8 view .LVU204
.LBB164:
	.loc 1 41 13 view .LVU205
	.loc 1 41 238 view .LVU206
	.loc 1 41 1191 view .LVU207
	.loc 1 41 1256 view .LVU208
.LBE164:
.LBE162:
.LBE179:
.LBE186:
.LBE193:
.LBE200:
	.loc 1 41 1280 view .LVU209
	.loc 1 41 1309 view .LVU210
	.loc 1 41 1320 view .LVU211
	.loc 1 41 1407 view .LVU212
.LBB201:
.LBB194:
.LBB187:
.LBB180:
.LBB172:
.LBB165:
	.loc 1 41 1423 view .LVU213
	.loc 1 41 1463 view .LVU214
	.loc 1 41 1488 view .LVU215
	.loc 1 41 2727 view .LVU216
	.loc 1 41 2765 view .LVU217
	.loc 1 41 2770 view .LVU218
	.loc 1 41 3214 view .LVU219
	.loc 1 41 3813 is_stmt 0 view .LVU220
	ldr	r0, .L2+4
.LBE165:
.LBB166:
	.loc 1 41 3813 view .LVU221
	str	r3, [r2, #32]
.LBE166:
.LBB167:
	.loc 1 41 178 view .LVU222
	movs	r3, #5
.LVL7:
	.loc 1 41 178 view .LVU223
.LBE167:
.LBB168:
	.loc 1 41 3813 view .LVU224
	strd	r0, r1, [r2, #24]
	.loc 1 41 2768 is_stmt 1 view .LVU225
	.loc 1 41 9 view .LVU226
.LVL8:
	.loc 1 41 32 view .LVU227
	.loc 1 41 32 is_stmt 0 view .LVU228
.LBE168:
	.loc 1 41 11 is_stmt 1 view .LVU229
	.loc 1 41 8 view .LVU230
.LBB169:
	.loc 1 41 13 view .LVU231
	.loc 1 41 238 view .LVU232
	.loc 1 41 1191 view .LVU233
	.loc 1 41 1256 view .LVU234
.LBE169:
.LBE172:
.LBE180:
.LBE187:
.LBE194:
.LBE201:
	.loc 1 41 1280 view .LVU235
	.loc 1 41 1309 view .LVU236
	.loc 1 41 1320 view .LVU237
	.loc 1 41 1407 view .LVU238
.LBB202:
.LBB195:
.LBB188:
.LBB181:
.LBB173:
.LBB170:
	.loc 1 41 1423 view .LVU239
	.loc 1 41 1463 view .LVU240
	.loc 1 41 2727 view .LVU241
	.loc 1 41 2765 view .LVU242
	.loc 1 41 2770 view .LVU243
	.loc 1 41 3214 view .LVU244
	.loc 1 41 2768 view .LVU245
	.loc 1 41 9 view .LVU246
	.loc 1 41 32 view .LVU247
	.loc 1 41 32 is_stmt 0 view .LVU248
.LBE170:
	.loc 1 41 11 is_stmt 1 view .LVU249
	.loc 1 41 7 view .LVU250
	.loc 1 41 30 view .LVU251
	.loc 1 41 54 view .LVU252
	.loc 1 41 82 view .LVU253
.LBE173:
.LBE181:
.LBE188:
.LBE195:
.LBE202:
	.loc 1 41 8 view .LVU254
	.loc 1 41 47 view .LVU255
	.loc 1 41 52 view .LVU256
	.loc 1 41 82 view .LVU257
	.loc 1 41 149 view .LVU258
	.loc 1 41 154 view .LVU259
	.loc 1 41 184 view .LVU260
.LBB203:
.LBB196:
.LBB189:
.LBB182:
.LBB174:
	.loc 1 41 258 view .LVU261
	.loc 1 41 18 view .LVU262
.LBB171:
	.loc 1 41 8 view .LVU263
	.loc 1 41 166 view .LVU264
	.loc 1 41 168 view .LVU265
	.loc 1 41 178 is_stmt 0 view .LVU266
	str	r3, [r2, #16]!
.LVL9:
	.loc 1 41 178 view .LVU267
.LBE171:
.LBE174:
	.loc 1 41 28 is_stmt 1 view .LVU268
	.loc 1 41 9 view .LVU269
	.loc 1 41 149 view .LVU270
	.loc 1 41 151 view .LVU271
.LBB175:
.LBI175:
	.file 2 "/home/g/mise-work/zmk-firmware/zmk/app/build/zephyr/include/generated/syscalls/log_msg.h"
	.loc 2 26 20 view .LVU272
.LBB176:
	.loc 2 38 2 view .LVU273
	.loc 2 38 7 view .LVU274
	.loc 2 38 5 view .LVU275
	.loc 2 39 2 view .LVU276
	movs	r3, #0
	mov	r1, #10496
.LVL10:
	.loc 2 39 2 is_stmt 0 view .LVU277
	ldr	r0, .L2+8
	bl	z_impl_z_log_msg_static_create
.LVL11:
	.loc 2 39 2 view .LVU278
.LBE176:
.LBE175:
	mov	sp, r5
.LVL12:
	.loc 2 39 2 view .LVU279
.LBE182:
	.loc 1 41 109 is_stmt 1 view .LVU280
	.loc 1 41 7 view .LVU281
	.loc 1 41 44 view .LVU282
.LBE189:
	.loc 1 41 8 view .LVU283
.LBE196:
	.loc 1 41 280 view .LVU284
	.loc 1 41 7 view .LVU285
	.loc 1 41 20 view .LVU286
.LBE203:
	.loc 1 41 8 view .LVU287
	.loc 1 42 5 view .LVU288
	.loc 1 42 12 is_stmt 0 view .LVU289
	ldrb	r0, [r4, #4]	@ zero_extendqisi2
	bl	zmk_keymap_layer_activate
.LVL13:
	.loc 1 43 1 view .LVU290
	mov	sp, r7
	.cfi_def_cfa_register 13
	@ sp needed
	pop	{r4, r5, r7, lr}
	.cfi_restore 14
	.cfi_restore 7
	.cfi_restore 5
	.cfi_restore 4
	.cfi_def_cfa_offset 8
.LVL14:
	.loc 1 43 1 view .LVU291
	add	sp, sp, #8
	.cfi_def_cfa_offset 0
.LVL15:
	.loc 1 43 1 view .LVU292
	bx	lr
.L3:
	.align	2
.L2:
	.word	.LC0
	.word	__func__.0
	.word	log_const_zmk
	.cfi_endproc
.LFE577:
	.size	mo_keymap_binding_pressed, .-mo_keymap_binding_pressed
	.section	.text.mo_keymap_binding_released,"ax",%progbits
	.align	1
	.syntax unified
	.thumb
	.thumb_func
	.type	mo_keymap_binding_released, %function
mo_keymap_binding_released:
.LVL16:
.LFB578:
	.loc 1 46 80 is_stmt 1 view -0
	.cfi_startproc
	@ args = 16, pretend = 8, frame = 0
	@ frame_needed = 1, uses_anonymous_args = 0
	.loc 1 47 5 view .LVU294
.LBB216:
	.loc 1 47 10 view .LVU295
	.loc 1 47 59 view .LVU296
	.loc 1 47 16 view .LVU297
	.loc 1 47 4 view .LVU298
	.loc 1 47 43 view .LVU299
	.loc 1 47 178 view .LVU300
	.loc 1 47 189 view .LVU301
	.loc 1 47 277 view .LVU302
.LBB217:
	.loc 1 47 5 view .LVU303
	.loc 1 47 7 view .LVU304
	.loc 1 47 56 view .LVU305
.LBE217:
.LBE216:
	.loc 1 46 80 is_stmt 0 view .LVU306
	sub	sp, sp, #8
	.cfi_def_cfa_offset 8
	push	{r4, r5, r7, lr}
	.cfi_def_cfa_offset 24
	.cfi_offset 4, -24
	.cfi_offset 5, -20
	.cfi_offset 7, -16
	.cfi_offset 14, -12
	add	r7, sp, #0
	.cfi_def_cfa_register 7
	.loc 1 46 80 view .LVU307
	add	r1, r7, #16
	stm	r1, {r2, r3}
.LBB255:
.LBB248:
.LBB218:
.LBB219:
	.loc 1 47 109 view .LVU308
	mov	r5, sp
	.loc 1 47 84 view .LVU309
	sub	sp, sp, #40
.LBE219:
.LBE218:
	.loc 1 47 68 view .LVU310
	ldr	r1, [r7, #20]
.LVL17:
	.loc 1 47 97 is_stmt 1 view .LVU311
	.loc 1 47 109 is_stmt 0 view .LVU312
	ldr	r3, [r0, #4]
.LVL18:
	.loc 1 47 5 is_stmt 1 view .LVU313
.LBB241:
	.loc 1 47 10 view .LVU314
	.loc 1 47 4 view .LVU315
.LBE241:
.LBE248:
.LBE255:
	.loc 1 47 5 view .LVU316
	.loc 1 47 14 view .LVU317
	.loc 1 47 109 view .LVU318
	.loc 1 47 5 view .LVU319
.LBB256:
.LBB249:
.LBB242:
	.loc 1 47 14 view .LVU320
	.loc 1 47 104 view .LVU321
	.loc 1 47 106 view .LVU322
.LBB235:
	.loc 1 47 111 view .LVU323
	.loc 1 47 122 view .LVU324
	.loc 1 47 211 view .LVU325
	.loc 1 47 28 view .LVU326
.LBE235:
.LBE242:
.LBE249:
.LBE256:
	.loc 1 47 5 view .LVU327
	.loc 1 47 370 view .LVU328
	.loc 1 47 77 view .LVU329
	.loc 1 47 4 view .LVU330
	.loc 1 47 4 view .LVU331
	.loc 1 47 4 view .LVU332
	.loc 1 47 40 view .LVU333
	.loc 1 47 6 view .LVU334
	.loc 1 47 32 view .LVU335
	.loc 1 47 58 view .LVU336
	.loc 1 47 1417 view .LVU337
	.loc 1 47 1479 view .LVU338
	.loc 1 47 2932 view .LVU339
	.loc 1 47 2997 view .LVU340
	.loc 1 47 3022 view .LVU341
	.loc 1 47 3023 view .LVU342
	.loc 1 47 3025 view .LVU343
	.loc 1 47 3055 view .LVU344
	.loc 1 47 3085 view .LVU345
	.loc 1 47 3117 view .LVU346
	.loc 1 47 3149 view .LVU347
	.loc 1 47 3181 view .LVU348
	.loc 1 47 3378 view .LVU349
	.loc 1 47 3402 view .LVU350
	.loc 1 47 3403 view .LVU351
	.loc 1 47 3405 view .LVU352
	.loc 1 47 3434 view .LVU353
	.loc 1 47 3463 view .LVU354
	.loc 1 47 3494 view .LVU355
	.loc 1 47 3525 view .LVU356
	.loc 1 47 3556 view .LVU357
	.loc 1 47 3763 view .LVU358
	.loc 1 47 6 view .LVU359
	.loc 1 47 24 view .LVU360
	.loc 1 47 44 view .LVU361
	.loc 1 47 6 view .LVU362
	.loc 1 47 44 view .LVU363
	.loc 1 47 15 view .LVU364
	.loc 1 47 15 view .LVU365
	.loc 1 47 63 view .LVU366
	.loc 1 47 94 view .LVU367
	.loc 1 47 128 view .LVU368
	.loc 1 47 133 view .LVU369
	.loc 1 47 384 view .LVU370
	.loc 1 47 1441 view .LVU371
	.loc 1 47 1506 view .LVU372
	.loc 1 47 1530 view .LVU373
	.loc 1 47 1585 view .LVU374
	.loc 1 47 1596 view .LVU375
	.loc 1 47 1709 view .LVU376
	.loc 1 47 1725 view .LVU377
	.loc 1 47 1765 view .LVU378
	.loc 1 47 1790 view .LVU379
	.loc 1 47 3081 view .LVU380
	.loc 1 47 3122 view .LVU381
	.loc 1 47 9 view .LVU382
	.loc 1 47 32 view .LVU383
	.loc 1 47 131 view .LVU384
	.loc 1 47 8 view .LVU385
	.loc 1 47 13 view .LVU386
	.loc 1 47 238 view .LVU387
	.loc 1 47 1191 view .LVU388
	.loc 1 47 1256 view .LVU389
	.loc 1 47 1280 view .LVU390
	.loc 1 47 1309 view .LVU391
	.loc 1 47 1320 view .LVU392
	.loc 1 47 1407 view .LVU393
	.loc 1 47 1423 view .LVU394
	.loc 1 47 1463 view .LVU395
	.loc 1 47 1488 view .LVU396
	.loc 1 47 2727 view .LVU397
	.loc 1 47 2768 view .LVU398
	.loc 1 47 9 view .LVU399
	.loc 1 47 32 view .LVU400
	.loc 1 47 11 view .LVU401
	.loc 1 47 8 view .LVU402
	.loc 1 47 13 view .LVU403
	.loc 1 47 238 view .LVU404
	.loc 1 47 1191 view .LVU405
	.loc 1 47 1256 view .LVU406
	.loc 1 47 1280 view .LVU407
	.loc 1 47 1309 view .LVU408
	.loc 1 47 1320 view .LVU409
	.loc 1 47 1407 view .LVU410
	.loc 1 47 1423 view .LVU411
	.loc 1 47 1463 view .LVU412
	.loc 1 47 2727 view .LVU413
	.loc 1 47 2768 view .LVU414
	.loc 1 47 9 view .LVU415
	.loc 1 47 32 view .LVU416
	.loc 1 47 11 view .LVU417
	.loc 1 47 8 view .LVU418
	.loc 1 47 13 view .LVU419
	.loc 1 47 238 view .LVU420
	.loc 1 47 1191 view .LVU421
	.loc 1 47 1256 view .LVU422
	.loc 1 47 1280 view .LVU423
	.loc 1 47 1309 view .LVU424
	.loc 1 47 1320 view .LVU425
	.loc 1 47 1407 view .LVU426
	.loc 1 47 1423 view .LVU427
	.loc 1 47 1463 view .LVU428
	.loc 1 47 2727 view .LVU429
	.loc 1 47 2768 view .LVU430
	.loc 1 47 9 view .LVU431
	.loc 1 47 32 view .LVU432
	.loc 1 47 11 view .LVU433
	.loc 1 47 7 view .LVU434
	.loc 1 47 30 view .LVU435
	.loc 1 47 54 view .LVU436
	.loc 1 47 82 view .LVU437
	.loc 1 47 258 view .LVU438
	.loc 1 47 18 view .LVU439
.LBB257:
.LBB250:
.LBB243:
.LBB236:
	.loc 1 47 31 view .LVU440
	.loc 1 47 5 view .LVU441
	.loc 1 47 5 view .LVU442
	.loc 1 47 72 view .LVU443
	.loc 1 47 72 is_stmt 0 view .LVU444
.LBE236:
.LBE243:
.LBE250:
.LBE257:
	.loc 1 46 80 view .LVU445
	mov	r4, r0
.LBB258:
.LBB251:
.LBB244:
.LBB237:
	.loc 1 47 84 view .LVU446
	mov	r2, sp
.LVL19:
	.loc 1 47 76 is_stmt 1 view .LVU447
	.loc 1 47 486 view .LVU448
	.loc 1 47 7 view .LVU449
	.loc 1 47 9 view .LVU450
	.loc 1 47 14 view .LVU451
	.loc 1 47 12 view .LVU452
	.loc 1 47 7 view .LVU453
	.loc 1 47 25 view .LVU454
.LBB220:
	.loc 1 47 5 view .LVU455
	.loc 1 47 370 view .LVU456
	.loc 1 47 77 view .LVU457
.LVL20:
	.loc 1 47 4 view .LVU458
	.loc 1 47 4 view .LVU459
	.loc 1 47 4 view .LVU460
	.loc 1 47 40 view .LVU461
	.loc 1 47 69 view .LVU462
	.loc 1 47 95 view .LVU463
	.loc 1 47 121 view .LVU464
	.loc 1 47 1480 view .LVU465
	.loc 1 47 1542 view .LVU466
	.loc 1 47 2995 view .LVU467
	.loc 1 47 3060 view .LVU468
	.loc 1 47 3085 view .LVU469
	.loc 1 47 3086 view .LVU470
	.loc 1 47 3088 view .LVU471
	.loc 1 47 3118 view .LVU472
	.loc 1 47 3148 view .LVU473
	.loc 1 47 3180 view .LVU474
	.loc 1 47 3212 view .LVU475
	.loc 1 47 3244 view .LVU476
	.loc 1 47 3441 view .LVU477
	.loc 1 47 3465 view .LVU478
	.loc 1 47 3466 view .LVU479
	.loc 1 47 3468 view .LVU480
	.loc 1 47 3497 view .LVU481
	.loc 1 47 3526 view .LVU482
	.loc 1 47 3557 view .LVU483
	.loc 1 47 3588 view .LVU484
	.loc 1 47 3619 view .LVU485
	.loc 1 47 3826 view .LVU486
.LBB221:
	.loc 1 47 3119 view .LVU487
	.loc 1 47 3124 view .LVU488
	.loc 1 47 3724 view .LVU489
	.loc 1 47 0 is_stmt 0 view .LVU490
	ldr	r0, .L5
.LVL21:
	.loc 1 47 0 view .LVU491
	str	r0, [r2, #20]
	.loc 1 47 3122 is_stmt 1 view .LVU492
	.loc 1 47 9 view .LVU493
.LVL22:
	.loc 1 47 32 view .LVU494
	.loc 1 47 32 is_stmt 0 view .LVU495
.LBE221:
	.loc 1 47 131 is_stmt 1 view .LVU496
	.loc 1 47 8 view .LVU497
.LBB222:
	.loc 1 47 13 view .LVU498
	.loc 1 47 238 view .LVU499
	.loc 1 47 1191 view .LVU500
	.loc 1 47 1256 view .LVU501
.LBE222:
.LBE220:
.LBE237:
.LBE244:
.LBE251:
.LBE258:
	.loc 1 47 1280 view .LVU502
	.loc 1 47 1309 view .LVU503
	.loc 1 47 1320 view .LVU504
	.loc 1 47 1407 view .LVU505
.LBB259:
.LBB252:
.LBB245:
.LBB238:
.LBB230:
.LBB223:
	.loc 1 47 1423 view .LVU506
	.loc 1 47 1463 view .LVU507
	.loc 1 47 1488 view .LVU508
	.loc 1 47 2727 view .LVU509
	.loc 1 47 2765 view .LVU510
	.loc 1 47 2770 view .LVU511
	.loc 1 47 3214 view .LVU512
	.loc 1 47 3813 is_stmt 0 view .LVU513
	ldr	r0, .L5+4
.LBE223:
.LBB224:
	.loc 1 47 3813 view .LVU514
	str	r3, [r2, #32]
.LBE224:
.LBB225:
	.loc 1 47 178 view .LVU515
	movs	r3, #5
.LVL23:
	.loc 1 47 178 view .LVU516
.LBE225:
.LBB226:
	.loc 1 47 3813 view .LVU517
	strd	r0, r1, [r2, #24]
	.loc 1 47 2768 is_stmt 1 view .LVU518
	.loc 1 47 9 view .LVU519
.LVL24:
	.loc 1 47 32 view .LVU520
	.loc 1 47 32 is_stmt 0 view .LVU521
.LBE226:
	.loc 1 47 11 is_stmt 1 view .LVU522
	.loc 1 47 8 view .LVU523
.LBB227:
	.loc 1 47 13 view .LVU524
	.loc 1 47 238 view .LVU525
	.loc 1 47 1191 view .LVU526
	.loc 1 47 1256 view .LVU527
.LBE227:
.LBE230:
.LBE238:
.LBE245:
.LBE252:
.LBE259:
	.loc 1 47 1280 view .LVU528
	.loc 1 47 1309 view .LVU529
	.loc 1 47 1320 view .LVU530
	.loc 1 47 1407 view .LVU531
.LBB260:
.LBB253:
.LBB246:
.LBB239:
.LBB231:
.LBB228:
	.loc 1 47 1423 view .LVU532
	.loc 1 47 1463 view .LVU533
	.loc 1 47 2727 view .LVU534
	.loc 1 47 2765 view .LVU535
	.loc 1 47 2770 view .LVU536
	.loc 1 47 3214 view .LVU537
	.loc 1 47 2768 view .LVU538
	.loc 1 47 9 view .LVU539
	.loc 1 47 32 view .LVU540
	.loc 1 47 32 is_stmt 0 view .LVU541
.LBE228:
	.loc 1 47 11 is_stmt 1 view .LVU542
	.loc 1 47 7 view .LVU543
	.loc 1 47 30 view .LVU544
	.loc 1 47 54 view .LVU545
	.loc 1 47 82 view .LVU546
.LBE231:
.LBE239:
.LBE246:
.LBE253:
.LBE260:
	.loc 1 47 8 view .LVU547
	.loc 1 47 47 view .LVU548
	.loc 1 47 52 view .LVU549
	.loc 1 47 82 view .LVU550
	.loc 1 47 149 view .LVU551
	.loc 1 47 154 view .LVU552
	.loc 1 47 184 view .LVU553
.LBB261:
.LBB254:
.LBB247:
.LBB240:
.LBB232:
	.loc 1 47 258 view .LVU554
	.loc 1 47 18 view .LVU555
.LBB229:
	.loc 1 47 8 view .LVU556
	.loc 1 47 166 view .LVU557
	.loc 1 47 168 view .LVU558
	.loc 1 47 178 is_stmt 0 view .LVU559
	str	r3, [r2, #16]!
.LVL25:
	.loc 1 47 178 view .LVU560
.LBE229:
.LBE232:
	.loc 1 47 28 is_stmt 1 view .LVU561
	.loc 1 47 9 view .LVU562
	.loc 1 47 149 view .LVU563
	.loc 1 47 151 view .LVU564
.LBB233:
.LBI233:
	.loc 2 26 20 view .LVU565
.LBB234:
	.loc 2 38 2 view .LVU566
	.loc 2 38 7 view .LVU567
	.loc 2 38 5 view .LVU568
	.loc 2 39 2 view .LVU569
	movs	r3, #0
	mov	r1, #10496
.LVL26:
	.loc 2 39 2 is_stmt 0 view .LVU570
	ldr	r0, .L5+8
	bl	z_impl_z_log_msg_static_create
.LVL27:
	.loc 2 39 2 view .LVU571
.LBE234:
.LBE233:
	mov	sp, r5
.LVL28:
	.loc 2 39 2 view .LVU572
.LBE240:
	.loc 1 47 109 is_stmt 1 view .LVU573
	.loc 1 47 7 view .LVU574
	.loc 1 47 44 view .LVU575
.LBE247:
	.loc 1 47 8 view .LVU576
.LBE254:
	.loc 1 47 280 view .LVU577
	.loc 1 47 7 view .LVU578
	.loc 1 47 20 view .LVU579
.LBE261:
	.loc 1 47 8 view .LVU580
	.loc 1 48 5 view .LVU581
	.loc 1 48 12 is_stmt 0 view .LVU582
	ldrb	r0, [r4, #4]	@ zero_extendqisi2
	bl	zmk_keymap_layer_deactivate
.LVL29:
	.loc 1 49 1 view .LVU583
	mov	sp, r7
	.cfi_def_cfa_register 13
	@ sp needed
	pop	{r4, r5, r7, lr}
	.cfi_restore 14
	.cfi_restore 7
	.cfi_restore 5
	.cfi_restore 4
	.cfi_def_cfa_offset 8
.LVL30:
	.loc 1 49 1 view .LVU584
	add	sp, sp, #8
	.cfi_def_cfa_offset 0
.LVL31:
	.loc 1 49 1 view .LVU585
	bx	lr
.L6:
	.align	2
.L5:
	.word	.LC0
	.word	__func__.1
	.word	log_const_zmk
	.cfi_endproc
.LFE578:
	.size	mo_keymap_binding_released, .-mo_keymap_binding_released
	.section	.rodata.__func__.0,"a"
	.type	__func__.0, %object
	.size	__func__.0, 26
__func__.0:
	.ascii	"mo_keymap_binding_pressed\000"
	.section	.rodata.__func__.1,"a"
	.type	__func__.1, %object
	.size	__func__.1, 27
__func__.1:
	.ascii	"mo_keymap_binding_released\000"
	.section	._zmk_behavior_ref.static.zmk_behavior___device_dts_ord_52_,"a"
	.align	2
	.type	zmk_behavior___device_dts_ord_52, %object
	.size	zmk_behavior___device_dts_ord_52, 4
zmk_behavior___device_dts_ord_52:
	.word	__device_dts_ord_52
	.section	.z_init_POST_KERNEL40_00052_,"a"
	.align	2
	.type	__init___device_dts_ord_52, %object
	.size	__init___device_dts_ord_52, 8
__init___device_dts_ord_52:
	.word	0
	.word	__device_dts_ord_52
	.global	__device_dts_ord_52
	.section	.rodata.str1.1,"aMS",%progbits,1
.LC1:
	.ascii	"momentary_layer\000"
	.section	._device.static.3_40_,"a"
	.align	2
	.type	__device_dts_ord_52, %object
	.size	__device_dts_ord_52, 24
__device_dts_ord_52:
	.word	.LC1
	.word	0
	.word	behavior_mo_driver_api
	.word	__devstate_dts_ord_52
	.word	0
	.word	0
	.section	.z_devstate,"aw"
	.type	__devstate_dts_ord_52, %object
	.size	__devstate_dts_ord_52, 2
__devstate_dts_ord_52:
	.space	2
	.section	.rodata.behavior_mo_driver_api,"a"
	.align	2
	.type	behavior_mo_driver_api, %object
	.size	behavior_mo_driver_api, 24
behavior_mo_driver_api:
	.space	8
	.word	mo_keymap_binding_pressed
	.word	mo_keymap_binding_released
	.space	8
	.text
.Letext0:
	.file 3 "/home/g/zephyr-sdk-0.16.3/arm-zephyr-eabi/picolibc/include/machine/_default_types.h"
	.file 4 "/home/g/zephyr-sdk-0.16.3/arm-zephyr-eabi/picolibc/include/sys/_stdint.h"
	.file 5 "/home/g/zephyr-sdk-0.16.3/arm-zephyr-eabi/lib/gcc/arm-zephyr-eabi/12.2.0/include/stddef.h"
	.file 6 "/home/g/mise-work/zmk-firmware/zmk/zephyr/include/zephyr/init.h"
	.file 7 "/home/g/mise-work/zmk-firmware/zmk/zephyr/include/zephyr/device.h"
	.file 8 "/home/g/mise-work/zmk-firmware/zmk/zephyr/include/zephyr/fatal_types.h"
	.file 9 "/home/g/mise-work/zmk-firmware/zmk/zephyr/include/zephyr/kernel.h"
	.file 10 "/home/g/mise-work/zmk-firmware/zmk/zephyr/include/zephyr/drivers/sensor.h"
	.file 11 "/home/g/mise-work/zmk-firmware/zmk/app/include/zmk/sensors.h"
	.file 12 "/home/g/mise-work/zmk-firmware/zmk/app/include/zmk/behavior.h"
	.file 13 "/home/g/mise-work/zmk-firmware/zmk/app/include/drivers/behavior.h"
	.file 14 "/home/g/mise-work/zmk-firmware/zmk/zephyr/include/zephyr/logging/log_instance.h"
	.file 15 "/home/g/mise-work/zmk-firmware/zmk/zephyr/include/zephyr/sys/cbprintf.h"
	.file 16 "/home/g/mise-work/zmk-firmware/zmk/zephyr/include/zephyr/logging/log_msg.h"
	.file 17 "/home/g/mise-work/zmk-firmware/zmk/app/include/zmk/keymap.h"
	.file 18 "/home/g/mise-work/zmk-firmware/zmk/zephyr/include/zephyr/sys/cbprintf_internal.h"
	.file 19 "/home/g/mise-work/zmk-firmware/zmk/zephyr/include/zephyr/syscall.h"