	.cpu cortex-m4
	.arch armv7e-m
	.fpu fpv4-sp-d16
	.eabi_attribute 27, 1
	.eabi_attribute 28, 1
	.eabi_attribute 20, 1
	.eabi_attribute 21, 1
	.eabi_attribute 23, 3
	.eabi_attribute 24, 1
	.eabi_attribute 25, 1
	.eabi_attribute 26, 1
	.eabi_attribute 30, 4
	.eabi_attribute 34, 1
	.eabi_attribute 38, 1
	.eabi_attribute 18, 4
	.file	"behavior_mouse_key_press.c"
	.text
.Ltext0:
	.cfi_sections	.debug_frame
	.file 1 "/home/g/mise-work/zmk-firmware/zmk/app/src/behaviors/behavior_mouse_key_press.c"
	.section	.text.process_key_state,"ax",%progbits
	.align	1
	.syntax unified
	.thumb
	.thumb_func
	.type	process_key_state, %function
process_key_state:
.LVL0:
.LFB582:
	.loc 1 43 83 view -0
	.cfi_startproc
	@ args = 0, pretend = 0, frame = 0
	@ frame_needed = 0, uses_anonymous_args = 0
	.loc 1 44 5 view .LVU1
.LBB150:
	.loc 1 44 10 view .LVU2
	.loc 1 44 10 is_stmt 0 view .LVU3
.LBE150:
	.loc 1 43 83 view .LVU4
	push	{r0, r1, r2, r3, r4, r5, r6, r7, r8, r10, fp, lr}
	.cfi_def_cfa_offset 48
	.cfi_offset 4, -32
	.cfi_offset 5, -28
	.cfi_offset 6, -24
	.cfi_offset 7, -20
	.cfi_offset 8, -16
	.cfi_offset 10, -12
	.cfi_offset 11, -8
	.cfi_offset 14, -4
	.loc 1 43 83 view .LVU5
	mov	r6, r0
	mov	r5, r1
.LBB159:
	.loc 1 44 23 is_stmt 1 view .LVU6
.LBE159:
	.loc 1 43 83 is_stmt 0 view .LVU7
	mov	r7, r2
.LBB160:
	.loc 1 44 14 view .LVU8
	movs	r4, #0
.LBB151:
	.loc 1 46 68 view .LVU9
	mov	r8, #1
	mov	r10, #-1
.LVL1:
	.loc 1 46 68 view .LVU10
	mov	fp, #-1
.LVL2:
.L3:
	.loc 1 46 68 view .LVU11
.LBE151:
	.loc 1 45 9 is_stmt 1 view .LVU12
	.loc 1 45 13 is_stmt 0 view .LVU13
	lsr	r3, r5, r4
	.loc 1 45 12 view .LVU14
	lsls	r2, r3, #31
	bpl	.L2
.LBB158:
	.loc 1 46 13 is_stmt 1 view .LVU15
.LVL3:
	.loc 1 47 13 view .LVU16
.LBB152:
.LBI152:
	.file 2 "/home/g/mise-work/zmk-firmware/zmk/zephyr/include/zephyr/input/input.h"
	.loc 2 78 19 view .LVU17
.LBB153:
	.loc 2 82 2 view .LVU18
.LBE153:
.LBE152:
	.loc 1 46 68 is_stmt 0 view .LVU19
	lsl	r1, r8, r4
	.loc 1 47 13 view .LVU20
	bics	r5, r5, r1
.LBB156:
.LBB154:
	.loc 2 82 9 view .LVU21
	ite	eq
	moveq	r3, #1
	movne	r3, #0
.LBE154:
.LBE156:
	.loc 1 47 13 view .LVU22
	add	r2, r4, #256
.LBB157:
.LBB155:
	.loc 2 82 9 view .LVU23
	str	r3, [sp]
	strd	r10, [sp, #8]
	mov	r3, r7
	uxth	r2, r2
	movs	r1, #1
	mov	r0, r6
	bl	input_report
.LVL4:
.L2:
	.loc 2 82 9 view .LVU24
.LBE155:
.LBE157:
.LBE158:
	.loc 1 44 32 is_stmt 1 discriminator 2 view .LVU25
	adds	r4, r4, #1
.LVL5:
	.loc 1 44 23 discriminator 2 view .LVU26
	cmp	r4, #5
	bne	.L3
.LBE160:
	.loc 1 50 1 is_stmt 0 view .LVU27
	add	sp, sp, #16
	.cfi_def_cfa_offset 32
	@ sp needed
	pop	{r4, r5, r6, r7, r8, r10, fp, pc}
	.loc 1 50 1 view .LVU28
	.cfi_endproc
.LFE582:
	.size	process_key_state, .-process_key_state
	.section	.rodata.on_keymap_binding_pressed.str1.1,"aMS",%progbits,1
.LC0:
	.ascii	"%s: position %d keycode 0x%02X\000"
	.section	.text.on_keymap_binding_pressed,"ax",%progbits
	.align	1
	.syntax unified
	.thumb
	.thumb_func
	.type	on_keymap_binding_pressed, %function
on_keymap_binding_pressed:
.LVL6:
.LFB583:
	.loc 1 53 79 is_stmt 1 view -0
	.cfi_startproc
	@ args = 16, pretend = 8, frame = 0
	@ frame_needed = 1, uses_anonymous_args = 0
	.loc 1 54 5 view .LVU30
.LBB173:
	.loc 1 54 10 view .LVU31
	.loc 1 54 59 view .LVU32
	.loc 1 54 16 view .LVU33
	.loc 1 54 4 view .LVU34
	.loc 1 54 43 view .LVU35
	.loc 1 54 178 view .LVU36
	.loc 1 54 189 view .LVU37
	.loc 1 54 277 view .LVU38
.LBB174:
	.loc 1 54 5 view .LVU39
	.loc 1 54 7 view .LVU40
	.loc 1 54 56 view .LVU41
.LBE174:
.LBE173:
	.loc 1 53 79 is_stmt 0 view .LVU42
	sub	sp, sp, #8
	.cfi_def_cfa_offset 8
	push	{r4, r5, r7, lr}
	.cfi_def_cfa_offset 24
	.cfi_offset 4, -24
	.cfi_offset 5, -20
	.cfi_offset 7, -16
	.cfi_offset 14, -12
	add	r7, sp, #0
	.cfi_def_cfa_register 7
	.loc 1 53 79 view .LVU43
	add	r1, r7, #16
	stm	r1, {r2, r3}
.LBB212:
.LBB205:
.LBB175:
.LBB176:
	.loc 1 54 109 view .LVU44
	mov	r5, sp
	.loc 1 54 84 view .LVU45
	sub	sp, sp, #40
.LBE176:
.LBE175:
	.loc 1 54 68 view .LVU46
	ldr	r1, [r7, #20]
.LVL7:
	.loc 1 54 97 is_stmt 1 view .LVU47
	.loc 1 54 109 is_stmt 0 view .LVU48
	ldr	r3, [r0, #4]
.LVL8:
	.loc 1 54 5 is_stmt 1 view .LVU49
.LBB198:
	.loc 1 54 10 view .LVU50
	.loc 1 54 4 view .LVU51
.LBE198:
.LBE205:
.LBE212:
	.loc 1 54 5 view .LVU52
	.loc 1 54 14 view .LVU53
	.loc 1 54 109 view .LVU54
	.loc 1 54 5 view .LVU55
.LBB213:
.LBB206:
.LBB199:
	.loc 1 54 14 view .LVU56
	.loc 1 54 104 view .LVU57
	.loc 1 54 106 view .LVU58
.LBB192:
	.loc 1 54 111 view .LVU59
	.loc 1 54 122 view .LVU60
	.loc 1 54 211 view .LVU61
	.loc 1 54 28 view .LVU62
.LBE192:
.LBE199:
.LBE206:
.LBE213:
	.loc 1 54 5 view .LVU63
	.loc 1 54 370 view .LVU64
	.loc 1 54 77 view .LVU65
	.loc 1 54 4 view .LVU66
	.loc 1 54 4 view .LVU67
	.loc 1 54 4 view .LVU68
	.loc 1 54 40 view .LVU69
	.loc 1 54 6 view .LVU70
	.loc 1 54 32 view .LVU71
	.loc 1 54 58 view .LVU72
	.loc 1 54 1417 view .LVU73
	.loc 1 54 1479 view .LVU74
	.loc 1 54 2932 view .LVU75
	.loc 1 54 2997 view .LVU76
	.loc 1 54 3022 view .LVU77
	.loc 1 54 3023 view .LVU78
	.loc 1 54 3025 view .LVU79
	.loc 1 54 3055 view .LVU80
	.loc 1 54 3085 view .LVU81
	.loc 1 54 3117 view .LVU82
	.loc 1 54 3149 view .LVU83
	.loc 1 54 3181 view .LVU84
	.loc 1 54 3378 view .LVU85
	.loc 1 54 3402 view .LVU86
	.loc 1 54 3403 view .LVU87
	.loc 1 54 3405 view .LVU88
	.loc 1 54 3434 view .LVU89
	.loc 1 54 3463 view .LVU90
	.loc 1 54 3494 view .LVU91
	.loc 1 54 3525 view .LVU92
	.loc 1 54 3556 view .LVU93
	.loc 1 54 3763 view .LVU94
	.loc 1 54 6 view .LVU95
	.loc 1 54 24 view .LVU96
	.loc 1 54 44 view .LVU97
	.loc 1 54 6 view .LVU98
	.loc 1 54 44 view .LVU99
	.loc 1 54 15 view .LVU100
	.loc 1 54 15 view .LVU101
	.loc 1 54 63 view .LVU102
	.loc 1 54 94 view .LVU103
	.loc 1 54 128 view .LVU104
	.loc 1 54 133 view .LVU105
	.loc 1 54 390 view .LVU106
	.loc 1 54 1471 view .LVU107
	.loc 1 54 1536 view .LVU108
	.loc 1 54 1560 view .LVU109
	.loc 1 54 1621 view .LVU110
	.loc 1 54 1632 view .LVU111
	.loc 1 54 1751 view .LVU112
	.loc 1 54 1767 view .LVU113
	.loc 1 54 1807 view .LVU114
	.loc 1 54 1832 view .LVU115
	.loc 1 54 3135 view .LVU116
	.loc 1 54 3176 view .LVU117
	.loc 1 54 9 view .LVU118
	.loc 1 54 32 view .LVU119
	.loc 1 54 131 view .LVU120
	.loc 1 54 8 view .LVU121
	.loc 1 54 13 view .LVU122
	.loc 1 54 238 view .LVU123
	.loc 1 54 1191 view .LVU124
	.loc 1 54 1256 view .LVU125
	.loc 1 54 1280 view .LVU126
	.loc 1 54 1309 view .LVU127
	.loc 1 54 1320 view .LVU128
	.loc 1 54 1407 view .LVU129
	.loc 1 54 1423 view .LVU130
	.loc 1 54 1463 view .LVU131
	.loc 1 54 1488 view .LVU132
	.loc 1 54 2727 view .LVU133
	.loc 1 54 2768 view .LVU134
	.loc 1 54 9 view .LVU135
	.loc 1 54 32 view .LVU136
	.loc 1 54 11 view .LVU137
	.loc 1 54 8 view .LVU138
	.loc 1 54 13 view .LVU139
	.loc 1 54 238 view .LVU140
	.loc 1 54 1191 view .LVU141
	.loc 1 54 1256 view .LVU142
	.loc 1 54 1280 view .LVU143
	.loc 1 54 1309 view .LVU144
	.loc 1 54 1320 view .LVU145
	.loc 1 54 1407 view .LVU146
	.loc 1 54 1423 view .LVU147
	.loc 1 54 1463 view .LVU148
	.loc 1 54 2727 view .LVU149
	.loc 1 54 2768 view .LVU150
	.loc 1 54 9 view .LVU151
	.loc 1 54 32 view .LVU152
	.loc 1 54 11 view .LVU153
	.loc 1 54 8 view .LVU154
	.loc 1 54 13 view .LVU155
	.loc 1 54 238 view .LVU156
	.loc 1 54 1191 view .LVU157
	.loc 1 54 1256 view .LVU158
	.loc 1 54 1280 view .LVU159
	.loc 1 54 1309 view .LVU160
	.loc 1 54 1320 view .LVU161
	.loc 1 54 1407 view .LVU162
	.loc 1 54 1423 view .LVU163
	.loc 1 54 1463 view .LVU164
	.loc 1 54 2727 view .LVU165
	.loc 1 54 2768 view .LVU166
	.loc 1 54 9 view .LVU167
	.loc 1 54 32 view .LVU168
	.loc 1 54 11 view .LVU169
	.loc 1 54 7 view .LVU170
	.loc 1 54 30 view .LVU171
	.loc 1 54 54 view .LVU172
	.loc 1 54 82 view .LVU173
	.loc 1 54 258 view .LVU174
	.loc 1 54 18 view .LVU175
.LBB214:
.LBB207:
.LBB200:
.LBB193:
	.loc 1 54 31 view .LVU176
	.loc 1 54 5 view .LVU177
	.loc 1 54 5 view .LVU178
	.loc 1 54 72 view .LVU179
	.loc 1 54 72 is_stmt 0 view .LVU180
.LBE193:
.LBE200:
.LBE207:
.LBE214:
	.loc 1 53 79 view .LVU181
	mov	r4, r0
.LBB215:
.LBB208:
.LBB201:
.LBB194:
	.loc 1 54 84 view .LVU182
	mov	r2, sp
.LVL9:
	.loc 1 54 76 is_stmt 1 view .LVU183
	.loc 1 54 486 view .LVU184
	.loc 1 54 7 view .LVU185
	.loc 1 54 9 view .LVU186
	.loc 1 54 14 view .LVU187
	.loc 1 54 12 view .LVU188
	.loc 1 54 7 view .LVU189
	.loc 1 54 25 view .LVU190
.LBB177:
	.loc 1 54 5 view .LVU191
	.loc 1 54 370 view .LVU192
	.loc 1 54 77 view .LVU193
.LVL10:
	.loc 1 54 4 view .LVU194
	.loc 1 54 4 view .LVU195
	.loc 1 54 4 view .LVU196
	.loc 1 54 40 view .LVU197
	.loc 1 54 69 view .LVU198
	.loc 1 54 95 view .LVU199
	.loc 1 54 121 view .LVU200
	.loc 1 54 1480 view .LVU201
	.loc 1 54 1542 view .LVU202
	.loc 1 54 2995 view .LVU203
	.loc 1 54 3060 view .LVU204
	.loc 1 54 3085 view .LVU205
	.loc 1 54 3086 view .LVU206
	.loc 1 54 3088 view .LVU207
	.loc 1 54 3118 view .LVU208
	.loc 1 54 3148 view .LVU209
	.loc 1 54 3180 view .LVU210
	.loc 1 54 3212 view .LVU211
	.loc 1 54 3244 view .LVU212
	.loc 1 54 3441 view .LVU213
	.loc 1 54 3465 view .LVU214
	.loc 1 54 3466 view .LVU215
	.loc 1 54 3468 view .LVU216
	.loc 1 54 3497 view .LVU217
	.loc 1 54 3526 view .LVU218
	.loc 1 54 3557 view .LVU219
	.loc 1 54 3588 view .LVU220
	.loc 1 54 3619 view .LVU221
	.loc 1 54 3826 view .LVU222
.LBB178:
	.loc 1 54 3173 view .LVU223
	.loc 1 54 3178 view .LVU224
	.loc 1 54 3814 view .LVU225
	.loc 1 54 0 is_stmt 0 view .LVU226
	ldr	r0, .L9
.LVL11:
	.loc 1 54 0 view .LVU227
	str	r0, [r2, #20]
	.loc 1 54 3176 is_stmt 1 view .LVU228
	.loc 1 54 9 view .LVU229
.LVL12:
	.loc 1 54 32 view .LVU230
	.loc 1 54 32 is_stmt 0 view .LVU231
.LBE178:
	.loc 1 54 131 is_stmt 1 view .LVU232
	.loc 1 54 8 view .LVU233
.LBB179:
	.loc 1 54 13 view .LVU234
	.loc 1 54 238 view .LVU235
	.loc 1 54 1191 view .LVU236
	.loc 1 54 1256 view .LVU237
.LBE179:
.LBE177:
.LBE194:
.LBE201:
.LBE208:
.LBE215:
	.loc 1 54 1280 view .LVU238
	.loc 1 54 1309 view .LVU239
	.loc 1 54 1320 view .LVU240
	.loc 1 54 1407 view .LVU241
.LBB216:
.LBB209:
.LBB202:
.LBB195:
.LBB187:
.LBB180:
	.loc 1 54 1423 view .LVU242
	.loc 1 54 1463 view .LVU243
	.loc 1 54 1488 view .LVU244
	.loc 1 54 2727 view .LVU245
	.loc 1 54 2765 view .LVU246
	.loc 1 54 2770 view .LVU247
	.loc 1 54 3214 view .LVU248
	.loc 1 54 3813 is_stmt 0 view .LVU249
	ldr	r0, .L9+4
.LBE180:
.LBB181:
	.loc 1 54 3813 view .LVU250
	str	r3, [r2, #32]
.LBE181:
.LBB182:
	.loc 1 54 178 view .LVU251
	movs	r3, #5
.LVL13:
	.loc 1 54 178 view .LVU252
.LBE182:
.LBB183:
	.loc 1 54 3813 view .LVU253
	strd	r0, r1, [r2, #24]
	.loc 1 54 2768 is_stmt 1 view .LVU254
	.loc 1 54 9 view .LVU255
.LVL14:
	.loc 1 54 32 view .LVU256
	.loc 1 54 32 is_stmt 0 view .LVU257
.LBE183:
	.loc 1 54 11 is_stmt 1 view .LVU258
	.loc 1 54 8 view .LVU259
.LBB184:
	.loc 1 54 13 view .LVU260
	.loc 1 54 238 view .LVU261
	.loc 1 54 1191 view .LVU262
	.loc 1 54 1256 view .LVU263
.LBE184:
.LBE187:
.LBE195:
.LBE202:
.LBE209:
.LBE216:
	.loc 1 54 1280 view .LVU264
	.loc 1 54 1309 view .LVU265
	.loc 1 54 1320 view .LVU266
	.loc 1 54 1407 view .LVU267
.LBB217:
.LBB210:
.LBB203:
.LBB196:
.LBB188:
.LBB185:
	.loc 1 54 1423 view .LVU268
	.loc 1 54 1463 view .LVU269
	.loc 1 54 2727 view .LVU270
	.loc 1 54 2765 view .LVU271
	.loc 1 54 2770 view .LVU272
	.loc 1 54 3214 view .LVU273
	.loc 1 54 2768 view .LVU274
	.loc 1 54 9 view .LVU275
	.loc 1 54 32 view .LVU276
	.loc 1 54 32 is_stmt 0 view .LVU277
.LBE185:
	.loc 1 54 11 is_stmt 1 view .LVU278
	.loc 1 54 7 view .LVU279
	.loc 1 54 30 view .LVU280
	.loc 1 54 54 view .LVU281
	.loc 1 54 82 view .LVU282
.LBE188:
.LBE196:
.LBE203:
.LBE210:
.LBE217:
	.loc 1 54 8 view .LVU283
	.loc 1 54 47 view .LVU284
	.loc 1 54 52 view .LVU285
	.loc 1 54 82 view .LVU286
	.loc 1 54 149 view .LVU287
	.loc 1 54 154 view .LVU288
	.loc 1 54 184 view .LVU289
.LBB218:
.LBB211:
.LBB204:
.LBB197:
.LBB189:
	.loc 1 54 258 view .LVU290
	.loc 1 54 18 view .LVU291
.LBB186:
	.loc 1 54 8 view .LVU292
	.loc 1 54 166 view .LVU293
	.loc 1 54 168 view .LVU294
	.loc 1 54 178 is_stmt 0 view .LVU295
	str	r3, [r2, #16]!
.LVL15:
	.loc 1 54 178 view .LVU296
.LBE186:
.LBE189:
	.loc 1 54 28 is_stmt 1 view .LVU297
	.loc 1 54 9 view .LVU298
	.loc 1 54 149 view .LVU299
	.loc 1 54 151 view .LVU300
.LBB190:
.LBI190:
	.file 3 "/home/g/mise-work/zmk-firmware/zmk/app/build/zephyr/include/generated/syscalls/log_msg.h"
	.loc 3 26 20 view .LVU301
.LBB191:
	.loc 3 38 2 view .LVU302
	.loc 3 38 7 view .LVU303
	.loc 3 38 5 view .LVU304
	.loc 3 39 2 view .LVU305
	movs	r3, #0
	mov	r1, #10496
.LVL16:
	.loc 3 39 2 is_stmt 0 view .LVU306
	ldr	r0, .L9+8
	bl	z_impl_z_log_msg_static_create
.LVL17:
	.loc 3 39 2 view .LVU307
.LBE191:
.LBE190:
	mov	sp, r5
.LVL18:
	.loc 3 39 2 view .LVU308
.LBE197:
	.loc 1 54 109 is_stmt 1 view .LVU309
	.loc 1 54 7 view .LVU310
	.loc 1 54 44 view .LVU311
.LBE204:
	.loc 1 54 8 view .LVU312
.LBE211:
	.loc 1 54 280 view .LVU313
	.loc 1 54 7 view .LVU314
	.loc 1 54 20 view .LVU315
.LBE218:
	.loc 1 54 8 view .LVU316
	.loc 1 56 5 view .LVU317
	ldr	r0, [r4]
	bl	zmk_behavior_get_binding
.LVL19:
	ldr	r1, [r4, #4]
	movs	r2, #1
	bl	process_key_state
.LVL20:
	.loc 1 58 5 view .LVU318
	.loc 1 59 1 is_stmt 0 view .LVU319
	movs	r0, #0
	mov	sp, r7
	.cfi_def_cfa_register 13
	@ sp needed
	pop	{r4, r5, r7, lr}
	.cfi_restore 14
	.cfi_restore 7
	.cfi_restore 5
	.cfi_restore 4
	.cfi_def_cfa_offset 8
.LVL21:
	.loc 1 59 1 view .LVU320
	add	sp, sp, #8
	.cfi_def_cfa_offset 0
.LVL22:
	.loc 1 59 1 view .LVU321
	bx	lr
.L10:
	.align	2
.L9:
	.word	.LC0
	.word	__func__.0
	.word	log_const_zmk
	.cfi_endproc
.LFE583:
	.size	on_keymap_binding_pressed, .-on_keymap_binding_pressed
	.section	.text.on_keymap_binding_released,"ax",%progbits
	.align	1
	.syntax unified
	.thumb
	.thumb_func
	.type	on_keymap_binding_released, %function
on_keymap_binding_released:
.LVL23:
.LFB584:
	.loc 1 62 80 is_stmt 1 view -0
	.cfi_startproc
	@ args = 16, pretend = 8, frame = 0
	@ frame_needed = 1, uses_anonymous_args = 0
	.loc 1 63 5 view .LVU323
.LBB231:
	.loc 1 63 10 view .LVU324
	.loc 1 63 59 view .LVU325
	.loc 1 63 16 view .LVU326
	.loc 1 63 4 view .LVU327
	.loc 1 63 43 view .LVU328
	.loc 1 63 178 view .LVU329
	.loc 1 63 189 view .LVU330
	.loc 1 63 277 view .LVU331
.LBB232:
	.loc 1 63 5 view .LVU332
	.loc 1 63 7 view .LVU333
	.loc 1 63 56 view .LVU334
.LBE232:
.LBE231:
	.loc 1 62 80 is_stmt 0 view .LVU335
	sub	sp, sp, #8
	.cfi_def_cfa_offset 8
	push	{r4, r5, r7, lr}
	.cfi_def_cfa_offset 24
	.cfi_offset 4, -24
	.cfi_offset 5, -20
	.cfi_offset 7, -16
	.cfi_offset 14, -12
	add	r7, sp, #0
	.cfi_def_cfa_register 7
	.loc 1 62 80 view .LVU336
	add	r1, r7, #16
	stm	r1, {r2, r3}
.LBB270:
.LBB263:
.LBB233:
.LBB234:
	.loc 1 63 109 view .LVU337
	mov	r5, sp
	.loc 1 63 84 view .LVU338
	sub	sp, sp, #40
.LBE234:
.LBE233:
	.loc 1 63 68 view .LVU339
	ldr	r1, [r7, #20]
.LVL24:
	.loc 1 63 97 is_stmt 1 view .LVU340
	.loc 1 63 109 is_stmt 0 view .LVU341
	ldr	r3, [r0, #4]
.LVL25:
	.loc 1 63 5 is_stmt 1 view .LVU342
.LBB256:
	.loc 1 63 10 view .LVU343
	.loc 1 63 4 view .LVU344
.LBE256:
.LBE263:
.LBE270:
	.loc 1 63 5 view .LVU345
	.loc 1 63 14 view .LVU346
	.loc 1 63 109 view .LVU347
	.loc 1 63 5 view .LVU348
.LBB271:
.LBB264:
.LBB257:
	.loc 1 63 14 view .LVU349
	.loc 1 63 104 view .LVU350
	.loc 1 63 106 view .LVU351
.LBB250:
	.loc 1 63 111 view .LVU352
	.loc 1 63 122 view .LVU353
	.loc 1 63 211 view .LVU354
	.loc 1 63 28 view .LVU355
.LBE250:
.LBE257:
.LBE264:
.LBE271:
	.loc 1 63 5 view .LVU356
	.loc 1 63 370 view .LVU357
	.loc 1 63 77 view .LVU358
	.loc 1 63 4 view .LVU359
	.loc 1 63 4 view .LVU360
	.loc 1 63 4 view .LVU361
	.loc 1 63 40 view .LVU362
	.loc 1 63 6 view .LVU363
	.loc 1 63 32 view .LVU364
	.loc 1 63 58 view .LVU365
	.loc 1 63 1417 view .LVU366
	.loc 1 63 1479 view .LVU367
	.loc 1 63 2932 view .LVU368
	.loc 1 63 2997 view .LVU369
	.loc 1 63 3022 view .LVU370
	.loc 1 63 3023 view .LVU371
	.loc 1 63 3025 view .LVU372
	.loc 1 63 3055 view .LVU373
	.loc 1 63 3085 view .LVU374
	.loc 1 63 3117 view .LVU375
	.loc 1 63 3149 view .LVU376
	.loc 1 63 3181 view .LVU377
	.loc 1 63 3378 view .LVU378
	.loc 1 63 3402 view .LVU379
	.loc 1 63 3403 view .LVU380
	.loc 1 63 3405 view .LVU381
	.loc 1 63 3434 view .LVU382
	.loc 1 63 3463 view .LVU383
	.loc 1 63 3494 view .LVU384
	.loc 1 63 3525 view .LVU385
	.loc 1 63 3556 view .LVU386
	.loc 1 63 3763 view .LVU387
	.loc 1 63 6 view .LVU388
	.loc 1 63 24 view .LVU389
	.loc 1 63 44 view .LVU390
	.loc 1 63 6 view .LVU391
	.loc 1 63 44 view .LVU392
	.loc 1 63 15 view .LVU393
	.loc 1 63 15 view .LVU394
	.loc 1 63 63 view .LVU395
	.loc 1 63 94 view .LVU396
	.loc 1 63 128 view .LVU397
	.loc 1 63 133 view .LVU398
	.loc 1 63 390 view .LVU399
	.loc 1 63 1471 view .LVU400
	.loc 1 63 1536 view .LVU401
	.loc 1 63 1560 view .LVU402
	.loc 1 63 1621 view .LVU403
	.loc 1 63 1632 view .LVU404
	.loc 1 63 1751 view .LVU405
	.loc 1 63 1767 view .LVU406
	.loc 1 63 1807 view .LVU407
	.loc 1 63 1832 view .LVU408
	.loc 1 63 3135 view .LVU409
	.loc 1 63 3176 view .LVU410
	.loc 1 63 9 view .LVU411
	.loc 1 63 32 view .LVU412
	.loc 1 63 131 view .LVU413
	.loc 1 63 8 view .LVU414
	.loc 1 63 13 view .LVU415
	.loc 1 63 238 view .LVU416
	.loc 1 63 1191 view .LVU417
	.loc 1 63 1256 view .LVU418
	.loc 1 63 1280 view .LVU419
	.loc 1 63 1309 view .LVU420
	.loc 1 63 1320 view .LVU421
	.loc 1 63 1407 view .LVU422
	.loc 1 63 1423 view .LVU423
	.loc 1 63 1463 view .LVU424
	.loc 1 63 1488 view .LVU425
	.loc 1 63 2727 view .LVU426
	.loc 1 63 2768 view .LVU427
	.loc 1 63 9 view .LVU428
	.loc 1 63 32 view .LVU429
	.loc 1 63 11 view .LVU430
	.loc 1 63 8 view .LVU431
	.loc 1 63 13 view .LVU432
	.loc 1 63 238 view .LVU433
	.loc 1 63 1191 view .LVU434
	.loc 1 63 1256 view .LVU435
	.loc 1 63 1280 view .LVU436
	.loc 1 63 1309 view .LVU437
	.loc 1 63 1320 view .LVU438
	.loc 1 63 1407 view .LVU439
	.loc 1 63 1423 view .LVU440
	.loc 1 63 1463 view .LVU441
	.loc 1 63 2727 view .LVU442
	.loc 1 63 2768 view .LVU443
	.loc 1 63 9 view .LVU444
	.loc 1 63 32 view .LVU445
	.loc 1 63 11 view .LVU446
	.loc 1 63 8 view .LVU447
	.loc 1 63 13 view .LVU448
	.loc 1 63 238 view .LVU449
	.loc 1 63 1191 view .LVU450
	.loc 1 63 1256 view .LVU451
	.loc 1 63 1280 view .LVU452
	.loc 1 63 1309 view .LVU453
	.loc 1 63 1320 view .LVU454
	.loc 1 63 1407 view .LVU455
	.loc 1 63 1423 view .LVU456
	.loc 1 63 1463 view .LVU457
	.loc 1 63 2727 view .LVU458
	.loc 1 63 2768 view .LVU459
	.loc 1 63 9 view .LVU460
	.loc 1 63 32 view .LVU461
	.loc 1 63 11 view .LVU462
	.loc 1 63 7 view .LVU463
	.loc 1 63 30 view .LVU464
	.loc 1 63 54 view .LVU465
	.loc 1 63 82 view .LVU466
	.loc 1 63 258 view .LVU467
	.loc 1 63 18 view .LVU468
.LBB272:
.LBB265:
.LBB258:
.LBB251:
	.loc 1 63 31 view .LVU469
	.loc 1 63 5 view .LVU470
	.loc 1 63 5 view .LVU471
	.loc 1 63 72 view .LVU472
	.loc 1 63 72 is_stmt 0 view .LVU473
.LBE251:
.LBE258:
.LBE265:
.LBE272:
	.loc 1 62 80 view .LVU474
	mov	r4, r0
.LBB273:
.LBB266:
.LBB259:
.LBB252:
	.loc 1 63 84 view .LVU475
	mov	r2, sp
.LVL26:
	.loc 1 63 76 is_stmt 1 view .LVU476
	.loc 1 63 486 view .LVU477
	.loc 1 63 7 view .LVU478
	.loc 1 63 9 view .LVU479
	.loc 1 63 14 view .LVU480
	.loc 1 63 12 view .LVU481
	.loc 1 63 7 view .LVU482
	.loc 1 63 25 view .LVU483
.LBB235:
	.loc 1 63 5 view .LVU484
	.loc 1 63 370 view .LVU485
	.loc 1 63 77 view .LVU486
.LVL27:
	.loc 1 63 4 view .LVU487
	.loc 1 63 4 view .LVU488
	.loc 1 63 4 view .LVU489
	.loc 1 63 40 view .LVU490
	.loc 1 63 69 view .LVU491
	.loc 1 63 95 view .LVU492
	.loc 1 63 121 view .LVU493
	.loc 1 63 1480 view .LVU494
	.loc 1 63 1542 view .LVU495
	.loc 1 63 2995 view .LVU496
	.loc 1 63 3060 view .LVU497
	.loc 1 63 3085 view .LVU498
	.loc 1 63 3086 view .LVU499
	.loc 1 63 3088 view .LVU500
	.loc 1 63 3118 view .LVU501
	.loc 1 63 3148 view .LVU502
	.loc 1 63 3180 view .LVU503
	.loc 1 63 3212 view .LVU504
	.loc 1 63 3244 view .LVU505
	.loc 1 63 3441 view .LVU506
	.loc 1 63 3465 view .LVU507
	.loc 1 63 3466 view .LVU508
	.loc 1 63 3468 view .LVU509
	.loc 1 63 3497 view .LVU510
	.loc 1 63 3526 view .LVU511
	.loc 1 63 3557 view .LVU512
	.loc 1 63 3588 view .LVU513
	.loc 1 63 3619 view .LVU514
	.loc 1 63 3826 view .LVU515
.LBB236:
	.loc 1 63 3173 view .LVU516
	.loc 1 63 3178 view .LVU517
	.loc 1 63 3814 view .LVU518
	.loc 1 63 0 is_stmt 0 view .LVU519
	ldr	r0, .L12
.LVL28:
	.loc 1 63 0 view .LVU520
	str	r0, [r2, #20]
	.loc 1 63 3176 is_stmt 1 view .LVU521
	.loc 1 63 9 view .LVU522
.LVL29:
	.loc 1 63 32 view .LVU523
	.loc 1 63 32 is_stmt 0 view .LVU524
.LBE236:
	.loc 1 63 131 is_stmt 1 view .LVU525
	.loc 1 63 8 view .LVU526
.LBB237:
	.loc 1 63 13 view .LVU527
	.loc 1 63 238 view .LVU528
	.loc 1 63 1191 view .LVU529
	.loc 1 63 1256 view .LVU530
.LBE237:
.LBE235:
.LBE252:
.LBE259:
.LBE266:
.LBE273:
	.loc 1 63 1280 view .LVU531
	.loc 1 63 1309 view .LVU532
	.loc 1 63 1320 view .LVU533
	.loc 1 63 1407 view .LVU534
.LBB274:
.LBB267:
.LBB260:
.LBB253:
.LBB245:
.LBB238:
	.loc 1 63 1423 view .LVU535
	.loc 1 63 1463 view .LVU536
	.loc 1 63 1488 view .LVU537
	.loc 1 63 2727 view .LVU538
	.loc 1 63 2765 view .LVU539
	.loc 1 63 2770 view .LVU540
	.loc 1 63 3214 view .LVU541
	.loc 1 63 3813 is_stmt 0 view .LVU542
	ldr	r0, .L12+4
.LBE238:
.LBB239:
	.loc 1 63 3813 view .LVU543
	str	r3, [r2, #32]
.LBE239:
.LBB240:
	.loc 1 63 178 view .LVU544
	movs	r3, #5
.LVL30:
	.loc 1 63 178 view .LVU545
.LBE240:
.LBB241:
	.loc 1 63 3813 view .LVU546
	strd	r0, r1, [r2, #24]
	.loc 1 63 2768 is_stmt 1 view .LVU547
	.loc 1 63 9 view .LVU548
.LVL31:
	.loc 1 63 32 view .LVU549
	.loc 1 63 32 is_stmt 0 view .LVU550
.LBE241:
	.loc 1 63 11 is_stmt 1 view .LVU551
	.loc 1 63 8 view .LVU552
.LBB242:
	.loc 1 63 13 view .LVU553
	.loc 1 63 238 view .LVU554
	.loc 1 63 1191 view .LVU555
	.loc 1 63 1256 view .LVU556
.LBE242:
.LBE245:
.LBE253:
.LBE260:
.LBE267:
.LBE274:
	.loc 1 63 1280 view .LVU557
	.loc 1 63 1309 view .LVU558
	.loc 1 63 1320 view .LVU559
	.loc 1 63 1407 view .LVU560
.LBB275:
.LBB268:
.LBB261:
.LBB254:
.LBB246:
.LBB243:
	.loc 1 63 1423 view .LVU561
	.loc 1 63 1463 view .LVU562
	.loc 1 63 2727 view .LVU563
	.loc 1 63 2765 view .LVU564
	.loc 1 63 2770 view .LVU565
	.loc 1 63 3214 view .LVU566
	.loc 1 63 2768 view .LVU567
	.loc 1 63 9 view .LVU568
	.loc 1 63 32 view .LVU569
	.loc 1 63 32 is_stmt 0 view .LVU570
.LBE243:
	.loc 1 63 11 is_stmt 1 view .LVU571
	.loc 1 63 7 view .LVU572
	.loc 1 63 30 view .LVU573
	.loc 1 63 54 view .LVU574
	.loc 1 63 82 view .LVU575
.LBE246:
.LBE254:
.LBE261:
.LBE268:
.LBE275:
	.loc 1 63 8 view .LVU576
	.loc 1 63 47 view .LVU577
	.loc 1 63 52 view .LVU578
	.loc 1 63 82 view .LVU579
	.loc 1 63 149 view .LVU580
	.loc 1 63 154 view .LVU581
	.loc 1 63 184 view .LVU582
.LBB276:
.LBB269:
.LBB262:
.LBB255:
.LBB247:
	.loc 1 63 258 view .LVU583
	.loc 1 63 18 view .LVU584
.LBB244:
	.loc 1 63 8 view .LVU585
	.loc 1 63 166 view .LVU586
	.loc 1 63 168 view .LVU587
	.loc 1 63 178 is_stmt 0 view .LVU588
	str	r3, [r2, #16]!
.LVL32:
	.loc 1 63 178 view .LVU589
.LBE244:
.LBE247:
	.loc 1 63 28 is_stmt 1 view .LVU590
	.loc 1 63 9 view .LVU591
	.loc 1 63 149 view .LVU592
	.loc 1 63 151 view .LVU593
.LBB248:
.LBI248:
	.loc 3 26 20 view .LVU594
.LBB249:
	.loc 3 38 2 view .LVU595
	.loc 3 38 7 view .LVU596
	.loc 3 38 5 view .LVU597
	.loc 3 39 2 view .LVU598
	movs	r3, #0
	mov	r1, #10496
.LVL33:
	.loc 3 39 2 is_stmt 0 view .LVU599
	ldr	r0, .L12+8
	bl	z_impl_z_log_msg_static_create
.LVL34:
	.loc 3 39 2 view .LVU600
.LBE249:
.LBE248:
	mov	sp, r5
.LVL35:
	.loc 3 39 2 view .LVU601
.LBE255:
	.loc 1 63 109 is_stmt 1 view .LVU602
	.loc 1 63 7 view .LVU603
	.loc 1 63 44 view .LVU604
.LBE262:
	.loc 1 63 8 view .LVU605
.LBE269:
	.loc 1 63 280 view .LVU606
	.loc 1 63 7 view .LVU607
	.loc 1 63 20 view .LVU608
.LBE276:
	.loc 1 63 8 view .LVU609
	.loc 1 65 5 view .LVU610
	ldr	r0, [r4]
	bl	zmk_behavior_get_binding
.LVL36:
	ldr	r1, [r4, #4]
	movs	r2, #0
	bl	process_key_state
.LVL37:
	.loc 1 67 5 view .LVU611
	.loc 1 68 1 is_stmt 0 view .LVU612
	movs	r0, #0
	mov	sp, r7
	.cfi_def_cfa_register 13
	@ sp needed
	pop	{r4, r5, r7, lr}
	.cfi_restore 14
	.cfi_restore 7
	.cfi_restore 5
	.cfi_restore 4
	.cfi_def_cfa_offset 8
.LVL38:
	.loc 1 68 1 view .LVU613
	add	sp, sp, #8
	.cfi_def_cfa_offset 0
.LVL39:
	.loc 1 68 1 view .LVU614
	bx	lr
.L13:
	.align	2
.L12:
	.word	.LC0
	.word	__func__.1
	.word	log_const_zmk
	.cfi_endproc
.LFE584:
	.size	on_keymap_binding_released, .-on_keymap_binding_released
	.section	.rodata.__func__.0,"a"
	.type	__func__.0, %object
	.size	__func__.0, 26
__func__.0:
	.ascii	"on_keymap_binding_pressed\000"
	.section	.rodata.__func__.1,"a"
	.type	__func__.1, %object
	.size	__func__.1, 27
__func__.1:
	.ascii	"on_keymap_binding_released\000"
	.section	._zmk_behavior_ref.static.zmk_behavior___device_dts_ord_6_,"a"
	.align	2
	.type	zmk_behavior___device_dts_ord_6, %object
	.size	zmk_behavior___device_dts_ord_6, 4
zmk_behavior___device_dts_ord_6:
	.word	__device_dts_ord_6
	.section	.z_init_POST_KERNEL40_00006_,"a"
	.align	2
	.type	__init___device_dts_ord_6, %object
	.size	__init___device_dts_ord_6, 8
__init___device_dts_ord_6:
	.word	0
	.word	__device_dts_ord_6
	.global	__device_dts_ord_6
	.section	.rodata.str1.1,"aMS",%progbits,1
.LC1:
	.ascii	"mouse_key_press\000"
	.section	._device.static.3_40_,"a"
	.align	2
	.type	__device_dts_ord_6, %object
	.size	__device_dts_ord_6, 24
__device_dts_ord_6:
	.word	.LC1
	.word	0
	.word	behavior_mouse_key_press_driver_api
	.word	__devstate_dts_ord_6
	.word	0
	.word	0
	.section	.z_devstate,"aw"
	.type	__devstate_dts_ord_6, %object
	.size	__devstate_dts_ord_6, 2
__devstate_dts_ord_6:
	.space	2
	.section	.rodata.behavior_mouse_key_press_driver_api,"a"
	.align	2
	.type	behavior_mouse_key_press_driver_api, %object
	.size	behavior_mouse_key_press_driver_api, 24
behavior_mouse_key_press_driver_api:
	.space	8
	.word	on_keymap_binding_pressed
	.word	on_keymap_binding_released
	.space	8
	.text
.Letext0:
	.file 4 "/home/g/zephyr-sdk-0.16.3/arm-zephyr-eabi/picolibc/include/machine/_default_types.h"
	.file 5 "/home/g/zephyr-sdk-0.16.3/arm-zephyr-eabi/picolibc/include/sys/_stdint.h"
	.file 6 "/home/g/zephyr-sdk-0.16.3/arm-zephyr-eabi/lib/gcc/arm-zephyr-eabi/12.2.0/include/stddef.h"
	.file 7 "/home/g/mise-work/zmk-firmware/zmk/zephyr/include/zephyr/init.h"
	.file 8 "/home/g/mise-work/zmk-firmware/zmk/zephyr/include/zephyr/device.h"
	.file 9 "/home/g/mise-work/zmk-firmware/zmk/zephyr/include/zephyr/sys_clock.h"
	.file 10 "/home/g/mise-work/zmk-firmware/zmk/zephyr/include/zephyr/drivers/sensor.h"
	.file 11 "/home/g/mise-work/zmk-firmware/zmk/app/include/zmk/sensors.h"
	.file 12 "/home/g/mise-work/zmk-firmware/zmk/app/include/zmk/behavior.h"
	.file 13 "/home/g/mise-work/zmk-firmware/zmk/app/include/drivers/behavior.h"
	.file 14 "/home/g/mise-work/zmk-firmware/zmk/zephyr/include/zephyr/logging/log_instance.h"
	.file 15 "/home/g/mise-work/zmk-firmware/zmk/zephyr/include/zephyr/sys/cbprintf.h"
	.file 16 "/home/g/mise-work/zmk-firmware/zmk/zephyr/include/zephyr/logging/log_msg.h"
	.file 17 "/home/g/mise-work/zmk-firmware/zmk/app/include/zmk/hid.h"
	.file 18 "/home/g/mise-work/zmk-firmware/zmk/zephyr/include/zephyr/sys/cbprintf_internal.h"
	.file 19 "/home/g/mise-work/zmk-firmware/zmk/zephyr/include/zephyr/syscall.h"