	.cpu cortex-m4
	.arch armv7e-m
	.fpu fpv4-sp-d16
	.eabi_attribute 27, 1
	.eabi_attribute 28, 1
	.eabi_attribute 20, 1
	.eabi_attribute 21, 1
	.eabi_attribute 23, 3
	.eabi_attribute 24, 1
	.eabi_attribute 25, 1
	.eabi_attribute 26, 1
	.eabi_attribute 30, 4
	.eabi_attribute 34, 1
	.eabi_attribute 38, 1
	.eabi_attribute 18, 4
	.file	"behavior_key_press.c"
	.text
.Ltext0:
	.cfi_sections	.debug_frame
	.file 1 "/home/g/mise-work/zmk-firmware/zmk/app/src/behaviors/behavior_key_press.c"
	.section	.text.raise_zmk_keycode_state_changed_from_encoded,"ax",%progbits
	.align	1
	.syntax unified
	.thumb
	.thumb_func
	.type	raise_zmk_keycode_state_changed_from_encoded, %function
raise_zmk_keycode_state_changed_from_encoded:
.LVL0:
.LFB578:
	.file 2 "/home/g/mise-work/zmk-firmware/zmk/app/include/zmk/events/keycode_state_changed.h"
	.loc 2 50 83 view -0
	.cfi_startproc
	@ args = 0, pretend = 0, frame = 24
	@ frame_needed = 0, uses_anonymous_args = 0
	.loc 2 51 5 view .LVU1
.LBB150:
.LBI150:
	.loc 2 25 1 view .LVU2
.LBB151:
	.loc 2 26 5 view .LVU3
.LBE151:
.LBE150:
	.loc 2 50 83 is_stmt 0 view .LVU4
	push	{r4, r5, r6, lr}
	.cfi_def_cfa_offset 16
	.cfi_offset 4, -16
	.cfi_offset 5, -12
	.cfi_offset 6, -8
	.cfi_offset 14, -4
.LBB163:
.LBB158:
	.loc 2 31 8 view .LVU5
	tst	r0, #16711680
	uxth	r6, r0
	.loc 2 26 14 view .LVU6
	ubfx	r4, r0, #16, #8
.LVL1:
	.loc 2 27 5 is_stmt 1 view .LVU7
	.loc 2 28 5 view .LVU8
	.loc 2 29 5 view .LVU9
	.loc 2 31 5 view .LVU10
.LBE158:
.LBE163:
	.loc 2 50 83 is_stmt 0 view .LVU11
	sub	sp, sp, #32
	.cfi_def_cfa_offset 48
.LBB164:
.LBB159:
.LBB152:
.LBB153:
	.file 3 "/home/g/mise-work/zmk-firmware/zmk/app/include/zmk/keys.h"
	.loc 3 24 31 view .LVU12
	sub	r5, r6, #224
	lsr	r0, r0, #24
.LVL2:
	.loc 3 24 31 view .LVU13
.LBE153:
.LBE152:
	.loc 2 31 8 view .LVU14
	bne	.L2
	.loc 2 32 9 is_stmt 1 view .LVU15
.LVL3:
	.loc 2 35 5 view .LVU16
.LBB156:
.LBI152:
	.loc 3 23 19 view .LVU17
.LBB154:
	.loc 3 24 5 view .LVU18
	.loc 3 25 31 is_stmt 0 view .LVU19
	cmp	r5, #7
	bls	.L3
.LBE154:
.LBE156:
	.loc 2 32 14 view .LVU20
	movs	r4, #7
.LVL4:
.L4:
	.loc 2 38 9 is_stmt 1 view .LVU21
	.loc 2 38 28 is_stmt 0 view .LVU22
	uxtb	r5, r0
.LVL5:
	.loc 2 29 13 view .LVU23
	movs	r0, #0
.LVL6:
.L5:
	.loc 2 41 5 is_stmt 1 view .LVU24
	.loc 2 41 12 is_stmt 0 view .LVU25
	strd	r2, r3, [sp, #24]
.LVL7:
	.loc 2 41 12 view .LVU26
.LBE159:
.LBE164:
	.loc 2 51 12 view .LVU27
	add	r3, sp, #32
.LBB165:
.LBB160:
	.loc 2 41 12 view .LVU28
	strb	r0, [sp, #17]
	strb	r1, [sp, #18]
.LBE160:
.LBE165:
	.loc 2 51 12 view .LVU29
	ldmdb	r3, {r0, r1}
.LVL8:
	.loc 2 51 12 view .LVU30
	stm	sp, {r0, r1}
.LBB166:
.LBB161:
	.loc 2 41 12 view .LVU31
	strh	r4, [sp, #8]	@ movhi
	str	r6, [sp, #12]
	strb	r5, [sp, #16]
.LBE161:
.LBE166:
	.loc 2 51 12 view .LVU32
	add	r3, sp, #8
	ldm	r3, {r0, r1, r2, r3}
.LVL9:
	.loc 2 51 12 view .LVU33
	bl	raise_zmk_keycode_state_changed
.LVL10:
	.loc 2 53 1 view .LVU34
	add	sp, sp, #32
	.cfi_remember_state
	.cfi_def_cfa_offset 16
	@ sp needed
	pop	{r4, r5, r6, pc}
.LVL11:
.L2:
	.cfi_restore_state
.LBB167:
.LBB162:
	.loc 2 35 5 is_stmt 1 view .LVU35
.LBB157:
	.loc 3 23 19 view .LVU36
.LBB155:
	.loc 3 24 5 view .LVU37
	.loc 3 25 31 is_stmt 0 view .LVU38
	cmp	r5, #7
	bhi	.L4
	cmp	r4, #7
	bne	.L4
.LVL12:
.L3:
	.loc 3 25 31 view .LVU39
.LBE155:
.LBE157:
	.loc 2 36 9 is_stmt 1 view .LVU40
	.loc 2 36 28 is_stmt 0 view .LVU41
	uxtb	r0, r0
.LVL13:
	.loc 2 36 28 view .LVU42
	movs	r4, #7
	.loc 2 28 13 view .LVU43
	movs	r5, #0
	b	.L5
.LBE162:
.LBE167:
	.cfi_endproc
.LFE578:
	.size	raise_zmk_keycode_state_changed_from_encoded, .-raise_zmk_keycode_state_changed_from_encoded
	.section	.rodata.on_keymap_binding_released.str1.1,"aMS",%progbits,1
.LC0:
	.ascii	"%s: position %d keycode 0x%02X\000"
	.section	.text.on_keymap_binding_released,"ax",%progbits
	.align	1
	.syntax unified
	.thumb
	.thumb_func
	.type	on_keymap_binding_released, %function
on_keymap_binding_released:
.LVL14:
.LFB580:
	.loc 1 47 80 is_stmt 1 view -0
	.cfi_startproc
	@ args = 16, pretend = 8, frame = 0
	@ frame_needed = 1, uses_anonymous_args = 0
	.loc 1 48 5 view .LVU45
.LBB180:
	.loc 1 48 10 view .LVU46
	.loc 1 48 59 view .LVU47
	.loc 1 48 16 view .LVU48
	.loc 1 48 4 view .LVU49
	.loc 1 48 43 view .LVU50
	.loc 1 48 178 view .LVU51
	.loc 1 48 189 view .LVU52
	.loc 1 48 277 view .LVU53
.LBB181:
	.loc 1 48 5 view .LVU54
	.loc 1 48 7 view .LVU55
	.loc 1 48 56 view .LVU56
.LBE181:
.LBE180:
	.loc 1 47 80 is_stmt 0 view .LVU57
	sub	sp, sp, #8
	.cfi_def_cfa_offset 8
	push	{r4, r5, r7, lr}
	.cfi_def_cfa_offset 24
	.cfi_offset 4, -24
	.cfi_offset 5, -20
	.cfi_offset 7, -16
	.cfi_offset 14, -12
	add	r7, sp, #0
	.cfi_def_cfa_register 7
	.loc 1 47 80 view .LVU58
	add	r1, r7, #16
	stm	r1, {r2, r3}
.LBB222:
.LBB214:
.LBB182:
.LBB183:
	.loc 1 48 109 view .LVU59
	mov	r5, sp
	.loc 1 48 84 view .LVU60
	sub	sp, sp, #40
.LBE183:
.LBE182:
	.loc 1 48 68 view .LVU61
	ldr	r1, [r7, #20]
.LVL15:
	.loc 1 48 97 is_stmt 1 view .LVU62
	.loc 1 48 109 is_stmt 0 view .LVU63
	ldr	r3, [r0, #4]
.LVL16:
	.loc 1 48 5 is_stmt 1 view .LVU64
.LBB206:
	.loc 1 48 10 view .LVU65
	.loc 1 48 4 view .LVU66
.LBE206:
.LBE214:
.LBE222:
	.loc 1 48 5 view .LVU67
	.loc 1 48 14 view .LVU68
	.loc 1 48 109 view .LVU69
	.loc 1 48 5 view .LVU70
.LBB223:
.LBB215:
.LBB207:
	.loc 1 48 14 view .LVU71
	.loc 1 48 104 view .LVU72
	.loc 1 48 106 view .LVU73
.LBB199:
	.loc 1 48 111 view .LVU74
	.loc 1 48 122 view .LVU75
	.loc 1 48 211 view .LVU76
	.loc 1 48 28 view .LVU77
.LBE199:
.LBE207:
.LBE215:
.LBE223:
	.loc 1 48 5 view .LVU78
	.loc 1 48 370 view .LVU79
	.loc 1 48 77 view .LVU80
	.loc 1 48 4 view .LVU81
	.loc 1 48 4 view .LVU82
	.loc 1 48 4 view .LVU83
	.loc 1 48 40 view .LVU84
	.loc 1 48 6 view .LVU85
	.loc 1 48 32 view .LVU86
	.loc 1 48 58 view .LVU87
	.loc 1 48 1417 view .LVU88
	.loc 1 48 1479 view .LVU89
	.loc 1 48 2932 view .LVU90
	.loc 1 48 2997 view .LVU91
	.loc 1 48 3022 view .LVU92
	.loc 1 48 3023 view .LVU93
	.loc 1 48 3025 view .LVU94
	.loc 1 48 3055 view .LVU95
	.loc 1 48 3085 view .LVU96
	.loc 1 48 3117 view .LVU97
	.loc 1 48 3149 view .LVU98
	.loc 1 48 3181 view .LVU99
	.loc 1 48 3378 view .LVU100
	.loc 1 48 3402 view .LVU101
	.loc 1 48 3403 view .LVU102
	.loc 1 48 3405 view .LVU103
	.loc 1 48 3434 view .LVU104
	.loc 1 48 3463 view .LVU105
	.loc 1 48 3494 view .LVU106
	.loc 1 48 3525 view .LVU107
	.loc 1 48 3556 view .LVU108
	.loc 1 48 3763 view .LVU109
	.loc 1 48 6 view .LVU110
	.loc 1 48 24 view .LVU111
	.loc 1 48 44 view .LVU112
	.loc 1 48 6 view .LVU113
	.loc 1 48 44 view .LVU114
	.loc 1 48 15 view .LVU115
	.loc 1 48 15 view .LVU116
	.loc 1 48 63 view .LVU117
	.loc 1 48 94 view .LVU118
	.loc 1 48 128 view .LVU119
	.loc 1 48 133 view .LVU120
	.loc 1 48 390 view .LVU121
	.loc 1 48 1471 view .LVU122
	.loc 1 48 1536 view .LVU123
	.loc 1 48 1560 view .LVU124
	.loc 1 48 1621 view .LVU125
	.loc 1 48 1632 view .LVU126
	.loc 1 48 1751 view .LVU127
	.loc 1 48 1767 view .LVU128
	.loc 1 48 1807 view .LVU129
	.loc 1 48 1832 view .LVU130
	.loc 1 48 3135 view .LVU131
	.loc 1 48 3176 view .LVU132
	.loc 1 48 9 view .LVU133
	.loc 1 48 32 view .LVU134
	.loc 1 48 131 view .LVU135
	.loc 1 48 8 view .LVU136
	.loc 1 48 13 view .LVU137
	.loc 1 48 238 view .LVU138
	.loc 1 48 1191 view .LVU139
	.loc 1 48 1256 view .LVU140
	.loc 1 48 1280 view .LVU141
	.loc 1 48 1309 view .LVU142
	.loc 1 48 1320 view .LVU143
	.loc 1 48 1407 view .LVU144
	.loc 1 48 1423 view .LVU145
	.loc 1 48 1463 view .LVU146
	.loc 1 48 1488 view .LVU147
	.loc 1 48 2727 view .LVU148
	.loc 1 48 2768 view .LVU149
	.loc 1 48 9 view .LVU150
	.loc 1 48 32 view .LVU151
	.loc 1 48 11 view .LVU152
	.loc 1 48 8 view .LVU153
	.loc 1 48 13 view .LVU154
	.loc 1 48 238 view .LVU155
	.loc 1 48 1191 view .LVU156
	.loc 1 48 1256 view .LVU157
	.loc 1 48 1280 view .LVU158
	.loc 1 48 1309 view .LVU159
	.loc 1 48 1320 view .LVU160
	.loc 1 48 1407 view .LVU161
	.loc 1 48 1423 view .LVU162
	.loc 1 48 1463 view .LVU163
	.loc 1 48 2727 view .LVU164
	.loc 1 48 2768 view .LVU165
	.loc 1 48 9 view .LVU166
	.loc 1 48 32 view .LVU167
	.loc 1 48 11 view .LVU168
	.loc 1 48 8 view .LVU169
	.loc 1 48 13 view .LVU170
	.loc 1 48 238 view .LVU171
	.loc 1 48 1191 view .LVU172
	.loc 1 48 1256 view .LVU173
	.loc 1 48 1280 view .LVU174
	.loc 1 48 1309 view .LVU175
	.loc 1 48 1320 view .LVU176
	.loc 1 48 1407 view .LVU177
	.loc 1 48 1423 view .LVU178
	.loc 1 48 1463 view .LVU179
	.loc 1 48 2727 view .LVU180
	.loc 1 48 2768 view .LVU181
	.loc 1 48 9 view .LVU182
	.loc 1 48 32 view .LVU183
	.loc 1 48 11 view .LVU184
	.loc 1 48 7 view .LVU185
	.loc 1 48 30 view .LVU186
	.loc 1 48 54 view .LVU187
	.loc 1 48 82 view .LVU188
	.loc 1 48 258 view .LVU189
	.loc 1 48 18 view .LVU190
.LBB224:
.LBB216:
.LBB208:
.LBB200:
	.loc 1 48 31 view .LVU191
	.loc 1 48 5 view .LVU192
	.loc 1 48 5 view .LVU193
	.loc 1 48 72 view .LVU194
	.loc 1 48 72 is_stmt 0 view .LVU195
.LBE200:
.LBE208:
.LBE216:
.LBE224:
	.loc 1 47 80 view .LVU196
	mov	r4, r0
.LBB225:
.LBB217:
.LBB209:
.LBB201:
	.loc 1 48 84 view .LVU197
	mov	r2, sp
.LVL17:
	.loc 1 48 76 is_stmt 1 view .LVU198
	.loc 1 48 486 view .LVU199
	.loc 1 48 7 view .LVU200
	.loc 1 48 9 view .LVU201
	.loc 1 48 14 view .LVU202
	.loc 1 48 12 view .LVU203
	.loc 1 48 7 view .LVU204
	.loc 1 48 25 view .LVU205
.LBB184:
	.loc 1 48 5 view .LVU206
	.loc 1 48 370 view .LVU207
	.loc 1 48 77 view .LVU208
.LVL18:
	.loc 1 48 4 view .LVU209
	.loc 1 48 4 view .LVU210
	.loc 1 48 4 view .LVU211
	.loc 1 48 40 view .LVU212
	.loc 1 48 69 view .LVU213
	.loc 1 48 95 view .LVU214
	.loc 1 48 121 view .LVU215
	.loc 1 48 1480 view .LVU216
	.loc 1 48 1542 view .LVU217
	.loc 1 48 2995 view .LVU218
	.loc 1 48 3060 view .LVU219
	.loc 1 48 3085 view .LVU220
	.loc 1 48 3086 view .LVU221
	.loc 1 48 3088 view .LVU222
	.loc 1 48 3118 view .LVU223
	.loc 1 48 3148 view .LVU224
	.loc 1 48 3180 view .LVU225
	.loc 1 48 3212 view .LVU226
	.loc 1 48 3244 view .LVU227
	.loc 1 48 3441 view .LVU228
	.loc 1 48 3465 view .LVU229
	.loc 1 48 3466 view .LVU230
	.loc 1 48 3468 view .LVU231
	.loc 1 48 3497 view .LVU232
	.loc 1 48 3526 view .LVU233
	.loc 1 48 3557 view .LVU234
	.loc 1 48 3588 view .LVU235
	.loc 1 48 3619 view .LVU236
	.loc 1 48 3826 view .LVU237
.LBB185:
	.loc 1 48 3173 view .LVU238
	.loc 1 48 3178 view .LVU239
	.loc 1 48 3814 view .LVU240
	.loc 1 48 0 is_stmt 0 view .LVU241
	ldr	r0, .L10
.LVL19:
	.loc 1 48 0 view .LVU242
	str	r0, [r2, #20]
	.loc 1 48 3176 is_stmt 1 view .LVU243
	.loc 1 48 9 view .LVU244
.LVL20:
	.loc 1 48 32 view .LVU245
	.loc 1 48 32 is_stmt 0 view .LVU246
.LBE185:
	.loc 1 48 131 is_stmt 1 view .LVU247
	.loc 1 48 8 view .LVU248
.LBB186:
	.loc 1 48 13 view .LVU249
	.loc 1 48 238 view .LVU250
	.loc 1 48 1191 view .LVU251
	.loc 1 48 1256 view .LVU252
.LBE186:
.LBE184:
.LBE201:
.LBE209:
.LBE217:
.LBE225:
	.loc 1 48 1280 view .LVU253
	.loc 1 48 1309 view .LVU254
	.loc 1 48 1320 view .LVU255
	.loc 1 48 1407 view .LVU256
.LBB226:
.LBB218:
.LBB210:
.LBB202:
.LBB194:
.LBB187:
	.loc 1 48 1423 view .LVU257
	.loc 1 48 1463 view .LVU258
	.loc 1 48 1488 view .LVU259
	.loc 1 48 2727 view .LVU260
	.loc 1 48 2765 view .LVU261
	.loc 1 48 2770 view .LVU262
	.loc 1 48 3214 view .LVU263
	.loc 1 48 3813 is_stmt 0 view .LVU264
	ldr	r0, .L10+4
.LBE187:
.LBB188:
	.loc 1 48 3813 view .LVU265
	str	r3, [r2, #32]
.LBE188:
.LBB189:
	.loc 1 48 178 view .LVU266
	movs	r3, #5
.LVL21:
	.loc 1 48 178 view .LVU267
.LBE189:
.LBB190:
	.loc 1 48 3813 view .LVU268
	strd	r0, r1, [r2, #24]
	.loc 1 48 2768 is_stmt 1 view .LVU269
	.loc 1 48 9 view .LVU270
.LVL22:
	.loc 1 48 32 view .LVU271
	.loc 1 48 32 is_stmt 0 view .LVU272
.LBE190:
	.loc 1 48 11 is_stmt 1 view .LVU273
	.loc 1 48 8 view .LVU274
.LBB191:
	.loc 1 48 13 view .LVU275
	.loc 1 48 238 view .LVU276
	.loc 1 48 1191 view .LVU277
	.loc 1 48 1256 view .LVU278
.LBE191:
.LBE194:
.LBE202:
.LBE210:
.LBE218:
.LBE226:
	.loc 1 48 1280 view .LVU279
	.loc 1 48 1309 view .LVU280
	.loc 1 48 1320 view .LVU281
	.loc 1 48 1407 view .LVU282
.LBB227:
.LBB219:
.LBB211:
.LBB203:
.LBB195:
.LBB192:
	.loc 1 48 1423 view .LVU283
	.loc 1 48 1463 view .LVU284
	.loc 1 48 2727 view .LVU285
	.loc 1 48 2765 view .LVU286
	.loc 1 48 2770 view .LVU287
	.loc 1 48 3214 view .LVU288
	.loc 1 48 2768 view .LVU289
	.loc 1 48 9 view .LVU290
	.loc 1 48 32 view .LVU291
	.loc 1 48 32 is_stmt 0 view .LVU292
.LBE192:
	.loc 1 48 11 is_stmt 1 view .LVU293
	.loc 1 48 7 view .LVU294
	.loc 1 48 30 view .LVU295
	.loc 1 48 54 view .LVU296
	.loc 1 48 82 view .LVU297
.LBE195:
.LBE203:
.LBE211:
.LBE219:
.LBE227:
	.loc 1 48 8 view .LVU298
	.loc 1 48 47 view .LVU299
	.loc 1 48 52 view .LVU300
	.loc 1 48 82 view .LVU301
	.loc 1 48 149 view .LVU302
	.loc 1 48 154 view .LVU303
	.loc 1 48 184 view .LVU304
.LBB228:
.LBB220:
.LBB212:
.LBB204:
.LBB196:
	.loc 1 48 258 view .LVU305
	.loc 1 48 18 view .LVU306
.LBB193:
	.loc 1 48 8 view .LVU307
	.loc 1 48 166 view .LVU308
	.loc 1 48 168 view .LVU309
	.loc 1 48 178 is_stmt 0 view .LVU310
	str	r3, [r2, #16]!
.LVL23:
	.loc 1 48 178 view .LVU311
.LBE193:
.LBE196:
	.loc 1 48 28 is_stmt 1 view .LVU312
	.loc 1 48 9 view .LVU313
	.loc 1 48 149 view .LVU314
	.loc 1 48 151 view .LVU315
.LBB197:
.LBI197:
	.file 4 "/home/g/mise-work/zmk-firmware/zmk/app/build/zephyr/include/generated/syscalls/log_msg.h"
	.loc 4 26 20 view .LVU316
.LBB198:
	.loc 4 38 2 view .LVU317
	.loc 4 38 7 view .LVU318
	.loc 4 38 5 view .LVU319
	.loc 4 39 2 view .LVU320
	ldr	r0, .L10+8
	movs	r3, #0
	mov	r1, #10496
.LVL24:
	.loc 4 39 2 is_stmt 0 view .LVU321
	bl	z_impl_z_log_msg_static_create
.LVL25:
	.loc 4 39 2 view .LVU322
.LBE198:
.LBE197:
.LBE204:
.LBE212:
.LBE220:
.LBE228:
	.loc 1 49 12 view .LVU323
	movs	r1, #0
	ldrd	r2, [r7, #24]
	ldr	r0, [r4, #4]
.LBB229:
.LBB221:
.LBB213:
.LBB205:
	mov	sp, r5
.LVL26:
	.loc 1 49 12 view .LVU324
.LBE205:
	.loc 1 48 109 is_stmt 1 view .LVU325
	.loc 1 48 7 view .LVU326
	.loc 1 48 44 view .LVU327
.LBE213:
	.loc 1 48 8 view .LVU328
.LBE221:
	.loc 1 48 280 view .LVU329
	.loc 1 48 7 view .LVU330
	.loc 1 48 20 view .LVU331
.LBE229:
	.loc 1 48 8 view .LVU332
	.loc 1 49 5 view .LVU333
	.loc 1 49 12 is_stmt 0 view .LVU334
	bl	raise_zmk_keycode_state_changed_from_encoded
.LVL27:
	.loc 1 50 1 view .LVU335
	mov	sp, r7
	.cfi_def_cfa_register 13
	@ sp needed
	pop	{r4, r5, r7, lr}
	.cfi_restore 14
	.cfi_restore 7
	.cfi_restore 5
	.cfi_restore 4
	.cfi_def_cfa_offset 8
.LVL28:
	.loc 1 50 1 view .LVU336
	add	sp, sp, #8
	.cfi_def_cfa_offset 0
.LVL29:
	.loc 1 50 1 view .LVU337
	bx	lr
.L11:
	.align	2
.L10:
	.word	.LC0
	.word	__func__.1
	.word	log_const_zmk
	.cfi_endproc
.LFE580:
	.size	on_keymap_binding_released, .-on_keymap_binding_released
	.section	.text.on_keymap_binding_pressed,"ax",%progbits
	.align	1
	.syntax unified
	.thumb
	.thumb_func
	.type	on_keymap_binding_pressed, %function
on_keymap_binding_pressed:
.LVL30:
.LFB579:
	.loc 1 41 79 is_stmt 1 view -0
	.cfi_startproc
	@ args = 16, pretend = 8, frame = 0
	@ frame_needed = 1, uses_anonymous_args = 0
	.loc 1 42 5 view .LVU339
.LBB242:
	.loc 1 42 10 view .LVU340
	.loc 1 42 59 view .LVU341
	.loc 1 42 16 view .LVU342
	.loc 1 42 4 view .LVU343
	.loc 1 42 43 view .LVU344
	.loc 1 42 178 view .LVU345
	.loc 1 42 189 view .LVU346
	.loc 1 42 277 view .LVU347
.LBB243:
	.loc 1 42 5 view .LVU348
	.loc 1 42 7 view .LVU349
	.loc 1 42 56 view .LVU350
.LBE243:
.LBE242:
	.loc 1 41 79 is_stmt 0 view .LVU351
	sub	sp, sp, #8
	.cfi_def_cfa_offset 8
	push	{r4, r5, r7, lr}
	.cfi_def_cfa_offset 24
	.cfi_offset 4, -24
	.cfi_offset 5, -20
	.cfi_offset 7, -16
	.cfi_offset 14, -12
	add	r7, sp, #0
	.cfi_def_cfa_register 7
	.loc 1 41 79 view .LVU352
	add	r1, r7, #16
	stm	r1, {r2, r3}
.LBB284:
.LBB276:
.LBB244:
.LBB245:
	.loc 1 42 109 view .LVU353
	mov	r5, sp
	.loc 1 42 84 view .LVU354
	sub	sp, sp, #40
.LBE245:
.LBE244:
	.loc 1 42 68 view .LVU355
	ldr	r1, [r7, #20]
.LVL31:
	.loc 1 42 97 is_stmt 1 view .LVU356
	.loc 1 42 109 is_stmt 0 view .LVU357
	ldr	r3, [r0, #4]
.LVL32:
	.loc 1 42 5 is_stmt 1 view .LVU358
.LBB268:
	.loc 1 42 10 view .LVU359
	.loc 1 42 4 view .LVU360
.LBE268:
.LBE276:
.LBE284:
	.loc 1 42 5 view .LVU361
	.loc 1 42 14 view .LVU362
	.loc 1 42 109 view .LVU363
	.loc 1 42 5 view .LVU364
.LBB285:
.LBB277:
.LBB269:
	.loc 1 42 14 view .LVU365
	.loc 1 42 104 view .LVU366
	.loc 1 42 106 view .LVU367
.LBB261:
	.loc 1 42 111 view .LVU368
	.loc 1 42 122 view .LVU369
	.loc 1 42 211 view .LVU370
	.loc 1 42 28 view .LVU371
.LBE261:
.LBE269:
.LBE277:
.LBE285:
	.loc 1 42 5 view .LVU372
	.loc 1 42 370 view .LVU373
	.loc 1 42 77 view .LVU374
	.loc 1 42 4 view .LVU375
	.loc 1 42 4 view .LVU376
	.loc 1 42 4 view .LVU377
	.loc 1 42 40 view .LVU378
	.loc 1 42 6 view .LVU379
	.loc 1 42 32 view .LVU380
	.loc 1 42 58 view .LVU381
	.loc 1 42 1417 view .LVU382
	.loc 1 42 1479 view .LVU383
	.loc 1 42 2932 view .LVU384
	.loc 1 42 2997 view .LVU385
	.loc 1 42 3022 view .LVU386
	.loc 1 42 3023 view .LVU387
	.loc 1 42 3025 view .LVU388
	.loc 1 42 3055 view .LVU389
	.loc 1 42 3085 view .LVU390
	.loc 1 42 3117 view .LVU391
	.loc 1 42 3149 view .LVU392
	.loc 1 42 3181 view .LVU393
	.loc 1 42 3378 view .LVU394
	.loc 1 42 3402 view .LVU395
	.loc 1 42 3403 view .LVU396
	.loc 1 42 3405 view .LVU397
	.loc 1 42 3434 view .LVU398
	.loc 1 42 3463 view .LVU399
	.loc 1 42 3494 view .LVU400
	.loc 1 42 3525 view .LVU401
	.loc 1 42 3556 view .LVU402
	.loc 1 42 3763 view .LVU403
	.loc 1 42 6 view .LVU404
	.loc 1 42 24 view .LVU405
	.loc 1 42 44 view .LVU406
	.loc 1 42 6 view .LVU407
	.loc 1 42 44 view .LVU408
	.loc 1 42 15 view .LVU409
	.loc 1 42 15 view .LVU410
	.loc 1 42 63 view .LVU411
	.loc 1 42 94 view .LVU412
	.loc 1 42 128 view .LVU413
	.loc 1 42 133 view .LVU414
	.loc 1 42 390 view .LVU415
	.loc 1 42 1471 view .LVU416
	.loc 1 42 1536 view .LVU417
	.loc 1 42 1560 view .LVU418
	.loc 1 42 1621 view .LVU419
	.loc 1 42 1632 view .LVU420
	.loc 1 42 1751 view .LVU421
	.loc 1 42 1767 view .LVU422
	.loc 1 42 1807 view .LVU423
	.loc 1 42 1832 view .LVU424
	.loc 1 42 3135 view .LVU425
	.loc 1 42 3176 view .LVU426
	.loc 1 42 9 view .LVU427
	.loc 1 42 32 view .LVU428
	.loc 1 42 131 view .LVU429
	.loc 1 42 8 view .LVU430
	.loc 1 42 13 view .LVU431
	.loc 1 42 238 view .LVU432
	.loc 1 42 1191 view .LVU433
	.loc 1 42 1256 view .LVU434
	.loc 1 42 1280 view .LVU435
	.loc 1 42 1309 view .LVU436
	.loc 1 42 1320 view .LVU437
	.loc 1 42 1407 view .LVU438
	.loc 1 42 1423 view .LVU439
	.loc 1 42 1463 view .LVU440
	.loc 1 42 1488 view .LVU441
	.loc 1 42 2727 view .LVU442
	.loc 1 42 2768 view .LVU443
	.loc 1 42 9 view .LVU444
	.loc 1 42 32 view .LVU445
	.loc 1 42 11 view .LVU446
	.loc 1 42 8 view .LVU447
	.loc 1 42 13 view .LVU448
	.loc 1 42 238 view .LVU449
	.loc 1 42 1191 view .LVU450
	.loc 1 42 1256 view .LVU451
	.loc 1 42 1280 view .LVU452
	.loc 1 42 1309 view .LVU453
	.loc 1 42 1320 view .LVU454
	.loc 1 42 1407 view .LVU455
	.loc 1 42 1423 view .LVU456
	.loc 1 42 1463 view .LVU457
	.loc 1 42 2727 view .LVU458
	.loc 1 42 2768 view .LVU459
	.loc 1 42 9 view .LVU460
	.loc 1 42 32 view .LVU461
	.loc 1 42 11 view .LVU462
	.loc 1 42 8 view .LVU463
	.loc 1 42 13 view .LVU464
	.loc 1 42 238 view .LVU465
	.loc 1 42 1191 view .LVU466
	.loc 1 42 1256 view .LVU467
	.loc 1 42 1280 view .LVU468
	.loc 1 42 1309 view .LVU469
	.loc 1 42 1320 view .LVU470
	.loc 1 42 1407 view .LVU471
	.loc 1 42 1423 view .LVU472
	.loc 1 42 1463 view .LVU473
	.loc 1 42 2727 view .LVU474
	.loc 1 42 2768 view .LVU475
	.loc 1 42 9 view .LVU476
	.loc 1 42 32 view .LVU477
	.loc 1 42 11 view .LVU478
	.loc 1 42 7 view .LVU479
	.loc 1 42 30 view .LVU480
	.loc 1 42 54 view .LVU481
	.loc 1 42 82 view .LVU482
	.loc 1 42 258 view .LVU483
	.loc 1 42 18 view .LVU484
.LBB286:
.LBB278:
.LBB270:
.LBB262:
	.loc 1 42 31 view .LVU485
	.loc 1 42 5 view .LVU486
	.loc 1 42 5 view .LVU487
	.loc 1 42 72 view .LVU488
	.loc 1 42 72 is_stmt 0 view .LVU489
.LBE262:
.LBE270:
.LBE278:
.LBE286:
	.loc 1 41 79 view .LVU490
	mov	r4, r0
.LBB287:
.LBB279:
.LBB271:
.LBB263:
	.loc 1 42 84 view .LVU491
	mov	r2, sp
.LVL33:
	.loc 1 42 76 is_stmt 1 view .LVU492
	.loc 1 42 486 view .LVU493
	.loc 1 42 7 view .LVU494
	.loc 1 42 9 view .LVU495
	.loc 1 42 14 view .LVU496
	.loc 1 42 12 view .LVU497
	.loc 1 42 7 view .LVU498
	.loc 1 42 25 view .LVU499
.LBB246:
	.loc 1 42 5 view .LVU500
	.loc 1 42 370 view .LVU501
	.loc 1 42 77 view .LVU502
.LVL34:
	.loc 1 42 4 view .LVU503
	.loc 1 42 4 view .LVU504
	.loc 1 42 4 view .LVU505
	.loc 1 42 40 view .LVU506
	.loc 1 42 69 view .LVU507
	.loc 1 42 95 view .LVU508
	.loc 1 42 121 view .LVU509
	.loc 1 42 1480 view .LVU510
	.loc 1 42 1542 view .LVU511
	.loc 1 42 2995 view .LVU512
	.loc 1 42 3060 view .LVU513
	.loc 1 42 3085 view .LVU514
	.loc 1 42 3086 view .LVU515
	.loc 1 42 3088 view .LVU516
	.loc 1 42 3118 view .LVU517
	.loc 1 42 3148 view .LVU518
	.loc 1 42 3180 view .LVU519
	.loc 1 42 3212 view .LVU520
	.loc 1 42 3244 view .LVU521
	.loc 1 42 3441 view .LVU522
	.loc 1 42 3465 view .LVU523
	.loc 1 42 3466 view .LVU524
	.loc 1 42 3468 view .LVU525
	.loc 1 42 3497 view .LVU526
	.loc 1 42 3526 view .LVU527
	.loc 1 42 3557 view .LVU528
	.loc 1 42 3588 view .LVU529
	.loc 1 42 3619 view .LVU530
	.loc 1 42 3826 view .LVU531
.LBB247:
	.loc 1 42 3173 view .LVU532
	.loc 1 42 3178 view .LVU533
	.loc 1 42 3814 view .LVU534
	.loc 1 42 0 is_stmt 0 view .LVU535
	ldr	r0, .L13
.LVL35:
	.loc 1 42 0 view .LVU536
	str	r0, [r2, #20]
	.loc 1 42 3176 is_stmt 1 view .LVU537
	.loc 1 42 9 view .LVU538
.LVL36:
	.loc 1 42 32 view .LVU539
	.loc 1 42 32 is_stmt 0 view .LVU540
.LBE247:
	.loc 1 42 131 is_stmt 1 view .LVU541
	.loc 1 42 8 view .LVU542
.LBB248:
	.loc 1 42 13 view .LVU543
	.loc 1 42 238 view .LVU544
	.loc 1 42 1191 view .LVU545
	.loc 1 42 1256 view .LVU546
.LBE248:
.LBE246:
.LBE263:
.LBE271:
.LBE279:
.LBE287:
	.loc 1 42 1280 view .LVU547
	.loc 1 42 1309 view .LVU548
	.loc 1 42 1320 view .LVU549
	.loc 1 42 1407 view .LVU550
.LBB288:
.LBB280:
.LBB272:
.LBB264:
.LBB256:
.LBB249:
	.loc 1 42 1423 view .LVU551
	.loc 1 42 1463 view .LVU552
	.loc 1 42 1488 view .LVU553
	.loc 1 42 2727 view .LVU554
	.loc 1 42 2765 view .LVU555
	.loc 1 42 2770 view .LVU556
	.loc 1 42 3214 view .LVU557
	.loc 1 42 3813 is_stmt 0 view .LVU558
	ldr	r0, .L13+4
.LBE249:
.LBB250:
	.loc 1 42 3813 view .LVU559
	str	r3, [r2, #32]
.LBE250:
.LBB251:
	.loc 1 42 178 view .LVU560
	movs	r3, #5
.LVL37:
	.loc 1 42 178 view .LVU561
.LBE251:
.LBB252:
	.loc 1 42 3813 view .LVU562
	strd	r0, r1, [r2, #24]
	.loc 1 42 2768 is_stmt 1 view .LVU563
	.loc 1 42 9 view .LVU564
.LVL38:
	.loc 1 42 32 view .LVU565
	.loc 1 42 32 is_stmt 0 view .LVU566
.LBE252:
	.loc 1 42 11 is_stmt 1 view .LVU567
	.loc 1 42 8 view .LVU568
.LBB253:
	.loc 1 42 13 view .LVU569
	.loc 1 42 238 view .LVU570
	.loc 1 42 1191 view .LVU571
	.loc 1 42 1256 view .LVU572
.LBE253:
.LBE256:
.LBE264:
.LBE272:
.LBE280:
.LBE288:
	.loc 1 42 1280 view .LVU573
	.loc 1 42 1309 view .LVU574
	.loc 1 42 1320 view .LVU575
	.loc 1 42 1407 view .LVU576
.LBB289:
.LBB281:
.LBB273:
.LBB265:
.LBB257:
.LBB254:
	.loc 1 42 1423 view .LVU577
	.loc 1 42 1463 view .LVU578
	.loc 1 42 2727 view .LVU579
	.loc 1 42 2765 view .LVU580
	.loc 1 42 2770 view .LVU581
	.loc 1 42 3214 view .LVU582
	.loc 1 42 2768 view .LVU583
	.loc 1 42 9 view .LVU584
	.loc 1 42 32 view .LVU585
	.loc 1 42 32 is_stmt 0 view .LVU586
.LBE254:
	.loc 1 42 11 is_stmt 1 view .LVU587
	.loc 1 42 7 view .LVU588
	.loc 1 42 30 view .LVU589
	.loc 1 42 54 view .LVU590
	.loc 1 42 82 view .LVU591
.LBE257:
.LBE265:
.LBE273:
.LBE281:
.LBE289:
	.loc 1 42 8 view .LVU592
	.loc 1 42 47 view .LVU593
	.loc 1 42 52 view .LVU594
	.loc 1 42 82 view .LVU595
	.loc 1 42 149 view .LVU596
	.loc 1 42 154 view .LVU597
	.loc 1 42 184 view .LVU598
.LBB290:
.LBB282:
.LBB274:
.LBB266:
.LBB258:
	.loc 1 42 258 view .LVU599
	.loc 1 42 18 view .LVU600
.LBB255:
	.loc 1 42 8 view .LVU601
	.loc 1 42 166 view .LVU602
	.loc 1 42 168 view .LVU603
	.loc 1 42 178 is_stmt 0 view .LVU604
	str	r3, [r2, #16]!
.LVL39:
	.loc 1 42 178 view .LVU605
.LBE255:
.LBE258:
	.loc 1 42 28 is_stmt 1 view .LVU606
	.loc 1 42 9 view .LVU607
	.loc 1 42 149 view .LVU608
	.loc 1 42 151 view .LVU609
.LBB259:
.LBI259:
	.loc 4 26 20 view .LVU610
.LBB260:
	.loc 4 38 2 view .LVU611
	.loc 4 38 7 view .LVU612
	.loc 4 38 5 view .LVU613
	.loc 4 39 2 view .LVU614
	ldr	r0, .L13+8
	movs	r3, #0
	mov	r1, #10496
.LVL40:
	.loc 4 39 2 is_stmt 0 view .LVU615
	bl	z_impl_z_log_msg_static_create
.LVL41:
	.loc 4 39 2 view .LVU616
.LBE260:
.LBE259:
.LBE266:
.LBE274:
.LBE282:
.LBE290:
	.loc 1 43 12 view .LVU617
	movs	r1, #1
	ldrd	r2, [r7, #24]
	ldr	r0, [r4, #4]
.LBB291:
.LBB283:
.LBB275:
.LBB267:
	mov	sp, r5
.LVL42:
	.loc 1 43 12 view .LVU618
.LBE267:
	.loc 1 42 109 is_stmt 1 view .LVU619
	.loc 1 42 7 view .LVU620
	.loc 1 42 44 view .LVU621
.LBE275:
	.loc 1 42 8 view .LVU622
.LBE283:
	.loc 1 42 280 view .LVU623
	.loc 1 42 7 view .LVU624
	.loc 1 42 20 view .LVU625
.LBE291:
	.loc 1 42 8 view .LVU626
	.loc 1 43 5 view .LVU627
	.loc 1 43 12 is_stmt 0 view .LVU628
	bl	raise_zmk_keycode_state_changed_from_encoded
.LVL43:
	.loc 1 44 1 view .LVU629
	mov	sp, r7
	.cfi_def_cfa_register 13
	@ sp needed
	pop	{r4, r5, r7, lr}
	.cfi_restore 14
	.cfi_restore 7
	.cfi_restore 5
	.cfi_restore 4
	.cfi_def_cfa_offset 8
.LVL44:
	.loc 1 44 1 view .LVU630
	add	sp, sp, #8
	.cfi_def_cfa_offset 0
.LVL45:
	.loc 1 44 1 view .LVU631
	bx	lr
.L14:
	.align	2
.L13:
	.word	.LC0
	.word	__func__.0
	.word	log_const_zmk
	.cfi_endproc
.LFE579:
	.size	on_keymap_binding_pressed, .-on_keymap_binding_pressed
	.section	.rodata.__func__.0,"a"
	.type	__func__.0, %object
	.size	__func__.0, 26
__func__.0:
	.ascii	"on_keymap_binding_pressed\000"
	.section	.rodata.__func__.1,"a"
	.type	__func__.1, %object
	.size	__func__.1, 27
__func__.1:
	.ascii	"on_keymap_binding_released\000"
	.section	._zmk_behavior_ref.static.zmk_behavior___device_dts_ord_60_,"a"
	.align	2
	.type	zmk_behavior___device_dts_ord_60, %object
	.size	zmk_behavior___device_dts_ord_60, 4
zmk_behavior___device_dts_ord_60:
	.word	__device_dts_ord_60
	.section	.z_init_POST_KERNEL40_00060_,"a"
	.align	2
	.type	__init___device_dts_ord_60, %object
	.size	__init___device_dts_ord_60, 8
__init___device_dts_ord_60:
	.word	0
	.word	__device_dts_ord_60
	.global	__device_dts_ord_60
	.section	.rodata.str1.1,"aMS",%progbits,1
.LC1:
	.ascii	"key_press\000"
	.section	._device.static.3_40_,"a"
	.align	2
	.type	__device_dts_ord_60, %object
	.size	__device_dts_ord_60, 24
__device_dts_ord_60:
	.word	.LC1
	.word	0
	.word	behavior_key_press_driver_api
	.word	__devstate_dts_ord_60
	.word	0
	.word	0
	.section	.z_devstate,"aw"
	.type	__devstate_dts_ord_60, %object
	.size	__devstate_dts_ord_60, 2
__devstate_dts_ord_60:
	.space	2
	.section	.rodata.behavior_key_press_driver_api,"a"
	.align	2
	.type	behavior_key_press_driver_api, %object
	.size	behavior_key_press_driver_api, 24
behavior_key_press_driver_api:
	.space	8
	.word	on_keymap_binding_pressed
	.word	on_keymap_binding_released
	.space	8
	.text
.Letext0:
	.file 5 "/home/g/zephyr-sdk-0.16.3/arm-zephyr-eabi/picolibc/include/machine/_default_types.h"
	.file 6 "/home/g/zephyr-sdk-0.16.3/arm-zephyr-eabi/picolibc/include/sys/_stdint.h"
	.file 7 "/home/g/zephyr-sdk-0.16.3/arm-zephyr-eabi/lib/gcc/arm-zephyr-eabi/12.2.0/include/stddef.h"
	.file 8 "/home/g/mise-work/zmk-firmware/zmk/zephyr/include/zephyr/init.h"
	.file 9 "/home/g/mise-work/zmk-firmware/zmk/zephyr/include/zephyr/device.h"
	.file 10 "/home/g/mise-work/zmk-firmware/zmk/zephyr/include/zephyr/fatal_types.h"
	.file 11 "/home/g/mise-work/zmk-firmware/zmk/zephyr/include/zephyr/kernel.h"
	.file 12 "/home/g/mise-work/zmk-firmware/zmk/zephyr/include/zephyr/drivers/sensor.h"
	.file 13 "/home/g/mise-work/zmk-firmware/zmk/app/include/zmk/sensors.h"
	.file 14 "/home/g/mise-work/zmk-firmware/zmk/app/include/zmk/behavior.h"
	.file 15 "/home/g/mise-work/zmk-firmware/zmk/app/include/drivers/behavior.h"
	.file 16 "/home/g/mise-work/zmk-firmware/zmk/zephyr/include/zephyr/logging/log_instance.h"
	.file 17 "/home/g/mise-work/zmk-firmware/zmk/zephyr/include/zephyr/sys/cbprintf.h"
	.file 18 "/home/g/mise-work/zmk-firmware/zmk/zephyr/include/zephyr/logging/log_msg.h"
	.file 19 "/home/g/mise-work/zmk-firmware/zmk/zephyr/include/zephyr/sys/cbprintf_internal.h"
	.file 20 "/home/g/mise-work/zmk-firmware/zmk/zephyr/include/zephyr/syscall.h"