	.cpu cortex-m4
	.arch armv7e-m
	.fpu fpv4-sp-d16
	.eabi_attribute 27, 1
	.eabi_attribute 28, 1
	.eabi_attribute 20, 1
	.eabi_attribute 21, 1
	.eabi_attribute 23, 3
	.eabi_attribute 24, 1
	.eabi_attribute 25, 1
	.eabi_attribute 26, 1
	.eabi_attribute 30, 4
	.eabi_attribute 34, 1
	.eabi_attribute 38, 1
	.eabi_attribute 18, 4
	.file	"uart_console.c"
	.text
.Ltext0:
	.cfi_sections	.debug_frame
	.file 1 "/home/g/mise-work/zmk-firmware/zmk/zephyr/drivers/console/uart_console.c"
	.section	.text.uart_console_init,"ax",%progbits
	.align	1
	.syntax unified
	.thumb
	.thumb_func
	.type	uart_console_init, %function
uart_console_init:
.LFB530:
	.loc 1 616 1 view -0
	.cfi_startproc
	@ args = 0, pretend = 0, frame = 0
	@ frame_needed = 0, uses_anonymous_args = 0
	.loc 1 617 2 view .LVU1
.LBB20:
.LBI20:
	.file 2 "/home/g/mise-work/zmk-firmware/zmk/app/build/zephyr/include/generated/syscalls/device.h"
	.loc 2 49 19 view .LVU2
.LVL0:
.LBB21:
	.loc 2 57 2 view .LVU3
	.loc 2 57 7 view .LVU4
.LBE21:
.LBE20:
	.loc 1 616 1 is_stmt 0 view .LVU5
	push	{r3, lr}
	.cfi_def_cfa_offset 8
	.cfi_offset 3, -8
	.cfi_offset 14, -4
.LBB25:
.LBB24:
	.loc 2 57 7 view .LVU6
	.loc 2 57 5 is_stmt 1 view .LVU7
	.loc 2 58 2 view .LVU8
.LVL1:
.LBB22:
.LBI22:
	.file 3 "/home/g/mise-work/zmk-firmware/zmk/zephyr/include/zephyr/device.h"
	.loc 3 744 19 view .LVU9
.LBB23:
	.loc 3 746 2 view .LVU10
	.loc 3 746 9 is_stmt 0 view .LVU11
	ldr	r0, .L4
	bl	z_device_is_ready
.LVL2:
	.loc 3 746 9 view .LVU12
.LBE23:
.LBE22:
.LBE24:
.LBE25:
	.loc 1 617 5 view .LVU13
	cbz	r0, .L3
	.loc 1 621 2 is_stmt 1 view .LVU14
.LBB26:
.LBI26:
	.loc 1 600 13 view .LVU15
.LBB27:
	.loc 1 603 2 view .LVU16
	ldr	r0, .L4+4
	bl	__stdout_hook_install
.LVL3:
	.loc 1 606 2 view .LVU17
	ldr	r0, .L4+4
	bl	__printk_hook_install
.LVL4:
.LBE27:
.LBE26:
	.loc 1 623 9 is_stmt 0 view .LVU18
	movs	r0, #0
.L1:
	.loc 1 624 1 view .LVU19
	pop	{r3, pc}
.L3:
	.loc 1 618 10 view .LVU20
	mvn	r0, #18
	b	.L1
.L5:
	.align	2
.L4:
	.word	__device_dts_ord_143
	.word	console_out
	.cfi_endproc
.LFE530:
	.size	uart_console_init, .-uart_console_init
	.section	.text.console_out,"ax",%progbits
	.align	1
	.syntax unified
	.thumb
	.thumb_func
	.type	console_out, %function
console_out:
.LVL5:
.LFB527:
	.loc 1 79 1 is_stmt 1 view -0
	.cfi_startproc
	@ args = 0, pretend = 0, frame = 0
	@ frame_needed = 0, uses_anonymous_args = 0
	.loc 1 90 2 view .LVU22
	.loc 1 99 2 view .LVU23
	.loc 1 99 5 is_stmt 0 view .LVU24
	cmp	r0, #10
	.loc 1 79 1 view .LVU25
	push	{r3, r4, r5, lr}
	.cfi_def_cfa_offset 16
	.cfi_offset 3, -16
	.cfi_offset 4, -12
	.cfi_offset 5, -8
	.cfi_offset 14, -4
	ldr	r5, .L8
	.loc 1 79 1 view .LVU26
	mov	r4, r0
	.loc 1 99 5 view .LVU27
	bne	.L7
	.loc 1 100 3 is_stmt 1 view .LVU28
.LVL6:
.LBB36:
.LBI36:
	.file 4 "/home/g/mise-work/zmk-firmware/zmk/app/build/zephyr/include/generated/syscalls/uart.h"
	.loc 4 97 20 view .LVU29
.LBB37:
	.loc 4 107 2 view .LVU30
	.loc 4 107 7 view .LVU31
	.loc 4 107 5 view .LVU32
	.loc 4 108 2 view .LVU33
.LVL7:
.LBB38:
.LBI38:
	.file 5 "/home/g/mise-work/zmk-firmware/zmk/zephyr/include/zephyr/drivers/uart.h"
	.loc 5 574 20 view .LVU34
.LBB39:
	.loc 5 577 2 view .LVU35
	.loc 5 580 2 view .LVU36
	.loc 5 580 5 is_stmt 0 view .LVU37
	ldr	r3, [r5, #8]
	.loc 5 580 2 view .LVU38
	movs	r1, #13
	ldr	r3, [r3, #4]
	mov	r0, r5
.LVL8:
	.loc 5 580 2 view .LVU39
	blx	r3
.LVL9:
.L7:
	.loc 5 580 2 view .LVU40
.LBE39:
.LBE38:
.LBE37:
.LBE36:
	.loc 1 102 2 is_stmt 1 view .LVU41
.LBB40:
.LBI40:
	.loc 4 97 20 view .LVU42
.LBB41:
	.loc 4 107 2 view .LVU43
	.loc 4 107 7 view .LVU44
	.loc 4 107 5 view .LVU45
	.loc 4 108 2 view .LVU46
.LVL10:
.LBB42:
.LBI42:
	.loc 5 574 20 view .LVU47
.LBB43:
	.loc 5 577 2 view .LVU48
	.loc 5 580 2 view .LVU49
	.loc 5 580 5 is_stmt 0 view .LVU50
	ldr	r3, [r5, #8]
	.loc 5 580 2 view .LVU51
	ldr	r0, .L8
	ldr	r3, [r3, #4]
	uxtb	r1, r4
	blx	r3
.LVL11:
	.loc 5 580 2 view .LVU52
.LBE43:
.LBE42:
.LBE41:
.LBE40:
	.loc 1 104 2 is_stmt 1 view .LVU53
	.loc 1 109 2 view .LVU54
	.loc 1 110 1 is_stmt 0 view .LVU55
	mov	r0, r4
	pop	{r3, r4, r5, pc}
.LVL12:
.L9:
	.loc 1 110 1 view .LVU56
	.align	2
.L8:
	.word	__device_dts_ord_143
	.cfi_endproc
.LFE527:
	.size	console_out, .-console_out
	.section	.text.uart_register_input,"ax",%progbits
	.align	1
	.global	uart_register_input
	.syntax unified
	.thumb
	.thumb_func
	.type	uart_register_input, %function
uart_register_input:
.LVL13:
.LFB528:
	.loc 1 589 1 is_stmt 1 view -0
	.cfi_startproc
	@ args = 0, pretend = 0, frame = 0
	@ frame_needed = 0, uses_anonymous_args = 0
	@ link register save eliminated.
	.loc 1 590 2 view .LVU58
	.loc 1 591 2 view .LVU59
	.loc 1 592 2 view .LVU60
	.loc 1 593 1 is_stmt 0 view .LVU61
	bx	lr
	.cfi_endproc
.LFE528:
	.size	uart_register_input, .-uart_register_input
	.section	.z_init_PRE_KERNEL_160_0_,"a"
	.align	2
	.type	__init_uart_console_init, %object
	.size	__init_uart_console_init, 8
__init_uart_console_init:
	.word	uart_console_init
	.word	0
	.text
.Letext0:
	.file 6 "/home/g/zephyr-sdk-0.16.3/arm-zephyr-eabi/picolibc/include/machine/_default_types.h"
	.file 7 "/home/g/zephyr-sdk-0.16.3/arm-zephyr-eabi/picolibc/include/sys/_stdint.h"
	.file 8 "/home/g/mise-work/zmk-firmware/zmk/zephyr/include/zephyr/sys/dlist.h"
	.file 9 "/home/g/mise-work/zmk-firmware/zmk/zephyr/include/zephyr/sys/sflist.h"
	.file 10 "/home/g/mise-work/zmk-firmware/zmk/zephyr/include/zephyr/kernel_structs.h"
	.file 11 "/home/g/mise-work/zmk-firmware/zmk/zephyr/include/zephyr/kernel.h"
	.file 12 "/home/g/mise-work/zmk-firmware/zmk/zephyr/include/zephyr/init.h"
	.file 13 "/home/g/mise-work/zmk-firmware/zmk/zephyr/include/zephyr/pm/device_runtime.h"
	.file 14 "/home/g/mise-work/zmk-firmware/zmk/zephyr/include/zephyr/spinlock.h"