	.cpu cortex-m4
	.arch armv7e-m
	.fpu fpv4-sp-d16
	.eabi_attribute 27, 1
	.eabi_attribute 28, 1
	.eabi_attribute 20, 1
	.eabi_attribute 21, 1
	.eabi_attribute 23, 3
	.eabi_attribute 24, 1
	.eabi_attribute 25, 1
	.eabi_attribute 26, 1
	.eabi_attribute 30, 4
	.eabi_attribute 34, 1
	.eabi_attribute 38, 1
	.eabi_attribute 18, 4
	.file	"usb_conn_state_changed.c"
	.text
.Ltext0:
	.cfi_sections	.debug_frame
	.file 1 "/home/g/mise-work/zmk-firmware/zmk/app/src/events/usb_conn_state_changed.c"
	.section	.text.copy_raised_zmk_usb_conn_state_changed,"ax",%progbits
	.align	1
	.global	copy_raised_zmk_usb_conn_state_changed
	.syntax unified
	.thumb
	.thumb_func
	.type	copy_raised_zmk_usb_conn_state_changed, %function
copy_raised_zmk_usb_conn_state_changed:
.LVL0:
.LFB485:
	.loc 1 10 413 view -0
	.cfi_startproc
	@ args = 0, pretend = 0, frame = 0
	@ frame_needed = 0, uses_anonymous_args = 0
	@ link register save eliminated.
	.loc 1 10 415 view .LVU1
	.loc 1 10 9 view .LVU2
	.loc 1 10 16 is_stmt 0 view .LVU3
	subs	r1, r1, #8
.LVL1:
	.loc 1 10 413 view .LVU4
	mov	r3, r0
	.loc 1 10 16 view .LVU5
	ldm	r1, {r0, r1, r2}
.LVL2:
	.loc 1 10 16 view .LVU6
	stm	r3, {r0, r1, r2}
	.loc 1 10 24 view .LVU7
	mov	r0, r3
	bx	lr
	.cfi_endproc
.LFE485:
	.size	copy_raised_zmk_usb_conn_state_changed, .-copy_raised_zmk_usb_conn_state_changed
	.section	.text.raise_zmk_usb_conn_state_changed,"ax",%progbits
	.align	1
	.global	raise_zmk_usb_conn_state_changed
	.syntax unified
	.thumb
	.thumb_func
	.type	raise_zmk_usb_conn_state_changed, %function
raise_zmk_usb_conn_state_changed:
.LVL3:
.LFB486:
	.loc 1 10 104 is_stmt 1 view -0
	.cfi_startproc
	@ args = 0, pretend = 0, frame = 16
	@ frame_needed = 0, uses_anonymous_args = 0
	.loc 1 10 106 view .LVU9
	.loc 1 10 104 is_stmt 0 view .LVU10
	push	{r0, r1, r2, r3, r4, lr}
	.cfi_def_cfa_offset 24
	.cfi_offset 14, -4
	.loc 1 10 146 view .LVU11
	movs	r3, #0
	strd	r3, r3, [sp, #8]
	ldr	r3, .L3
	strb	r0, [sp, #12]
	.loc 1 10 227 is_stmt 1 view .LVU12
	.loc 1 10 234 is_stmt 0 view .LVU13
	add	r0, sp, #4
.LVL4:
	.loc 1 10 146 view .LVU14
	str	r3, [sp, #4]
	.loc 1 10 234 view .LVU15
	bl	zmk_event_manager_raise
.LVL5:
	.loc 1 10 273 view .LVU16
	add	sp, sp, #20
	.cfi_def_cfa_offset 4
	@ sp needed
	ldr	pc, [sp], #4
.L4:
	.align	2
.L3:
	.word	zmk_event_zmk_usb_conn_state_changed
	.cfi_endproc
.LFE486:
	.size	raise_zmk_usb_conn_state_changed, .-raise_zmk_usb_conn_state_changed
	.section	.text.as_zmk_usb_conn_state_changed,"ax",%progbits
	.align	1
	.global	as_zmk_usb_conn_state_changed
	.syntax unified
	.thumb
	.thumb_func
	.type	as_zmk_usb_conn_state_changed, %function
as_zmk_usb_conn_state_changed:
.LVL6:
.LFB487:
	.loc 1 10 364 is_stmt 1 view -0
	.cfi_startproc
	@ args = 0, pretend = 0, frame = 0
	@ frame_needed = 0, uses_anonymous_args = 0
	@ link register save eliminated.
	.loc 1 10 366 view .LVU18
	.loc 1 10 483 is_stmt 0 view .LVU19
	ldr	r2, [r0]
	ldr	r3, .L8
	cmp	r2, r3
	ite	eq
	addeq	r0, r0, #8
.LVL7:
	.loc 1 10 483 view .LVU20
	movne	r0, #0
	.loc 1 10 3 view .LVU21
	bx	lr
.L9:
	.align	2
.L8:
	.word	zmk_event_zmk_usb_conn_state_changed
	.cfi_endproc
.LFE487:
	.size	as_zmk_usb_conn_state_changed, .-as_zmk_usb_conn_state_changed
	.global	zmk_event_ref_zmk_usb_conn_state_changed
	.section	.event_type,"aw"
	.align	2
	.type	zmk_event_ref_zmk_usb_conn_state_changed, %object
	.size	zmk_event_ref_zmk_usb_conn_state_changed, 4
zmk_event_ref_zmk_usb_conn_state_changed:
	.word	zmk_event_zmk_usb_conn_state_changed
	.global	zmk_event_zmk_usb_conn_state_changed
	.section	.rodata.str1.1,"aMS",%progbits,1
.LC0:
	.ascii	"zmk_usb_conn_state_changed\000"
	.section	.rodata.zmk_event_zmk_usb_conn_state_changed,"a"
	.align	2
	.type	zmk_event_zmk_usb_conn_state_changed, %object
	.size	zmk_event_zmk_usb_conn_state_changed, 4
zmk_event_zmk_usb_conn_state_changed:
	.word	.LC0
	.text
.Letext0:
	.file 2 "/home/g/zephyr-sdk-0.16.3/arm-zephyr-eabi/picolibc/include/machine/_default_types.h"
	.file 3 "/home/g/zephyr-sdk-0.16.3/arm-zephyr-eabi/picolibc/include/sys/_stdint.h"
	.file 4 "/home/g/mise-work/zmk-firmware/zmk/app/include/zmk/event_manager.h"
	.file 5 "/home/g/mise-work/zmk-firmware/zmk/app/include/zmk/events/usb_conn_state_changed.h"
	.file 6 "/home/g/mise-work/zmk-firmware/zmk/app/include/zmk/hid.h"
	.file 7 "/home/g/mise-work/zmk-firmware/zmk/app/include/zmk/usb.h"