	.cpu cortex-m4
	.arch armv7e-m
	.fpu fpv4-sp-d16
	.eabi_attribute 27, 1
	.eabi_attribute 28, 1
	.eabi_attribute 20, 1
	.eabi_attribute 21, 1
	.eabi_attribute 23, 3
	.eabi_attribute 24, 1
	.eabi_attribute 25, 1
	.eabi_attribute 26, 1
	.eabi_attribute 30, 4
	.eabi_attribute 34, 1
	.eabi_attribute 38, 1
	.eabi_attribute 18, 4
	.file	"gpio_nrfx.c"
	.text
.Ltext0:
	.cfi_sections	.debug_frame
	.file 1 "/home/g/mise-work/zmk-firmware/zmk/zephyr/drivers/gpio/gpio_nrfx.c"
	.section	.text.gpio_nrfx_port_get_raw,"ax",%progbits
	.align	1
	.syntax unified
	.thumb
	.thumb_func
	.type	gpio_nrfx_port_get_raw, %function
gpio_nrfx_port_get_raw:
.LVL0:
.LFB466:
	.loc 1 169 1 view -0
	.cfi_startproc
	@ args = 0, pretend = 0, frame = 0
	@ frame_needed = 0, uses_anonymous_args = 0
	@ link register save eliminated.
	.loc 1 170 2 view .LVU1
.LBB123:
.LBI123:
	.loc 1 35 43 view .LVU2
.LBB124:
	.loc 1 37 2 view .LVU3
	.loc 1 37 2 is_stmt 0 view .LVU4
.LBE124:
.LBE123:
	.loc 1 170 17 view .LVU5
	ldr	r3, [r0, #4]
	ldr	r3, [r3, #4]
.LVL1:
	.loc 1 172 2 is_stmt 1 view .LVU6
.LBB125:
.LBI125:
	.file 2 "/home/g/mise-work/zmk-firmware/zmk/modules/hal/nordic/nrfx/hal/nrf_gpio.h"
	.loc 2 1251 24 view .LVU7
.LBB126:
	.loc 2 1253 5 view .LVU8
	.loc 2 1253 17 is_stmt 0 view .LVU9
	ldr	r3, [r3, #1296]
.LVL2:
	.loc 2 1253 17 view .LVU10
.LBE126:
.LBE125:
	.loc 1 172 9 view .LVU11
	str	r3, [r1]
.LVL3:
	.loc 1 174 2 is_stmt 1 view .LVU12
	.loc 1 175 1 is_stmt 0 view .LVU13
	movs	r0, #0
.LVL4:
	.loc 1 175 1 view .LVU14
	bx	lr
	.cfi_endproc
.LFE466:
	.size	gpio_nrfx_port_get_raw, .-gpio_nrfx_port_get_raw
	.section	.text.gpio_nrfx_port_set_masked_raw,"ax",%progbits
	.align	1
	.syntax unified
	.thumb
	.thumb_func
	.type	gpio_nrfx_port_set_masked_raw, %function
gpio_nrfx_port_set_masked_raw:
.LVL5:
.LFB467:
	.loc 1 180 1 is_stmt 1 view -0
	.cfi_startproc
	@ args = 0, pretend = 0, frame = 0
	@ frame_needed = 0, uses_anonymous_args = 0
	@ link register save eliminated.
	.loc 1 181 2 view .LVU16
.LBB127:
.LBI127:
	.loc 1 35 43 view .LVU17
.LBB128:
	.loc 1 37 2 view .LVU18
	.loc 1 37 2 is_stmt 0 view .LVU19
.LBE128:
.LBE127:
	.loc 1 181 17 view .LVU20
	ldr	r3, [r0, #4]
	ldr	r3, [r3, #4]
.LVL6:
	.loc 1 183 2 is_stmt 1 view .LVU21
	.loc 1 183 17 is_stmt 0 view .LVU22
	and	r0, r2, r1
.LVL7:
	.loc 1 184 2 is_stmt 1 view .LVU23
	.loc 1 184 17 is_stmt 0 view .LVU24
	bic	r1, r1, r2
.LVL8:
	.loc 1 186 2 is_stmt 1 view .LVU25
.LBB129:
.LBI129:
	.loc 2 1269 20 view .LVU26
.LBB130:
	.loc 2 1271 5 view .LVU27
	.loc 2 1271 19 is_stmt 0 view .LVU28
	str	r0, [r3, #1288]
.LVL9:
	.loc 2 1271 19 view .LVU29
.LBE130:
.LBE129:
	.loc 1 187 2 is_stmt 1 view .LVU30
.LBB131:
.LBI131:
	.loc 2 1275 20 view .LVU31
.LBB132:
	.loc 2 1277 5 view .LVU32
	.loc 2 1277 19 is_stmt 0 view .LVU33
	str	r1, [r3, #1292]
.LVL10:
	.loc 2 1277 19 view .LVU34
.LBE132:
.LBE131:
	.loc 1 189 2 is_stmt 1 view .LVU35
	.loc 1 190 1 is_stmt 0 view .LVU36
	movs	r0, #0
.LVL11:
	.loc 1 190 1 view .LVU37
	bx	lr
	.cfi_endproc
.LFE467:
	.size	gpio_nrfx_port_set_masked_raw, .-gpio_nrfx_port_set_masked_raw
	.section	.text.gpio_nrfx_port_set_bits_raw,"ax",%progbits
	.align	1
	.syntax unified
	.thumb
	.thumb_func
	.type	gpio_nrfx_port_set_bits_raw, %function
gpio_nrfx_port_set_bits_raw:
.LVL12:
.LFB468:
	.loc 1 194 1 is_stmt 1 view -0
	.cfi_startproc
	@ args = 0, pretend = 0, frame = 0
	@ frame_needed = 0, uses_anonymous_args = 0
	@ link register save eliminated.
	.loc 1 195 2 view .LVU39
.LBB133:
.LBI133:
	.loc 1 35 43 view .LVU40
.LBB134:
	.loc 1 37 2 view .LVU41
	.loc 1 37 2 is_stmt 0 view .LVU42
.LBE134:
.LBE133:
	.loc 1 195 17 view .LVU43
	ldr	r3, [r0, #4]
	ldr	r3, [r3, #4]
.LVL13:
	.loc 1 197 2 is_stmt 1 view .LVU44
.LBB135:
.LBI135:
	.loc 2 1269 20 view .LVU45
.LBB136:
	.loc 2 1271 5 view .LVU46
.LBE136:
.LBE135:
	.loc 1 200 1 is_stmt 0 view .LVU47
	movs	r0, #0
.LVL14:
.LBB138:
.LBB137:
	.loc 2 1271 19 view .LVU48
	str	r1, [r3, #1288]
.LVL15:
	.loc 2 1271 19 view .LVU49
.LBE137:
.LBE138:
	.loc 1 199 2 is_stmt 1 view .LVU50
	.loc 1 200 1 is_stmt 0 view .LVU51
	bx	lr
	.cfi_endproc
.LFE468:
	.size	gpio_nrfx_port_set_bits_raw, .-gpio_nrfx_port_set_bits_raw
	.section	.text.gpio_nrfx_port_clear_bits_raw,"ax",%progbits
	.align	1
	.syntax unified
	.thumb
	.thumb_func
	.type	gpio_nrfx_port_clear_bits_raw, %function
gpio_nrfx_port_clear_bits_raw:
.LVL16:
.LFB469:
	.loc 1 204 1 is_stmt 1 view -0
	.cfi_startproc
	@ args = 0, pretend = 0, frame = 0
	@ frame_needed = 0, uses_anonymous_args = 0
	@ link register save eliminated.
	.loc 1 205 2 view .LVU53
.LBB139:
.LBI139:
	.loc 1 35 43 view .LVU54
.LBB140:
	.loc 1 37 2 view .LVU55
	.loc 1 37 2 is_stmt 0 view .LVU56
.LBE140:
.LBE139:
	.loc 1 205 17 view .LVU57
	ldr	r3, [r0, #4]
	ldr	r3, [r3, #4]
.LVL17:
	.loc 1 207 2 is_stmt 1 view .LVU58
.LBB141:
.LBI141:
	.loc 2 1275 20 view .LVU59
.LBB142:
	.loc 2 1277 5 view .LVU60
.LBE142:
.LBE141:
	.loc 1 210 1 is_stmt 0 view .LVU61
	movs	r0, #0
.LVL18:
.LBB144:
.LBB143:
	.loc 2 1277 19 view .LVU62
	str	r1, [r3, #1292]
.LVL19:
	.loc 2 1277 19 view .LVU63
.LBE143:
.LBE144:
	.loc 1 209 2 is_stmt 1 view .LVU64
	.loc 1 210 1 is_stmt 0 view .LVU65
	bx	lr
	.cfi_endproc
.LFE469:
	.size	gpio_nrfx_port_clear_bits_raw, .-gpio_nrfx_port_clear_bits_raw
	.section	.text.gpio_nrfx_port_toggle_bits,"ax",%progbits
	.align	1
	.syntax unified
	.thumb
	.thumb_func
	.type	gpio_nrfx_port_toggle_bits, %function
gpio_nrfx_port_toggle_bits:
.LVL20:
.LFB470:
	.loc 1 214 1 is_stmt 1 view -0
	.cfi_startproc
	@ args = 0, pretend = 0, frame = 0
	@ frame_needed = 0, uses_anonymous_args = 0
	@ link register save eliminated.
	.loc 1 215 2 view .LVU67
.LBB145:
.LBI145:
	.loc 1 35 43 view .LVU68
.LBB146:
	.loc 1 37 2 view .LVU69
	.loc 1 37 2 is_stmt 0 view .LVU70
.LBE146:
.LBE145:
	.loc 1 215 17 view .LVU71
	ldr	r3, [r0, #4]
	ldr	r2, [r3, #4]
.LVL21:
	.loc 1 216 2 is_stmt 1 view .LVU72
.LBB147:
.LBI147:
	.loc 2 1257 24 view .LVU73
.LBB148:
	.loc 2 1259 5 view .LVU74
	.loc 2 1259 17 is_stmt 0 view .LVU75
	ldr	r3, [r2, #1284]
.LVL22:
	.loc 2 1259 17 view .LVU76
.LBE148:
.LBE147:
	.loc 1 217 2 is_stmt 1 view .LVU77
	.loc 1 217 17 is_stmt 0 view .LVU78
	bic	r0, r1, r3
.LVL23:
	.loc 1 218 2 is_stmt 1 view .LVU79
	.loc 1 218 17 is_stmt 0 view .LVU80
	ands	r3, r3, r1
.LVL24:
	.loc 1 220 2 is_stmt 1 view .LVU81
.LBB149:
.LBI149:
	.loc 2 1269 20 view .LVU82
.LBB150:
	.loc 2 1271 5 view .LVU83
	.loc 2 1271 19 is_stmt 0 view .LVU84
	str	r0, [r2, #1288]
.LVL25:
	.loc 2 1271 19 view .LVU85
.LBE150:
.LBE149:
	.loc 1 221 2 is_stmt 1 view .LVU86
.LBB151:
.LBI151:
	.loc 2 1275 20 view .LVU87
.LBB152:
	.loc 2 1277 5 view .LVU88
	.loc 2 1277 19 is_stmt 0 view .LVU89
	str	r3, [r2, #1292]
.LVL26:
	.loc 2 1277 19 view .LVU90
.LBE152:
.LBE151:
	.loc 1 223 2 is_stmt 1 view .LVU91
	.loc 1 224 1 is_stmt 0 view .LVU92
	movs	r0, #0
.LVL27:
	.loc 1 224 1 view .LVU93
	bx	lr
	.cfi_endproc
.LFE470:
	.size	gpio_nrfx_port_toggle_bits, .-gpio_nrfx_port_toggle_bits
	.section	.text.gpio_nrfx_manage_callback,"ax",%progbits
	.align	1
	.syntax unified
	.thumb
	.thumb_func
	.type	gpio_nrfx_manage_callback, %function
gpio_nrfx_manage_callback:
.LVL28:
.LFB473:
	.loc 1 289 1 is_stmt 1 view -0
	.cfi_startproc
	@ args = 0, pretend = 0, frame = 0
	@ frame_needed = 0, uses_anonymous_args = 0
	.loc 1 290 2 view .LVU95
.LBB200:
.LBI200:
	.loc 1 30 38 view .LVU96
.LBB201:
	.loc 1 32 2 view .LVU97
.LBE201:
.LBE200:
	.loc 1 289 1 is_stmt 0 view .LVU98
	push	{r4, lr}
	.cfi_def_cfa_offset 8
	.cfi_offset 4, -8
	.cfi_offset 14, -4
.LBB203:
.LBB202:
	.loc 1 32 13 view .LVU99
	ldr	r3, [r0, #16]
.LVL29:
	.loc 1 32 13 view .LVU100
.LBE202:
.LBE203:
.LBB204:
.LBI204:
	.file 3 "/home/g/mise-work/zmk-firmware/zmk/zephyr/include/zephyr/drivers/gpio/gpio_utils.h"
	.loc 3 54 19 is_stmt 1 view .LVU101
.LBB205:
	.loc 3 58 4 view .LVU102
	.loc 3 58 5 view .LVU103
	.loc 3 59 4 view .LVU104
	.loc 3 59 5 view .LVU105
	.loc 3 61 2 view .LVU106
.LBB206:
.LBI206:
	.file 4 "/home/g/mise-work/zmk-firmware/zmk/zephyr/include/zephyr/sys/slist.h"
	.loc 4 268 1 view .LVU107
	.loc 4 268 41 view .LVU108
.LBB207:
.LBI207:
	.loc 4 238 28 view .LVU109
.LBB208:
	.loc 4 240 2 view .LVU110
	.loc 4 240 13 is_stmt 0 view .LVU111
	ldr	r0, [r3, #4]
.LVL30:
	.loc 4 240 13 view .LVU112
.LBE208:
.LBE207:
.LBE206:
	.loc 3 61 5 view .LVU113
	cbz	r0, .L7
	.loc 3 62 3 is_stmt 1 view .LVU114
.LVL31:
.LBB209:
.LBI209:
	.loc 4 435 1 view .LVU115
.LBB210:
	.loc 4 435 67 view .LVU116
	.loc 4 435 3 view .LVU117
	.loc 4 435 22 view .LVU118
	.loc 4 435 66 view .LVU119
	.loc 4 435 39 view .LVU120
	.loc 4 435 42 is_stmt 0 view .LVU121
	cmp	r0, r1
	bne	.L9
	.loc 4 435 59 is_stmt 1 view .LVU122
.LVL32:
.LBB211:
.LBI211:
	.loc 4 408 20 view .LVU123
.LBB212:
	.loc 4 408 101 view .LVU124
	.loc 4 408 5 view .LVU125
.LBB213:
.LBI213:
	.loc 4 211 28 view .LVU126
.LBB214:
	.loc 4 213 2 view .LVU127
.LBE214:
.LBE213:
	.loc 4 408 57 is_stmt 0 view .LVU128
	ldr	r4, [r3, #8]
.LBB216:
.LBB215:
	.loc 4 213 13 view .LVU129
	ldr	r0, [r1]
.LVL33:
	.loc 4 213 13 view .LVU130
.LBE215:
.LBE216:
.LBB217:
.LBI217:
	.loc 4 221 20 is_stmt 1 view .LVU131
.LBB218:
	.loc 4 223 2 view .LVU132
	.loc 4 223 13 is_stmt 0 view .LVU133
	str	r0, [r3, #4]
.LVL34:
	.loc 4 223 13 view .LVU134
.LBE218:
.LBE217:
	.loc 4 408 54 is_stmt 1 view .LVU135
.LBB219:
.LBI219:
	.loc 4 250 28 view .LVU136
.LBB220:
	.loc 4 252 2 view .LVU137
	.loc 4 252 2 is_stmt 0 view .LVU138
.LBE220:
.LBE219:
	.loc 4 408 57 view .LVU139
	cmp	r1, r4
	bne	.L12
	.loc 4 408 95 is_stmt 1 view .LVU140
.LVL35:
.LBB221:
.LBI221:
	.loc 4 226 20 view .LVU141
.LBB222:
	.loc 4 228 2 view .LVU142
	.loc 4 228 13 is_stmt 0 view .LVU143
	str	r0, [r3, #8]
.LVL36:
.L12:
	.loc 4 228 13 view .LVU144
.LBE222:
.LBE221:
	.loc 4 408 291 is_stmt 1 view .LVU145
.LBB223:
.LBI223:
	.loc 4 216 20 view .LVU146
.LBB224:
	.loc 4 218 2 view .LVU147
	.loc 4 218 15 is_stmt 0 view .LVU148
	movs	r0, #0
	str	r0, [r1]
.LVL37:
	.loc 4 218 15 view .LVU149
.LBE224:
.LBE223:
.LBE212:
.LBE211:
.LBE210:
.LBE209:
	.loc 3 71 2 is_stmt 1 view .LVU150
	.loc 3 71 5 is_stmt 0 view .LVU151
	cbz	r2, .L16
.L15:
	.loc 3 72 3 is_stmt 1 view .LVU152
.LVL38:
.LBB240:
.LBI240:
	.loc 4 305 20 view .LVU153
.LBB241:
	.loc 4 305 78 view .LVU154
.LBB242:
.LBI242:
	.loc 4 238 28 view .LVU155
.LBB243:
	.loc 4 240 2 view .LVU156
	.loc 4 240 13 is_stmt 0 view .LVU157
	ldr	r2, [r3, #4]
.LVL39:
	.loc 4 240 13 view .LVU158
.LBE243:
.LBE242:
.LBB244:
.LBI244:
	.loc 4 216 20 is_stmt 1 view .LVU159
.LBB245:
	.loc 4 218 2 view .LVU160
	.loc 4 218 15 is_stmt 0 view .LVU161
	str	r2, [r1]
.LVL40:
	.loc 4 218 15 view .LVU162
.LBE245:
.LBE244:
	.loc 4 305 129 is_stmt 1 view .LVU163
.LBB246:
.LBI246:
	.loc 4 221 20 view .LVU164
.LBB247:
	.loc 4 223 2 view .LVU165
.LBE247:
.LBE246:
	.loc 4 305 162 is_stmt 0 view .LVU166
	ldr	r2, [r3, #8]
.LBB249:
.LBB248:
	.loc 4 223 13 view .LVU167
	str	r1, [r3, #4]
.LVL41:
	.loc 4 223 13 view .LVU168
.LBE248:
.LBE249:
	.loc 4 305 159 is_stmt 1 view .LVU169
.LBB250:
.LBI250:
	.loc 4 250 28 view .LVU170
.LBB251:
	.loc 4 252 2 view .LVU171
	.loc 4 252 2 is_stmt 0 view .LVU172
.LBE251:
.LBE250:
	.loc 4 305 162 view .LVU173
	cbnz	r2, .L16
	.loc 4 305 5 is_stmt 1 view .LVU174
.LVL42:
.LBB252:
.LBI252:
	.loc 4 226 20 view .LVU175
.LBB253:
	.loc 4 228 2 view .LVU176
	.loc 4 228 13 is_stmt 0 view .LVU177
	str	r1, [r3, #8]
.LVL43:
.L16:
	.loc 4 228 13 view .LVU178
.LBE253:
.LBE252:
.LBE241:
.LBE240:
	.loc 3 75 9 view .LVU179
	movs	r0, #0
.LVL44:
	.loc 3 75 9 view .LVU180
.LBE205:
.LBE204:
	.loc 1 290 9 view .LVU181
	b	.L6
.LVL45:
.L19:
.LBB256:
.LBB255:
.LBB254:
.LBB239:
	.loc 4 435 39 is_stmt 1 view .LVU182
	.loc 4 435 42 is_stmt 0 view .LVU183
	cmp	r1, r0
	bne	.L9
	.loc 4 435 59 is_stmt 1 view .LVU184
.LVL46:
.LBB234:
	.loc 4 408 20 view .LVU185
.LBB233:
	.loc 4 408 101 view .LVU186
	.loc 4 408 157 view .LVU187
.LBB225:
.LBI225:
	.loc 4 211 28 view .LVU188
.LBB226:
	.loc 4 213 2 view .LVU189
	.loc 4 213 13 is_stmt 0 view .LVU190
	ldr	r0, [r1]
.LVL47:
	.loc 4 213 13 view .LVU191
.LBE226:
.LBE225:
.LBB227:
.LBI227:
	.loc 4 216 20 is_stmt 1 view .LVU192
.LBB228:
	.loc 4 218 2 view .LVU193
	.loc 4 218 15 is_stmt 0 view .LVU194
	str	r0, [r4]
.LVL48:
	.loc 4 218 15 view .LVU195
.LBE228:
.LBE227:
	.loc 4 408 211 is_stmt 1 view .LVU196
.LBB229:
.LBI229:
	.loc 4 250 28 view .LVU197
.LBB230:
	.loc 4 252 2 view .LVU198
	.loc 4 252 2 is_stmt 0 view .LVU199
.LBE230:
.LBE229:
	.loc 4 408 214 view .LVU200
	ldr	r0, [r3, #8]
	cmp	r1, r0
	bne	.L12
	.loc 4 408 252 is_stmt 1 view .LVU201
.LVL49:
.LBB231:
.LBI231:
	.loc 4 226 20 view .LVU202
.LBB232:
	.loc 4 228 2 view .LVU203
	.loc 4 228 13 is_stmt 0 view .LVU204
	str	r4, [r3, #8]
	.loc 4 229 1 view .LVU205
	b	.L12
.LVL50:
.L9:
	.loc 4 229 1 view .LVU206
.LBE232:
.LBE231:
.LBE233:
.LBE234:
	.loc 4 435 5 is_stmt 1 view .LVU207
	.loc 4 435 8 view .LVU208
.LBB235:
.LBI235:
	.loc 4 292 29 view .LVU209
	.loc 4 292 70 view .LVU210
.LBB236:
.LBI236:
	.loc 4 281 29 view .LVU211
	.loc 4 281 79 view .LVU212
.LBB237:
.LBI237:
	.loc 4 211 28 view .LVU213
.LBB238:
	.loc 4 213 2 view .LVU214
	mov	r4, r0
	.loc 4 213 13 is_stmt 0 view .LVU215
	ldr	r0, [r0]
.LVL51:
	.loc 4 213 13 view .LVU216
.LBE238:
.LBE237:
.LBE236:
.LBE235:
	.loc 4 435 66 is_stmt 1 view .LVU217
	cmp	r0, #0
	bne	.L19
.LVL52:
.L7:
	.loc 4 435 66 is_stmt 0 view .LVU218
.LBE239:
.LBE254:
	.loc 3 63 4 is_stmt 1 view .LVU219
	.loc 3 63 7 is_stmt 0 view .LVU220
	cmp	r2, #0
	bne	.L15
	.loc 3 64 12 view .LVU221
	mvn	r0, #21
.LVL53:
.L6:
	.loc 3 64 12 view .LVU222
.LBE255:
.LBE256:
	.loc 1 292 1 view .LVU223
	pop	{r4, pc}
	.cfi_endproc
.LFE473:
	.size	gpio_nrfx_manage_callback, .-gpio_nrfx_manage_callback
	.section	.text.gpio_nrfx_pin_interrupt_configure,"ax",%progbits
	.align	1
	.syntax unified
	.thumb
	.thumb_func
	.type	gpio_nrfx_pin_interrupt_configure, %function
gpio_nrfx_pin_interrupt_configure:
.LVL54:
.LFB472:
	.loc 1 244 1 is_stmt 1 view -0
	.cfi_startproc
	@ args = 0, pretend = 0, frame = 16
	@ frame_needed = 0, uses_anonymous_args = 0
	.loc 1 245 2 view .LVU225
.LBB267:
.LBI267:
	.loc 1 35 43 view .LVU226
.LBB268:
	.loc 1 37 2 view .LVU227
.LBE268:
.LBE267:
	.loc 1 244 1 is_stmt 0 view .LVU228
	push	{r4, r5, lr}
	.cfi_def_cfa_offset 12
	.cfi_offset 4, -12
	.cfi_offset 5, -8
	.cfi_offset 14, -4
.LBB270:
.LBB269:
	.loc 1 37 13 view .LVU229
	ldr	r0, [r0, #4]
.LVL55:
	.loc 1 37 13 view .LVU230
.LBE269:
.LBE270:
	.loc 1 245 59 view .LVU231
	ldrb	r5, [r0, #12]	@ zero_extendqisi2
	.loc 1 245 29 view .LVU232
	and	r4, r1, #31
	.loc 1 249 5 view .LVU233
	cmp	r2, #2097152
	.loc 1 244 1 view .LVU234
	sub	sp, sp, #20
	.cfi_def_cfa_offset 32
	.loc 1 245 37 view .LVU235
	orr	r4, r4, r5, lsl #5
.LVL56:
	.loc 1 246 2 is_stmt 1 view .LVU236
	.loc 1 247 2 view .LVU237
	.loc 1 249 2 view .LVU238
	.loc 1 249 5 is_stmt 0 view .LVU239
	bne	.L25
	.loc 1 250 3 is_stmt 1 view .LVU240
	mov	r0, r4
	bl	nrfx_gpiote_trigger_disable
.LVL57:
	.loc 1 252 3 view .LVU241
.L26:
	.loc 1 252 10 is_stmt 0 view .LVU242
	movs	r0, #0
.L24:
	.loc 1 284 1 view .LVU243
	add	sp, sp, #20
	.cfi_remember_state
	.cfi_def_cfa_offset 12
	@ sp needed
	pop	{r4, r5, pc}
.LVL58:
.L25:
	.cfi_restore_state
	.loc 1 255 2 is_stmt 1 view .LVU244
	.loc 1 255 31 is_stmt 0 view .LVU245
	movs	r5, #0
.LBB271:
.LBB272:
	.loc 1 230 5 view .LVU246
	cmp	r2, #4194304
.LBE272:
.LBE271:
	.loc 1 255 31 view .LVU247
	strd	r5, r5, [sp, #8]
.LVL59:
.LBB276:
.LBI271:
	.loc 1 227 30 is_stmt 1 view .LVU248
.LBB273:
	.loc 1 230 2 view .LVU249
	.loc 1 230 5 is_stmt 0 view .LVU250
	bne	.L27
	.loc 1 231 3 is_stmt 1 view .LVU251
	.loc 1 231 62 is_stmt 0 view .LVU252
	cmp	r3, #33554432
.LVL60:
	.loc 1 231 62 view .LVU253
.LBE273:
.LBE276:
	.loc 1 255 31 view .LVU254
	ite	eq
	moveq	r3, #4
.LVL61:
	.loc 1 255 31 view .LVU255
	movne	r3, #5
	strb	r3, [sp, #8]
	.loc 1 262 2 is_stmt 1 view .LVU256
.LVL62:
.L29:
	.loc 1 276 2 view .LVU257
	.loc 1 276 8 is_stmt 0 view .LVU258
	movs	r3, #0
	mov	r1, r3
	add	r2, sp, #8
	mov	r0, r4
	bl	nrfx_gpiote_input_configure
.LVL63:
	.loc 1 277 2 is_stmt 1 view .LVU259
	.loc 1 277 5 is_stmt 0 view .LVU260
	ldr	r3, .L42
	cmp	r0, r3
	bne	.L40
	.loc 1 281 2 is_stmt 1 view .LVU261
	movs	r1, #1
	mov	r0, r4
.LVL64:
	.loc 1 281 2 is_stmt 0 view .LVU262
	bl	nrfx_gpiote_trigger_enable
.LVL65:
	.loc 1 283 2 is_stmt 1 view .LVU263
	.loc 1 283 9 is_stmt 0 view .LVU264
	b	.L26
.LVL66:
.L27:
.LBB277:
.LBB274:
	.loc 1 235 2 is_stmt 1 view .LVU265
	.loc 1 235 65 is_stmt 0 view .LVU266
	cmp	r3, #100663296
	beq	.L36
	cmp	r3, #33554432
	ite	ne
	movne	r3, #1
.LVL67:
	.loc 1 235 65 view .LVU267
	moveq	r3, #2
.L30:
.LVL68:
	.loc 1 235 65 view .LVU268
.LBE274:
.LBE277:
	.loc 1 255 31 view .LVU269
	strb	r3, [sp, #8]
	.loc 1 262 2 is_stmt 1 view .LVU270
	.loc 1 262 6 is_stmt 0 view .LVU271
	ldr	r3, [r0, #8]
	lsr	r1, r3, r1
.LVL69:
	.loc 1 262 5 view .LVU272
	ands	r1, r1, #1
	bne	.L29
	.loc 1 262 57 discriminator 1 view .LVU273
	cmp	r2, #20971520
	bne	.L29
.LVL70:
.LBB278:
.LBI278:
	.loc 2 1202 34 is_stmt 1 view .LVU274
.LBB279:
	.loc 2 1204 5 view .LVU275
.LBB280:
.LBI280:
	.loc 2 891 31 view .LVU276
.LBB281:
	.loc 2 893 7 view .LVU277
	.loc 2 893 8 view .LVU278
	.loc 2 895 5 view .LVU279
	.loc 2 897 5 view .LVU280
.LBB282:
.LBI282:
	.loc 2 1449 24 view .LVU281
.LBB283:
	.loc 2 1451 5 view .LVU282
	.loc 2 1452 5 view .LVU283
	.loc 2 1452 28 is_stmt 0 view .LVU284
	and	r3, r4, #31
.LVL71:
	.loc 2 1454 5 is_stmt 1 view .LVU285
	.loc 2 1454 5 is_stmt 0 view .LVU286
.LBE283:
.LBE282:
	.loc 2 897 5 view .LVU287
	lsrs	r2, r4, #5
.LVL72:
	.loc 2 897 5 view .LVU288
	add	r3, r3, #448
	beq	.L38
	cmp	r2, #1
	bne	.L32
	ldr	r2, .L42+4
.L31:
.LVL73:
	.loc 2 899 123 is_stmt 1 view .LVU289
	.loc 2 902 15 view .LVU290
	.loc 2 902 16 view .LVU291
	.loc 2 904 5 view .LVU292
	.loc 2 904 5 is_stmt 0 view .LVU293
.LBE281:
.LBE280:
	.loc 2 1206 5 is_stmt 1 view .LVU294
	.loc 2 1206 46 is_stmt 0 view .LVU295
	ldr	r3, [r2, r3, lsl #2]
.LVL74:
	.loc 2 1206 46 view .LVU296
.LBE279:
.LBE278:
	.loc 1 263 35 view .LVU297
	lsls	r3, r3, #31
	bmi	.L29
	.loc 1 265 3 is_stmt 1 view .LVU298
	.loc 1 265 9 is_stmt 0 view .LVU299
	add	r5, sp, #7
	mov	r1, r5
	mov	r0, r4
	bl	nrfx_gpiote_channel_get
.LVL75:
	.loc 1 266 3 is_stmt 1 view .LVU300
	.loc 1 266 6 is_stmt 0 view .LVU301
	ldr	r3, .L42+8
	cmp	r0, r3
	beq	.L33
.L35:
	.loc 1 273 3 is_stmt 1 view .LVU302
	.loc 1 273 31 is_stmt 0 view .LVU303
	str	r5, [sp, #12]
	b	.L29
.LVL76:
.L36:
.LBB290:
.LBB275:
	.loc 1 235 65 view .LVU304
	movs	r3, #3
.LVL77:
	.loc 1 235 65 view .LVU305
	b	.L30
.LVL78:
.L38:
	.loc 1 235 65 view .LVU306
.LBE275:
.LBE290:
.LBB291:
.LBB288:
.LBB286:
.LBB284:
	.loc 2 899 24 view .LVU307
	mov	r2, #1342177280
	b	.L31
.LVL79:
.L33:
	.loc 2 899 24 view .LVU308
.LBE284:
.LBE286:
.LBE288:
.LBE291:
	.loc 1 267 4 is_stmt 1 view .LVU309
	.loc 1 267 10 is_stmt 0 view .LVU310
	mov	r0, r5
.LVL80:
	.loc 1 267 10 view .LVU311
	bl	nrfx_gpiote_channel_alloc
.LVL81:
	.loc 1 268 4 is_stmt 1 view .LVU312
	.loc 1 268 7 is_stmt 0 view .LVU313
	ldr	r3, .L42
	cmp	r0, r3
	beq	.L35
	.loc 1 269 12 view .LVU314
	mvn	r0, #11
.LVL82:
	.loc 1 269 12 view .LVU315
	b	.L24
.LVL83:
.L40:
	.loc 1 278 10 view .LVU316
	mvn	r0, #21
.LVL84:
	.loc 1 278 10 view .LVU317
	b	.L24
.LVL85:
.L32:
.LBB292:
.LBB289:
.LBB287:
.LBB285:
	.loc 2 899 123 is_stmt 1 view .LVU318
	.loc 2 902 15 view .LVU319
	.loc 2 902 16 view .LVU320
	.loc 2 904 5 view .LVU321
	.loc 2 904 5 is_stmt 0 view .LVU322
.LBE285:
.LBE287:
	.loc 2 1206 5 is_stmt 1 view .LVU323
	.loc 2 1206 46 is_stmt 0 view .LVU324
	ldr	r3, [r1, r3, lsl #2]
	.inst	0xdeff
.L43:
	.align	2
.L42:
	.word	195887104
	.word	1342178048
	.word	195887108
.LBE289:
.LBE292:
	.cfi_endproc
.LFE472:
	.size	gpio_nrfx_pin_interrupt_configure, .-gpio_nrfx_pin_interrupt_configure
	.section	.text.gpio_nrfx_init,"ax",%progbits
	.align	1
	.syntax unified
	.thumb
	.thumb_func
	.type	gpio_nrfx_init, %function
gpio_nrfx_init:
.LVL86:
.LFB476:
	.loc 1 373 1 is_stmt 1 view -0
	.cfi_startproc
	@ args = 0, pretend = 0, frame = 0
	@ frame_needed = 0, uses_anonymous_args = 0
	.loc 1 374 2 view .LVU326
	.loc 1 376 2 view .LVU327
	.loc 1 373 1 is_stmt 0 view .LVU328
	push	{r4, lr}
	.cfi_def_cfa_offset 8
	.cfi_offset 4, -8
	.cfi_offset 14, -4
	.loc 1 376 6 view .LVU329
	bl	nrfx_gpiote_is_init
.LVL87:
	.loc 1 376 5 view .LVU330
	mov	r4, r0
	cbnz	r0, .L45
	.loc 1 380 2 is_stmt 1 view .LVU331
	.loc 1 380 8 is_stmt 0 view .LVU332
	bl	nrfx_gpiote_init
.LVL88:
	.loc 1 381 2 is_stmt 1 view .LVU333
	.loc 1 381 5 is_stmt 0 view .LVU334
	ldr	r3, .L48
	cmp	r0, r3
	bne	.L47
	.loc 1 386 2 is_stmt 1 view .LVU335
	ldr	r0, .L48+4
.LVL89:
	.loc 1 386 2 is_stmt 0 view .LVU336
	mov	r1, r4
	bl	nrfx_gpiote_global_callback_set
.LVL90:
.LBB293:
	.loc 1 388 4 is_stmt 1 view .LVU337
	.loc 1 388 101 view .LVU338
	.loc 1 388 278 view .LVU339
	.loc 1 388 92 view .LVU340
	mov	r2, r4
	movs	r1, #5
	movs	r0, #6
	bl	z_arm_irq_priority_set
.LVL91:
.LBE293:
	.loc 1 389 44 view .LVU341
	.loc 1 392 2 view .LVU342
.L45:
	.loc 1 377 10 is_stmt 0 view .LVU343
	movs	r0, #0
.L44:
	.loc 1 393 1 view .LVU344
	pop	{r4, pc}
.LVL92:
.L47:
	.loc 1 382 10 view .LVU345
	mvn	r0, #4
.LVL93:
	.loc 1 382 10 view .LVU346
	b	.L44
.L49:
	.align	2
.L48:
	.word	195887104
	.word	nrfx_gpio_handler
	.cfi_endproc
.LFE476:
	.size	gpio_nrfx_init, .-gpio_nrfx_init
	.section	.text.nrfx_gpio_handler,"ax",%progbits
	.align	1
	.syntax unified
	.thumb
	.thumb_func
	.type	nrfx_gpio_handler, %function
nrfx_gpio_handler:
.LVL94:
.LFB475:
	.loc 1 353 1 is_stmt 1 view -0
	.cfi_startproc
	@ args = 0, pretend = 0, frame = 0
	@ frame_needed = 0, uses_anonymous_args = 0
	.loc 1 354 2 view .LVU348
	.loc 1 355 2 view .LVU349
.LBB326:
.LBI326:
	.loc 2 1449 24 view .LVU350
.LBB327:
	.loc 2 1451 5 view .LVU351
	.loc 2 1452 5 view .LVU352
	.loc 2 1454 5 view .LVU353
	.loc 2 1454 5 is_stmt 0 view .LVU354
.LBE327:
.LBE326:
	.loc 1 356 2 is_stmt 1 view .LVU355
.LBB329:
.LBI329:
	.loc 1 333 29 view .LVU356
.LBB330:
	.loc 1 335 2 view .LVU357
	.loc 1 342 2 view .LVU358
	.loc 1 344 7 view .LVU359
	.loc 1 344 10 is_stmt 0 view .LVU360
	lsrs	r2, r0, #5
.LVL95:
	.loc 1 344 10 view .LVU361
.LBE330:
.LBE329:
	.loc 1 353 1 view .LVU362
	push	{r4, r5, r6, lr}
	.cfi_def_cfa_offset 16
	.cfi_offset 4, -16
	.cfi_offset 5, -12
	.cfi_offset 6, -8
	.cfi_offset 14, -4
	.loc 1 353 1 view .LVU363
	mov	r3, r0
.LBB334:
.LBB331:
	.loc 1 344 10 view .LVU364
	beq	.L57
	.loc 1 344 64 is_stmt 1 view .LVU365
	.loc 1 344 67 is_stmt 0 view .LVU366
	cmp	r2, #1
	beq	.L58
.LVL96:
.L50:
	.loc 1 344 67 view .LVU367
.LBE331:
.LBE334:
	.loc 1 367 1 view .LVU368
	pop	{r4, r5, r6, pc}
.LVL97:
.L57:
.LBB335:
.LBB332:
	.loc 1 344 31 view .LVU369
	ldr	r6, .L66
.L51:
.LVL98:
	.loc 1 344 31 view .LVU370
.LBE332:
.LBE335:
	.loc 1 363 2 is_stmt 1 view .LVU371
.LBB336:
.LBI336:
	.loc 1 30 38 view .LVU372
.LBB337:
	.loc 1 32 2 view .LVU373
	.loc 1 32 2 is_stmt 0 view .LVU374
.LBE337:
.LBE336:
	.loc 1 364 2 is_stmt 1 view .LVU375
	.loc 1 366 2 view .LVU376
	ldr	r2, [r6, #16]
.LVL99:
	.loc 1 366 2 is_stmt 0 view .LVU377
	ldr	r1, [r2, #4]
.LVL100:
.LBB338:
.LBI338:
	.loc 3 85 20 is_stmt 1 view .LVU378
.LBB339:
	.loc 3 89 2 view .LVU379
	.loc 3 91 2 view .LVU380
	.loc 3 91 8 is_stmt 0 view .LVU381
	cmp	r1, #0
	beq	.L50
.LBE339:
.LBE338:
.LBB355:
.LBB328:
	.loc 2 1452 28 view .LVU382
	and	r3, r3, #31
.LVL101:
	.loc 2 1452 28 view .LVU383
.LBE328:
.LBE355:
	.loc 1 366 39 view .LVU384
	movs	r5, #1
.LBB356:
.LBB352:
.LBB340:
.LBB341:
.LBB342:
.LBB343:
	.loc 4 213 13 view .LVU385
	ldr	r4, [r1]
.LBE343:
.LBE342:
.LBE341:
.LBE340:
.LBE352:
.LBE356:
	.loc 1 366 39 view .LVU386
	lsls	r5, r5, r3
.LVL102:
.LBB357:
.LBB353:
.LBB347:
.LBI340:
	.loc 4 292 29 is_stmt 1 view .LVU387
	.loc 4 292 70 view .LVU388
.LBB346:
.LBI341:
	.loc 4 281 29 view .LVU389
	.loc 4 281 79 view .LVU390
.LBB345:
.LBI342:
	.loc 4 211 28 view .LVU391
.LBB344:
	.loc 4 213 2 view .LVU392
.L53:
	.loc 4 213 2 is_stmt 0 view .LVU393
.LBE344:
.LBE345:
.LBE346:
.LBE347:
	.loc 3 91 7 is_stmt 1 view .LVU394
	cmp	r1, #0
	beq	.L50
	.loc 3 92 3 view .LVU395
	.loc 3 92 20 is_stmt 0 view .LVU396
	ldr	r2, [r1, #8]
	.loc 3 92 6 view .LVU397
	ands	r2, r5, r2
	beq	.L54
	.loc 3 93 6 is_stmt 1 view .LVU398
	.loc 3 93 7 view .LVU399
	.loc 3 94 4 view .LVU400
	ldr	r3, [r1, #4]
	mov	r0, r6
	blx	r3
.LVL103:
.L54:
	.loc 3 91 11 view .LVU401
	.loc 3 91 3 is_stmt 0 view .LVU402
	cbz	r4, .L59
.LVL104:
.LBB348:
.LBI348:
	.loc 4 292 29 is_stmt 1 view .LVU403
	.loc 4 292 70 view .LVU404
.LBB349:
.LBI349:
	.loc 4 281 29 view .LVU405
	.loc 4 281 79 view .LVU406
.LBB350:
.LBI350:
	.loc 4 211 28 view .LVU407
.LBB351:
	.loc 4 213 2 view .LVU408
	.loc 4 213 13 is_stmt 0 view .LVU409
	ldr	r3, [r4]
.LVL105:
.L55:
	.loc 4 213 13 view .LVU410
.LBE351:
.LBE350:
.LBE349:
.LBE348:
	.loc 3 91 3 view .LVU411
	mov	r1, r4
	mov	r4, r3
.LVL106:
	.loc 3 91 3 view .LVU412
	b	.L53
.LVL107:
.L58:
	.loc 3 91 3 view .LVU413
.LBE353:
.LBE357:
.LBB358:
.LBB333:
	.loc 1 344 88 view .LVU414
	ldr	r6, .L66+4
	b	.L51
.LVL108:
.L59:
	.loc 1 344 88 view .LVU415
.LBE333:
.LBE358:
.LBB359:
.LBB354:
	.loc 3 91 3 view .LVU416
	mov	r3, r4
	b	.L55
.L67:
	.align	2
.L66:
	.word	__device_dts_ord_15
	.word	__device_dts_ord_19
.LBE354:
.LBE359:
	.cfi_endproc
.LFE475:
	.size	nrfx_gpio_handler, .-nrfx_gpio_handler
	.section	.text.gpio_nrfx_pin_configure,"ax",%progbits
	.align	1
	.syntax unified
	.thumb
	.thumb_func
	.type	gpio_nrfx_pin_configure, %function
gpio_nrfx_pin_configure:
.LVL109:
.LFB465:
	.loc 1 87 1 is_stmt 1 view -0
	.cfi_startproc
	@ args = 0, pretend = 0, frame = 16
	@ frame_needed = 0, uses_anonymous_args = 0
	.loc 1 88 2 view .LVU418
	.loc 1 89 2 view .LVU419
	.loc 1 90 1 view .LVU420
	.loc 1 91 2 view .LVU421
.LBB374:
.LBI374:
	.loc 1 35 43 view .LVU422
.LBB375:
	.loc 1 37 2 view .LVU423
.LBE375:
.LBE374:
	.loc 1 87 1 is_stmt 0 view .LVU424
	push	{r0, r1, r2, r3, r4, r5, r6, r7, r8, lr}
	.cfi_def_cfa_offset 40
	.cfi_offset 4, -24
	.cfi_offset 5, -20
	.cfi_offset 6, -16
	.cfi_offset 7, -12
	.cfi_offset 8, -8
	.cfi_offset 14, -4
.LBB377:
.LBB376:
	.loc 1 37 13 view .LVU425
	ldr	r7, [r0, #4]
.LVL110:
	.loc 1 37 13 view .LVU426
.LBE376:
.LBE377:
	.loc 1 92 2 is_stmt 1 view .LVU427
	.loc 1 92 53 is_stmt 0 view .LVU428
	ldrb	r3, [r7, #12]	@ zero_extendqisi2
	.loc 1 92 38 view .LVU429
	and	r5, r1, #31
	.loc 1 92 46 view .LVU430
	orr	r5, r5, r3, lsl #5
.LVL111:
	.loc 1 97 2 is_stmt 1 view .LVU431
	.loc 1 98 3 view .LVU432
	.loc 1 87 1 is_stmt 0 view .LVU433
	mov	r6, r1
	.loc 1 98 9 view .LVU434
	mov	r0, r5
.LVL112:
	.loc 1 98 9 view .LVU435
	add	r1, sp, #7
.LVL113:
	.loc 1 87 1 view .LVU436
	mov	r4, r2
	.loc 1 98 9 view .LVU437
	bl	nrfx_gpiote_channel_get
.LVL114:
	.loc 1 102 5 view .LVU438
	tst	r4, #196608
	.loc 1 98 9 view .LVU439
	mov	r8, r0
.LVL115:
	.loc 1 99 3 is_stmt 1 view .LVU440
	.loc 1 102 2 view .LVU441
	.loc 1 102 5 is_stmt 0 view .LVU442
	bne	.L69
	.loc 1 104 3 is_stmt 1 view .LVU443
	.loc 1 104 9 is_stmt 0 view .LVU444
	mov	r0, r5
.LVL116:
	.loc 1 104 9 view .LVU445
	bl	nrfx_gpiote_pin_uninit
.LVL117:
	.loc 1 106 3 is_stmt 1 view .LVU446
	.loc 1 106 6 is_stmt 0 view .LVU447
	ldr	r3, .L101
	cmp	r8, r3
	bne	.L99
	.loc 1 107 4 is_stmt 1 view .LVU448
	.loc 1 107 10 is_stmt 0 view .LVU449
	ldrb	r0, [sp, #7]	@ zero_extendqisi2
	bl	nrfx_gpiote_channel_free
.LVL118:
.L99:
.LBB378:
	.loc 1 155 41 view .LVU450
	movs	r0, #0
.L68:
.LBE378:
	.loc 1 165 1 view .LVU451
	add	sp, sp, #16
	.cfi_remember_state
	.cfi_def_cfa_offset 24
	@ sp needed
	pop	{r4, r5, r6, r7, r8, pc}
.LVL119:
.L69:
	.cfi_restore_state
	.loc 1 114 2 is_stmt 1 view .LVU452
.LBB393:
	.loc 1 115 3 view .LVU453
	.loc 1 115 32 is_stmt 0 view .LVU454
	movs	r3, #0
	.loc 1 120 9 view .LVU455
	mov	r1, r3
	add	r2, sp, #8
	mov	r0, r5
.LVL120:
	.loc 1 115 32 view .LVU456
	strd	r3, r3, [sp, #8]
	.loc 1 120 3 is_stmt 1 view .LVU457
	.loc 1 120 9 is_stmt 0 view .LVU458
	bl	nrfx_gpiote_input_configure
.LVL121:
	.loc 1 121 3 is_stmt 1 view .LVU459
	.loc 1 121 6 is_stmt 0 view .LVU460
	ldr	r3, .L101
	cmp	r0, r3
	bne	.L74
	.loc 1 125 3 is_stmt 1 view .LVU461
	.loc 1 125 6 is_stmt 0 view .LVU462
	cmp	r8, r0
	bne	.L75
	.loc 1 126 4 is_stmt 1 view .LVU463
	.loc 1 126 10 is_stmt 0 view .LVU464
	ldrb	r0, [sp, #7]	@ zero_extendqisi2
.LVL122:
	.loc 1 126 10 view .LVU465
	bl	nrfx_gpiote_channel_free
.LVL123:
.L75:
	.loc 1 127 6 is_stmt 1 view .LVU466
	.loc 1 127 7 view .LVU467
.LBE393:
	.loc 1 131 2 view .LVU468
	.loc 1 131 5 is_stmt 0 view .LVU469
	lsls	r3, r4, #14
	bpl	.L76
.LBB394:
	.loc 1 132 3 is_stmt 1 view .LVU470
	.loc 1 133 3 view .LVU471
.LVL124:
.LBB379:
.LBI379:
	.loc 1 40 12 view .LVU472
.LBB380:
	.loc 1 42 2 view .LVU473
	.loc 1 42 16 is_stmt 0 view .LVU474
	movw	r3, #774
	ands	r3, r3, r4
	.loc 1 42 2 view .LVU475
	cmp	r3, #262
	beq	.L86
	bhi	.L78
	cmp	r3, #6
	beq	.L77
	bhi	.L79
	cbz	r3, .L77
	cmp	r3, #2
	beq	.L89
.LVL125:
.L74:
	.loc 1 42 2 view .LVU476
.LBE380:
.LBE379:
.LBE394:
.LBB395:
	.loc 1 122 11 view .LVU477
	mvn	r0, #21
	b	.L68
.LVL126:
.L79:
	.loc 1 122 11 view .LVU478
.LBE395:
.LBB396:
.LBB383:
.LBB381:
	.loc 1 42 2 view .LVU479
	cmp	r3, #256
	bne	.L74
	.loc 1 50 10 view .LVU480
	movs	r3, #1
	b	.L77
.L78:
	.loc 1 42 2 view .LVU481
	movw	r2, #514
	cmp	r3, r2
	beq	.L91
	cmp	r3, #768
	beq	.L92
	cmp	r3, #512
	bne	.L74
	.loc 1 47 10 view .LVU482
	movs	r3, #2
	b	.L77
.L86:
	.loc 1 59 10 view .LVU483
	movs	r3, #7
.L77:
.LVL127:
	.loc 1 59 10 view .LVU484
.LBE381:
.LBE383:
	.loc 1 139 3 is_stmt 1 view .LVU485
	.loc 1 139 31 is_stmt 0 view .LVU486
	strb	r3, [sp, #8]
	.loc 1 142 32 view .LVU487
	eor	r3, r4, #65536
	ubfx	r3, r3, #16, #1
.LBB384:
.LBB385:
	.loc 1 76 5 view .LVU488
	lsls	r0, r4, #27
.LBE385:
.LBE384:
	.loc 1 139 31 view .LVU489
	strb	r3, [sp, #9]
.LVL128:
.LBB387:
.LBI384:
	.loc 1 74 28 is_stmt 1 view .LVU490
.LBB386:
	.loc 1 76 2 view .LVU491
	.loc 1 78 9 view .LVU492
	.loc 1 78 12 is_stmt 0 view .LVU493
	ite	pl
	ubfxpl	r3, r4, #5, #1
	.loc 1 77 10 view .LVU494
	movmi	r3, #3
.LVL129:
	.loc 1 77 10 view .LVU495
.LBE386:
.LBE387:
	.loc 1 148 6 view .LVU496
	lsls	r1, r4, #12
	.loc 1 139 31 view .LVU497
	strb	r3, [sp, #10]
	.loc 1 148 3 is_stmt 1 view .LVU498
	.loc 1 148 6 is_stmt 0 view .LVU499
	bpl	.L83
	.loc 1 149 4 is_stmt 1 view .LVU500
	.loc 1 149 29 is_stmt 0 view .LVU501
	ldr	r2, [r7, #4]
	.loc 1 149 42 view .LVU502
	movs	r3, #1
	lsls	r3, r3, r6
.LVL130:
.LBB388:
.LBI388:
	.loc 2 1269 20 is_stmt 1 view .LVU503
.LBB389:
	.loc 2 1271 5 view .LVU504
	.loc 2 1271 19 is_stmt 0 view .LVU505
	str	r3, [r2, #1288]
.LVL131:
.L84:
	.loc 2 1271 19 view .LVU506
.LBE389:
.LBE388:
	.loc 1 154 3 is_stmt 1 view .LVU507
	.loc 1 154 9 is_stmt 0 view .LVU508
	movs	r2, #0
	add	r1, sp, #8
	mov	r0, r5
	bl	nrfx_gpiote_output_configure
.LVL132:
.L100:
	.loc 1 154 9 view .LVU509
.LBE396:
	.loc 1 164 2 is_stmt 1 view .LVU510
	.loc 1 164 40 is_stmt 0 view .LVU511
	ldr	r3, .L101
	cmp	r0, r3
	beq	.L99
	b	.L74
.LVL133:
.L89:
.LBB397:
.LBB390:
.LBB382:
	.loc 1 62 10 view .LVU512
	movs	r3, #4
	b	.L77
.L91:
	.loc 1 65 10 view .LVU513
	movs	r3, #5
	b	.L77
.L92:
	.loc 1 42 2 view .LVU514
	movs	r3, #3
	b	.L77
.LVL134:
.L83:
	.loc 1 42 2 view .LVU515
.LBE382:
.LBE390:
	.loc 1 150 10 is_stmt 1 view .LVU516
	.loc 1 150 13 is_stmt 0 view .LVU517
	lsls	r2, r4, #13
	.loc 1 151 4 is_stmt 1 view .LVU518
	.loc 1 151 44 is_stmt 0 view .LVU519
	itttt	mi
	movmi	r3, #1
	.loc 1 151 31 view .LVU520
	ldrmi	r2, [r7, #4]
	.loc 1 151 44 view .LVU521
	lslmi	r3, r3, r6
.LVL135:
.LBB391:
.LBI391:
	.loc 2 1275 20 is_stmt 1 view .LVU522
.LBB392:
	.loc 2 1277 5 view .LVU523
	.loc 2 1277 19 is_stmt 0 view .LVU524
	strmi	r3, [r2, #1292]
	.loc 2 1278 1 view .LVU525
	b	.L84
.LVL136:
.L76:
	.loc 2 1278 1 view .LVU526
.LBE392:
.LBE391:
.LBE397:
	.loc 1 158 2 is_stmt 1 view .LVU527
.LBB398:
.LBI398:
	.loc 1 74 28 view .LVU528
.LBB399:
	.loc 1 76 2 view .LVU529
	.loc 1 76 5 is_stmt 0 view .LVU530
	lsls	r3, r4, #27
	.loc 1 78 9 is_stmt 1 view .LVU531
.LBE399:
.LBE398:
	.loc 1 162 8 is_stmt 0 view .LVU532
	mov	r3, #0
.LBB401:
.LBB400:
	.loc 1 78 12 view .LVU533
	ite	pl
	ubfxpl	r4, r4, #5, #1
.LVL137:
	.loc 1 77 10 view .LVU534
	movmi	r4, #3
.LVL138:
	.loc 1 77 10 view .LVU535
.LBE400:
.LBE401:
	.loc 1 162 8 view .LVU536
	mov	r2, r3
	add	r1, sp, #8
	mov	r0, r5
	.loc 1 158 29 view .LVU537
	strb	r4, [sp, #8]
	.loc 1 162 2 is_stmt 1 view .LVU538
	.loc 1 162 8 is_stmt 0 view .LVU539
	bl	nrfx_gpiote_input_configure
.LVL139:
	b	.L100
.L102:
	.align	2
.L101:
	.word	195887104
	.cfi_endproc
.LFE465:
	.size	gpio_nrfx_pin_configure, .-gpio_nrfx_pin_configure
	.section	.z_init_PRE_KERNEL_140_00019_,"a"
	.align	2
	.type	__init___device_dts_ord_19, %object
	.size	__init___device_dts_ord_19, 8
__init___device_dts_ord_19:
	.word	gpio_nrfx_init
	.word	__device_dts_ord_19
	.global	__device_dts_ord_19
	.section	.rodata.str1.1,"aMS",%progbits,1
.LC0:
	.ascii	"gpio@50000300\000"
	.section	._device.static.1_40_,"a"
	.align	2
	.type	__device_dts_ord_19, %object
	.size	__device_dts_ord_19, 24
__device_dts_ord_19:
	.word	.LC0
	.word	gpio_nrfx_p1_cfg
	.word	gpio_nrfx_drv_api_funcs
	.word	__devstate_dts_ord_19
	.word	gpio_nrfx_p1_data
	.word	0
	.section	.z_devstate,"aw"
	.type	__devstate_dts_ord_19, %object
	.size	__devstate_dts_ord_19, 2
__devstate_dts_ord_19:
	.space	2
	.section	.bss.gpio_nrfx_p1_data,"aw",%nobits
	.align	2
	.type	gpio_nrfx_p1_data, %object
	.size	gpio_nrfx_p1_data, 12
gpio_nrfx_p1_data:
	.space	12
	.section	.rodata.gpio_nrfx_p1_cfg,"a"
	.align	2
	.type	gpio_nrfx_p1_cfg, %object
	.size	gpio_nrfx_p1_cfg, 16
gpio_nrfx_p1_cfg:
	.word	65535
	.word	1342178048
	.word	0
	.byte	1
	.space	3
	.section	.z_init_PRE_KERNEL_140_00015_,"a"
	.align	2
	.type	__init___device_dts_ord_15, %object
	.size	__init___device_dts_ord_15, 8
__init___device_dts_ord_15:
	.word	gpio_nrfx_init
	.word	__device_dts_ord_15
	.global	__device_dts_ord_15
	.section	.rodata.str1.1
.LC1:
	.ascii	"gpio@50000000\000"
	.section	._device.static.1_40_
	.align	2
	.type	__device_dts_ord_15, %object
	.size	__device_dts_ord_15, 24
__device_dts_ord_15:
	.word	.LC1
	.word	gpio_nrfx_p0_cfg
	.word	gpio_nrfx_drv_api_funcs
	.word	__devstate_dts_ord_15
	.word	gpio_nrfx_p0_data
	.word	0
	.section	.z_devstate
	.type	__devstate_dts_ord_15, %object
	.size	__devstate_dts_ord_15, 2
__devstate_dts_ord_15:
	.space	2
	.section	.bss.gpio_nrfx_p0_data,"aw",%nobits
	.align	2
	.type	gpio_nrfx_p0_data, %object
	.size	gpio_nrfx_p0_data, 12
gpio_nrfx_p0_data:
	.space	12
	.section	.rodata.gpio_nrfx_p0_cfg,"a"
	.align	2
	.type	gpio_nrfx_p0_cfg, %object
	.size	gpio_nrfx_p0_cfg, 16
gpio_nrfx_p0_cfg:
	.word	-1
	.word	1342177280
	.word	0
	.byte	0
	.space	3
	.section	.rodata.gpio_nrfx_drv_api_funcs,"a"
	.align	2
	.type	gpio_nrfx_drv_api_funcs, %object
	.size	gpio_nrfx_drv_api_funcs, 36
gpio_nrfx_drv_api_funcs:
	.word	gpio_nrfx_pin_configure
	.word	gpio_nrfx_port_get_raw
	.word	gpio_nrfx_port_set_masked_raw
	.word	gpio_nrfx_port_set_bits_raw
	.word	gpio_nrfx_port_clear_bits_raw
	.word	gpio_nrfx_port_toggle_bits
	.word	gpio_nrfx_pin_interrupt_configure
	.word	gpio_nrfx_manage_callback
	.space	4
	.section	.intList,"aw"
	.align	2
	.type	__isr_nrfx_isr_irq_0.0, %object
	.size	__isr_nrfx_isr_irq_0.0, 16
__isr_nrfx_isr_irq_0.0:
	.word	6
	.word	0
	.word	nrfx_isr
	.word	nrfx_gpiote_0_irq_handler
	.text
.Letext0:
	.file 5 "/home/g/zephyr-sdk-0.16.3/arm-zephyr-eabi/picolibc/include/machine/_default_types.h"
	.file 6 "/home/g/zephyr-sdk-0.16.3/arm-zephyr-eabi/picolibc/include/sys/_stdint.h"
	.file 7 "/home/g/mise-work/zmk-firmware/zmk/modules/hal/nordic/nrfx/mdk/nrf52840.h"
	.file 8 "/home/g/mise-work/zmk-firmware/zmk/zephyr/include/zephyr/sw_isr_table.h"
	.file 9 "/home/g/mise-work/zmk-firmware/zmk/modules/hal/nordic/nrfx/drivers/nrfx_errors.h"
	.file 10 "/home/g/mise-work/zmk-firmware/zmk/modules/hal/nordic/nrfx/hal/nrf_gpiote.h"
	.file 11 "/home/g/mise-work/zmk-firmware/zmk/modules/hal/nordic/nrfx/drivers/include/nrfx_gpiote.h"
	.file 12 "/home/g/mise-work/zmk-firmware/zmk/zephyr/include/zephyr/init.h"
	.file 13 "/home/g/mise-work/zmk-firmware/zmk/zephyr/include/zephyr/device.h"
	.file 14 "/home/g/mise-work/zmk-firmware/zmk/zephyr/include/zephyr/drivers/gpio.h"
	.file 15 "/home/g/mise-work/zmk-firmware/zmk/zephyr/include/zephyr/fatal_types.h"
	.file 16 "/home/g/mise-work/zmk-firmware/zmk/zephyr/modules/hal_nordic/nrfx/./nrfx_glue.h"
	.file 17 "/home/g/mise-work/zmk-firmware/zmk/zephyr/include/zephyr/arch/arm/irq.h"