	.cpu cortex-m4
	.arch armv7e-m
	.fpu fpv4-sp-d16
	.eabi_attribute 27, 1
	.eabi_attribute 28, 1
	.eabi_attribute 20, 1
	.eabi_attribute 21, 1
	.eabi_attribute 23, 3
	.eabi_attribute 24, 1
	.eabi_attribute 25, 1
	.eabi_attribute 26, 1
	.eabi_attribute 30, 4
	.eabi_attribute 34, 1
	.eabi_attribute 38, 1
	.eabi_attribute 18, 4
	.file	"arm_mpu.c"
	.text
.Ltext0:
	.cfi_sections	.debug_frame
	.file 1 "/home/g/mise-work/zmk-firmware/zmk/zephyr/arch/arm/core/mpu/arm_mpu.c"
	.section	.text.region_init,"ax",%progbits
	.align	1
	.syntax unified
	.thumb
	.thumb_func
	.type	region_init, %function
region_init:
.LVL0:
.LFB513:
	.file 2 "/home/g/mise-work/zmk-firmware/zmk/zephyr/arch/arm/core/mpu/arm_mpu_v7_internal.h"
	.loc 2 31 1 view -0
	.cfi_startproc
	@ args = 0, pretend = 0, frame = 0
	@ frame_needed = 0, uses_anonymous_args = 0
	@ link register save eliminated.
	.loc 2 33 2 view .LVU1
.LBB265:
.LBI265:
	.file 3 "/home/g/mise-work/zmk-firmware/zmk/zephyr/arch/arm/core/mpu/cortex_m/arm_mpu_internal.h"
	.loc 3 32 20 view .LVU2
.LBB266:
	.loc 3 34 2 view .LVU3
	.loc 3 34 51 is_stmt 0 view .LVU4
	ldr	r2, .L2
	str	r0, [r2, #152]
.LVL1:
	.loc 3 34 51 view .LVU5
.LBE266:
.LBE265:
	.loc 2 47 2 is_stmt 1 view .LVU6
	.loc 2 47 73 is_stmt 0 view .LVU7
	ldr	r3, [r1]
	bic	r3, r3, #31
	.loc 2 48 19 view .LVU8
	orrs	r3, r3, r0
	orr	r3, r3, #16
	.loc 2 47 52 view .LVU9
	str	r3, [r2, #156]
	.loc 2 49 2 is_stmt 1 view .LVU10
	.loc 2 49 77 is_stmt 0 view .LVU11
	ldr	r3, [r1, #8]
	orr	r3, r3, #1
	.loc 2 49 52 view .LVU12
	str	r3, [r2, #160]
	.loc 2 50 2 is_stmt 1 view .LVU13
.LBB267:
	.loc 2 50 7 view .LVU14
.LBE267:
	.loc 2 50 5 view .LVU15
	.loc 2 53 1 is_stmt 0 view .LVU16
	bx	lr
.L3:
	.align	2
.L2:
	.word	-536810240
	.cfi_endproc
.LFE513:
	.size	region_init, .-region_init
	.section	.text.size_to_mpu_rasr_size,"ax",%progbits
	.align	1
	.syntax unified
	.thumb
	.thumb_func
	.type	size_to_mpu_rasr_size, %function
size_to_mpu_rasr_size:
.LVL2:
.LFB515:
	.loc 2 89 1 is_stmt 1 view -0
	.cfi_startproc
	@ args = 0, pretend = 0, frame = 0
	@ frame_needed = 0, uses_anonymous_args = 0
	@ link register save eliminated.
	.loc 2 91 2 view .LVU18
	.loc 2 91 5 is_stmt 0 view .LVU19
	cmp	r0, #32
	bls	.L6
	.loc 2 100 2 is_stmt 1 view .LVU20
	.loc 2 100 5 is_stmt 0 view .LVU21
	cmp	r0, #-2147483648
	bhi	.L7
.LVL3:
.LBB270:
.LBI270:
	.loc 2 88 24 is_stmt 1 view .LVU22
.LBB271:
	.loc 2 104 2 view .LVU23
	.loc 2 104 16 is_stmt 0 view .LVU24
	subs	r0, r0, #1
.LVL4:
	.loc 2 104 16 view .LVU25
	clz	r0, r0
.LVL5:
	.loc 2 104 45 view .LVU26
	rsb	r0, r0, #31
	.loc 2 104 50 view .LVU27
	lsls	r0, r0, #1
.LVL6:
	.loc 2 104 50 view .LVU28
	bx	lr
.LVL7:
.L6:
	.loc 2 104 50 view .LVU29
.LBE271:
.LBE270:
	.loc 2 92 10 view .LVU30
	movs	r0, #8
.LVL8:
	.loc 2 92 10 view .LVU31
	bx	lr
.LVL9:
.L7:
	.loc 2 101 10 view .LVU32
	movs	r0, #62
.LVL10:
	.loc 2 106 1 view .LVU33
	bx	lr
	.cfi_endproc
.LFE515:
	.size	size_to_mpu_rasr_size, .-size_to_mpu_rasr_size
	.section	.rodata.region_allocate_and_init.part.0.str1.1,"aMS",%progbits,1
.LC0:
	.ascii	"Failed to allocate new MPU region %u\012\000"
	.section	.text.region_allocate_and_init.part.0,"ax",%progbits
	.align	1
	.syntax unified
	.thumb
	.thumb_func
	.type	region_allocate_and_init.part.0, %function
region_allocate_and_init.part.0:
.LVL11:
.LFB528:
	.loc 1 67 12 is_stmt 1 view -0
	.cfi_startproc
	@ args = 0, pretend = 0, frame = 0
	@ frame_needed = 1, uses_anonymous_args = 0
	.loc 1 74 3 view .LVU35
.LBB305:
	.loc 1 74 8 view .LVU36
	.loc 1 74 57 view .LVU37
	.loc 1 74 14 view .LVU38
	.loc 1 74 2 view .LVU39
	.loc 1 74 41 view .LVU40
	.loc 1 74 176 view .LVU41
	.loc 1 74 187 view .LVU42
	.loc 1 74 275 view .LVU43
.LBB306:
	.loc 1 74 3 view .LVU44
	.loc 1 74 5 view .LVU45
	.loc 1 74 3 view .LVU46
.LBB307:
	.loc 1 74 8 view .LVU47
	.loc 1 74 2 view .LVU48
.LBE307:
.LBE306:
.LBE305:
	.loc 1 74 3 view .LVU49
	.loc 1 74 12 view .LVU50
	.loc 1 74 107 view .LVU51
	.loc 1 74 3 view .LVU52
.LBB330:
.LBB326:
.LBB321:
	.loc 1 74 12 view .LVU53
	.loc 1 74 102 view .LVU54
	.loc 1 74 104 view .LVU55
.LBB308:
	.loc 1 74 109 view .LVU56
	.loc 1 74 120 view .LVU57
	.loc 1 74 209 view .LVU58
	.loc 1 74 26 view .LVU59
.LBE308:
.LBE321:
.LBE326:
.LBE330:
	.loc 1 74 3 view .LVU60
	.loc 1 74 368 view .LVU61
	.loc 1 74 75 view .LVU62
	.loc 1 74 2 view .LVU63
	.loc 1 74 2 view .LVU64
	.loc 1 74 2 view .LVU65
	.loc 1 74 38 view .LVU66
	.loc 1 74 4 view .LVU67
	.loc 1 74 30 view .LVU68
	.loc 1 74 56 view .LVU69
	.loc 1 74 523 view .LVU70
	.loc 1 74 585 view .LVU71
	.loc 1 74 1106 view .LVU72
	.loc 1 74 1171 view .LVU73
	.loc 1 74 1196 view .LVU74
	.loc 1 74 1197 view .LVU75
	.loc 1 74 1199 view .LVU76
	.loc 1 74 1229 view .LVU77
	.loc 1 74 1259 view .LVU78
	.loc 1 74 1291 view .LVU79
	.loc 1 74 1323 view .LVU80
	.loc 1 74 1355 view .LVU81
	.loc 1 74 1552 view .LVU82
	.loc 1 74 1576 view .LVU83
	.loc 1 74 1577 view .LVU84
	.loc 1 74 1579 view .LVU85
	.loc 1 74 1608 view .LVU86
	.loc 1 74 1637 view .LVU87
	.loc 1 74 1668 view .LVU88
	.loc 1 74 1699 view .LVU89
	.loc 1 74 1730 view .LVU90
	.loc 1 74 1937 view .LVU91
	.loc 1 74 4 view .LVU92
	.loc 1 74 22 view .LVU93
	.loc 1 74 42 view .LVU94
	.loc 1 74 4 view .LVU95
	.loc 1 74 42 view .LVU96
	.loc 1 74 13 view .LVU97
	.loc 1 74 13 view .LVU98
	.loc 1 74 61 view .LVU99
	.loc 1 74 92 view .LVU100
	.loc 1 74 126 view .LVU101
	.loc 1 74 131 view .LVU102
	.loc 1 74 393 view .LVU103
	.loc 1 74 1494 view .LVU104
	.loc 1 74 1559 view .LVU105
	.loc 1 74 1583 view .LVU106
	.loc 1 74 1649 view .LVU107
	.loc 1 74 1660 view .LVU108
	.loc 1 74 1784 view .LVU109
	.loc 1 74 1800 view .LVU110
	.loc 1 74 1840 view .LVU111
	.loc 1 74 1865 view .LVU112
	.loc 1 74 3178 view .LVU113
	.loc 1 74 3219 view .LVU114
	.loc 1 74 7 view .LVU115
	.loc 1 74 30 view .LVU116
	.loc 1 74 129 view .LVU117
	.loc 1 74 6 view .LVU118
	.loc 1 74 11 view .LVU119
	.loc 1 74 236 view .LVU120
	.loc 1 74 1189 view .LVU121
	.loc 1 74 1254 view .LVU122
	.loc 1 74 1278 view .LVU123
	.loc 1 74 1307 view .LVU124
	.loc 1 74 1318 view .LVU125
	.loc 1 74 1405 view .LVU126
	.loc 1 74 1421 view .LVU127
	.loc 1 74 1461 view .LVU128
	.loc 1 74 2725 view .LVU129
	.loc 1 74 2766 view .LVU130
	.loc 1 74 7 view .LVU131
	.loc 1 74 30 view .LVU132
	.loc 1 74 9 view .LVU133
	.loc 1 74 5 view .LVU134
	.loc 1 74 28 view .LVU135
	.loc 1 74 52 view .LVU136
	.loc 1 74 80 view .LVU137
	.loc 1 74 256 view .LVU138
	.loc 1 74 16 view .LVU139
.LBB331:
.LBB327:
.LBB322:
.LBB317:
	.loc 1 74 29 view .LVU140
	.loc 1 74 3 view .LVU141
	.loc 1 74 3 view .LVU142
	.loc 1 74 70 view .LVU143
	.loc 1 74 70 is_stmt 0 view .LVU144
.LBE317:
.LBE322:
.LBE327:
.LBE331:
	.loc 1 67 12 view .LVU145
	push	{r7, lr}
	.cfi_def_cfa_offset 8
	.cfi_offset 7, -8
	.cfi_offset 14, -4
	add	r7, sp, #0
	.cfi_def_cfa_register 7
.LBB332:
.LBB328:
.LBB323:
.LBB318:
	.loc 1 74 82 view .LVU146
	sub	sp, sp, #32
	mov	r2, sp
.LVL12:
	.loc 1 74 74 is_stmt 1 view .LVU147
	.loc 1 74 484 view .LVU148
	.loc 1 74 5 view .LVU149
	.loc 1 74 7 view .LVU150
	.loc 1 74 12 view .LVU151
	.loc 1 74 10 view .LVU152
	.loc 1 74 5 view .LVU153
	.loc 1 74 23 view .LVU154
.LBB309:
	.loc 1 74 3 view .LVU155
	.loc 1 74 368 view .LVU156
	.loc 1 74 75 view .LVU157
.LVL13:
	.loc 1 74 2 view .LVU158
	.loc 1 74 2 view .LVU159
	.loc 1 74 2 view .LVU160
	.loc 1 74 38 view .LVU161
	.loc 1 74 67 view .LVU162
	.loc 1 74 93 view .LVU163
	.loc 1 74 119 view .LVU164
	.loc 1 74 586 view .LVU165
	.loc 1 74 648 view .LVU166
	.loc 1 74 1169 view .LVU167
	.loc 1 74 1234 view .LVU168
	.loc 1 74 1259 view .LVU169
	.loc 1 74 1260 view .LVU170
	.loc 1 74 1262 view .LVU171
	.loc 1 74 1292 view .LVU172
	.loc 1 74 1322 view .LVU173
	.loc 1 74 1354 view .LVU174
	.loc 1 74 1386 view .LVU175
	.loc 1 74 1418 view .LVU176
	.loc 1 74 1615 view .LVU177
	.loc 1 74 1639 view .LVU178
	.loc 1 74 1640 view .LVU179
	.loc 1 74 1642 view .LVU180
	.loc 1 74 1671 view .LVU181
	.loc 1 74 1700 view .LVU182
	.loc 1 74 1731 view .LVU183
	.loc 1 74 1762 view .LVU184
	.loc 1 74 1793 view .LVU185
	.loc 1 74 2000 view .LVU186
.LBB310:
	.loc 1 74 3216 view .LVU187
	.loc 1 74 3221 view .LVU188
	.loc 1 74 3887 view .LVU189
	.loc 1 74 0 is_stmt 0 view .LVU190
	ldr	r3, .L9
.LBE310:
.LBE309:
.LBE318:
.LBE323:
	.loc 1 74 17 view .LVU191
	strd	r3, r0, [r2, #20]
.LBB324:
.LBB319:
.LBB313:
.LBB311:
	.loc 1 74 2766 is_stmt 1 view .LVU192
	.loc 1 74 7 view .LVU193
.LVL14:
	.loc 1 74 30 view .LVU194
	.loc 1 74 30 is_stmt 0 view .LVU195
.LBE311:
	.loc 1 74 9 is_stmt 1 view .LVU196
	.loc 1 74 5 view .LVU197
	.loc 1 74 28 view .LVU198
	.loc 1 74 52 view .LVU199
	.loc 1 74 80 view .LVU200
.LBE313:
.LBE319:
.LBE324:
.LBE328:
.LBE332:
	.loc 1 74 6 view .LVU201
	.loc 1 74 45 view .LVU202
	.loc 1 74 50 view .LVU203
	.loc 1 74 80 view .LVU204
	.loc 1 74 147 view .LVU205
	.loc 1 74 152 view .LVU206
	.loc 1 74 182 view .LVU207
.LBB333:
.LBB329:
.LBB325:
.LBB320:
.LBB314:
	.loc 1 74 256 view .LVU208
	.loc 1 74 16 view .LVU209
.LBB312:
	.loc 1 74 6 view .LVU210
	.loc 1 74 164 view .LVU211
	.loc 1 74 166 view .LVU212
	.loc 1 74 176 is_stmt 0 view .LVU213
	movs	r3, #3
	str	r3, [r2, #16]!
.LVL15:
	.loc 1 74 176 view .LVU214
.LBE312:
.LBE314:
	.loc 1 74 26 is_stmt 1 view .LVU215
	.loc 1 74 7 view .LVU216
	.loc 1 74 147 view .LVU217
	.loc 1 74 149 view .LVU218
.LBB315:
.LBI315:
	.file 4 "/home/g/mise-work/zmk-firmware/zmk/app/build/zephyr/include/generated/syscalls/log_msg.h"
	.loc 4 26 20 view .LVU219
.LBB316:
	.loc 4 38 2 view .LVU220
	.loc 4 38 7 view .LVU221
	.loc 4 38 5 view .LVU222
	.loc 4 39 2 view .LVU223
	ldr	r0, .L9+4
.LVL16:
	.loc 4 39 2 is_stmt 0 view .LVU224
	movs	r3, #0
	mov	r1, #6208
	bl	z_impl_z_log_msg_static_create
.LVL17:
	.loc 4 39 2 view .LVU225
.LBE316:
.LBE315:
.LBE320:
	.loc 1 74 107 is_stmt 1 view .LVU226
	.loc 1 74 5 view .LVU227
	.loc 1 74 42 view .LVU228
.LBE325:
	.loc 1 74 6 view .LVU229
.LBE329:
	.loc 1 74 278 view .LVU230
	.loc 1 74 5 view .LVU231
	.loc 1 74 18 view .LVU232
.LBE333:
	.loc 1 74 6 view .LVU233
	.loc 1 75 3 view .LVU234
	.loc 1 84 1 is_stmt 0 view .LVU235
	mvn	r0, #21
	mov	sp, r7
	.cfi_def_cfa_register 13
.LVL18:
	.loc 1 84 1 view .LVU236
	@ sp needed
	pop	{r7, pc}
.L10:
	.align	2
.L9:
	.word	.LC0
	.word	log_const_mpu
	.cfi_endproc
.LFE528:
	.size	region_allocate_and_init.part.0, .-region_allocate_and_init.part.0
	.section	.rodata.mpu_configure_regions.str1.1,"aMS",%progbits,1
.LC1:
	.ascii	"Partition %u: sanity check failed.\000"
	.section	.text.mpu_configure_regions,"ax",%progbits
	.align	1
	.syntax unified
	.thumb
	.thumb_func
	.type	mpu_configure_regions, %function
mpu_configure_regions:
.LVL19:
.LFB522:
	.loc 1 191 1 is_stmt 1 view -0
	.cfi_startproc
	@ args = 0, pretend = 0, frame = 16
	@ frame_needed = 1, uses_anonymous_args = 0
	.loc 1 192 2 view .LVU238
	.loc 1 193 2 view .LVU239
	.loc 1 195 2 view .LVU240
	.loc 1 191 1 is_stmt 0 view .LVU241
	push	{r4, r5, r6, r7, r8, lr}
	.cfi_def_cfa_offset 24
	.cfi_offset 4, -24
	.cfi_offset 5, -20
	.cfi_offset 6, -16
	.cfi_offset 7, -12
	.cfi_offset 8, -8
	.cfi_offset 14, -4
	sub	sp, sp, #16
	.cfi_def_cfa_offset 40
	mov	r4, r1
	add	r7, sp, #0
	.cfi_def_cfa_register 7
	.loc 1 191 1 view .LVU242
	mov	r5, r3
	mov	r8, r0
	.loc 1 195 9 view .LVU243
	movs	r6, #0
.LVL20:
.L12:
	.loc 1 195 16 is_stmt 1 discriminator 1 view .LVU244
	cmp	r6, r4
	bge	.L11
	.loc 1 196 3 view .LVU245
	.loc 1 196 17 is_stmt 0 view .LVU246
	ldr	r0, [r8, #4]
	.loc 1 196 6 view .LVU247
	cbz	r0, .L13
	.loc 1 201 3 is_stmt 1 view .LVU248
	.loc 1 201 6 is_stmt 0 view .LVU249
	cbz	r5, .L14
.LVL21:
.LBB364:
.LBI364:
	.loc 2 63 12 is_stmt 1 view .LVU250
.LBB365:
	.loc 2 70 2 view .LVU251
	.loc 2 71 30 is_stmt 0 view .LVU252
	subs	r1, r0, #1
	.loc 2 74 3 view .LVU253
	tst	r0, r1
	beq	.L15
.L17:
.LVL22:
	.loc 2 77 2 is_stmt 1 view .LVU254
	.loc 2 77 2 is_stmt 0 view .LVU255
.LBE365:
.LBE364:
	.loc 1 203 4 is_stmt 1 view .LVU256
.LBB367:
	.loc 1 203 9 view .LVU257
	.loc 1 203 58 view .LVU258
	.loc 1 203 15 view .LVU259
	.loc 1 203 3 view .LVU260
	.loc 1 203 42 view .LVU261
	.loc 1 203 177 view .LVU262
	.loc 1 203 188 view .LVU263
	.loc 1 203 276 view .LVU264
.LBB368:
	.loc 1 203 4 view .LVU265
	.loc 1 203 6 view .LVU266
	.loc 1 203 4 view .LVU267
.LBB369:
	.loc 1 203 9 view .LVU268
	.loc 1 203 3 view .LVU269
.LBE369:
.LBE368:
.LBE367:
	.loc 1 203 4 view .LVU270
	.loc 1 203 13 view .LVU271
	.loc 1 203 108 view .LVU272
	.loc 1 203 4 view .LVU273
.LBB386:
.LBB383:
.LBB380:
	.loc 1 203 13 view .LVU274
	.loc 1 203 103 view .LVU275
	.loc 1 203 105 view .LVU276
.LBB370:
	.loc 1 203 108 is_stmt 0 view .LVU277
	mov	r4, sp
	.loc 1 203 110 is_stmt 1 view .LVU278
	.loc 1 203 121 view .LVU279
.LVL23:
	.loc 1 203 210 view .LVU280
	.loc 1 203 27 view .LVU281
.LBE370:
.LBE380:
.LBE383:
.LBE386:
	.loc 1 203 4 view .LVU282
	.loc 1 203 369 view .LVU283
	.loc 1 203 76 view .LVU284
	.loc 1 203 3 view .LVU285
	.loc 1 203 3 view .LVU286
	.loc 1 203 3 view .LVU287
	.loc 1 203 39 view .LVU288
	.loc 1 203 5 view .LVU289
	.loc 1 203 31 view .LVU290
	.loc 1 203 57 view .LVU291
	.loc 1 203 524 view .LVU292
	.loc 1 203 586 view .LVU293
	.loc 1 203 1107 view .LVU294
	.loc 1 203 1172 view .LVU295
	.loc 1 203 1197 view .LVU296
	.loc 1 203 1198 view .LVU297
	.loc 1 203 1200 view .LVU298
	.loc 1 203 1230 view .LVU299
	.loc 1 203 1260 view .LVU300
	.loc 1 203 1292 view .LVU301
	.loc 1 203 1324 view .LVU302
	.loc 1 203 1356 view .LVU303
	.loc 1 203 1553 view .LVU304
	.loc 1 203 1577 view .LVU305
	.loc 1 203 1578 view .LVU306
	.loc 1 203 1580 view .LVU307
	.loc 1 203 1609 view .LVU308
	.loc 1 203 1638 view .LVU309
	.loc 1 203 1669 view .LVU310
	.loc 1 203 1700 view .LVU311
	.loc 1 203 1731 view .LVU312
	.loc 1 203 1938 view .LVU313
	.loc 1 203 5 view .LVU314
	.loc 1 203 23 view .LVU315
	.loc 1 203 43 view .LVU316
	.loc 1 203 5 view .LVU317
	.loc 1 203 43 view .LVU318
	.loc 1 203 14 view .LVU319
	.loc 1 203 14 view .LVU320
	.loc 1 203 62 view .LVU321
	.loc 1 203 93 view .LVU322
	.loc 1 203 127 view .LVU323
	.loc 1 203 132 view .LVU324
	.loc 1 203 390 view .LVU325
	.loc 1 203 1475 view .LVU326
	.loc 1 203 1540 view .LVU327
	.loc 1 203 1564 view .LVU328
	.loc 1 203 1626 view .LVU329
	.loc 1 203 1637 view .LVU330
	.loc 1 203 1757 view .LVU331
	.loc 1 203 1773 view .LVU332
	.loc 1 203 1813 view .LVU333
	.loc 1 203 1838 view .LVU334
	.loc 1 203 3143 view .LVU335
	.loc 1 203 3184 view .LVU336
	.loc 1 203 8 view .LVU337
	.loc 1 203 31 view .LVU338
	.loc 1 203 130 view .LVU339
	.loc 1 203 7 view .LVU340
	.loc 1 203 12 view .LVU341
	.loc 1 203 237 view .LVU342
	.loc 1 203 1190 view .LVU343
	.loc 1 203 1255 view .LVU344
	.loc 1 203 1279 view .LVU345
	.loc 1 203 1308 view .LVU346
	.loc 1 203 1319 view .LVU347
	.loc 1 203 1406 view .LVU348
	.loc 1 203 1422 view .LVU349
	.loc 1 203 1462 view .LVU350
	.loc 1 203 2726 view .LVU351
	.loc 1 203 2767 view .LVU352
	.loc 1 203 8 view .LVU353
	.loc 1 203 31 view .LVU354
	.loc 1 203 10 view .LVU355
	.loc 1 203 6 view .LVU356
	.loc 1 203 29 view .LVU357
	.loc 1 203 53 view .LVU358
	.loc 1 203 81 view .LVU359
	.loc 1 203 257 view .LVU360
	.loc 1 203 17 view .LVU361
.LBB387:
.LBB384:
.LBB381:
.LBB378:
	.loc 1 203 30 view .LVU362
	.loc 1 203 4 view .LVU363
	.loc 1 203 4 view .LVU364
	.loc 1 203 71 view .LVU365
	.loc 1 203 83 is_stmt 0 view .LVU366
	sub	sp, sp, #32
	mov	r2, sp
.LVL24:
	.loc 1 203 75 is_stmt 1 view .LVU367
	.loc 1 203 485 view .LVU368
	.loc 1 203 6 view .LVU369
	.loc 1 203 8 view .LVU370
	.loc 1 203 13 view .LVU371
	.loc 1 203 11 view .LVU372
	.loc 1 203 6 view .LVU373
	.loc 1 203 24 view .LVU374
.LBB371:
	.loc 1 203 4 view .LVU375
	.loc 1 203 369 view .LVU376
	.loc 1 203 76 view .LVU377
.LVL25:
	.loc 1 203 3 view .LVU378
	.loc 1 203 3 view .LVU379
	.loc 1 203 3 view .LVU380
	.loc 1 203 39 view .LVU381
	.loc 1 203 68 view .LVU382
	.loc 1 203 94 view .LVU383
	.loc 1 203 120 view .LVU384
	.loc 1 203 587 view .LVU385
	.loc 1 203 649 view .LVU386
	.loc 1 203 1170 view .LVU387
	.loc 1 203 1235 view .LVU388
	.loc 1 203 1260 view .LVU389
	.loc 1 203 1261 view .LVU390
	.loc 1 203 1263 view .LVU391
	.loc 1 203 1293 view .LVU392
	.loc 1 203 1323 view .LVU393
	.loc 1 203 1355 view .LVU394
	.loc 1 203 1387 view .LVU395
	.loc 1 203 1419 view .LVU396
	.loc 1 203 1616 view .LVU397
	.loc 1 203 1640 view .LVU398
	.loc 1 203 1641 view .LVU399
	.loc 1 203 1643 view .LVU400
	.loc 1 203 1672 view .LVU401
	.loc 1 203 1701 view .LVU402
	.loc 1 203 1732 view .LVU403
	.loc 1 203 1763 view .LVU404
	.loc 1 203 1794 view .LVU405
	.loc 1 203 2001 view .LVU406
.LBB372:
	.loc 1 203 3181 view .LVU407
	.loc 1 203 3186 view .LVU408
	.loc 1 203 3828 view .LVU409
	.loc 1 203 0 is_stmt 0 view .LVU410
	ldr	r3, .L28
.LBE372:
.LBB373:
	.loc 1 203 3812 view .LVU411
	strd	r3, r6, [r2, #20]
	.loc 1 203 2767 is_stmt 1 view .LVU412
	.loc 1 203 8 view .LVU413
.LVL26:
	.loc 1 203 31 view .LVU414
	.loc 1 203 31 is_stmt 0 view .LVU415
.LBE373:
	.loc 1 203 10 is_stmt 1 view .LVU416
	.loc 1 203 6 view .LVU417
	.loc 1 203 29 view .LVU418
	.loc 1 203 53 view .LVU419
	.loc 1 203 81 view .LVU420
.LBE371:
.LBE378:
.LBE381:
.LBE384:
.LBE387:
	.loc 1 203 7 view .LVU421
	.loc 1 203 46 view .LVU422
	.loc 1 203 51 view .LVU423
	.loc 1 203 81 view .LVU424
	.loc 1 203 148 view .LVU425
	.loc 1 203 153 view .LVU426
	.loc 1 203 183 view .LVU427
.LBB388:
.LBB385:
.LBB382:
.LBB379:
.LBB375:
	.loc 1 203 257 view .LVU428
	.loc 1 203 17 view .LVU429
.LBB374:
	.loc 1 203 7 view .LVU430
	.loc 1 203 165 view .LVU431
	.loc 1 203 167 view .LVU432
	.loc 1 203 177 is_stmt 0 view .LVU433
	movs	r3, #3
	str	r3, [r2, #16]!
.LVL27:
	.loc 1 203 177 view .LVU434
.LBE374:
.LBE375:
	.loc 1 203 27 is_stmt 1 view .LVU435
	.loc 1 203 8 view .LVU436
	.loc 1 203 148 view .LVU437
	.loc 1 203 150 view .LVU438
.LBB376:
.LBI376:
	.loc 4 26 20 view .LVU439
.LBB377:
	.loc 4 38 2 view .LVU440
	.loc 4 38 7 view .LVU441
	.loc 4 38 5 view .LVU442
	.loc 4 39 2 view .LVU443
	ldr	r0, .L28+4
	movs	r3, #0
	mov	r1, #6208
	bl	z_impl_z_log_msg_static_create
.LVL28:
	.loc 4 39 2 is_stmt 0 view .LVU444
.LBE377:
.LBE376:
	mov	sp, r4
.LVL29:
	.loc 4 39 2 view .LVU445
.LBE379:
	.loc 1 203 108 is_stmt 1 view .LVU446
	.loc 1 203 6 view .LVU447
	.loc 1 203 43 view .LVU448
.LBE382:
	.loc 1 203 7 view .LVU449
.LBE385:
	.loc 1 203 279 view .LVU450
	.loc 1 203 6 view .LVU451
	.loc 1 203 19 view .LVU452
.LBE388:
	.loc 1 203 7 view .LVU453
	.loc 1 204 4 view .LVU454
.L16:
	.loc 1 204 11 is_stmt 0 view .LVU455
	mvn	r2, #21
.L11:
	.loc 1 218 1 view .LVU456
	mov	r0, r2
	adds	r7, r7, #16
	.cfi_remember_state
	.cfi_def_cfa_offset 24
	mov	sp, r7
	.cfi_def_cfa_register 13
	@ sp needed
	pop	{r4, r5, r6, r7, r8, pc}
.LVL30:
.L15:
	.cfi_restore_state
.LBB389:
.LBB366:
	.loc 2 72 3 view .LVU457
	cmp	r0, #31
	bls	.L17
	.loc 2 75 17 view .LVU458
	ldr	r3, [r8]
	.loc 2 74 3 view .LVU459
	tst	r1, r3
	bne	.L17
.LVL31:
.L14:
	.loc 2 74 3 view .LVU460
.LBE366:
.LBE389:
	.loc 1 207 3 is_stmt 1 view .LVU461
.LBB390:
.LBB391:
	.loc 1 170 19 is_stmt 0 view .LVU462
	ldr	r3, [r8]
	str	r3, [r7, #4]
.LBB392:
.LBB393:
	.loc 2 127 35 view .LVU463
	bl	size_to_mpu_rasr_size
.LVL32:
	.loc 2 127 21 view .LVU464
	ldr	r3, [r8, #8]
.LBE393:
.LBE392:
.LBE391:
.LBE390:
	.loc 1 207 15 view .LVU465
	uxtb	r2, r2
.LVL33:
.LBB408:
.LBI390:
	.loc 1 162 12 is_stmt 1 view .LVU466
.LBB406:
	.loc 1 165 2 view .LVU467
	.loc 1 167 2 view .LVU468
.LBB396:
	.loc 1 167 7 view .LVU469
.LBE396:
	.loc 1 167 5 view .LVU470
	.loc 1 170 2 view .LVU471
	.loc 1 174 2 view .LVU472
.LBB397:
.LBI392:
	.loc 2 113 20 view .LVU473
.LBB394:
	.loc 2 120 2 view .LVU474
	.loc 2 127 2 view .LVU475
	.loc 2 127 33 is_stmt 0 view .LVU476
	orrs	r3, r3, r0
.LBE394:
.LBE397:
.LBB398:
.LBB399:
	.loc 1 71 5 view .LVU477
	cmp	r2, #7
.LBE399:
.LBE398:
.LBB403:
.LBB395:
	.loc 2 127 15 view .LVU478
	str	r3, [r7, #12]
.LVL34:
	.loc 2 127 15 view .LVU479
.LBE395:
.LBE403:
	.loc 1 178 2 is_stmt 1 view .LVU480
.LBB404:
.LBI398:
	.loc 1 67 12 view .LVU481
.LBB401:
	.loc 1 71 2 view .LVU482
	mov	r0, r2
	.loc 1 71 5 is_stmt 0 view .LVU483
	bls	.L18
	bl	region_allocate_and_init.part.0
.LVL35:
	.loc 1 71 5 view .LVU484
.LBE401:
.LBE404:
.LBE406:
.LBE408:
	.loc 1 209 3 is_stmt 1 view .LVU485
	.loc 1 209 6 is_stmt 0 view .LVU486
	cmn	r0, #22
	beq	.L16
.LVL36:
.L19:
	.loc 1 214 3 is_stmt 1 view .LVU487
	.loc 1 214 12 is_stmt 0 view .LVU488
	adds	r2, r0, #1
.LVL37:
.L13:
	.loc 1 195 32 is_stmt 1 discriminator 2 view .LVU489
	adds	r6, r6, #1
.LVL38:
	.loc 1 195 32 is_stmt 0 discriminator 2 view .LVU490
	add	r8, r8, #12
	b	.L12
.LVL39:
.L18:
.LBB409:
.LBB407:
.LBB405:
.LBB402:
	.loc 1 78 2 is_stmt 1 view .LVU491
.LBB400:
	.loc 1 78 7 view .LVU492
.LBE400:
	.loc 1 78 5 view .LVU493
	.loc 1 81 2 view .LVU494
	adds	r1, r7, #4
.LVL40:
	.loc 1 81 2 is_stmt 0 view .LVU495
	bl	region_init
.LVL41:
	.loc 1 83 2 is_stmt 1 view .LVU496
	.loc 1 83 2 is_stmt 0 view .LVU497
.LBE402:
.LBE405:
.LBE407:
.LBE409:
	.loc 1 209 3 is_stmt 1 view .LVU498
	b	.L19
.L29:
	.align	2
.L28:
	.word	.LC1
	.word	log_const_mpu
	.cfi_endproc
.LFE522:
	.size	mpu_configure_regions, .-mpu_configure_regions
	.section	.text.arm_core_mpu_enable,"ax",%progbits
	.align	1
	.global	arm_core_mpu_enable
	.syntax unified
	.thumb
	.thumb_func
	.type	arm_core_mpu_enable, %function
arm_core_mpu_enable:
.LFB523:
	.loc 1 264 1 view -0
	.cfi_startproc
	@ args = 0, pretend = 0, frame = 0
	@ frame_needed = 0, uses_anonymous_args = 0
	@ link register save eliminated.
	.loc 1 271 2 view .LVU500
	.loc 1 271 52 is_stmt 0 view .LVU501
	ldr	r3, .L31
	movs	r2, #5
	str	r2, [r3, #148]
	.loc 1 275 2 is_stmt 1 view .LVU502
.LBB410:
.LBI410:
	.file 5 "/home/g/mise-work/zmk-firmware/zmk/zephyr/include/zephyr/sys/barrier.h"
	.loc 5 57 51 view .LVU503
	.loc 5 60 2 view .LVU504
.LBB411:
.LBI411:
	.file 6 "/home/g/mise-work/zmk-firmware/zmk/zephyr/include/zephyr/arch/arm/barrier.h"
	.loc 6 24 51 view .LVU505
	.loc 6 26 2 view .LVU506
.LBB412:
.LBI412:
	.file 7 "/home/g/mise-work/zmk-firmware/zmk/modules/hal/cmsis/CMSIS/Core/Include/cmsis_gcc.h"
	.loc 7 269 51 view .LVU507
.LBB413:
	.loc 7 271 3 view .LVU508
	.syntax unified
@ 271 "/home/g/mise-work/zmk-firmware/zmk/modules/hal/cmsis/CMSIS/Core/Include/cmsis_gcc.h" 1
	dsb 0xF
@ 0 "" 2
	.thumb
	.syntax unified
.LBE413:
.LBE412:
.LBE411:
.LBE410:
	.loc 1 276 2 view .LVU509
.LBB414:
.LBI414:
	.loc 5 76 51 view .LVU510
	.loc 5 79 2 view .LVU511
.LBB415:
.LBI415:
	.loc 6 29 51 view .LVU512
	.loc 6 31 2 view .LVU513
.LBB416:
.LBI416:
	.loc 7 258 51 view .LVU514
.LBB417:
	.loc 7 260 3 view .LVU515
	.syntax unified
@ 260 "/home/g/mise-work/zmk-firmware/zmk/modules/hal/cmsis/CMSIS/Core/Include/cmsis_gcc.h" 1
	isb 0xF
@ 0 "" 2
	.thumb
	.syntax unified
.LBE417:
.LBE416:
.LBE415:
.LBE414:
	.loc 1 277 1 is_stmt 0 view .LVU516
	bx	lr
.L32:
	.align	2
.L31:
	.word	-536810240
	.cfi_endproc
.LFE523:
	.size	arm_core_mpu_enable, .-arm_core_mpu_enable
	.section	.text.arm_core_mpu_disable,"ax",%progbits
	.align	1
	.global	arm_core_mpu_disable
	.syntax unified
	.thumb
	.thumb_func
	.type	arm_core_mpu_disable, %function
arm_core_mpu_disable:
.LFB524:
	.loc 1 283 1 is_stmt 1 view -0
	.cfi_startproc
	@ args = 0, pretend = 0, frame = 0
	@ frame_needed = 0, uses_anonymous_args = 0
	@ link register save eliminated.
	.loc 1 285 2 view .LVU518
.LBB418:
.LBI418:
	.loc 5 38 51 view .LVU519
	.loc 5 41 2 view .LVU520
.LBB419:
.LBI419:
	.loc 6 19 51 view .LVU521
	.loc 6 21 2 view .LVU522
.LBB420:
.LBI420:
	.loc 7 280 51 view .LVU523
.LBB421:
	.loc 7 282 3 view .LVU524
	.syntax unified
@ 282 "/home/g/mise-work/zmk-firmware/zmk/modules/hal/cmsis/CMSIS/Core/Include/cmsis_gcc.h" 1
	dmb 0xF
@ 0 "" 2
	.thumb
	.syntax unified
.LBE421:
.LBE420:
.LBE419:
.LBE418:
	.loc 1 288 2 view .LVU525
	.loc 1 288 52 is_stmt 0 view .LVU526
	ldr	r3, .L34
	movs	r2, #0
	str	r2, [r3, #148]
	.loc 1 289 1 view .LVU527
	bx	lr
.L35:
	.align	2
.L34:
	.word	-536810240
	.cfi_endproc
.LFE524:
	.size	arm_core_mpu_disable, .-arm_core_mpu_disable
	.section	.text.arm_core_mpu_configure_static_mpu_regions,"ax",%progbits
	.align	1
	.global	arm_core_mpu_configure_static_mpu_regions
	.syntax unified
	.thumb
	.thumb_func
	.type	arm_core_mpu_configure_static_mpu_regions, %function
arm_core_mpu_configure_static_mpu_regions:
.LVL42:
.LFB525:
	.loc 1 361 1 is_stmt 1 view -0
	.cfi_startproc
	@ args = 0, pretend = 0, frame = 0
	@ frame_needed = 0, uses_anonymous_args = 0
	.loc 1 362 2 view .LVU529
.LBB424:
.LBI424:
	.loc 2 220 12 view .LVU530
.LBB425:
	.loc 2 225 2 view .LVU531
	.loc 2 230 2 view .LVU532
	.loc 2 231 2 view .LVU533
	.loc 2 233 2 view .LVU534
.LBE425:
.LBE424:
	.loc 1 361 1 is_stmt 0 view .LVU535
	push	{r4, lr}
	.cfi_def_cfa_offset 8
	.cfi_offset 4, -8
	.cfi_offset 14, -4
.LBB427:
.LBB426:
	.loc 2 225 6 view .LVU536
	ldr	r4, .L37
.LVL43:
	.loc 2 233 18 view .LVU537
	movs	r3, #1
.LVL44:
	.loc 2 233 18 view .LVU538
	ldrb	r2, [r4]	@ zero_extendqisi2
.LVL45:
	.loc 2 233 18 view .LVU539
	bl	mpu_configure_regions
.LVL46:
	.loc 2 236 2 is_stmt 1 view .LVU540
	.loc 2 236 21 is_stmt 0 view .LVU541
	strb	r0, [r4]
	.loc 2 238 2 is_stmt 1 view .LVU542
.LVL47:
	.loc 2 238 2 is_stmt 0 view .LVU543
.LBE426:
.LBE427:
	.loc 1 365 5 is_stmt 1 view .LVU544
	.loc 1 366 16 view .LVU545
	.loc 1 368 1 is_stmt 0 view .LVU546
	pop	{r4, pc}
.L38:
	.align	2
.L37:
	.word	static_regions_num
	.cfi_endproc
.LFE525:
	.size	arm_core_mpu_configure_static_mpu_regions, .-arm_core_mpu_configure_static_mpu_regions
	.section	.text.arm_core_mpu_configure_dynamic_mpu_regions,"ax",%progbits
	.align	1
	.global	arm_core_mpu_configure_dynamic_mpu_regions
	.syntax unified
	.thumb
	.thumb_func
	.type	arm_core_mpu_configure_dynamic_mpu_regions, %function
arm_core_mpu_configure_dynamic_mpu_regions:
.LVL48:
.LFB526:
	.loc 1 392 1 is_stmt 1 view -0
	.cfi_startproc
	@ args = 0, pretend = 0, frame = 0
	@ frame_needed = 0, uses_anonymous_args = 0
	.loc 1 393 2 view .LVU548
.LBB436:
.LBI436:
	.loc 2 249 12 view .LVU549
.LBB437:
	.loc 2 252 2 view .LVU550
	.loc 2 258 2 view .LVU551
.LBE437:
.LBE436:
	.loc 1 392 1 is_stmt 0 view .LVU552
	push	{r3, lr}
	.cfi_def_cfa_offset 8
	.cfi_offset 3, -8
	.cfi_offset 14, -4
.LBB446:
.LBB444:
	.loc 2 258 18 view .LVU553
	ldr	r2, .L44
.LVL49:
	.loc 2 258 18 view .LVU554
	movs	r3, #0
	ldrb	r2, [r2]	@ zero_extendqisi2
.LVL50:
	.loc 2 258 18 view .LVU555
	bl	mpu_configure_regions
.LVL51:
	.loc 2 261 2 is_stmt 1 view .LVU556
	.loc 2 261 5 is_stmt 0 view .LVU557
	cmn	r0, #22
	beq	.L39
.LBB438:
.LBB439:
.LBB440:
	.file 8 "/home/g/mise-work/zmk-firmware/zmk/modules/hal/cmsis/CMSIS/Core/Include/mpu_armv7.h"
	.loc 8 220 52 view .LVU558
	ldr	r3, .L44+4
	.loc 8 221 53 view .LVU559
	movs	r2, #0
.LVL52:
.L40:
	.loc 8 221 53 view .LVU560
.LBE440:
.LBE439:
	.loc 2 264 33 is_stmt 1 view .LVU561
	cmp	r0, #7
	ble	.L41
.LVL53:
.L39:
	.loc 2 264 33 is_stmt 0 view .LVU562
.LBE438:
.LBE444:
.LBE446:
	.loc 1 399 1 view .LVU563
	pop	{r3, pc}
.LVL54:
.L41:
.LBB447:
.LBB445:
.LBB443:
	.loc 2 265 4 is_stmt 1 view .LVU564
.LBB442:
.LBI439:
	.loc 8 218 20 view .LVU565
.LBB441:
	.loc 8 220 3 view .LVU566
	.loc 8 220 52 is_stmt 0 view .LVU567
	str	r0, [r3, #152]
	.loc 8 221 3 is_stmt 1 view .LVU568
	.loc 8 221 53 is_stmt 0 view .LVU569
	str	r2, [r3, #160]
.LVL55:
	.loc 8 221 53 view .LVU570
.LBE441:
.LBE442:
	.loc 2 264 55 is_stmt 1 view .LVU571
	adds	r0, r0, #1
.LVL56:
	.loc 2 264 55 is_stmt 0 view .LVU572
	b	.L40
.L45:
	.align	2
.L44:
	.word	static_regions_num
	.word	-536810240
.LBE443:
.LBE445:
.LBE447:
	.cfi_endproc
.LFE526:
	.size	arm_core_mpu_configure_dynamic_mpu_regions, .-arm_core_mpu_configure_dynamic_mpu_regions
	.section	.rodata.z_arm_mpu_init.str1.1,"aMS",%progbits,1
.LC2:
	.ascii	"Invalid attribute for the region\012\000"
	.section	.text.z_arm_mpu_init,"ax",%progbits
	.align	1
	.global	z_arm_mpu_init
	.syntax unified
	.thumb
	.thumb_func
	.type	z_arm_mpu_init, %function
z_arm_mpu_init:
.LFB527:
	.loc 1 410 1 is_stmt 1 view -0
	.cfi_startproc
	@ args = 0, pretend = 0, frame = 32
	@ frame_needed = 0, uses_anonymous_args = 0
	.loc 1 411 2 view .LVU574
	.loc 1 413 2 view .LVU575
	.loc 1 410 1 is_stmt 0 view .LVU576
	push	{r4, r5, r6, r7, lr}
	.cfi_def_cfa_offset 20
	.cfi_offset 4, -20
	.cfi_offset 5, -16
	.cfi_offset 6, -12
	.cfi_offset 7, -8
	.cfi_offset 14, -4
	.loc 1 413 16 view .LVU577
	ldr	r5, .L65
	ldr	r4, [r5]
	.loc 1 413 5 view .LVU578
	cmp	r4, #8
	.loc 1 410 1 view .LVU579
	sub	sp, sp, #36
	.cfi_def_cfa_offset 56
	.loc 1 413 5 view .LVU580
	bhi	.L64
	.loc 1 428 2 is_stmt 1 discriminator 335 view .LVU581
.LBB484:
	.loc 1 428 7 discriminator 335 view .LVU582
.LBE484:
	.loc 1 428 5 discriminator 335 view .LVU583
	.loc 1 430 2 discriminator 335 view .LVU584
	bl	arm_core_mpu_disable
.LVL57:
	.loc 1 450 2 discriminator 335 view .LVU585
	.loc 1 453 2 discriminator 335 view .LVU586
	.loc 1 453 15 is_stmt 0 discriminator 335 view .LVU587
	movs	r0, #0
	.loc 1 454 24 discriminator 335 view .LVU588
	movs	r6, #12
.LVL58:
.L48:
	.loc 1 453 29 is_stmt 1 discriminator 1 view .LVU589
	cmp	r4, r0
	bne	.L49
	.loc 1 458 2 view .LVU590
	.loc 1 458 21 is_stmt 0 view .LVU591
	ldr	r5, .L65+4
.LBB485:
.LBB486:
.LBB487:
.LBB488:
	.loc 1 105 34 view .LVU592
	ldr	r7, .L65+8
.LBE488:
.LBE487:
.LBE486:
.LBE485:
	.loc 1 458 21 view .LVU593
	strb	r4, [r5]
	.loc 1 461 2 is_stmt 1 view .LVU594
.LBB518:
.LBI485:
	.loc 1 95 12 view .LVU595
.LVL59:
.LBB515:
	.loc 1 97 2 view .LVU596
	.loc 1 98 2 view .LVU597
	.loc 1 100 2 view .LVU598
	.loc 1 100 16 is_stmt 0 view .LVU599
	add	r0, sp, #4
.LVL60:
	.loc 1 100 16 view .LVU600
	bl	mem_attr_get_regions
.LVL61:
.LBB511:
	.loc 1 102 14 view .LVU601
	movs	r4, #0
.LBE511:
	.loc 1 100 16 view .LVU602
	mov	r6, r0
.LVL62:
	.loc 1 102 2 is_stmt 1 view .LVU603
.LBB512:
	.loc 1 102 7 view .LVU604
.L50:
	.loc 1 102 27 view .LVU605
	cmp	r6, r4
	bne	.L63
.LVL63:
	.loc 1 102 27 is_stmt 0 view .LVU606
.LBE512:
.LBE515:
.LBE518:
	.loc 1 466 2 is_stmt 1 view .LVU607
	bl	arm_core_mpu_enable
.LVL64:
	.loc 1 527 4 view .LVU608
	.loc 1 529 37 view .LVU609
	.loc 1 537 2 view .LVU610
	.loc 1 537 9 is_stmt 0 view .LVU611
	movs	r0, #0
	b	.L46
.LVL65:
.L49:
	.loc 1 454 3 is_stmt 1 discriminator 3 view .LVU612
	.loc 1 454 24 is_stmt 0 discriminator 3 view .LVU613
	ldr	r1, [r5, #4]
	.loc 1 454 3 discriminator 3 view .LVU614
	mla	r1, r6, r0, r1
	bl	region_init
.LVL66:
	.loc 1 453 62 is_stmt 1 discriminator 3 view .LVU615
	adds	r0, r0, #1
.LVL67:
	.loc 1 453 62 is_stmt 0 discriminator 3 view .LVU616
	b	.L48
.LVL68:
.L63:
.LBB519:
.LBB516:
.LBB513:
.LBB508:
	.loc 1 103 3 is_stmt 1 view .LVU617
	.loc 1 105 3 view .LVU618
	.loc 1 105 19 is_stmt 0 view .LVU619
	ldr	r0, [sp, #4]
	add	r1, r0, r4, lsl #4
	lsl	ip, r4, #4
	.loc 1 105 34 view .LVU620
	ldr	r3, [r1, #12]
	ands	r3, r3, r7
	.loc 1 105 3 view .LVU621
	cmp	r3, #8388608
	beq	.L51
	bhi	.L52
	cmp	r3, #2097152
	beq	.L53
	cmp	r3, #4194304
	beq	.L54
	cmp	r3, #1048576
	beq	.L55
.L56:
.LBB489:
	.loc 1 141 4 is_stmt 1 view .LVU622
.LBB490:
	.loc 1 141 9 view .LVU623
	.loc 1 141 58 view .LVU624
	.loc 1 141 15 view .LVU625
	.loc 1 141 3 view .LVU626
.LVL69:
	.loc 1 141 42 view .LVU627
	.loc 1 141 177 view .LVU628
	.loc 1 141 188 view .LVU629
	.loc 1 141 276 view .LVU630
	.loc 1 141 4 view .LVU631
	.loc 1 141 4 view .LVU632
.LBB491:
	.loc 1 141 9 view .LVU633
	.loc 1 141 3 view .LVU634
	.loc 1 141 13 view .LVU635
	.loc 1 141 103 view .LVU636
	.loc 1 141 105 view .LVU637
.LBB492:
	.loc 1 141 110 view .LVU638
	.loc 1 141 121 view .LVU639
	.loc 1 141 210 view .LVU640
	.loc 1 141 27 view .LVU641
	.loc 1 141 30 view .LVU642
	.loc 1 141 4 view .LVU643
	.loc 1 141 4 view .LVU644
	.loc 1 141 71 view .LVU645
	.loc 1 141 75 view .LVU646
	.loc 1 141 485 view .LVU647
	.loc 1 141 6 view .LVU648
	.loc 1 141 8 view .LVU649
	.loc 1 141 13 view .LVU650
	.loc 1 141 11 view .LVU651
	.loc 1 141 6 view .LVU652
	.loc 1 141 24 view .LVU653
.LBB493:
	.loc 1 141 4 view .LVU654
	.loc 1 141 369 view .LVU655
	.loc 1 141 76 view .LVU656
.LVL70:
	.loc 1 141 3 view .LVU657
	.loc 1 141 3 view .LVU658
	.loc 1 141 3 view .LVU659
	.loc 1 141 39 view .LVU660
	.loc 1 141 68 view .LVU661
	.loc 1 141 94 view .LVU662
	.loc 1 141 120 view .LVU663
	.loc 1 141 143 view .LVU664
	.loc 1 141 205 view .LVU665
	.loc 1 141 262 view .LVU666
	.loc 1 141 327 view .LVU667
	.loc 1 141 352 view .LVU668
	.loc 1 141 353 view .LVU669
	.loc 1 141 355 view .LVU670
	.loc 1 141 385 view .LVU671
	.loc 1 141 415 view .LVU672
	.loc 1 141 447 view .LVU673
	.loc 1 141 479 view .LVU674
	.loc 1 141 511 view .LVU675
	.loc 1 141 708 view .LVU676
	.loc 1 141 732 view .LVU677
	.loc 1 141 733 view .LVU678
	.loc 1 141 735 view .LVU679
	.loc 1 141 764 view .LVU680
	.loc 1 141 793 view .LVU681
	.loc 1 141 824 view .LVU682
	.loc 1 141 855 view .LVU683
	.loc 1 141 886 view .LVU684
	.loc 1 141 1093 view .LVU685
	.loc 1 141 5 view .LVU686
	.loc 1 141 23 view .LVU687
	.loc 1 141 43 view .LVU688
	.loc 1 141 5 view .LVU689
	.loc 1 141 43 view .LVU690
	.loc 1 141 14 view .LVU691
	.loc 1 141 14 view .LVU692
	.loc 1 141 62 view .LVU693
	.loc 1 141 93 view .LVU694
	.loc 1 141 127 view .LVU695
.LBB494:
	.loc 1 141 132 view .LVU696
	.loc 1 141 390 view .LVU697
	.loc 1 141 1475 view .LVU698
	.loc 1 141 1540 view .LVU699
	.loc 1 141 1773 view .LVU700
	.loc 1 141 1813 view .LVU701
	.loc 1 141 1838 view .LVU702
	.loc 1 141 3143 view .LVU703
	.loc 1 141 3181 view .LVU704
	.loc 1 141 3186 view .LVU705
	.loc 1 141 3828 view .LVU706
	.loc 1 141 0 is_stmt 0 view .LVU707
	ldr	r3, .L65+12
	str	r3, [sp, #28]
	.loc 1 141 3184 is_stmt 1 view .LVU708
	.loc 1 141 8 view .LVU709
.LVL71:
	.loc 1 141 31 view .LVU710
	.loc 1 141 31 is_stmt 0 view .LVU711
.LBE494:
	.loc 1 141 130 is_stmt 1 view .LVU712
	.loc 1 141 6 view .LVU713
	.loc 1 141 29 view .LVU714
	.loc 1 141 53 view .LVU715
	.loc 1 141 81 view .LVU716
	.loc 1 141 257 view .LVU717
	.loc 1 141 17 view .LVU718
.LBB495:
	.loc 1 141 7 view .LVU719
	.loc 1 141 165 view .LVU720
	.loc 1 141 167 view .LVU721
	.loc 1 141 177 is_stmt 0 view .LVU722
	movs	r3, #2
	str	r3, [sp, #24]
.LVL72:
	.loc 1 141 177 view .LVU723
.LBE495:
.LBE493:
	.loc 1 141 27 is_stmt 1 view .LVU724
	.loc 1 141 8 view .LVU725
	.loc 1 141 148 view .LVU726
	.loc 1 141 150 view .LVU727
.LBB496:
.LBI496:
	.loc 4 26 20 view .LVU728
.LBB497:
	.loc 4 38 2 view .LVU729
	.loc 4 38 7 view .LVU730
	.loc 4 38 5 view .LVU731
	.loc 4 39 2 view .LVU732
	ldr	r0, .L65+16
	movs	r3, #0
	add	r2, sp, #24
.LVL73:
	.loc 4 39 2 is_stmt 0 view .LVU733
	mov	r1, #4160
	bl	z_impl_z_log_msg_static_create
.LVL74:
	.loc 4 39 2 view .LVU734
.LBE497:
.LBE496:
.LBE492:
	.loc 1 141 108 is_stmt 1 view .LVU735
	.loc 1 141 6 view .LVU736
.LVL75:
	.loc 1 141 43 view .LVU737
.LBE491:
	.loc 1 141 7 view .LVU738
	.loc 1 141 279 view .LVU739
	.loc 1 141 6 view .LVU740
	.loc 1 141 19 view .LVU741
.LBE490:
	.loc 1 141 7 view .LVU742
	.loc 1 142 4 view .LVU743
.L60:
	.loc 1 142 4 is_stmt 0 view .LVU744
.LBE489:
.LBE508:
.LBE513:
.LBE516:
.LBE519:
	.loc 1 463 10 view .LVU745
	mvn	r0, #21
.LVL76:
.L46:
	.loc 1 538 1 view .LVU746
	add	sp, sp, #36
	.cfi_remember_state
	.cfi_def_cfa_offset 20
	@ sp needed
	pop	{r4, r5, r6, r7, pc}
.LVL77:
.L52:
	.cfi_restore_state
.LBB520:
.LBB517:
.LBB514:
.LBB509:
	.loc 1 105 3 view .LVU747
	cmp	r3, #16777216
	beq	.L57
	cmp	r3, #33554432
	bne	.L56
.LBB498:
	.loc 1 133 4 is_stmt 1 view .LVU748
	.loc 1 133 65 is_stmt 0 view .LVU749
	ldr	r3, [r0, ip]
	.loc 1 133 132 view .LVU750
	ldr	r0, [r1, #8]
	.loc 1 133 96 view .LVU751
	ldr	r2, [r1, #4]
	.loc 1 133 132 view .LVU752
	bl	size_to_mpu_rasr_size
.LVL78:
	.loc 1 133 177 view .LVU753
	orr	r0, r0, #262144
	.loc 1 134 4 is_stmt 1 view .LVU754
	b	.L59
.L55:
	.loc 1 107 4 view .LVU755
	.loc 1 107 65 is_stmt 0 view .LVU756
	ldr	r3, [r0, ip]
	.loc 1 107 177 view .LVU757
	ldr	r0, [r1, #8]
	.loc 1 107 96 view .LVU758
	ldr	r2, [r1, #4]
	.loc 1 107 177 view .LVU759
	bl	size_to_mpu_rasr_size
.LVL79:
	.loc 1 107 222 view .LVU760
	orr	r0, r0, #285212672
	orr	r0, r0, #720896
	.loc 1 108 4 is_stmt 1 view .LVU761
.L59:
	.loc 1 107 16 is_stmt 0 view .LVU762
	str	r0, [sp, #16]
.LBE498:
	.loc 1 148 3 is_stmt 1 view .LVU763
	.loc 1 148 7 is_stmt 0 view .LVU764
	ldrb	r0, [r5]	@ zero_extendqisi2
.LVL80:
.LBB499:
.LBI499:
	.loc 1 67 12 is_stmt 1 view .LVU765
.LBB500:
	.loc 1 71 2 view .LVU766
	.loc 1 71 5 is_stmt 0 view .LVU767
	cmp	r0, #7
.LBE500:
.LBE499:
.LBB504:
	.loc 1 107 16 view .LVU768
	strd	r2, r3, [sp, #8]
.LBE504:
.LBB505:
.LBB502:
	.loc 1 71 5 view .LVU769
	bls	.L61
	bl	region_allocate_and_init.part.0
.LVL81:
	.loc 1 71 5 view .LVU770
.LBE502:
.LBE505:
	.loc 1 148 6 view .LVU771
	cmp	r0, #0
	blt	.L60
.L62:
	.loc 1 153 3 is_stmt 1 view .LVU772
	.loc 1 153 15 is_stmt 0 view .LVU773
	ldrb	r3, [r5]	@ zero_extendqisi2
	adds	r3, r3, #1
	strb	r3, [r5]
.LBE509:
	.loc 1 102 45 is_stmt 1 view .LVU774
	adds	r4, r4, #1
.LVL82:
	.loc 1 102 45 is_stmt 0 view .LVU775
	b	.L50
.L53:
.LBB510:
.LBB506:
	.loc 1 111 4 is_stmt 1 view .LVU776
	.loc 1 111 65 is_stmt 0 view .LVU777
	ldr	r3, [r0, ip]
	.loc 1 111 145 view .LVU778
	ldr	r0, [r1, #8]
	.loc 1 111 96 view .LVU779
	ldr	r2, [r1, #4]
	.loc 1 111 145 view .LVU780
	bl	size_to_mpu_rasr_size
.LVL83:
	.loc 1 111 190 view .LVU781
	orr	r0, r0, #285212672
	orr	r0, r0, #524288
	.loc 1 112 6 is_stmt 1 view .LVU782
	.loc 1 113 54 view .LVU783
	.loc 1 114 4 view .LVU784
	b	.L59
.L54:
	.loc 1 118 4 view .LVU785
	.loc 1 118 65 is_stmt 0 view .LVU786
	ldr	r3, [r0, ip]
	.loc 1 118 132 view .LVU787
	ldr	r0, [r1, #8]
	.loc 1 118 96 view .LVU788
	ldr	r2, [r1, #4]
	.loc 1 118 132 view .LVU789
	bl	size_to_mpu_rasr_size
.LVL84:
	.loc 1 118 177 view .LVU790
	orr	r0, r0, #33554432
	orr	r0, r0, #131072
	.loc 1 119 4 is_stmt 1 view .LVU791
	b	.L59
.L51:
	.loc 1 123 4 view .LVU792
	.loc 1 123 65 is_stmt 0 view .LVU793
	ldr	r3, [r0, ip]
	.loc 1 123 132 view .LVU794
	ldr	r0, [r1, #8]
	.loc 1 123 96 view .LVU795
	ldr	r2, [r1, #4]
	.loc 1 123 132 view .LVU796
	bl	size_to_mpu_rasr_size
.LVL85:
	.loc 1 123 177 view .LVU797
	orr	r0, r0, #17039360
	.loc 1 124 4 is_stmt 1 view .LVU798
	b	.L59
.L57:
	.loc 1 128 4 view .LVU799
	.loc 1 128 65 is_stmt 0 view .LVU800
	ldr	r3, [r0, ip]
	.loc 1 128 130 view .LVU801
	ldr	r0, [r1, #8]
	.loc 1 128 96 view .LVU802
	ldr	r2, [r1, #4]
	.loc 1 128 130 view .LVU803
	bl	size_to_mpu_rasr_size
.LVL86:
	.loc 1 128 175 view .LVU804
	orr	r0, r0, #17825792
	.loc 1 129 4 is_stmt 1 view .LVU805
	b	.L59
.LVL87:
.L61:
	.loc 1 129 4 is_stmt 0 view .LVU806
.LBE506:
.LBB507:
.LBB503:
	.loc 1 78 2 is_stmt 1 view .LVU807
.LBB501:
	.loc 1 78 7 view .LVU808
.LBE501:
	.loc 1 78 5 view .LVU809
	.loc 1 81 2 view .LVU810
	add	r1, sp, #8
.LVL88:
	.loc 1 81 2 is_stmt 0 view .LVU811
	bl	region_init
.LVL89:
	.loc 1 83 2 is_stmt 1 view .LVU812
	.loc 1 83 2 is_stmt 0 view .LVU813
	b	.L62
.LVL90:
.L64:
	.loc 1 83 2 view .LVU814
.LBE503:
.LBE507:
.LBE510:
.LBE514:
.LBE517:
.LBE520:
	.loc 1 425 10 view .LVU815
	mov	r0, #-1
	b	.L46
.L66:
	.align	2
.L65:
	.word	mpu_config
	.word	static_regions_num
	.word	-1048576
	.word	.LC2
	.word	log_const_mpu
	.cfi_endproc
.LFE527:
	.size	z_arm_mpu_init, .-z_arm_mpu_init
	.section	.bss.static_regions_num,"aw",%nobits
	.type	static_regions_num, %object
	.size	static_regions_num, 1
static_regions_num:
	.space	1
	.text
.Letext0:
	.file 9 "/home/g/zephyr-sdk-0.16.3/arm-zephyr-eabi/picolibc/include/machine/_default_types.h"
	.file 10 "/home/g/zephyr-sdk-0.16.3/arm-zephyr-eabi/picolibc/include/sys/_stdint.h"
	.file 11 "/home/g/zephyr-sdk-0.16.3/arm-zephyr-eabi/lib/gcc/arm-zephyr-eabi/12.2.0/include/stddef.h"
	.file 12 "/home/g/mise-work/zmk-firmware/zmk/modules/hal/cmsis/CMSIS/Core/Include/core_cm4.h"
	.file 13 "/home/g/mise-work/zmk-firmware/zmk/zephyr/include/zephyr/arch/arm/mpu/arm_mpu_v7m.h"
	.file 14 "/home/g/mise-work/zmk-firmware/zmk/zephyr/include/zephyr/arch/arm/mpu/arm_mpu.h"
	.file 15 "/home/g/mise-work/zmk-firmware/zmk/zephyr/include/zephyr/fatal_types.h"
	.file 16 "/home/g/mise-work/zmk-firmware/zmk/zephyr/include/zephyr/kernel.h"
	.file 17 "/home/g/mise-work/zmk-firmware/zmk/zephyr/arch/arm/include/kernel_arch_data.h"
	.file 18 "/home/g/mise-work/zmk-firmware/zmk/zephyr/include/zephyr/mem_mgmt/mem_attr.h"
	.file 19 "/home/g/mise-work/zmk-firmware/zmk/zephyr/include/zephyr/logging/log_instance.h"
	.file 20 "/home/g/mise-work/zmk-firmware/zmk/zephyr/include/zephyr/sys/cbprintf.h"
	.file 21 "/home/g/mise-work/zmk-firmware/zmk/zephyr/include/zephyr/logging/log_msg.h"
	.file 22 "/home/g/mise-work/zmk-firmware/zmk/zephyr/include/zephyr/sys/cbprintf_internal.h"
	.file 23 "/home/g/mise-work/zmk-firmware/zmk/zephyr/include/zephyr/syscall.h"