	.cpu cortex-m4
	.arch armv7e-m
	.fpu fpv4-sp-d16
	.eabi_attribute 27, 1
	.eabi_attribute 28, 1
	.eabi_attribute 20, 1
	.eabi_attribute 21, 1
	.eabi_attribute 23, 3
	.eabi_attribute 24, 1
	.eabi_attribute 25, 1
	.eabi_attribute 26, 1
	.eabi_attribute 30, 4
	.eabi_attribute 34, 1
	.eabi_attribute 38, 1
	.eabi_attribute 18, 4
	.file	"nrfx_spim.c"
	.text
.Ltext0:
	.cfi_sections	.debug_frame
	.file 1 "/home/g/mise-work/zmk-firmware/zmk/modules/hal/nordic/nrfx/drivers/src/nrfx_spim.c"
	.section	.text.__nrfy_internal_spim_event_handle,"ax",%progbits
	.align	1
	.syntax unified
	.thumb
	.thumb_func
	.type	__nrfy_internal_spim_event_handle, %function
__nrfy_internal_spim_event_handle:
.LVL0:
.LFB782:
	.file 2 "/home/g/mise-work/zmk-firmware/zmk/modules/hal/nordic/nrfx/haly/nrfy_spim.h"
	.loc 2 810 1 view -0
	.cfi_startproc
	@ args = 0, pretend = 0, frame = 0
	@ frame_needed = 0, uses_anonymous_args = 0
	.loc 2 811 5 view .LVU1
	.loc 2 810 1 is_stmt 0 view .LVU2
	push	{r4, r5, r6, lr}
	.cfi_def_cfa_offset 16
	.cfi_offset 4, -16
	.cfi_offset 5, -12
	.cfi_offset 6, -8
	.cfi_offset 14, -4
	.loc 2 811 46 view .LVU3
	sub	r4, r2, #256
	.loc 2 811 55 view .LVU4
	lsrs	r4, r4, #2
	.loc 2 811 21 view .LVU5
	movs	r6, #1
	lsl	r4, r6, r4
	.loc 2 810 1 view .LVU6
	mov	r5, r0
	.loc 2 811 8 view .LVU7
	ands	r0, r4, r1
.LVL1:
	.loc 2 811 8 view .LVU8
	beq	.L2
.LVL2:
.LBB249:
.LBI249:
	.file 3 "/home/g/mise-work/zmk-firmware/zmk/modules/hal/nordic/nrfx/hal/nrf_spim.h"
	.loc 3 1149 23 is_stmt 1 view .LVU9
	.loc 3 1152 5 view .LVU10
.LBB250:
.LBI250:
	.file 4 "/home/g/mise-work/zmk-firmware/zmk/modules/hal/nordic/nrfx/hal/nrf_common.h"
	.loc 4 281 23 view .LVU11
.LBB251:
	.loc 4 283 5 view .LVU12
	.loc 4 283 17 is_stmt 0 view .LVU13
	ldr	r0, [r5, r2]
.LVL3:
	.loc 4 283 17 view .LVU14
.LBE251:
.LBE250:
.LBE249:
	.loc 2 811 63 view .LVU15
	cbz	r0, .L2
	.loc 2 813 9 is_stmt 1 view .LVU16
.LVL4:
.LBB252:
.LBI252:
	.loc 3 1142 20 view .LVU17
.LBB253:
	.loc 3 1145 5 view .LVU18
	.loc 3 1145 66 is_stmt 0 view .LVU19
	movs	r1, #0
.LVL5:
	.loc 3 1145 66 view .LVU20
	str	r1, [r5, r2]
	.loc 3 1146 5 is_stmt 1 view .LVU21
.LVL6:
.LBB254:
.LBI254:
	.loc 4 186 20 view .LVU22
.LBB255:
	.loc 4 189 5 view .LVU23
	ldr	r2, [r5, r2]
.LVL7:
	.loc 4 189 5 is_stmt 0 view .LVU24
.LBE255:
.LBE254:
.LBE253:
.LBE252:
	.loc 2 814 9 is_stmt 1 view .LVU25
	.loc 2 816 13 view .LVU26
	.loc 2 816 25 is_stmt 0 view .LVU27
	ldr	r2, [r3]
	orrs	r2, r2, r4
	str	r2, [r3]
	.loc 2 818 15 view .LVU28
	mov	r0, r6
.L2:
	.loc 2 821 1 view .LVU29
	pop	{r4, r5, r6, pc}
	.loc 2 821 1 view .LVU30
	.cfi_endproc
.LFE782:
	.size	__nrfy_internal_spim_event_handle, .-__nrfy_internal_spim_event_handle
	.section	.text.__nrfy_internal_spim_events_process,"ax",%progbits
	.align	1
	.syntax unified
	.thumb
	.thumb_func
	.type	__nrfy_internal_spim_events_process, %function
__nrfy_internal_spim_events_process:
.LVL8:
.LFB783:
	.loc 2 827 1 is_stmt 1 view -0
	.cfi_startproc
	@ args = 0, pretend = 0, frame = 8
	@ frame_needed = 0, uses_anonymous_args = 0
	.loc 2 828 5 view .LVU32
	.loc 2 827 1 is_stmt 0 view .LVU33
	push	{r0, r1, r4, r5, r6, r7, r8, lr}
	.cfi_def_cfa_offset 32
	.cfi_offset 4, -24
	.cfi_offset 5, -20
	.cfi_offset 6, -16
	.cfi_offset 7, -12
	.cfi_offset 8, -8
	.cfi_offset 14, -4
	.loc 2 828 14 view .LVU34
	movs	r3, #0
	.loc 2 827 1 view .LVU35
	mov	r4, r0
	mov	r5, r1
	.loc 2 828 14 view .LVU36
	str	r3, [sp, #4]
	.loc 2 830 5 is_stmt 1 view .LVU37
	.loc 2 831 5 view .LVU38
	.loc 2 827 1 is_stmt 0 view .LVU39
	mov	r8, r2
	.loc 2 831 11 view .LVU40
	add	r3, sp, #4
	mov	r2, #332
.LVL9:
	.loc 2 831 11 view .LVU41
	bl	__nrfy_internal_spim_event_handle
.LVL10:
	.loc 2 833 4 is_stmt 1 view .LVU42
	.loc 2 833 16 is_stmt 0 view .LVU43
	mov	r2, #260
	mov	r1, r5
	mov	r0, r4
	bl	__nrfy_internal_spim_event_handle
.LVL11:
	.loc 2 836 9 view .LVU44
	mov	r2, #280
	.loc 2 833 16 view .LVU45
	mov	r7, r0
.LVL12:
	.loc 2 835 4 is_stmt 1 view .LVU46
	.loc 2 836 5 view .LVU47
	.loc 2 836 9 is_stmt 0 view .LVU48
	mov	r1, r5
	mov	r0, r4
	bl	__nrfy_internal_spim_event_handle
.LVL13:
	.loc 2 836 8 view .LVU49
	mov	r6, r0
	cbz	r0, .L6
	.loc 2 836 87 discriminator 1 view .LVU50
	cmp	r8, #0
	beq	.L8
.LBB256:
	.loc 2 838 9 is_stmt 1 view .LVU51
	.loc 2 838 60 is_stmt 0 view .LVU52
	cbz	r7, .L6
.LVL14:
.LBB257:
.LBI257:
	.loc 3 1437 24 is_stmt 1 view .LVU53
.LBB258:
	.loc 3 1442 5 view .LVU54
	.loc 3 1442 22 is_stmt 0 view .LVU55
	ldr	r3, [r4, #1340]
.LVL15:
	.loc 3 1442 22 view .LVU56
.LBE258:
.LBE257:
	.loc 2 840 21 view .LVU57
	mov	r6, r7
.L6:
.LVL16:
	.loc 2 840 21 view .LVU58
.LBE256:
	.loc 2 843 5 is_stmt 1 view .LVU59
	.loc 2 843 9 is_stmt 0 view .LVU60
	add	r3, sp, #4
	mov	r2, #272
	mov	r1, r5
	mov	r0, r4
	bl	__nrfy_internal_spim_event_handle
.LVL17:
	.loc 2 843 8 view .LVU61
	cbz	r0, .L7
	.loc 2 843 89 discriminator 1 view .LVU62
	cmp	r8, #0
	beq	.L7
	.loc 2 844 16 view .LVU63
	cbnz	r6, .L7
.LBB259:
	.loc 2 846 9 is_stmt 1 view .LVU64
	.loc 2 846 60 is_stmt 0 view .LVU65
	cbz	r7, .L7
.LVL18:
.LBB260:
.LBI260:
	.loc 3 1437 24 is_stmt 1 view .LVU66
.LBB261:
	.loc 3 1442 5 view .LVU67
	.loc 3 1442 22 is_stmt 0 view .LVU68
	ldr	r3, [r4, #1340]
.LVL19:
.L7:
	.loc 3 1442 22 view .LVU69
.LBE261:
.LBE260:
	.loc 2 847 9 is_stmt 1 view .LVU70
	.loc 2 847 14 view .LVU71
	.loc 2 847 41 view .LVU72
	.loc 2 847 12 view .LVU73
.LBE259:
	.loc 2 850 5 view .LVU74
	.loc 2 850 11 is_stmt 0 view .LVU75
	add	r3, sp, #4
	mov	r2, #288
	mov	r1, r5
	mov	r0, r4
	bl	__nrfy_internal_spim_event_handle
.LVL20:
	.loc 2 852 5 is_stmt 1 view .LVU76
	.loc 2 853 1 is_stmt 0 view .LVU77
	ldr	r0, [sp, #4]
	add	sp, sp, #8
	.cfi_remember_state
	.cfi_def_cfa_offset 24
	@ sp needed
	pop	{r4, r5, r6, r7, r8, pc}
.LVL21:
.L8:
	.cfi_restore_state
	.loc 2 835 9 view .LVU78
	mov	r6, r8
	b	.L6
	.cfi_endproc
.LFE783:
	.size	__nrfy_internal_spim_events_process, .-__nrfy_internal_spim_events_process
	.section	.text.nrf_gpio_pin_port_decode,"ax",%progbits
	.align	1
	.syntax unified
	.thumb
	.thumb_func
	.type	nrf_gpio_pin_port_decode, %function
nrf_gpio_pin_port_decode:
.LVL22:
.LFB785:
	.file 5 "/home/g/mise-work/zmk-firmware/zmk/modules/hal/nordic/nrfx/hal/nrf_gpio.h"
	.loc 5 892 1 is_stmt 1 view -0
	.cfi_startproc
	@ args = 0, pretend = 0, frame = 0
	@ frame_needed = 0, uses_anonymous_args = 0
	@ link register save eliminated.
	.loc 5 893 7 view .LVU80
	.loc 5 893 8 view .LVU81
	.loc 5 895 5 view .LVU82
	.loc 5 897 5 view .LVU83
.LBB262:
.LBI262:
	.loc 5 1449 24 view .LVU84
.LBB263:
	.loc 5 1451 5 view .LVU85
	.loc 5 1451 14 is_stmt 0 view .LVU86
	ldr	r3, [r0]
.LVL23:
	.loc 5 1452 5 is_stmt 1 view .LVU87
	.loc 5 1452 28 is_stmt 0 view .LVU88
	and	r2, r3, #31
.LBE263:
.LBE262:
	.loc 5 897 5 view .LVU89
	lsrs	r3, r3, #5
.LVL24:
.LBB265:
.LBB264:
	.loc 5 1452 12 view .LVU90
	str	r2, [r0]
.LVL25:
	.loc 5 1454 5 is_stmt 1 view .LVU91
	.loc 5 1454 5 is_stmt 0 view .LVU92
.LBE264:
.LBE265:
	.loc 5 897 5 view .LVU93
	beq	.L26
	.loc 5 895 21 view .LVU94
	cmp	r3, #1
	ldr	r0, .L28
.LVL26:
	.loc 5 895 21 view .LVU95
	it	ne
	movne	r0, #0
	bx	lr
.LVL27:
.L26:
	.loc 5 897 5 view .LVU96
	mov	r0, #1342177280
.LVL28:
	.loc 5 905 1 view .LVU97
	bx	lr
.L29:
	.align	2
.L28:
	.word	1342178048
	.cfi_endproc
.LFE785:
	.size	nrf_gpio_pin_port_decode, .-nrf_gpio_pin_port_decode
	.section	.text.nrf_gpio_pin_set,"ax",%progbits
	.align	1
	.syntax unified
	.thumb
	.thumb_func
	.type	nrf_gpio_pin_set, %function
nrf_gpio_pin_set:
.LVL29:
.LFB800:
	.loc 5 1121 1 is_stmt 1 view -0
	.cfi_startproc
	@ args = 0, pretend = 0, frame = 8
	@ frame_needed = 0, uses_anonymous_args = 0
	.loc 5 1122 5 view .LVU99
	.loc 5 1121 1 is_stmt 0 view .LVU100
	push	{r0, r1, r2, lr}
	.cfi_def_cfa_offset 16
	.cfi_offset 14, -4
	.loc 5 1121 1 view .LVU101
	str	r0, [sp, #4]
	.loc 5 1122 27 view .LVU102
	add	r0, sp, #4
.LVL30:
	.loc 5 1122 27 view .LVU103
	bl	nrf_gpio_pin_port_decode
.LVL31:
	.loc 5 1124 5 is_stmt 1 view .LVU104
	.loc 5 1124 36 is_stmt 0 view .LVU105
	ldr	r2, [sp, #4]
	movs	r3, #1
	lsls	r3, r3, r2
.LVL32:
.LBB266:
.LBI266:
	.loc 5 1269 20 is_stmt 1 view .LVU106
.LBB267:
	.loc 5 1271 5 view .LVU107
	.loc 5 1271 19 is_stmt 0 view .LVU108
	str	r3, [r0, #1288]
.LVL33:
	.loc 5 1271 19 view .LVU109
.LBE267:
.LBE266:
	.loc 5 1125 1 view .LVU110
	add	sp, sp, #12
	.cfi_def_cfa_offset 4
	@ sp needed
	ldr	pc, [sp], #4
	.cfi_endproc
.LFE800:
	.size	nrf_gpio_pin_set, .-nrf_gpio_pin_set
	.section	.text.nrf_gpio_pin_clear,"ax",%progbits
	.align	1
	.syntax unified
	.thumb
	.thumb_func
	.type	nrf_gpio_pin_clear, %function
nrf_gpio_pin_clear:
.LVL34:
.LFB801:
	.loc 5 1129 1 is_stmt 1 view -0
	.cfi_startproc
	@ args = 0, pretend = 0, frame = 8
	@ frame_needed = 0, uses_anonymous_args = 0
	.loc 5 1130 5 view .LVU112
	.loc 5 1129 1 is_stmt 0 view .LVU113
	push	{r0, r1, r2, lr}
	.cfi_def_cfa_offset 16
	.cfi_offset 14, -4
	.loc 5 1129 1 view .LVU114
	str	r0, [sp, #4]
	.loc 5 1130 27 view .LVU115
	add	r0, sp, #4
.LVL35:
	.loc 5 1130 27 view .LVU116
	bl	nrf_gpio_pin_port_decode
.LVL36:
	.loc 5 1132 5 is_stmt 1 view .LVU117
	.loc 5 1132 38 is_stmt 0 view .LVU118
	ldr	r2, [sp, #4]
	movs	r3, #1
	lsls	r3, r3, r2
.LVL37:
.LBB268:
.LBI268:
	.loc 5 1275 20 is_stmt 1 view .LVU119
.LBB269:
	.loc 5 1277 5 view .LVU120
	.loc 5 1277 19 is_stmt 0 view .LVU121
	str	r3, [r0, #1292]
.LVL38:
	.loc 5 1277 19 view .LVU122
.LBE269:
.LBE268:
	.loc 5 1133 1 view .LVU123
	add	sp, sp, #12
	.cfi_def_cfa_offset 4
	@ sp needed
	ldr	pc, [sp], #4
	.cfi_endproc
.LFE801:
	.size	nrf_gpio_pin_clear, .-nrf_gpio_pin_clear
	.section	.text.spim_abort,"ax",%progbits
	.align	1
	.syntax unified
	.thumb
	.thumb_func
	.type	spim_abort, %function
spim_abort:
.LVL39:
.LFB897:
	.loc 1 206 1 is_stmt 1 view -0
	.cfi_startproc
	@ args = 0, pretend = 0, frame = 0
	@ frame_needed = 0, uses_anonymous_args = 0
	.loc 1 207 5 view .LVU125
.LBB287:
.LBI287:
	.loc 2 347 20 view .LVU126
	.loc 2 349 5 view .LVU127
.LBB288:
.LBI288:
	.loc 3 1130 20 view .LVU128
.LBB289:
	.loc 3 1133 5 view .LVU129
	.loc 3 1133 65 is_stmt 0 view .LVU130
	movs	r3, #1
.LBE289:
.LBE288:
.LBE287:
	.loc 1 206 1 view .LVU131
	push	{r4, r5, r6, lr}
	.cfi_def_cfa_offset 16
	.cfi_offset 4, -16
	.cfi_offset 5, -12
	.cfi_offset 6, -8
	.cfi_offset 14, -4
	.loc 1 206 1 view .LVU132
	mov	r4, r0
	mov	r5, r1
.LBB294:
.LBB292:
.LBB290:
	.loc 3 1133 65 view .LVU133
	str	r3, [r0, #20]
.LVL40:
	.loc 3 1133 65 view .LVU134
.LBE290:
.LBE292:
	.loc 2 350 5 is_stmt 1 view .LVU135
	.loc 2 360 5 view .LVU136
	.loc 2 360 5 is_stmt 0 view .LVU137
.LBE294:
	.loc 1 208 4 is_stmt 1 view .LVU138
	.loc 1 209 5 view .LVU139
	.loc 1 210 5 view .LVU140
.LBB295:
	.loc 1 210 10 view .LVU141
	.loc 1 210 6 view .LVU142
	.loc 1 210 6 is_stmt 0 view .LVU143
.LBE295:
.LBB298:
.LBB293:
.LBB291:
	.loc 3 1133 65 view .LVU144
	movs	r6, #100
.LVL41:
.L34:
	.loc 3 1133 65 view .LVU145
.LBE291:
.LBE293:
.LBE298:
.LBB299:
	.loc 1 210 43 is_stmt 1 discriminator 5 view .LVU146
	.loc 1 210 48 discriminator 5 view .LVU147
.LBB296:
.LBI296:
	.loc 2 290 24 discriminator 5 view .LVU148
.LBB297:
	.loc 2 294 5 discriminator 5 view .LVU149
	.loc 2 294 25 is_stmt 0 discriminator 5 view .LVU150
	movs	r2, #0
	movs	r1, #2
	mov	r0, r4
	bl	__nrfy_internal_spim_events_process
.LVL42:
	.loc 2 295 5 is_stmt 1 discriminator 5 view .LVU151
	.loc 2 296 5 discriminator 5 view .LVU152
	.loc 2 296 5 is_stmt 0 discriminator 5 view .LVU153
.LBE297:
.LBE296:
	.loc 1 210 51 discriminator 5 view .LVU154
	cbnz	r0, .L33
	.loc 1 210 15 is_stmt 1 discriminator 3 view .LVU155
	movs	r0, #1
	bl	nrfx_busy_wait
.LVL43:
	.loc 1 210 43 discriminator 3 view .LVU156
	.loc 1 210 43 is_stmt 0 discriminator 3 view .LVU157
	subs	r6, r6, #1
.LVL44:
	.loc 1 210 43 discriminator 3 view .LVU158
	bne	.L34
.L33:
.LVL45:
	.loc 1 210 43 discriminator 3 view .LVU159
.LBE299:
	.loc 1 210 8 is_stmt 1 view .LVU160
	.loc 1 211 5 view .LVU161
	.loc 1 213 12 view .LVU162
	.loc 1 215 5 view .LVU163
	.loc 1 215 32 is_stmt 0 view .LVU164
	movs	r3, #0
	strb	r3, [r5, #29]
	.loc 1 220 9 is_stmt 1 view .LVU165
.LVL46:
.LBB300:
.LBI300:
	.loc 2 561 20 view .LVU166
	.loc 2 563 5 view .LVU167
.LBB301:
.LBI301:
	.loc 3 1246 20 view .LVU168
.LBB302:
	.loc 3 1249 5 view .LVU169
.LBB303:
.LBI303:
	.file 6 "/home/g/mise-work/zmk-firmware/zmk/modules/hal/nordic/nrfx/mdk/nrf52_erratas.h"
	.loc 6 4826 12 view .LVU170
.LBB304:
	.loc 6 4847 13 view .LVU171
	.loc 6 4848 13 view .LVU172
	.loc 6 4848 22 is_stmt 0 view .LVU173
	mov	r1, #268435456
	.loc 6 4872 16 view .LVU174
	ldrd	r1, r2, [r1, #304]
	cmp	r1, #8
	bne	.L35
	.loc 6 4874 17 is_stmt 1 view .LVU175
	cmp	r2, #5
	bhi	.L35
.LVL47:
	.loc 6 4874 17 is_stmt 0 view .LVU176
.LBE304:
.LBE303:
	.loc 3 1249 8 view .LVU177
	ldr	r1, .L41
	ldrb	r2, [r1, r2]	@ zero_extendqisi2
	cbz	r2, .L35
.LBB305:
	.loc 3 1251 9 is_stmt 1 view .LVU178
	.loc 3 1254 58 is_stmt 0 view .LVU179
	mov	r2, #-1
	.loc 3 1251 18 view .LVU180
	ldr	r0, [r4, #1288]
.LVL48:
	.loc 3 1252 9 is_stmt 1 view .LVU181
	.loc 3 1252 18 is_stmt 0 view .LVU182
	ldr	r1, [r4, #1292]
.LVL49:
	.loc 3 1253 9 is_stmt 1 view .LVU183
	.loc 3 1253 58 is_stmt 0 view .LVU184
	str	r3, [r4, #1280]
	.loc 3 1254 9 is_stmt 1 view .LVU185
	.loc 3 1254 58 is_stmt 0 view .LVU186
	str	r2, [r4, #1288]
	.loc 3 1255 9 is_stmt 1 view .LVU187
	.loc 3 1255 58 is_stmt 0 view .LVU188
	str	r2, [r4, #1292]
	.loc 3 1256 9 is_stmt 1 view .LVU189
	.loc 3 1256 58 is_stmt 0 view .LVU190
	movs	r2, #9
	str	r2, [r4, #1280]
	.loc 3 1258 9 is_stmt 1 view .LVU191
	.loc 3 1258 23 is_stmt 0 view .LVU192
	str	r3, [r4, #1280]
	.loc 3 1260 9 is_stmt 1 view .LVU193
	.loc 3 1260 58 is_stmt 0 view .LVU194
	str	r0, [r4, #1288]
	.loc 3 1261 9 is_stmt 1 view .LVU195
	.loc 3 1261 58 is_stmt 0 view .LVU196
	str	r1, [r4, #1292]
.LVL50:
.L32:
	.loc 3 1261 58 view .LVU197
.LBE305:
.LBE302:
.LBE301:
.LBE300:
	.loc 1 222 1 view .LVU198
	pop	{r4, r5, r6, pc}
.LVL51:
.L35:
.LBB308:
.LBB307:
.LBB306:
	.loc 3 1266 9 is_stmt 1 view .LVU199
	.loc 3 1266 23 is_stmt 0 view .LVU200
	movs	r3, #0
	str	r3, [r4, #1280]
.LVL52:
	.loc 3 1266 23 view .LVU201
.LBE306:
.LBE307:
	.loc 2 564 5 is_stmt 1 view .LVU202
	.loc 2 564 5 is_stmt 0 view .LVU203
.LBE308:
	.loc 1 222 1 view .LVU204
	b	.L32
.L42:
	.align	2
.L41:
	.word	CSWTCH.1358
	.cfi_endproc
.LFE897:
	.size	spim_abort, .-spim_abort
	.section	.text.pin_init,"ax",%progbits
	.align	1
	.syntax unified
	.thumb
	.thumb_func
	.type	pin_init, %function
pin_init:
.LVL53:
.LFB898:
	.loc 1 229 1 is_stmt 1 view -0
	.cfi_startproc
	@ args = 4, pretend = 0, frame = 8
	@ frame_needed = 0, uses_anonymous_args = 0
	.loc 1 230 5 view .LVU206
	.loc 1 232 5 view .LVU207
	.loc 1 229 1 is_stmt 0 view .LVU208
	push	{r0, r1, r4, r5, r6, lr}
	.cfi_def_cfa_offset 24
	.cfi_offset 4, -16
	.cfi_offset 5, -12
	.cfi_offset 6, -8
	.cfi_offset 14, -4
	.loc 1 229 1 view .LVU209
	mov	r6, r2
	.loc 1 232 8 view .LVU210
	adds	r2, r0, #1
.LVL54:
	.loc 1 229 1 view .LVU211
	mov	r4, r3
	mov	r5, r0
	ldr	r3, [sp, #24]
.LVL55:
	.loc 1 232 8 view .LVU212
	beq	.L43
	.loc 1 237 5 is_stmt 1 view .LVU213
	.loc 1 237 8 is_stmt 0 view .LVU214
	cmp	r1, #1
	bne	.L45
	.loc 1 239 9 is_stmt 1 view .LVU215
	.loc 1 239 12 is_stmt 0 view .LVU216
	cbz	r3, .L46
	.loc 1 241 13 is_stmt 1 view .LVU217
.LVL56:
.LBB317:
.LBI317:
	.file 7 "/home/g/mise-work/zmk-firmware/zmk/modules/hal/nordic/nrfx/haly/nrfy_gpio.h"
	.loc 7 155 20 view .LVU218
.LBB318:
	.loc 7 157 5 view .LVU219
	bl	nrf_gpio_pin_set
.LVL57:
	.loc 7 158 5 view .LVU220
.L45:
	.loc 7 158 5 is_stmt 0 view .LVU221
.LBE318:
.LBE317:
	.loc 1 254 5 is_stmt 1 view .LVU222
.LBB319:
.LBI319:
	.loc 7 69 20 view .LVU223
.LBB320:
	.loc 7 76 5 view .LVU224
.LBB321:
.LBB322:
	.loc 5 936 27 is_stmt 0 view .LVU225
	add	r0, sp, #4
	str	r5, [sp, #4]
.LVL58:
	.loc 5 936 27 view .LVU226
.LBE322:
.LBI321:
	.loc 5 928 20 is_stmt 1 view .LVU227
.LBB323:
	.loc 5 936 5 view .LVU228
	.loc 5 936 27 is_stmt 0 view .LVU229
	bl	nrf_gpio_pin_port_decode
.LVL59:
	.loc 5 937 5 is_stmt 1 view .LVU230
	ldr	r3, [sp, #4]
	add	r0, r0, r3, lsl #2
.LVL60:
	.loc 5 956 29 is_stmt 0 view .LVU231
	lsls	r4, r4, #8
.LVL61:
	.loc 5 937 14 view .LVU232
	ldr	r2, [r0, #1792]
.LVL62:
	.loc 5 939 5 is_stmt 1 view .LVU233
	.loc 5 951 5 view .LVU234
	.loc 5 952 5 view .LVU235
	.loc 5 951 9 is_stmt 0 view .LVU236
	ldr	r3, .L52
	orr	r4, r4, r6, lsl #2
	orrs	r4, r4, r1
	ands	r3, r3, r2
.LVL63:
	.loc 5 951 9 view .LVU237
	orrs	r4, r4, r3
	.loc 5 952 9 view .LVU238
	orr	r1, r4, r1, lsl #1
.LVL64:
	.loc 5 962 5 is_stmt 1 view .LVU239
	.loc 5 962 30 is_stmt 0 view .LVU240
	str	r1, [r0, #1792]
.LVL65:
	.loc 5 962 30 view .LVU241
.LBE323:
.LBE321:
	.loc 7 77 5 is_stmt 1 view .LVU242
.L43:
	.loc 7 77 5 is_stmt 0 view .LVU243
.LBE320:
.LBE319:
	.loc 1 255 1 view .LVU244
	add	sp, sp, #8
	.cfi_remember_state
	.cfi_def_cfa_offset 16
	@ sp needed
	pop	{r4, r5, r6, pc}
.LVL66:
.L46:
	.cfi_restore_state
	.loc 1 245 13 is_stmt 1 view .LVU245
.LBB324:
.LBI324:
	.loc 7 162 20 view .LVU246
.LBB325:
	.loc 7 164 5 view .LVU247
	bl	nrf_gpio_pin_clear
.LVL67:
	.loc 7 165 5 view .LVU248
	.loc 7 166 1 is_stmt 0 view .LVU249
	b	.L45
.L53:
	.align	2
.L52:
	.word	-198416
.LBE325:
.LBE324:
	.cfi_endproc
.LFE898:
	.size	pin_init, .-pin_init
	.section	.text.spim_configuration_verify,"ax",%progbits
	.align	1
	.syntax unified
	.thumb
	.thumb_func
	.type	spim_configuration_verify, %function
spim_configuration_verify:
.LVL68:
.LFB902:
	.loc 1 390 1 is_stmt 1 view -0
	.cfi_startproc
	@ args = 0, pretend = 0, frame = 0
	@ frame_needed = 0, uses_anonymous_args = 0
	@ link register save eliminated.
	.loc 1 391 5 view .LVU251
	.loc 1 392 5 view .LVU252
	.loc 1 392 57 is_stmt 0 view .LVU253
	ldr	r3, [r1, #20]
.LVL69:
.LBB354:
.LBI354:
	.loc 1 305 12 is_stmt 1 view .LVU254
.LBB355:
	.loc 1 307 5 view .LVU255
	.loc 1 308 5 view .LVU256
	ldr	r2, .L73
	cmp	r3, r2
	beq	.L55
	bhi	.L56
	ldr	r2, .L73+4
	cmp	r3, r2
	beq	.L55
	bhi	.L57
	ldr	r2, .L73+8
	cmp	r3, r2
	beq	.L55
	ldr	r2, .L73+12
.L71:
	cmp	r3, r2
	beq	.L55
.L69:
	.loc 1 308 5 is_stmt 0 view .LVU257
	ldr	r0, .L73+16
.LVL70:
	.loc 1 308 5 view .LVU258
	bx	lr
.LVL71:
.L57:
	.loc 1 308 5 view .LVU259
	ldr	r2, .L73+20
	b	.L71
.L56:
	ldr	r2, .L73+24
	cmp	r3, r2
	beq	.L59
	bhi	.L60
	ldr	r2, .L73+28
	cmp	r3, r2
	beq	.L55
	ldr	r2, .L73+32
	b	.L71
.L60:
	ldr	r2, .L73+36
	cmp	r3, r2
	bne	.L69
.LVL72:
.L59:
	.loc 1 308 5 view .LVU260
.LBE355:
.LBE354:
.LBB356:
.LBI356:
	.loc 1 388 19 is_stmt 1 discriminator 3 view .LVU261
.LBB357:
	.loc 1 403 132 is_stmt 0 discriminator 3 view .LVU262
	ldrb	r2, [r0, #4]	@ zero_extendqisi2
	.loc 1 413 16 discriminator 3 view .LVU263
	ldr	r0, .L73+40
.LVL73:
	.loc 1 403 118 discriminator 3 view .LVU264
	movs	r3, #1
	lsls	r3, r3, r2
	.loc 1 413 16 discriminator 3 view .LVU265
	ldr	r2, .L73+44
	cmp	r3, #3
	it	ls
	movls	r0, r2
	bx	lr
.LVL74:
.L55:
	.loc 1 413 16 discriminator 3 view .LVU266
.LBE357:
.LBE356:
	.loc 1 403 178 discriminator 4 view .LVU267
	ldrb	r3, [r1, #33]	@ zero_extendqisi2
	cbz	r3, .L61
	.loc 1 404 31 view .LVU268
	ldr	r3, [r1, #12]
	adds	r3, r3, #1
	bne	.L59
.L61:
	.loc 1 405 73 discriminator 1 view .LVU269
	ldr	r3, [r1, #28]
	adds	r3, r3, #1
	bne	.L59
	.loc 1 451 12 view .LVU270
	ldr	r0, .L73+40
.LVL75:
	.loc 1 452 1 view .LVU271
	bx	lr
.L74:
	.align	2
.L73:
	.word	2000000
	.word	500000
	.word	125000
	.word	250000
	.word	195887108
	.word	1000000
	.word	16000000
	.word	4000000
	.word	8000000
	.word	32000000
	.word	195887104
	.word	195887107
	.cfi_endproc
.LFE902:
	.size	spim_configuration_verify, .-spim_configuration_verify
	.section	.text.spim_configure,"ax",%progbits
	.align	1
	.syntax unified
	.thumb
	.thumb_func
	.type	spim_configure, %function
spim_configure:
.LVL76:
.LFB903:
	.loc 1 456 1 is_stmt 1 view -0
	.cfi_startproc
	@ args = 0, pretend = 0, frame = 8
	@ frame_needed = 0, uses_anonymous_args = 0
	.loc 1 456 1 is_stmt 0 view .LVU273
	push	{r4, r5, r6, r7, r8, r9, r10, fp, lr}
	.cfi_def_cfa_offset 36
	.cfi_offset 4, -36
	.cfi_offset 5, -32
	.cfi_offset 6, -28
	.cfi_offset 7, -24
	.cfi_offset 8, -20
	.cfi_offset 9, -16
	.cfi_offset 10, -12
	.cfi_offset 11, -8
	.cfi_offset 14, -4
.LBB422:
.LBB423:
	.loc 1 339 5 view .LVU274
	ldr	r3, .L102
.LBE423:
.LBE422:
	.loc 1 460 72 view .LVU275
	ldr	r5, [r1, #20]
	.loc 1 457 51 view .LVU276
	ldrb	r9, [r0, #4]	@ zero_extendqisi2
.LBB428:
.LBB424:
	.loc 1 339 5 view .LVU277
	cmp	r5, r3
.LBE424:
.LBE428:
	.loc 1 456 1 view .LVU278
	sub	sp, sp, #20
	.cfi_def_cfa_offset 56
	.loc 1 456 1 view .LVU279
	mov	r6, r0
	.loc 1 457 5 is_stmt 1 view .LVU280
.LVL77:
	.loc 1 460 5 view .LVU281
.LBB429:
.LBI422:
	.loc 1 337 29 view .LVU282
.LBB425:
	.loc 1 339 5 view .LVU283
.LBE425:
.LBE429:
	.loc 1 456 1 is_stmt 0 view .LVU284
	mov	r4, r1
.LBB430:
.LBB426:
	.loc 1 339 5 view .LVU285
	beq	.L89
	bhi	.L77
	ldr	r3, .L102+4
	cmp	r5, r3
	beq	.L90
	bhi	.L78
	ldr	r3, .L102+8
	cmp	r5, r3
	beq	.L91
	.loc 1 352 20 view .LVU286
	ldr	r3, .L102+12
	cmp	r5, r3
	ite	eq
	moveq	r5, #67108864
	movne	r5, #1073741824
.LVL78:
.L76:
	.loc 1 352 20 view .LVU287
.LBE426:
.LBE430:
	.loc 1 465 5 is_stmt 1 view .LVU288
	.loc 1 465 25 is_stmt 0 view .LVU289
	ldr	r7, .L102+16
	.loc 1 465 35 view .LVU290
	ldrb	r0, [r4, #35]	@ zero_extendqisi2
.LVL79:
	.loc 1 465 25 view .LVU291
	movs	r2, #36
	mla	r3, r2, r9, r7
	ldrb	r1, [r3, #30]	@ zero_extendqisi2
.LVL80:
	.loc 1 465 25 view .LVU292
	bfi	r1, r0, #0, #1
	strb	r1, [r3, #30]
	.loc 1 466 5 is_stmt 1 view .LVU293
.LVL81:
.LBB431:
.LBI431:
	.loc 1 257 13 view .LVU294
.LBB432:
	.loc 1 260 5 view .LVU295
	.loc 1 262 5 view .LVU296
	.loc 1 260 51 is_stmt 0 view .LVU297
	ldrb	r3, [r6, #4]	@ zero_extendqisi2
	.loc 1 262 36 view .LVU298
	ldrb	r1, [r4, #16]	@ zero_extendqisi2
	.loc 1 262 26 view .LVU299
	mla	r3, r2, r3, r7
	ldrb	r2, [r3, #30]	@ zero_extendqisi2
	bfi	r2, r1, #1, #1
	strb	r2, [r3, #30]
.LVL82:
	.loc 1 264 5 is_stmt 1 view .LVU300
	.loc 1 264 8 is_stmt 0 view .LVU301
	ldrb	r8, [r4, #35]	@ zero_extendqisi2
	cmp	r8, #0
	bne	.L79
	.loc 1 269 5 is_stmt 1 view .LVU302
	.loc 1 274 5 view .LVU303
	.loc 1 274 83 is_stmt 0 view .LVU304
	ldr	r2, [r4, #20]
	ldr	r3, .L102+20
	cmp	r2, r3
	ite	eq
	moveq	r10, #3
	movne	r10, #0
.LVL83:
	.loc 1 283 5 is_stmt 1 view .LVU305
	.loc 1 284 5 view .LVU306
	.loc 1 283 64 is_stmt 0 view .LVU307
	ldrb	r3, [r4, #24]	@ zero_extendqisi2
	cmp	r3, #1
	ite	ls
	movls	r3, #0
	movhi	r3, #1
	.loc 1 284 5 view .LVU308
	str	r3, [sp]
.LVL84:
	.loc 1 284 5 view .LVU309
	ldr	r0, [r4]
	mov	r3, r10
	mov	r2, r8
	movs	r1, #1
	bl	pin_init
.LVL85:
	.loc 1 289 5 is_stmt 1 view .LVU310
	str	r8, [sp]
	ldr	r0, [r4, #4]
	mov	r3, r10
	mov	r2, r8
	movs	r1, #1
	bl	pin_init
.LVL86:
	.loc 1 294 5 view .LVU311
	str	r8, [sp]
	ldrb	r2, [r4, #26]	@ zero_extendqisi2
	ldr	r0, [r4, #8]
	mov	r3, r10
	mov	r1, r8
	bl	pin_init
.LVL87:
	.loc 1 296 5 view .LVU312
	.loc 1 297 5 view .LVU313
	.loc 1 296 23 is_stmt 0 view .LVU314
	ldrb	r3, [r4, #16]	@ zero_extendqisi2
	.loc 1 296 14 view .LVU315
	eor	r3, r3, #1
	str	r3, [sp]
.LVL88:
	.loc 1 297 5 view .LVU316
	ldr	r0, [r4, #12]
	mov	r3, r10
	mov	r2, r8
	movs	r1, #1
	bl	pin_init
.LVL89:
	.loc 1 300 5 is_stmt 1 view .LVU317
	movs	r1, #1
	str	r1, [sp]
	ldr	r0, [r4, #28]
	mov	r3, r10
	mov	r2, r8
	bl	pin_init
.LVL90:
.L79:
	.loc 1 300 5 is_stmt 0 view .LVU318
.LBE432:
.LBE431:
	.loc 1 469 4 is_stmt 1 view .LVU319
	.loc 1 470 4 view .LVU320
	.loc 1 469 48 is_stmt 0 view .LVU321
	ldrb	r2, [r6, #4]	@ zero_extendqisi2
	.loc 1 469 34 view .LVU322
	movs	r3, #1
	lsls	r3, r3, r2
	.loc 1 470 36 view .LVU323
	cmp	r3, #3
	bls	.L81
	.loc 1 470 36 discriminator 1 view .LVU324
	ldrb	r3, [r4, #33]	@ zero_extendqisi2
	cmp	r3, #0
	beq	.L81
.LVL91:
	.loc 1 471 5 is_stmt 1 view .LVU325
	.loc 1 473 9 view .LVU326
	.loc 1 473 22 is_stmt 0 view .LVU327
	movs	r3, #36
	mla	r3, r3, r9, r7
	mov	r2, #-1
	str	r2, [r3, #32]
.LVL92:
	.loc 1 482 5 is_stmt 1 view .LVU328
	.loc 1 488 33 is_stmt 0 view .LVU329
	ldr	r3, [r4, #8]
	str	r3, [sp, #12]
	.loc 1 487 33 view .LVU330
	ldrd	r10, r9, [r4]
.LVL93:
	.loc 1 507 36 view .LVU331
	ldr	r3, [r4, #28]
	.loc 1 490 24 view .LVU332
	ldrb	r8, [r4, #18]	@ zero_extendqisi2
	.loc 1 496 25 view .LVU333
	ldrb	r2, [r4, #24]	@ zero_extendqisi2
	.loc 1 497 30 view .LVU334
	ldrb	lr, [r4, #25]	@ zero_extendqisi2
	.loc 1 512 55 view .LVU335
	ldr	ip, [r4, #12]
	.loc 1 518 108 view .LVU336
	ldrb	r0, [r4, #16]	@ zero_extendqisi2
	.loc 1 482 24 view .LVU337
	ldrb	r1, [r4, #34]	@ zero_extendqisi2
	.loc 1 507 36 view .LVU338
	str	r3, [sp, #8]
.LVL94:
.L82:
	.loc 1 530 45 discriminator 4 view .LVU339
	ldrb	fp, [r6, #4]	@ zero_extendqisi2
	.loc 1 530 31 discriminator 4 view .LVU340
	movs	r3, #1
	lsl	r3, r3, fp
	.loc 1 482 24 discriminator 4 view .LVU341
	cmp	r3, #3
	it	hi
	ldrbhi	fp, [r4, #32]	@ zero_extendqisi2
.LBB433:
.LBB434:
	.loc 2 212 8 discriminator 4 view .LVU342
	ldrb	r4, [r4, #36]	@ zero_extendqisi2
.LVL95:
	.loc 2 212 8 discriminator 4 view .LVU343
.LBE434:
.LBE433:
	.loc 1 540 42 discriminator 4 view .LVU344
	ldr	r3, [r6]
	.loc 1 482 24 discriminator 4 view .LVU345
	it	ls
	movls	fp, #2
	.loc 1 540 5 is_stmt 1 discriminator 4 view .LVU346
.LVL96:
.LBB457:
.LBI433:
	.loc 2 209 20 discriminator 4 view .LVU347
.LBB455:
	.loc 2 212 5 discriminator 4 view .LVU348
	.loc 2 212 8 is_stmt 0 discriminator 4 view .LVU349
	cbnz	r4, .L84
	.loc 2 214 9 is_stmt 1 view .LVU350
.LVL97:
.LBB435:
.LBI435:
	.loc 3 1275 20 view .LVU351
.LBB436:
	.loc 3 1280 5 view .LVU352
	.loc 3 1282 22 is_stmt 0 view .LVU353
	ldr	r4, [sp, #12]
	.loc 3 1280 21 view .LVU354
	str	r10, [r3, #1288]
	.loc 3 1281 5 is_stmt 1 view .LVU355
	.loc 3 1281 22 is_stmt 0 view .LVU356
	str	r9, [r3, #1292]
	.loc 3 1282 5 is_stmt 1 view .LVU357
	.loc 3 1282 22 is_stmt 0 view .LVU358
	str	r4, [r3, #1296]
.LVL98:
	.loc 3 1282 22 view .LVU359
.LBE436:
.LBE435:
	.loc 2 217 9 is_stmt 1 view .LVU360
.LBB437:
.LBI437:
	.loc 3 1326 20 view .LVU361
.LBB438:
	.loc 3 1331 5 view .LVU362
	.loc 3 1331 20 is_stmt 0 view .LVU363
	ldr	r4, [sp, #8]
	str	r4, [r3, #1388]
.LVL99:
	.loc 3 1331 20 view .LVU364
.LBE438:
.LBE437:
	.loc 2 220 9 is_stmt 1 view .LVU365
.LBB439:
.LBI439:
	.loc 3 1301 20 view .LVU366
.LBB440:
	.loc 3 1309 5 view .LVU367
	.loc 3 1309 21 is_stmt 0 view .LVU368
	str	ip, [r3, #1300]
	.loc 3 1311 5 is_stmt 1 view .LVU369
	.loc 3 1311 19 is_stmt 0 view .LVU370
	str	r0, [r3, #1384]
	.loc 3 1312 5 is_stmt 1 view .LVU371
	.loc 3 1312 28 is_stmt 0 view .LVU372
	str	r1, [r3, #1380]
.LVL100:
.L84:
	.loc 3 1312 28 view .LVU373
.LBE440:
.LBE439:
	.loc 2 226 5 is_stmt 1 view .LVU374
.LBB441:
.LBI441:
	.loc 3 1487 20 view .LVU375
.LBB442:
	.loc 3 1490 5 view .LVU376
.LBE442:
.LBE441:
.LBB444:
.LBB445:
	.loc 3 1460 15 is_stmt 0 view .LVU377
	subs	r1, lr, #0
	it	ne
	movne	r1, #1
	.loc 3 1461 5 view .LVU378
	cmp	r2, #2
.LBE445:
.LBE444:
.LBB448:
.LBB443:
	.loc 3 1490 16 view .LVU379
	str	r8, [r3, #1472]
.LVL101:
	.loc 3 1490 16 view .LVU380
.LBE443:
.LBE448:
	.loc 2 228 5 is_stmt 1 view .LVU381
.LBB449:
.LBI449:
	.loc 3 1381 20 view .LVU382
.LBB450:
	.loc 3 1384 5 view .LVU383
	.loc 3 1384 22 is_stmt 0 view .LVU384
	str	r5, [r3, #1316]
.LVL102:
	.loc 3 1384 22 view .LVU385
.LBE450:
.LBE449:
	.loc 2 232 5 is_stmt 1 view .LVU386
.LBB451:
.LBI444:
	.loc 3 1455 20 view .LVU387
.LBB446:
	.loc 3 1459 5 view .LVU388
	.loc 3 1461 5 view .LVU389
	beq	.L85
	.loc 3 1461 5 is_stmt 0 view .LVU390
	cmp	r2, #3
	beq	.L86
	cmp	r2, #1
	bne	.L87
	.loc 3 1470 9 is_stmt 1 view .LVU391
	.loc 3 1470 16 is_stmt 0 view .LVU392
	orr	r1, r1, #2
.LVL103:
	.loc 3 1472 9 is_stmt 1 view .LVU393
.L87:
	.loc 3 1484 5 view .LVU394
	.loc 3 1484 19 is_stmt 0 view .LVU395
	str	r1, [r3, #1364]
.LVL104:
	.loc 3 1484 19 view .LVU396
.LBE446:
.LBE451:
	.loc 2 234 5 is_stmt 1 view .LVU397
.LBB452:
.LBI452:
	.loc 3 1351 20 view .LVU398
.LBB453:
	.loc 3 1354 5 view .LVU399
	.loc 3 1354 29 is_stmt 0 view .LVU400
	str	fp, [r3, #1376]
.LVL105:
	.loc 3 1354 29 view .LVU401
.LBE453:
.LBE452:
	.loc 2 236 5 is_stmt 1 view .LVU402
	.loc 2 236 5 is_stmt 0 view .LVU403
.LBE455:
.LBE457:
	.loc 1 541 5 is_stmt 1 view .LVU404
	.loc 1 541 24 is_stmt 0 view .LVU405
	ldrb	r3, [r6, #4]	@ zero_extendqisi2
	.loc 1 541 39 view .LVU406
	movs	r2, #36
	muls	r3, r2, r3
	.loc 1 541 8 view .LVU407
	ldr	r3, [r7, r3]
	cmp	r3, #0
	beq	.L75
	.loc 1 543 9 is_stmt 1 view .LVU408
.LVL106:
.LBB458:
.LBI458:
	.loc 2 247 20 view .LVU409
.LBB459:
	.loc 2 252 5 view .LVU410
	.loc 2 253 5 view .LVU411
	.loc 2 254 5 view .LVU412
	.loc 2 255 5 view .LVU413
	.loc 2 256 5 view .LVU414
	.loc 2 258 5 view .LVU415
	.loc 2 259 5 view .LVU416
	.loc 2 260 5 view .LVU417
.LBB460:
.LBI460:
	.file 8 "/home/g/mise-work/zmk-firmware/zmk/modules/hal/nordic/nrfx/drivers/nrfx_common.h"
	.loc 8 664 25 view .LVU418
.LBB461:
	.loc 8 666 5 view .LVU419
	.loc 8 666 53 is_stmt 0 view .LVU420
	ldr	r0, [r6]
.LBE461:
.LBE460:
	.loc 2 260 5 view .LVU421
	sbfx	r0, r0, #12, #8
.LBE459:
.LBE458:
	.loc 1 545 1 view .LVU422
	add	sp, sp, #20
	.cfi_remember_state
	.cfi_def_cfa_offset 36
	@ sp needed
	pop	{r4, r5, r6, r7, r8, r9, r10, fp, lr}
	.cfi_restore 14
	.cfi_restore 11
	.cfi_restore 10
	.cfi_restore 9
	.cfi_restore 8
	.cfi_restore 7
	.cfi_restore 6
	.cfi_restore 5
	.cfi_restore 4
	.cfi_def_cfa_offset 0
.LVL107:
.LBB463:
.LBB462:
	.loc 2 260 5 view .LVU423
	b	arch_irq_enable
.LVL108:
.L78:
	.cfi_restore_state
	.loc 2 260 5 view .LVU424
.LBE462:
.LBE463:
.LBB464:
.LBB427:
	.loc 1 352 20 view .LVU425
	ldr	r3, .L102+24
	cmp	r5, r3
	ite	eq
	moveq	r5, #268435456
	movne	r5, #1073741824
.LVL109:
	.loc 1 352 20 view .LVU426
	b	.L76
.LVL110:
.L77:
	.loc 1 339 5 view .LVU427
	ldr	r3, .L102+28
	cmp	r5, r3
	beq	.L94
	ldr	r3, .L102+20
	cmp	r5, r3
	beq	.L95
	.loc 1 352 20 view .LVU428
	ldr	r3, .L102+32
	cmp	r5, r3
	ite	eq
	moveq	r5, #-2147483648
	movne	r5, #1073741824
.LVL111:
	.loc 1 352 20 view .LVU429
	b	.L76
.LVL112:
.L89:
	.loc 1 350 20 view .LVU430
	mov	r5, #536870912
.LVL113:
	.loc 1 350 20 view .LVU431
	b	.L76
.LVL114:
.L90:
	.loc 1 346 20 view .LVU432
	mov	r5, #134217728
.LVL115:
	.loc 1 346 20 view .LVU433
	b	.L76
.LVL116:
.L91:
	.loc 1 342 20 view .LVU434
	mov	r5, #33554432
.LVL117:
	.loc 1 342 20 view .LVU435
	b	.L76
.LVL118:
.L94:
	.loc 1 357 20 view .LVU436
	mov	r5, #167772160
.LVL119:
	.loc 1 357 20 view .LVU437
	b	.L76
.LVL120:
.L95:
	.loc 1 361 20 view .LVU438
	mov	r5, #335544320
.LVL121:
	.loc 1 361 20 view .LVU439
	b	.L76
.LVL122:
.L81:
	.loc 1 361 20 view .LVU440
.LBE427:
.LBE464:
	.loc 1 471 5 is_stmt 1 view .LVU441
	.loc 1 478 9 view .LVU442
	.loc 1 478 22 is_stmt 0 view .LVU443
	movs	r2, #36
	mla	r9, r2, r9, r7
.LVL123:
	.loc 1 478 32 view .LVU444
	ldr	r3, [r4, #12]
	.loc 1 478 22 view .LVU445
	str	r3, [r9, #32]
.LVL124:
	.loc 1 479 9 is_stmt 1 view .LVU446
	.loc 1 479 40 is_stmt 0 view .LVU447
	ldrb	r2, [r4, #16]	@ zero_extendqisi2
	.loc 1 479 30 view .LVU448
	ldrb	r3, [r9, #30]	@ zero_extendqisi2
	bfi	r3, r2, #1, #1
	strb	r3, [r9, #30]
	.loc 1 482 5 is_stmt 1 view .LVU449
	.loc 1 488 33 is_stmt 0 view .LVU450
	ldr	r3, [r4, #8]
	str	r3, [sp, #12]
	.loc 1 507 36 view .LVU451
	ldr	r3, [r4, #28]
	.loc 1 490 24 view .LVU452
	ldrb	r8, [r4, #18]	@ zero_extendqisi2
	.loc 1 496 25 view .LVU453
	ldrb	r2, [r4, #24]	@ zero_extendqisi2
	.loc 1 497 30 view .LVU454
	ldrb	lr, [r4, #25]	@ zero_extendqisi2
	.loc 1 507 36 view .LVU455
	str	r3, [sp, #8]
	.loc 1 487 33 view .LVU456
	ldrd	r10, r9, [r4]
	.loc 1 518 108 view .LVU457
	movs	r0, #0
	.loc 1 512 55 view .LVU458
	mov	ip, #-1
	.loc 1 482 24 view .LVU459
	movs	r1, #2
	b	.L82
.LVL125:
.L85:
.LBB465:
.LBB456:
.LBB454:
.LBB447:
	.loc 3 1475 9 is_stmt 1 view .LVU460
	.loc 3 1475 16 is_stmt 0 view .LVU461
	orr	r1, r1, #4
.LVL126:
	.loc 3 1477 9 is_stmt 1 view .LVU462
	b	.L87
.L86:
	.loc 3 1480 9 view .LVU463
	.loc 3 1480 16 is_stmt 0 view .LVU464
	orr	r1, r1, #6
.LVL127:
	.loc 3 1482 9 is_stmt 1 view .LVU465
	b	.L87
.LVL128:
.L75:
	.loc 3 1482 9 is_stmt 0 view .LVU466
.LBE447:
.LBE454:
.LBE456:
.LBE465:
	.loc 1 545 1 view .LVU467
	add	sp, sp, #20
	.cfi_def_cfa_offset 36
	@ sp needed
	pop	{r4, r5, r6, r7, r8, r9, r10, fp, pc}
.LVL129:
.L103:
	.loc 1 545 1 view .LVU468
	.align	2
.L102:
	.word	2000000
	.word	500000
	.word	125000
	.word	250000
	.word	m_cb
	.word	32000000
	.word	1000000
	.word	16000000
	.word	8000000
	.cfi_endproc
.LFE903:
	.size	spim_configure, .-spim_configure
	.section	.text.spim_pin_uninit,"ax",%progbits
	.align	1
	.syntax unified
	.thumb
	.thumb_func
	.type	spim_pin_uninit, %function
spim_pin_uninit:
.LVL130:
.LFB906:
	.loc 1 636 1 is_stmt 1 view -0
	.cfi_startproc
	@ args = 0, pretend = 0, frame = 8
	@ frame_needed = 0, uses_anonymous_args = 0
	.loc 1 637 5 view .LVU470
	.loc 1 637 8 is_stmt 0 view .LVU471
	adds	r3, r0, #1
	.loc 1 636 1 view .LVU472
	push	{r0, r1, r2, lr}
	.cfi_def_cfa_offset 16
	.cfi_offset 14, -4
	.loc 1 637 8 view .LVU473
	beq	.L104
	.loc 1 642 5 is_stmt 1 view .LVU474
.LVL131:
.LBB472:
.LBI472:
	.loc 7 107 20 view .LVU475
	.loc 7 109 5 view .LVU476
.LBB473:
.LBI473:
	.loc 5 1052 20 view .LVU477
.LBB474:
	.loc 5 1054 5 view .LVU478
	str	r0, [sp, #4]
.LVL132:
.LBB475:
.LBI475:
	.loc 5 928 20 view .LVU479
.LBB476:
	.loc 5 936 5 view .LVU480
	.loc 5 936 27 is_stmt 0 view .LVU481
	add	r0, sp, #4
.LVL133:
	.loc 5 936 27 view .LVU482
	bl	nrf_gpio_pin_port_decode
.LVL134:
	.loc 5 937 5 is_stmt 1 view .LVU483
	ldr	r3, [sp, #4]
	add	r0, r0, r3, lsl #2
.LVL135:
	.loc 5 951 9 is_stmt 0 view .LVU484
	ldr	r3, .L109
	.loc 5 937 14 view .LVU485
	ldr	r2, [r0, #1792]
.LVL136:
	.loc 5 939 5 is_stmt 1 view .LVU486
	.loc 5 951 5 view .LVU487
	.loc 5 951 9 is_stmt 0 view .LVU488
	ands	r3, r3, r2
.LVL137:
	.loc 5 952 5 is_stmt 1 view .LVU489
	.loc 5 952 9 is_stmt 0 view .LVU490
	orr	r3, r3, #2
.LVL138:
	.loc 5 962 5 is_stmt 1 view .LVU491
	.loc 5 962 30 is_stmt 0 view .LVU492
	str	r3, [r0, #1792]
.LVL139:
.L104:
	.loc 5 962 30 view .LVU493
.LBE476:
.LBE475:
.LBE474:
.LBE473:
.LBE472:
	.loc 1 643 1 view .LVU494
	add	sp, sp, #12
	.cfi_def_cfa_offset 4
	@ sp needed
	ldr	pc, [sp], #4
.L110:
	.align	2
.L109:
	.word	-198416
	.cfi_endproc
.LFE906:
	.size	spim_pin_uninit, .-spim_pin_uninit
	.section	.text.irq_handler,"ax",%progbits
	.align	1
	.syntax unified
	.thumb
	.thumb_func
	.type	irq_handler, %function
irq_handler:
.LVL140:
.LFB915:
	.loc 1 916 1 is_stmt 1 view -0
	.cfi_startproc
	@ args = 0, pretend = 0, frame = 0
	@ frame_needed = 0, uses_anonymous_args = 0
	.loc 1 938 5 view .LVU496
	.loc 1 916 1 is_stmt 0 view .LVU497
	push	{r4, r5, r6, lr}
	.cfi_def_cfa_offset 16
	.cfi_offset 4, -16
	.cfi_offset 5, -12
	.cfi_offset 6, -8
	.cfi_offset 14, -4
.LBB495:
.LBB496:
	.loc 2 294 25 view .LVU498
	add	r2, r1, #12
.LBE496:
.LBE495:
	.loc 1 916 1 view .LVU499
	mov	r4, r1
.LBB499:
.LBB497:
	.loc 2 294 25 view .LVU500
	movs	r1, #64
.LVL141:
	.loc 2 294 25 view .LVU501
.LBE497:
.LBE499:
	.loc 1 916 1 view .LVU502
	mov	r5, r0
.LVL142:
.LBB500:
.LBI495:
	.loc 2 290 24 is_stmt 1 view .LVU503
.LBB498:
	.loc 2 294 5 view .LVU504
	.loc 2 294 25 is_stmt 0 view .LVU505
	bl	__nrfy_internal_spim_events_process
.LVL143:
	.loc 2 295 5 is_stmt 1 view .LVU506
	.loc 2 296 5 view .LVU507
	.loc 2 296 5 is_stmt 0 view .LVU508
.LBE498:
.LBE500:
	.loc 1 938 8 view .LVU509
	cbz	r0, .L111
	.loc 1 948 11 is_stmt 1 view .LVU510
	.loc 1 948 12 view .LVU511
	.loc 1 949 9 view .LVU512
.LBB501:
	.loc 1 949 14 view .LVU513
.LBE501:
	.loc 1 949 12 view .LVU514
	.loc 1 950 9 view .LVU515
.LVL144:
.LBB502:
.LBI502:
	.loc 1 749 13 view .LVU516
.LBB503:
	.loc 1 752 5 view .LVU517
.LBB504:
.LBI504:
	.loc 1 720 13 view .LVU518
.LBB505:
	.loc 1 722 5 view .LVU519
	.loc 1 722 13 is_stmt 0 view .LVU520
	ldr	r0, [r4, #32]
	.loc 1 722 8 view .LVU521
	adds	r2, r0, #1
	beq	.L113
	.loc 1 724 9 is_stmt 1 view .LVU522
	.loc 1 724 13 is_stmt 0 view .LVU523
	ldrb	r3, [r4, #30]	@ zero_extendqisi2
	.loc 1 724 12 view .LVU524
	lsls	r3, r3, #30
	bpl	.L114
	.loc 1 726 13 is_stmt 1 view .LVU525
	.loc 1 732 17 view .LVU526
.LVL145:
.LBB506:
.LBI506:
	.loc 7 162 20 view .LVU527
.LBB507:
	.loc 7 164 5 view .LVU528
	bl	nrf_gpio_pin_clear
.LVL146:
	.loc 7 165 5 view .LVU529
.L113:
	.loc 7 165 5 is_stmt 0 view .LVU530
.LBE507:
.LBE506:
.LBE505:
.LBE504:
	.loc 1 756 5 is_stmt 1 view .LVU531
	.loc 1 756 13 is_stmt 0 view .LVU532
	ldrb	r3, [r4, #29]	@ zero_extendqisi2
	.loc 1 756 8 view .LVU533
	cbz	r3, .L115
	.loc 1 758 9 is_stmt 1 view .LVU534
	mov	r1, r4
	mov	r0, r5
	bl	spim_abort
.LVL147:
.L115:
	.loc 1 761 5 view .LVU535
	.loc 1 761 20 is_stmt 0 view .LVU536
	movs	r3, #0
	.loc 1 762 19 view .LVU537
	mov	r0, r4
	.loc 1 761 20 view .LVU538
	strb	r3, [r4, #8]
	.loc 1 762 5 is_stmt 1 view .LVU539
	ldr	r1, [r4, #4]
	ldr	r3, [r0], #8
.LBE503:
.LBE502:
	.loc 1 952 1 is_stmt 0 view .LVU540
	pop	{r4, r5, r6, lr}
	.cfi_remember_state
	.cfi_restore 14
	.cfi_restore 6
	.cfi_restore 5
	.cfi_restore 4
	.cfi_def_cfa_offset 0
.LVL148:
.LBB513:
.LBB512:
	.loc 1 762 5 view .LVU541
	bx	r3	@ indirect register sibling call
.LVL149:
.L114:
	.cfi_restore_state
.LBB511:
.LBB510:
	.loc 1 737 13 is_stmt 1 view .LVU542
	.loc 1 743 17 view .LVU543
.LBB508:
.LBI508:
	.loc 7 155 20 view .LVU544
.LBB509:
	.loc 7 157 5 view .LVU545
	bl	nrf_gpio_pin_set
.LVL150:
	.loc 7 158 5 view .LVU546
	.loc 7 159 1 is_stmt 0 view .LVU547
	b	.L113
.LVL151:
.L111:
	.loc 7 159 1 view .LVU548
.LBE509:
.LBE508:
.LBE510:
.LBE511:
.LBE512:
.LBE513:
	.loc 1 952 1 view .LVU549
	pop	{r4, r5, r6, pc}
	.loc 1 952 1 view .LVU550
	.cfi_endproc
.LFE915:
	.size	irq_handler, .-irq_handler
	.section	.text.nrfx_spim_init,"ax",%progbits
	.align	1
	.global	nrfx_spim_init
	.syntax unified
	.thumb
	.thumb_func
	.type	nrfx_spim_init, %function
nrfx_spim_init:
.LVL152:
.LFB904:
	.loc 1 551 1 is_stmt 1 view -0
	.cfi_startproc
	@ args = 0, pretend = 0, frame = 0
	@ frame_needed = 0, uses_anonymous_args = 0
	.loc 1 552 7 view .LVU552
	.loc 1 552 8 view .LVU553
	.loc 1 554 5 view .LVU554
	.loc 1 551 1 is_stmt 0 view .LVU555
	push	{r4, r5, r6, r7, r8, r9, r10, lr}
	.cfi_def_cfa_offset 32
	.cfi_offset 4, -32
	.cfi_offset 5, -28
	.cfi_offset 6, -24
	.cfi_offset 7, -20
	.cfi_offset 8, -16
	.cfi_offset 9, -12
	.cfi_offset 10, -8
	.cfi_offset 14, -4
	.loc 1 554 51 view .LVU556
	ldrb	r9, [r0, #4]	@ zero_extendqisi2
.LVL153:
	.loc 1 555 5 is_stmt 1 view .LVU557
	.loc 1 557 5 view .LVU558
	.loc 1 557 13 is_stmt 0 view .LVU559
	ldr	r4, .L127
	movs	r5, #36
	mul	r5, r5, r9
	add	r10, r4, r5
.LVL154:
	.loc 1 551 1 view .LVU560
	mov	r7, r3
	.loc 1 557 8 view .LVU561
	ldrb	r3, [r10, #28]	@ zero_extendqisi2
.LVL155:
	.loc 1 551 1 view .LVU562
	mov	r6, r0
	mov	r8, r2
	.loc 1 557 8 view .LVU563
	cbnz	r3, .L126
	.loc 1 570 5 is_stmt 1 view .LVU564
	.loc 1 570 8 is_stmt 0 view .LVU565
	cbnz	r1, .L124
	.loc 1 593 5 is_stmt 1 view .LVU566
	.loc 1 593 19 is_stmt 0 view .LVU567
	str	r2, [r4, r5]
	.loc 1 594 5 is_stmt 1 view .LVU568
	.loc 1 594 21 is_stmt 0 view .LVU569
	str	r7, [r10, #4]
	.loc 1 596 5 is_stmt 1 view .LVU570
.LVL156:
.L125:
	.loc 1 601 5 view .LVU571
	.loc 1 601 32 is_stmt 0 view .LVU572
	movs	r3, #36
	mla	r4, r3, r9, r4
	movs	r3, #0
	strb	r3, [r4, #29]
	.loc 1 602 5 is_stmt 1 view .LVU573
	.loc 1 606 12 is_stmt 0 view .LVU574
	ldr	r0, .L127+4
	.loc 1 602 17 view .LVU575
	movs	r3, #1
	strb	r3, [r4, #28]
	.loc 1 604 5 is_stmt 1 view .LVU576
.LVL157:
	.loc 1 605 5 view .LVU577
.LBB514:
	.loc 1 605 10 view .LVU578
.LBE514:
	.loc 1 605 8 view .LVU579
	.loc 1 606 5 view .LVU580
.L122:
	.loc 1 607 1 is_stmt 0 view .LVU581
	pop	{r4, r5, r6, r7, r8, r9, r10, pc}
.LVL158:
.L124:
	.loc 1 572 9 is_stmt 1 view .LVU582
	.loc 1 572 20 is_stmt 0 view .LVU583
	bl	spim_configuration_verify
.LVL159:
	.loc 1 573 9 is_stmt 1 view .LVU584
	.loc 1 573 12 is_stmt 0 view .LVU585
	ldr	r3, .L127+4
	cmp	r0, r3
	bne	.L122
	.loc 1 593 5 is_stmt 1 view .LVU586
	.loc 1 598 9 is_stmt 0 view .LVU587
	mov	r0, r6
.LVL160:
	.loc 1 593 19 view .LVU588
	str	r8, [r4, r5]
	.loc 1 594 5 is_stmt 1 view .LVU589
	.loc 1 594 21 is_stmt 0 view .LVU590
	str	r7, [r10, #4]
	.loc 1 596 5 is_stmt 1 view .LVU591
	.loc 1 598 9 view .LVU592
	bl	spim_configure
.LVL161:
	.loc 1 598 9 is_stmt 0 view .LVU593
	b	.L125
.LVL162:
.L126:
	.loc 1 567 16 view .LVU594
	ldr	r0, .L127+8
.LVL163:
	.loc 1 567 16 view .LVU595
	b	.L122
.L128:
	.align	2
.L127:
	.word	m_cb
	.word	195887104
	.word	195887109
	.cfi_endproc
.LFE904:
	.size	nrfx_spim_init, .-nrfx_spim_init
	.section	.text.nrfx_spim_reconfigure,"ax",%progbits
	.align	1
	.global	nrfx_spim_reconfigure
	.syntax unified
	.thumb
	.thumb_func
	.type	nrfx_spim_reconfigure, %function
nrfx_spim_reconfigure:
.LVL164:
.LFB905:
	.loc 1 611 1 is_stmt 1 view -0
	.cfi_startproc
	@ args = 0, pretend = 0, frame = 0
	@ frame_needed = 0, uses_anonymous_args = 0
	.loc 1 612 7 view .LVU597
	.loc 1 612 8 view .LVU598
	.loc 1 614 5 view .LVU599
	.loc 1 611 1 is_stmt 0 view .LVU600
	push	{r3, r4, r5, lr}
	.cfi_def_cfa_offset 16
	.cfi_offset 3, -16
	.cfi_offset 4, -12
	.cfi_offset 5, -8
	.cfi_offset 14, -4
	.loc 1 616 13 view .LVU601
	ldr	r3, .L133
	.loc 1 614 51 view .LVU602
	ldrb	r2, [r0, #4]	@ zero_extendqisi2
.LVL165:
	.loc 1 616 5 is_stmt 1 view .LVU603
	.loc 1 616 13 is_stmt 0 view .LVU604
	movs	r4, #36
	mla	r3, r4, r2, r3
.LVL166:
	.loc 1 611 1 view .LVU605
	mov	r5, r0
	.loc 1 616 8 view .LVU606
	ldrb	r2, [r3, #28]	@ zero_extendqisi2
	cbz	r2, .L131
	.loc 1 620 5 is_stmt 1 view .LVU607
	.loc 1 620 13 is_stmt 0 view .LVU608
	ldrb	r3, [r3, #29]	@ zero_extendqisi2
.LVL167:
	.loc 1 620 8 view .LVU609
	cbnz	r3, .L132
	.loc 1 624 5 is_stmt 1 view .LVU610
	.loc 1 624 27 is_stmt 0 view .LVU611
	bl	spim_configuration_verify
.LVL168:
	.loc 1 625 8 view .LVU612
	ldr	r3, .L133+4
	cmp	r0, r3
	.loc 1 624 27 view .LVU613
	mov	r4, r0
.LVL169:
	.loc 1 625 5 is_stmt 1 view .LVU614
	.loc 1 625 8 is_stmt 0 view .LVU615
	bne	.L129
	.loc 1 630 5 is_stmt 1 view .LVU616
	mov	r0, r5
.LVL170:
	.loc 1 630 5 is_stmt 0 view .LVU617
	bl	spim_configure
.LVL171:
	.loc 1 632 5 is_stmt 1 view .LVU618
.L129:
	.loc 1 633 1 is_stmt 0 view .LVU619
	mov	r0, r4
	pop	{r3, r4, r5, pc}
.LVL172:
.L131:
	.loc 1 618 16 view .LVU620
	ldr	r4, .L133+8
	b	.L129
.LVL173:
.L132:
	.loc 1 622 16 view .LVU621
	ldr	r4, .L133+12
	b	.L129
.L134:
	.align	2
.L133:
	.word	m_cb
	.word	195887104
	.word	195887109
	.word	195887115
	.cfi_endproc
.LFE905:
	.size	nrfx_spim_reconfigure, .-nrfx_spim_reconfigure
	.section	.text.nrfx_spim_uninit,"ax",%progbits
	.align	1
	.global	nrfx_spim_uninit
	.syntax unified
	.thumb
	.thumb_func
	.type	nrfx_spim_uninit, %function
nrfx_spim_uninit:
.LVL174:
.LFB907:
	.loc 1 646 1 is_stmt 1 view -0
	.cfi_startproc
	@ args = 0, pretend = 0, frame = 0
	@ frame_needed = 0, uses_anonymous_args = 0
	.loc 1 647 5 view .LVU623
	.loc 1 646 1 is_stmt 0 view .LVU624
	push	{r4, r5, r6, r7, r8, lr}
	.cfi_def_cfa_offset 24
	.cfi_offset 4, -24
	.cfi_offset 5, -20
	.cfi_offset 6, -16
	.cfi_offset 7, -12
	.cfi_offset 8, -8
	.cfi_offset 14, -4
	.loc 1 646 1 view .LVU625
	mov	r4, r0
	.loc 1 647 51 view .LVU626
	ldrb	r6, [r0, #4]	@ zero_extendqisi2
.LVL175:
	.loc 1 649 7 is_stmt 1 view .LVU627
	.loc 1 649 8 view .LVU628
	.loc 1 651 5 view .LVU629
.LBB538:
.LBI538:
	.loc 2 273 20 view .LVU630
.LBB539:
	.loc 2 275 5 view .LVU631
.LBB540:
.LBI540:
	.loc 8 664 25 view .LVU632
.LBB541:
	.loc 8 666 5 view .LVU633
	.loc 8 666 53 is_stmt 0 view .LVU634
	ldr	r0, [r0]
.LVL176:
	.loc 8 666 53 view .LVU635
.LBE541:
.LBE540:
.LBE539:
.LBE538:
	.loc 1 652 13 view .LVU636
	ldr	r5, .L143
.LBB543:
.LBB542:
	.loc 2 275 5 view .LVU637
	sbfx	r0, r0, #12, #8
.LVL177:
	.loc 2 275 5 view .LVU638
	bl	arch_irq_disable
.LVL178:
	.loc 2 276 5 is_stmt 1 view .LVU639
	.loc 2 276 5 is_stmt 0 view .LVU640
.LBE542:
.LBE543:
	.loc 1 652 5 is_stmt 1 view .LVU641
	.loc 1 652 13 is_stmt 0 view .LVU642
	movs	r3, #36
	muls	r3, r6, r3
	.loc 1 652 8 view .LVU643
	ldr	r3, [r5, r3]
	cbz	r3, .L136
	.loc 1 654 9 is_stmt 1 view .LVU644
	.loc 1 654 41 is_stmt 0 view .LVU645
	ldr	r3, [r4]
.LVL179:
.LBB544:
.LBI544:
	.loc 2 502 20 is_stmt 1 view .LVU646
	.loc 2 504 5 view .LVU647
.LBB545:
.LBI545:
	.loc 3 1184 20 view .LVU648
.LBB546:
	.loc 3 1187 5 view .LVU649
	.loc 3 1187 21 is_stmt 0 view .LVU650
	ldr	r2, .L143+4
	str	r2, [r3, #776]
.LVL180:
	.loc 3 1187 21 view .LVU651
.LBE546:
.LBE545:
	.loc 2 505 5 is_stmt 1 view .LVU652
	.loc 2 505 5 is_stmt 0 view .LVU653
.LBE544:
	.loc 1 655 9 is_stmt 1 view .LVU654
	.loc 1 647 28 is_stmt 0 view .LVU655
	add	r1, r6, r6, lsl #3
	.loc 1 655 9 view .LVU656
	ldr	r0, [r4]
	add	r1, r5, r1, lsl #2
	bl	spim_abort
.LVL181:
.L136:
	.loc 1 658 5 is_stmt 1 view .LVU657
	.loc 1 659 5 view .LVU658
	.loc 1 661 14 is_stmt 0 view .LVU659
	movs	r1, #36
	.loc 1 659 34 view .LVU660
	ldr	r3, [r4]
.LVL182:
.LBB547:
.LBI547:
	.loc 2 369 20 is_stmt 1 view .LVU661
	.loc 2 371 5 view .LVU662
.LBB548:
.LBI548:
	.loc 3 1285 24 view .LVU663
.LBB549:
	.loc 3 1287 5 view .LVU664
.LBE549:
.LBE548:
.LBE547:
	.loc 1 661 14 is_stmt 0 view .LVU665
	mla	r1, r1, r6, r5
.LBB556:
.LBB551:
.LBB550:
	.loc 3 1287 23 view .LVU666
	ldr	r0, [r3, #1288]
.LVL183:
	.loc 3 1287 23 view .LVU667
.LBE550:
.LBE551:
	.loc 2 372 5 is_stmt 1 view .LVU668
.LBB552:
.LBI552:
	.loc 3 1290 24 view .LVU669
.LBB553:
	.loc 3 1292 5 view .LVU670
	.loc 3 1292 23 is_stmt 0 view .LVU671
	ldr	r7, [r3, #1292]
.LVL184:
	.loc 3 1292 23 view .LVU672
.LBE553:
.LBE552:
	.loc 2 373 5 is_stmt 1 view .LVU673
.LBB554:
.LBI554:
	.loc 3 1295 24 view .LVU674
.LBB555:
	.loc 3 1297 5 view .LVU675
	.loc 3 1297 23 is_stmt 0 view .LVU676
	ldr	r8, [r3, #1296]
.LVL185:
	.loc 3 1297 23 view .LVU677
.LBE555:
.LBE554:
.LBE556:
	.loc 1 661 5 is_stmt 1 view .LVU678
	.loc 1 661 14 is_stmt 0 view .LVU679
	ldrb	r3, [r1, #30]	@ zero_extendqisi2
	.loc 1 661 8 view .LVU680
	lsls	r3, r3, #31
	bmi	.L138
	.loc 1 663 9 is_stmt 1 view .LVU681
	bl	spim_pin_uninit
.LVL186:
	.loc 1 664 9 view .LVU682
	mov	r0, r8
	bl	spim_pin_uninit
.LVL187:
	.loc 1 665 9 view .LVU683
	mov	r0, r7
	bl	spim_pin_uninit
.LVL188:
	.loc 1 666 9 view .LVU684
	ldr	r0, [r1, #32]
	bl	spim_pin_uninit
.LVL189:
	.loc 1 668 9 view .LVU685
	.loc 1 668 33 is_stmt 0 view .LVU686
	ldrb	r2, [r4, #4]	@ zero_extendqisi2
	.loc 1 668 19 view .LVU687
	movs	r3, #1
	lsls	r3, r3, r2
	.loc 1 668 12 view .LVU688
	cmp	r3, #3
	bls	.L138
.LBB557:
	.loc 1 671 13 is_stmt 1 view .LVU689
	.loc 1 672 13 view .LVU690
	.loc 1 672 46 is_stmt 0 view .LVU691
	ldr	r3, [r4]
.LVL190:
.LBB558:
.LBI558:
	.loc 2 383 20 is_stmt 1 view .LVU692
	.loc 2 386 5 view .LVU693
.LBB559:
.LBI559:
	.loc 3 1335 24 view .LVU694
.LBB560:
	.loc 3 1340 5 view .LVU695
	.loc 3 1340 17 is_stmt 0 view .LVU696
	ldr	r0, [r3, #1388]
.LVL191:
	.loc 3 1340 17 view .LVU697
.LBE560:
.LBE559:
	.loc 2 388 5 is_stmt 1 view .LVU698
.LBB561:
.LBI561:
	.loc 3 1315 24 view .LVU699
.LBB562:
	.loc 3 1320 5 view .LVU700
	.loc 3 1320 23 is_stmt 0 view .LVU701
	ldr	r1, [r3, #1300]
.LVL192:
	.loc 3 1320 23 view .LVU702
.LBE562:
.LBE561:
.LBE558:
	.loc 1 674 13 is_stmt 1 view .LVU703
	bl	spim_pin_uninit
.LVL193:
	.loc 1 677 13 view .LVU704
	mov	r0, r1
	bl	spim_pin_uninit
.LVL194:
.L138:
	.loc 1 677 13 is_stmt 0 view .LVU705
.LBE557:
	.loc 1 694 5 is_stmt 1 view .LVU706
	.loc 1 694 17 is_stmt 0 view .LVU707
	movs	r3, #36
	mla	r5, r3, r6, r5
	movs	r3, #0
	strb	r3, [r5, #28]
	.loc 1 695 5 is_stmt 1 view .LVU708
.LBB563:
	.loc 1 695 10 view .LVU709
.LBE563:
	.loc 1 695 8 view .LVU710
	.loc 1 696 1 is_stmt 0 view .LVU711
	pop	{r4, r5, r6, r7, r8, pc}
.LVL195:
.L144:
	.loc 1 696 1 view .LVU712
	.align	2
.L143:
	.word	m_cb
	.word	524626
	.cfi_endproc
.LFE907:
	.size	nrfx_spim_uninit, .-nrfx_spim_uninit
	.section	.text.nrfx_spim_init_check,"ax",%progbits
	.align	1
	.global	nrfx_spim_init_check
	.syntax unified
	.thumb
	.thumb_func
	.type	nrfx_spim_init_check, %function
nrfx_spim_init_check:
.LVL196:
.LFB908:
	.loc 1 699 1 is_stmt 1 view -0
	.cfi_startproc
	@ args = 0, pretend = 0, frame = 0
	@ frame_needed = 0, uses_anonymous_args = 0
	@ link register save eliminated.
	.loc 1 700 5 view .LVU714
	.loc 1 702 5 view .LVU715
	.loc 1 700 51 is_stmt 0 view .LVU716
	ldrb	r2, [r0, #4]	@ zero_extendqisi2
	.loc 1 702 17 view .LVU717
	ldr	r3, .L146
	movs	r1, #36
	mla	r3, r1, r2, r3
	.loc 1 702 25 view .LVU718
	ldrb	r0, [r3, #28]	@ zero_extendqisi2
.LVL197:
	.loc 1 703 1 view .LVU719
	subs	r0, r0, #0
	it	ne
	movne	r0, #1
	bx	lr
.L147:
	.align	2
.L146:
	.word	m_cb
	.cfi_endproc
.LFE908:
	.size	nrfx_spim_init_check, .-nrfx_spim_init_check
	.section	.text.nrfx_spim_xfer,"ax",%progbits
	.align	1
	.global	nrfx_spim_xfer
	.syntax unified
	.thumb
	.thumb_func
	.type	nrfx_spim_xfer, %function
nrfx_spim_xfer:
.LVL198:
.LFB913:
	.loc 1 857 1 is_stmt 1 view -0
	.cfi_startproc
	@ args = 0, pretend = 0, frame = 16
	@ frame_needed = 0, uses_anonymous_args = 0
	.loc 1 858 5 view .LVU721
	.loc 1 857 1 is_stmt 0 view .LVU722
	push	{r4, r5, r6, r7, r8, r9, lr}
	.cfi_def_cfa_offset 28
	.cfi_offset 4, -28
	.cfi_offset 5, -24
	.cfi_offset 6, -20
	.cfi_offset 7, -16
	.cfi_offset 8, -12
	.cfi_offset 9, -8
	.cfi_offset 14, -4
	.loc 1 858 51 view .LVU723
	ldrb	r7, [r0, #4]	@ zero_extendqisi2
.LVL199:
	.loc 1 860 7 is_stmt 1 view .LVU724
	.loc 1 860 8 view .LVU725
	.loc 1 861 7 view .LVU726
	.loc 1 861 8 view .LVU727
	.loc 1 862 7 view .LVU728
	.loc 1 862 8 view .LVU729
	.loc 1 863 7 view .LVU730
	.loc 1 865 62 view .LVU731
	.loc 1 866 7 view .LVU732
	.loc 1 867 62 view .LVU733
	.loc 1 869 5 view .LVU734
	.loc 1 882 5 view .LVU735
	.loc 1 882 13 is_stmt 0 view .LVU736
	ldr	r5, .L198
	movs	r3, #36
	muls	r3, r7, r3
	.loc 1 857 1 view .LVU737
	mov	r8, r2
	.loc 1 882 13 view .LVU738
	adds	r2, r5, r3
.LVL200:
	.loc 1 857 1 view .LVU739
	mov	r6, r1
	.loc 1 882 13 view .LVU740
	ldrb	r1, [r2, #29]	@ zero_extendqisi2
.LVL201:
	.loc 1 857 1 view .LVU741
	sub	sp, sp, #20
	.cfi_def_cfa_offset 48
	.loc 1 857 1 view .LVU742
	mov	r9, r0
	.loc 1 882 8 view .LVU743
	cmp	r1, #0
	bne	.L175
	.loc 1 892 9 is_stmt 1 view .LVU744
	.loc 1 892 12 is_stmt 0 view .LVU745
	ldr	r3, [r5, r3]
	cbz	r3, .L150
	.loc 1 892 27 discriminator 1 view .LVU746
	tst	r8, #20
	.loc 1 895 13 is_stmt 1 discriminator 1 view .LVU747
	.loc 1 895 40 is_stmt 0 discriminator 1 view .LVU748
	itt	eq
	moveq	r3, #1
	strbeq	r3, [r2, #29]
.L150:
	.loc 1 899 5 is_stmt 1 view .LVU749
	.loc 1 899 25 is_stmt 0 view .LVU750
	ldm	r6, {r0, r1, r2, r3}
.LVL202:
	.loc 1 899 25 view .LVU751
	movs	r4, #36
	mla	r4, r4, r7, r5
	add	ip, r4, #12
	stm	ip, {r0, r1, r2, r3}
	.loc 1 901 5 is_stmt 1 view .LVU752
.LVL203:
.LBB643:
.LBI643:
	.loc 1 720 13 view .LVU753
.LBB644:
	.loc 1 722 5 view .LVU754
	.loc 1 722 13 is_stmt 0 view .LVU755
	ldr	r0, [r4, #32]
	.loc 1 722 8 view .LVU756
	adds	r2, r0, #1
	beq	.L151
	.loc 1 724 9 is_stmt 1 view .LVU757
	.loc 1 724 13 is_stmt 0 view .LVU758
	ldrb	r3, [r4, #30]	@ zero_extendqisi2
	.loc 1 724 12 view .LVU759
	lsls	r3, r3, #30
	bpl	.L152
	.loc 1 726 13 is_stmt 1 view .LVU760
	.loc 1 728 17 view .LVU761
.LVL204:
.LBB645:
.LBI645:
	.loc 7 155 20 view .LVU762
.LBB646:
	.loc 7 157 5 view .LVU763
	bl	nrf_gpio_pin_set
.LVL205:
	.loc 7 158 5 view .LVU764
.L151:
	.loc 7 158 5 is_stmt 0 view .LVU765
.LBE646:
.LBE645:
.LBE644:
.LBE643:
	.loc 1 903 5 is_stmt 1 view .LVU766
.LBB650:
.LBB651:
	.loc 1 773 21 is_stmt 0 view .LVU767
	ldr	r3, [r6]
.LBE651:
.LBE650:
	.loc 1 903 32 view .LVU768
	ldr	r4, [r9]
.LVL206:
.LBB725:
.LBI650:
	.loc 1 765 19 is_stmt 1 view .LVU769
.LBB722:
	.loc 1 770 5 view .LVU770
	.loc 1 773 5 view .LVU771
	.loc 1 773 8 is_stmt 0 view .LVU772
	cbz	r3, .L153
.LVL207:
.LBB652:
.LBI652:
	.loc 4 258 23 is_stmt 1 view .LVU773
.LBB653:
	.loc 4 276 5 view .LVU774
	.loc 4 277 5 view .LVU775
	.loc 4 277 35 is_stmt 0 view .LVU776
	and	r3, r3, #-536870912
.LBE653:
.LBE652:
	.loc 1 773 42 view .LVU777
	cmp	r3, #536870912
	bne	.L154
.L153:
	.loc 1 775 21 view .LVU778
	ldr	r3, [r6, #8]
	.loc 1 774 71 view .LVU779
	cbz	r3, .L155
.LVL208:
.LBB654:
.LBI654:
	.loc 4 258 23 is_stmt 1 view .LVU780
.LBB655:
	.loc 4 276 5 view .LVU781
	.loc 4 277 5 view .LVU782
	.loc 4 277 35 is_stmt 0 view .LVU783
	and	r3, r3, #-536870912
.LBE655:
.LBE654:
	.loc 1 775 42 view .LVU784
	cmp	r3, #536870912
	beq	.L155
.L154:
	.loc 1 778 9 is_stmt 1 view .LVU785
	.loc 1 778 36 is_stmt 0 view .LVU786
	movs	r3, #36
	mla	r3, r3, r7, r5
	movs	r2, #0
	.loc 1 783 16 view .LVU787
	ldr	r0, .L198+4
	.loc 1 778 36 view .LVU788
	strb	r2, [r3, #29]
	.loc 1 779 9 is_stmt 1 view .LVU789
.LVL209:
	.loc 1 780 9 view .LVU790
.LBB656:
	.loc 1 780 14 view .LVU791
.LBE656:
	.loc 1 780 12 view .LVU792
	.loc 1 783 9 view .LVU793
.L148:
	.loc 1 783 9 is_stmt 0 view .LVU794
.LBE722:
.LBE725:
	.loc 1 904 1 view .LVU795
	add	sp, sp, #20
	.cfi_remember_state
	.cfi_def_cfa_offset 28
	@ sp needed
	pop	{r4, r5, r6, r7, r8, r9, pc}
.LVL210:
.L152:
	.cfi_restore_state
.LBB726:
.LBB649:
	.loc 1 737 13 is_stmt 1 view .LVU796
	.loc 1 739 17 view .LVU797
.LBB647:
.LBI647:
	.loc 7 162 20 view .LVU798
.LBB648:
	.loc 7 164 5 view .LVU799
	bl	nrf_gpio_pin_clear
.LVL211:
	.loc 7 165 5 view .LVU800
	.loc 7 166 1 is_stmt 0 view .LVU801
	b	.L151
.LVL212:
.L155:
	.loc 7 166 1 view .LVU802
.LBE648:
.LBE647:
.LBE649:
.LBE726:
.LBB727:
.LBB723:
	.loc 1 794 5 is_stmt 1 view .LVU803
.LBB657:
.LBI657:
	.loc 2 400 20 view .LVU804
.LBB658:
	.loc 2 402 5 view .LVU805
	.loc 2 402 8 is_stmt 0 view .LVU806
	ands	r3, r8, #1
	.loc 2 404 9 is_stmt 1 view .LVU807
.LVL213:
.LBB659:
.LBI659:
	.loc 3 1494 20 view .LVU808
.LBB660:
	.loc 3 1496 5 view .LVU809
	.loc 3 1496 21 is_stmt 0 view .LVU810
	it	ne
	movne	r3, #1
.LBE660:
.LBE659:
	.loc 2 408 9 is_stmt 1 view .LVU811
.LVL214:
.LBB661:
.LBI661:
	.loc 3 1499 20 view .LVU812
.LBB662:
	.loc 3 1501 5 view .LVU813
	.loc 3 1501 21 is_stmt 0 view .LVU814
	str	r3, [r4, #1360]
.LVL215:
	.loc 3 1501 21 view .LVU815
.LBE662:
.LBE661:
	.loc 2 410 5 is_stmt 1 view .LVU816
	.loc 2 410 5 is_stmt 0 view .LVU817
.LBE658:
.LBE657:
	.loc 1 795 5 is_stmt 1 view .LVU818
.LBB663:
.LBI663:
	.loc 2 419 20 view .LVU819
.LBB664:
	.loc 2 421 5 view .LVU820
	.loc 2 421 8 is_stmt 0 view .LVU821
	ands	r3, r8, #2
	.loc 2 423 9 is_stmt 1 view .LVU822
.LVL216:
.LBB665:
.LBI665:
	.loc 3 1504 20 view .LVU823
.LBB666:
	.loc 3 1506 5 view .LVU824
	.loc 3 1506 21 is_stmt 0 view .LVU825
	it	ne
	movne	r3, #1
.LBE666:
.LBE665:
	.loc 2 427 9 is_stmt 1 view .LVU826
.LVL217:
.LBB667:
.LBI667:
	.loc 3 1509 20 view .LVU827
.LBB668:
	.loc 3 1511 5 view .LVU828
	.loc 3 1511 21 is_stmt 0 view .LVU829
	str	r3, [r4, #1344]
.LVL218:
	.loc 3 1511 21 view .LVU830
.LBE668:
.LBE667:
	.loc 2 429 5 is_stmt 1 view .LVU831
	.loc 2 429 5 is_stmt 0 view .LVU832
.LBE664:
.LBE663:
	.loc 1 798 5 is_stmt 1 view .LVU833
	.loc 1 798 27 is_stmt 0 view .LVU834
	ldm	r6, {r0, r1, r2, r3}
	mov	ip, sp
	stm	ip, {r0, r1, r2, r3}
	.loc 1 808 5 is_stmt 1 view .LVU835
.LVL219:
.LBB669:
.LBI669:
	.loc 2 305 20 view .LVU836
.LBB670:
	.loc 2 308 5 view .LVU837
	.loc 2 310 9 view .LVU838
	.loc 2 310 14 view .LVU839
	.loc 2 310 41 view .LVU840
	.loc 2 310 12 view .LVU841
	.loc 2 312 5 view .LVU842
.LBB671:
.LBI671:
	.loc 3 1393 20 view .LVU843
.LBB672:
	.loc 3 1401 5 view .LVU844
.LBE672:
.LBE671:
.LBB674:
.LBB675:
	.loc 3 1433 23 is_stmt 0 view .LVU845
	ldr	r3, [sp, #12]
.LBE675:
.LBE674:
.LBB677:
.LBB673:
	.loc 3 1401 20 view .LVU846
	str	r0, [r4, #1348]
	.loc 3 1402 5 is_stmt 1 view .LVU847
	.loc 3 1402 23 is_stmt 0 view .LVU848
	str	r1, [r4, #1352]
.LVL220:
	.loc 3 1402 23 view .LVU849
.LBE673:
.LBE677:
	.loc 2 313 5 is_stmt 1 view .LVU850
.LBB678:
.LBI674:
	.loc 3 1424 20 view .LVU851
.LBB676:
	.loc 3 1432 5 view .LVU852
	.loc 3 1432 20 is_stmt 0 view .LVU853
	str	r2, [r4, #1332]
	.loc 3 1433 5 is_stmt 1 view .LVU854
	.loc 3 1433 23 is_stmt 0 view .LVU855
	str	r3, [r4, #1336]
.LVL221:
	.loc 3 1433 23 view .LVU856
.LBE676:
.LBE678:
	.loc 2 314 5 is_stmt 1 view .LVU857
	.loc 2 314 5 is_stmt 0 view .LVU858
.LBE670:
.LBE669:
	.loc 1 810 5 is_stmt 1 view .LVU859
.LBB679:
.LBI679:
	.loc 2 449 20 view .LVU860
	.loc 2 451 5 view .LVU861
.LBB680:
.LBI680:
	.loc 3 1142 20 view .LVU862
.LBB681:
	.loc 3 1145 5 view .LVU863
	.loc 3 1145 66 is_stmt 0 view .LVU864
	movs	r3, #0
	str	r3, [r4, #280]
	.loc 3 1146 5 is_stmt 1 view .LVU865
.LVL222:
.LBB682:
.LBI682:
	.loc 4 186 20 view .LVU866
.LBB683:
	.loc 4 189 5 view .LVU867
	ldr	r3, [r4, #280]
.LVL223:
	.loc 4 189 5 is_stmt 0 view .LVU868
.LBE683:
.LBE682:
.LBE681:
.LBE680:
	.loc 2 452 5 is_stmt 1 view .LVU869
	.loc 2 452 5 is_stmt 0 view .LVU870
.LBE679:
	.loc 1 817 5 is_stmt 1 view .LVU871
.LBB684:
.LBI684:
	.loc 2 554 20 view .LVU872
	.loc 2 556 5 view .LVU873
.LBB685:
.LBI685:
	.loc 3 1241 20 view .LVU874
.LBB686:
	.loc 3 1243 5 view .LVU875
	.loc 3 1243 19 is_stmt 0 view .LVU876
	movs	r3, #7
	str	r3, [r4, #1280]
.LVL224:
	.loc 3 1243 19 view .LVU877
.LBE686:
.LBE685:
	.loc 2 557 5 is_stmt 1 view .LVU878
	.loc 2 557 5 is_stmt 0 view .LVU879
.LBE684:
	.loc 1 819 5 is_stmt 1 view .LVU880
	movs	r3, #36
	.loc 1 821 42 is_stmt 0 view .LVU881
	muls	r3, r7, r3
	.loc 1 819 8 view .LVU882
	tst	r8, #8
	.loc 1 821 42 view .LVU883
	add	r2, r5, r3
	.loc 1 819 8 view .LVU884
	bne	.L161
	.loc 1 821 9 is_stmt 1 view .LVU885
	ldr	r0, [r5, r3]
	movs	r1, #1
.LBB687:
.LBB688:
.LBB689:
.LBB690:
	.loc 3 1133 65 is_stmt 0 view .LVU886
	str	r1, [r4, #16]
.LBE690:
.LBE689:
.LBE688:
.LBE687:
	.loc 1 821 9 view .LVU887
	cbnz	r0, .L197
.L163:
.LBB695:
.LBB694:
	.loc 2 332 10 is_stmt 1 view .LVU888
	.loc 2 331 16 view .LVU889
.LVL225:
.LBB691:
.LBI691:
	.loc 3 1149 23 view .LVU890
	.loc 3 1152 5 view .LVU891
.LBB692:
.LBI692:
	.loc 4 281 23 view .LVU892
.LBB693:
	.loc 4 283 5 view .LVU893
	.loc 4 283 17 is_stmt 0 view .LVU894
	ldr	r3, [r4, #280]
.LVL226:
	.loc 4 283 17 view .LVU895
.LBE693:
.LBE692:
.LBE691:
	.loc 2 331 16 view .LVU896
	cmp	r3, #0
	beq	.L163
	.loc 2 333 9 is_stmt 1 view .LVU897
	.loc 2 333 15 is_stmt 0 view .LVU898
	mov	r2, ip
	movs	r1, #64
	mov	r0, r4
	bl	__nrfy_internal_spim_events_process
.LVL227:
.LBE694:
.LBE695:
	.loc 1 824 5 is_stmt 1 view .LVU899
	.loc 1 824 14 is_stmt 0 view .LVU900
	movs	r3, #36
	muls	r3, r7, r3
	adds	r2, r5, r3
.L197:
	.loc 1 824 8 view .LVU901
	ldr	r3, [r5, r3]
	cbnz	r3, .L164
	.loc 1 832 9 is_stmt 1 view .LVU902
.LVL228:
.LBB696:
.LBI696:
	.loc 1 720 13 view .LVU903
.LBB697:
	.loc 1 722 5 view .LVU904
	.loc 1 722 13 is_stmt 0 view .LVU905
	ldr	r0, [r2, #32]
	.loc 1 722 8 view .LVU906
	adds	r6, r0, #1
.LVL229:
	.loc 1 722 8 view .LVU907
	bne	.L165
.LVL230:
.L167:
	.loc 1 722 8 view .LVU908
.LBE697:
.LBE696:
	.loc 1 835 13 is_stmt 1 view .LVU909
.LBE723:
.LBE727:
	.loc 1 858 28 is_stmt 0 view .LVU910
	add	r7, r7, r7, lsl #3
.LVL231:
.LBB728:
.LBB724:
	.loc 1 835 13 view .LVU911
	add	r1, r5, r7, lsl #2
	mov	r0, r4
	bl	spim_abort
.LVL232:
.L169:
	.loc 1 851 12 view .LVU912
	ldr	r0, .L198+8
	b	.L148
.LVL233:
.L161:
	.loc 1 824 5 is_stmt 1 view .LVU913
	.loc 1 824 8 is_stmt 0 view .LVU914
	ldr	r3, [r5, r3]
	cbnz	r3, .L164
	.loc 1 832 9 is_stmt 1 view .LVU915
.LVL234:
.LBB710:
	.loc 1 720 13 view .LVU916
.LBB706:
	.loc 1 722 5 view .LVU917
	.loc 1 722 13 is_stmt 0 view .LVU918
	ldr	r0, [r2, #32]
	.loc 1 722 8 view .LVU919
	adds	r1, r0, #1
	beq	.L169
	.loc 1 724 9 is_stmt 1 view .LVU920
	.loc 1 724 13 is_stmt 0 view .LVU921
	ldrb	r3, [r2, #30]	@ zero_extendqisi2
	.loc 1 724 12 view .LVU922
	lsls	r2, r3, #30
	bpl	.L170
	.loc 1 726 13 is_stmt 1 view .LVU923
	.loc 1 732 17 view .LVU924
.LVL235:
.LBB698:
.LBI698:
	.loc 7 162 20 view .LVU925
.LBB699:
	.loc 7 164 5 view .LVU926
	bl	nrf_gpio_pin_clear
.LVL236:
	.loc 7 165 5 view .LVU927
	.loc 7 165 5 is_stmt 0 view .LVU928
.LBE699:
.LBE698:
.LBE706:
.LBE710:
	.loc 1 833 9 is_stmt 1 view .LVU929
	b	.L169
.LVL237:
.L165:
.LBB711:
.LBB707:
	.loc 1 724 9 view .LVU930
	.loc 1 724 13 is_stmt 0 view .LVU931
	ldrb	r3, [r2, #30]	@ zero_extendqisi2
	.loc 1 724 12 view .LVU932
	lsls	r3, r3, #30
	bpl	.L173
	.loc 1 726 13 is_stmt 1 view .LVU933
	.loc 1 732 17 view .LVU934
.LVL238:
.LBB701:
	.loc 7 162 20 view .LVU935
.LBB700:
	.loc 7 164 5 view .LVU936
	bl	nrf_gpio_pin_clear
.LVL239:
	.loc 7 165 5 view .LVU937
	.loc 7 165 5 is_stmt 0 view .LVU938
.LBE700:
.LBE701:
.LBE707:
.LBE711:
	.loc 1 833 9 is_stmt 1 view .LVU939
	b	.L167
.LVL240:
.L173:
.LBB712:
.LBB708:
	.loc 1 737 13 view .LVU940
	.loc 1 743 17 view .LVU941
.LBB702:
.LBI702:
	.loc 7 155 20 view .LVU942
.LBB703:
	.loc 7 157 5 view .LVU943
	bl	nrf_gpio_pin_set
.LVL241:
	.loc 7 158 5 view .LVU944
	.loc 7 158 5 is_stmt 0 view .LVU945
.LBE703:
.LBE702:
.LBE708:
.LBE712:
	.loc 1 833 9 is_stmt 1 view .LVU946
	b	.L167
.LVL242:
.L170:
.LBB713:
.LBB709:
	.loc 1 737 13 view .LVU947
	.loc 1 743 17 view .LVU948
.LBB705:
	.loc 7 155 20 view .LVU949
.LBB704:
	.loc 7 157 5 view .LVU950
	bl	nrf_gpio_pin_set
.LVL243:
	.loc 7 158 5 view .LVU951
	.loc 7 158 5 is_stmt 0 view .LVU952
.LBE704:
.LBE705:
.LBE709:
.LBE713:
	.loc 1 833 9 is_stmt 1 view .LVU953
	b	.L169
.L164:
	.loc 1 840 9 view .LVU954
	.loc 1 840 12 is_stmt 0 view .LVU955
	tst	r8, #4
	mov	r3, #64
	.loc 1 842 13 is_stmt 1 view .LVU956
.LVL244:
.LBB714:
.LBI714:
	.loc 2 502 20 view .LVU957
.LBB715:
	.loc 2 504 5 view .LVU958
.LBB716:
.LBI716:
	.loc 3 1184 20 view .LVU959
.LBB717:
	.loc 3 1187 5 view .LVU960
	.loc 3 1187 21 is_stmt 0 view .LVU961
	ite	ne
	strne	r3, [r4, #776]
.LVL245:
	.loc 3 1187 21 view .LVU962
.LBE717:
.LBE716:
	.loc 2 505 5 is_stmt 1 view .LVU963
.LBE715:
.LBE714:
	.loc 1 846 13 view .LVU964
.LBB718:
.LBI718:
	.loc 2 495 20 view .LVU965
.LBB719:
	.loc 2 497 5 view .LVU966
.LBB720:
.LBI720:
	.loc 3 1178 20 view .LVU967
.LBB721:
	.loc 3 1181 5 view .LVU968
	.loc 3 1181 21 is_stmt 0 view .LVU969
	streq	r3, [r4, #772]
.LVL246:
	.loc 3 1181 21 view .LVU970
.LBE721:
.LBE720:
	.loc 2 498 5 is_stmt 1 view .LVU971
	.loc 2 499 1 is_stmt 0 view .LVU972
	b	.L169
.LVL247:
.L175:
	.loc 2 499 1 view .LVU973
.LBE719:
.LBE718:
.LBE724:
.LBE728:
	.loc 1 888 16 view .LVU974
	ldr	r0, .L198+12
.LVL248:
	.loc 1 888 16 view .LVU975
	b	.L148
.L199:
	.align	2
.L198:
	.word	m_cb
	.word	195887114
	.word	195887104
	.word	195887115
	.cfi_endproc
.LFE913:
	.size	nrfx_spim_xfer, .-nrfx_spim_xfer
	.section	.text.nrfx_spim_xfer_dcx,"ax",%progbits
	.align	1
	.global	nrfx_spim_xfer_dcx
	.syntax unified
	.thumb
	.thumb_func
	.type	nrfx_spim_xfer_dcx, %function
nrfx_spim_xfer_dcx:
.LVL249:
.LFB909:
	.loc 1 710 1 is_stmt 1 view -0
	.cfi_startproc
	@ args = 0, pretend = 0, frame = 0
	@ frame_needed = 0, uses_anonymous_args = 0
	@ link register save eliminated.
	.loc 1 711 5 view .LVU977
	.loc 1 713 7 view .LVU978
	.loc 1 713 8 view .LVU979
	.loc 1 715 5 view .LVU980
	.loc 1 715 54 is_stmt 0 view .LVU981
	ldr	r2, [r0]
.LVL250:
.LBB729:
.LBI729:
	.loc 2 654 20 is_stmt 1 view .LVU982
	.loc 2 656 5 view .LVU983
.LBB730:
.LBI730:
	.loc 3 1344 20 view .LVU984
.LBB731:
	.loc 3 1346 5 view .LVU985
	.loc 3 1346 19 is_stmt 0 view .LVU986
	str	r3, [r2, #1392]
.LVL251:
	.loc 3 1346 19 view .LVU987
.LBE731:
.LBE730:
	.loc 2 657 5 is_stmt 1 view .LVU988
	.loc 2 657 5 is_stmt 0 view .LVU989
.LBE729:
	.loc 1 716 5 is_stmt 1 view .LVU990
	.loc 1 716 12 is_stmt 0 view .LVU991
	movs	r2, #0
	b	nrfx_spim_xfer
.LVL252:
	.loc 1 716 12 view .LVU992
	.cfi_endproc
.LFE909:
	.size	nrfx_spim_xfer_dcx, .-nrfx_spim_xfer_dcx
	.section	.text.nrfx_spim_abort,"ax",%progbits
	.align	1
	.global	nrfx_spim_abort
	.syntax unified
	.thumb
	.thumb_func
	.type	nrfx_spim_abort, %function
nrfx_spim_abort:
.LVL253:
.LFB914:
	.loc 1 907 1 is_stmt 1 view -0
	.cfi_startproc
	@ args = 0, pretend = 0, frame = 0
	@ frame_needed = 0, uses_anonymous_args = 0
	@ link register save eliminated.
	.loc 1 908 5 view .LVU994
	.loc 1 910 7 view .LVU995
	.loc 1 910 8 view .LVU996
	.loc 1 912 5 view .LVU997
	.loc 1 908 28 is_stmt 0 view .LVU998
	ldrb	r1, [r0, #4]	@ zero_extendqisi2
	.loc 1 912 5 view .LVU999
	ldr	r3, .L202
	ldr	r0, [r0]
.LVL254:
	.loc 1 908 28 view .LVU1000
	add	r1, r1, r1, lsl #3
	.loc 1 912 5 view .LVU1001
	add	r1, r3, r1, lsl #2
	b	spim_abort
.LVL255:
.L203:
	.loc 1 912 5 view .LVU1002
	.align	2
.L202:
	.word	m_cb
	.cfi_endproc
.LFE914:
	.size	nrfx_spim_abort, .-nrfx_spim_abort
	.section	.text.nrfx_spim_0_irq_handler,"ax",%progbits
	.align	1
	.global	nrfx_spim_0_irq_handler
	.syntax unified
	.thumb
	.thumb_func
	.type	nrfx_spim_0_irq_handler, %function
nrfx_spim_0_irq_handler:
.LFB916:
	.loc 1 954 36 is_stmt 1 view -0
	.cfi_startproc
	@ args = 0, pretend = 0, frame = 0
	@ frame_needed = 0, uses_anonymous_args = 0
	@ link register save eliminated.
	.loc 1 954 38 view .LVU1004
	ldr	r1, .L205
	ldr	r0, .L205+4
	b	irq_handler
.LVL256:
.L206:
	.align	2
.L205:
	.word	m_cb
	.word	1073754112
	.cfi_endproc
.LFE916:
	.size	nrfx_spim_0_irq_handler, .-nrfx_spim_0_irq_handler
	.section	.text.nrfx_spim_2_irq_handler,"ax",%progbits
	.align	1
	.global	nrfx_spim_2_irq_handler
	.syntax unified
	.thumb
	.thumb_func
	.type	nrfx_spim_2_irq_handler, %function
nrfx_spim_2_irq_handler:
.LFB917:
	.loc 1 954 149 view -0
	.cfi_startproc
	@ args = 0, pretend = 0, frame = 0
	@ frame_needed = 0, uses_anonymous_args = 0
	@ link register save eliminated.
	.loc 1 954 151 view .LVU1006
	ldr	r1, .L208
	ldr	r0, .L208+4
	b	irq_handler
.LVL257:
.L209:
	.align	2
.L208:
	.word	m_cb+36
	.word	1073885184
	.cfi_endproc
.LFE917:
	.size	nrfx_spim_2_irq_handler, .-nrfx_spim_2_irq_handler
	.section	.rodata.CSWTCH.1358,"a"
	.type	CSWTCH.1358, %object
	.size	CSWTCH.1358, 6
CSWTCH.1358:
	.byte	1
	.byte	0
	.byte	0
	.byte	0
	.byte	0
	.byte	0
	.section	.bss.m_cb,"aw",%nobits
	.align	2
	.type	m_cb, %object
	.size	m_cb, 72
m_cb:
	.space	72
	.text
.Letext0:
	.file 9 "/home/g/zephyr-sdk-0.16.3/arm-zephyr-eabi/picolibc/include/machine/_default_types.h"
	.file 10 "/home/g/zephyr-sdk-0.16.3/arm-zephyr-eabi/picolibc/include/sys/_stdint.h"
	.file 11 "/home/g/zephyr-sdk-0.16.3/arm-zephyr-eabi/lib/gcc/arm-zephyr-eabi/12.2.0/include/stddef.h"
	.file 12 "/home/g/mise-work/zmk-firmware/zmk/modules/hal/nordic/nrfx/mdk/nrf52840.h"
	.file 13 "/home/g/mise-work/zmk-firmware/zmk/modules/hal/nordic/nrfx/drivers/nrfx_errors.h"
	.file 14 "/home/g/mise-work/zmk-firmware/zmk/modules/hal/nordic/nrfx/drivers/include/nrfx_spim.h"
	.file 15 "/home/g/mise-work/zmk-firmware/zmk/zephyr/include/zephyr/logging/log_instance.h"
	.file 16 "/home/g/mise-work/zmk-firmware/zmk/zephyr/include/zephyr/sys/cbprintf.h"
	.file 17 "/home/g/mise-work/zmk-firmware/zmk/zephyr/include/zephyr/logging/log_msg.h"
	.file 18 "/home/g/mise-work/zmk-firmware/zmk/zephyr/modules/hal_nordic/nrfx/./nrfx_log.h"
	.file 19 "/home/g/mise-work/zmk-firmware/zmk/zephyr/modules/hal_nordic/nrfx/./nrfx_glue.h"
	.file 20 "/home/g/mise-work/zmk-firmware/zmk/zephyr/include/zephyr/arch/arm/irq.h"