	.cpu cortex-m4
	.arch armv7e-m
	.fpu fpv4-sp-d16
	.eabi_attribute 27, 1
	.eabi_attribute 28, 1
	.eabi_attribute 20, 1
	.eabi_attribute 21, 1
	.eabi_attribute 23, 3
	.eabi_attribute 24, 1
	.eabi_attribute 25, 1
	.eabi_attribute 26, 1
	.eabi_attribute 30, 4
	.eabi_attribute 34, 1
	.eabi_attribute 38, 1
	.eabi_attribute 18, 4
	.file	"nrfx_nvmc.c"
	.text
.Ltext0:
	.cfi_sections	.debug_frame
	.file 1 "/home/g/mise-work/zmk-firmware/zmk/modules/hal/nordic/nrfx/drivers/src/nrfx_nvmc.c"
	.section	.text.partial_word_create,"ax",%progbits
	.align	1
	.syntax unified
	.thumb
	.thumb_func
	.type	partial_word_create, %function
partial_word_create:
.LVL0:
.LFB729:
	.loc 1 179 1 view -0
	.cfi_startproc
	@ args = 0, pretend = 0, frame = 8
	@ frame_needed = 0, uses_anonymous_args = 0
	.loc 1 180 5 view .LVU1
	.loc 1 181 5 view .LVU2
	.loc 1 183 5 view .LVU3
	.loc 1 185 7 view .LVU4
	.loc 1 185 8 view .LVU5
	.loc 1 187 5 view .LVU6
	.loc 1 179 1 is_stmt 0 view .LVU7
	push	{r0, r1, r2, lr}
	.cfi_def_cfa_offset 16
	.cfi_offset 14, -4
	.loc 1 187 13 view .LVU8
	mov	r3, #-1
	str	r3, [sp, #4]
	.loc 1 188 5 is_stmt 1 view .LVU9
.LBB138:
	.loc 1 188 10 view .LVU10
.LVL1:
	.loc 1 188 10 is_stmt 0 view .LVU11
.LBE138:
	.loc 1 183 16 view .LVU12
	and	r0, r0, #3
.LVL2:
.LBB139:
	.loc 1 190 43 view .LVU13
	add	r3, sp, #4
	add	r0, r0, r3
.LVL3:
	.loc 1 190 43 view .LVU14
	bl	memcpy
.LVL4:
	.loc 1 190 43 view .LVU15
.LBE139:
	.loc 1 194 5 is_stmt 1 view .LVU16
	.loc 1 195 1 is_stmt 0 view .LVU17
	ldr	r0, [sp, #4]
	add	sp, sp, #12
	.cfi_def_cfa_offset 4
	@ sp needed
	ldr	pc, [sp], #4
	.cfi_endproc
.LFE729:
	.size	partial_word_create, .-partial_word_create
	.section	.text.nvmc_word_write,"ax",%progbits
	.align	1
	.syntax unified
	.thumb
	.thumb_func
	.type	nvmc_word_write, %function
nvmc_word_write:
.LVL5:
.LFB733:
	.loc 1 240 1 is_stmt 1 view -0
	.cfi_startproc
	@ args = 0, pretend = 0, frame = 0
	@ frame_needed = 0, uses_anonymous_args = 0
	@ link register save eliminated.
	.loc 1 245 5 view .LVU19
.LBB140:
.LBB141:
	.file 2 "/home/g/mise-work/zmk-firmware/zmk/modules/hal/nordic/nrfx/hal/nrf_nvmc.h"
	.loc 2 351 23 is_stmt 0 view .LVU20
	ldr	r2, .L6
.L3:
.LBE141:
.LBE140:
	.loc 1 246 6 is_stmt 1 discriminator 1 view .LVU21
	.loc 1 245 12 discriminator 1 view .LVU22
.LVL6:
.LBB143:
.LBI140:
	.loc 2 349 23 discriminator 1 view .LVU23
.LBB142:
	.loc 2 351 5 discriminator 1 view .LVU24
	.loc 2 351 23 is_stmt 0 discriminator 1 view .LVU25
	ldr	r3, [r2, #1024]
.LVL7:
	.loc 2 351 23 discriminator 1 view .LVU26
.LBE142:
.LBE143:
	.loc 1 245 12 discriminator 1 view .LVU27
	lsls	r3, r3, #31
	bpl	.L3
	.loc 1 249 5 is_stmt 1 view .LVU28
.LVL8:
.LBB144:
.LBI144:
	.loc 2 375 20 view .LVU29
.LBB145:
	.loc 2 378 5 view .LVU30
	.loc 2 378 35 is_stmt 0 view .LVU31
	str	r1, [r0]
.LVL9:
	.loc 2 378 35 view .LVU32
.LBE145:
.LBE144:
	.loc 1 250 5 is_stmt 1 view .LVU33
.LBB146:
.LBI146:
	.file 3 "/home/g/mise-work/zmk-firmware/zmk/modules/hal/cmsis/CMSIS/Core/Include/cmsis_gcc.h"
	.loc 3 280 51 view .LVU34
.LBB147:
	.loc 3 282 3 view .LVU35
	.syntax unified
@ 282 "/home/g/mise-work/zmk-firmware/zmk/modules/hal/cmsis/CMSIS/Core/Include/cmsis_gcc.h" 1
	dmb 0xF
@ 0 "" 2
	.thumb
	.syntax unified
.LBE147:
.LBE146:
	.loc 1 251 1 is_stmt 0 view .LVU36
	bx	lr
.L7:
	.align	2
.L6:
	.word	1073864704
	.cfi_endproc
.LFE733:
	.size	nvmc_word_write, .-nvmc_word_write
	.section	.text.nrfx_nvmc_page_erase,"ax",%progbits
	.align	1
	.global	nrfx_nvmc_page_erase
	.syntax unified
	.thumb
	.thumb_func
	.type	nrfx_nvmc_page_erase, %function
nrfx_nvmc_page_erase:
.LVL10:
.LFB735:
	.loc 1 262 1 is_stmt 1 view -0
	.cfi_startproc
	@ args = 0, pretend = 0, frame = 0
	@ frame_needed = 0, uses_anonymous_args = 0
	@ link register save eliminated.
	.loc 1 263 7 view .LVU38
	.loc 1 263 8 view .LVU39
	.loc 1 265 5 view .LVU40
.LBB148:
.LBI148:
	.loc 1 148 12 view .LVU41
.LBB149:
	.loc 1 151 5 view .LVU42
.LBB150:
.LBI150:
	.loc 1 113 17 view .LVU43
.LBB151:
	.loc 1 115 5 view .LVU44
	.loc 1 118 5 view .LVU45
.LBB152:
.LBI152:
	.file 4 "/home/g/mise-work/zmk-firmware/zmk/modules/hal/nordic/nrfx/hal/nrf_ficr.h"
	.loc 4 235 24 view .LVU46
.LBB153:
	.loc 4 240 5 view .LVU47
	.loc 4 240 17 is_stmt 0 view .LVU48
	mov	r3, #268435456
	ldr	r2, [r3, #16]
.LVL11:
	.loc 4 240 17 view .LVU49
.LBE153:
.LBE152:
	.loc 1 125 5 is_stmt 1 view .LVU50
	.loc 1 125 5 is_stmt 0 view .LVU51
.LBE151:
.LBE150:
	.loc 1 151 19 view .LVU52
	udiv	r3, r0, r2
	mls	r3, r2, r3, r0
.LBE149:
.LBE148:
	.loc 1 265 8 view .LVU53
	cbnz	r3, .L11
	.loc 1 270 5 is_stmt 1 view .LVU54
.LBB154:
.LBI154:
	.loc 1 225 13 view .LVU55
	.loc 1 235 5 view .LVU56
.LVL12:
.LBB155:
.LBI155:
	.loc 2 361 20 view .LVU57
.LBB156:
	.loc 2 364 5 view .LVU58
	.loc 2 364 19 is_stmt 0 view .LVU59
	ldr	r3, .L14
	movs	r2, #2
.LVL13:
	.loc 2 364 19 view .LVU60
	str	r2, [r3, #1284]
.LVL14:
	.loc 2 364 19 view .LVU61
.LBE156:
.LBE155:
.LBE154:
	.loc 1 271 5 is_stmt 1 view .LVU62
.LBB157:
.LBI157:
	.loc 2 403 20 view .LVU63
.LBB158:
	.loc 2 422 5 view .LVU64
	.loc 2 422 22 is_stmt 0 view .LVU65
	str	r0, [r3, #1288]
.LVL15:
.L10:
	.loc 2 422 22 view .LVU66
.LBE158:
.LBE157:
	.loc 1 273 6 is_stmt 1 discriminator 1 view .LVU67
	.loc 1 272 12 discriminator 1 view .LVU68
.LBB159:
.LBI159:
	.loc 2 349 23 discriminator 1 view .LVU69
.LBB160:
	.loc 2 351 5 discriminator 1 view .LVU70
	.loc 2 351 23 is_stmt 0 discriminator 1 view .LVU71
	ldr	r2, [r3, #1024]
.LVL16:
	.loc 2 351 23 discriminator 1 view .LVU72
.LBE160:
.LBE159:
	.loc 1 272 12 discriminator 1 view .LVU73
	lsls	r2, r2, #31
	bpl	.L10
	.loc 1 274 5 is_stmt 1 view .LVU74
.LBB161:
.LBI161:
	.loc 1 197 13 view .LVU75
	.loc 1 207 5 view .LVU76
.LVL17:
.LBB162:
.LBI162:
	.loc 2 361 20 view .LVU77
.LBB163:
	.loc 2 364 5 view .LVU78
	.loc 2 364 19 is_stmt 0 view .LVU79
	movs	r2, #0
.LBE163:
.LBE162:
.LBE161:
	.loc 1 276 12 view .LVU80
	ldr	r0, .L14+4
.LVL18:
.LBB166:
.LBB165:
.LBB164:
	.loc 2 364 19 view .LVU81
	str	r2, [r3, #1284]
.LVL19:
	.loc 2 364 19 view .LVU82
.LBE164:
.LBE165:
.LBE166:
	.loc 1 276 5 is_stmt 1 view .LVU83
	.loc 1 276 12 is_stmt 0 view .LVU84
	bx	lr
.LVL20:
.L11:
	.loc 1 267 16 view .LVU85
	ldr	r0, .L14+8
.LVL21:
	.loc 1 277 1 view .LVU86
	bx	lr
.L15:
	.align	2
.L14:
	.word	1073864704
	.word	195887104
	.word	195887114
	.cfi_endproc
.LFE735:
	.size	nrfx_nvmc_page_erase, .-nrfx_nvmc_page_erase
	.section	.text.nrfx_nvmc_uicr_erase,"ax",%progbits
	.align	1
	.global	nrfx_nvmc_uicr_erase
	.syntax unified
	.thumb
	.thumb_func
	.type	nrfx_nvmc_uicr_erase, %function
nrfx_nvmc_uicr_erase:
.LFB736:
	.loc 1 280 1 is_stmt 1 view -0
	.cfi_startproc
	@ args = 0, pretend = 0, frame = 0
	@ frame_needed = 0, uses_anonymous_args = 0
	@ link register save eliminated.
	.loc 1 282 5 view .LVU88
.LBB167:
.LBI167:
	.loc 1 225 13 view .LVU89
	.loc 1 235 5 view .LVU90
.LVL22:
.LBB168:
.LBI168:
	.loc 2 361 20 view .LVU91
.LBB169:
	.loc 2 364 5 view .LVU92
	.loc 2 364 19 is_stmt 0 view .LVU93
	ldr	r3, .L20
	movs	r2, #2
	str	r2, [r3, #1284]
.LVL23:
	.loc 2 364 19 view .LVU94
.LBE169:
.LBE168:
.LBE167:
	.loc 1 283 5 is_stmt 1 view .LVU95
.LBB170:
.LBI170:
	.loc 2 432 20 view .LVU96
.LBB171:
	.loc 2 434 5 view .LVU97
	.loc 2 434 22 is_stmt 0 view .LVU98
	movs	r2, #1
	str	r2, [r3, #1300]
.LVL24:
.L17:
	.loc 2 434 22 view .LVU99
.LBE171:
.LBE170:
	.loc 1 285 6 is_stmt 1 discriminator 1 view .LVU100
	.loc 1 284 12 discriminator 1 view .LVU101
.LBB172:
.LBI172:
	.loc 2 349 23 discriminator 1 view .LVU102
.LBB173:
	.loc 2 351 5 discriminator 1 view .LVU103
	.loc 2 351 23 is_stmt 0 discriminator 1 view .LVU104
	ldr	r2, [r3, #1024]
.LVL25:
	.loc 2 351 23 discriminator 1 view .LVU105
.LBE173:
.LBE172:
	.loc 1 284 12 discriminator 1 view .LVU106
	lsls	r2, r2, #31
	bpl	.L17
	.loc 1 286 5 is_stmt 1 view .LVU107
.LBB174:
.LBI174:
	.loc 1 197 13 view .LVU108
	.loc 1 207 5 view .LVU109
.LVL26:
.LBB175:
.LBI175:
	.loc 2 361 20 view .LVU110
.LBB176:
	.loc 2 364 5 view .LVU111
	.loc 2 364 19 is_stmt 0 view .LVU112
	movs	r2, #0
.LBE176:
.LBE175:
.LBE174:
	.loc 1 291 1 view .LVU113
	ldr	r0, .L20+4
.LBB179:
.LBB178:
.LBB177:
	.loc 2 364 19 view .LVU114
	str	r2, [r3, #1284]
.LVL27:
	.loc 2 364 19 view .LVU115
.LBE177:
.LBE178:
.LBE179:
	.loc 1 287 5 is_stmt 1 view .LVU116
	.loc 1 291 1 is_stmt 0 view .LVU117
	bx	lr
.L21:
	.align	2
.L20:
	.word	1073864704
	.word	195887104
	.cfi_endproc
.LFE736:
	.size	nrfx_nvmc_uicr_erase, .-nrfx_nvmc_uicr_erase
	.section	.text.nrfx_nvmc_all_erase,"ax",%progbits
	.align	1
	.global	nrfx_nvmc_all_erase
	.syntax unified
	.thumb
	.thumb_func
	.type	nrfx_nvmc_all_erase, %function
nrfx_nvmc_all_erase:
.LFB737:
	.loc 1 294 1 is_stmt 1 view -0
	.cfi_startproc
	@ args = 0, pretend = 0, frame = 0
	@ frame_needed = 0, uses_anonymous_args = 0
	@ link register save eliminated.
	.loc 1 295 5 view .LVU119
.LBB180:
.LBI180:
	.loc 1 225 13 view .LVU120
	.loc 1 235 5 view .LVU121
.LVL28:
.LBB181:
.LBI181:
	.loc 2 361 20 view .LVU122
.LBB182:
	.loc 2 364 5 view .LVU123
	.loc 2 364 19 is_stmt 0 view .LVU124
	ldr	r3, .L26
	movs	r2, #2
	str	r2, [r3, #1284]
.LVL29:
	.loc 2 364 19 view .LVU125
.LBE182:
.LBE181:
.LBE180:
	.loc 1 296 5 is_stmt 1 view .LVU126
.LBB183:
.LBI183:
	.loc 2 438 20 view .LVU127
.LBB184:
	.loc 2 440 5 view .LVU128
	.loc 2 440 21 is_stmt 0 view .LVU129
	movs	r2, #1
	str	r2, [r3, #1292]
.LVL30:
.L23:
	.loc 2 440 21 view .LVU130
.LBE184:
.LBE183:
	.loc 1 298 6 is_stmt 1 discriminator 1 view .LVU131
	.loc 1 297 12 discriminator 1 view .LVU132
.LBB185:
.LBI185:
	.loc 2 349 23 discriminator 1 view .LVU133
.LBB186:
	.loc 2 351 5 discriminator 1 view .LVU134
	.loc 2 351 23 is_stmt 0 discriminator 1 view .LVU135
	ldr	r2, [r3, #1024]
.LVL31:
	.loc 2 351 23 discriminator 1 view .LVU136
.LBE186:
.LBE185:
	.loc 1 297 12 discriminator 1 view .LVU137
	lsls	r2, r2, #31
	bpl	.L23
	.loc 1 299 5 is_stmt 1 view .LVU138
.LBB187:
.LBI187:
	.loc 1 197 13 view .LVU139
	.loc 1 207 5 view .LVU140
.LVL32:
.LBB188:
.LBI188:
	.loc 2 361 20 view .LVU141
.LBB189:
	.loc 2 364 5 view .LVU142
	.loc 2 364 19 is_stmt 0 view .LVU143
	movs	r2, #0
	str	r2, [r3, #1284]
.LVL33:
	.loc 2 364 19 view .LVU144
.LBE189:
.LBE188:
.LBE187:
	.loc 1 300 1 view .LVU145
	bx	lr
.L27:
	.align	2
.L26:
	.word	1073864704
	.cfi_endproc
.LFE737:
	.size	nrfx_nvmc_all_erase, .-nrfx_nvmc_all_erase
	.section	.text.nrfx_nvmc_page_partial_erase_init,"ax",%progbits
	.align	1
	.global	nrfx_nvmc_page_partial_erase_init
	.syntax unified
	.thumb
	.thumb_func
	.type	nrfx_nvmc_page_partial_erase_init, %function
nrfx_nvmc_page_partial_erase_init:
.LVL34:
.LFB738:
	.loc 1 304 1 is_stmt 1 view -0
	.cfi_startproc
	@ args = 0, pretend = 0, frame = 0
	@ frame_needed = 0, uses_anonymous_args = 0
	@ link register save eliminated.
	.loc 1 305 7 view .LVU147
	.loc 1 305 8 view .LVU148
	.loc 1 307 5 view .LVU149
.LBB190:
.LBI190:
	.loc 1 148 12 view .LVU150
.LBB191:
	.loc 1 151 5 view .LVU151
.LBB192:
.LBI192:
	.loc 1 113 17 view .LVU152
.LBB193:
	.loc 1 115 5 view .LVU153
	.loc 1 118 5 view .LVU154
.LBB194:
.LBI194:
	.loc 4 235 24 view .LVU155
.LBB195:
	.loc 4 240 5 view .LVU156
	.loc 4 240 17 is_stmt 0 view .LVU157
	mov	r3, #268435456
	ldr	r2, [r3, #16]
.LVL35:
	.loc 4 240 17 view .LVU158
.LBE195:
.LBE194:
	.loc 1 125 5 is_stmt 1 view .LVU159
	.loc 1 125 5 is_stmt 0 view .LVU160
.LBE193:
.LBE192:
	.loc 1 151 19 view .LVU161
	udiv	r3, r0, r2
	mls	r3, r2, r3, r0
.LBE191:
.LBE190:
	.loc 1 307 8 view .LVU162
	cbnz	r3, .L30
	.loc 1 312 5 is_stmt 1 view .LVU163
	.loc 1 312 34 is_stmt 0 view .LVU164
	ldr	r2, .L31
.LVL36:
	.loc 1 312 34 view .LVU165
	str	r3, [r2]
	.loc 1 313 5 is_stmt 1 view .LVU166
	.loc 1 313 31 is_stmt 0 view .LVU167
	ldr	r3, .L31+4
	str	r0, [r3]
	.loc 1 314 5 is_stmt 1 view .LVU168
.LVL37:
.LBB196:
.LBI196:
	.loc 2 444 20 view .LVU169
.LBB197:
	.loc 2 447 5 view .LVU170
	.loc 2 447 32 is_stmt 0 view .LVU171
	ldr	r3, .L31+8
.LBE197:
.LBE196:
	.loc 1 316 12 view .LVU172
	ldr	r0, .L31+12
.LVL38:
.LBB199:
.LBB198:
	.loc 2 447 32 view .LVU173
	str	r1, [r3, #1308]
.LVL39:
	.loc 2 447 32 view .LVU174
.LBE198:
.LBE199:
	.loc 1 316 5 is_stmt 1 view .LVU175
	.loc 1 316 12 is_stmt 0 view .LVU176
	bx	lr
.LVL40:
.L30:
	.loc 1 309 16 view .LVU177
	ldr	r0, .L31+16
.LVL41:
	.loc 1 317 1 view .LVU178
	bx	lr
.L32:
	.align	2
.L31:
	.word	m_partial_erase_time_elapsed
	.word	m_partial_erase_page_addr
	.word	1073864704
	.word	195887104
	.word	195887114
	.cfi_endproc
.LFE738:
	.size	nrfx_nvmc_page_partial_erase_init, .-nrfx_nvmc_page_partial_erase_init
	.section	.text.nrfx_nvmc_page_partial_erase_continue,"ax",%progbits
	.align	1
	.global	nrfx_nvmc_page_partial_erase_continue
	.syntax unified
	.thumb
	.thumb_func
	.type	nrfx_nvmc_page_partial_erase_continue, %function
nrfx_nvmc_page_partial_erase_continue:
.LFB739:
	.loc 1 320 1 is_stmt 1 view -0
	.cfi_startproc
	@ args = 0, pretend = 0, frame = 0
	@ frame_needed = 0, uses_anonymous_args = 0
	.loc 1 321 7 view .LVU180
	.loc 1 321 8 view .LVU181
	.loc 1 323 5 view .LVU182
.LVL42:
.LBB200:
.LBI200:
	.loc 2 450 24 view .LVU183
.LBB201:
	.loc 2 452 5 view .LVU184
.LBE201:
.LBE200:
	.loc 1 320 1 is_stmt 0 view .LVU185
	push	{r4, r5, lr}
	.cfi_def_cfa_offset 12
	.cfi_offset 4, -12
	.cfi_offset 5, -8
	.cfi_offset 14, -4
.LBB204:
.LBB202:
	.loc 2 452 17 view .LVU186
	ldr	r3, .L39
.LBE202:
.LBE204:
	.loc 1 331 5 view .LVU187
	ldr	r4, .L39+4
.LBB205:
.LBB203:
	.loc 2 452 17 view .LVU188
	ldr	r2, [r3, #1308]
.LVL43:
	.loc 2 452 17 view .LVU189
.LBE203:
.LBE205:
	.loc 1 328 5 is_stmt 1 view .LVU190
.LBB206:
.LBI206:
	.loc 2 361 20 view .LVU191
.LBB207:
	.loc 2 364 5 view .LVU192
	.loc 2 364 19 is_stmt 0 view .LVU193
	movs	r1, #2
	str	r1, [r3, #1284]
.LVL44:
	.loc 2 364 19 view .LVU194
.LBE207:
.LBE206:
	.loc 1 331 5 is_stmt 1 view .LVU195
	ldr	r1, [r4]
.LVL45:
.LBB208:
.LBI208:
	.loc 2 455 20 view .LVU196
.LBB209:
	.loc 2 459 5 view .LVU197
	.loc 2 459 29 is_stmt 0 view .LVU198
	str	r1, [r3, #1304]
.LVL46:
.L34:
	.loc 2 459 29 view .LVU199
.LBE209:
.LBE208:
	.loc 1 333 6 is_stmt 1 discriminator 1 view .LVU200
	.loc 1 332 12 discriminator 1 view .LVU201
.LBB210:
.LBI210:
	.loc 2 349 23 discriminator 1 view .LVU202
.LBB211:
	.loc 2 351 5 discriminator 1 view .LVU203
	.loc 2 351 23 is_stmt 0 discriminator 1 view .LVU204
	ldr	r0, [r3, #1024]
.LBE211:
.LBE210:
	.loc 1 332 12 discriminator 1 view .LVU205
	ands	r0, r0, #1
	beq	.L34
	.loc 1 334 5 is_stmt 1 view .LVU206
.LBB212:
.LBI212:
	.loc 1 197 13 view .LVU207
	.loc 1 207 5 view .LVU208
.LVL47:
.LBB213:
.LBI213:
	.loc 2 361 20 view .LVU209
.LBB214:
	.loc 2 364 5 view .LVU210
.LBE214:
.LBE213:
.LBE212:
	.loc 1 336 34 is_stmt 0 view .LVU211
	ldr	r5, .L39+8
.LBB217:
.LBB216:
.LBB215:
	.loc 2 364 19 view .LVU212
	movs	r1, #0
	str	r1, [r3, #1284]
.LVL48:
	.loc 2 364 19 view .LVU213
.LBE215:
.LBE216:
.LBE217:
	.loc 1 336 5 is_stmt 1 view .LVU214
	.loc 1 336 34 is_stmt 0 view .LVU215
	ldr	r3, [r5]
	add	r3, r3, r2
	.loc 1 337 8 view .LVU216
	cmp	r3, #84
	.loc 1 336 34 view .LVU217
	str	r3, [r5]
	.loc 1 337 5 is_stmt 1 view .LVU218
	.loc 1 343 9 view .LVU219
	.loc 1 343 35 is_stmt 0 view .LVU220
	itte	hi
	movhi	r3, #-1
	strhi	r3, [r4]
	.loc 1 344 9 is_stmt 1 view .LVU221
	.loc 1 339 15 is_stmt 0 view .LVU222
	movls	r0, r1
	.loc 1 346 1 view .LVU223
	pop	{r4, r5, pc}
.L40:
	.align	2
.L39:
	.word	1073864704
	.word	m_partial_erase_page_addr
	.word	m_partial_erase_time_elapsed
	.cfi_endproc
.LFE739:
	.size	nrfx_nvmc_page_partial_erase_continue, .-nrfx_nvmc_page_partial_erase_continue
	.section	.text.nrfx_nvmc_byte_writable_check,"ax",%progbits
	.align	1
	.global	nrfx_nvmc_byte_writable_check
	.syntax unified
	.thumb
	.thumb_func
	.type	nrfx_nvmc_byte_writable_check, %function
nrfx_nvmc_byte_writable_check:
.LVL49:
.LFB740:
	.loc 1 350 1 is_stmt 1 view -0
	.cfi_startproc
	@ args = 0, pretend = 0, frame = 0
	@ frame_needed = 0, uses_anonymous_args = 0
	@ link register save eliminated.
	.loc 1 351 7 view .LVU225
	.loc 1 351 8 view .LVU226
	.loc 1 353 5 view .LVU227
.LBB218:
.LBI218:
	.loc 2 381 23 view .LVU228
.LBB219:
	.loc 2 383 5 view .LVU229
	.loc 2 383 12 is_stmt 0 view .LVU230
	ldrb	r3, [r0]	@ zero_extendqisi2
.LVL50:
	.loc 2 383 12 view .LVU231
.LBE219:
.LBE218:
	.loc 1 354 5 is_stmt 1 view .LVU232
	.loc 1 354 41 is_stmt 0 view .LVU233
	bics	r1, r1, r3
.LVL51:
	.loc 1 355 1 view .LVU234
	ite	eq
	moveq	r0, #1
.LVL52:
	.loc 1 355 1 view .LVU235
	movne	r0, #0
	bx	lr
	.cfi_endproc
.LFE740:
	.size	nrfx_nvmc_byte_writable_check, .-nrfx_nvmc_byte_writable_check
	.section	.text.nrfx_nvmc_word_writable_check,"ax",%progbits
	.align	1
	.global	nrfx_nvmc_word_writable_check
	.syntax unified
	.thumb
	.thumb_func
	.type	nrfx_nvmc_word_writable_check, %function
nrfx_nvmc_word_writable_check:
.LVL53:
.LFB742:
	.loc 1 376 1 is_stmt 1 view -0
	.cfi_startproc
	@ args = 0, pretend = 0, frame = 0
	@ frame_needed = 0, uses_anonymous_args = 0
	@ link register save eliminated.
	.loc 1 377 7 view .LVU237
	.loc 1 377 8 view .LVU238
	.loc 1 378 7 view .LVU239
	.loc 1 378 8 view .LVU240
	.loc 1 380 5 view .LVU241
.LBB220:
.LBI220:
	.loc 2 391 24 view .LVU242
.LBB221:
	.loc 2 393 5 view .LVU243
	.loc 2 393 12 is_stmt 0 view .LVU244
	ldr	r3, [r0]
.LVL54:
	.loc 2 393 12 view .LVU245
.LBE221:
.LBE220:
	.loc 1 381 5 is_stmt 1 view .LVU246
	.loc 1 381 41 is_stmt 0 view .LVU247
	bics	r1, r1, r3
.LVL55:
	.loc 1 382 1 view .LVU248
	ite	eq
	moveq	r0, #1
.LVL56:
	.loc 1 382 1 view .LVU249
	movne	r0, #0
	bx	lr
	.cfi_endproc
.LFE742:
	.size	nrfx_nvmc_word_writable_check, .-nrfx_nvmc_word_writable_check
	.section	.text.nrfx_nvmc_word_write,"ax",%progbits
	.align	1
	.global	nrfx_nvmc_word_write
	.syntax unified
	.thumb
	.thumb_func
	.type	nrfx_nvmc_word_write, %function
nrfx_nvmc_word_write:
.LVL57:
.LFB745:
	.loc 1 404 1 is_stmt 1 view -0
	.cfi_startproc
	@ args = 0, pretend = 0, frame = 0
	@ frame_needed = 0, uses_anonymous_args = 0
	.loc 1 405 7 view .LVU251
	.loc 1 405 8 view .LVU252
	.loc 1 406 7 view .LVU253
	.loc 1 406 8 view .LVU254
	.loc 1 408 5 view .LVU255
.LBB222:
.LBI222:
	.loc 1 211 13 view .LVU256
	.loc 1 221 5 view .LVU257
.LBB223:
.LBI223:
	.loc 2 361 20 view .LVU258
.LBB224:
	.loc 2 364 5 view .LVU259
.LBE224:
.LBE223:
.LBE222:
	.loc 1 404 1 is_stmt 0 view .LVU260
	push	{r4, lr}
	.cfi_def_cfa_offset 8
	.cfi_offset 4, -8
	.cfi_offset 14, -4
.LBB227:
.LBB226:
.LBB225:
	.loc 2 364 19 view .LVU261
	ldr	r4, .L44
	movs	r3, #1
	str	r3, [r4, #1284]
.LVL58:
	.loc 2 364 19 view .LVU262
.LBE225:
.LBE226:
.LBE227:
	.loc 1 410 5 is_stmt 1 view .LVU263
	bl	nvmc_word_write
.LVL59:
	.loc 1 412 5 view .LVU264
.LBB228:
.LBI228:
	.loc 1 197 13 view .LVU265
	.loc 1 207 5 view .LVU266
.LBB229:
.LBI229:
	.loc 2 361 20 view .LVU267
.LBB230:
	.loc 2 364 5 view .LVU268
	.loc 2 364 19 is_stmt 0 view .LVU269
	movs	r3, #0
	str	r3, [r4, #1284]
.LVL60:
	.loc 2 364 19 view .LVU270
.LBE230:
.LBE229:
.LBE228:
	.loc 1 413 1 view .LVU271
	pop	{r4, pc}
.L45:
	.align	2
.L44:
	.word	1073864704
	.cfi_endproc
.LFE745:
	.size	nrfx_nvmc_word_write, .-nrfx_nvmc_word_write
	.section	.text.nrfx_nvmc_byte_write,"ax",%progbits
	.align	1
	.global	nrfx_nvmc_byte_write
	.syntax unified
	.thumb
	.thumb_func
	.type	nrfx_nvmc_byte_write, %function
nrfx_nvmc_byte_write:
.LVL61:
.LFB743:
	.loc 1 385 1 is_stmt 1 view -0
	.cfi_startproc
	@ args = 0, pretend = 0, frame = 8
	@ frame_needed = 0, uses_anonymous_args = 0
	.loc 1 386 7 view .LVU273
	.loc 1 386 8 view .LVU274
	.loc 1 388 5 view .LVU275
	.loc 1 385 1 is_stmt 0 view .LVU276
	push	{r0, r1, r4, lr}
	.cfi_def_cfa_offset 16
	.cfi_offset 4, -8
	.cfi_offset 14, -4
	.loc 1 390 5 view .LVU277
	movs	r2, #1
	.loc 1 385 1 view .LVU278
	strb	r1, [sp, #7]
	.loc 1 390 5 view .LVU279
	add	r1, sp, #7
.LVL62:
	.loc 1 385 1 view .LVU280
	mov	r4, r0
.LVL63:
	.loc 1 390 5 is_stmt 1 view .LVU281
	bl	partial_word_create
.LVL64:
	.loc 1 390 5 is_stmt 0 view .LVU282
	mov	r1, r0
	bic	r0, r4, #3
.LVL65:
	.loc 1 390 5 view .LVU283
	bl	nrfx_nvmc_word_write
.LVL66:
	.loc 1 391 1 view .LVU284
	add	sp, sp, #8
	.cfi_def_cfa_offset 8
	@ sp needed
	pop	{r4, pc}
	.loc 1 391 1 view .LVU285
	.cfi_endproc
.LFE743:
	.size	nrfx_nvmc_byte_write, .-nrfx_nvmc_byte_write
	.section	.text.nrfx_nvmc_halfword_write,"ax",%progbits
	.align	1
	.global	nrfx_nvmc_halfword_write
	.syntax unified
	.thumb
	.thumb_func
	.type	nrfx_nvmc_halfword_write, %function
nrfx_nvmc_halfword_write:
.LVL67:
.LFB744:
	.loc 1 394 1 is_stmt 1 view -0
	.cfi_startproc
	@ args = 0, pretend = 0, frame = 8
	@ frame_needed = 0, uses_anonymous_args = 0
	.loc 1 395 7 view .LVU287
	.loc 1 395 8 view .LVU288
	.loc 1 396 7 view .LVU289
	.loc 1 396 8 view .LVU290
	.loc 1 398 5 view .LVU291
	.loc 1 394 1 is_stmt 0 view .LVU292
	push	{r0, r1, r4, lr}
	.cfi_def_cfa_offset 16
	.cfi_offset 4, -8
	.cfi_offset 14, -4
	.loc 1 400 5 view .LVU293
	movs	r2, #2
	.loc 1 394 1 view .LVU294
	strh	r1, [sp, #6]	@ movhi
	.loc 1 400 5 view .LVU295
	add	r1, sp, #6
.LVL68:
	.loc 1 394 1 view .LVU296
	mov	r4, r0
.LVL69:
	.loc 1 400 5 is_stmt 1 view .LVU297
	bl	partial_word_create
.LVL70:
	.loc 1 400 5 is_stmt 0 view .LVU298
	mov	r1, r0
	bic	r0, r4, #3
.LVL71:
	.loc 1 400 5 view .LVU299
	bl	nrfx_nvmc_word_write
.LVL72:
	.loc 1 401 1 view .LVU300
	add	sp, sp, #8
	.cfi_def_cfa_offset 8
	@ sp needed
	pop	{r4, pc}
	.loc 1 401 1 view .LVU301
	.cfi_endproc
.LFE744:
	.size	nrfx_nvmc_halfword_write, .-nrfx_nvmc_halfword_write
	.section	.text.nrfx_nvmc_bytes_write,"ax",%progbits
	.align	1
	.global	nrfx_nvmc_bytes_write
	.syntax unified
	.thumb
	.thumb_func
	.type	nrfx_nvmc_bytes_write, %function
nrfx_nvmc_bytes_write:
.LVL73:
.LFB746:
	.loc 1 416 1 is_stmt 1 view -0
	.cfi_startproc
	@ args = 0, pretend = 0, frame = 0
	@ frame_needed = 0, uses_anonymous_args = 0
	.loc 1 417 7 view .LVU303
	.loc 1 417 8 view .LVU304
	.loc 1 419 5 view .LVU305
.LBB242:
.LBI242:
	.loc 1 211 13 view .LVU306
	.loc 1 221 5 view .LVU307
.LBB243:
.LBI243:
	.loc 2 361 20 view .LVU308
.LBB244:
	.loc 2 364 5 view .LVU309
.LBE244:
.LBE243:
.LBE242:
	.loc 1 416 1 is_stmt 0 view .LVU310
	push	{r3, r4, r5, r6, r7, r8, r9, lr}
	.cfi_def_cfa_offset 32
	.cfi_offset 3, -32
	.cfi_offset 4, -28
	.cfi_offset 5, -24
	.cfi_offset 6, -20
	.cfi_offset 7, -16
	.cfi_offset 8, -12
	.cfi_offset 9, -8
	.cfi_offset 14, -4
.LBB249:
.LBB247:
.LBB245:
	.loc 2 364 19 view .LVU311
	ldr	r3, .L59
.LBE245:
.LBE247:
.LBE249:
	.loc 1 416 1 view .LVU312
	mov	r5, r2
.LBB250:
.LBB248:
.LBB246:
	.loc 2 364 19 view .LVU313
	movs	r2, #1
.LVL74:
	.loc 2 364 19 view .LVU314
	str	r2, [r3, #1284]
.LVL75:
	.loc 2 364 19 view .LVU315
.LBE246:
.LBE248:
.LBE250:
	.loc 1 421 5 is_stmt 1 view .LVU316
	.loc 1 423 5 view .LVU317
	.loc 1 424 5 view .LVU318
	.loc 1 424 8 is_stmt 0 view .LVU319
	ands	r3, r0, #3
.LVL76:
	.loc 1 416 1 view .LVU320
	mov	r4, r0
	mov	r6, r1
	.loc 1 424 8 view .LVU321
	beq	.L49
.LBB251:
	.loc 1 426 9 is_stmt 1 view .LVU322
.LVL77:
	.loc 1 427 9 view .LVU323
	.loc 1 426 18 is_stmt 0 view .LVU324
	rsb	r7, r3, #4
.LVL78:
	.loc 1 426 18 view .LVU325
	cmp	r7, r5
	it	cs
	movcs	r7, r5
.LVL79:
	.loc 1 432 9 is_stmt 1 view .LVU326
	mov	r2, r7
	sub	r8, r0, r3
	bl	partial_word_create
.LVL80:
	.loc 1 432 9 is_stmt 0 view .LVU327
	mov	r1, r0
	mov	r0, r8
	bl	nvmc_word_write
.LVL81:
	.loc 1 434 9 is_stmt 1 view .LVU328
	.loc 1 434 19 is_stmt 0 view .LVU329
	subs	r5, r5, r7
.LVL82:
	.loc 1 435 9 is_stmt 1 view .LVU330
	.loc 1 435 14 is_stmt 0 view .LVU331
	add	r4, r4, r7
.LVL83:
	.loc 1 436 9 is_stmt 1 view .LVU332
	.loc 1 436 19 is_stmt 0 view .LVU333
	add	r6, r6, r7
.LVL84:
.L49:
	.loc 1 436 19 view .LVU334
.LBE251:
.LBB252:
	.loc 1 460 9 is_stmt 1 view .LVU335
	.loc 1 462 9 view .LVU336
.LBB253:
.LBI253:
	.loc 1 253 13 view .LVU337
	.loc 1 255 5 view .LVU338
.LBB254:
	.loc 1 255 10 view .LVU339
	.loc 1 255 10 is_stmt 0 view .LVU340
	bic	r8, r5, #3
	add	r8, r8, r6
	.loc 1 255 5 view .LVU341
	mov	r7, r6
	.loc 1 257 9 view .LVU342
	sub	r9, r4, r6
.LVL85:
.L50:
	.loc 1 255 28 is_stmt 1 view .LVU343
	cmp	r8, r7
	bne	.L51
.LVL86:
	.loc 1 255 28 is_stmt 0 view .LVU344
.LBE254:
.LBE253:
	.loc 1 464 9 is_stmt 1 view .LVU345
	.loc 1 465 9 view .LVU346
	.loc 1 465 9 is_stmt 0 view .LVU347
.LBE252:
	.loc 1 468 5 is_stmt 1 view .LVU348
	.loc 1 469 5 view .LVU349
	.loc 1 469 8 is_stmt 0 view .LVU350
	ands	r2, r5, #3
.LVL87:
	.loc 1 469 8 view .LVU351
	beq	.L52
.LBB257:
	.loc 1 464 28 view .LVU352
	bic	r5, r5, #3
.LVL88:
	.loc 1 464 14 view .LVU353
	add	r4, r4, r5
.LVL89:
	.loc 1 464 14 view .LVU354
.LBE257:
	.loc 1 471 9 is_stmt 1 view .LVU355
	adds	r1, r6, r5
	mov	r0, r4
	bl	partial_word_create
.LVL90:
	.loc 1 471 9 is_stmt 0 view .LVU356
	mov	r1, r0
	mov	r0, r4
	bl	nvmc_word_write
.LVL91:
.L52:
	.loc 1 474 5 is_stmt 1 view .LVU357
.LBB258:
.LBI258:
	.loc 1 197 13 view .LVU358
	.loc 1 207 5 view .LVU359
.LBB259:
.LBI259:
	.loc 2 361 20 view .LVU360
.LBB260:
	.loc 2 364 5 view .LVU361
	.loc 2 364 19 is_stmt 0 view .LVU362
	ldr	r3, .L59
	movs	r2, #0
	str	r2, [r3, #1284]
.LVL92:
	.loc 2 364 19 view .LVU363
.LBE260:
.LBE259:
.LBE258:
	.loc 1 475 1 view .LVU364
	pop	{r3, r4, r5, r6, r7, r8, r9, pc}
.LVL93:
.L51:
.LBB261:
.LBB256:
.LBB255:
	.loc 1 257 9 is_stmt 1 view .LVU365
	add	r0, r9, r7
	ldr	r1, [r7], #4
	bl	nvmc_word_write
.LVL94:
	.loc 1 255 42 view .LVU366
	b	.L50
.L60:
	.align	2
.L59:
	.word	1073864704
.LBE255:
.LBE256:
.LBE261:
	.cfi_endproc
.LFE746:
	.size	nrfx_nvmc_bytes_write, .-nrfx_nvmc_bytes_write
	.section	.text.nrfx_nvmc_words_write,"ax",%progbits
	.align	1
	.global	nrfx_nvmc_words_write
	.syntax unified
	.thumb
	.thumb_func
	.type	nrfx_nvmc_words_write, %function
nrfx_nvmc_words_write:
.LVL95:
.LFB747:
	.loc 1 478 1 view -0
	.cfi_startproc
	@ args = 0, pretend = 0, frame = 0
	@ frame_needed = 0, uses_anonymous_args = 0
	.loc 1 479 7 view .LVU368
	.loc 1 479 8 view .LVU369
	.loc 1 480 7 view .LVU370
	.loc 1 480 8 view .LVU371
	.loc 1 481 7 view .LVU372
	.loc 1 481 8 view .LVU373
	.loc 1 483 5 view .LVU374
.LBB271:
.LBI271:
	.loc 1 211 13 view .LVU375
	.loc 1 221 5 view .LVU376
.LBB272:
.LBI272:
	.loc 2 361 20 view .LVU377
.LBB273:
	.loc 2 364 5 view .LVU378
.LBE273:
.LBE272:
.LBE271:
	.loc 1 478 1 is_stmt 0 view .LVU379
	push	{r3, r4, r5, r6, r7, lr}
	.cfi_def_cfa_offset 24
	.cfi_offset 3, -24
	.cfi_offset 4, -20
	.cfi_offset 5, -16
	.cfi_offset 6, -12
	.cfi_offset 7, -8
	.cfi_offset 14, -4
.LBB280:
.LBB277:
.LBB274:
	.loc 2 364 19 view .LVU380
	ldr	r3, .L64
.LBE274:
.LBE277:
.LBE280:
	.loc 1 478 1 view .LVU381
	mov	r5, r2
.LBB281:
.LBB278:
.LBB275:
	.loc 2 364 19 view .LVU382
	movs	r2, #1
.LVL96:
	.loc 2 364 19 view .LVU383
.LBE275:
.LBE278:
.LBE281:
	.loc 1 478 1 view .LVU384
	mov	r6, r0
	mov	r7, r1
.LBB282:
.LBB279:
.LBB276:
	.loc 2 364 19 view .LVU385
	str	r2, [r3, #1284]
.LVL97:
	.loc 2 364 19 view .LVU386
.LBE276:
.LBE279:
.LBE282:
	.loc 1 485 5 is_stmt 1 view .LVU387
.LBB283:
.LBI283:
	.loc 1 253 13 view .LVU388
	.loc 1 255 5 view .LVU389
.LBB284:
	.loc 1 255 10 view .LVU390
	.loc 1 255 19 is_stmt 0 view .LVU391
	movs	r4, #0
.LVL98:
.L62:
	.loc 1 255 28 is_stmt 1 view .LVU392
	cmp	r5, r4
	bne	.L63
.LVL99:
	.loc 1 255 28 is_stmt 0 view .LVU393
.LBE284:
.LBE283:
	.loc 1 487 5 is_stmt 1 view .LVU394
.LBB286:
.LBI286:
	.loc 1 197 13 view .LVU395
	.loc 1 207 5 view .LVU396
.LBB287:
.LBI287:
	.loc 2 361 20 view .LVU397
.LBB288:
	.loc 2 364 5 view .LVU398
	.loc 2 364 19 is_stmt 0 view .LVU399
	ldr	r3, .L64
	movs	r2, #0
	str	r2, [r3, #1284]
.LVL100:
	.loc 2 364 19 view .LVU400
.LBE288:
.LBE287:
.LBE286:
	.loc 1 488 1 view .LVU401
	pop	{r3, r4, r5, r6, r7, pc}
.LVL101:
.L63:
.LBB289:
.LBB285:
	.loc 1 257 9 is_stmt 1 view .LVU402
	ldr	r1, [r7, r4, lsl #2]
	add	r0, r6, r4, lsl #2
	bl	nvmc_word_write
.LVL102:
	.loc 1 255 42 view .LVU403
	adds	r4, r4, #1
.LVL103:
	.loc 1 255 42 is_stmt 0 view .LVU404
	b	.L62
.L65:
	.align	2
.L64:
	.word	1073864704
.LBE285:
.LBE289:
	.cfi_endproc
.LFE747:
	.size	nrfx_nvmc_words_write, .-nrfx_nvmc_words_write
	.section	.text.nrfx_nvmc_otp_halfword_read,"ax",%progbits
	.align	1
	.global	nrfx_nvmc_otp_halfword_read
	.syntax unified
	.thumb
	.thumb_func
	.type	nrfx_nvmc_otp_halfword_read, %function
nrfx_nvmc_otp_halfword_read:
.LVL104:
.LFB748:
	.loc 1 491 1 is_stmt 1 view -0
	.cfi_startproc
	@ args = 0, pretend = 0, frame = 0
	@ frame_needed = 0, uses_anonymous_args = 0
	@ link register save eliminated.
	.loc 1 492 7 view .LVU406
	.loc 1 492 8 view .LVU407
	.loc 1 494 5 view .LVU408
	.loc 1 495 5 view .LVU409
.LBB290:
.LBI290:
	.loc 2 391 24 view .LVU410
.LBB291:
	.loc 2 393 5 view .LVU411
.LBE291:
.LBE290:
	.loc 1 494 14 is_stmt 0 view .LVU412
	bic	r3, r0, #3
.LVL105:
	.loc 1 498 54 view .LVU413
	lsls	r2, r0, #30
.LBB293:
.LBB292:
	.loc 2 393 12 view .LVU414
	ldr	r3, [r3]
.LVL106:
	.loc 2 393 12 view .LVU415
.LBE292:
.LBE293:
	.loc 1 497 5 is_stmt 1 view .LVU416
.LBB294:
.LBI294:
	.file 5 "/home/g/mise-work/zmk-firmware/zmk/modules/hal/nordic/nrfx/drivers/nrfx_common.h"
	.loc 5 659 23 view .LVU417
.LBB295:
	.loc 5 661 5 view .LVU418
	.loc 5 661 5 is_stmt 0 view .LVU419
.LBE295:
.LBE294:
	.loc 1 498 54 view .LVU420
	ite	eq
	uxtheq	r0, r3
.LVL107:
	.loc 1 498 54 view .LVU421
	lsrne	r0, r3, #16
	.loc 1 499 1 view .LVU422
	bx	lr
	.cfi_endproc
.LFE748:
	.size	nrfx_nvmc_otp_halfword_read, .-nrfx_nvmc_otp_halfword_read
	.section	.text.nrfx_nvmc_halfword_writable_check,"ax",%progbits
	.align	1
	.global	nrfx_nvmc_halfword_writable_check
	.syntax unified
	.thumb
	.thumb_func
	.type	nrfx_nvmc_halfword_writable_check, %function
nrfx_nvmc_halfword_writable_check:
.LVL108:
.LFB741:
	.loc 1 358 1 is_stmt 1 view -0
	.cfi_startproc
	@ args = 0, pretend = 0, frame = 0
	@ frame_needed = 0, uses_anonymous_args = 0
	.loc 1 359 7 view .LVU424
	.loc 1 359 8 view .LVU425
	.loc 1 360 7 view .LVU426
	.loc 1 360 8 view .LVU427
	.loc 1 362 5 view .LVU428
	.loc 1 364 5 view .LVU429
.LBB308:
.LBI308:
	.loc 1 143 17 view .LVU430
.LBB309:
	.loc 1 145 5 view .LVU431
.LBB310:
.LBI310:
	.loc 1 113 17 view .LVU432
.LBB311:
	.loc 1 115 5 view .LVU433
	.loc 1 118 5 view .LVU434
.LBB312:
.LBI312:
	.loc 4 235 24 view .LVU435
.LBB313:
	.loc 4 240 5 view .LVU436
.LBE313:
.LBE312:
.LBE311:
.LBE310:
.LBE309:
.LBE308:
	.loc 1 358 1 is_stmt 0 view .LVU437
	push	{r4, lr}
	.cfi_def_cfa_offset 8
	.cfi_offset 4, -8
	.cfi_offset 14, -4
.LBB323:
.LBB322:
.LBB317:
.LBB316:
.LBB315:
.LBB314:
	.loc 4 240 17 view .LVU438
	mov	r4, #268435456
	ldr	r2, [r4, #16]
.LVL109:
	.loc 4 240 17 view .LVU439
.LBE314:
.LBE315:
	.loc 1 125 5 is_stmt 1 view .LVU440
.LBE316:
.LBE317:
.LBB318:
.LBI318:
	.loc 1 128 17 view .LVU441
.LBB319:
	.loc 1 130 5 view .LVU442
	.loc 1 133 5 view .LVU443
.LBB320:
.LBI320:
	.loc 4 246 24 view .LVU444
.LBB321:
	.loc 4 251 5 view .LVU445
	.loc 4 251 17 is_stmt 0 view .LVU446
	ldr	r4, [r4, #20]
.LVL110:
	.loc 4 251 17 view .LVU447
.LBE321:
.LBE320:
	.loc 1 140 5 is_stmt 1 view .LVU448
.LBE319:
.LBE318:
	.loc 1 145 34 is_stmt 0 view .LVU449
	muls	r2, r4, r2
.LVL111:
	.loc 1 145 34 view .LVU450
.LBE322:
.LBE323:
	.loc 1 364 8 view .LVU451
	cmp	r0, r2
	bcs	.L70
	.loc 1 366 9 is_stmt 1 view .LVU452
.LVL112:
.LBB324:
.LBI324:
	.loc 2 386 24 view .LVU453
.LBB325:
	.loc 2 388 5 view .LVU454
	.loc 2 388 12 is_stmt 0 view .LVU455
	ldrh	r0, [r0]
.LVL113:
	.loc 2 388 12 view .LVU456
	uxth	r0, r0
.LVL114:
.L71:
	.loc 2 388 12 view .LVU457
.LBE325:
.LBE324:
	.loc 1 372 5 is_stmt 1 view .LVU458
	.loc 1 372 41 is_stmt 0 view .LVU459
	bics	r1, r1, r0
.LVL115:
	.loc 1 373 1 view .LVU460
	ite	eq
	moveq	r0, #1
.LVL116:
	.loc 1 373 1 view .LVU461
	movne	r0, #0
	pop	{r4, pc}
.LVL117:
.L70:
	.loc 1 370 9 is_stmt 1 view .LVU462
	.loc 1 370 23 is_stmt 0 view .LVU463
	bl	nrfx_nvmc_otp_halfword_read
.LVL118:
	.loc 1 370 23 view .LVU464
	b	.L71
	.cfi_endproc
.LFE741:
	.size	nrfx_nvmc_halfword_writable_check, .-nrfx_nvmc_halfword_writable_check
	.section	.text.nrfx_nvmc_flash_size_get,"ax",%progbits
	.align	1
	.global	nrfx_nvmc_flash_size_get
	.syntax unified
	.thumb
	.thumb_func
	.type	nrfx_nvmc_flash_size_get, %function
nrfx_nvmc_flash_size_get:
.LFB749:
	.loc 1 502 1 is_stmt 1 view -0
	.cfi_startproc
	@ args = 0, pretend = 0, frame = 0
	@ frame_needed = 0, uses_anonymous_args = 0
	@ link register save eliminated.
	.loc 1 503 5 view .LVU466
.LBB336:
.LBI336:
	.loc 1 143 17 view .LVU467
.LBB337:
	.loc 1 145 5 view .LVU468
.LBB338:
.LBI338:
	.loc 1 113 17 view .LVU469
.LBB339:
	.loc 1 115 5 view .LVU470
.LVL119:
	.loc 1 118 5 view .LVU471
.LBB340:
.LBI340:
	.loc 4 235 24 view .LVU472
.LBB341:
	.loc 4 240 5 view .LVU473
	.loc 4 240 17 is_stmt 0 view .LVU474
	mov	r3, #268435456
	ldr	r2, [r3, #16]
.LVL120:
	.loc 4 240 17 view .LVU475
.LBE341:
.LBE340:
	.loc 1 125 5 is_stmt 1 view .LVU476
.LBE339:
.LBE338:
.LBB342:
.LBI342:
	.loc 1 128 17 view .LVU477
.LBB343:
	.loc 1 130 5 view .LVU478
	.loc 1 133 5 view .LVU479
.LBB344:
.LBI344:
	.loc 4 246 24 view .LVU480
.LBB345:
	.loc 4 251 5 view .LVU481
	.loc 4 251 17 is_stmt 0 view .LVU482
	ldr	r0, [r3, #20]
.LVL121:
	.loc 4 251 17 view .LVU483
.LBE345:
.LBE344:
	.loc 1 140 5 is_stmt 1 view .LVU484
.LBE343:
.LBE342:
.LBE337:
.LBE336:
	.loc 1 504 1 is_stmt 0 view .LVU485
	muls	r0, r2, r0
.LVL122:
	.loc 1 504 1 view .LVU486
	bx	lr
	.cfi_endproc
.LFE749:
	.size	nrfx_nvmc_flash_size_get, .-nrfx_nvmc_flash_size_get
	.section	.text.nrfx_nvmc_flash_page_size_get,"ax",%progbits
	.align	1
	.global	nrfx_nvmc_flash_page_size_get
	.syntax unified
	.thumb
	.thumb_func
	.type	nrfx_nvmc_flash_page_size_get, %function
nrfx_nvmc_flash_page_size_get:
.LFB750:
	.loc 1 507 1 is_stmt 1 view -0
	.cfi_startproc
	@ args = 0, pretend = 0, frame = 0
	@ frame_needed = 0, uses_anonymous_args = 0
	@ link register save eliminated.
	.loc 1 508 5 view .LVU488
.LBB346:
.LBI346:
	.loc 1 113 17 view .LVU489
.LBB347:
	.loc 1 115 5 view .LVU490
.LVL123:
	.loc 1 118 5 view .LVU491
.LBB348:
.LBI348:
	.loc 4 235 24 view .LVU492
.LBB349:
	.loc 4 240 5 view .LVU493
	.loc 4 240 17 is_stmt 0 view .LVU494
	mov	r3, #268435456
	ldr	r0, [r3, #16]
.LVL124:
	.loc 4 240 17 view .LVU495
.LBE349:
.LBE348:
	.loc 1 125 5 is_stmt 1 view .LVU496
.LBE347:
.LBE346:
	.loc 1 509 1 is_stmt 0 view .LVU497
	bx	lr
	.cfi_endproc
.LFE750:
	.size	nrfx_nvmc_flash_page_size_get, .-nrfx_nvmc_flash_page_size_get
	.section	.text.nrfx_nvmc_flash_page_count_get,"ax",%progbits
	.align	1
	.global	nrfx_nvmc_flash_page_count_get
	.syntax unified
	.thumb
	.thumb_func
	.type	nrfx_nvmc_flash_page_count_get, %function
nrfx_nvmc_flash_page_count_get:
.LFB751:
	.loc 1 512 1 is_stmt 1 view -0
	.cfi_startproc
	@ args = 0, pretend = 0, frame = 0
	@ frame_needed = 0, uses_anonymous_args = 0
	@ link register save eliminated.
	.loc 1 513 5 view .LVU499
.LBB350:
.LBI350:
	.loc 1 128 17 view .LVU500
.LBB351:
	.loc 1 130 5 view .LVU501
.LVL125:
	.loc 1 133 5 view .LVU502
.LBB352:
.LBI352:
	.loc 4 246 24 view .LVU503
.LBB353:
	.loc 4 251 5 view .LVU504
	.loc 4 251 17 is_stmt 0 view .LVU505
	mov	r3, #268435456
	ldr	r0, [r3, #20]
.LVL126:
	.loc 4 251 17 view .LVU506
.LBE353:
.LBE352:
	.loc 1 140 5 is_stmt 1 view .LVU507
.LBE351:
.LBE350:
	.loc 1 514 1 is_stmt 0 view .LVU508
	bx	lr
	.cfi_endproc
.LFE751:
	.size	nrfx_nvmc_flash_page_count_get, .-nrfx_nvmc_flash_page_count_get
	.section	.data.m_partial_erase_page_addr,"aw"
	.align	2
	.type	m_partial_erase_page_addr, %object
	.size	m_partial_erase_page_addr, 4
m_partial_erase_page_addr:
	.word	-1
	.section	.bss.m_partial_erase_time_elapsed,"aw",%nobits
	.align	2
	.type	m_partial_erase_time_elapsed, %object
	.size	m_partial_erase_time_elapsed, 4
m_partial_erase_time_elapsed:
	.space	4
	.text
.Letext0:
	.file 6 "/home/g/zephyr-sdk-0.16.3/arm-zephyr-eabi/picolibc/include/machine/_default_types.h"
	.file 7 "/home/g/zephyr-sdk-0.16.3/arm-zephyr-eabi/picolibc/include/sys/_stdint.h"
	.file 8 "/home/g/mise-work/zmk-firmware/zmk/modules/hal/nordic/nrfx/mdk/nrf52840.h"
	.file 9 "/home/g/mise-work/zmk-firmware/zmk/modules/hal/nordic/nrfx/drivers/nrfx_errors.h"
	.file 10 "/home/g/mise-work/zmk-firmware/zmk/zephyr/include/zephyr/fatal_types.h"
	.file 11 "<built-in>"