	.cpu cortex-m4
	.arch armv7e-m
	.fpu fpv4-sp-d16
	.eabi_attribute 27, 1
	.eabi_attribute 28, 1
	.eabi_attribute 20, 1
	.eabi_attribute 21, 1
	.eabi_attribute 23, 3
	.eabi_attribute 24, 1
	.eabi_attribute 25, 1
	.eabi_attribute 26, 1
	.eabi_attribute 30, 4
	.eabi_attribute 34, 1
	.eabi_attribute 38, 1
	.eabi_attribute 18, 4
	.file	"nrfx_gpiote.c"
	.text
.Ltext0:
	.cfi_sections	.debug_frame
	.file 1 "/home/g/mise-work/zmk-firmware/zmk/modules/hal/nordic/nrfx/drivers/src/nrfx_gpiote.c"
	.section	.text.nrf_gpio_pin_port_decode,"ax",%progbits
	.align	1
	.syntax unified
	.thumb
	.thumb_func
	.type	nrf_gpio_pin_port_decode, %function
nrf_gpio_pin_port_decode:
.LVL0:
.LFB317:
	.file 2 "/home/g/mise-work/zmk-firmware/zmk/modules/hal/nordic/nrfx/hal/nrf_gpio.h"
	.loc 2 892 1 view -0
	.cfi_startproc
	@ args = 0, pretend = 0, frame = 0
	@ frame_needed = 0, uses_anonymous_args = 0
	@ link register save eliminated.
	.loc 2 893 7 view .LVU1
	.loc 2 893 8 view .LVU2
	.loc 2 895 5 view .LVU3
	.loc 2 897 5 view .LVU4
.LBB482:
.LBI482:
	.loc 2 1449 24 view .LVU5
.LBB483:
	.loc 2 1451 5 view .LVU6
	.loc 2 1451 14 is_stmt 0 view .LVU7
	ldr	r3, [r0]
.LVL1:
	.loc 2 1452 5 is_stmt 1 view .LVU8
	.loc 2 1452 28 is_stmt 0 view .LVU9
	and	r2, r3, #31
.LBE483:
.LBE482:
	.loc 2 897 5 view .LVU10
	lsrs	r3, r3, #5
.LVL2:
.LBB485:
.LBB484:
	.loc 2 1452 12 view .LVU11
	str	r2, [r0]
.LVL3:
	.loc 2 1454 5 is_stmt 1 view .LVU12
	.loc 2 1454 5 is_stmt 0 view .LVU13
.LBE484:
.LBE485:
	.loc 2 897 5 view .LVU14
	beq	.L3
	.loc 2 895 21 view .LVU15
	cmp	r3, #1
	ldr	r0, .L5
.LVL4:
	.loc 2 895 21 view .LVU16
	it	ne
	movne	r0, #0
	bx	lr
.LVL5:
.L3:
	.loc 2 897 5 view .LVU17
	mov	r0, #1342177280
.LVL6:
	.loc 2 905 1 view .LVU18
	bx	lr
.L6:
	.align	2
.L5:
	.word	1342178048
	.cfi_endproc
.LFE317:
	.size	nrf_gpio_pin_port_decode, .-nrf_gpio_pin_port_decode
	.section	.text.nrf_gpio_reconfigure,"ax",%progbits
	.align	1
	.syntax unified
	.thumb
	.thumb_func
	.type	nrf_gpio_reconfigure, %function
nrf_gpio_reconfigure:
.LVL7:
.LFB321:
	.loc 2 971 1 is_stmt 1 view -0
	.cfi_startproc
	@ args = 8, pretend = 0, frame = 8
	@ frame_needed = 0, uses_anonymous_args = 0
	.loc 2 972 5 view .LVU20
	.loc 2 971 1 is_stmt 0 view .LVU21
	push	{r0, r1, r2, r4, r5, r6, r7, lr}
	.cfi_def_cfa_offset 32
	.cfi_offset 4, -20
	.cfi_offset 5, -16
	.cfi_offset 6, -12
	.cfi_offset 7, -8
	.cfi_offset 14, -4
	.loc 2 971 1 view .LVU22
	str	r0, [sp, #4]
	.loc 2 972 27 view .LVU23
	add	r0, sp, #4
.LVL8:
	.loc 2 971 1 view .LVU24
	ldrd	r4, r7, [sp, #32]
	mov	r6, r2
	mov	r5, r3
	.loc 2 972 27 view .LVU25
	bl	nrf_gpio_pin_port_decode
.LVL9:
	.loc 2 973 5 is_stmt 1 view .LVU26
	ldr	r3, [sp, #4]
	.loc 2 975 54 is_stmt 0 view .LVU27
	subs	ip, r6, #0
	it	ne
	movne	ip, #1
	add	r0, r0, r3, lsl #2
.LVL10:
	.loc 2 974 52 view .LVU28
	subs	r3, r1, #0
	it	ne
	movne	r3, #1
	.loc 2 976 53 view .LVU29
	cmp	r5, #0
	.loc 2 974 57 view .LVU30
	orr	r3, r3, ip, lsl #1
	.loc 2 976 53 view .LVU31
	ite	ne
	movne	ip, #12
	moveq	ip, #0
	.loc 2 978 54 view .LVU32
	cmp	r4, #0
	.loc 2 975 59 view .LVU33
	orr	r3, r3, ip
	.loc 2 978 54 view .LVU34
	ite	ne
	movne	ip, #1792
	moveq	ip, #0
	.loc 2 982 55 view .LVU35
	cmp	r7, #0
	.loc 2 976 58 view .LVU36
	orr	r3, r3, ip
	.loc 2 973 14 view .LVU37
	ldr	r2, [r0, #1792]
.LVL11:
	.loc 2 974 5 is_stmt 1 view .LVU38
	.loc 2 982 55 is_stmt 0 view .LVU39
	ite	ne
	movne	ip, #196608
	moveq	ip, #0
.LVL12:
	.loc 2 985 5 is_stmt 1 view .LVU40
	.loc 2 974 14 is_stmt 0 view .LVU41
	orr	r3, r3, ip
.LVL13:
	.loc 2 985 9 view .LVU42
	bic	r3, r2, r3
.LVL14:
	.loc 2 986 5 is_stmt 1 view .LVU43
	.loc 2 986 44 is_stmt 0 view .LVU44
	cbz	r1, .L11
	.loc 2 986 44 discriminator 1 view .LVU45
	ldrb	r1, [r1]	@ zero_extendqisi2
.LVL15:
.L11:
	.loc 2 987 48 view .LVU46
	cbz	r6, .L12
	.loc 2 987 43 discriminator 1 view .LVU47
	ldrb	r6, [r6]	@ zero_extendqisi2
.LVL16:
	.loc 2 987 48 discriminator 1 view .LVU48
	lsls	r6, r6, #1
.L12:
	.loc 2 987 48 discriminator 1 view .LVU49
	orrs	r1, r1, r3
	.loc 2 988 46 view .LVU50
	cbz	r5, .L13
	.loc 2 988 41 discriminator 1 view .LVU51
	ldrb	r5, [r5]	@ zero_extendqisi2
.LVL17:
	.loc 2 988 46 discriminator 1 view .LVU52
	lsls	r5, r5, #2
.L13:
	.loc 2 988 46 discriminator 1 view .LVU53
	orrs	r1, r1, r6
	.loc 2 990 48 view .LVU54
	cbz	r4, .L14
	.loc 2 990 43 discriminator 1 view .LVU55
	ldrb	r4, [r4]	@ zero_extendqisi2
.LVL18:
	.loc 2 990 48 discriminator 1 view .LVU56
	lsls	r4, r4, #8
.L14:
	.loc 2 990 48 discriminator 1 view .LVU57
	orrs	r1, r1, r5
	.loc 2 994 47 view .LVU58
	cbz	r7, .L15
	.loc 2 994 43 discriminator 1 view .LVU59
	ldrb	r7, [r7]	@ zero_extendqisi2
	.loc 2 994 47 discriminator 1 view .LVU60
	lsls	r7, r7, #16
.L15:
	.loc 2 986 9 view .LVU61
	orrs	r4, r4, r1
	orrs	r4, r4, r7
.LVL19:
	.loc 2 996 5 is_stmt 1 view .LVU62
	.loc 2 996 30 is_stmt 0 view .LVU63
	str	r4, [r0, #1792]
	.loc 2 997 1 view .LVU64
	add	sp, sp, #12
	.cfi_def_cfa_offset 20
	@ sp needed
	pop	{r4, r5, r6, r7, pc}
	.loc 2 997 1 view .LVU65
	.cfi_endproc
.LFE321:
	.size	nrf_gpio_reconfigure, .-nrf_gpio_reconfigure
	.section	.text.nrf_gpio_cfg_sense_set,"ax",%progbits
	.align	1
	.syntax unified
	.thumb
	.thumb_func
	.type	nrf_gpio_cfg_sense_set, %function
nrf_gpio_cfg_sense_set:
.LVL20:
.LFB330:
	.loc 2 1096 1 is_stmt 1 view -0
	.cfi_startproc
	@ args = 0, pretend = 0, frame = 8
	@ frame_needed = 0, uses_anonymous_args = 0
	.loc 2 1097 5 view .LVU67
	.loc 2 1096 1 is_stmt 0 view .LVU68
	push	{r0, r1, r2, r3, r4, lr}
	.cfi_def_cfa_offset 24
	.cfi_offset 14, -4
	.loc 2 1097 5 view .LVU69
	add	r3, sp, #15
	str	r3, [sp, #4]
	movs	r3, #0
	.loc 2 1096 1 view .LVU70
	strb	r1, [sp, #15]
	.loc 2 1097 5 view .LVU71
	str	r3, [sp]
	mov	r2, r3
	mov	r1, r3
.LVL21:
	.loc 2 1097 5 view .LVU72
	bl	nrf_gpio_reconfigure
.LVL22:
	.loc 2 1098 1 view .LVU73
	add	sp, sp, #20
	.cfi_def_cfa_offset 4
	@ sp needed
	ldr	pc, [sp], #4
	.cfi_endproc
.LFE330:
	.size	nrf_gpio_cfg_sense_set, .-nrf_gpio_cfg_sense_set
	.section	.text.get_pin_idx,"ax",%progbits
	.align	1
	.syntax unified
	.thumb
	.thumb_func
	.type	get_pin_idx, %function
get_pin_idx:
.LVL23:
.LFB433:
	.loc 1 255 1 is_stmt 1 view -0
	.cfi_startproc
	@ args = 0, pretend = 0, frame = 0
	@ frame_needed = 0, uses_anonymous_args = 0
	@ link register save eliminated.
	.loc 1 261 5 view .LVU75
	.loc 1 280 5 view .LVU76
	.loc 1 280 34 is_stmt 0 view .LVU77
	ldr	r2, .L26
	.loc 1 280 28 view .LVU78
	lsrs	r3, r0, #5
	.loc 1 280 41 view .LVU79
	and	r0, r0, #31
.LVL24:
	.loc 1 280 34 view .LVU80
	ldrb	r3, [r2, r3]	@ zero_extendqisi2
	add	r0, r0, r3
	.loc 1 282 1 view .LVU81
	uxtb	r0, r0
	bx	lr
.L27:
	.align	2
.L26:
	.word	port_offset.1
	.cfi_endproc
.LFE433:
	.size	get_pin_idx, .-get_pin_idx
	.section	.text.call_handler.constprop.0,"ax",%progbits
	.align	1
	.syntax unified
	.thumb
	.thumb_func
	.type	call_handler.constprop.0, %function
call_handler.constprop.0:
.LVL25:
.LFB520:
	.loc 1 1407 13 is_stmt 1 view -0
	.cfi_startproc
	@ args = 0, pretend = 0, frame = 0
	@ frame_needed = 0, uses_anonymous_args = 0
	.loc 1 1411 5 view .LVU83
	.loc 1 1407 13 is_stmt 0 view .LVU84
	push	{r4, r5, r6, lr}
	.cfi_def_cfa_offset 16
	.cfi_offset 4, -16
	.cfi_offset 5, -12
	.cfi_offset 6, -8
	.cfi_offset 14, -4
	.loc 1 1407 13 view .LVU85
	mov	r5, r0
.LVL26:
.LBB488:
.LBI488:
	.loc 1 575 45 is_stmt 1 view .LVU86
.LBB489:
	.loc 1 578 5 view .LVU87
	.loc 1 578 44 is_stmt 0 view .LVU88
	bl	get_pin_idx
.LVL27:
	.loc 1 578 43 view .LVU89
	ldr	r4, .L34
	adds	r0, r0, #8
.LBE489:
.LBE488:
	.loc 1 1407 13 view .LVU90
	mov	r6, r1
.LBB491:
.LBB490:
	.loc 1 578 43 view .LVU91
	ldrh	r3, [r4, r0, lsl #1]
	.loc 1 578 66 view .LVU92
	lsls	r2, r3, #23
	bpl	.L29
	ubfx	r3, r3, #9, #4
.LVL28:
	.loc 1 580 5 is_stmt 1 view .LVU93
	.loc 1 585 5 view .LVU94
	.loc 1 585 5 is_stmt 0 view .LVU95
.LBE490:
.LBE491:
	.loc 1 1413 5 is_stmt 1 view .LVU96
	.loc 1 1415 9 view .LVU97
	.loc 1 1415 47 is_stmt 0 view .LVU98
	add	r2, r4, r3, lsl #3
.LVL29:
	.loc 1 1415 9 view .LVU99
	mov	r0, r5
	ldr	r3, [r4, r3, lsl #3]
	ldr	r2, [r2, #4]
.LVL30:
	.loc 1 1415 9 view .LVU100
	blx	r3
.LVL31:
.L29:
	.loc 1 1417 5 is_stmt 1 view .LVU101
	.loc 1 1417 29 is_stmt 0 view .LVU102
	ldr	r3, [r4, #8]
	.loc 1 1417 8 view .LVU103
	cbz	r3, .L28
	.loc 1 1419 9 is_stmt 1 view .LVU104
	ldr	r2, [r4, #12]
	mov	r1, r6
	mov	r0, r5
	.loc 1 1421 1 is_stmt 0 view .LVU105
	pop	{r4, r5, r6, lr}
	.cfi_remember_state
	.cfi_restore 14
	.cfi_restore 6
	.cfi_restore 5
	.cfi_restore 4
	.cfi_def_cfa_offset 0
.LVL32:
	.loc 1 1419 9 view .LVU106
	bx	r3	@ indirect register sibling call
.LVL33:
.L28:
	.cfi_restore_state
	.loc 1 1421 1 view .LVU107
	pop	{r4, r5, r6, pc}
.LVL34:
.L35:
	.loc 1 1421 1 view .LVU108
	.align	2
.L34:
	.word	m_cb
	.cfi_endproc
.LFE520:
	.size	call_handler.constprop.0, .-call_handler.constprop.0
	.section	.text.release_handler.constprop.0,"ax",%progbits
	.align	1
	.syntax unified
	.thumb
	.thumb_func
	.type	release_handler.constprop.0, %function
release_handler.constprop.0:
.LVL35:
.LFB522:
	.loc 1 419 13 is_stmt 1 view -0
	.cfi_startproc
	@ args = 0, pretend = 0, frame = 0
	@ frame_needed = 0, uses_anonymous_args = 0
	.loc 1 421 5 view .LVU110
	.loc 1 419 13 is_stmt 0 view .LVU111
	push	{r4, lr}
	.cfi_def_cfa_offset 8
	.cfi_offset 4, -8
	.cfi_offset 14, -4
	.loc 1 421 19 view .LVU112
	bl	get_pin_idx
.LVL36:
	.loc 1 422 5 is_stmt 1 view .LVU113
	.loc 1 422 71 is_stmt 0 view .LVU114
	ldr	r2, .L47
	adds	r0, r0, #8
.LVL37:
	.loc 1 422 71 view .LVU115
	ldrh	r3, [r2, r0, lsl #1]
	.loc 1 422 66 view .LVU116
	lsls	r1, r3, #23
	bpl	.L36
	ubfx	r1, r3, #9, #4
.LVL38:
	.loc 1 424 5 is_stmt 1 view .LVU117
	.loc 1 429 5 view .LVU118
	.loc 1 429 54 is_stmt 0 view .LVU119
	bic	r3, r3, #7936
	strh	r3, [r2, r0, lsl #1]	@ movhi
	.loc 1 434 5 is_stmt 1 view .LVU120
.LVL39:
.LBB498:
.LBI498:
	.loc 1 405 12 view .LVU121
.LBB499:
	.loc 1 407 28 view .LVU122
	add	r4, r2, #14
	.loc 1 407 19 is_stmt 0 view .LVU123
	movs	r0, #0
.LVL40:
.L41:
	.loc 1 409 9 is_stmt 1 view .LVU124
	.loc 1 409 58 is_stmt 0 view .LVU125
	ldrh	r3, [r4, #2]!
	.loc 1 409 53 view .LVU126
	tst	r3, #256
	beq	.L39
	ubfx	r3, r3, #9, #4
	.loc 1 409 12 view .LVU127
	cmp	r1, r3
	beq	.L36
.L39:
	.loc 1 407 1500 is_stmt 1 view .LVU128
	adds	r0, r0, #1
.LVL41:
	.loc 1 407 28 view .LVU129
	cmp	r0, #48
	bne	.L41
.LVL42:
	.loc 1 407 28 is_stmt 0 view .LVU130
.LBE499:
.LBE498:
.LBB500:
	.loc 1 436 9 is_stmt 1 view .LVU131
	.loc 1 436 72 is_stmt 0 view .LVU132
	movs	r3, #0
	str	r3, [r2, r1, lsl #3]
	.loc 1 437 9 is_stmt 1 view .LVU133
	.loc 1 437 26 is_stmt 0 view .LVU134
	ldr	r0, .L47+4
.LBE500:
	.loc 1 442 1 view .LVU135
	pop	{r4, lr}
	.cfi_remember_state
	.cfi_restore 14
	.cfi_restore 4
	.cfi_def_cfa_offset 0
.LBB501:
	.loc 1 437 26 view .LVU136
	b	nrfx_flag32_free
.LVL43:
.L36:
	.cfi_restore_state
	.loc 1 437 26 view .LVU137
.LBE501:
	.loc 1 442 1 view .LVU138
	pop	{r4, pc}
.L48:
	.align	2
.L47:
	.word	m_cb
	.word	m_cb+120
	.cfi_endproc
.LFE522:
	.size	release_handler.constprop.0, .-release_handler.constprop.0
	.section	.text.pin_te_get.constprop.0,"ax",%progbits
	.align	1
	.syntax unified
	.thumb
	.thumb_func
	.type	pin_te_get.constprop.0, %function
pin_te_get.constprop.0:
.LVL44:
.LFB524:
	.loc 1 395 16 is_stmt 1 view -0
	.cfi_startproc
	@ args = 0, pretend = 0, frame = 0
	@ frame_needed = 0, uses_anonymous_args = 0
	.loc 1 397 5 view .LVU140
	.loc 1 395 16 is_stmt 0 view .LVU141
	push	{r3, lr}
	.cfi_def_cfa_offset 8
	.cfi_offset 3, -8
	.cfi_offset 14, -4
	.loc 1 397 58 view .LVU142
	bl	get_pin_idx
.LVL45:
	.loc 1 397 45 view .LVU143
	ldr	r3, .L50
	.loc 1 397 57 view .LVU144
	adds	r0, r0, #8
	.loc 1 397 45 view .LVU145
	ldrh	r0, [r3, r0, lsl #1]
	.loc 1 398 1 view .LVU146
	lsrs	r0, r0, #13
	pop	{r3, pc}
.L51:
	.align	2
.L50:
	.word	m_cb
	.cfi_endproc
.LFE524:
	.size	pin_te_get.constprop.0, .-pin_te_get.constprop.0
	.section	.text.pin_in_use_by_te.constprop.0,"ax",%progbits
	.align	1
	.syntax unified
	.thumb
	.thumb_func
	.type	pin_in_use_by_te.constprop.0, %function
pin_in_use_by_te.constprop.0:
.LVL46:
.LFB525:
	.loc 1 325 12 is_stmt 1 view -0
	.cfi_startproc
	@ args = 0, pretend = 0, frame = 0
	@ frame_needed = 0, uses_anonymous_args = 0
	.loc 1 327 5 view .LVU148
	.loc 1 325 12 is_stmt 0 view .LVU149
	push	{r3, lr}
	.cfi_def_cfa_offset 8
	.cfi_offset 3, -8
	.cfi_offset 14, -4
	.loc 1 327 56 view .LVU150
	bl	get_pin_idx
.LVL47:
	.loc 1 327 74 view .LVU151
	ldr	r3, .L53
	.loc 1 327 55 view .LVU152
	adds	r0, r0, #8
	.loc 1 327 74 view .LVU153
	ldrh	r0, [r3, r0, lsl #1]
	.loc 1 328 1 view .LVU154
	ubfx	r0, r0, #5, #1
	pop	{r3, pc}
.L54:
	.align	2
.L53:
	.word	m_cb
	.cfi_endproc
.LFE525:
	.size	pin_in_use_by_te.constprop.0, .-pin_in_use_by_te.constprop.0
	.section	.text.pin_in_event_get.constprop.0,"ax",%progbits
	.align	1
	.syntax unified
	.thumb
	.thumb_func
	.type	pin_in_event_get.constprop.0, %function
pin_in_event_get.constprop.0:
.LVL48:
.LFB526:
	.loc 1 483 27 is_stmt 1 view -0
	.cfi_startproc
	@ args = 0, pretend = 0, frame = 0
	@ frame_needed = 0, uses_anonymous_args = 0
	.loc 1 485 7 view .LVU156
	.loc 1 485 8 view .LVU157
	.loc 1 486 7 view .LVU158
	.loc 1 486 8 view .LVU159
	.loc 1 487 7 view .LVU160
	.loc 1 487 8 view .LVU161
	.loc 1 489 5 view .LVU162
	.loc 1 483 27 is_stmt 0 view .LVU163
	push	{r3, lr}
	.cfi_def_cfa_offset 8
	.cfi_offset 3, -8
	.cfi_offset 14, -4
	.loc 1 483 27 view .LVU164
	mov	r1, r0
	.loc 1 489 9 view .LVU165
	bl	pin_in_use_by_te.constprop.0
.LVL49:
	.loc 1 489 8 view .LVU166
	cbz	r0, .L57
.LVL50:
.LBB510:
.LBI510:
	.loc 1 483 27 is_stmt 1 view .LVU167
.LBB511:
	.loc 1 491 9 view .LVU168
	.loc 1 491 50 is_stmt 0 view .LVU169
	mov	r0, r1
	bl	pin_te_get.constprop.0
.LVL51:
.LBB512:
.LBI512:
	.file 3 "/home/g/mise-work/zmk-firmware/zmk/modules/hal/nordic/nrfx/haly/nrfy_gpiote.h"
	.loc 3 347 34 is_stmt 1 view .LVU170
	.loc 3 349 5 view .LVU171
.LBB513:
.LBI513:
	.file 4 "/home/g/mise-work/zmk-firmware/zmk/modules/hal/nordic/nrfx/hal/nrf_gpiote.h"
	.loc 4 936 34 view .LVU172
.LBB514:
	.loc 4 938 7 view .LVU173
	.loc 4 938 8 view .LVU174
	.loc 4 939 5 view .LVU175
	.loc 4 939 42 is_stmt 0 view .LVU176
	sxth	r0, r0
.LVL52:
	.loc 4 939 42 view .LVU177
	lsls	r0, r0, #2
	add	r0, r0, #256
	.loc 4 939 12 view .LVU178
	uxth	r0, r0
.LVL53:
.L56:
	.loc 4 939 12 view .LVU179
.LBE514:
.LBE513:
.LBE512:
.LBE511:
.LBE510:
	.loc 1 495 1 view .LVU180
	pop	{r3, pc}
.L57:
	.loc 1 494 12 view .LVU181
	mov	r0, #380
	b	.L56
	.cfi_endproc
.LFE526:
	.size	pin_in_event_get.constprop.0, .-pin_in_event_get.constprop.0
	.section	.text.latch_pending_read_and_check,"ax",%progbits
	.align	1
	.syntax unified
	.thumb
	.thumb_func
	.type	latch_pending_read_and_check, %function
latch_pending_read_and_check:
.LVL54:
.LFB512:
	.loc 1 1463 1 is_stmt 1 view -0
	.cfi_startproc
	@ args = 0, pretend = 0, frame = 0
	@ frame_needed = 0, uses_anonymous_args = 0
	.loc 1 1464 5 view .LVU183
.LBB522:
	.loc 1 1464 10 view .LVU184
	.loc 1 1464 42 view .LVU185
	.loc 1 1466 9 view .LVU186
.LBB523:
.LBI523:
	.file 5 "/home/g/mise-work/zmk-firmware/zmk/modules/hal/nordic/nrfx/drivers/include/nrf_bitmask.h"
	.loc 5 74 21 view .LVU187
.LBB524:
	.loc 5 76 5 view .LVU188
	.loc 5 77 5 view .LVU189
	.loc 5 78 5 view .LVU190
	.loc 5 79 5 view .LVU191
	.loc 5 79 5 is_stmt 0 view .LVU192
.LBE524:
.LBE523:
.LBE522:
	.loc 1 1463 1 view .LVU193
	mov	r3, r0
.LBB535:
	.loc 1 1466 12 view .LVU194
	ands	r0, r1, #1
.LVL55:
	.loc 1 1466 12 view .LVU195
.LBE535:
	.loc 1 1463 1 view .LVU196
	push	{r4, lr}
	.cfi_def_cfa_offset 8
	.cfi_offset 4, -8
	.cfi_offset 14, -4
	uxtb	r4, r1
.LBB536:
	.loc 1 1466 12 view .LVU197
	bne	.L59
.LVL56:
.L62:
	.loc 1 1464 55 is_stmt 1 view .LVU198
	.loc 1 1464 42 view .LVU199
	.loc 1 1466 9 view .LVU200
.LBB527:
	.loc 5 74 21 view .LVU201
.LBB525:
	.loc 5 76 5 view .LVU202
	.loc 5 77 5 view .LVU203
	.loc 5 78 5 view .LVU204
	.loc 5 79 5 view .LVU205
.LBE525:
.LBE527:
	.loc 1 1466 12 is_stmt 0 view .LVU206
	lsls	r2, r4, #30
.LBB528:
.LBB526:
	.loc 5 79 46 view .LVU207
	ubfx	r0, r4, #1, #1
.LVL57:
	.loc 5 79 46 view .LVU208
.LBE526:
.LBE528:
	.loc 1 1466 12 view .LVU209
	bpl	.L61
	.loc 1 1468 13 is_stmt 1 view .LVU210
.LVL58:
.LBB529:
.LBI529:
	.file 6 "/home/g/mise-work/zmk-firmware/zmk/modules/hal/nordic/nrfx/haly/nrfy_gpio.h"
	.loc 6 327 20 view .LVU211
	.loc 6 331 5 view .LVU212
	.loc 6 332 5 view .LVU213
.LBB530:
.LBI530:
	.loc 2 1350 20 view .LVU214
.LBB531:
	.loc 2 1354 5 view .LVU215
	.loc 2 1355 5 view .LVU216
	.loc 2 1357 5 view .LVU217
	.loc 2 1357 28 view .LVU218
	.loc 2 1359 9 view .LVU219
	.loc 2 1359 32 is_stmt 0 view .LVU220
	ldr	r2, .L63
	ldr	r0, [r2, #1312]
	.loc 2 1359 18 view .LVU221
	str	r0, [r3, #4]
	.loc 2 1362 9 is_stmt 1 view .LVU222
	.loc 2 1362 29 is_stmt 0 view .LVU223
	str	r0, [r2, #1312]
	.loc 2 1364 9 is_stmt 1 view .LVU224
.LVL59:
	.loc 2 1357 54 view .LVU225
	.loc 2 1357 28 view .LVU226
	.loc 2 1357 28 is_stmt 0 view .LVU227
.LBE531:
.LBE530:
	.loc 6 333 5 is_stmt 1 view .LVU228
	.loc 6 333 5 is_stmt 0 view .LVU229
.LBE529:
	.loc 1 1470 13 is_stmt 1 view .LVU230
	.loc 1 1470 16 is_stmt 0 view .LVU231
	subs	r0, r0, #0
	it	ne
	movne	r0, #1
	b	.L61
.LVL60:
.L59:
	.loc 1 1468 13 is_stmt 1 view .LVU232
.LBB534:
	.loc 6 327 20 view .LVU233
	.loc 6 331 5 view .LVU234
	.loc 6 332 5 view .LVU235
.LBB533:
	.loc 2 1350 20 view .LVU236
.LBB532:
	.loc 2 1354 5 view .LVU237
	.loc 2 1355 5 view .LVU238
	.loc 2 1357 5 view .LVU239
	.loc 2 1357 28 view .LVU240
	.loc 2 1359 9 view .LVU241
	.loc 2 1359 32 is_stmt 0 view .LVU242
	mov	r1, #1342177280
.LVL61:
	.loc 2 1359 32 view .LVU243
	ldr	r2, [r1, #1312]
	.loc 2 1359 18 view .LVU244
	str	r2, [r3]
	.loc 2 1362 9 is_stmt 1 view .LVU245
	.loc 2 1362 29 is_stmt 0 view .LVU246
	str	r2, [r1, #1312]
	.loc 2 1364 9 is_stmt 1 view .LVU247
.LVL62:
	.loc 2 1357 54 view .LVU248
	.loc 2 1357 28 view .LVU249
	.loc 2 1357 28 is_stmt 0 view .LVU250
.LBE532:
.LBE533:
	.loc 6 333 5 is_stmt 1 view .LVU251
	.loc 6 333 5 is_stmt 0 view .LVU252
.LBE534:
	.loc 1 1470 13 is_stmt 1 view .LVU253
	.loc 1 1470 16 is_stmt 0 view .LVU254
	cmp	r2, #0
	beq	.L62
.LVL63:
.L61:
	.loc 1 1470 16 view .LVU255
.LBE536:
	.loc 1 1480 1 view .LVU256
	pop	{r4, pc}
.L64:
	.align	2
.L63:
	.word	1342178048
	.cfi_endproc
.LFE512:
	.size	latch_pending_read_and_check, .-latch_pending_read_and_check
	.section	.text.__nrfy_internal_gpiote_events_process.constprop.0,"ax",%progbits
	.align	1
	.syntax unified
	.thumb
	.thumb_func
	.type	__nrfy_internal_gpiote_events_process.constprop.0, %function
__nrfy_internal_gpiote_events_process.constprop.0:
.LVL64:
.LFB529:
	.loc 3 400 24 is_stmt 1 view -0
	.cfi_startproc
	@ args = 0, pretend = 0, frame = 0
	@ frame_needed = 0, uses_anonymous_args = 0
	.loc 3 404 5 view .LVU258
	.loc 3 406 5 view .LVU259
	.loc 3 407 5 view .LVU260
.LBB583:
	.loc 3 407 10 view .LVU261
	.loc 3 407 10 is_stmt 0 view .LVU262
.LBE583:
	.loc 3 400 24 view .LVU263
	push	{r4, r5, r6, r7, lr}
	.cfi_def_cfa_offset 20
	.cfi_offset 4, -20
	.cfi_offset 5, -16
	.cfi_offset 6, -12
	.cfi_offset 7, -8
	.cfi_offset 14, -4
	.loc 3 400 24 view .LVU264
	mov	r5, r0
	.loc 3 404 14 view .LVU265
	movs	r0, #0
.LVL65:
.LBB605:
	.loc 3 407 19 view .LVU266
	mov	r4, r0
.LBB584:
.LBB585:
	.loc 3 388 21 view .LVU267
	movs	r6, #1
.LBB586:
.LBB587:
	.loc 4 646 72 view .LVU268
	mov	r7, r0
.LVL66:
.L66:
	.loc 4 646 72 view .LVU269
.LBE587:
.LBE586:
.LBE585:
.LBE584:
	.loc 3 407 28 is_stmt 1 view .LVU270
	cmp	r4, r1
	bne	.L68
.LBE605:
	.loc 3 415 5 view .LVU271
.LVL67:
.LBB606:
.LBI606:
	.loc 3 383 24 view .LVU272
.LBB607:
	.loc 3 388 5 view .LVU273
.LBB608:
.LBI608:
	.loc 4 638 23 view .LVU274
	.loc 4 641 5 view .LVU275
.LBB609:
.LBI609:
	.file 7 "/home/g/mise-work/zmk-firmware/zmk/modules/hal/nordic/nrfx/hal/nrf_common.h"
	.loc 7 281 23 view .LVU276
.LBB610:
	.loc 7 283 5 view .LVU277
	.loc 7 283 17 is_stmt 0 view .LVU278
	ldr	r3, .L79
	ldr	r2, [r3, #380]
.LVL68:
	.loc 7 283 17 view .LVU279
.LBE610:
.LBE609:
.LBE608:
	.loc 3 388 63 view .LVU280
	cbz	r2, .L65
	.loc 3 390 9 is_stmt 1 view .LVU281
.LVL69:
.LBB611:
.LBI611:
	.loc 4 644 20 view .LVU282
.LBB612:
	.loc 4 646 5 view .LVU283
	.loc 4 646 72 is_stmt 0 view .LVU284
	movs	r2, #0
	str	r2, [r3, #380]
	.loc 4 647 5 is_stmt 1 view .LVU285
.LVL70:
.LBB613:
.LBI613:
	.loc 7 186 20 view .LVU286
.LBB614:
	.loc 7 189 5 view .LVU287
	ldr	r3, [r3, #380]
.LVL71:
	.loc 7 189 5 is_stmt 0 view .LVU288
.LBE614:
.LBE613:
.LBE612:
.LBE611:
	.loc 3 391 9 is_stmt 1 view .LVU289
	.loc 3 393 13 view .LVU290
	.loc 3 393 25 is_stmt 0 view .LVU291
	orr	r0, r0, #-2147483648
.LVL72:
	.loc 3 393 25 view .LVU292
.LBE607:
.LBE606:
	.loc 3 417 5 is_stmt 1 view .LVU293
.L65:
	.loc 3 418 1 is_stmt 0 view .LVU294
	pop	{r4, r5, r6, r7, pc}
.LVL73:
.L68:
.LBB615:
	.loc 3 409 9 is_stmt 1 view .LVU295
.LBB599:
.LBI599:
	.loc 4 936 34 view .LVU296
.LBB600:
	.loc 4 938 7 view .LVU297
	.loc 4 938 8 view .LVU298
	.loc 4 939 5 view .LVU299
	.loc 4 939 5 is_stmt 0 view .LVU300
.LBE600:
.LBE599:
.LBB602:
.LBI584:
	.loc 3 383 24 is_stmt 1 view .LVU301
.LBB597:
	.loc 3 388 5 view .LVU302
.LBE597:
.LBE602:
.LBB603:
.LBB601:
	.loc 4 939 42 is_stmt 0 view .LVU303
	uxtb	r3, r4
	lsls	r3, r3, #2
	add	r2, r3, #256
.LBE601:
.LBE603:
.LBB604:
.LBB598:
	.loc 3 388 55 view .LVU304
	lsrs	r3, r3, #2
	.loc 3 388 21 view .LVU305
	lsl	r3, r6, r3
	.loc 3 388 8 view .LVU306
	tst	r5, r3
	beq	.L67
.LVL74:
.LBB593:
.LBI593:
	.loc 4 638 23 is_stmt 1 view .LVU307
	.loc 4 641 5 view .LVU308
.LBB594:
.LBI594:
	.loc 7 281 23 view .LVU309
.LBB595:
	.loc 7 283 5 view .LVU310
	.loc 7 283 18 is_stmt 0 view .LVU311
	add	r2, r2, #1073741824
.LVL75:
	.loc 7 283 18 view .LVU312
	add	r2, r2, #24576
.LVL76:
	.loc 7 283 17 view .LVU313
	ldr	ip, [r2]
.LVL77:
	.loc 7 283 17 view .LVU314
.LBE595:
.LBE594:
.LBE593:
	.loc 3 388 63 view .LVU315
	cmp	ip, #0
	beq	.L67
	.loc 3 390 9 is_stmt 1 view .LVU316
.LVL78:
.LBB596:
.LBI586:
	.loc 4 644 20 view .LVU317
.LBB592:
	.loc 4 646 5 view .LVU318
.LBB588:
.LBI588:
	.loc 4 650 24 view .LVU319
.LBB589:
	.loc 4 653 5 view .LVU320
	.loc 4 653 5 is_stmt 0 view .LVU321
.LBE589:
.LBE588:
	.loc 4 646 72 view .LVU322
	str	r7, [r2]
	.loc 4 647 5 is_stmt 1 view .LVU323
.LVL79:
.LBB590:
.LBI590:
	.loc 7 186 20 view .LVU324
.LBB591:
	.loc 7 189 5 view .LVU325
	ldr	r2, [r2]
.LVL80:
	.loc 7 189 5 is_stmt 0 view .LVU326
.LBE591:
.LBE590:
.LBE592:
.LBE596:
	.loc 3 391 9 is_stmt 1 view .LVU327
	.loc 3 393 13 view .LVU328
	.loc 3 393 25 is_stmt 0 view .LVU329
	orrs	r0, r0, r3
.LVL81:
.L67:
	.loc 3 393 25 view .LVU330
.LBE598:
.LBE604:
	.loc 3 407 48 is_stmt 1 view .LVU331
	adds	r4, r4, #1
.LVL82:
	.loc 3 407 48 is_stmt 0 view .LVU332
	b	.L66
.L80:
	.align	2
.L79:
	.word	1073766400
.LBE615:
	.cfi_endproc
.LFE529:
	.size	__nrfy_internal_gpiote_events_process.constprop.0, .-__nrfy_internal_gpiote_events_process.constprop.0
	.section	.text.pin_is_input.constprop.0,"ax",%progbits
	.align	1
	.syntax unified
	.thumb
	.thumb_func
	.type	pin_is_input.constprop.0, %function
pin_is_input.constprop.0:
.LVL83:
.LFB532:
	.loc 1 377 12 is_stmt 1 view -0
	.cfi_startproc
	@ args = 0, pretend = 0, frame = 0
	@ frame_needed = 0, uses_anonymous_args = 0
	.loc 1 379 5 view .LVU334
.LBB618:
.LBI618:
	.loc 1 353 12 view .LVU335
.LBB619:
	.loc 1 355 5 view .LVU336
.LBE619:
.LBE618:
	.loc 1 377 12 is_stmt 0 view .LVU337
	push	{r3, lr}
	.cfi_def_cfa_offset 8
	.cfi_offset 3, -8
	.cfi_offset 14, -4
.LBB622:
.LBB620:
	.loc 1 355 58 view .LVU338
	bl	get_pin_idx
.LVL84:
	.loc 1 355 58 view .LVU339
.LBE620:
.LBE622:
	.loc 1 379 5 view .LVU340
	ldr	r3, .L82
.LBB623:
.LBB621:
	.loc 1 355 57 view .LVU341
	adds	r0, r0, #8
.LBE621:
.LBE623:
	.loc 1 379 5 view .LVU342
	ldrh	r0, [r3, r0, lsl #1]
	eor	r0, r0, #2
	.loc 1 380 1 view .LVU343
	ubfx	r0, r0, #1, #1
	pop	{r3, pc}
.L83:
	.align	2
.L82:
	.word	m_cb
	.cfi_endproc
.LFE532:
	.size	pin_is_input.constprop.0, .-pin_is_input.constprop.0
	.section	.text.pin_trigger_disable.constprop.0,"ax",%progbits
	.align	1
	.syntax unified
	.thumb
	.thumb_func
	.type	pin_trigger_disable.constprop.0, %function
pin_trigger_disable.constprop.0:
.LVL85:
.LFB534:
	.loc 1 468 13 is_stmt 1 view -0
	.cfi_startproc
	@ args = 0, pretend = 0, frame = 0
	@ frame_needed = 0, uses_anonymous_args = 0
	.loc 1 470 5 view .LVU345
	.loc 1 468 13 is_stmt 0 view .LVU346
	push	{r4, lr}
	.cfi_def_cfa_offset 8
	.cfi_offset 4, -8
	.cfi_offset 14, -4
	.loc 1 468 13 view .LVU347
	mov	r4, r0
	.loc 1 470 9 view .LVU348
	bl	pin_in_use_by_te.constprop.0
.LVL86:
	.loc 1 470 8 view .LVU349
	cbz	r0, .L85
	.loc 1 470 46 view .LVU350
	mov	r0, r4
	bl	pin_is_input.constprop.0
.LVL87:
	.loc 1 470 43 view .LVU351
	cbz	r0, .L85
.LVL88:
.LBB648:
.LBI648:
	.loc 1 468 13 is_stmt 1 view .LVU352
.LBB649:
	.loc 1 472 9 view .LVU353
	.loc 1 472 22 is_stmt 0 view .LVU354
	mov	r0, r4
	bl	pin_te_get.constprop.0
.LVL89:
	.loc 1 474 9 is_stmt 1 view .LVU355
.LBB650:
.LBB651:
.LBB652:
	.loc 4 663 21 is_stmt 0 view .LVU356
	ldr	r2, .L94
.LBE652:
.LBE651:
.LBE650:
	.loc 1 474 57 view .LVU357
	movs	r3, #1
	lsls	r3, r3, r0
.LVL90:
.LBB655:
.LBI650:
	.loc 3 178 20 is_stmt 1 view .LVU358
	.loc 3 180 5 view .LVU359
.LBB654:
.LBI651:
	.loc 4 661 20 view .LVU360
.LBB653:
	.loc 4 663 5 view .LVU361
	.loc 4 663 21 is_stmt 0 view .LVU362
	str	r3, [r2, #776]
.LVL91:
	.loc 4 663 21 view .LVU363
.LBE653:
.LBE654:
	.loc 3 181 5 is_stmt 1 view .LVU364
	.loc 3 181 5 is_stmt 0 view .LVU365
.LBE655:
	.loc 1 475 9 is_stmt 1 view .LVU366
.LBB656:
.LBI656:
	.loc 3 238 20 view .LVU367
	.loc 3 240 5 view .LVU368
.LBB657:
.LBI657:
	.loc 4 828 20 view .LVU369
.LBB658:
	.loc 4 830 4 view .LVU370
	sxth	r3, r0
	lsls	r3, r3, #2
	add	r3, r3, #1073741824
	add	r3, r3, #24576
	.loc 4 830 17 is_stmt 0 view .LVU371
	ldr	r2, [r3, #1296]
	.loc 4 830 23 view .LVU372
	bic	r2, r2, #3
	str	r2, [r3, #1296]
.LBE658:
.LBE657:
.LBE656:
.LBE649:
.LBE648:
	.loc 1 481 1 view .LVU373
	pop	{r4, pc}
.LVL92:
.L85:
	.loc 1 479 9 is_stmt 1 view .LVU374
.LBB659:
.LBI659:
	.loc 6 139 20 view .LVU375
.LBB660:
	.loc 6 142 5 view .LVU376
	.loc 6 143 5 view .LVU377
	mov	r0, r4
	movs	r1, #0
.LBE660:
.LBE659:
	.loc 1 481 1 is_stmt 0 view .LVU378
	pop	{r4, lr}
	.cfi_restore 14
	.cfi_restore 4
	.cfi_def_cfa_offset 0
.LVL93:
.LBB662:
.LBB661:
	.loc 6 143 5 view .LVU379
	b	nrf_gpio_cfg_sense_set
.LVL94:
.L95:
	.loc 6 143 5 view .LVU380
	.align	2
.L94:
	.word	1073766400
.LBE661:
.LBE662:
	.cfi_endproc
.LFE534:
	.size	pin_trigger_disable.constprop.0, .-pin_trigger_disable.constprop.0
	.section	.text.pin_uninit.constprop.0,"ax",%progbits
	.align	1
	.syntax unified
	.thumb
	.thumb_func
	.type	pin_uninit.constprop.0, %function
pin_uninit.constprop.0:
.LVL95:
.LFB536:
	.loc 1 589 19 is_stmt 1 view -0
	.cfi_startproc
	@ args = 0, pretend = 0, frame = 8
	@ frame_needed = 0, uses_anonymous_args = 0
	.loc 1 591 5 view .LVU382
	.loc 1 589 19 is_stmt 0 view .LVU383
	push	{r0, r1, r4, r5, r6, lr}
	.cfi_def_cfa_offset 24
	.cfi_offset 4, -16
	.cfi_offset 5, -12
	.cfi_offset 6, -8
	.cfi_offset 14, -4
	.loc 1 589 19 view .LVU384
	mov	r4, r0
.LVL96:
.LBB685:
.LBI685:
	.loc 1 311 12 is_stmt 1 view .LVU385
.LBB686:
	.loc 1 313 5 view .LVU386
	.loc 1 313 56 is_stmt 0 view .LVU387
	bl	get_pin_idx
.LVL97:
	.loc 1 313 55 view .LVU388
	ldr	r6, .L103
	add	r5, r0, #8
	.loc 1 313 74 view .LVU389
	ldrh	r3, [r6, r5, lsl #1]
.LBE686:
.LBE685:
	.loc 1 591 8 view .LVU390
	lsls	r3, r3, #31
	bpl	.L99
.LVL98:
.LBB687:
.LBI687:
	.loc 1 589 19 is_stmt 1 view .LVU391
.LBB688:
	.loc 1 596 5 view .LVU392
	mov	r0, r4
	bl	pin_trigger_disable.constprop.0
.LVL99:
	.loc 1 597 5 view .LVU393
.LBB689:
.LBI689:
	.loc 1 447 13 view .LVU394
.LBB690:
	.loc 1 449 5 view .LVU395
	.loc 1 449 9 is_stmt 0 view .LVU396
	mov	r0, r4
	bl	pin_in_use_by_te.constprop.0
.LVL100:
	.loc 1 449 8 view .LVU397
	cbz	r0, .L98
	.loc 1 452 9 is_stmt 1 view .LVU398
	.loc 1 452 51 is_stmt 0 view .LVU399
	mov	r0, r4
	bl	pin_te_get.constprop.0
.LVL101:
.LBB691:
.LBI691:
	.loc 3 309 20 is_stmt 1 view .LVU400
.LBB692:
	.loc 3 311 5 view .LVU401
.LBB693:
.LBI693:
	.loc 4 901 20 view .LVU402
.LBB694:
	.loc 4 903 5 view .LVU403
	.loc 4 903 24 is_stmt 0 view .LVU404
	ldr	r3, .L103+4
	add	r0, r0, #324
.LVL102:
	.loc 4 903 24 view .LVU405
	movs	r2, #0
	str	r2, [r3, r0, lsl #2]
.LVL103:
	.loc 4 903 24 view .LVU406
.LBE694:
.LBE693:
	.loc 3 312 5 is_stmt 1 view .LVU407
.L98:
	.loc 3 312 5 is_stmt 0 view .LVU408
.LBE692:
.LBE691:
	.loc 1 459 5 is_stmt 1 view .LVU409
	.loc 1 461 5 view .LVU410
	mov	r0, r4
	bl	release_handler.constprop.0
.LVL104:
	.loc 1 462 5 view .LVU411
	.loc 1 462 67 is_stmt 0 view .LVU412
	movs	r3, #0
.LBE690:
.LBE689:
.LBB696:
.LBB697:
.LBB698:
.LBB699:
.LBB700:
	.loc 2 936 27 view .LVU413
	add	r0, sp, #4
.LBE700:
.LBE699:
.LBE698:
.LBE697:
.LBE696:
.LBB707:
.LBB695:
	.loc 1 462 67 view .LVU414
	strh	r3, [r6, r5, lsl #1]	@ movhi
.LVL105:
	.loc 1 462 67 view .LVU415
.LBE695:
.LBE707:
	.loc 1 598 5 is_stmt 1 view .LVU416
.LBB708:
.LBI696:
	.loc 6 107 20 view .LVU417
	.loc 6 109 5 view .LVU418
.LBB705:
.LBI697:
	.loc 2 1052 20 view .LVU419
.LBB703:
	.loc 2 1054 5 view .LVU420
	str	r4, [sp, #4]
.LVL106:
.LBB702:
.LBI699:
	.loc 2 928 20 view .LVU421
.LBB701:
	.loc 2 936 5 view .LVU422
	.loc 2 936 27 is_stmt 0 view .LVU423
	bl	nrf_gpio_pin_port_decode
.LVL107:
	.loc 2 937 5 is_stmt 1 view .LVU424
	ldr	r3, [sp, #4]
	add	r0, r0, r3, lsl #2
.LVL108:
	.loc 2 951 9 is_stmt 0 view .LVU425
	ldr	r3, .L103+8
	.loc 2 937 14 view .LVU426
	ldr	r2, [r0, #1792]
.LVL109:
	.loc 2 939 5 is_stmt 1 view .LVU427
	.loc 2 951 5 view .LVU428
	.loc 2 951 9 is_stmt 0 view .LVU429
	ands	r3, r3, r2
.LVL110:
	.loc 2 952 5 is_stmt 1 view .LVU430
	.loc 2 952 9 is_stmt 0 view .LVU431
	orr	r3, r3, #2
.LVL111:
	.loc 2 962 5 is_stmt 1 view .LVU432
	.loc 2 962 30 is_stmt 0 view .LVU433
	str	r3, [r0, #1792]
.LVL112:
	.loc 2 962 30 view .LVU434
.LBE701:
.LBE702:
.LBE703:
.LBE705:
	.loc 6 110 5 is_stmt 1 view .LVU435
	.loc 6 110 5 is_stmt 0 view .LVU436
.LBE708:
	.loc 1 600 5 is_stmt 1 view .LVU437
.LBB709:
.LBB706:
.LBB704:
	.loc 2 1054 5 is_stmt 0 view .LVU438
	ldr	r0, .L103+12
.LVL113:
.L96:
	.loc 2 1054 5 view .LVU439
.LBE704:
.LBE706:
.LBE709:
.LBE688:
.LBE687:
	.loc 1 601 1 view .LVU440
	add	sp, sp, #8
	.cfi_remember_state
	.cfi_def_cfa_offset 16
	@ sp needed
	pop	{r4, r5, r6, pc}
.LVL114:
.L99:
	.cfi_restore_state
	.loc 1 593 16 view .LVU441
	ldr	r0, .L103+16
	b	.L96
.L104:
	.align	2
.L103:
	.word	m_cb
	.word	1073766400
	.word	-198416
	.word	195887104
	.word	195887108
	.cfi_endproc
.LFE536:
	.size	pin_uninit.constprop.0, .-pin_uninit.constprop.0
	.section	.text.nrfx_gpiote_in_is_set,"ax",%progbits
	.align	1
	.global	nrfx_gpiote_in_is_set
	.syntax unified
	.thumb
	.thumb_func
	.type	nrfx_gpiote_in_is_set, %function
nrfx_gpiote_in_is_set:
.LVL115:
.LFB480:
	.loc 1 1044 1 is_stmt 1 view -0
	.cfi_startproc
	@ args = 0, pretend = 0, frame = 8
	@ frame_needed = 0, uses_anonymous_args = 0
	.loc 1 1045 7 view .LVU443
	.loc 1 1045 8 view .LVU444
	.loc 1 1046 5 view .LVU445
.LBB716:
.LBI716:
	.loc 6 183 24 view .LVU446
.LBB717:
	.loc 6 185 5 view .LVU447
	.loc 6 186 5 view .LVU448
.LBE717:
.LBE716:
	.loc 1 1044 1 is_stmt 0 view .LVU449
	push	{r0, r1, r2, lr}
	.cfi_def_cfa_offset 16
	.cfi_offset 14, -4
	str	r0, [sp, #4]
.LVL116:
.LBB725:
.LBB724:
.LBB718:
.LBI718:
	.loc 2 1173 24 is_stmt 1 view .LVU450
.LBB719:
	.loc 2 1175 5 view .LVU451
	.loc 2 1175 27 is_stmt 0 view .LVU452
	add	r0, sp, #4
.LVL117:
	.loc 2 1175 27 view .LVU453
	bl	nrf_gpio_pin_port_decode
.LVL118:
	.loc 2 1177 5 is_stmt 1 view .LVU454
.LBB720:
.LBI720:
	.loc 2 1251 24 view .LVU455
.LBB721:
	.loc 2 1253 5 view .LVU456
.LBE721:
.LBE720:
	.loc 2 1177 41 is_stmt 0 view .LVU457
	ldr	r3, [sp, #4]
.LBB723:
.LBB722:
	.loc 2 1253 17 view .LVU458
	ldr	r0, [r0, #1296]
.LVL119:
	.loc 2 1253 17 view .LVU459
.LBE722:
.LBE723:
	.loc 2 1177 41 view .LVU460
	lsrs	r0, r0, r3
.LVL120:
	.loc 2 1177 41 view .LVU461
.LBE719:
.LBE718:
	.loc 6 187 5 is_stmt 1 view .LVU462
	.loc 6 188 5 view .LVU463
	.loc 6 188 5 is_stmt 0 view .LVU464
.LBE724:
.LBE725:
	.loc 1 1047 1 view .LVU465
	and	r0, r0, #1
	add	sp, sp, #12
	.cfi_def_cfa_offset 4
	@ sp needed
	ldr	pc, [sp], #4
	.cfi_endproc
.LFE480:
	.size	nrfx_gpiote_in_is_set, .-nrfx_gpiote_in_is_set
	.section	.text.nrfx_gpiote_input_configure,"ax",%progbits
	.align	1
	.global	nrfx_gpiote_input_configure
	.syntax unified
	.thumb
	.thumb_func
	.type	nrfx_gpiote_input_configure, %function
nrfx_gpiote_input_configure:
.LVL121:
.LFB481:
	.loc 1 1234 1 is_stmt 1 view -0
	.cfi_startproc
	@ args = 0, pretend = 0, frame = 8
	@ frame_needed = 0, uses_anonymous_args = 0
	.loc 1 1235 5 view .LVU467
	.loc 1 1237 5 view .LVU468
	.loc 1 1234 1 is_stmt 0 view .LVU469
	push	{r4, r5, r6, r7, r8, r9, lr}
	.cfi_def_cfa_offset 28
	.cfi_offset 4, -28
	.cfi_offset 5, -24
	.cfi_offset 6, -20
	.cfi_offset 7, -16
	.cfi_offset 8, -12
	.cfi_offset 9, -8
	.cfi_offset 14, -4
	sub	sp, sp, #20
	.cfi_def_cfa_offset 48
	.loc 1 1234 1 view .LVU470
	mov	r6, r0
	mov	r5, r2
	mov	r7, r3
.LBB774:
.LBB775:
	.loc 1 624 19 view .LVU471
	bl	get_pin_idx
.LVL122:
	.loc 1 624 19 view .LVU472
	mov	r4, r0
.LBE775:
.LBE774:
	.loc 1 1237 8 view .LVU473
	cbz	r1, .L107
	.loc 1 1239 9 is_stmt 1 view .LVU474
.LVL123:
	.loc 1 1242 5 view .LVU475
	.loc 1 1248 5 view .LVU476
.LBB820:
.LBI774:
	.loc 1 619 19 view .LVU477
.LBB817:
	.loc 1 623 5 view .LVU478
	.loc 1 624 5 view .LVU479
	.loc 1 626 5 view .LVU480
.LBB776:
	.loc 1 628 9 view .LVU481
.LBB777:
.LBI777:
	.loc 1 365 12 view .LVU482
.LBB778:
	.loc 1 367 5 view .LVU483
.LBB779:
.LBI779:
	.loc 1 353 12 view .LVU484
.LBB780:
	.loc 1 355 5 view .LVU485
	.loc 1 355 57 is_stmt 0 view .LVU486
	ldr	r8, .L142
	add	r9, r0, #8
.LBE780:
.LBE779:
	.loc 1 367 43 view .LVU487
	ldrh	r3, [r8, r9, lsl #1]
	lsls	r3, r3, #30
	bpl	.L108
	.loc 1 367 46 view .LVU488
	mov	r0, r6
	bl	pin_in_use_by_te.constprop.0
.LVL124:
	.loc 1 367 43 view .LVU489
	cbnz	r0, .L110
.L108:
.LVL125:
	.loc 1 367 43 view .LVU490
.LBE778:
.LBE777:
	.loc 1 633 9 is_stmt 1 view .LVU491
	.loc 1 633 28 is_stmt 0 view .LVU492
	movs	r3, #0
.LBB781:
.LBB782:
	.loc 6 88 5 view .LVU493
	strd	r3, r3, [sp]
.LBE782:
.LBE781:
	.loc 1 633 28 view .LVU494
	strb	r3, [sp, #14]
	.loc 1 634 9 is_stmt 1 view .LVU495
	.loc 1 634 30 is_stmt 0 view .LVU496
	strb	r3, [sp, #15]
	.loc 1 636 9 is_stmt 1 view .LVU497
.LVL126:
.LBB784:
.LBI781:
	.loc 6 81 20 view .LVU498
.LBB783:
	.loc 6 88 5 view .LVU499
	add	r2, sp, #15
.LVL127:
	.loc 6 88 5 is_stmt 0 view .LVU500
	mov	r3, r1
	mov	r0, r6
	add	r1, sp, #14
.LVL128:
	.loc 6 88 5 view .LVU501
	bl	nrf_gpio_reconfigure
.LVL129:
	.loc 6 89 5 is_stmt 1 view .LVU502
	.loc 6 89 5 is_stmt 0 view .LVU503
.LBE783:
.LBE784:
	.loc 1 638 9 is_stmt 1 view .LVU504
	.loc 1 639 9 view .LVU505
	.loc 1 638 58 is_stmt 0 view .LVU506
	ldrh	r3, [r8, r9, lsl #1]
	bic	r3, r3, #2
	.loc 1 639 58 view .LVU507
	orr	r3, r3, #1
	strh	r3, [r8, r9, lsl #1]	@ movhi
.LVL130:
.L107:
	.loc 1 639 58 view .LVU508
.LBE776:
	.loc 1 642 5 is_stmt 1 view .LVU509
	.loc 1 642 8 is_stmt 0 view .LVU510
	cbz	r5, .L111
.LBB785:
	.loc 1 644 9 is_stmt 1 view .LVU511
.LBB786:
.LBB787:
	.loc 1 355 57 is_stmt 0 view .LVU512
	ldr	r3, .L142
.LBE787:
.LBE786:
	.loc 1 644 31 view .LVU513
	ldrb	ip, [r5]	@ zero_extendqisi2
.LVL131:
	.loc 1 645 8 is_stmt 1 view .LVU514
	.loc 1 645 49 is_stmt 0 view .LVU515
	ldr	r2, [r5, #4]
.LVL132:
	.loc 1 647 9 is_stmt 1 view .LVU516
.LBB789:
.LBI786:
	.loc 1 353 12 view .LVU517
.LBB788:
	.loc 1 355 5 view .LVU518
	.loc 1 355 57 is_stmt 0 view .LVU519
	add	r0, r4, #8
	ldrh	r1, [r3, r0, lsl #1]
.LVL133:
	.loc 1 355 57 view .LVU520
.LBE788:
.LBE789:
	.loc 1 647 12 view .LVU521
	tst	r1, #2
	beq	.L112
	.loc 1 649 13 is_stmt 1 view .LVU522
	.loc 1 649 16 is_stmt 0 view .LVU523
	cbz	r2, .L114
.LVL134:
.L110:
	.loc 1 649 16 view .LVU524
.LBE785:
.LBB809:
	.loc 1 630 20 view .LVU525
	ldr	r0, .L142+4
.LBE809:
.LBE817:
.LBE820:
	.loc 1 1248 12 view .LVU526
	b	.L106
.LVL135:
.L112:
.LBB821:
.LBB818:
.LBB810:
	.loc 1 656 13 is_stmt 1 view .LVU527
	.loc 1 656 62 is_stmt 0 view .LVU528
	bic	r1, r1, #32
	lsls	r1, r1, #19
	lsrs	r1, r1, #19
	strh	r1, [r3, r0, lsl #1]	@ movhi
	.loc 1 658 13 is_stmt 1 view .LVU529
	.loc 1 658 16 is_stmt 0 view .LVU530
	cbz	r2, .L114
.LBB790:
	.loc 1 659 16 is_stmt 1 view .LVU531
.LVL136:
	.loc 1 662 17 view .LVU532
	.loc 1 662 20 is_stmt 0 view .LVU533
	cmp	ip, #3
	bhi	.L110
	.loc 1 668 17 is_stmt 1 view .LVU534
	.loc 1 668 25 is_stmt 0 view .LVU535
	ldr	r2, [r5, #4]
.LVL137:
	.loc 1 668 25 view .LVU536
	ldrb	lr, [r2]	@ zero_extendqisi2
.LVL138:
	.loc 1 670 17 is_stmt 1 view .LVU537
	.loc 1 670 20 is_stmt 0 view .LVU538
	cmp	ip, #0
	bne	.L116
	.loc 1 672 21 is_stmt 1 view .LVU539
.LVL139:
.LBB791:
.LBI791:
	.loc 3 309 20 view .LVU540
.LBB792:
	.loc 3 311 5 view .LVU541
.LBB793:
.LBI793:
	.loc 4 901 20 view .LVU542
.LBB794:
	.loc 4 903 5 view .LVU543
	.loc 4 903 24 is_stmt 0 view .LVU544
	ldr	r2, .L142+8
	add	lr, lr, #324
.LVL140:
	.loc 4 903 24 view .LVU545
	str	ip, [r2, lr, lsl #2]
.LVL141:
	.loc 4 903 24 view .LVU546
.LBE794:
.LBE793:
	.loc 3 312 5 is_stmt 1 view .LVU547
.L114:
	.loc 3 312 5 is_stmt 0 view .LVU548
.LBE792:
.LBE791:
.LBE790:
	.loc 1 695 9 is_stmt 1 view .LVU549
	.loc 1 696 9 view .LVU550
	.loc 1 695 58 is_stmt 0 view .LVU551
	ldrh	r2, [r3, r0, lsl #1]
	bic	r2, r2, #28
	.loc 1 696 58 view .LVU552
	orr	r2, r2, ip, lsl #2
	strh	r2, [r3, r0, lsl #1]	@ movhi
.LVL142:
.L111:
	.loc 1 696 58 view .LVU553
.LBE810:
	.loc 1 699 5 is_stmt 1 view .LVU554
	.loc 1 699 8 is_stmt 0 view .LVU555
	cbnz	r7, .L117
.LVL143:
.L122:
	.loc 1 708 13 view .LVU556
	ldr	r0, .L142+12
.L106:
.LBE818:
.LBE821:
	.loc 1 1249 1 view .LVU557
	add	sp, sp, #20
	.cfi_remember_state
	.cfi_def_cfa_offset 28
	@ sp needed
	pop	{r4, r5, r6, r7, r8, r9, pc}
.LVL144:
.L116:
	.cfi_restore_state
.LBB822:
.LBB819:
.LBB811:
.LBB808:
.LBB795:
	.loc 1 676 21 is_stmt 1 view .LVU558
	.loc 1 678 21 view .LVU559
.LBB796:
.LBI796:
	.loc 3 238 20 view .LVU560
	.loc 3 240 5 view .LVU561
.LBB797:
.LBI797:
	.loc 4 828 20 view .LVU562
.LBB798:
	.loc 4 830 4 view .LVU563
	lsl	r2, lr, #2
	add	r2, r2, #1073741824
	add	r2, r2, #24576
.LBE798:
.LBE797:
.LBE796:
	.loc 1 681 70 is_stmt 0 view .LVU564
	orr	r1, r1, lr, lsl #13
.LBB801:
.LBB800:
.LBB799:
	.loc 4 830 17 view .LVU565
	ldr	r5, [r2, #1296]
.LVL145:
	.loc 4 830 23 view .LVU566
	bic	r5, r5, #3
	str	r5, [r2, #1296]
.LVL146:
	.loc 4 830 23 view .LVU567
.LBE799:
.LBE800:
	.loc 3 241 5 is_stmt 1 view .LVU568
	.loc 3 241 5 is_stmt 0 view .LVU569
.LBE801:
	.loc 1 679 21 is_stmt 1 view .LVU570
.LBB802:
.LBI802:
	.loc 3 245 20 view .LVU571
	.loc 3 250 5 view .LVU572
.LBB803:
.LBI803:
	.loc 4 833 20 view .LVU573
.LBB804:
	.loc 4 838 3 view .LVU574
	.loc 4 838 16 is_stmt 0 view .LVU575
	ldr	r5, [r2, #1296]
	.loc 4 838 22 view .LVU576
	bic	r5, r5, #211968
	bic	r5, r5, #768
	str	r5, [r2, #1296]
	.loc 4 839 3 is_stmt 1 view .LVU577
	.loc 4 839 31 is_stmt 0 view .LVU578
	lsls	r5, r6, #8
	.loc 4 839 16 view .LVU579
	ldr	r8, [r2, #1296]
	.loc 4 839 41 view .LVU580
	and	r5, r5, #16128
	.loc 4 839 84 view .LVU581
	orr	r5, r5, ip, lsl #16
	.loc 4 839 22 view .LVU582
	orr	r5, r5, r8
.LBE804:
.LBE803:
.LBE802:
	.loc 1 681 70 view .LVU583
	orr	r1, r1, #32
	strh	r1, [r3, r0, lsl #1]	@ movhi
.LBB807:
.LBB806:
.LBB805:
	.loc 4 839 22 view .LVU584
	str	r5, [r2, #1296]
.LVL147:
	.loc 4 839 22 view .LVU585
.LBE805:
.LBE806:
	.loc 3 251 5 is_stmt 1 view .LVU586
	.loc 3 251 5 is_stmt 0 view .LVU587
.LBE807:
	.loc 1 681 21 is_stmt 1 view .LVU588
	b	.L114
.LVL148:
.L117:
	.loc 1 681 21 is_stmt 0 view .LVU589
.LBE795:
.LBE808:
.LBE811:
	.loc 1 701 9 is_stmt 1 view .LVU590
	.loc 1 704 57 is_stmt 0 view .LVU591
	ldrd	r8, r7, [r7]
.LVL149:
.LBB812:
.LBI812:
	.loc 1 514 19 is_stmt 1 view .LVU592
.LBB813:
	.loc 1 519 5 view .LVU593
	.loc 1 520 5 view .LVU594
	.loc 1 522 5 view .LVU595
	mov	r0, r6
	bl	release_handler.constprop.0
.LVL150:
	.loc 1 523 5 view .LVU596
	.loc 1 523 8 is_stmt 0 view .LVU597
	cmp	r8, #0
	beq	.L122
.LBB814:
.LBB815:
	.loc 1 504 59 view .LVU598
	ldr	r5, .L142
	.loc 1 503 12 view .LVU599
	ldrd	r2, r3, [r5]
	cmp	r8, r2
	bne	.L120
	.loc 1 503 80 view .LVU600
	cmp	r7, r3
	bne	.L120
	movs	r2, #0
	b	.L121
.L120:
.LVL151:
	.loc 1 503 80 view .LVU601
.LBE815:
.LBE814:
	.loc 1 530 5 is_stmt 1 view .LVU602
.LBB816:
	.loc 1 532 9 view .LVU603
	.loc 1 534 9 view .LVU604
	.loc 1 534 15 is_stmt 0 view .LVU605
	ldr	r0, .L142+16
	add	r1, sp, #15
	bl	nrfx_flag32_alloc
.LVL152:
	.loc 1 535 9 is_stmt 1 view .LVU606
	.loc 1 535 12 is_stmt 0 view .LVU607
	ldr	r3, .L142+12
	cmp	r0, r3
	bne	.L106
	.loc 1 539 9 is_stmt 1 view .LVU608
	.loc 1 539 20 is_stmt 0 view .LVU609
	ldrb	r2, [sp, #15]	@ zero_extendqisi2
.LVL153:
.L121:
	.loc 1 539 20 view .LVU610
.LBE816:
	.loc 1 542 5 is_stmt 1 view .LVU611
	.loc 1 542 68 is_stmt 0 view .LVU612
	str	r8, [r5, r2, lsl #3]
	.loc 1 543 5 is_stmt 1 view .LVU613
	.loc 1 543 70 is_stmt 0 view .LVU614
	add	r3, r5, r2, lsl #3
	.loc 1 544 67 view .LVU615
	adds	r4, r4, #8
	.loc 1 543 70 view .LVU616
	str	r7, [r3, #4]
	.loc 1 544 5 is_stmt 1 view .LVU617
	.loc 1 544 67 is_stmt 0 view .LVU618
	ldrh	r3, [r5, r4, lsl #1]
	orr	r3, r3, r2, lsl #9
	orr	r3, r3, #256
	strh	r3, [r5, r4, lsl #1]	@ movhi
	.loc 1 547 5 is_stmt 1 view .LVU619
	.loc 1 547 12 is_stmt 0 view .LVU620
	b	.L122
.L143:
	.align	2
.L142:
	.word	m_cb
	.word	195887108
	.word	1073766400
	.word	195887104
	.word	m_cb+120
.LBE813:
.LBE812:
.LBE819:
.LBE822:
	.cfi_endproc
.LFE481:
	.size	nrfx_gpiote_input_configure, .-nrfx_gpiote_input_configure
	.section	.text.nrfx_gpiote_output_configure,"ax",%progbits
	.align	1
	.global	nrfx_gpiote_output_configure
	.syntax unified
	.thumb
	.thumb_func
	.type	nrfx_gpiote_output_configure, %function
nrfx_gpiote_output_configure:
.LVL154:
.LFB482:
	.loc 1 1254 1 is_stmt 1 view -0
	.cfi_startproc
	@ args = 0, pretend = 0, frame = 8
	@ frame_needed = 0, uses_anonymous_args = 0
	.loc 1 1254 1 is_stmt 0 view .LVU622
	push	{r0, r1, r2, r3, r4, r5, r6, r7, r8, lr}
	.cfi_def_cfa_offset 40
	.cfi_offset 4, -24
	.cfi_offset 5, -20
	.cfi_offset 6, -16
	.cfi_offset 7, -12
	.cfi_offset 8, -8
	.cfi_offset 14, -4
	.loc 1 1254 1 view .LVU623
	mov	r4, r0
	.loc 1 1255 5 is_stmt 1 view .LVU624
.LVL155:
.LBB847:
.LBI847:
	.loc 1 714 19 view .LVU625
.LBB848:
	.loc 1 719 5 view .LVU626
.LBE848:
.LBE847:
	.loc 1 1254 1 is_stmt 0 view .LVU627
	mov	r6, r2
.LBB879:
.LBB877:
	.loc 1 719 19 view .LVU628
	bl	get_pin_idx
.LVL156:
	.loc 1 719 19 view .LVU629
	mov	r5, r0
.LVL157:
	.loc 1 721 5 is_stmt 1 view .LVU630
	.loc 1 721 8 is_stmt 0 view .LVU631
	cbz	r1, .L145
.LBB849:
	.loc 1 724 9 is_stmt 1 view .LVU632
	.loc 1 724 13 is_stmt 0 view .LVU633
	mov	r0, r4
	bl	pin_is_input.constprop.0
.LVL158:
	.loc 1 724 12 view .LVU634
	cbz	r0, .L146
	.loc 1 724 46 view .LVU635
	mov	r0, r4
	bl	pin_in_use_by_te.constprop.0
.LVL159:
	.loc 1 724 43 view .LVU636
	cbnz	r0, .L149
.L146:
	.loc 1 731 9 is_stmt 1 view .LVU637
.LVL160:
.LBB850:
.LBI850:
	.loc 1 337 12 view .LVU638
.LBB851:
	.loc 1 339 5 view .LVU639
	.loc 1 339 80 is_stmt 0 view .LVU640
	ldr	r7, .L170
	add	r8, r5, #8
	.loc 1 339 44 view .LVU641
	ldrh	r3, [r7, r8, lsl #1]
.LBE851:
.LBE850:
	.loc 1 731 12 view .LVU642
	tst	r3, #28
	beq	.L148
	.loc 1 731 46 view .LVU643
	ldrb	r3, [r1, #1]	@ zero_extendqisi2
	cmp	r3, #1
	beq	.L149
.L148:
	.loc 1 737 9 is_stmt 1 view .LVU644
	.loc 1 737 28 is_stmt 0 view .LVU645
	movs	r3, #1
	strb	r3, [sp, #15]
	.loc 1 739 9 is_stmt 1 view .LVU646
.LVL161:
.LBB852:
.LBI852:
	.loc 6 81 20 view .LVU647
.LBB853:
	.loc 6 88 5 view .LVU648
	movs	r3, #0
	strd	r1, r3, [sp]
	adds	r2, r1, #1
.LVL162:
	.loc 6 88 5 is_stmt 0 view .LVU649
	adds	r3, r1, #2
.LVL163:
	.loc 6 88 5 view .LVU650
	mov	r0, r4
	add	r1, sp, #15
.LVL164:
	.loc 6 88 5 view .LVU651
	bl	nrf_gpio_reconfigure
.LVL165:
	.loc 6 89 5 is_stmt 1 view .LVU652
	.loc 6 89 5 is_stmt 0 view .LVU653
.LBE853:
.LBE852:
	.loc 1 742 9 is_stmt 1 view .LVU654
	.loc 1 742 58 is_stmt 0 view .LVU655
	ldrh	r3, [r7, r8, lsl #1]
	orr	r3, r3, #3
	strh	r3, [r7, r8, lsl #1]	@ movhi
.L145:
	.loc 1 742 58 view .LVU656
.LBE849:
	.loc 1 745 5 is_stmt 1 view .LVU657
	.loc 1 745 8 is_stmt 0 view .LVU658
	cmp	r6, #0
	beq	.L151
.LBB854:
	.loc 1 747 9 is_stmt 1 view .LVU659
	.loc 1 747 13 is_stmt 0 view .LVU660
	mov	r0, r4
	bl	pin_is_input.constprop.0
.LVL166:
	.loc 1 747 12 view .LVU661
	cbz	r0, .L152
.L149:
	.loc 1 747 12 view .LVU662
.LBE854:
	.loc 1 766 12 view .LVU663
	ldr	r0, .L170+4
.LVL167:
.L144:
	.loc 1 766 12 view .LVU664
.LBE877:
.LBE879:
	.loc 1 1256 1 view .LVU665
	add	sp, sp, #16
	.cfi_remember_state
	.cfi_def_cfa_offset 24
	@ sp needed
	pop	{r4, r5, r6, r7, r8, pc}
.LVL168:
.L152:
	.cfi_restore_state
.LBB880:
.LBB878:
.LBB876:
	.loc 1 752 9 is_stmt 1 view .LVU666
	.loc 1 752 36 is_stmt 0 view .LVU667
	ldrb	ip, [r6]	@ zero_extendqisi2
.LVL169:
	.loc 1 754 9 is_stmt 1 view .LVU668
.LBB855:
.LBI855:
	.loc 3 309 20 view .LVU669
	.loc 3 311 5 view .LVU670
.LBB856:
.LBI856:
	.loc 4 901 20 view .LVU671
.LBB857:
	.loc 4 903 5 view .LVU672
.LBE857:
.LBE856:
.LBE855:
	.loc 1 755 52 is_stmt 0 view .LVU673
	ldr	r7, .L170
	mov	r1, ip
	lsls	r1, r1, #2
	add	r1, r1, #1073741824
	add	r1, r1, #24576
.LBB860:
.LBB859:
.LBB858:
	.loc 4 903 24 view .LVU674
	str	r0, [r1, #1296]
.LVL170:
	.loc 4 903 24 view .LVU675
.LBE858:
.LBE859:
	.loc 3 312 5 is_stmt 1 view .LVU676
	.loc 3 312 5 is_stmt 0 view .LVU677
.LBE860:
	.loc 1 755 9 is_stmt 1 view .LVU678
	.loc 1 755 52 is_stmt 0 view .LVU679
	add	r0, r5, #8
	.loc 1 755 58 view .LVU680
	ldrh	r5, [r7, r0, lsl #1]
.LVL171:
	.loc 1 755 58 view .LVU681
	bic	r5, r5, #32
	lsls	r5, r5, #19
	lsrs	r5, r5, #19
	strh	r5, [r7, r0, lsl #1]	@ movhi
	.loc 1 757 9 is_stmt 1 view .LVU682
	.loc 1 757 26 is_stmt 0 view .LVU683
	ldrb	r2, [r6, #1]	@ zero_extendqisi2
	.loc 1 757 12 view .LVU684
	cbz	r2, .L151
	.loc 1 759 13 is_stmt 1 view .LVU685
.LBB861:
.LBB862:
.LBB863:
	.loc 4 884 16 is_stmt 0 view .LVU686
	ldr	r3, [r1, #1296]
.LBE863:
.LBE862:
.LBE861:
	.loc 1 761 53 view .LVU687
	ldrb	r6, [r6, #2]	@ zero_extendqisi2
.LVL172:
.LBB872:
.LBI861:
	.loc 3 289 20 is_stmt 1 view .LVU688
	.loc 3 295 5 view .LVU689
.LBB868:
.LBI862:
	.loc 4 878 20 view .LVU690
.LBB864:
	.loc 4 884 3 view .LVU691
	.loc 4 884 22 is_stmt 0 view .LVU692
	bic	r3, r3, #1253376
	bic	r3, r3, #7936
	str	r3, [r1, #1296]
.LVL173:
	.loc 4 888 3 is_stmt 1 view .LVU693
	.loc 4 889 36 is_stmt 0 view .LVU694
	lsls	r2, r2, #16
.LVL174:
	.loc 4 888 31 view .LVU695
	lsls	r3, r4, #8
	.loc 4 888 16 view .LVU696
	ldr	lr, [r1, #1296]
	.loc 4 889 47 view .LVU697
	and	r2, r2, #196608
	.loc 4 888 41 view .LVU698
	and	r3, r3, #16128
	.loc 4 888 84 view .LVU699
	orrs	r3, r3, r2
.LBE864:
.LBE868:
.LBE872:
	.loc 1 762 62 view .LVU700
	orr	r5, r5, ip, lsl #13
.LBB873:
.LBB869:
.LBB865:
	.loc 4 890 36 view .LVU701
	lsls	r2, r6, #20
	.loc 4 888 22 view .LVU702
	orr	r3, r3, lr
	.loc 4 890 47 view .LVU703
	and	r2, r2, #1048576
.LBE865:
.LBE869:
.LBE873:
	.loc 1 762 62 view .LVU704
	orr	r5, r5, #32
.LBB874:
.LBB870:
.LBB866:
	.loc 4 888 22 view .LVU705
	orrs	r3, r3, r2
.LBE866:
.LBE870:
.LBE874:
	.loc 1 762 62 view .LVU706
	strh	r5, [r7, r0, lsl #1]	@ movhi
.LBB875:
.LBB871:
.LBB867:
	.loc 4 888 22 view .LVU707
	str	r3, [r1, #1296]
.LVL175:
	.loc 4 888 22 view .LVU708
.LBE867:
.LBE871:
	.loc 3 296 5 is_stmt 1 view .LVU709
	.loc 3 296 5 is_stmt 0 view .LVU710
.LBE875:
	.loc 1 762 13 is_stmt 1 view .LVU711
.L151:
	.loc 1 762 13 is_stmt 0 view .LVU712
.LBE876:
	.loc 1 766 12 view .LVU713
	ldr	r0, .L170+8
.LVL176:
	.loc 1 766 12 view .LVU714
.LBE878:
.LBE880:
	.loc 1 1255 12 view .LVU715
	b	.L144
.L171:
	.align	2
.L170:
	.word	m_cb
	.word	195887108
	.word	195887104
	.cfi_endproc
.LFE482:
	.size	nrfx_gpiote_output_configure, .-nrfx_gpiote_output_configure
	.section	.text.nrfx_gpiote_global_callback_set,"ax",%progbits
	.align	1
	.global	nrfx_gpiote_global_callback_set
	.syntax unified
	.thumb
	.thumb_func
	.type	nrfx_gpiote_global_callback_set, %function
nrfx_gpiote_global_callback_set:
.LVL177:
.LFB483:
	.loc 1 1260 1 is_stmt 1 view -0
	.cfi_startproc
	@ args = 0, pretend = 0, frame = 0
	@ frame_needed = 0, uses_anonymous_args = 0
	@ link register save eliminated.
	.loc 1 1261 5 view .LVU717
.LBB881:
.LBI881:
	.loc 1 769 13 view .LVU718
.LBB882:
	.loc 1 773 5 view .LVU719
	.loc 1 773 62 is_stmt 0 view .LVU720
	ldr	r3, .L173
	.loc 1 774 64 view .LVU721
	strd	r0, r1, [r3, #8]
.LVL178:
	.loc 1 774 64 view .LVU722
.LBE882:
.LBE881:
	.loc 1 1262 1 view .LVU723
	bx	lr
.L174:
	.align	2
.L173:
	.word	m_cb
	.cfi_endproc
.LFE483:
	.size	nrfx_gpiote_global_callback_set, .-nrfx_gpiote_global_callback_set
	.section	.text.nrfx_gpiote_channel_get,"ax",%progbits
	.align	1
	.global	nrfx_gpiote_channel_get
	.syntax unified
	.thumb
	.thumb_func
	.type	nrfx_gpiote_channel_get, %function
nrfx_gpiote_channel_get:
.LVL179:
.LFB484:
	.loc 1 1265 1 is_stmt 1 view -0
	.cfi_startproc
	@ args = 0, pretend = 0, frame = 0
	@ frame_needed = 0, uses_anonymous_args = 0
	.loc 1 1266 5 view .LVU725
	.loc 1 1265 1 is_stmt 0 view .LVU726
	push	{r4, lr}
	.cfi_def_cfa_offset 8
	.cfi_offset 4, -8
	.cfi_offset 14, -4
	.loc 1 1265 1 view .LVU727
	mov	r4, r0
.LVL180:
.LBB885:
.LBI885:
	.loc 1 777 19 is_stmt 1 view .LVU728
.LBB886:
	.loc 1 781 7 view .LVU729
	.loc 1 781 8 view .LVU730
	.loc 1 783 5 view .LVU731
	.loc 1 783 9 is_stmt 0 view .LVU732
	bl	pin_in_use_by_te.constprop.0
.LVL181:
	.loc 1 783 8 view .LVU733
	cbz	r0, .L177
	.loc 1 785 9 is_stmt 1 view .LVU734
	.loc 1 785 68 is_stmt 0 view .LVU735
	mov	r0, r4
	bl	get_pin_idx
.LVL182:
	.loc 1 785 55 view .LVU736
	ldr	r3, .L178
	.loc 1 785 67 view .LVU737
	adds	r0, r0, #8
	.loc 1 785 55 view .LVU738
	ldrh	r3, [r3, r0, lsl #1]
	.loc 1 786 16 view .LVU739
	ldr	r0, .L178+4
	.loc 1 785 55 view .LVU740
	lsrs	r3, r3, #13
	strb	r3, [r1]
	.loc 1 786 9 is_stmt 1 view .LVU741
.LVL183:
.L175:
	.loc 1 786 9 is_stmt 0 view .LVU742
.LBE886:
.LBE885:
	.loc 1 1267 1 view .LVU743
	pop	{r4, pc}
.LVL184:
.L177:
.LBB888:
.LBB887:
	.loc 1 790 16 view .LVU744
	ldr	r0, .L178+8
.LVL185:
	.loc 1 790 16 view .LVU745
.LBE887:
.LBE888:
	.loc 1 1266 12 view .LVU746
	b	.L175
.L179:
	.align	2
.L178:
	.word	m_cb
	.word	195887104
	.word	195887108
	.cfi_endproc
.LFE484:
	.size	nrfx_gpiote_channel_get, .-nrfx_gpiote_channel_get
	.section	.text.nrfx_gpiote_init,"ax",%progbits
	.align	1
	.global	nrfx_gpiote_init
	.syntax unified
	.thumb
	.thumb_func
	.type	nrfx_gpiote_init, %function
nrfx_gpiote_init:
.LVL186:
.LFB485:
	.loc 1 1270 1 is_stmt 1 view -0
	.cfi_startproc
	@ args = 0, pretend = 0, frame = 0
	@ frame_needed = 0, uses_anonymous_args = 0
	.loc 1 1271 5 view .LVU748
.LBB965:
.LBI965:
	.loc 1 794 19 view .LVU749
.LBB966:
	.loc 1 804 5 view .LVU750
	.loc 1 805 5 view .LVU751
	.loc 1 807 5 view .LVU752
.LBB967:
	.loc 1 807 10 view .LVU753
.LBE967:
	.loc 1 807 8 view .LVU754
	.loc 1 810 5 view .LVU755
.LBE966:
.LBE965:
	.loc 1 1270 1 is_stmt 0 view .LVU756
	push	{r3, r4, r5, lr}
	.cfi_def_cfa_offset 16
	.cfi_offset 3, -16
	.cfi_offset 4, -12
	.cfi_offset 5, -8
	.cfi_offset 14, -4
.LBB1005:
.LBB1003:
	.loc 1 810 13 view .LVU757
	ldr	r5, .L186
	.loc 1 810 8 view .LVU758
	ldrb	r4, [r5, #128]	@ zero_extendqisi2
	cbnz	r4, .L185
	.loc 1 823 4 is_stmt 1 view .LVU759
	.loc 1 823 26 is_stmt 0 view .LVU760
	mov	r1, r4
	movs	r2, #96
	add	r0, r5, #16
.LVL187:
	.loc 1 823 26 view .LVU761
	bl	memset
.LVL188:
	.loc 1 825 5 is_stmt 1 view .LVU762
	ldr	r0, [r5, #112]
.LVL189:
.LBB968:
.LBI968:
	.loc 3 80 20 view .LVU763
.LBB969:
.LBB970:
	.loc 3 86 19 is_stmt 0 view .LVU764
	mov	r1, r4
.L182:
.LVL190:
	.loc 3 86 28 is_stmt 1 view .LVU765
	cmp	r0, r1
	bne	.L184
.LBE970:
	.loc 3 93 5 view .LVU766
.LVL191:
.LBB989:
.LBI989:
	.loc 3 373 20 view .LVU767
	.loc 3 377 5 view .LVU768
	.loc 3 379 9 view .LVU769
.LBB990:
.LBI990:
	.loc 4 644 20 view .LVU770
.LBB991:
	.loc 4 646 5 view .LVU771
	.loc 4 646 72 is_stmt 0 view .LVU772
	ldr	r3, .L186+4
	movs	r2, #0
	str	r2, [r3, #380]
	.loc 4 647 5 is_stmt 1 view .LVU773
.LVL192:
.LBB992:
.LBI992:
	.loc 7 186 20 view .LVU774
.LBB993:
	.loc 7 189 5 view .LVU775
.LBE993:
.LBE992:
.LBE991:
.LBE990:
.LBE989:
	.loc 3 105 5 is_stmt 0 view .LVU776
	movs	r0, #6
.LVL193:
.LBB998:
.LBB997:
.LBB996:
.LBB995:
.LBB994:
	.loc 7 189 5 view .LVU777
	ldr	r3, [r3, #380]
.LVL194:
	.loc 7 189 5 view .LVU778
.LBE994:
.LBE995:
.LBE996:
.LBE997:
.LBE998:
	.loc 3 102 5 is_stmt 1 view .LVU779
	.loc 3 104 5 view .LVU780
	.loc 3 105 5 view .LVU781
	bl	arch_irq_enable
.LVL195:
	.loc 3 106 5 view .LVU782
	.loc 3 110 5 view .LVU783
	.loc 3 110 5 is_stmt 0 view .LVU784
.LBE969:
.LBE968:
	.loc 1 831 5 is_stmt 1 view .LVU785
	.loc 1 831 17 is_stmt 0 view .LVU786
	movs	r3, #1
	.loc 1 835 12 view .LVU787
	ldr	r0, .L186+8
	.loc 1 831 17 view .LVU788
	strb	r3, [r5, #128]
	.loc 1 832 5 is_stmt 1 view .LVU789
	.loc 1 832 34 is_stmt 0 view .LVU790
	str	r3, [r5, #120]
	.loc 1 834 5 is_stmt 1 view .LVU791
.LBB1001:
	.loc 1 834 10 view .LVU792
.LBE1001:
	.loc 1 834 8 view .LVU793
	.loc 1 835 5 view .LVU794
.LVL196:
.L180:
	.loc 1 835 5 is_stmt 0 view .LVU795
.LBE1003:
.LBE1005:
	.loc 1 1272 1 view .LVU796
	pop	{r3, r4, r5, pc}
.LVL197:
.L184:
.LBB1006:
.LBB1004:
.LBB1002:
.LBB1000:
.LBB999:
	.loc 3 88 9 is_stmt 1 view .LVU797
.LBB971:
.LBI971:
	.loc 4 936 34 view .LVU798
.LBB972:
	.loc 4 938 7 view .LVU799
	.loc 4 938 8 view .LVU800
	.loc 4 939 5 view .LVU801
	.loc 4 939 5 is_stmt 0 view .LVU802
.LBE972:
.LBE971:
.LBB974:
.LBI974:
	.loc 3 373 20 is_stmt 1 view .LVU803
.LBB975:
	.loc 3 377 5 view .LVU804
.LBE975:
.LBE974:
.LBB986:
.LBB973:
	.loc 4 939 42 is_stmt 0 view .LVU805
	uxtb	r2, r1
	lsls	r2, r2, #2
	add	r3, r2, #256
.LBE973:
.LBE986:
.LBB987:
.LBB984:
	.loc 3 377 8 view .LVU806
	cmp	r2, #124
	.loc 3 379 9 is_stmt 1 view .LVU807
.LVL198:
.LBB976:
.LBI976:
	.loc 4 644 20 view .LVU808
.LBB977:
	.loc 4 646 5 view .LVU809
.LBB978:
.LBI978:
	.loc 4 650 24 view .LVU810
.LBB979:
	.loc 4 653 5 view .LVU811
	.loc 4 653 29 is_stmt 0 view .LVU812
	itt	eq
	addeq	r3, r3, #1073741824
	addeq	r3, r3, #24576
.LBE979:
.LBE978:
.LBE977:
.LBE976:
.LBE984:
.LBE987:
	.loc 3 86 48 view .LVU813
	add	r1, r1, #1
.LVL199:
.LBB988:
.LBB985:
.LBB983:
.LBB982:
	.loc 4 646 72 view .LVU814
	itt	eq
	streq	r4, [r3]
	.loc 4 647 5 is_stmt 1 view .LVU815
.LVL200:
.LBB980:
.LBI980:
	.loc 7 186 20 view .LVU816
.LBB981:
	.loc 7 189 5 view .LVU817
	ldreq	r3, [r3]
.LVL201:
	.loc 7 189 5 is_stmt 0 view .LVU818
.LBE981:
.LBE980:
.LBE982:
.LBE983:
.LBE985:
.LBE988:
	.loc 3 86 48 is_stmt 1 view .LVU819
	.loc 3 86 48 is_stmt 0 view .LVU820
	b	.L182
.LVL202:
.L185:
	.loc 3 86 48 view .LVU821
.LBE999:
.LBE1000:
.LBE1002:
	.loc 1 820 16 view .LVU822
	ldr	r0, .L186+12
.LVL203:
	.loc 1 820 16 view .LVU823
.LBE1004:
.LBE1006:
	.loc 1 1271 12 view .LVU824
	b	.L180
.L187:
	.align	2
.L186:
	.word	m_cb
	.word	1073766400
	.word	195887104
	.word	195887109
	.cfi_endproc
.LFE485:
	.size	nrfx_gpiote_init, .-nrfx_gpiote_init
	.section	.text.nrfx_gpiote_is_init,"ax",%progbits
	.align	1
	.global	nrfx_gpiote_is_init
	.syntax unified
	.thumb
	.thumb_func
	.type	nrfx_gpiote_is_init, %function
nrfx_gpiote_is_init:
.LFB486:
	.loc 1 1275 1 is_stmt 1 view -0
	.cfi_startproc
	@ args = 0, pretend = 0, frame = 0
	@ frame_needed = 0, uses_anonymous_args = 0
	@ link register save eliminated.
	.loc 1 1276 5 view .LVU826
.LVL204:
.LBB1007:
.LBI1007:
	.loc 1 838 12 view .LVU827
.LBB1008:
	.loc 1 840 5 view .LVU828
	.loc 1 840 45 is_stmt 0 view .LVU829
	ldr	r3, .L189
	.loc 1 840 53 view .LVU830
	ldrb	r0, [r3, #128]	@ zero_extendqisi2
.LBE1008:
.LBE1007:
	.loc 1 1277 1 view .LVU831
	subs	r0, r0, #0
	it	ne
	movne	r0, #1
	bx	lr
.L190:
	.align	2
.L189:
	.word	m_cb
	.cfi_endproc
.LFE486:
	.size	nrfx_gpiote_is_init, .-nrfx_gpiote_is_init
	.section	.text.nrfx_gpiote_uninit,"ax",%progbits
	.align	1
	.global	nrfx_gpiote_uninit
	.syntax unified
	.thumb
	.thumb_func
	.type	nrfx_gpiote_uninit, %function
nrfx_gpiote_uninit:
.LFB487:
	.loc 1 1280 1 is_stmt 1 view -0
	.cfi_startproc
	@ args = 0, pretend = 0, frame = 0
	@ frame_needed = 0, uses_anonymous_args = 0
	.loc 1 1281 5 view .LVU833
.LBB1039:
.LBI1039:
	.loc 1 843 13 view .LVU834
.LVL205:
.LBB1040:
.LBB1041:
	.loc 1 861 26 view .LVU835
.LBE1041:
.LBE1040:
.LBE1039:
	.loc 1 1280 1 is_stmt 0 view .LVU836
	push	{r3, r4, r5, r6, r7, r8, r9, lr}
	.cfi_def_cfa_offset 32
	.cfi_offset 3, -32
	.cfi_offset 4, -28
	.cfi_offset 5, -24
	.cfi_offset 6, -20
	.cfi_offset 7, -16
	.cfi_offset 8, -12
	.cfi_offset 9, -8
	.cfi_offset 14, -4
.LBB1059:
.LBB1058:
.LBB1056:
.LBB1042:
	.loc 1 863 41 view .LVU837
	ldr	r9, .L202+8
	.loc 1 865 51 view .LVU838
	ldr	r7, .L202
.LBE1042:
	.loc 1 861 17 view .LVU839
	movs	r4, #0
.LVL206:
.L192:
.LBB1054:
	.loc 1 863 41 view .LVU840
	ldrb	r8, [r9, r4]	@ zero_extendqisi2
	.loc 1 863 21 view .LVU841
	movs	r5, #0
	.loc 1 865 51 view .LVU842
	adds	r6, r4, r7
	b	.L197
.LVL207:
.L195:
	.loc 1 865 13 is_stmt 1 view .LVU843
	ldrb	r0, [r6]	@ zero_extendqisi2
	add	r0, r5, r0, lsl #5
.LVL208:
.LBB1043:
.LBI1043:
	.loc 1 604 13 view .LVU844
.LBB1044:
	.loc 1 606 5 view .LVU845
.LBB1045:
.LBI1045:
	.loc 6 382 24 view .LVU846
	.loc 6 384 5 view .LVU847
.LBB1046:
.LBI1046:
	.loc 2 1417 23 view .LVU848
.LBB1047:
	.loc 2 1419 5 view .LVU849
	.loc 2 1420 5 view .LVU850
	.loc 2 1422 5 view .LVU851
	lsrs	r3, r0, #5
.LVL209:
	.loc 2 1422 5 is_stmt 0 view .LVU852
	beq	.L198
	.loc 2 1422 5 view .LVU853
	cmp	r3, #1
	bne	.L194
	.loc 2 1424 58 view .LVU854
	movw	r3, #65535
.LVL210:
.L193:
	.loc 2 1444 5 is_stmt 1 view .LVU855
	.loc 2 1446 5 view .LVU856
	.loc 2 1444 16 is_stmt 0 view .LVU857
	and	r2, r0, #31
	.loc 2 1446 41 view .LVU858
	lsrs	r3, r3, r2
.LBE1047:
.LBE1046:
.LBE1045:
	.loc 1 606 8 view .LVU859
	lsls	r3, r3, #31
	bpl	.L194
.LBB1050:
	.loc 1 608 9 is_stmt 1 view .LVU860
	.loc 1 608 31 is_stmt 0 view .LVU861
	bl	pin_uninit.constprop.0
.LVL211:
	.loc 1 610 9 is_stmt 1 view .LVU862
.L194:
	.loc 1 612 16 view .LVU863
	.loc 1 612 16 is_stmt 0 view .LVU864
.LBE1050:
.LBE1044:
.LBE1043:
	.loc 1 863 47 is_stmt 1 view .LVU865
	adds	r5, r5, #1
.LVL212:
.L197:
	.loc 1 863 30 view .LVU866
	cmp	r5, r8
	bcc	.L195
.LBE1054:
	.loc 1 861 67 view .LVU867
.LVL213:
	.loc 1 861 26 view .LVU868
	cbnz	r4, .L196
	.loc 1 861 67 is_stmt 0 view .LVU869
	movs	r4, #1
.LVL214:
	.loc 1 861 67 view .LVU870
	b	.L192
.LVL215:
.L198:
.LBB1055:
.LBB1053:
.LBB1052:
.LBB1051:
.LBB1049:
.LBB1048:
	.loc 2 1422 5 view .LVU871
	mov	r3, #-1
.LVL216:
	.loc 2 1422 5 view .LVU872
	b	.L193
.LVL217:
.L196:
	.loc 2 1422 5 view .LVU873
.LBE1048:
.LBE1049:
.LBE1051:
.LBE1052:
.LBE1053:
.LBE1055:
.LBE1056:
	.loc 1 871 5 is_stmt 1 view .LVU874
	.loc 1 871 45 is_stmt 0 view .LVU875
	ldr	r3, .L202+4
	movs	r2, #0
	strb	r2, [r3, #128]
	.loc 1 872 5 is_stmt 1 view .LVU876
	.loc 1 872 62 is_stmt 0 view .LVU877
	str	r2, [r3, #8]
	.loc 1 873 5 is_stmt 1 view .LVU878
.LBB1057:
	.loc 1 873 10 view .LVU879
.LBE1057:
	.loc 1 873 8 view .LVU880
.LVL218:
	.loc 1 873 8 is_stmt 0 view .LVU881
.LBE1058:
.LBE1059:
	.loc 1 1282 1 view .LVU882
	pop	{r3, r4, r5, r6, r7, r8, r9, pc}
.L203:
	.align	2
.L202:
	.word	ports
	.word	m_cb
	.word	port_lens.0
	.cfi_endproc
.LFE487:
	.size	nrfx_gpiote_uninit, .-nrfx_gpiote_uninit
	.section	.text.nrfx_gpiote_pin_uninit,"ax",%progbits
	.align	1
	.global	nrfx_gpiote_pin_uninit
	.syntax unified
	.thumb
	.thumb_func
	.type	nrfx_gpiote_pin_uninit, %function
nrfx_gpiote_pin_uninit:
.LVL219:
.LFB488:
	.loc 1 1285 1 is_stmt 1 view -0
	.cfi_startproc
	@ args = 0, pretend = 0, frame = 0
	@ frame_needed = 0, uses_anonymous_args = 0
	@ link register save eliminated.
	.loc 1 1286 5 view .LVU884
	.loc 1 1286 12 is_stmt 0 view .LVU885
	b	pin_uninit.constprop.0
.LVL220:
	.loc 1 1286 12 view .LVU886
	.cfi_endproc
.LFE488:
	.size	nrfx_gpiote_pin_uninit, .-nrfx_gpiote_pin_uninit
	.section	.text.nrfx_gpiote_channel_free,"ax",%progbits
	.align	1
	.global	nrfx_gpiote_channel_free
	.syntax unified
	.thumb
	.thumb_func
	.type	nrfx_gpiote_channel_free, %function
nrfx_gpiote_channel_free:
.LVL221:
.LFB489:
	.loc 1 1290 1 is_stmt 1 view -0
	.cfi_startproc
	@ args = 0, pretend = 0, frame = 0
	@ frame_needed = 0, uses_anonymous_args = 0
	@ link register save eliminated.
	.loc 1 1291 5 view .LVU888
	.loc 1 1290 1 is_stmt 0 view .LVU889
	mov	r1, r0
.LVL222:
.LBB1060:
.LBI1060:
	.loc 1 876 19 is_stmt 1 view .LVU890
.LBB1061:
	.loc 1 878 5 view .LVU891
	.loc 1 878 12 is_stmt 0 view .LVU892
	ldr	r0, .L206
.LVL223:
	.loc 1 878 12 view .LVU893
	b	nrfx_flag32_free
.LVL224:
.L207:
	.loc 1 878 12 view .LVU894
	.align	2
.L206:
	.word	m_cb+116
.LBE1061:
.LBE1060:
	.cfi_endproc
.LFE489:
	.size	nrfx_gpiote_channel_free, .-nrfx_gpiote_channel_free
	.section	.text.nrfx_gpiote_channel_alloc,"ax",%progbits
	.align	1
	.global	nrfx_gpiote_channel_alloc
	.syntax unified
	.thumb
	.thumb_func
	.type	nrfx_gpiote_channel_alloc, %function
nrfx_gpiote_channel_alloc:
.LVL225:
.LFB490:
	.loc 1 1295 1 is_stmt 1 view -0
	.cfi_startproc
	@ args = 0, pretend = 0, frame = 0
	@ frame_needed = 0, uses_anonymous_args = 0
	@ link register save eliminated.
	.loc 1 1296 5 view .LVU896
	.loc 1 1295 1 is_stmt 0 view .LVU897
	mov	r1, r0
.LVL226:
.LBB1062:
.LBI1062:
	.loc 1 881 19 is_stmt 1 view .LVU898
.LBB1063:
	.loc 1 883 5 view .LVU899
.LBB1064:
	.loc 1 883 10 view .LVU900
.LBE1064:
	.loc 1 883 8 view .LVU901
	.loc 1 885 5 view .LVU902
	.loc 1 885 12 is_stmt 0 view .LVU903
	ldr	r0, .L209
.LVL227:
	.loc 1 885 12 view .LVU904
	b	nrfx_flag32_alloc
.LVL228:
.L210:
	.loc 1 885 12 view .LVU905
	.align	2
.L209:
	.word	m_cb+116
.LBE1063:
.LBE1062:
	.cfi_endproc
.LFE490:
	.size	nrfx_gpiote_channel_alloc, .-nrfx_gpiote_channel_alloc
	.section	.text.nrfx_gpiote_out_set,"ax",%progbits
	.align	1
	.global	nrfx_gpiote_out_set
	.syntax unified
	.thumb
	.thumb_func
	.type	nrfx_gpiote_out_set, %function
nrfx_gpiote_out_set:
.LVL229:
.LFB491:
	.loc 1 1300 1 is_stmt 1 view -0
	.cfi_startproc
	@ args = 0, pretend = 0, frame = 8
	@ frame_needed = 0, uses_anonymous_args = 0
	.loc 1 1301 5 view .LVU907
.LBB1072:
.LBI1072:
	.loc 1 888 13 view .LVU908
	.loc 1 890 7 view .LVU909
	.loc 1 890 8 view .LVU910
	.loc 1 891 7 view .LVU911
	.loc 1 891 8 view .LVU912
	.loc 1 893 5 view .LVU913
.LBB1073:
.LBI1073:
	.loc 6 155 20 view .LVU914
.LBB1074:
	.loc 6 157 5 view .LVU915
.LBE1074:
.LBE1073:
.LBE1072:
	.loc 1 1300 1 is_stmt 0 view .LVU916
	push	{r0, r1, r2, lr}
	.cfi_def_cfa_offset 16
	.cfi_offset 14, -4
	str	r0, [sp, #4]
.LVL230:
.LBB1081:
.LBB1080:
.LBB1079:
.LBB1075:
.LBI1075:
	.loc 2 1120 20 is_stmt 1 view .LVU917
.LBB1076:
	.loc 2 1122 5 view .LVU918
	.loc 2 1122 27 is_stmt 0 view .LVU919
	add	r0, sp, #4
.LVL231:
	.loc 2 1122 27 view .LVU920
	bl	nrf_gpio_pin_port_decode
.LVL232:
	.loc 2 1124 5 is_stmt 1 view .LVU921
	.loc 2 1124 36 is_stmt 0 view .LVU922
	ldr	r2, [sp, #4]
	movs	r3, #1
	lsls	r3, r3, r2
.LVL233:
.LBB1077:
.LBI1077:
	.loc 2 1269 20 is_stmt 1 view .LVU923
.LBB1078:
	.loc 2 1271 5 view .LVU924
	.loc 2 1271 19 is_stmt 0 view .LVU925
	str	r3, [r0, #1288]
.LVL234:
	.loc 2 1271 19 view .LVU926
.LBE1078:
.LBE1077:
.LBE1076:
.LBE1075:
	.loc 6 158 5 is_stmt 1 view .LVU927
	.loc 6 158 5 is_stmt 0 view .LVU928
.LBE1079:
.LBE1080:
.LBE1081:
	.loc 1 1302 1 view .LVU929
	add	sp, sp, #12
	.cfi_def_cfa_offset 4
	@ sp needed
	ldr	pc, [sp], #4
	.cfi_endproc
.LFE491:
	.size	nrfx_gpiote_out_set, .-nrfx_gpiote_out_set
	.section	.text.nrfx_gpiote_out_clear,"ax",%progbits
	.align	1
	.global	nrfx_gpiote_out_clear
	.syntax unified
	.thumb
	.thumb_func
	.type	nrfx_gpiote_out_clear, %function
nrfx_gpiote_out_clear:
.LVL235:
.LFB492:
	.loc 1 1305 1 is_stmt 1 view -0
	.cfi_startproc
	@ args = 0, pretend = 0, frame = 8
	@ frame_needed = 0, uses_anonymous_args = 0
	.loc 1 1306 5 view .LVU931
.LBB1089:
.LBI1089:
	.loc 1 896 13 view .LVU932
	.loc 1 898 7 view .LVU933
	.loc 1 898 8 view .LVU934
	.loc 1 899 7 view .LVU935
	.loc 1 899 8 view .LVU936
	.loc 1 901 5 view .LVU937
.LBB1090:
.LBI1090:
	.loc 6 162 20 view .LVU938
.LBB1091:
	.loc 6 164 5 view .LVU939
.LBE1091:
.LBE1090:
.LBE1089:
	.loc 1 1305 1 is_stmt 0 view .LVU940
	push	{r0, r1, r2, lr}
	.cfi_def_cfa_offset 16
	.cfi_offset 14, -4
	str	r0, [sp, #4]
.LVL236:
.LBB1098:
.LBB1097:
.LBB1096:
.LBB1092:
.LBI1092:
	.loc 2 1128 20 is_stmt 1 view .LVU941
.LBB1093:
	.loc 2 1130 5 view .LVU942
	.loc 2 1130 27 is_stmt 0 view .LVU943
	add	r0, sp, #4
.LVL237:
	.loc 2 1130 27 view .LVU944
	bl	nrf_gpio_pin_port_decode
.LVL238:
	.loc 2 1132 5 is_stmt 1 view .LVU945
	.loc 2 1132 38 is_stmt 0 view .LVU946
	ldr	r2, [sp, #4]
	movs	r3, #1
	lsls	r3, r3, r2
.LVL239:
.LBB1094:
.LBI1094:
	.loc 2 1275 20 is_stmt 1 view .LVU947
.LBB1095:
	.loc 2 1277 5 view .LVU948
	.loc 2 1277 19 is_stmt 0 view .LVU949
	str	r3, [r0, #1292]
.LVL240:
	.loc 2 1277 19 view .LVU950
.LBE1095:
.LBE1094:
.LBE1093:
.LBE1092:
	.loc 6 165 5 is_stmt 1 view .LVU951
	.loc 6 165 5 is_stmt 0 view .LVU952
.LBE1096:
.LBE1097:
.LBE1098:
	.loc 1 1307 1 view .LVU953
	add	sp, sp, #12
	.cfi_def_cfa_offset 4
	@ sp needed
	ldr	pc, [sp], #4
	.cfi_endproc
.LFE492:
	.size	nrfx_gpiote_out_clear, .-nrfx_gpiote_out_clear
	.section	.text.nrfx_gpiote_out_toggle,"ax",%progbits
	.align	1
	.global	nrfx_gpiote_out_toggle
	.syntax unified
	.thumb
	.thumb_func
	.type	nrfx_gpiote_out_toggle, %function
nrfx_gpiote_out_toggle:
.LVL241:
.LFB493:
	.loc 1 1310 1 is_stmt 1 view -0
	.cfi_startproc
	@ args = 0, pretend = 0, frame = 8
	@ frame_needed = 0, uses_anonymous_args = 0
	.loc 1 1311 5 view .LVU955
.LBB1104:
.LBI1104:
	.loc 1 904 13 view .LVU956
	.loc 1 906 7 view .LVU957
	.loc 1 906 8 view .LVU958
	.loc 1 907 7 view .LVU959
	.loc 1 907 8 view .LVU960
	.loc 1 909 5 view .LVU961
.LBB1105:
.LBI1105:
	.loc 6 169 20 view .LVU962
.LBB1106:
	.loc 6 171 5 view .LVU963
.LBE1106:
.LBE1105:
.LBE1104:
	.loc 1 1310 1 is_stmt 0 view .LVU964
	push	{r0, r1, r2, lr}
	.cfi_def_cfa_offset 16
	.cfi_offset 14, -4
	str	r0, [sp, #4]
.LVL242:
.LBB1111:
.LBB1110:
.LBB1109:
.LBB1107:
.LBI1107:
	.loc 2 1136 20 is_stmt 1 view .LVU965
.LBB1108:
	.loc 2 1138 5 view .LVU966
	.loc 2 1138 27 is_stmt 0 view .LVU967
	add	r0, sp, #4
.LVL243:
	.loc 2 1138 27 view .LVU968
	bl	nrf_gpio_pin_port_decode
.LVL244:
	.loc 2 1139 5 is_stmt 1 view .LVU969
	.loc 2 1141 39 is_stmt 0 view .LVU970
	ldr	r1, [sp, #4]
	.loc 2 1139 14 view .LVU971
	ldr	r3, [r0, #1284]
.LVL245:
	.loc 2 1141 5 is_stmt 1 view .LVU972
	.loc 2 1141 39 is_stmt 0 view .LVU973
	movs	r2, #1
	lsls	r2, r2, r1
	.loc 2 1141 32 view .LVU974
	bic	r1, r2, r3
	.loc 2 1142 31 view .LVU975
	ands	r3, r3, r2
.LVL246:
	.loc 2 1141 17 view .LVU976
	str	r1, [r0, #1288]
	.loc 2 1142 5 is_stmt 1 view .LVU977
	.loc 2 1142 17 is_stmt 0 view .LVU978
	str	r3, [r0, #1292]
.LVL247:
	.loc 2 1142 17 view .LVU979
.LBE1108:
.LBE1107:
	.loc 6 172 5 is_stmt 1 view .LVU980
	.loc 6 172 5 is_stmt 0 view .LVU981
.LBE1109:
.LBE1110:
.LBE1111:
	.loc 1 1312 1 view .LVU982
	add	sp, sp, #12
	.cfi_def_cfa_offset 4
	@ sp needed
	ldr	pc, [sp], #4
	.cfi_endproc
.LFE493:
	.size	nrfx_gpiote_out_toggle, .-nrfx_gpiote_out_toggle
	.section	.text.nrfx_gpiote_out_task_enable,"ax",%progbits
	.align	1
	.global	nrfx_gpiote_out_task_enable
	.syntax unified
	.thumb
	.thumb_func
	.type	nrfx_gpiote_out_task_enable, %function
nrfx_gpiote_out_task_enable:
.LVL248:
.LFB494:
	.loc 1 1315 1 is_stmt 1 view -0
	.cfi_startproc
	@ args = 0, pretend = 0, frame = 0
	@ frame_needed = 0, uses_anonymous_args = 0
	.loc 1 1316 5 view .LVU984
.LBB1120:
.LBI1120:
	.loc 1 912 13 view .LVU985
.LBB1121:
	.loc 1 914 5 view .LVU986
	.loc 1 915 7 view .LVU987
	.loc 1 915 8 view .LVU988
	.loc 1 916 7 view .LVU989
	.loc 1 916 8 view .LVU990
	.loc 1 918 5 view .LVU991
.LBE1121:
.LBE1120:
	.loc 1 1315 1 is_stmt 0 view .LVU992
	push	{r3, lr}
	.cfi_def_cfa_offset 8
	.cfi_offset 3, -8
	.cfi_offset 14, -4
.LBB1126:
.LBB1125:
	.loc 1 918 58 view .LVU993
	bl	pin_te_get.constprop.0
.LVL249:
.LBB1122:
.LBI1122:
	.loc 3 275 20 is_stmt 1 view .LVU994
	.loc 3 277 5 view .LVU995
.LBB1123:
.LBI1123:
	.loc 4 855 20 view .LVU996
.LBB1124:
	.loc 4 857 5 view .LVU997
	sxth	r0, r0
.LVL250:
	.loc 4 857 5 is_stmt 0 view .LVU998
	lsls	r0, r0, #2
	add	r0, r0, #1073741824
	add	r0, r0, #24576
	.loc 4 857 42 view .LVU999
	ldr	r3, [r0, #1296]
	.loc 4 857 14 view .LVU1000
	orr	r3, r3, #3
.LVL251:
	.loc 4 870 5 is_stmt 1 view .LVU1001
	.loc 4 870 24 is_stmt 0 view .LVU1002
	str	r3, [r0, #1296]
.LVL252:
	.loc 4 870 24 view .LVU1003
.LBE1124:
.LBE1123:
	.loc 3 278 5 is_stmt 1 view .LVU1004
	.loc 3 278 5 is_stmt 0 view .LVU1005
.LBE1122:
.LBE1125:
.LBE1126:
	.loc 1 1317 1 view .LVU1006
	pop	{r3, pc}
	.cfi_endproc
.LFE494:
	.size	nrfx_gpiote_out_task_enable, .-nrfx_gpiote_out_task_enable
	.section	.text.nrfx_gpiote_out_task_disable,"ax",%progbits
	.align	1
	.global	nrfx_gpiote_out_task_disable
	.syntax unified
	.thumb
	.thumb_func
	.type	nrfx_gpiote_out_task_disable, %function
nrfx_gpiote_out_task_disable:
.LVL253:
.LFB495:
	.loc 1 1320 1 is_stmt 1 view -0
	.cfi_startproc
	@ args = 0, pretend = 0, frame = 0
	@ frame_needed = 0, uses_anonymous_args = 0
	.loc 1 1321 5 view .LVU1008
.LBB1135:
.LBI1135:
	.loc 1 921 13 view .LVU1009
.LBB1136:
	.loc 1 923 7 view .LVU1010
	.loc 1 923 8 view .LVU1011
	.loc 1 924 7 view .LVU1012
	.loc 1 924 8 view .LVU1013
	.loc 1 926 5 view .LVU1014
.LBE1136:
.LBE1135:
	.loc 1 1320 1 is_stmt 0 view .LVU1015
	push	{r3, lr}
	.cfi_def_cfa_offset 8
	.cfi_offset 3, -8
	.cfi_offset 14, -4
.LBB1141:
.LBB1140:
	.loc 1 926 59 view .LVU1016
	bl	pin_te_get.constprop.0
.LVL254:
.LBB1137:
.LBI1137:
	.loc 3 282 20 is_stmt 1 view .LVU1017
	.loc 3 284 5 view .LVU1018
.LBB1138:
.LBI1138:
	.loc 4 828 20 view .LVU1019
.LBB1139:
	.loc 4 830 4 view .LVU1020
	sxth	r0, r0
.LVL255:
	.loc 4 830 4 is_stmt 0 view .LVU1021
	lsls	r0, r0, #2
	add	r0, r0, #1073741824
	add	r0, r0, #24576
	.loc 4 830 17 view .LVU1022
	ldr	r3, [r0, #1296]
	.loc 4 830 23 view .LVU1023
	bic	r3, r3, #3
	str	r3, [r0, #1296]
.LVL256:
	.loc 4 830 23 view .LVU1024
.LBE1139:
.LBE1138:
	.loc 3 285 5 is_stmt 1 view .LVU1025
	.loc 3 285 5 is_stmt 0 view .LVU1026
.LBE1137:
.LBE1140:
.LBE1141:
	.loc 1 1322 1 view .LVU1027
	pop	{r3, pc}
	.cfi_endproc
.LFE495:
	.size	nrfx_gpiote_out_task_disable, .-nrfx_gpiote_out_task_disable
	.section	.text.nrfx_gpiote_out_task_get,"ax",%progbits
	.align	1
	.global	nrfx_gpiote_out_task_get
	.syntax unified
	.thumb
	.thumb_func
	.type	nrfx_gpiote_out_task_get, %function
nrfx_gpiote_out_task_get:
.LVL257:
.LFB496:
	.loc 1 1325 1 is_stmt 1 view -0
	.cfi_startproc
	@ args = 0, pretend = 0, frame = 0
	@ frame_needed = 0, uses_anonymous_args = 0
	.loc 1 1326 5 view .LVU1029
.LBB1150:
.LBI1150:
	.loc 1 929 26 view .LVU1030
.LBB1151:
	.loc 1 931 7 view .LVU1031
	.loc 1 931 8 view .LVU1032
	.loc 1 932 7 view .LVU1033
	.loc 1 932 8 view .LVU1034
	.loc 1 934 5 view .LVU1035
.LBE1151:
.LBE1150:
	.loc 1 1325 1 is_stmt 0 view .LVU1036
	push	{r3, lr}
	.cfi_def_cfa_offset 8
	.cfi_offset 3, -8
	.cfi_offset 14, -4
.LBB1156:
.LBB1155:
	.loc 1 934 46 view .LVU1037
	bl	pin_te_get.constprop.0
.LVL258:
.LBB1152:
.LBI1152:
	.loc 3 325 33 is_stmt 1 view .LVU1038
	.loc 3 327 5 view .LVU1039
.LBB1153:
.LBI1153:
	.loc 4 914 33 view .LVU1040
.LBB1154:
	.loc 4 916 7 view .LVU1041
	.loc 4 916 8 view .LVU1042
	.loc 4 917 5 view .LVU1043
	.loc 4 917 12 is_stmt 0 view .LVU1044
	lsls	r0, r0, #2
.LBE1154:
.LBE1153:
.LBE1152:
.LBE1155:
.LBE1156:
	.loc 1 1327 1 view .LVU1045
	and	r0, r0, #252
	pop	{r3, pc}
	.cfi_endproc
.LFE496:
	.size	nrfx_gpiote_out_task_get, .-nrfx_gpiote_out_task_get
	.section	.text.nrfx_gpiote_out_task_address_get,"ax",%progbits
	.align	1
	.global	nrfx_gpiote_out_task_address_get
	.syntax unified
	.thumb
	.thumb_func
	.type	nrfx_gpiote_out_task_address_get, %function
nrfx_gpiote_out_task_address_get:
.LVL259:
.LFB497:
	.loc 1 1330 1 is_stmt 1 view -0
	.cfi_startproc
	@ args = 0, pretend = 0, frame = 0
	@ frame_needed = 0, uses_anonymous_args = 0
	.loc 1 1331 5 view .LVU1047
.LBB1170:
.LBI1170:
	.loc 1 937 17 view .LVU1048
.LBB1171:
	.loc 1 939 5 view .LVU1049
.LBB1172:
.LBI1172:
	.loc 1 929 26 view .LVU1050
.LBB1173:
	.loc 1 931 7 view .LVU1051
	.loc 1 931 8 view .LVU1052
	.loc 1 932 7 view .LVU1053
	.loc 1 932 8 view .LVU1054
	.loc 1 934 5 view .LVU1055
.LBE1173:
.LBE1172:
.LBE1171:
.LBE1170:
	.loc 1 1330 1 is_stmt 0 view .LVU1056
	push	{r3, lr}
	.cfi_def_cfa_offset 8
	.cfi_offset 3, -8
	.cfi_offset 14, -4
.LBB1191:
.LBB1190:
.LBB1182:
.LBB1180:
	.loc 1 934 46 view .LVU1057
	bl	pin_te_get.constprop.0
.LVL260:
.LBB1174:
.LBI1174:
	.loc 3 325 33 is_stmt 1 view .LVU1058
	.loc 3 327 5 view .LVU1059
.LBB1175:
.LBI1175:
	.loc 4 914 33 view .LVU1060
.LBB1176:
	.loc 4 916 7 view .LVU1061
	.loc 4 916 8 view .LVU1062
	.loc 4 917 5 view .LVU1063
	.loc 4 917 5 is_stmt 0 view .LVU1064
.LBE1176:
.LBE1175:
.LBE1174:
.LBE1180:
.LBE1182:
	.loc 1 940 5 is_stmt 1 view .LVU1065
.LBB1183:
.LBI1183:
	.loc 3 140 24 view .LVU1066
	.loc 3 143 5 view .LVU1067
.LBB1184:
.LBI1184:
	.loc 4 632 24 view .LVU1068
.LBB1185:
	.loc 4 635 5 view .LVU1069
	.loc 4 635 5 is_stmt 0 view .LVU1070
.LBE1185:
.LBE1184:
.LBE1183:
.LBB1188:
.LBB1181:
.LBB1179:
.LBB1178:
.LBB1177:
	.loc 4 917 12 view .LVU1071
	lsls	r0, r0, #2
.LBE1177:
.LBE1178:
.LBE1179:
.LBE1181:
.LBE1188:
.LBB1189:
.LBB1187:
.LBB1186:
	.loc 4 635 29 view .LVU1072
	uxtb	r0, r0
.LBE1186:
.LBE1187:
.LBE1189:
.LBE1190:
.LBE1191:
	.loc 1 1332 1 view .LVU1073
	add	r0, r0, #1073741824
	add	r0, r0, #24576
	pop	{r3, pc}
	.cfi_endproc
.LFE497:
	.size	nrfx_gpiote_out_task_address_get, .-nrfx_gpiote_out_task_address_get
	.section	.text.nrfx_gpiote_set_task_get,"ax",%progbits
	.align	1
	.global	nrfx_gpiote_set_task_get
	.syntax unified
	.thumb
	.thumb_func
	.type	nrfx_gpiote_set_task_get, %function
nrfx_gpiote_set_task_get:
.LVL261:
.LFB498:
	.loc 1 1336 1 is_stmt 1 view -0
	.cfi_startproc
	@ args = 0, pretend = 0, frame = 0
	@ frame_needed = 0, uses_anonymous_args = 0
	.loc 1 1337 5 view .LVU1075
.LBB1200:
.LBI1200:
	.loc 1 944 26 view .LVU1076
.LBB1201:
	.loc 1 946 7 view .LVU1077
	.loc 1 946 8 view .LVU1078
	.loc 1 947 7 view .LVU1079
	.loc 1 947 8 view .LVU1080
	.loc 1 949 5 view .LVU1081
.LBE1201:
.LBE1200:
	.loc 1 1336 1 is_stmt 0 view .LVU1082
	push	{r3, lr}
	.cfi_def_cfa_offset 8
	.cfi_offset 3, -8
	.cfi_offset 14, -4
.LBB1206:
.LBB1205:
	.loc 1 949 46 view .LVU1083
	bl	pin_te_get.constprop.0
.LVL262:
.LBB1202:
.LBI1202:
	.loc 3 332 33 is_stmt 1 view .LVU1084
	.loc 3 334 5 view .LVU1085
.LBB1203:
.LBI1203:
	.loc 4 921 33 view .LVU1086
.LBB1204:
	.loc 4 923 7 view .LVU1087
	.loc 4 923 8 view .LVU1088
	.loc 4 924 5 view .LVU1089
	.loc 4 924 41 is_stmt 0 view .LVU1090
	sxth	r0, r0
	lsls	r0, r0, #2
	adds	r0, r0, #48
.LBE1204:
.LBE1203:
.LBE1202:
.LBE1205:
.LBE1206:
	.loc 1 1338 1 view .LVU1091
	and	r0, r0, #252
	pop	{r3, pc}
	.cfi_endproc
.LFE498:
	.size	nrfx_gpiote_set_task_get, .-nrfx_gpiote_set_task_get
	.section	.text.nrfx_gpiote_set_task_address_get,"ax",%progbits
	.align	1
	.global	nrfx_gpiote_set_task_address_get
	.syntax unified
	.thumb
	.thumb_func
	.type	nrfx_gpiote_set_task_address_get, %function
nrfx_gpiote_set_task_address_get:
.LVL263:
.LFB499:
	.loc 1 1341 1 is_stmt 1 view -0
	.cfi_startproc
	@ args = 0, pretend = 0, frame = 0
	@ frame_needed = 0, uses_anonymous_args = 0
	.loc 1 1342 5 view .LVU1093
.LBB1220:
.LBI1220:
	.loc 1 952 17 view .LVU1094
.LBB1221:
	.loc 1 954 5 view .LVU1095
.LBB1222:
.LBI1222:
	.loc 1 944 26 view .LVU1096
.LBB1223:
	.loc 1 946 7 view .LVU1097
	.loc 1 946 8 view .LVU1098
	.loc 1 947 7 view .LVU1099
	.loc 1 947 8 view .LVU1100
	.loc 1 949 5 view .LVU1101
.LBE1223:
.LBE1222:
.LBE1221:
.LBE1220:
	.loc 1 1341 1 is_stmt 0 view .LVU1102
	push	{r3, lr}
	.cfi_def_cfa_offset 8
	.cfi_offset 3, -8
	.cfi_offset 14, -4
.LBB1241:
.LBB1240:
.LBB1232:
.LBB1230:
	.loc 1 949 46 view .LVU1103
	bl	pin_te_get.constprop.0
.LVL264:
.LBB1224:
.LBI1224:
	.loc 3 332 33 is_stmt 1 view .LVU1104
	.loc 3 334 5 view .LVU1105
.LBB1225:
.LBI1225:
	.loc 4 921 33 view .LVU1106
.LBB1226:
	.loc 4 923 7 view .LVU1107
	.loc 4 923 8 view .LVU1108
	.loc 4 924 5 view .LVU1109
	.loc 4 924 5 is_stmt 0 view .LVU1110
.LBE1226:
.LBE1225:
.LBE1224:
.LBE1230:
.LBE1232:
	.loc 1 955 5 is_stmt 1 view .LVU1111
.LBB1233:
.LBI1233:
	.loc 3 140 24 view .LVU1112
	.loc 3 143 5 view .LVU1113
.LBB1234:
.LBI1234:
	.loc 4 632 24 view .LVU1114
.LBB1235:
	.loc 4 635 5 view .LVU1115
	.loc 4 635 5 is_stmt 0 view .LVU1116
.LBE1235:
.LBE1234:
.LBE1233:
.LBB1238:
.LBB1231:
.LBB1229:
.LBB1228:
.LBB1227:
	.loc 4 924 41 view .LVU1117
	sxth	r0, r0
	lsls	r0, r0, #2
	adds	r0, r0, #48
.LBE1227:
.LBE1228:
.LBE1229:
.LBE1231:
.LBE1238:
.LBB1239:
.LBB1237:
.LBB1236:
	.loc 4 635 29 view .LVU1118
	uxtb	r0, r0
.LBE1236:
.LBE1237:
.LBE1239:
.LBE1240:
.LBE1241:
	.loc 1 1343 1 view .LVU1119
	add	r0, r0, #1073741824
	add	r0, r0, #24576
	pop	{r3, pc}
	.cfi_endproc
.LFE499:
	.size	nrfx_gpiote_set_task_address_get, .-nrfx_gpiote_set_task_address_get
	.section	.text.nrfx_gpiote_clr_task_get,"ax",%progbits
	.align	1
	.global	nrfx_gpiote_clr_task_get
	.syntax unified
	.thumb
	.thumb_func
	.type	nrfx_gpiote_clr_task_get, %function
nrfx_gpiote_clr_task_get:
.LVL265:
.LFB500:
	.loc 1 1348 1 is_stmt 1 view -0
	.cfi_startproc
	@ args = 0, pretend = 0, frame = 0
	@ frame_needed = 0, uses_anonymous_args = 0
	.loc 1 1349 5 view .LVU1121
.LBB1250:
.LBI1250:
	.loc 1 960 26 view .LVU1122
.LBB1251:
	.loc 1 962 7 view .LVU1123
	.loc 1 962 8 view .LVU1124
	.loc 1 963 7 view .LVU1125
	.loc 1 963 8 view .LVU1126
	.loc 1 965 5 view .LVU1127
.LBE1251:
.LBE1250:
	.loc 1 1348 1 is_stmt 0 view .LVU1128
	push	{r3, lr}
	.cfi_def_cfa_offset 8
	.cfi_offset 3, -8
	.cfi_offset 14, -4
.LBB1256:
.LBB1255:
	.loc 1 965 46 view .LVU1129
	bl	pin_te_get.constprop.0
.LVL266:
.LBB1252:
.LBI1252:
	.loc 3 340 33 is_stmt 1 view .LVU1130
	.loc 3 342 5 view .LVU1131
.LBB1253:
.LBI1253:
	.loc 4 929 33 view .LVU1132
.LBB1254:
	.loc 4 931 7 view .LVU1133
	.loc 4 931 8 view .LVU1134
	.loc 4 932 5 view .LVU1135
	.loc 4 932 41 is_stmt 0 view .LVU1136
	sxth	r0, r0
	lsls	r0, r0, #2
	adds	r0, r0, #96
.LBE1254:
.LBE1253:
.LBE1252:
.LBE1255:
.LBE1256:
	.loc 1 1350 1 view .LVU1137
	and	r0, r0, #252
	pop	{r3, pc}
	.cfi_endproc
.LFE500:
	.size	nrfx_gpiote_clr_task_get, .-nrfx_gpiote_clr_task_get
	.section	.text.nrfx_gpiote_clr_task_address_get,"ax",%progbits
	.align	1
	.global	nrfx_gpiote_clr_task_address_get
	.syntax unified
	.thumb
	.thumb_func
	.type	nrfx_gpiote_clr_task_address_get, %function
nrfx_gpiote_clr_task_address_get:
.LVL267:
.LFB501:
	.loc 1 1353 1 is_stmt 1 view -0
	.cfi_startproc
	@ args = 0, pretend = 0, frame = 0
	@ frame_needed = 0, uses_anonymous_args = 0
	.loc 1 1354 5 view .LVU1139
.LBB1265:
.LBI1265:
	.loc 1 960 26 view .LVU1140
.LBB1266:
	.loc 1 962 7 view .LVU1141
	.loc 1 962 8 view .LVU1142
	.loc 1 963 7 view .LVU1143
	.loc 1 963 8 view .LVU1144
	.loc 1 965 5 view .LVU1145
.LBE1266:
.LBE1265:
	.loc 1 1353 1 is_stmt 0 view .LVU1146
	push	{r3, lr}
	.cfi_def_cfa_offset 8
	.cfi_offset 3, -8
	.cfi_offset 14, -4
.LBB1275:
.LBB1273:
	.loc 1 965 46 view .LVU1147
	bl	pin_te_get.constprop.0
.LVL268:
.LBB1267:
.LBI1267:
	.loc 3 340 33 is_stmt 1 view .LVU1148
	.loc 3 342 5 view .LVU1149
.LBB1268:
.LBI1268:
	.loc 4 929 33 view .LVU1150
.LBB1269:
	.loc 4 931 7 view .LVU1151
	.loc 4 931 8 view .LVU1152
	.loc 4 932 5 view .LVU1153
	.loc 4 932 5 is_stmt 0 view .LVU1154
.LBE1269:
.LBE1268:
.LBE1267:
.LBE1273:
.LBE1275:
	.loc 1 1355 5 is_stmt 1 view .LVU1155
.LBB1276:
.LBI1276:
	.loc 3 140 24 view .LVU1156
	.loc 3 143 5 view .LVU1157
.LBB1277:
.LBI1277:
	.loc 4 632 24 view .LVU1158
.LBB1278:
	.loc 4 635 5 view .LVU1159
	.loc 4 635 5 is_stmt 0 view .LVU1160
.LBE1278:
.LBE1277:
.LBE1276:
.LBB1281:
.LBB1274:
.LBB1272:
.LBB1271:
.LBB1270:
	.loc 4 932 41 view .LVU1161
	sxth	r0, r0
.LVL269:
	.loc 4 932 41 view .LVU1162
	lsls	r0, r0, #2
	adds	r0, r0, #96
.LBE1270:
.LBE1271:
.LBE1272:
.LBE1274:
.LBE1281:
.LBB1282:
.LBB1280:
.LBB1279:
	.loc 4 635 29 view .LVU1163
	uxtb	r0, r0
.LBE1279:
.LBE1280:
.LBE1282:
	.loc 1 1356 1 view .LVU1164
	add	r0, r0, #1073741824
	add	r0, r0, #24576
	pop	{r3, pc}
	.cfi_endproc
.LFE501:
	.size	nrfx_gpiote_clr_task_address_get, .-nrfx_gpiote_clr_task_address_get
	.section	.text.nrfx_gpiote_out_task_force,"ax",%progbits
	.align	1
	.global	nrfx_gpiote_out_task_force
	.syntax unified
	.thumb
	.thumb_func
	.type	nrfx_gpiote_out_task_force, %function
nrfx_gpiote_out_task_force:
.LVL270:
.LFB502:
	.loc 1 1360 1 is_stmt 1 view -0
	.cfi_startproc
	@ args = 0, pretend = 0, frame = 0
	@ frame_needed = 0, uses_anonymous_args = 0
	.loc 1 1361 5 view .LVU1166
.LBB1291:
.LBI1291:
	.loc 1 969 13 view .LVU1167
.LBB1292:
	.loc 1 973 7 view .LVU1168
	.loc 1 973 8 view .LVU1169
	.loc 1 974 7 view .LVU1170
	.loc 1 974 8 view .LVU1171
	.loc 1 976 5 view .LVU1172
	.loc 1 978 5 view .LVU1173
.LBE1292:
.LBE1291:
	.loc 1 1360 1 is_stmt 0 view .LVU1174
	push	{r3, lr}
	.cfi_def_cfa_offset 8
	.cfi_offset 3, -8
	.cfi_offset 14, -4
.LBB1303:
.LBB1302:
	.loc 1 978 57 view .LVU1175
	bl	pin_te_get.constprop.0
.LVL271:
.LBB1293:
.LBI1293:
	.loc 3 300 20 is_stmt 1 view .LVU1176
	.loc 3 304 5 view .LVU1177
.LBB1294:
.LBI1294:
	.loc 4 893 20 view .LVU1178
.LBB1295:
	.loc 4 897 5 view .LVU1179
	sxth	r0, r0
.LVL272:
	.loc 4 897 5 is_stmt 0 view .LVU1180
	lsls	r0, r0, #2
	add	r0, r0, #1073741824
	add	r0, r0, #24576
.LBE1295:
.LBE1294:
.LBE1293:
	.loc 1 977 47 view .LVU1181
	subs	r1, r1, #0
.LVL273:
.LBB1300:
.LBB1298:
.LBB1296:
	.loc 4 897 40 view .LVU1182
	ldr	r3, [r0, #1296]
.LBE1296:
.LBE1298:
.LBE1300:
	.loc 1 977 47 view .LVU1183
	it	ne
	movne	r1, #1
.LBB1301:
.LBB1299:
.LBB1297:
	.loc 4 897 46 view .LVU1184
	bic	r3, r3, #1048576
	.loc 4 897 68 view .LVU1185
	orr	r3, r3, r1, lsl #20
	.loc 4 897 24 view .LVU1186
	str	r3, [r0, #1296]
.LVL274:
	.loc 4 897 24 view .LVU1187
.LBE1297:
.LBE1299:
	.loc 3 305 5 is_stmt 1 view .LVU1188
	.loc 3 305 5 is_stmt 0 view .LVU1189
.LBE1301:
.LBE1302:
.LBE1303:
	.loc 1 1362 1 view .LVU1190
	pop	{r3, pc}
	.cfi_endproc
.LFE502:
	.size	nrfx_gpiote_out_task_force, .-nrfx_gpiote_out_task_force
	.section	.text.nrfx_gpiote_out_task_trigger,"ax",%progbits
	.align	1
	.global	nrfx_gpiote_out_task_trigger
	.syntax unified
	.thumb
	.thumb_func
	.type	nrfx_gpiote_out_task_trigger, %function
nrfx_gpiote_out_task_trigger:
.LVL275:
.LFB503:
	.loc 1 1365 1 is_stmt 1 view -0
	.cfi_startproc
	@ args = 0, pretend = 0, frame = 0
	@ frame_needed = 0, uses_anonymous_args = 0
	.loc 1 1366 5 view .LVU1192
.LBB1318:
.LBI1318:
	.loc 1 981 13 view .LVU1193
.LBB1319:
	.loc 1 983 7 view .LVU1194
	.loc 1 983 8 view .LVU1195
	.loc 1 984 7 view .LVU1196
	.loc 1 984 8 view .LVU1197
	.loc 1 986 5 view .LVU1198
.LBE1319:
.LBE1318:
	.loc 1 1365 1 is_stmt 0 view .LVU1199
	push	{r3, lr}
	.cfi_def_cfa_offset 8
	.cfi_offset 3, -8
	.cfi_offset 14, -4
.LBB1333:
.LBB1332:
	.loc 1 986 64 view .LVU1200
	bl	pin_te_get.constprop.0
.LVL276:
.LBB1320:
.LBI1320:
	.loc 3 325 33 is_stmt 1 view .LVU1201
	.loc 3 327 5 view .LVU1202
.LBB1321:
.LBI1321:
	.loc 4 914 33 view .LVU1203
.LBB1322:
	.loc 4 916 7 view .LVU1204
	.loc 4 916 8 view .LVU1205
	.loc 4 917 5 view .LVU1206
	.loc 4 917 5 is_stmt 0 view .LVU1207
.LBE1322:
.LBE1321:
.LBE1320:
	.loc 1 987 5 is_stmt 1 view .LVU1208
.LBB1325:
.LBI1325:
	.loc 3 133 20 view .LVU1209
	.loc 3 135 5 view .LVU1210
.LBB1326:
.LBI1326:
	.loc 4 627 20 view .LVU1211
.LBB1327:
	.loc 4 629 5 view .LVU1212
.LBE1327:
.LBE1326:
.LBE1325:
.LBB1330:
.LBB1324:
.LBB1323:
	.loc 4 917 12 is_stmt 0 view .LVU1213
	lsls	r0, r0, #2
.LVL277:
	.loc 4 917 12 view .LVU1214
.LBE1323:
.LBE1324:
.LBE1330:
.LBB1331:
.LBB1329:
.LBB1328:
	.loc 4 629 44 view .LVU1215
	uxtb	r0, r0
	add	r0, r0, #1073741824
	add	r0, r0, #24576
	.loc 4 629 52 view .LVU1216
	movs	r3, #1
	str	r3, [r0]
.LVL278:
	.loc 4 629 52 view .LVU1217
.LBE1328:
.LBE1329:
	.loc 3 136 5 is_stmt 1 view .LVU1218
	.loc 3 136 5 is_stmt 0 view .LVU1219
.LBE1331:
.LBE1332:
.LBE1333:
	.loc 1 1367 1 view .LVU1220
	pop	{r3, pc}
	.cfi_endproc
.LFE503:
	.size	nrfx_gpiote_out_task_trigger, .-nrfx_gpiote_out_task_trigger
	.section	.text.nrfx_gpiote_set_task_trigger,"ax",%progbits
	.align	1
	.global	nrfx_gpiote_set_task_trigger
	.syntax unified
	.thumb
	.thumb_func
	.type	nrfx_gpiote_set_task_trigger, %function
nrfx_gpiote_set_task_trigger:
.LVL279:
.LFB504:
	.loc 1 1371 1 is_stmt 1 view -0
	.cfi_startproc
	@ args = 0, pretend = 0, frame = 0
	@ frame_needed = 0, uses_anonymous_args = 0
	.loc 1 1372 5 view .LVU1222
.LBB1348:
.LBI1348:
	.loc 1 991 13 view .LVU1223
.LBB1349:
	.loc 1 993 7 view .LVU1224
	.loc 1 993 8 view .LVU1225
	.loc 1 994 7 view .LVU1226
	.loc 1 994 8 view .LVU1227
	.loc 1 995 7 view .LVU1228
	.loc 1 995 8 view .LVU1229
	.loc 1 997 5 view .LVU1230
.LBE1349:
.LBE1348:
	.loc 1 1371 1 is_stmt 0 view .LVU1231
	push	{r3, lr}
	.cfi_def_cfa_offset 8
	.cfi_offset 3, -8
	.cfi_offset 14, -4
.LBB1363:
.LBB1362:
	.loc 1 997 64 view .LVU1232
	bl	pin_te_get.constprop.0
.LVL280:
.LBB1350:
.LBI1350:
	.loc 3 332 33 is_stmt 1 view .LVU1233
	.loc 3 334 5 view .LVU1234
.LBB1351:
.LBI1351:
	.loc 4 921 33 view .LVU1235
.LBB1352:
	.loc 4 923 7 view .LVU1236
	.loc 4 923 8 view .LVU1237
	.loc 4 924 5 view .LVU1238
	.loc 4 924 5 is_stmt 0 view .LVU1239
.LBE1352:
.LBE1351:
.LBE1350:
	.loc 1 998 5 is_stmt 1 view .LVU1240
.LBB1355:
.LBI1355:
	.loc 3 133 20 view .LVU1241
	.loc 3 135 5 view .LVU1242
.LBB1356:
.LBI1356:
	.loc 4 627 20 view .LVU1243
.LBB1357:
	.loc 4 629 5 view .LVU1244
.LBE1357:
.LBE1356:
.LBE1355:
.LBB1360:
.LBB1354:
.LBB1353:
	.loc 4 924 41 is_stmt 0 view .LVU1245
	sxth	r3, r0
	lsls	r3, r3, #2
	adds	r3, r3, #48
.LBE1353:
.LBE1354:
.LBE1360:
.LBB1361:
.LBB1359:
.LBB1358:
	.loc 4 629 44 view .LVU1246
	uxtb	r3, r3
	add	r3, r3, #1073741824
	add	r3, r3, #24576
	.loc 4 629 52 view .LVU1247
	movs	r2, #1
	str	r2, [r3]
.LVL281:
	.loc 4 629 52 view .LVU1248
.LBE1358:
.LBE1359:
	.loc 3 136 5 is_stmt 1 view .LVU1249
	.loc 3 136 5 is_stmt 0 view .LVU1250
.LBE1361:
.LBE1362:
.LBE1363:
	.loc 1 1373 1 view .LVU1251
	pop	{r3, pc}
	.cfi_endproc
.LFE504:
	.size	nrfx_gpiote_set_task_trigger, .-nrfx_gpiote_set_task_trigger
	.section	.text.nrfx_gpiote_clr_task_trigger,"ax",%progbits
	.align	1
	.global	nrfx_gpiote_clr_task_trigger
	.syntax unified
	.thumb
	.thumb_func
	.type	nrfx_gpiote_clr_task_trigger, %function
nrfx_gpiote_clr_task_trigger:
.LVL282:
.LFB505:
	.loc 1 1378 1 is_stmt 1 view -0
	.cfi_startproc
	@ args = 0, pretend = 0, frame = 0
	@ frame_needed = 0, uses_anonymous_args = 0
	.loc 1 1379 5 view .LVU1253
.LBB1378:
.LBI1378:
	.loc 1 1003 13 view .LVU1254
.LBB1379:
	.loc 1 1005 7 view .LVU1255
	.loc 1 1005 8 view .LVU1256
	.loc 1 1006 7 view .LVU1257
	.loc 1 1006 8 view .LVU1258
	.loc 1 1007 7 view .LVU1259
	.loc 1 1007 8 view .LVU1260
	.loc 1 1009 5 view .LVU1261
.LBE1379:
.LBE1378:
	.loc 1 1378 1 is_stmt 0 view .LVU1262
	push	{r3, lr}
	.cfi_def_cfa_offset 8
	.cfi_offset 3, -8
	.cfi_offset 14, -4
.LBB1393:
.LBB1392:
	.loc 1 1009 64 view .LVU1263
	bl	pin_te_get.constprop.0
.LVL283:
.LBB1380:
.LBI1380:
	.loc 3 340 33 is_stmt 1 view .LVU1264
	.loc 3 342 5 view .LVU1265
.LBB1381:
.LBI1381:
	.loc 4 929 33 view .LVU1266
.LBB1382:
	.loc 4 931 7 view .LVU1267
	.loc 4 931 8 view .LVU1268
	.loc 4 932 5 view .LVU1269
	.loc 4 932 5 is_stmt 0 view .LVU1270
.LBE1382:
.LBE1381:
.LBE1380:
	.loc 1 1010 5 is_stmt 1 view .LVU1271
.LBB1385:
.LBI1385:
	.loc 3 133 20 view .LVU1272
	.loc 3 135 5 view .LVU1273
.LBB1386:
.LBI1386:
	.loc 4 627 20 view .LVU1274
.LBB1387:
	.loc 4 629 5 view .LVU1275
.LBE1387:
.LBE1386:
.LBE1385:
.LBB1390:
.LBB1384:
.LBB1383:
	.loc 4 932 41 is_stmt 0 view .LVU1276
	sxth	r3, r0
	lsls	r3, r3, #2
	adds	r3, r3, #96
.LBE1383:
.LBE1384:
.LBE1390:
.LBB1391:
.LBB1389:
.LBB1388:
	.loc 4 629 44 view .LVU1277
	uxtb	r3, r3
	add	r3, r3, #1073741824
	add	r3, r3, #24576
	.loc 4 629 52 view .LVU1278
	movs	r2, #1
	str	r2, [r3]
.LVL284:
	.loc 4 629 52 view .LVU1279
.LBE1388:
.LBE1389:
	.loc 3 136 5 is_stmt 1 view .LVU1280
	.loc 3 136 5 is_stmt 0 view .LVU1281
.LBE1391:
.LBE1392:
.LBE1393:
	.loc 1 1380 1 view .LVU1282
	pop	{r3, pc}
	.cfi_endproc
.LFE505:
	.size	nrfx_gpiote_clr_task_trigger, .-nrfx_gpiote_clr_task_trigger
	.section	.text.nrfx_gpiote_trigger_enable,"ax",%progbits
	.align	1
	.global	nrfx_gpiote_trigger_enable
	.syntax unified
	.thumb
	.thumb_func
	.type	nrfx_gpiote_trigger_enable, %function
nrfx_gpiote_trigger_enable:
.LVL285:
.LFB506:
	.loc 1 1384 1 is_stmt 1 view -0
	.cfi_startproc
	@ args = 0, pretend = 0, frame = 8
	@ frame_needed = 0, uses_anonymous_args = 0
	.loc 1 1385 5 view .LVU1284
	.loc 1 1384 1 is_stmt 0 view .LVU1285
	push	{r0, r1, r4, lr}
	.cfi_def_cfa_offset 16
	.cfi_offset 4, -8
	.cfi_offset 14, -4
.LBB1460:
.LBB1461:
.LBB1462:
.LBB1463:
.LBB1464:
.LBB1465:
	.loc 4 668 17 view .LVU1286
	ldr	r3, .L242
	ldr	r2, [r3, #772]
.LBE1465:
.LBE1464:
.LBE1463:
.LBE1462:
	.loc 1 1020 8 view .LVU1287
	cmp	r2, #0
.LBB1469:
.LBB1470:
.LBB1471:
.LBB1472:
	.loc 4 658 21 view .LVU1288
	itt	ge
	movge	r2, #-2147483648
	strge	r2, [r3, #772]
.LBE1472:
.LBE1471:
.LBE1470:
.LBE1469:
.LBE1461:
.LBE1460:
	.loc 1 1384 1 view .LVU1289
	mov	r4, r0
.LVL286:
.LBB1519:
.LBI1460:
	.loc 1 1014 13 is_stmt 1 view .LVU1290
.LBB1516:
	.loc 1 1018 7 view .LVU1291
	.loc 1 1018 8 view .LVU1292
	.loc 1 1020 5 view .LVU1293
.LBB1476:
.LBI1462:
	.loc 3 185 24 view .LVU1294
.LBB1468:
	.loc 3 188 5 view .LVU1295
	.loc 3 189 5 view .LVU1296
.LBB1467:
.LBI1464:
	.loc 4 666 24 view .LVU1297
.LBB1466:
	.loc 4 668 5 view .LVU1298
	.loc 4 668 5 is_stmt 0 view .LVU1299
.LBE1466:
.LBE1467:
	.loc 3 190 5 is_stmt 1 view .LVU1300
	.loc 3 191 5 view .LVU1301
	.loc 3 191 5 is_stmt 0 view .LVU1302
.LBE1468:
.LBE1476:
	.loc 1 1022 9 is_stmt 1 view .LVU1303
.LBB1477:
.LBI1469:
	.loc 3 171 20 view .LVU1304
.LBB1475:
	.loc 3 173 5 view .LVU1305
.LBB1474:
.LBI1471:
	.loc 4 656 20 view .LVU1306
.LBB1473:
	.loc 4 658 5 view .LVU1307
	.loc 4 658 5 is_stmt 0 view .LVU1308
.LBE1473:
.LBE1474:
	.loc 3 174 5 is_stmt 1 view .LVU1309
	.loc 3 174 5 is_stmt 0 view .LVU1310
.LBE1475:
.LBE1477:
	.loc 1 1025 5 is_stmt 1 view .LVU1311
	.loc 1 1025 9 is_stmt 0 view .LVU1312
	bl	pin_in_use_by_te.constprop.0
.LVL287:
	.loc 1 1025 8 view .LVU1313
	cbz	r0, .L228
	.loc 1 1025 46 view .LVU1314
	mov	r0, r4
	bl	pin_is_input.constprop.0
.LVL288:
	.loc 1 1025 43 view .LVU1315
	cbz	r0, .L228
.LBB1478:
	.loc 1 1027 9 is_stmt 1 view .LVU1316
	.loc 1 1027 22 is_stmt 0 view .LVU1317
	mov	r0, r4
	bl	pin_te_get.constprop.0
.LVL289:
	.loc 1 1029 9 is_stmt 1 view .LVU1318
.LBB1479:
.LBI1479:
	.loc 4 936 34 view .LVU1319
.LBB1480:
	.loc 4 938 7 view .LVU1320
	.loc 4 938 8 view .LVU1321
	.loc 4 939 5 view .LVU1322
	.loc 4 939 42 is_stmt 0 view .LVU1323
	sxth	r3, r0
	lsls	r3, r3, #2
.LVL290:
	.loc 4 939 42 view .LVU1324
.LBE1480:
.LBE1479:
.LBB1481:
.LBI1481:
	.loc 3 157 20 is_stmt 1 view .LVU1325
	.loc 3 159 5 view .LVU1326
.LBB1482:
.LBI1482:
	.loc 4 644 20 view .LVU1327
.LBB1483:
	.loc 4 646 5 view .LVU1328
.LBB1484:
.LBI1484:
	.loc 4 650 24 view .LVU1329
.LBB1485:
	.loc 4 653 5 view .LVU1330
	.loc 4 653 29 is_stmt 0 view .LVU1331
	add	r2, r3, #1073741824
	add	r2, r2, #24832
	add	r3, r3, #1073741824
.LVL291:
	.loc 4 653 29 view .LVU1332
	add	r3, r3, #24576
.LVL292:
	.loc 4 653 29 view .LVU1333
.LBE1485:
.LBE1484:
	.loc 4 646 72 view .LVU1334
	movs	r4, #0
.LVL293:
	.loc 4 646 72 view .LVU1335
	str	r4, [r2]
	.loc 4 647 5 is_stmt 1 view .LVU1336
.LVL294:
.LBB1486:
.LBI1486:
	.loc 7 186 20 view .LVU1337
.LBB1487:
	.loc 7 189 5 view .LVU1338
	ldr	r2, [r2]
.LVL295:
	.loc 7 189 5 is_stmt 0 view .LVU1339
.LBE1487:
.LBE1486:
.LBE1483:
.LBE1482:
	.loc 3 160 5 is_stmt 1 view .LVU1340
	.loc 3 160 5 is_stmt 0 view .LVU1341
.LBE1481:
	.loc 1 1030 9 is_stmt 1 view .LVU1342
.LBB1488:
.LBI1488:
	.loc 3 231 20 view .LVU1343
	.loc 3 233 5 view .LVU1344
.LBB1489:
.LBI1489:
	.loc 4 823 20 view .LVU1345
.LBB1490:
	.loc 4 825 4 view .LVU1346
	.loc 4 825 17 is_stmt 0 view .LVU1347
	ldr	r2, [r3, #1296]
	.loc 4 825 23 view .LVU1348
	orr	r2, r2, #1
	str	r2, [r3, #1296]
.LVL296:
	.loc 4 825 23 view .LVU1349
.LBE1490:
.LBE1489:
	.loc 3 234 5 is_stmt 1 view .LVU1350
	.loc 3 234 5 is_stmt 0 view .LVU1351
.LBE1488:
	.loc 1 1031 9 is_stmt 1 view .LVU1352
	.loc 1 1031 12 is_stmt 0 view .LVU1353
	cbz	r1, .L226
	.loc 1 1033 13 is_stmt 1 view .LVU1354
.LBB1491:
.LBB1492:
.LBB1493:
.LBB1494:
	.loc 4 658 21 is_stmt 0 view .LVU1355
	ldr	r2, .L242
.LBE1494:
.LBE1493:
.LBE1492:
.LBE1491:
	.loc 1 1033 60 view .LVU1356
	movs	r3, #1
	lsls	r3, r3, r0
.LVL297:
.LBB1498:
.LBI1491:
	.loc 3 171 20 is_stmt 1 view .LVU1357
.LBB1497:
	.loc 3 173 5 view .LVU1358
.LBB1496:
.LBI1493:
	.loc 4 656 20 view .LVU1359
.LBB1495:
	.loc 4 658 5 view .LVU1360
	.loc 4 658 21 is_stmt 0 view .LVU1361
	str	r3, [r2, #772]
.LVL298:
	.loc 4 658 21 view .LVU1362
.LBE1495:
.LBE1496:
	.loc 3 174 5 is_stmt 1 view .LVU1363
.L226:
	.loc 3 174 5 is_stmt 0 view .LVU1364
.LBE1497:
.LBE1498:
.LBE1478:
.LBE1516:
.LBE1519:
	.loc 1 1386 1 view .LVU1365
	add	sp, sp, #8
	.cfi_remember_state
	.cfi_def_cfa_offset 8
	@ sp needed
	pop	{r4, pc}
.LVL299:
.L228:
	.cfi_restore_state
.LBB1520:
.LBB1517:
	.loc 1 1038 11 is_stmt 1 view .LVU1366
	.loc 1 1038 12 view .LVU1367
	.loc 1 1039 9 view .LVU1368
.LBB1499:
.LBI1499:
	.loc 1 550 36 view .LVU1369
.LBB1500:
	.loc 1 553 5 view .LVU1370
	.loc 1 553 106 is_stmt 0 view .LVU1371
	mov	r0, r4
	bl	get_pin_idx
.LVL300:
	.loc 1 553 69 view .LVU1372
	ldr	r3, .L242+4
	.loc 1 553 105 view .LVU1373
	adds	r0, r0, #8
	.loc 1 553 69 view .LVU1374
	ldrh	r3, [r3, r0, lsl #1]
	ubfx	r3, r3, #2, #3
.LVL301:
	.loc 1 555 5 is_stmt 1 view .LVU1375
	.loc 1 557 5 view .LVU1376
	.loc 1 557 8 is_stmt 0 view .LVU1377
	cmp	r3, #4
	beq	.L231
	.loc 1 561 10 is_stmt 1 view .LVU1378
	.loc 1 561 13 is_stmt 0 view .LVU1379
	cmp	r3, #5
	beq	.L232
	.loc 1 568 9 is_stmt 1 view .LVU1380
.LVL302:
.LBB1501:
.LBI1501:
	.loc 6 183 24 view .LVU1381
.LBB1502:
	.loc 6 185 5 view .LVU1382
	.loc 6 186 5 view .LVU1383
.LBB1503:
.LBB1504:
	.loc 2 1175 27 is_stmt 0 view .LVU1384
	add	r0, sp, #4
	str	r4, [sp, #4]
.LVL303:
	.loc 2 1175 27 view .LVU1385
.LBE1504:
.LBI1503:
	.loc 2 1173 24 is_stmt 1 view .LVU1386
.LBB1509:
	.loc 2 1175 5 view .LVU1387
	.loc 2 1175 27 is_stmt 0 view .LVU1388
	bl	nrf_gpio_pin_port_decode
.LVL304:
	.loc 2 1177 5 is_stmt 1 view .LVU1389
.LBB1505:
.LBI1505:
	.loc 2 1251 24 view .LVU1390
.LBB1506:
	.loc 2 1253 5 view .LVU1391
.LBE1506:
.LBE1505:
	.loc 2 1177 41 is_stmt 0 view .LVU1392
	ldr	r3, [sp, #4]
.LBB1508:
.LBB1507:
	.loc 2 1253 17 view .LVU1393
	ldr	r1, [r0, #1296]
.LVL305:
	.loc 2 1253 17 view .LVU1394
.LBE1507:
.LBE1508:
	.loc 2 1177 41 view .LVU1395
	lsrs	r1, r1, r3
	.loc 2 1177 56 view .LVU1396
	and	r1, r1, #1
.LVL306:
	.loc 2 1177 56 view .LVU1397
.LBE1509:
.LBE1503:
	.loc 6 187 5 is_stmt 1 view .LVU1398
	.loc 6 188 5 view .LVU1399
	.loc 6 188 5 is_stmt 0 view .LVU1400
	adds	r1, r1, #2
.L230:
.LVL307:
	.loc 6 188 5 view .LVU1401
.LBE1502:
.LBE1501:
	.loc 1 571 5 is_stmt 1 view .LVU1402
	.loc 1 571 5 is_stmt 0 view .LVU1403
.LBE1500:
.LBE1499:
.LBB1511:
.LBI1511:
	.loc 6 139 20 is_stmt 1 view .LVU1404
.LBB1512:
	.loc 6 142 5 view .LVU1405
	.loc 6 143 5 view .LVU1406
	mov	r0, r4
.LBE1512:
.LBE1511:
.LBE1517:
.LBE1520:
	.loc 1 1386 1 is_stmt 0 view .LVU1407
	add	sp, sp, #8
	.cfi_remember_state
	.cfi_def_cfa_offset 8
	@ sp needed
	pop	{r4, lr}
	.cfi_restore 14
	.cfi_restore 4
	.cfi_def_cfa_offset 0
.LVL308:
.LBB1521:
.LBB1518:
.LBB1514:
.LBB1513:
	.loc 6 143 5 view .LVU1408
	b	nrf_gpio_cfg_sense_set
.LVL309:
.L231:
	.cfi_restore_state
	.loc 6 143 5 view .LVU1409
.LBE1513:
.LBE1514:
.LBB1515:
.LBB1510:
	.loc 1 559 15 view .LVU1410
	movs	r1, #3
.LVL310:
	.loc 1 559 15 view .LVU1411
	b	.L230
.LVL311:
.L232:
	.loc 1 563 15 view .LVU1412
	movs	r1, #2
.LVL312:
	.loc 1 563 15 view .LVU1413
	b	.L230
.L243:
	.align	2
.L242:
	.word	1073766400
	.word	m_cb
.LBE1510:
.LBE1515:
.LBE1518:
.LBE1521:
	.cfi_endproc
.LFE506:
	.size	nrfx_gpiote_trigger_enable, .-nrfx_gpiote_trigger_enable
	.section	.text.nrfx_gpiote_trigger_disable,"ax",%progbits
	.align	1
	.global	nrfx_gpiote_trigger_disable
	.syntax unified
	.thumb
	.thumb_func
	.type	nrfx_gpiote_trigger_disable, %function
nrfx_gpiote_trigger_disable:
.LVL313:
.LFB507:
	.loc 1 1389 1 is_stmt 1 view -0
	.cfi_startproc
	@ args = 0, pretend = 0, frame = 0
	@ frame_needed = 0, uses_anonymous_args = 0
	@ link register save eliminated.
	.loc 1 1390 5 view .LVU1415
	b	pin_trigger_disable.constprop.0
.LVL314:
	.loc 1 1390 5 is_stmt 0 view .LVU1416
	.cfi_endproc
.LFE507:
	.size	nrfx_gpiote_trigger_disable, .-nrfx_gpiote_trigger_disable
	.section	.text.nrfx_gpiote_in_event_get,"ax",%progbits
	.align	1
	.global	nrfx_gpiote_in_event_get
	.syntax unified
	.thumb
	.thumb_func
	.type	nrfx_gpiote_in_event_get, %function
nrfx_gpiote_in_event_get:
.LVL315:
.LFB508:
	.loc 1 1394 1 is_stmt 1 view -0
	.cfi_startproc
	@ args = 0, pretend = 0, frame = 0
	@ frame_needed = 0, uses_anonymous_args = 0
	@ link register save eliminated.
	.loc 1 1395 5 view .LVU1418
	.loc 1 1395 12 is_stmt 0 view .LVU1419
	b	pin_in_event_get.constprop.0
.LVL316:
	.loc 1 1395 12 view .LVU1420
	.cfi_endproc
.LFE508:
	.size	nrfx_gpiote_in_event_get, .-nrfx_gpiote_in_event_get
	.section	.text.nrfx_gpiote_in_event_address_get,"ax",%progbits
	.align	1
	.global	nrfx_gpiote_in_event_address_get
	.syntax unified
	.thumb
	.thumb_func
	.type	nrfx_gpiote_in_event_address_get, %function
nrfx_gpiote_in_event_address_get:
.LVL317:
.LFB509:
	.loc 1 1399 1 is_stmt 1 view -0
	.cfi_startproc
	@ args = 0, pretend = 0, frame = 0
	@ frame_needed = 0, uses_anonymous_args = 0
	.loc 1 1400 5 view .LVU1422
	.loc 1 1399 1 is_stmt 0 view .LVU1423
	push	{r3, lr}
	.cfi_def_cfa_offset 8
	.cfi_offset 3, -8
	.cfi_offset 14, -4
	.loc 1 1400 32 view .LVU1424
	bl	pin_in_event_get.constprop.0
.LVL318:
	.loc 1 1401 5 is_stmt 1 view .LVU1425
.LBB1522:
.LBI1522:
	.loc 3 164 24 view .LVU1426
	.loc 3 167 5 view .LVU1427
.LBB1523:
.LBI1523:
	.loc 4 650 24 view .LVU1428
.LBB1524:
	.loc 4 653 5 view .LVU1429
	.loc 4 653 5 is_stmt 0 view .LVU1430
.LBE1524:
.LBE1523:
.LBE1522:
	.loc 1 1402 1 view .LVU1431
	add	r0, r0, #1073741824
.LVL319:
	.loc 1 1402 1 view .LVU1432
	add	r0, r0, #24576
	pop	{r3, pc}
	.cfi_endproc
.LFE509:
	.size	nrfx_gpiote_in_event_address_get, .-nrfx_gpiote_in_event_address_get
	.section	.text.nrfx_gpiote_0_irq_handler,"ax",%progbits
	.align	1
	.global	nrfx_gpiote_0_irq_handler
	.syntax unified
	.thumb
	.thumb_func
	.type	nrfx_gpiote_0_irq_handler, %function
nrfx_gpiote_0_irq_handler:
.LFB516:
	.loc 1 1679 38 is_stmt 1 view -0
	.cfi_startproc
	@ args = 0, pretend = 0, frame = 32
	@ frame_needed = 0, uses_anonymous_args = 0
	.loc 1 1679 40 view .LVU1434
.LBB1601:
.LBI1601:
	.loc 1 1659 13 view .LVU1435
.LVL320:
.LBB1602:
	.loc 1 1662 5 view .LVU1436
.LBB1603:
.LBI1603:
	.loc 4 666 24 view .LVU1437
.LBB1604:
	.loc 4 668 5 view .LVU1438
.LBE1604:
.LBE1603:
.LBE1602:
.LBE1601:
	.loc 1 1679 38 is_stmt 0 view .LVU1439
	push	{r4, r5, r6, r7, r8, r9, r10, fp, lr}
	.cfi_def_cfa_offset 36
	.cfi_offset 4, -36
	.cfi_offset 5, -32
	.cfi_offset 6, -28
	.cfi_offset 7, -24
	.cfi_offset 8, -20
	.cfi_offset 9, -16
	.cfi_offset 10, -12
	.cfi_offset 11, -8
	.cfi_offset 14, -4
.LBB1703:
.LBB1700:
.LBB1608:
.LBB1605:
	.loc 4 668 17 view .LVU1440
	ldr	r3, .L274
.LBE1605:
.LBE1608:
	.loc 1 1663 25 view .LVU1441
	ldr	r8, .L274+12
.LBB1609:
.LBB1606:
	.loc 4 668 17 view .LVU1442
	ldr	r0, [r3, #772]
.LVL321:
	.loc 4 668 17 view .LVU1443
.LBE1606:
.LBE1609:
	.loc 1 1663 5 is_stmt 1 view .LVU1444
.LBB1610:
.LBI1610:
	.loc 3 123 24 view .LVU1445
.LBB1611:
	.loc 3 127 5 view .LVU1446
	.loc 3 127 25 is_stmt 0 view .LVU1447
	ldr	r1, [r8, #112]
.LBE1611:
.LBE1610:
.LBB1613:
.LBB1607:
	.loc 4 668 28 view .LVU1448
	uxtb	r0, r0
.LVL322:
	.loc 4 668 28 view .LVU1449
.LBE1607:
.LBE1613:
.LBE1700:
.LBE1703:
	.loc 1 1679 38 view .LVU1450
	sub	sp, sp, #36
	.cfi_def_cfa_offset 72
.LBB1704:
.LBB1701:
.LBB1614:
.LBB1612:
	.loc 3 127 25 view .LVU1451
	orr	r0, r0, #-2147483648
	bl	__nrfy_internal_gpiote_events_process.constprop.0
.LVL323:
	.loc 3 128 5 is_stmt 1 view .LVU1452
	.loc 3 129 5 view .LVU1453
	.loc 3 129 5 is_stmt 0 view .LVU1454
.LBE1612:
.LBE1614:
	.loc 1 1669 5 is_stmt 1 view .LVU1455
	.loc 1 1669 8 is_stmt 0 view .LVU1456
	subs	r5, r0, #0
	bge	.L248
	.loc 1 1671 9 is_stmt 1 view .LVU1457
.LBB1615:
.LBI1615:
	.loc 1 1482 13 view .LVU1458
.LVL324:
.LBB1616:
	.loc 1 1484 5 view .LVU1459
	.loc 1 1486 5 is_stmt 0 view .LVU1460
	mov	r10, r8
	.loc 1 1484 14 view .LVU1461
	movs	r3, #0
	.loc 1 1486 5 view .LVU1462
	ldr	r1, [r10, #124]!
	add	r0, sp, #24
.LVL325:
	.loc 1 1484 14 view .LVU1463
	strd	r3, r3, [sp, #24]
	.loc 1 1486 5 is_stmt 1 view .LVU1464
	bl	latch_pending_read_and_check
.LVL326:
.L261:
	.loc 1 1488 5 view .LVU1465
	.loc 1 1489 9 view .LVU1466
.LBB1617:
	.loc 1 1489 14 view .LVU1467
	.loc 1 1489 32 view .LVU1468
	ldr	r3, .L274+4
	str	r3, [sp, #4]
	add	r9, sp, #24
	.loc 1 1489 23 is_stmt 0 view .LVU1469
	mov	fp, #0
.LVL327:
.L250:
	.loc 1 1491 13 is_stmt 1 view .LVU1470
	.loc 1 1491 50 is_stmt 0 view .LVU1471
	ldr	r2, [sp, #4]
	ldrb	r3, [r2], #1	@ zero_extendqisi2
	str	r2, [sp, #4]
.LVL328:
.LBB1618:
.LBI1618:
	.loc 5 74 21 is_stmt 1 view .LVU1472
.LBB1619:
	.loc 5 76 5 view .LVU1473
	.loc 5 77 5 view .LVU1474
	.loc 5 78 5 view .LVU1475
	.loc 5 79 5 view .LVU1476
	.loc 5 77 14 is_stmt 0 view .LVU1477
	lsrs	r2, r3, #3
	.loc 5 78 9 view .LVU1478
	and	r3, r3, #7
	.loc 5 79 34 view .LVU1479
	ldrb	r2, [r10, r2]	@ zero_extendqisi2
	.loc 5 79 46 view .LVU1480
	lsr	r3, r2, r3
.LBE1619:
.LBE1618:
	.loc 1 1491 16 view .LVU1481
	lsls	r2, r3, #31
	bmi	.L249
.L260:
	.loc 1 1489 38 is_stmt 1 view .LVU1482
.LVL329:
	.loc 1 1489 32 view .LVU1483
	add	r9, r9, #4
	cmp	fp, #0
	beq	.L264
.LBE1617:
	.loc 1 1518 9 view .LVU1484
.LVL330:
.LBB1681:
.LBI1681:
	.loc 3 123 24 view .LVU1485
.LBB1682:
	.loc 3 127 5 view .LVU1486
	.loc 3 127 25 is_stmt 0 view .LVU1487
	ldr	r1, [r8, #112]
	mov	r0, #-2147483648
	bl	__nrfy_internal_gpiote_events_process.constprop.0
.LVL331:
	.loc 3 128 5 is_stmt 1 view .LVU1488
	.loc 3 129 5 view .LVU1489
	.loc 3 129 5 is_stmt 0 view .LVU1490
.LBE1682:
.LBE1681:
	.loc 1 1521 14 is_stmt 1 view .LVU1491
	ldr	r1, [r8, #124]
	add	r0, sp, #24
	bl	latch_pending_read_and_check
.LVL332:
	cmp	r0, #0
	bne	.L261
.LVL333:
	.loc 1 1521 14 is_stmt 0 view .LVU1492
.LBE1616:
.LBE1615:
	.loc 1 1672 9 is_stmt 1 view .LVU1493
	.loc 1 1672 18 is_stmt 0 view .LVU1494
	bic	r5, r5, #-2147483648
.LVL334:
.L248:
.LBB1685:
.LBB1686:
.LBB1687:
	.loc 1 1651 23 view .LVU1495
	movs	r4, #1
.LVL335:
.L262:
	.loc 1 1651 23 view .LVU1496
.LBE1687:
	.loc 1 1648 12 is_stmt 1 view .LVU1497
	cmp	r5, #0
	bne	.L263
.LBE1686:
.LBE1685:
.LBE1701:
.LBE1704:
	.loc 1 1679 118 is_stmt 0 view .LVU1498
	add	sp, sp, #36
	.cfi_remember_state
	.cfi_def_cfa_offset 36
	@ sp needed
	pop	{r4, r5, r6, r7, r8, r9, r10, fp, pc}
.LVL336:
.L264:
	.cfi_restore_state
.LBB1705:
.LBB1702:
.LBB1698:
.LBB1684:
.LBB1683:
	.loc 1 1489 38 view .LVU1499
	mov	fp, #1
.LVL337:
	.loc 1 1489 38 view .LVU1500
	b	.L250
.LVL338:
.L249:
.LBB1620:
	.loc 1 1498 74 view .LVU1501
	ldr	r3, .L274+8
	add	r3, fp, r3
	str	r3, [sp, #8]
.L252:
.LBE1620:
	.loc 1 1493 24 is_stmt 1 view .LVU1502
	.loc 1 1493 29 is_stmt 0 view .LVU1503
	ldr	r1, [r9]
	.loc 1 1493 24 view .LVU1504
	cmp	r1, #0
	beq	.L260
.LBB1680:
	.loc 1 1495 21 is_stmt 1 view .LVU1505
	.loc 1 1498 79 is_stmt 0 view .LVU1506
	ldr	r3, [sp, #8]
	.loc 1 1495 36 view .LVU1507
	rbit	r1, r1
	.loc 1 1498 79 view .LVU1508
	ldrb	r4, [r3]	@ zero_extendqisi2
	.loc 1 1495 36 view .LVU1509
	clz	r1, r1
.LVL339:
	.loc 1 1498 21 is_stmt 1 view .LVU1510
	.loc 1 1498 39 is_stmt 0 view .LVU1511
	orr	r4, r1, r4, lsl #5
.LVL340:
	.loc 1 1499 21 is_stmt 1 view .LVU1512
	.loc 1 1500 21 view .LVU1513
	.loc 1 1501 66 is_stmt 0 view .LVU1514
	mov	r0, r4
	bl	get_pin_idx
.LVL341:
	.loc 1 1501 65 view .LVU1515
	adds	r0, r0, #8
	str	r4, [sp, #20]
	.loc 1 1501 57 view .LVU1516
	ldrh	r7, [r8, r0, lsl #1]
.LBB1621:
.LBB1622:
	.loc 5 105 14 view .LVU1517
	lsrs	r0, r1, #3
.LBE1622:
.LBE1621:
	.loc 1 1501 57 view .LVU1518
	lsrs	r3, r7, #2
.LBB1626:
.LBB1623:
	.loc 5 107 23 view .LVU1519
	ldrb	r2, [r9, r0]	@ zero_extendqisi2
.LBE1623:
.LBE1626:
	.loc 1 1501 57 view .LVU1520
	str	r3, [sp, #12]
.LBB1627:
.LBB1624:
	.loc 5 106 9 view .LVU1521
	and	r1, r1, #7
.LVL342:
	.loc 5 107 40 view .LVU1522
	movs	r3, #1
	lsl	r1, r3, r1
	.loc 5 107 23 view .LVU1523
	bic	r2, r2, r1
	strb	r2, [r9, r0]
.LBE1624:
.LBE1627:
.LBB1628:
.LBB1629:
.LBB1630:
.LBB1631:
	.loc 2 1195 27 view .LVU1524
	add	r0, sp, #20
	bl	nrf_gpio_pin_port_decode
.LVL343:
	.loc 2 1197 48 view .LVU1525
	ldr	r2, [sp, #20]
.LBE1631:
.LBE1630:
.LBE1629:
.LBE1628:
.LBB1644:
.LBB1645:
	.loc 1 1428 8 view .LVU1526
	ldr	r3, [sp, #12]
.LBE1645:
.LBE1644:
.LBB1666:
.LBB1640:
.LBB1636:
.LBB1632:
	.loc 2 1197 48 view .LVU1527
	add	r2, r2, #448
.LBE1632:
.LBE1636:
.LBE1640:
.LBE1666:
	.loc 1 1501 57 view .LVU1528
	ubfx	r6, r7, #2, #3
.LBB1667:
.LBB1641:
.LBB1637:
.LBB1633:
	.loc 2 1197 48 view .LVU1529
	ldr	r2, [r0, r2, lsl #2]
.LBE1633:
.LBE1637:
.LBE1641:
.LBE1667:
.LBB1668:
.LBB1662:
	.loc 1 1428 8 view .LVU1530
	lsls	r3, r3, #29
.LBE1662:
.LBE1668:
	.loc 1 1500 43 view .LVU1531
	mov	r7, r6
.LVL344:
	.loc 1 1503 21 is_stmt 1 view .LVU1532
.LBB1669:
.LBI1621:
	.loc 5 102 20 view .LVU1533
.LBB1625:
	.loc 5 104 5 view .LVU1534
	.loc 5 105 5 view .LVU1535
	.loc 5 106 5 view .LVU1536
	.loc 5 107 5 view .LVU1537
	.loc 5 107 5 is_stmt 0 view .LVU1538
.LBE1625:
.LBE1669:
	.loc 1 1504 21 is_stmt 1 view .LVU1539
.LBB1670:
.LBI1628:
	.loc 6 201 36 view .LVU1540
.LBB1642:
	.loc 6 203 5 view .LVU1541
	.loc 6 204 5 view .LVU1542
.LBB1638:
.LBI1630:
	.loc 2 1193 36 view .LVU1543
.LBB1634:
	.loc 2 1195 5 view .LVU1544
	.loc 2 1197 5 view .LVU1545
	.loc 2 1198 55 is_stmt 0 view .LVU1546
	ubfx	r2, r2, #16, #2
.LVL345:
	.loc 2 1198 55 view .LVU1547
.LBE1634:
.LBE1638:
	.loc 6 205 5 is_stmt 1 view .LVU1548
	.loc 6 206 5 view .LVU1549
	.loc 6 206 5 is_stmt 0 view .LVU1550
.LBE1642:
.LBE1670:
	.loc 1 1506 21 is_stmt 1 view .LVU1551
.LBB1671:
.LBI1644:
	.loc 1 1423 13 view .LVU1552
.LBB1663:
	.loc 1 1428 5 view .LVU1553
	.loc 1 1428 8 is_stmt 0 view .LVU1554
	bpl	.L253
	.loc 1 1430 9 view .LVU1555
	mov	r0, r4
	mov	r1, r7
.LBE1663:
.LBE1671:
.LBB1672:
.LBB1643:
.LBB1639:
.LBB1635:
	.loc 2 1197 12 view .LVU1556
	uxtb	r6, r2
.LVL346:
	.loc 2 1197 12 view .LVU1557
.LBE1635:
.LBE1639:
.LBE1643:
.LBE1672:
.LBB1673:
.LBB1664:
	.loc 1 1430 9 is_stmt 1 view .LVU1558
	bl	call_handler.constprop.0
.LVL347:
	.loc 1 1431 9 view .LVU1559
.LBB1646:
.LBI1646:
	.loc 6 201 36 view .LVU1560
.LBB1647:
	.loc 6 203 5 view .LVU1561
	.loc 6 204 5 view .LVU1562
.LBB1648:
.LBB1649:
	.loc 2 1195 27 is_stmt 0 view .LVU1563
	add	r0, sp, #20
	str	r4, [sp, #20]
.LVL348:
	.loc 2 1195 27 view .LVU1564
.LBE1649:
.LBI1648:
	.loc 2 1193 36 is_stmt 1 view .LVU1565
.LBB1650:
	.loc 2 1195 5 view .LVU1566
	.loc 2 1195 27 is_stmt 0 view .LVU1567
	bl	nrf_gpio_pin_port_decode
.LVL349:
	.loc 2 1197 5 is_stmt 1 view .LVU1568
	.loc 2 1197 48 is_stmt 0 view .LVU1569
	ldr	r3, [sp, #20]
	add	r3, r3, #448
	ldr	r3, [r0, r3, lsl #2]
.LVL350:
	.loc 2 1197 48 view .LVU1570
.LBE1650:
.LBE1648:
	.loc 6 205 5 is_stmt 1 view .LVU1571
	.loc 6 206 5 view .LVU1572
	.loc 6 206 5 is_stmt 0 view .LVU1573
.LBE1647:
.LBE1646:
	.loc 1 1431 12 view .LVU1574
	ubfx	r3, r3, #16, #2
	cmp	r6, r3
	bne	.L255
	.loc 1 1435 13 is_stmt 1 view .LVU1575
.LVL351:
.LBB1651:
.LBI1651:
	.loc 6 139 20 view .LVU1576
.LBB1652:
	.loc 6 142 5 view .LVU1577
	.loc 6 143 5 view .LVU1578
	movs	r1, #0
	mov	r0, r4
	bl	nrf_gpio_cfg_sense_set
.LVL352:
	.loc 6 144 5 view .LVU1579
	.loc 6 144 5 is_stmt 0 view .LVU1580
.LBE1652:
.LBE1651:
	.loc 1 1436 13 is_stmt 1 view .LVU1581
.LBB1653:
.LBI1653:
	.loc 6 139 20 view .LVU1582
.LBB1654:
	.loc 6 142 5 view .LVU1583
	.loc 6 143 5 view .LVU1584
	mov	r1, r6
	mov	r0, r4
	bl	nrf_gpio_cfg_sense_set
.LVL353:
	.loc 6 144 5 view .LVU1585
.L255:
	.loc 6 144 5 is_stmt 0 view .LVU1586
.LBE1654:
.LBE1653:
.LBE1664:
.LBE1673:
	.loc 1 1511 21 is_stmt 1 view .LVU1587
.LBB1674:
.LBI1674:
	.loc 6 346 20 view .LVU1588
.LBB1675:
	.loc 6 348 5 view .LVU1589
.LBB1676:
.LBB1677:
	.loc 2 1378 27 is_stmt 0 view .LVU1590
	add	r0, sp, #20
	str	r4, [sp, #20]
.LVL354:
	.loc 2 1378 27 view .LVU1591
.LBE1677:
.LBI1676:
	.loc 2 1376 20 is_stmt 1 view .LVU1592
.LBB1678:
	.loc 2 1378 5 view .LVU1593
	.loc 2 1378 27 is_stmt 0 view .LVU1594
	bl	nrf_gpio_pin_port_decode
.LVL355:
	.loc 2 1380 5 is_stmt 1 view .LVU1595
	.loc 2 1380 21 is_stmt 0 view .LVU1596
	ldr	r3, [sp, #20]
	movs	r2, #1
	lsl	r3, r2, r3
	.loc 2 1380 16 view .LVU1597
	str	r3, [r0, #1312]
.LVL356:
	.loc 2 1380 16 view .LVU1598
.LBE1678:
.LBE1676:
	.loc 6 349 5 is_stmt 1 view .LVU1599
	.loc 6 350 1 is_stmt 0 view .LVU1600
	b	.L252
.LVL357:
.L253:
	.loc 6 350 1 view .LVU1601
.LBE1675:
.LBE1674:
.LBB1679:
.LBB1665:
.LBB1655:
	.loc 1 1444 9 is_stmt 1 view .LVU1602
	.loc 1 1445 40 is_stmt 0 view .LVU1603
	cmp	r2, #2
	bne	.L256
.LVL358:
	.loc 1 1447 9 is_stmt 1 view .LVU1604
.LBB1656:
.LBI1656:
	.loc 6 139 20 view .LVU1605
.LBB1657:
	.loc 6 142 5 view .LVU1606
	.loc 6 143 5 view .LVU1607
	movs	r1, #3
	mov	r0, r4
	bl	nrf_gpio_cfg_sense_set
.LVL359:
	.loc 6 144 5 view .LVU1608
	.loc 6 144 5 is_stmt 0 view .LVU1609
.LBE1657:
.LBE1656:
	.loc 1 1452 9 is_stmt 1 view .LVU1610
	.loc 1 1452 12 is_stmt 0 view .LVU1611
	and	r3, r6, #5
	cmp	r3, #1
.LVL360:
.L273:
	.loc 1 1452 12 view .LVU1612
	bne	.L255
.L258:
	.loc 1 1456 13 is_stmt 1 view .LVU1613
	mov	r1, r7
	mov	r0, r4
	bl	call_handler.constprop.0
.LVL361:
	b	.L255
.LVL362:
.L256:
.LBB1660:
.LBB1658:
	.loc 6 143 5 is_stmt 0 view .LVU1614
	movs	r1, #2
	mov	r0, r4
	str	r2, [sp, #12]
.LVL363:
	.loc 6 143 5 view .LVU1615
.LBE1658:
.LBE1660:
	.loc 1 1447 9 is_stmt 1 view .LVU1616
.LBB1661:
	.loc 6 139 20 view .LVU1617
.LBB1659:
	.loc 6 142 5 view .LVU1618
	.loc 6 143 5 view .LVU1619
	bl	nrf_gpio_cfg_sense_set
.LVL364:
	.loc 6 144 5 view .LVU1620
	.loc 6 144 5 is_stmt 0 view .LVU1621
.LBE1659:
.LBE1661:
	.loc 1 1452 9 is_stmt 1 view .LVU1622
	.loc 1 1452 12 is_stmt 0 view .LVU1623
	cmp	r6, #3
	beq	.L258
	.loc 1 1453 89 view .LVU1624
	ldr	r2, [sp, #12]
	cmp	r2, #3
	bne	.L255
	.loc 1 1454 46 view .LVU1625
	cmp	r6, #2
	b	.L273
.LVL365:
.L263:
	.loc 1 1454 46 view .LVU1626
.LBE1655:
.LBE1665:
.LBE1679:
.LBE1680:
.LBE1683:
.LBE1684:
.LBE1698:
.LBB1699:
.LBB1697:
.LBB1696:
	.loc 1 1650 9 is_stmt 1 view .LVU1627
	.loc 1 1650 23 is_stmt 0 view .LVU1628
	rbit	r3, r5
	clz	r3, r3
.LVL366:
	.loc 1 1651 9 is_stmt 1 view .LVU1629
	.loc 1 1651 23 is_stmt 0 view .LVU1630
	lsl	r2, r4, r3
	lsls	r3, r3, #2
.LVL367:
	.loc 1 1651 23 view .LVU1631
	add	r3, r3, #1073741824
	add	r3, r3, #24576
	.loc 1 1651 14 view .LVU1632
	bic	r5, r5, r2
.LVL368:
	.loc 1 1652 9 is_stmt 1 view .LVU1633
.LBB1688:
.LBI1688:
	.loc 3 255 24 view .LVU1634
.LBB1689:
	.loc 3 257 5 view .LVU1635
	.loc 3 258 5 view .LVU1636
.LBB1690:
.LBI1690:
	.loc 4 843 24 view .LVU1637
.LBB1691:
	.loc 4 845 5 view .LVU1638
	.loc 4 845 27 is_stmt 0 view .LVU1639
	ldr	r0, [r3, #1296]
.LVL369:
	.loc 4 845 27 view .LVU1640
.LBE1691:
.LBE1690:
	.loc 3 259 5 is_stmt 1 view .LVU1641
	.loc 3 260 5 view .LVU1642
	.loc 3 260 5 is_stmt 0 view .LVU1643
.LBE1689:
.LBE1688:
	.loc 1 1653 9 is_stmt 1 view .LVU1644
.LBB1692:
.LBI1692:
	.loc 3 265 23 view .LVU1645
.LBB1693:
	.loc 3 268 5 view .LVU1646
	.loc 3 269 5 view .LVU1647
.LBB1694:
.LBI1694:
	.loc 4 848 37 view .LVU1648
.LBB1695:
	.loc 4 851 5 view .LVU1649
	.loc 4 851 50 is_stmt 0 view .LVU1650
	ldr	r1, [r3, #1296]
.LVL370:
	.loc 4 851 50 view .LVU1651
.LBE1695:
.LBE1694:
	.loc 3 270 5 is_stmt 1 view .LVU1652
	.loc 3 271 5 view .LVU1653
	.loc 3 271 5 is_stmt 0 view .LVU1654
.LBE1693:
.LBE1692:
	.loc 1 1655 9 is_stmt 1 view .LVU1655
	ubfx	r0, r0, #8, #6
.LVL371:
	.loc 1 1655 9 is_stmt 0 view .LVU1656
	ubfx	r1, r1, #16, #2
.LVL372:
	.loc 1 1655 9 view .LVU1657
	bl	call_handler.constprop.0
.LVL373:
	b	.L262
.L275:
	.align	2
.L274:
	.word	1073766400
	.word	port_index
	.word	ports
	.word	m_cb
.LBE1696:
.LBE1697:
.LBE1699:
.LBE1702:
.LBE1705:
	.cfi_endproc
.LFE516:
	.size	nrfx_gpiote_0_irq_handler, .-nrfx_gpiote_0_irq_handler
	.section	.rodata.port_lens.0,"a"
	.type	port_lens.0, %object
	.size	port_lens.0, 2
port_lens.0:
	.ascii	" \020"
	.section	.rodata.port_offset.1,"a"
	.type	port_offset.1, %object
	.size	port_offset.1, 16
port_offset.1:
	.ascii	"\000 00000000000000"
	.global	gpio_instance
	.section	.rodata.gpio_instance,"a"
	.align	2
	.type	gpio_instance, %object
	.size	gpio_instance, 8
gpio_instance:
	.word	1073766400
	.byte	0
	.space	3
	.section	.rodata.ports,"a"
	.type	ports, %object
	.size	ports, 2
ports:
	.ascii	"\000\001"
	.set	port_index,ports
	.section	.data.m_cb,"aw"
	.align	2
	.type	m_cb, %object
	.size	m_cb, 132
m_cb:
	.space	112
	.word	8
	.word	255
	.space	4
	.word	3
	.space	4
	.text
.Letext0:
	.file 8 "/home/g/zephyr-sdk-0.16.3/arm-zephyr-eabi/picolibc/include/machine/_default_types.h"
	.file 9 "/home/g/zephyr-sdk-0.16.3/arm-zephyr-eabi/picolibc/include/sys/_stdint.h"
	.file 10 "/home/g/zephyr-sdk-0.16.3/arm-zephyr-eabi/lib/gcc/arm-zephyr-eabi/12.2.0/include/stddef.h"
	.file 11 "/home/g/mise-work/zmk-firmware/zmk/modules/hal/nordic/nrfx/mdk/nrf52840.h"
	.file 12 "/home/g/mise-work/zmk-firmware/zmk/modules/hal/nordic/nrfx/drivers/nrfx_common.h"
	.file 13 "/home/g/mise-work/zmk-firmware/zmk/zephyr/include/zephyr/sys/atomic.h"
	.file 14 "/home/g/mise-work/zmk-firmware/zmk/modules/hal/nordic/nrfx/drivers/nrfx_errors.h"
	.file 15 "/home/g/mise-work/zmk-firmware/zmk/modules/hal/nordic/nrfx/drivers/include/nrfx_gpiote.h"
	.file 16 "/home/g/mise-work/zmk-firmware/zmk/zephyr/include/zephyr/logging/log_instance.h"
	.file 17 "/home/g/mise-work/zmk-firmware/zmk/zephyr/include/zephyr/sys/cbprintf.h"
	.file 18 "/home/g/mise-work/zmk-firmware/zmk/zephyr/include/zephyr/logging/log_msg.h"
	.file 19 "/home/g/mise-work/zmk-firmware/zmk/zephyr/modules/hal_nordic/nrfx/./nrfx_log.h"
	.file 20 "/home/g/mise-work/zmk-firmware/zmk/modules/hal/nordic/nrfx/helpers/nrfx_flag32_allocator.h"
	.file 21 "/home/g/zephyr-sdk-0.16.3/arm-zephyr-eabi/picolibc/include/ssp/string.h"
	.file 22 "/home/g/mise-work/zmk-firmware/zmk/zephyr/include/zephyr/arch/arm/irq.h"
	.file 23 "<built-in>"