	.cpu cortex-m4
	.arch armv7e-m
	.fpu fpv4-sp-d16
	.eabi_attribute 27, 1
	.eabi_attribute 28, 1
	.eabi_attribute 20, 1
	.eabi_attribute 21, 1
	.eabi_attribute 23, 3
	.eabi_attribute 24, 1
	.eabi_attribute 25, 1
	.eabi_attribute 26, 1
	.eabi_attribute 30, 4
	.eabi_attribute 34, 1
	.eabi_attribute 38, 1
	.eabi_attribute 18, 4
	.file	"nrfx_usbd.c"
	.text
.Ltext0:
	.cfi_sections	.debug_frame
	.file 1 "/home/g/mise-work/zmk-firmware/zmk/modules/hal/nordic/nrfx/drivers/src/nrfx_usbd.c"
	.section	.text.nrf52_errata_187,"ax",%progbits
	.align	1
	.syntax unified
	.thumb
	.thumb_func
	.type	nrf52_errata_187, %function
nrf52_errata_187:
.LFB541:
	.file 2 "/home/g/mise-work/zmk-firmware/zmk/modules/hal/nordic/nrfx/mdk/nrf52_erratas.h"
	.loc 2 9362 1 view -0
	.cfi_startproc
	@ args = 0, pretend = 0, frame = 0
	@ frame_needed = 0, uses_anonymous_args = 0
	@ link register save eliminated.
	.loc 2 9369 13 view .LVU1
.LVL0:
	.loc 2 9370 13 view .LVU2
	.loc 2 9373 13 view .LVU3
	.loc 2 9369 22 is_stmt 0 view .LVU4
	mov	r3, #268435456
	.loc 2 9373 16 view .LVU5
	ldr	r2, [r3, #304]
	cmp	r2, #8
	bne	.L3
	.loc 2 9370 22 view .LVU6
	ldr	r3, [r3, #308]
	.loc 2 9375 17 is_stmt 1 view .LVU7
	cmp	r3, #5
	bhi	.L4
	ldr	r2, .L5
	ldrb	r0, [r2, r3]	@ zero_extendqisi2
	bx	lr
.L3:
	.loc 2 9378 31 is_stmt 0 view .LVU8
	movs	r0, #0
	bx	lr
.L4:
	.loc 2 9370 22 view .LVU9
	movs	r0, #1
	.loc 2 9428 1 view .LVU10
	bx	lr
.L6:
	.align	2
.L5:
	.word	CSWTCH.4140
	.cfi_endproc
.LFE541:
	.size	nrf52_errata_187, .-nrf52_errata_187
	.section	.text.nrfx_usbd_consumer,"ax",%progbits
	.align	1
	.global	nrfx_usbd_consumer
	.syntax unified
	.thumb
	.thumb_func
	.type	nrfx_usbd_consumer, %function
nrfx_usbd_consumer:
.LVL1:
.LFB786:
	.loc 1 462 1 is_stmt 1 view -0
	.cfi_startproc
	@ args = 0, pretend = 0, frame = 0
	@ frame_needed = 0, uses_anonymous_args = 0
	.loc 1 463 5 view .LVU12
	.loc 1 464 7 view .LVU13
	.loc 1 464 8 view .LVU14
	.loc 1 465 7 view .LVU15
	.loc 1 466 47 view .LVU16
	.loc 1 468 5 view .LVU17
	.loc 1 462 1 is_stmt 0 view .LVU18
	push	{r4, r5, lr}
	.cfi_def_cfa_offset 12
	.cfi_offset 4, -12
	.cfi_offset 5, -8
	.cfi_offset 14, -4
	.loc 1 468 12 view .LVU19
	ldr	r4, [r1, #4]
.LVL2:
	.loc 1 469 5 is_stmt 1 view .LVU20
	.loc 1 469 8 is_stmt 0 view .LVU21
	cmp	r4, r3
	bcs	.L8
	.loc 1 471 9 is_stmt 1 discriminator 385 view .LVU22
.LBB524:
	.loc 1 471 14 discriminator 385 view .LVU23
.LBE524:
	.loc 1 471 12 discriminator 385 view .LVU24
	.loc 1 473 9 discriminator 385 view .LVU25
	.loc 1 473 22 is_stmt 0 discriminator 385 view .LVU26
	movs	r5, #0
	str	r5, [r0, #4]
	.loc 1 474 9 is_stmt 1 discriminator 385 view .LVU27
	.loc 1 474 24 is_stmt 0 discriminator 385 view .LVU28
	ldr	r1, [r1]
.LVL3:
	.loc 1 474 24 discriminator 385 view .LVU29
	str	r1, [r0]
.LVL4:
.L9:
	.loc 1 484 5 is_stmt 1 view .LVU30
	.loc 1 484 35 is_stmt 0 view .LVU31
	cmp	r2, r3
	bne	.L11
	.loc 1 484 35 discriminator 1 view .LVU32
	subs	r0, r4, #0
	it	ne
	movne	r0, #1
.L10:
	.loc 1 485 1 discriminator 6 view .LVU33
	pop	{r4, r5, pc}
.LVL5:
.L8:
	.loc 1 478 9 is_stmt 1 view .LVU34
	.loc 1 478 22 is_stmt 0 view .LVU35
	str	r3, [r0, #4]
	.loc 1 479 9 is_stmt 1 view .LVU36
	.loc 1 479 24 is_stmt 0 view .LVU37
	ldr	r5, [r1]
	str	r5, [r0]
	.loc 1 480 9 is_stmt 1 view .LVU38
	.loc 1 482 33 is_stmt 0 view .LVU39
	ldr	r0, [r1]
.LVL6:
	.loc 1 480 14 view .LVU40
	subs	r4, r4, r3
.LVL7:
	.loc 1 481 9 is_stmt 1 view .LVU41
	.loc 1 482 33 is_stmt 0 view .LVU42
	add	r0, r0, r3
	.loc 1 481 26 view .LVU43
	str	r4, [r1, #4]
	.loc 1 482 9 is_stmt 1 view .LVU44
	.loc 1 482 33 is_stmt 0 view .LVU45
	str	r0, [r1]
	b	.L9
.LVL8:
.L11:
	.loc 1 484 35 view .LVU46
	movs	r0, #0
	b	.L10
	.cfi_endproc
.LFE786:
	.size	nrfx_usbd_consumer, .-nrfx_usbd_consumer
	.section	.text.nrfx_usbd_feeder_ram,"ax",%progbits
	.align	1
	.global	nrfx_usbd_feeder_ram
	.syntax unified
	.thumb
	.thumb_func
	.type	nrfx_usbd_feeder_ram, %function
nrfx_usbd_feeder_ram:
.LVL9:
.LFB787:
	.loc 1 501 1 is_stmt 1 view -0
	.cfi_startproc
	@ args = 0, pretend = 0, frame = 0
	@ frame_needed = 0, uses_anonymous_args = 0
	@ link register save eliminated.
	.loc 1 502 5 view .LVU48
	.loc 1 503 7 view .LVU49
	.loc 1 503 8 view .LVU50
	.loc 1 505 5 view .LVU51
	.loc 1 506 5 view .LVU52
	ldr	r3, [r1, #4]
	cmp	r2, r3
	it	cs
	movcs	r2, r3
.LVL10:
	.loc 1 511 5 view .LVU53
	.loc 1 511 20 is_stmt 0 view .LVU54
	ldr	r3, [r1]
	.loc 1 512 18 view .LVU55
	strd	r3, r2, [r0]
	.loc 1 514 5 is_stmt 1 view .LVU56
	.loc 1 514 22 is_stmt 0 view .LVU57
	ldr	r0, [r1, #4]
.LVL11:
	.loc 1 515 29 view .LVU58
	ldr	r3, [r1]
	.loc 1 514 22 view .LVU59
	subs	r0, r0, r2
	str	r0, [r1, #4]
	.loc 1 515 5 is_stmt 1 view .LVU60
	.loc 1 515 29 is_stmt 0 view .LVU61
	add	r3, r3, r2
	.loc 1 518 1 view .LVU62
	subs	r0, r0, #0
	.loc 1 515 29 view .LVU63
	str	r3, [r1]
	.loc 1 517 5 is_stmt 1 view .LVU64
	.loc 1 518 1 is_stmt 0 view .LVU65
	it	ne
	movne	r0, #1
	bx	lr
	.cfi_endproc
.LFE787:
	.size	nrfx_usbd_feeder_ram, .-nrfx_usbd_feeder_ram
	.section	.text.nrfx_usbd_feeder_ram_zlp,"ax",%progbits
	.align	1
	.global	nrfx_usbd_feeder_ram_zlp
	.syntax unified
	.thumb
	.thumb_func
	.type	nrfx_usbd_feeder_ram_zlp, %function
nrfx_usbd_feeder_ram_zlp:
.LVL12:
.LFB788:
	.loc 1 534 1 is_stmt 1 view -0
	.cfi_startproc
	@ args = 0, pretend = 0, frame = 0
	@ frame_needed = 0, uses_anonymous_args = 0
	@ link register save eliminated.
	.loc 1 535 5 view .LVU67
	.loc 1 536 7 view .LVU68
	.loc 1 536 8 view .LVU69
	.loc 1 538 5 view .LVU70
	.loc 1 539 5 view .LVU71
	ldr	r3, [r1, #4]
	cmp	r2, r3
	it	cs
	movcs	r2, r3
.LVL13:
	.loc 1 544 5 view .LVU72
	.loc 1 544 46 is_stmt 0 view .LVU73
	cbz	r2, .L15
	.loc 1 544 46 discriminator 1 view .LVU74
	ldr	r3, [r1]
.L14:
	.loc 1 545 18 discriminator 4 view .LVU75
	strd	r3, r2, [r0]
	.loc 1 547 5 is_stmt 1 discriminator 4 view .LVU76
	.loc 1 547 22 is_stmt 0 discriminator 4 view .LVU77
	ldr	r3, [r1, #4]
	subs	r3, r3, r2
	str	r3, [r1, #4]
	.loc 1 548 5 is_stmt 1 discriminator 4 view .LVU78
	.loc 1 548 29 is_stmt 0 discriminator 4 view .LVU79
	ldr	r3, [r1]
	.loc 1 551 1 discriminator 4 view .LVU80
	subs	r0, r2, #0
.LVL14:
	.loc 1 548 29 discriminator 4 view .LVU81
	add	r3, r3, r2
	str	r3, [r1]
	.loc 1 550 5 is_stmt 1 discriminator 4 view .LVU82
	.loc 1 551 1 is_stmt 0 discriminator 4 view .LVU83
	it	ne
	movne	r0, #1
	bx	lr
.LVL15:
.L15:
	.loc 1 544 46 view .LVU84
	mov	r3, r2
	b	.L14
	.cfi_endproc
.LFE788:
	.size	nrfx_usbd_feeder_ram_zlp, .-nrfx_usbd_feeder_ram_zlp
	.section	.text.ep_state_access,"ax",%progbits
	.align	1
	.syntax unified
	.thumb
	.thumb_func
	.type	ep_state_access, %function
ep_state_access:
.LVL16:
.LFB793:
	.loc 1 671 1 is_stmt 1 view -0
	.cfi_startproc
	@ args = 0, pretend = 0, frame = 0
	@ frame_needed = 0, uses_anonymous_args = 0
	@ link register save eliminated.
	.loc 1 672 7 view .LVU86
	.loc 1 672 8 view .LVU87
	.loc 1 672 9 view .LVU88
	.loc 1 673 5 view .LVU89
	.loc 1 673 80 is_stmt 0 view .LVU90
	ldr	r3, .L19
	tst	r0, #128
	sub	r2, r3, #144
	it	eq
	moveq	r3, r2
	.loc 1 674 10 view .LVU91
	and	r0, r0, #15
.LVL17:
	.loc 1 675 1 view .LVU92
	add	r0, r3, r0, lsl #4
	bx	lr
.L20:
	.align	2
.L19:
	.word	m_ep_state+144
	.cfi_endproc
.LFE793:
	.size	ep_state_access, .-ep_state_access
	.section	.text.ep2bit,"ax",%progbits
	.align	1
	.syntax unified
	.thumb
	.thumb_func
	.type	ep2bit, %function
ep2bit:
.LVL18:
.LFB794:
	.loc 1 690 1 is_stmt 1 view -0
	.cfi_startproc
	@ args = 0, pretend = 0, frame = 0
	@ frame_needed = 0, uses_anonymous_args = 0
	@ link register save eliminated.
	.loc 1 691 7 view .LVU94
	.loc 1 691 8 view .LVU95
	.loc 1 691 9 view .LVU96
	.loc 1 692 5 view .LVU97
	.loc 1 692 12 is_stmt 0 view .LVU98
	mvns	r3, r0
	ubfx	r3, r3, #7, #1
	.loc 1 692 83 view .LVU99
	and	r0, r0, #15
.LVL19:
	.loc 1 693 1 view .LVU100
	add	r0, r0, r3, lsl #4
	bx	lr
	.cfi_endproc
.LFE794:
	.size	ep2bit, .-ep2bit
	.section	.text.ev_usbreset_handler,"ax",%progbits
	.align	1
	.syntax unified
	.thumb
	.thumb_func
	.type	ev_usbreset_handler, %function
ev_usbreset_handler:
.LFB805:
	.loc 1 886 1 is_stmt 1 view -0
	.cfi_startproc
	@ args = 0, pretend = 0, frame = 8
	@ frame_needed = 0, uses_anonymous_args = 0
	.loc 1 887 5 view .LVU102
	.loc 1 886 1 is_stmt 0 view .LVU103
	push	{r0, r1, r2, lr}
	.cfi_def_cfa_offset 16
	.cfi_offset 14, -4
	.loc 1 887 19 view .LVU104
	ldr	r2, .L23
	movs	r3, #0
	strb	r3, [r2]
	.loc 1 888 5 is_stmt 1 view .LVU105
	.loc 1 888 22 is_stmt 0 view .LVU106
	ldr	r2, .L23+4
	strb	r3, [r2]
	.loc 1 890 5 is_stmt 1 view .LVU107
	.loc 1 890 27 is_stmt 0 view .LVU108
	movs	r3, #1
	str	r3, [sp, #4]
	.loc 1 894 5 is_stmt 1 view .LVU109
	ldr	r3, .L23+8
	add	r0, sp, #4
	ldr	r3, [r3]
	blx	r3
.LVL20:
	.loc 1 895 1 is_stmt 0 view .LVU110
	add	sp, sp, #12
	.cfi_def_cfa_offset 4
	@ sp needed
	ldr	pc, [sp], #4
.L24:
	.align	2
.L23:
	.word	m_bus_suspend
	.word	m_last_setup_dir
	.word	m_event_handler
	.cfi_endproc
.LFE805:
	.size	ev_usbreset_handler, .-ev_usbreset_handler
	.section	.text.ev_started_handler,"ax",%progbits
	.align	1
	.syntax unified
	.thumb
	.thumb_func
	.type	ev_started_handler, %function
ev_started_handler:
.LFB806:
	.loc 1 898 1 is_stmt 1 view -0
	.cfi_startproc
	@ args = 0, pretend = 0, frame = 0
	@ frame_needed = 0, uses_anonymous_args = 0
	@ link register save eliminated.
	.loc 1 903 1 view .LVU112
	bx	lr
	.cfi_endproc
.LFE806:
	.size	ev_started_handler, .-ev_started_handler
	.section	.text.ev_usbevent_handler,"ax",%progbits
	.align	1
	.syntax unified
	.thumb
	.thumb_func
	.type	ev_usbevent_handler, %function
ev_usbevent_handler:
.LFB835:
	.loc 1 1236 1 view -0
	.cfi_startproc
	@ args = 0, pretend = 0, frame = 8
	@ frame_needed = 0, uses_anonymous_args = 0
	.loc 1 1237 5 view .LVU114
.LVL21:
.LBB525:
.LBI525:
	.file 3 "/home/g/mise-work/zmk-firmware/zmk/modules/hal/nordic/nrfx/hal/nrf_usbd.h"
	.loc 3 1115 24 view .LVU115
.LBB526:
	.loc 3 1117 5 view .LVU116
	.loc 3 1118 5 view .LVU117
.LBB527:
.LBI527:
	.loc 3 1104 24 view .LVU118
.LBB528:
	.loc 3 1106 5 view .LVU119
.LBE528:
.LBE527:
.LBE526:
.LBE525:
	.loc 1 1236 1 is_stmt 0 view .LVU120
	push	{r0, r1, r4, lr}
	.cfi_def_cfa_offset 16
	.cfi_offset 4, -8
	.cfi_offset 14, -4
.LBB537:
.LBB535:
.LBB530:
.LBB529:
	.loc 3 1106 17 view .LVU121
	ldr	r3, .L42
	ldr	r4, [r3, #1024]
.LVL22:
	.loc 3 1106 17 view .LVU122
.LBE529:
.LBE530:
	.loc 3 1119 5 is_stmt 1 view .LVU123
.LBB531:
.LBI531:
	.loc 3 1109 20 view .LVU124
.LBB532:
	.loc 3 1111 5 view .LVU125
	.loc 3 1111 23 is_stmt 0 view .LVU126
	str	r4, [r3, #1024]
	.loc 3 1112 5 is_stmt 1 view .LVU127
.LBE532:
.LBE531:
.LBE535:
.LBE537:
	.loc 1 1244 8 is_stmt 0 view .LVU128
	lsls	r1, r4, #23
.LBB538:
.LBB536:
.LBB534:
.LBB533:
	.loc 3 1112 5 view .LVU129
	ldr	r3, [r3, #1024]
.LVL23:
	.loc 3 1112 5 view .LVU130
.LBE533:
.LBE534:
	.loc 3 1120 5 is_stmt 1 view .LVU131
	.loc 3 1120 5 is_stmt 0 view .LVU132
.LBE536:
.LBE538:
	.loc 1 1239 5 is_stmt 1 view .LVU133
	.loc 1 1241 12 view .LVU134
	.loc 1 1244 5 view .LVU135
	.loc 1 1244 8 is_stmt 0 view .LVU136
	bpl	.L27
.LBB539:
	.loc 1 1246 9 is_stmt 1 discriminator 285 view .LVU137
.LBB540:
	.loc 1 1246 14 discriminator 285 view .LVU138
.LBE540:
	.loc 1 1246 12 discriminator 285 view .LVU139
	.loc 1 1247 9 discriminator 285 view .LVU140
	.loc 1 1247 23 is_stmt 0 discriminator 285 view .LVU141
	ldr	r3, .L42+4
	movs	r2, #1
	strb	r2, [r3]
	.loc 1 1248 9 is_stmt 1 discriminator 285 view .LVU142
	.loc 1 1248 31 is_stmt 0 discriminator 285 view .LVU143
	movs	r3, #2
	str	r3, [sp, #4]
	.loc 1 1251 9 is_stmt 1 discriminator 285 view .LVU144
	ldr	r3, .L42+8
	add	r0, sp, #4
	ldr	r3, [r3]
	blx	r3
.LVL24:
.L27:
.LBE539:
	.loc 1 1253 5 view .LVU145
	.loc 1 1253 8 is_stmt 0 view .LVU146
	lsls	r2, r4, #22
	bpl	.L28
.LBB541:
	.loc 1 1255 9 is_stmt 1 discriminator 285 view .LVU147
.LBB542:
	.loc 1 1255 14 discriminator 285 view .LVU148
.LBE542:
	.loc 1 1255 12 discriminator 285 view .LVU149
	.loc 1 1256 9 discriminator 285 view .LVU150
	.loc 1 1256 23 is_stmt 0 discriminator 285 view .LVU151
	ldr	r3, .L42+4
	movs	r2, #0
	strb	r2, [r3]
	.loc 1 1257 9 is_stmt 1 discriminator 285 view .LVU152
	.loc 1 1257 31 is_stmt 0 discriminator 285 view .LVU153
	movs	r3, #3
	str	r3, [sp, #4]
	.loc 1 1260 9 is_stmt 1 discriminator 285 view .LVU154
	ldr	r3, .L42+8
	add	r0, sp, #4
	ldr	r3, [r3]
	blx	r3
.LVL25:
.L28:
.LBE541:
	.loc 1 1262 5 view .LVU155
	.loc 1 1262 8 is_stmt 0 view .LVU156
	lsls	r3, r4, #21
	bpl	.L26
	.loc 1 1264 9 is_stmt 1 discriminator 347 view .LVU157
.LBB543:
	.loc 1 1264 14 discriminator 347 view .LVU158
.LBE543:
	.loc 1 1264 12 discriminator 347 view .LVU159
	.loc 1 1265 9 discriminator 347 view .LVU160
	.loc 1 1265 13 is_stmt 0 discriminator 347 view .LVU161
	ldr	r3, .L42+4
	ldrb	r2, [r3]	@ zero_extendqisi2
	.loc 1 1265 12 discriminator 347 view .LVU162
	cbz	r2, .L26
.LBB544:
	.loc 1 1267 15 is_stmt 1 view .LVU163
	.loc 1 1267 16 view .LVU164
	.loc 1 1268 13 view .LVU165
	.loc 1 1268 27 is_stmt 0 view .LVU166
	movs	r2, #0
	strb	r2, [r3]
	.loc 1 1270 13 is_stmt 1 view .LVU167
.LVL26:
.LBB545:
.LBI545:
	.loc 3 1268 20 view .LVU168
.LBB546:
	.loc 3 1270 5 view .LVU169
	.loc 3 1270 22 is_stmt 0 view .LVU170
	ldr	r3, .L42
	movs	r2, #1
	str	r2, [r3, #1288]
.LVL27:
	.loc 3 1270 22 view .LVU171
.LBE546:
.LBE545:
	.loc 1 1271 13 is_stmt 1 view .LVU172
.LBB547:
.LBI547:
	.loc 3 322 20 view .LVU173
.LBB548:
	.loc 3 324 5 view .LVU174
	.loc 3 324 50 is_stmt 0 view .LVU175
	str	r2, [r3, #88]
	.loc 3 325 5 is_stmt 1 view .LVU176
	ldr	r3, [r3, #88]
.LVL28:
	.loc 3 325 5 is_stmt 0 view .LVU177
.LBE548:
.LBE547:
	.loc 1 1273 13 is_stmt 1 view .LVU178
	.loc 1 1273 35 is_stmt 0 view .LVU179
	movs	r3, #4
	str	r3, [sp, #4]
	.loc 1 1276 13 is_stmt 1 view .LVU180
	ldr	r3, .L42+8
	add	r0, sp, #4
	ldr	r3, [r3]
	blx	r3
.LVL29:
.L26:
.LBE544:
	.loc 1 1279 1 is_stmt 0 view .LVU181
	add	sp, sp, #8
	.cfi_def_cfa_offset 8
	@ sp needed
	pop	{r4, pc}
.LVL30:
.L43:
	.loc 1 1279 1 view .LVU182
	.align	2
.L42:
	.word	1073901568
	.word	m_bus_suspend
	.word	m_event_handler
	.cfi_endproc
.LFE835:
	.size	ev_usbevent_handler, .-ev_usbevent_handler
	.section	.text.usbd_errata_187_211_begin,"ax",%progbits
	.align	1
	.syntax unified
	.thumb
	.thumb_func
	.type	usbd_errata_187_211_begin, %function
usbd_errata_187_211_begin:
.LFB843:
	.loc 1 1523 1 is_stmt 1 view -0
	.cfi_startproc
	@ args = 0, pretend = 0, frame = 0
	@ frame_needed = 0, uses_anonymous_args = 0
	@ link register save eliminated.
.LBB549:
	.loc 1 1524 7 view .LVU184
.LBB550:
.LBI550:
	.file 4 "/home/g/mise-work/zmk-firmware/zmk/zephyr/include/zephyr/arch/arm/asm_inline_gcc.h"
	.loc 4 42 59 view .LVU185
.LBB551:
	.loc 4 44 2 view .LVU186
	.loc 4 57 2 view .LVU187
	.loc 4 59 2 view .LVU188
	.syntax unified
@ 59 "/home/g/mise-work/zmk-firmware/zmk/zephyr/include/zephyr/arch/arm/asm_inline_gcc.h" 1
	mov r3, #32;mrs r0, BASEPRI;msr BASEPRI_MAX, r3;isb;
@ 0 "" 2
.LVL31:
	.loc 4 88 2 view .LVU189
	.loc 4 88 2 is_stmt 0 view .LVU190
	.thumb
	.syntax unified
.LBE551:
.LBE550:
	.loc 1 1524 51 is_stmt 1 view .LVU191
	.loc 1 1525 5 view .LVU192
	.loc 1 1525 9 is_stmt 0 view .LVU193
	ldr	r3, .L47
	ldr	r1, [r3, #3072]
	movs	r2, #3
	.loc 1 1525 8 view .LVU194
	cbnz	r1, .L45
	.loc 1 1527 9 is_stmt 1 view .LVU195
	.loc 1 1527 46 is_stmt 0 view .LVU196
	movw	r1, #37749
	str	r1, [r3, #3072]
	.loc 1 1528 9 is_stmt 1 view .LVU197
	.loc 1 1528 46 is_stmt 0 view .LVU198
	str	r2, [r3, #3348]
	.loc 1 1529 9 is_stmt 1 view .LVU199
	.loc 1 1529 46 is_stmt 0 view .LVU200
	str	r1, [r3, #3072]
.L46:
	.loc 1 1535 5 is_stmt 1 view .LVU201
.LVL32:
.LBB552:
.LBI552:
	.loc 4 96 51 view .LVU202
.LBB553:
	.loc 4 107 2 view .LVU203
	.syntax unified
@ 107 "/home/g/mise-work/zmk-firmware/zmk/zephyr/include/zephyr/arch/arm/asm_inline_gcc.h" 1
	msr BASEPRI, r0;isb;
@ 0 "" 2
.LVL33:
	.loc 4 107 2 is_stmt 0 view .LVU204
	.thumb
	.syntax unified
.LBE553:
.LBE552:
.LBE549:
	.loc 1 1535 37 is_stmt 1 view .LVU205
	.loc 1 1536 1 is_stmt 0 view .LVU206
	bx	lr
.L45:
.LBB554:
	.loc 1 1533 9 is_stmt 1 view .LVU207
	.loc 1 1533 46 is_stmt 0 view .LVU208
	str	r2, [r3, #3348]
	b	.L46
.L48:
	.align	2
.L47:
	.word	1074192384
.LBE554:
	.cfi_endproc
.LFE843:
	.size	usbd_errata_187_211_begin, .-usbd_errata_187_211_begin
	.section	.text.usbd_errata_187_211_end,"ax",%progbits
	.align	1
	.syntax unified
	.thumb
	.thumb_func
	.type	usbd_errata_187_211_end, %function
usbd_errata_187_211_end:
.LFB844:
	.loc 1 1542 1 is_stmt 1 view -0
	.cfi_startproc
	@ args = 0, pretend = 0, frame = 0
	@ frame_needed = 0, uses_anonymous_args = 0
	@ link register save eliminated.
.LBB555:
	.loc 1 1543 7 view .LVU210
.LBB556:
.LBI556:
	.loc 4 42 59 view .LVU211
.LBB557:
	.loc 4 44 2 view .LVU212
	.loc 4 57 2 view .LVU213
	.loc 4 59 2 view .LVU214
	.syntax unified
@ 59 "/home/g/mise-work/zmk-firmware/zmk/zephyr/include/zephyr/arch/arm/asm_inline_gcc.h" 1
	mov r3, #32;mrs r0, BASEPRI;msr BASEPRI_MAX, r3;isb;
@ 0 "" 2
.LVL34:
	.loc 4 88 2 view .LVU215
	.loc 4 88 2 is_stmt 0 view .LVU216
	.thumb
	.syntax unified
.LBE557:
.LBE556:
	.loc 1 1543 51 is_stmt 1 view .LVU217
	.loc 1 1544 5 view .LVU218
	.loc 1 1544 9 is_stmt 0 view .LVU219
	ldr	r3, .L52
	ldr	r1, [r3, #3072]
	.loc 1 1544 8 view .LVU220
	cbnz	r1, .L50
	.loc 1 1546 9 is_stmt 1 view .LVU221
	.loc 1 1546 46 is_stmt 0 view .LVU222
	movw	r2, #37749
	str	r2, [r3, #3072]
	.loc 1 1547 9 is_stmt 1 view .LVU223
	.loc 1 1547 46 is_stmt 0 view .LVU224
	str	r1, [r3, #3348]
	.loc 1 1548 9 is_stmt 1 view .LVU225
	.loc 1 1548 46 is_stmt 0 view .LVU226
	str	r2, [r3, #3072]
.L51:
	.loc 1 1554 5 is_stmt 1 view .LVU227
.LVL35:
.LBB558:
.LBI558:
	.loc 4 96 51 view .LVU228
.LBB559:
	.loc 4 107 2 view .LVU229
	.syntax unified
@ 107 "/home/g/mise-work/zmk-firmware/zmk/zephyr/include/zephyr/arch/arm/asm_inline_gcc.h" 1
	msr BASEPRI, r0;isb;
@ 0 "" 2
.LVL36:
	.loc 4 107 2 is_stmt 0 view .LVU230
	.thumb
	.syntax unified
.LBE559:
.LBE558:
.LBE555:
	.loc 1 1554 37 is_stmt 1 view .LVU231
	.loc 1 1555 1 is_stmt 0 view .LVU232
	bx	lr
.L50:
.LBB560:
	.loc 1 1552 9 is_stmt 1 view .LVU233
	.loc 1 1552 46 is_stmt 0 view .LVU234
	movs	r2, #0
	str	r2, [r3, #3348]
	b	.L51
.L53:
	.align	2
.L52:
	.word	1074192384
.LBE560:
	.cfi_endproc
.LFE844:
	.size	usbd_errata_187_211_end, .-usbd_errata_187_211_end
	.section	.text.nrfx_usbd_feeder_flash,"ax",%progbits
	.align	1
	.global	nrfx_usbd_feeder_flash
	.syntax unified
	.thumb
	.thumb_func
	.type	nrfx_usbd_feeder_flash, %function
nrfx_usbd_feeder_flash:
.LVL37:
.LFB789:
	.loc 1 564 1 is_stmt 1 view -0
	.cfi_startproc
	@ args = 0, pretend = 0, frame = 0
	@ frame_needed = 0, uses_anonymous_args = 0
	.loc 1 565 5 view .LVU236
	.loc 1 566 7 view .LVU237
	.loc 1 566 8 view .LVU238
	.loc 1 568 5 view .LVU239
	.loc 1 569 5 view .LVU240
.LBB561:
.LBI561:
	.loc 1 2220 8 view .LVU241
	.loc 1 2222 5 view .LVU242
	.loc 1 2222 5 is_stmt 0 view .LVU243
.LBE561:
	.loc 1 571 5 is_stmt 1 view .LVU244
	.loc 1 564 1 is_stmt 0 view .LVU245
	push	{r3, r4, r5, r6, r7, lr}
	.cfi_def_cfa_offset 24
	.cfi_offset 3, -24
	.cfi_offset 4, -20
	.cfi_offset 5, -16
	.cfi_offset 6, -12
	.cfi_offset 7, -8
	.cfi_offset 14, -4
	ldr	r3, [r1, #4]
	.loc 1 577 26 view .LVU246
	ldr	r7, .L55
	cmp	r2, r3
	it	cs
	movcs	r2, r3
.LVL38:
	.loc 1 564 1 view .LVU247
	mov	r4, r1
	mov	r5, r2
.LVL39:
	.loc 1 576 7 is_stmt 1 view .LVU248
	.loc 1 576 8 view .LVU249
	.loc 1 577 4 view .LVU250
	.loc 1 564 1 is_stmt 0 view .LVU251
	mov	r6, r0
	.loc 1 577 26 view .LVU252
	ldr	r1, [r1]
.LVL40:
	.loc 1 577 26 view .LVU253
	movs	r3, #64
	mov	r0, r7
.LVL41:
	.loc 1 577 26 view .LVU254
	bl	__memcpy_chk
.LVL42:
	.loc 1 579 5 is_stmt 1 view .LVU255
	.loc 1 580 18 is_stmt 0 view .LVU256
	strd	r7, r5, [r6]
	.loc 1 582 5 is_stmt 1 view .LVU257
	.loc 1 582 22 is_stmt 0 view .LVU258
	ldr	r0, [r4, #4]
	.loc 1 583 29 view .LVU259
	ldr	r3, [r4]
	.loc 1 582 22 view .LVU260
	subs	r0, r0, r5
	.loc 1 583 29 view .LVU261
	add	r3, r3, r5
	.loc 1 582 22 view .LVU262
	str	r0, [r4, #4]
	.loc 1 583 5 is_stmt 1 view .LVU263
	.loc 1 583 29 is_stmt 0 view .LVU264
	str	r3, [r4]
	.loc 1 585 5 is_stmt 1 view .LVU265
	.loc 1 586 1 is_stmt 0 view .LVU266
	subs	r0, r0, #0
	it	ne
	movne	r0, #1
	pop	{r3, r4, r5, r6, r7, pc}
.LVL43:
.L56:
	.loc 1 586 1 view .LVU267
	.align	2
.L55:
	.word	m_tx_buffer
	.cfi_endproc
.LFE789:
	.size	nrfx_usbd_feeder_flash, .-nrfx_usbd_feeder_flash
	.section	.text.nrfx_usbd_feeder_flash_zlp,"ax",%progbits
	.align	1
	.global	nrfx_usbd_feeder_flash_zlp
	.syntax unified
	.thumb
	.thumb_func
	.type	nrfx_usbd_feeder_flash_zlp, %function
nrfx_usbd_feeder_flash_zlp:
.LVL44:
.LFB790:
	.loc 1 599 1 is_stmt 1 view -0
	.cfi_startproc
	@ args = 0, pretend = 0, frame = 0
	@ frame_needed = 0, uses_anonymous_args = 0
	.loc 1 600 5 view .LVU269
	.loc 1 601 7 view .LVU270
	.loc 1 601 8 view .LVU271
	.loc 1 603 5 view .LVU272
	.loc 1 604 5 view .LVU273
.LBB562:
.LBI562:
	.loc 1 2220 8 view .LVU274
	.loc 1 2222 5 view .LVU275
	.loc 1 2222 5 is_stmt 0 view .LVU276
.LBE562:
	.loc 1 606 5 is_stmt 1 view .LVU277
	.loc 1 599 1 is_stmt 0 view .LVU278
	push	{r4, r5, r6, lr}
	.cfi_def_cfa_offset 16
	.cfi_offset 4, -16
	.cfi_offset 5, -12
	.cfi_offset 6, -8
	.cfi_offset 14, -4
	ldr	r3, [r1, #4]
	cmp	r2, r3
	it	cs
	movcs	r2, r3
.LVL45:
	.loc 1 599 1 view .LVU279
	mov	r6, r0
	mov	r5, r1
	mov	r4, r2
.LVL46:
	.loc 1 611 7 is_stmt 1 view .LVU280
	.loc 1 611 8 view .LVU281
	.loc 1 613 5 view .LVU282
	.loc 1 613 8 is_stmt 0 view .LVU283
	cbz	r2, .L59
	.loc 1 615 8 is_stmt 1 discriminator 1 view .LVU284
	.loc 1 615 30 is_stmt 0 discriminator 1 view .LVU285
	movs	r3, #64
	ldr	r1, [r1]
.LVL47:
	.loc 1 615 30 discriminator 1 view .LVU286
	ldr	r0, .L60
.LVL48:
	.loc 1 615 30 discriminator 1 view .LVU287
	bl	__memcpy_chk
.LVL49:
	.loc 1 616 9 is_stmt 1 discriminator 1 view .LVU288
	ldr	r3, .L60
.L58:
	.loc 1 622 18 is_stmt 0 view .LVU289
	strd	r3, r4, [r6]
	.loc 1 624 5 is_stmt 1 view .LVU290
	.loc 1 624 22 is_stmt 0 view .LVU291
	ldr	r3, [r5, #4]
	subs	r3, r3, r4
	str	r3, [r5, #4]
	.loc 1 625 5 is_stmt 1 view .LVU292
	.loc 1 625 29 is_stmt 0 view .LVU293
	ldr	r3, [r5]
	add	r3, r3, r4
	.loc 1 628 1 view .LVU294
	subs	r0, r4, #0
	.loc 1 625 29 view .LVU295
	str	r3, [r5]
	.loc 1 627 5 is_stmt 1 view .LVU296
	.loc 1 628 1 is_stmt 0 view .LVU297
	it	ne
	movne	r0, #1
	pop	{r4, r5, r6, pc}
.LVL50:
.L59:
	.loc 1 628 1 view .LVU298
	mov	r3, r2
	b	.L58
.L61:
	.align	2
.L60:
	.word	m_tx_buffer
	.cfi_endproc
.LFE790:
	.size	nrfx_usbd_feeder_flash_zlp, .-nrfx_usbd_feeder_flash_zlp
	.section	.text.ev_sof_handler,"ax",%progbits
	.align	1
	.syntax unified
	.thumb
	.thumb_func
	.type	ev_sof_handler, %function
ev_sof_handler:
.LFB831:
	.loc 1 1123 1 is_stmt 1 view -0
	.cfi_startproc
	@ args = 0, pretend = 0, frame = 8
	@ frame_needed = 0, uses_anonymous_args = 0
	.loc 1 1124 5 view .LVU300
	.loc 1 1123 1 is_stmt 0 view .LVU301
	push	{r0, r1, r2, lr}
	.cfi_def_cfa_offset 16
	.cfi_offset 14, -4
	.loc 1 1124 21 view .LVU302
	movs	r3, #0
	strb	r3, [sp, #4]
.LVL51:
.LBB567:
.LBI567:
	.loc 3 1373 24 is_stmt 1 view .LVU303
.LBB568:
	.loc 3 1375 5 view .LVU304
	.loc 3 1375 17 is_stmt 0 view .LVU305
	ldr	r3, .L65
	ldr	r2, [r3, #1312]
.LVL52:
	.loc 3 1375 17 view .LVU306
.LBE568:
.LBE567:
	.loc 1 1126 44 view .LVU307
	strh	r2, [sp, #6]	@ movhi
	.loc 1 1130 5 is_stmt 1 view .LVU308
.LVL53:
	.loc 1 1131 5 view .LVU309
.LBB569:
.LBI569:
	.loc 3 1225 22 view .LVU310
.LBB570:
	.loc 3 1227 7 view .LVU311
	.loc 3 1227 8 view .LVU312
	.loc 3 1228 7 view .LVU313
	.loc 3 1228 8 view .LVU314
	.loc 3 1229 7 view .LVU315
	.loc 3 1229 8 view .LVU316
	.loc 3 1231 5 view .LVU317
	.loc 3 1231 12 is_stmt 0 view .LVU318
	ldr	r3, [r3, #1216]
.LVL54:
	.loc 3 1232 5 is_stmt 1 view .LVU319
.LBE570:
.LBE569:
	.loc 1 1135 16 is_stmt 0 view .LVU320
	ldr	r2, .L65+4
	.loc 1 1130 14 view .LVU321
	cmp	r3, #0
	.loc 1 1135 16 view .LVU322
	ldr	r3, [r2]
.LVL55:
	.loc 1 1130 14 view .LVU323
	ite	ne
	movne	r1, #16777472
	moveq	r1, #256
.LVL56:
	.loc 1 1135 5 is_stmt 1 view .LVU324
	.loc 1 1135 16 is_stmt 0 view .LVU325
	orrs	r3, r3, r1
	str	r3, [r2]
	.loc 1 1137 5 is_stmt 1 view .LVU326
	ldr	r3, .L65+8
	add	r0, sp, #4
	ldr	r3, [r3]
	blx	r3
.LVL57:
	.loc 1 1138 1 is_stmt 0 view .LVU327
	add	sp, sp, #12
	.cfi_def_cfa_offset 4
	@ sp needed
	ldr	pc, [sp], #4
.L66:
	.align	2
.L65:
	.word	1073901568
	.word	m_ep_ready
	.word	m_event_handler
	.cfi_endproc
.LFE831:
	.size	ev_sof_handler, .-ev_sof_handler
	.section	.text.atomic_and.constprop.0.isra.0,"ax",%progbits
	.align	1
	.syntax unified
	.thumb
	.thumb_func
	.type	atomic_and.constprop.0.isra.0, %function
atomic_and.constprop.0.isra.0:
.LVL58:
.LFB897:
	.file 5 "/home/g/mise-work/zmk-firmware/zmk/zephyr/include/zephyr/sys/atomic_builtin.h"
	.loc 5 319 28 is_stmt 1 view -0
	.cfi_startproc
	@ args = 0, pretend = 0, frame = 0
	@ frame_needed = 0, uses_anonymous_args = 0
	@ link register save eliminated.
	.loc 5 321 2 view .LVU329
	.loc 5 321 9 is_stmt 0 view .LVU330
	ldr	r3, .L69
	dmb	ish
.L68:
	ldrex	r1, [r3]
	ands	r1, r1, r0
	strex	r2, r1, [r3]
	cmp	r2, #0
	bne	.L68
	dmb	ish
	.loc 5 322 1 view .LVU331
	bx	lr
.L70:
	.align	2
.L69:
	.word	m_ep_dma_waiting
	.cfi_endproc
.LFE897:
	.size	atomic_and.constprop.0.isra.0, .-atomic_and.constprop.0.isra.0
	.section	.text.usbd_dma_pending_clear,"ax",%progbits
	.align	1
	.syntax unified
	.thumb
	.thumb_func
	.type	usbd_dma_pending_clear, %function
usbd_dma_pending_clear:
.LFB797:
	.loc 1 733 1 is_stmt 1 view -0
	.cfi_startproc
	@ args = 0, pretend = 0, frame = 0
	@ frame_needed = 0, uses_anonymous_args = 0
	@ link register save eliminated.
	.loc 1 734 5 view .LVU333
.LBB575:
.LBI575:
	.file 6 "/home/g/mise-work/zmk-firmware/zmk/modules/hal/nordic/nrfx/drivers/src/nrfx_usbd_errata.h"
	.loc 6 68 19 view .LVU334
	.loc 6 70 5 view .LVU335
.LBB576:
.LBI576:
	.loc 2 8052 12 view .LVU336
.LBB577:
	.loc 2 8058 13 view .LVU337
.LVL59:
	.loc 2 8059 13 view .LVU338
	.loc 2 8062 13 view .LVU339
	.loc 2 8058 22 is_stmt 0 view .LVU340
	mov	r3, #268435456
	.loc 2 8062 16 view .LVU341
	ldr	r3, [r3, #304]
	cmp	r3, #8
	.loc 2 8064 17 is_stmt 1 view .LVU342
	.loc 2 8079 25 view .LVU343
.LVL60:
	.loc 2 8079 25 is_stmt 0 view .LVU344
.LBE577:
.LBE576:
.LBE575:
	.loc 1 736 9 is_stmt 1 view .LVU345
	.loc 1 736 44 is_stmt 0 view .LVU346
	ittt	eq
	ldreq	r3, .L73
	moveq	r2, #0
	streq	r2, [r3, #3100]
	.loc 1 738 5 is_stmt 1 view .LVU347
	.loc 1 738 19 is_stmt 0 view .LVU348
	ldr	r3, .L73+4
	movs	r2, #0
	strb	r2, [r3]
.LVL61:
	.loc 1 739 1 view .LVU349
	bx	lr
.L74:
	.align	2
.L73:
	.word	1073901568
	.word	m_dma_pending
	.cfi_endproc
.LFE797:
	.size	usbd_dma_pending_clear, .-usbd_dma_pending_clear
	.section	.text.nrf_usbd_epin_dma_handler,"ax",%progbits
	.align	1
	.syntax unified
	.thumb
	.thumb_func
	.type	nrf_usbd_epin_dma_handler, %function
nrf_usbd_epin_dma_handler:
.LVL62:
.LFB808:
	.loc 1 946 1 is_stmt 1 view -0
	.cfi_startproc
	@ args = 0, pretend = 0, frame = 0
	@ frame_needed = 0, uses_anonymous_args = 0
	.loc 1 947 5 view .LVU351
.LBB588:
	.loc 1 947 10 view .LVU352
.LBE588:
	.loc 1 947 8 view .LVU353
	.loc 1 948 7 view .LVU354
	.loc 1 948 8 view .LVU355
	.loc 1 949 7 view .LVU356
	.loc 1 949 8 view .LVU357
	.loc 1 950 7 view .LVU358
	.loc 1 950 8 view .LVU359
	.loc 1 951 5 view .LVU360
	.loc 1 946 1 is_stmt 0 view .LVU361
	push	{r3, lr}
	.cfi_def_cfa_offset 8
	.cfi_offset 3, -8
	.cfi_offset 14, -4
	.loc 1 951 5 view .LVU362
	bl	usbd_dma_pending_clear
.LVL63:
	.loc 1 953 5 is_stmt 1 view .LVU363
	.loc 1 946 1 is_stmt 0 view .LVU364
	mov	r1, r0
	.loc 1 953 33 view .LVU365
	bl	ep_state_access
.LVL64:
	.loc 1 954 5 is_stmt 1 view .LVU366
	.loc 1 954 8 is_stmt 0 view .LVU367
	ldrb	r3, [r0, #14]	@ zero_extendqisi2
	cmp	r3, #3
	bne	.L76
.L77:
	.loc 1 957 9 is_stmt 1 view .LVU368
	.loc 1 957 54 is_stmt 0 view .LVU369
	mov	r0, r1
.LVL65:
	.loc 1 957 54 view .LVU370
	bl	ep2bit
.LVL66:
	.loc 1 957 51 view .LVU371
	movs	r3, #1
	lsl	r0, r3, r0
	.loc 1 957 16 view .LVU372
	mvns	r0, r0
	.loc 1 967 1 view .LVU373
	pop	{r3, lr}
	.cfi_remember_state
	.cfi_restore 14
	.cfi_restore 3
	.cfi_def_cfa_offset 0
	.loc 1 957 16 view .LVU374
	b	atomic_and.constprop.0.isra.0
.LVL67:
.L76:
	.cfi_restore_state
	.loc 1 959 10 is_stmt 1 view .LVU375
	.loc 1 959 13 is_stmt 0 view .LVU376
	ldr	r3, [r0]
	cmp	r3, #0
	beq	.L77
	.loc 1 967 1 view .LVU377
	pop	{r3, pc}
	.cfi_endproc
.LFE808:
	.size	nrf_usbd_epin_dma_handler, .-nrf_usbd_epin_dma_handler
	.section	.text.ev_dma_epin7_handler,"ax",%progbits
	.align	1
	.syntax unified
	.thumb
	.thumb_func
	.type	ev_dma_epin7_handler, %function
ev_dma_epin7_handler:
.LFB820:
	.loc 1 1109 40 is_stmt 1 view -0
	.cfi_startproc
	@ args = 0, pretend = 0, frame = 0
	@ frame_needed = 0, uses_anonymous_args = 0
	@ link register save eliminated.
	.loc 1 1109 42 view .LVU379
	movs	r0, #135
	b	nrf_usbd_epin_dma_handler
.LVL68:
	.cfi_endproc
.LFE820:
	.size	ev_dma_epin7_handler, .-ev_dma_epin7_handler
	.section	.text.ev_dma_epin6_handler,"ax",%progbits
	.align	1
	.syntax unified
	.thumb
	.thumb_func
	.type	ev_dma_epin6_handler, %function
ev_dma_epin6_handler:
.LFB819:
	.loc 1 1108 40 view -0
	.cfi_startproc
	@ args = 0, pretend = 0, frame = 0
	@ frame_needed = 0, uses_anonymous_args = 0
	@ link register save eliminated.
	.loc 1 1108 42 view .LVU381
	movs	r0, #134
	b	nrf_usbd_epin_dma_handler
.LVL69:
	.cfi_endproc
.LFE819:
	.size	ev_dma_epin6_handler, .-ev_dma_epin6_handler
	.section	.text.ev_dma_epin5_handler,"ax",%progbits
	.align	1
	.syntax unified
	.thumb
	.thumb_func
	.type	ev_dma_epin5_handler, %function
ev_dma_epin5_handler:
.LFB818:
	.loc 1 1107 40 view -0
	.cfi_startproc
	@ args = 0, pretend = 0, frame = 0
	@ frame_needed = 0, uses_anonymous_args = 0
	@ link register save eliminated.
	.loc 1 1107 42 view .LVU383
	movs	r0, #133
	b	nrf_usbd_epin_dma_handler
.LVL70:
	.cfi_endproc
.LFE818:
	.size	ev_dma_epin5_handler, .-ev_dma_epin5_handler
	.section	.text.ev_dma_epin4_handler,"ax",%progbits
	.align	1
	.syntax unified
	.thumb
	.thumb_func
	.type	ev_dma_epin4_handler, %function
ev_dma_epin4_handler:
.LFB817:
	.loc 1 1106 40 view -0
	.cfi_startproc
	@ args = 0, pretend = 0, frame = 0
	@ frame_needed = 0, uses_anonymous_args = 0
	@ link register save eliminated.
	.loc 1 1106 42 view .LVU385
	movs	r0, #132
	b	nrf_usbd_epin_dma_handler
.LVL71:
	.cfi_endproc
.LFE817:
	.size	ev_dma_epin4_handler, .-ev_dma_epin4_handler
	.section	.text.ev_dma_epin3_handler,"ax",%progbits
	.align	1
	.syntax unified
	.thumb
	.thumb_func
	.type	ev_dma_epin3_handler, %function
ev_dma_epin3_handler:
.LFB816:
	.loc 1 1105 40 view -0
	.cfi_startproc
	@ args = 0, pretend = 0, frame = 0
	@ frame_needed = 0, uses_anonymous_args = 0
	@ link register save eliminated.
	.loc 1 1105 42 view .LVU387
	movs	r0, #131
	b	nrf_usbd_epin_dma_handler
.LVL72:
	.cfi_endproc
.LFE816:
	.size	ev_dma_epin3_handler, .-ev_dma_epin3_handler
	.section	.text.ev_dma_epin2_handler,"ax",%progbits
	.align	1
	.syntax unified
	.thumb
	.thumb_func
	.type	ev_dma_epin2_handler, %function
ev_dma_epin2_handler:
.LFB815:
	.loc 1 1104 40 view -0
	.cfi_startproc
	@ args = 0, pretend = 0, frame = 0
	@ frame_needed = 0, uses_anonymous_args = 0
	@ link register save eliminated.
	.loc 1 1104 42 view .LVU389
	movs	r0, #130
	b	nrf_usbd_epin_dma_handler
.LVL73:
	.cfi_endproc
.LFE815:
	.size	ev_dma_epin2_handler, .-ev_dma_epin2_handler
	.section	.text.ev_dma_epin1_handler,"ax",%progbits
	.align	1
	.syntax unified
	.thumb
	.thumb_func
	.type	ev_dma_epin1_handler, %function
ev_dma_epin1_handler:
.LFB814:
	.loc 1 1103 40 view -0
	.cfi_startproc
	@ args = 0, pretend = 0, frame = 0
	@ frame_needed = 0, uses_anonymous_args = 0
	@ link register save eliminated.
	.loc 1 1103 42 view .LVU391
	movs	r0, #129
	b	nrf_usbd_epin_dma_handler
.LVL74:
	.cfi_endproc
.LFE814:
	.size	ev_dma_epin1_handler, .-ev_dma_epin1_handler
	.section	.text.nrf_usbd_ep0in_dma_handler,"ax",%progbits
	.align	1
	.syntax unified
	.thumb
	.thumb_func
	.type	nrf_usbd_ep0in_dma_handler, %function
nrf_usbd_ep0in_dma_handler:
.LFB807:
	.loc 1 915 1 view -0
	.cfi_startproc
	@ args = 0, pretend = 0, frame = 0
	@ frame_needed = 0, uses_anonymous_args = 0
	.loc 1 916 5 view .LVU393
.LVL75:
	.loc 1 917 5 view .LVU394
.LBB605:
	.loc 1 917 10 view .LVU395
.LBE605:
	.loc 1 917 8 view .LVU396
	.loc 1 918 5 view .LVU397
	.loc 1 915 1 is_stmt 0 view .LVU398
	push	{r3, lr}
	.cfi_def_cfa_offset 8
	.cfi_offset 3, -8
	.cfi_offset 14, -4
	.loc 1 918 5 view .LVU399
	bl	usbd_dma_pending_clear
.LVL76:
	.loc 1 920 5 is_stmt 1 view .LVU400
	.loc 1 921 5 view .LVU401
	.loc 1 921 40 is_stmt 0 view .LVU402
	ldr	r3, .L94
	.loc 1 921 8 view .LVU403
	ldrb	r2, [r3, #158]	@ zero_extendqisi2
	cmp	r2, #3
	bne	.L89
.L90:
	.loc 1 924 9 is_stmt 1 view .LVU404
	.loc 1 934 1 is_stmt 0 view .LVU405
	pop	{r3, lr}
	.cfi_remember_state
	.cfi_restore 14
	.cfi_restore 3
	.cfi_def_cfa_offset 0
	.loc 1 924 16 view .LVU406
	mvn	r0, #1
	b	atomic_and.constprop.0.isra.0
.LVL77:
.L89:
	.cfi_restore_state
	.loc 1 926 10 is_stmt 1 view .LVU407
	.loc 1 926 13 is_stmt 0 view .LVU408
	ldr	r3, [r3, #144]
	cmp	r3, #0
	beq	.L90
	.loc 1 934 1 view .LVU409
	pop	{r3, pc}
.L95:
	.align	2
.L94:
	.word	m_ep_state
	.cfi_endproc
.LFE807:
	.size	nrf_usbd_ep0in_dma_handler, .-nrf_usbd_ep0in_dma_handler
	.section	.text.usbd_ep_data_handler,"ax",%progbits
	.align	1
	.syntax unified
	.thumb
	.thumb_func
	.type	usbd_ep_data_handler, %function
usbd_ep_data_handler:
.LVL78:
.LFB832:
	.loc 1 1148 1 is_stmt 1 view -0
	.cfi_startproc
	@ args = 0, pretend = 0, frame = 8
	@ frame_needed = 0, uses_anonymous_args = 0
	.loc 1 1149 5 view .LVU411
.LBB636:
	.loc 1 1149 10 view .LVU412
.LBE636:
	.loc 1 1149 8 view .LVU413
	.loc 1 1151 5 view .LVU414
	.loc 1 1148 1 is_stmt 0 view .LVU415
	push	{r0, r1, r4, r5, r6, lr}
	.cfi_def_cfa_offset 24
	.cfi_offset 4, -16
	.cfi_offset 5, -12
	.cfi_offset 6, -8
	.cfi_offset 14, -4
	.loc 1 1151 23 view .LVU416
	movs	r2, #1
	lsl	r5, r2, r1
	.loc 1 1151 16 view .LVU417
	ldr	r1, .L107
.LVL79:
	.loc 1 1151 16 view .LVU418
	ldr	r6, .L107+4
	ldr	r3, [r1]
	.loc 1 1153 8 view .LVU419
	tst	r0, #128
	.loc 1 1151 16 view .LVU420
	orr	r3, r3, r5
	.loc 1 1148 1 view .LVU421
	mov	r4, r0
	.loc 1 1151 16 view .LVU422
	str	r3, [r1]
	.loc 1 1153 5 is_stmt 1 view .LVU423
	.loc 1 1153 8 is_stmt 0 view .LVU424
	beq	.L97
	.loc 1 1163 9 is_stmt 1 view .LVU425
.LVL80:
.LBB637:
.LBI637:
	.loc 1 366 32 view .LVU426
.LBB638:
	.loc 1 368 7 view .LVU427
	.loc 1 368 8 view .LVU428
	.loc 1 368 9 view .LVU429
	.loc 1 370 5 view .LVU430
	.loc 1 382 5 view .LVU431
	.loc 1 395 5 view .LVU432
	.loc 1 395 5 is_stmt 0 view .LVU433
.LBE638:
.LBE637:
.LBB640:
.LBI640:
	.loc 3 345 23 is_stmt 1 view .LVU434
.LBB641:
	.loc 3 347 4 view .LVU435
.LBB642:
.LBI642:
	.loc 3 340 23 view .LVU436
.LBB643:
	.loc 3 342 5 view .LVU437
.LBB644:
.LBI644:
	.loc 3 312 40 view .LVU438
.LBB645:
	.loc 3 315 5 view .LVU439
.LBE645:
.LBE644:
.LBE643:
.LBE642:
.LBE641:
.LBE640:
.LBB656:
.LBB639:
	.loc 1 395 89 is_stmt 0 view .LVU440
	and	r2, r0, #15
	.loc 1 395 87 view .LVU441
	ldr	r3, .L107+8
.LBE639:
.LBE656:
.LBB657:
.LBB654:
.LBB649:
.LBB648:
	.loc 3 342 18 view .LVU442
	ldrh	r3, [r3, r2, lsl #1]
.LBB647:
.LBB646:
	.loc 3 315 12 view .LVU443
	add	r3, r3, #1073741824
	add	r3, r3, #159744
.LVL81:
	.loc 3 315 12 view .LVU444
.LBE646:
.LBE647:
	.loc 3 342 17 view .LVU445
	ldr	r2, [r3]
.LVL82:
	.loc 3 342 17 view .LVU446
.LBE648:
.LBE649:
	.loc 3 348 5 is_stmt 1 view .LVU447
	.loc 3 348 8 is_stmt 0 view .LVU448
	cbz	r2, .L98
	.loc 3 350 9 is_stmt 1 view .LVU449
.LVL83:
.LBB650:
.LBI650:
	.loc 3 334 20 view .LVU450
.LBB651:
	.loc 3 336 5 view .LVU451
	.loc 3 336 51 is_stmt 0 view .LVU452
	movs	r2, #0
.LVL84:
	.loc 3 336 51 view .LVU453
	str	r2, [r3]
.LVL85:
	.loc 3 337 5 is_stmt 1 view .LVU454
.LBE651:
.LBE650:
.LBE654:
.LBE657:
	.loc 1 1165 16 is_stmt 0 view .LVU455
	cmp	r0, #128
.LBB658:
.LBB655:
.LBB653:
.LBB652:
	.loc 3 337 5 view .LVU456
	ldr	r3, [r3]
.LVL86:
	.loc 3 337 5 view .LVU457
.LBE652:
.LBE653:
	.loc 3 352 5 is_stmt 1 view .LVU458
	.loc 3 352 5 is_stmt 0 view .LVU459
.LBE655:
.LBE658:
	.loc 1 1165 13 is_stmt 1 view .LVU460
	.loc 1 1165 16 is_stmt 0 view .LVU461
	beq	.L99
	.loc 1 1167 17 is_stmt 1 view .LVU462
	bl	nrf_usbd_epin_dma_handler
.LVL87:
.L98:
	.loc 1 1175 9 view .LVU463
	.loc 1 1175 36 is_stmt 0 view .LVU464
	ldr	r3, [r6]
	.loc 1 1175 12 view .LVU465
	ands	r3, r5, r3
	bne	.L96
.LBB659:
	.loc 1 1177 13 is_stmt 1 discriminator 285 view .LVU466
.LBB660:
	.loc 1 1177 18 discriminator 285 view .LVU467
.LBE660:
	.loc 1 1177 16 discriminator 285 view .LVU468
	.loc 1 1179 13 discriminator 285 view .LVU469
	.loc 1 1179 35 is_stmt 0 discriminator 285 view .LVU470
	movs	r2, #6
	strb	r2, [sp, #4]
	strb	r4, [sp, #6]
	strb	r3, [sp, #7]
	.loc 1 1180 13 is_stmt 1 discriminator 285 view .LVU471
.LVL88:
.L106:
	.loc 1 1180 13 is_stmt 0 discriminator 285 view .LVU472
.LBE659:
.LBB661:
	.loc 1 1191 13 is_stmt 1 discriminator 285 view .LVU473
	ldr	r3, .L107+12
	add	r0, sp, #4
	ldr	r3, [r3]
	blx	r3
.LVL89:
.L96:
.LBE661:
	.loc 1 1194 1 is_stmt 0 view .LVU474
	add	sp, sp, #8
	.cfi_remember_state
	.cfi_def_cfa_offset 16
	@ sp needed
	pop	{r4, r5, r6, pc}
.LVL90:
.L99:
	.cfi_restore_state
	.loc 1 1171 17 is_stmt 1 view .LVU475
	bl	nrf_usbd_ep0in_dma_handler
.LVL91:
	.loc 1 1171 17 is_stmt 0 view .LVU476
	b	.L98
.LVL92:
.L97:
	.loc 1 1186 9 is_stmt 1 view .LVU477
	.loc 1 1186 36 is_stmt 0 view .LVU478
	ldr	r3, [r6]
	.loc 1 1186 12 view .LVU479
	tst	r5, r3
	bne	.L96
.LBB663:
	.loc 1 1188 13 is_stmt 1 discriminator 285 view .LVU480
.LBB662:
	.loc 1 1188 18 discriminator 285 view .LVU481
.LBE662:
	.loc 1 1188 16 discriminator 285 view .LVU482
	.loc 1 1190 13 discriminator 285 view .LVU483
	.loc 1 1190 35 is_stmt 0 discriminator 285 view .LVU484
	movs	r3, #6
	strb	r3, [sp, #4]
	strb	r0, [sp, #6]
	strb	r2, [sp, #7]
	b	.L106
.L108:
	.align	2
.L107:
	.word	m_ep_ready
	.word	m_ep_dma_waiting
	.word	epin_endev.3
	.word	m_event_handler
.LBE663:
	.cfi_endproc
.LFE832:
	.size	usbd_ep_data_handler, .-usbd_ep_data_handler
	.section	.text.ev_setup_data_handler,"ax",%progbits
	.align	1
	.syntax unified
	.thumb
	.thumb_func
	.type	ev_setup_data_handler, %function
ev_setup_data_handler:
.LFB833:
	.loc 1 1197 1 is_stmt 1 view -0
	.cfi_startproc
	@ args = 0, pretend = 0, frame = 0
	@ frame_needed = 0, uses_anonymous_args = 0
	.loc 1 1198 5 view .LVU486
	.loc 1 1197 1 is_stmt 0 view .LVU487
	push	{r3, lr}
	.cfi_def_cfa_offset 8
	.cfi_offset 3, -8
	.cfi_offset 14, -4
	.loc 1 1198 5 view .LVU488
	ldr	r3, .L110
	ldrb	r2, [r3]	@ zero_extendqisi2
	mov	r0, r2
	bl	ep2bit
.LVL93:
	.loc 1 1199 1 view .LVU489
	pop	{r3, lr}
	.cfi_restore 14
	.cfi_restore 3
	.cfi_def_cfa_offset 0
	.loc 1 1198 5 view .LVU490
	mov	r1, r0
	mov	r0, r2
	b	usbd_ep_data_handler
.LVL94:
.L111:
	.align	2
.L110:
	.word	m_last_setup_dir
	.cfi_endproc
.LFE833:
	.size	ev_setup_data_handler, .-ev_setup_data_handler
	.section	.text.ev_dma_epin0_handler,"ax",%progbits
	.align	1
	.syntax unified
	.thumb
	.thumb_func
	.type	ev_dma_epin0_handler, %function
ev_dma_epin0_handler:
.LFB813:
	.loc 1 1102 40 is_stmt 1 view -0
	.cfi_startproc
	@ args = 0, pretend = 0, frame = 0
	@ frame_needed = 0, uses_anonymous_args = 0
	@ link register save eliminated.
	.loc 1 1102 42 view .LVU492
	b	nrf_usbd_ep0in_dma_handler
.LVL95:
	.cfi_endproc
.LFE813:
	.size	ev_dma_epin0_handler, .-ev_dma_epin0_handler
	.section	.text.ev_dma_epout8_handler,"ax",%progbits
	.align	1
	.syntax unified
	.thumb
	.thumb_func
	.type	ev_dma_epout8_handler, %function
ev_dma_epout8_handler:
.LFB830:
	.loc 1 1120 41 view -0
	.cfi_startproc
	@ args = 0, pretend = 0, frame = 8
	@ frame_needed = 0, uses_anonymous_args = 0
	.loc 1 1120 43 view .LVU494
.LBB680:
.LBI680:
	.loc 1 1074 20 view .LVU495
.LVL96:
.LBB681:
	.loc 1 1076 5 view .LVU496
	.loc 1 1078 9 view .LVU497
.LBB682:
	.loc 1 1078 14 view .LVU498
.LBE682:
	.loc 1 1078 12 view .LVU499
	.loc 1 1080 7 view .LVU500
	.loc 1 1080 8 view .LVU501
	.loc 1 1081 5 view .LVU502
.LBE681:
.LBE680:
	.loc 1 1120 41 is_stmt 0 view .LVU503
	push	{r0, r1, r2, lr}
	.cfi_def_cfa_offset 16
	.cfi_offset 14, -4
.LBB685:
.LBB684:
	.loc 1 1081 5 view .LVU504
	bl	usbd_dma_pending_clear
.LVL97:
	.loc 1 1083 5 is_stmt 1 view .LVU505
	.loc 1 1084 5 view .LVU506
	.loc 1 1084 40 is_stmt 0 view .LVU507
	ldr	r3, .L118
	.loc 1 1084 8 view .LVU508
	ldrb	r2, [r3, #142]	@ zero_extendqisi2
	cmp	r2, #3
	beq	.L113
	.loc 1 1088 10 is_stmt 1 view .LVU509
	.loc 1 1088 13 is_stmt 0 view .LVU510
	ldr	r3, [r3, #128]
	cbnz	r3, .L113
.LBB683:
	.loc 1 1090 9 is_stmt 1 view .LVU511
	.loc 1 1090 16 is_stmt 0 view .LVU512
	mvn	r0, #16777216
	bl	atomic_and.constprop.0.isra.0
.LVL98:
	.loc 1 1092 9 is_stmt 1 view .LVU513
	.loc 1 1092 31 is_stmt 0 view .LVU514
	movs	r3, #6
	strb	r3, [sp, #4]
	movs	r3, #8
	strh	r3, [sp, #6]	@ movhi
	.loc 1 1093 9 is_stmt 1 view .LVU515
	ldr	r3, .L118+4
	add	r0, sp, #4
	ldr	r3, [r3]
	blx	r3
.LVL99:
.LBE683:
	.loc 1 1098 5 view .LVU516
.L113:
	.loc 1 1098 5 is_stmt 0 view .LVU517
.LBE684:
.LBE685:
	.loc 1 1120 92 view .LVU518
	add	sp, sp, #12
	.cfi_def_cfa_offset 4
	@ sp needed
	ldr	pc, [sp], #4
.L119:
	.align	2
.L118:
	.word	m_ep_state
	.word	m_event_handler
	.cfi_endproc
.LFE830:
	.size	ev_dma_epout8_handler, .-ev_dma_epout8_handler
	.section	.text.ev_dma_epin8_handler,"ax",%progbits
	.align	1
	.syntax unified
	.thumb
	.thumb_func
	.type	ev_dma_epin8_handler, %function
ev_dma_epin8_handler:
.LFB821:
	.loc 1 1110 40 is_stmt 1 view -0
	.cfi_startproc
	@ args = 0, pretend = 0, frame = 8
	@ frame_needed = 0, uses_anonymous_args = 0
	.loc 1 1110 42 view .LVU520
.LBB704:
.LBI704:
	.loc 1 972 20 view .LVU521
.LVL100:
.LBB705:
	.loc 1 974 5 view .LVU522
	.loc 1 976 9 view .LVU523
.LBB706:
	.loc 1 976 14 view .LVU524
.LBE706:
	.loc 1 976 12 view .LVU525
	.loc 1 978 7 view .LVU526
	.loc 1 978 8 view .LVU527
	.loc 1 979 7 view .LVU528
	.loc 1 979 8 view .LVU529
	.loc 1 980 5 view .LVU530
.LBE705:
.LBE704:
	.loc 1 1110 40 is_stmt 0 view .LVU531
	push	{r0, r1, r2, lr}
	.cfi_def_cfa_offset 16
	.cfi_offset 14, -4
.LBB710:
.LBB708:
	.loc 1 980 5 view .LVU532
	bl	usbd_dma_pending_clear
.LVL101:
	.loc 1 982 5 is_stmt 1 view .LVU533
	.loc 1 983 5 view .LVU534
	.loc 1 983 40 is_stmt 0 view .LVU535
	ldr	r3, .L123
	.loc 1 983 8 view .LVU536
	ldrb	r2, [r3, #286]	@ zero_extendqisi2
	cmp	r2, #3
	bne	.L121
	.loc 1 986 9 is_stmt 1 view .LVU537
	.loc 1 986 16 is_stmt 0 view .LVU538
	mvn	r0, #256
.LBE708:
.LBE710:
	.loc 1 1110 90 view .LVU539
	add	sp, sp, #12
	.cfi_remember_state
	.cfi_def_cfa_offset 4
	@ sp needed
	ldr	lr, [sp], #4
	.cfi_restore 14
	.cfi_def_cfa_offset 0
.LBB711:
.LBB709:
	.loc 1 986 16 view .LVU540
	b	atomic_and.constprop.0.isra.0
.LVL102:
.L121:
	.cfi_restore_state
	.loc 1 988 10 is_stmt 1 view .LVU541
	.loc 1 988 13 is_stmt 0 view .LVU542
	ldr	r3, [r3, #272]
	cbnz	r3, .L120
.LBB707:
	.loc 1 990 9 is_stmt 1 view .LVU543
	.loc 1 990 16 is_stmt 0 view .LVU544
	mvn	r0, #256
	bl	atomic_and.constprop.0.isra.0
.LVL103:
	.loc 1 992 9 is_stmt 1 view .LVU545
	.loc 1 992 31 is_stmt 0 view .LVU546
	movs	r3, #6
	strb	r3, [sp, #4]
	movs	r3, #136
	strh	r3, [sp, #6]	@ movhi
	.loc 1 993 9 is_stmt 1 view .LVU547
	ldr	r3, .L123+4
	add	r0, sp, #4
	ldr	r3, [r3]
	blx	r3
.LVL104:
.LBE707:
	.loc 1 998 5 view .LVU548
.L120:
	.loc 1 998 5 is_stmt 0 view .LVU549
.LBE709:
.LBE711:
	.loc 1 1110 90 view .LVU550
	add	sp, sp, #12
	.cfi_def_cfa_offset 4
	@ sp needed
	ldr	pc, [sp], #4
.L124:
	.align	2
.L123:
	.word	m_ep_state
	.word	m_event_handler
	.cfi_endproc
.LFE821:
	.size	ev_dma_epin8_handler, .-ev_dma_epin8_handler
	.section	.text.nrfx_usbd_isoinconfig_set,"ax",%progbits
	.align	1
	.global	nrfx_usbd_isoinconfig_set
	.syntax unified
	.thumb
	.thumb_func
	.type	nrfx_usbd_isoinconfig_set, %function
nrfx_usbd_isoinconfig_set:
.LVL105:
.LFB799:
	.loc 1 757 1 is_stmt 1 view -0
	.cfi_startproc
	@ args = 0, pretend = 0, frame = 0
	@ frame_needed = 0, uses_anonymous_args = 0
	@ link register save eliminated.
	.loc 1 758 5 view .LVU552
.LBB712:
.LBI712:
	.loc 3 1395 20 view .LVU553
.LBB713:
	.loc 3 1398 5 view .LVU554
	.loc 3 1398 24 is_stmt 0 view .LVU555
	ldr	r3, .L126
	str	r0, [r3, #1328]
.LVL106:
	.loc 3 1398 24 view .LVU556
.LBE713:
.LBE712:
	.loc 1 759 1 view .LVU557
	bx	lr
.L127:
	.align	2
.L126:
	.word	1073901568
	.cfi_endproc
.LFE799:
	.size	nrfx_usbd_isoinconfig_set, .-nrfx_usbd_isoinconfig_set
	.section	.text.nrfx_usbd_isoinconfig_get,"ax",%progbits
	.align	1
	.global	nrfx_usbd_isoinconfig_get
	.syntax unified
	.thumb
	.thumb_func
	.type	nrfx_usbd_isoinconfig_get, %function
nrfx_usbd_isoinconfig_get:
.LFB800:
	.loc 1 762 1 is_stmt 1 view -0
	.cfi_startproc
	@ args = 0, pretend = 0, frame = 0
	@ frame_needed = 0, uses_anonymous_args = 0
	@ link register save eliminated.
	.loc 1 763 5 view .LVU559
.LVL107:
.LBB714:
.LBI714:
	.loc 3 1401 38 view .LVU560
.LBB715:
	.loc 3 1403 5 view .LVU561
	.loc 3 1403 45 is_stmt 0 view .LVU562
	ldr	r3, .L129
	ldr	r0, [r3, #1328]
.LVL108:
	.loc 3 1403 45 view .LVU563
.LBE715:
.LBE714:
	.loc 1 764 1 view .LVU564
	and	r0, r0, #1
	bx	lr
.L130:
	.align	2
.L129:
	.word	1073901568
	.cfi_endproc
.LFE800:
	.size	nrfx_usbd_isoinconfig_get, .-nrfx_usbd_isoinconfig_get
	.section	.text.nrfx_usbd_uninit,"ax",%progbits
	.align	1
	.global	nrfx_usbd_uninit
	.syntax unified
	.thumb
	.thumb_func
	.type	nrfx_usbd_uninit, %function
nrfx_usbd_uninit:
.LFB848:
	.loc 1 1709 1 is_stmt 1 view -0
	.cfi_startproc
	@ args = 0, pretend = 0, frame = 0
	@ frame_needed = 0, uses_anonymous_args = 0
	@ link register save eliminated.
	.loc 1 1710 7 view .LVU566
	.loc 1 1710 8 view .LVU567
	.loc 1 1712 5 view .LVU568
	.loc 1 1712 21 is_stmt 0 view .LVU569
	ldr	r2, .L132
	movs	r3, #0
	str	r3, [r2]
	.loc 1 1713 5 is_stmt 1 view .LVU570
	.loc 1 1713 17 is_stmt 0 view .LVU571
	ldr	r2, .L132+4
	strb	r3, [r2]
	.loc 1 1714 5 is_stmt 1 view .LVU572
	.loc 1 1715 1 is_stmt 0 view .LVU573
	bx	lr
.L133:
	.align	2
.L132:
	.word	m_event_handler
	.word	m_drv_state
	.cfi_endproc
.LFE848:
	.size	nrfx_usbd_uninit, .-nrfx_usbd_uninit
	.section	.text.nrfx_usbd_init_check,"ax",%progbits
	.align	1
	.global	nrfx_usbd_init_check
	.syntax unified
	.thumb
	.thumb_func
	.type	nrfx_usbd_init_check, %function
nrfx_usbd_init_check:
.LFB849:
	.loc 1 1718 1 is_stmt 1 view -0
	.cfi_startproc
	@ args = 0, pretend = 0, frame = 0
	@ frame_needed = 0, uses_anonymous_args = 0
	@ link register save eliminated.
	.loc 1 1719 5 view .LVU575
	.loc 1 1719 25 is_stmt 0 view .LVU576
	ldr	r3, .L135
	ldrb	r0, [r3]	@ zero_extendqisi2
	.loc 1 1720 1 view .LVU577
	subs	r0, r0, #0
	it	ne
	movne	r0, #1
	bx	lr
.L136:
	.align	2
.L135:
	.word	m_drv_state
	.cfi_endproc
.LFE849:
	.size	nrfx_usbd_init_check, .-nrfx_usbd_init_check
	.section	.text.nrfx_usbd_enable,"ax",%progbits
	.align	1
	.global	nrfx_usbd_enable
	.syntax unified
	.thumb
	.thumb_func
	.type	nrfx_usbd_enable, %function
nrfx_usbd_enable:
.LFB850:
	.loc 1 1723 1 is_stmt 1 view -0
	.cfi_startproc
	@ args = 0, pretend = 0, frame = 0
	@ frame_needed = 0, uses_anonymous_args = 0
	.loc 1 1724 7 view .LVU579
	.loc 1 1724 8 view .LVU580
	.loc 1 1727 5 view .LVU581
.LVL109:
.LBB775:
.LBI775:
	.loc 3 1109 20 view .LVU582
.LBB776:
	.loc 3 1111 5 view .LVU583
.LBE776:
.LBE775:
	.loc 1 1723 1 is_stmt 0 view .LVU584
	push	{r3, lr}
	.cfi_def_cfa_offset 8
	.cfi_offset 3, -8
	.cfi_offset 14, -4
.LBB778:
.LBB777:
	.loc 3 1111 23 view .LVU585
	ldr	r3, .L159
	mov	r2, #2048
	str	r2, [r3, #1024]
	.loc 3 1112 5 is_stmt 1 view .LVU586
	ldr	r3, [r3, #1024]
.LVL110:
	.loc 3 1112 5 is_stmt 0 view .LVU587
.LBE777:
.LBE778:
	.loc 1 1729 5 is_stmt 1 view .LVU588
.LBB779:
.LBI779:
	.loc 1 1560 13 view .LVU589
.LBB780:
	.loc 1 1562 5 view .LVU590
.LBB781:
.LBI781:
	.loc 6 62 19 view .LVU591
.LBB782:
	.loc 6 64 5 view .LVU592
	.loc 6 64 17 is_stmt 0 view .LVU593
	bl	nrf52_errata_187
.LVL111:
.LBE782:
.LBE781:
	.loc 1 1562 8 view .LVU594
	cbz	r0, .L138
	.loc 1 1564 9 is_stmt 1 view .LVU595
	bl	usbd_errata_187_211_begin
.LVL112:
.L138:
	.loc 1 1567 5 view .LVU596
.LBB783:
.LBI783:
	.loc 6 56 19 view .LVU597
	.loc 6 58 5 view .LVU598
.LBB784:
.LBI784:
	.loc 2 8052 12 view .LVU599
.LBB785:
	.loc 2 8058 13 view .LVU600
	.loc 2 8059 13 view .LVU601
	.loc 2 8062 13 view .LVU602
	.loc 2 8058 22 is_stmt 0 view .LVU603
	mov	r3, #268435456
	.loc 2 8062 16 view .LVU604
	ldr	r3, [r3, #304]
	cmp	r3, #8
	bne	.L139
	.loc 2 8064 17 is_stmt 1 view .LVU605
	.loc 2 8079 25 view .LVU606
.LVL113:
	.loc 2 8079 25 is_stmt 0 view .LVU607
.LBE785:
.LBE784:
.LBE783:
	.loc 1 1569 9 is_stmt 1 view .LVU608
.LBB786:
.LBI786:
	.loc 1 1484 20 view .LVU609
.LBB787:
.LBB788:
	.loc 1 1486 7 view .LVU610
.LBB789:
.LBI789:
	.loc 4 42 59 view .LVU611
.LBB790:
	.loc 4 44 2 view .LVU612
	.loc 4 57 2 view .LVU613
	.loc 4 59 2 view .LVU614
	.syntax unified
@ 59 "/home/g/mise-work/zmk-firmware/zmk/zephyr/include/zephyr/arch/arm/asm_inline_gcc.h" 1
	mov r3, #32;mrs r0, BASEPRI;msr BASEPRI_MAX, r3;isb;
@ 0 "" 2
.LVL114:
	.loc 4 88 2 view .LVU615
	.loc 4 88 2 is_stmt 0 view .LVU616
	.thumb
	.syntax unified
.LBE790:
.LBE789:
	.loc 1 1486 51 is_stmt 1 view .LVU617
	.loc 1 1487 5 view .LVU618
	.loc 1 1487 9 is_stmt 0 view .LVU619
	ldr	r3, .L159+4
	ldr	r1, [r3, #3072]
	movs	r2, #192
	.loc 1 1487 8 view .LVU620
	cmp	r1, #0
	bne	.L140
	.loc 1 1489 9 is_stmt 1 view .LVU621
	.loc 1 1489 46 is_stmt 0 view .LVU622
	movw	r1, #37749
	str	r1, [r3, #3072]
	.loc 1 1490 9 is_stmt 1 view .LVU623
	.loc 1 1490 46 is_stmt 0 view .LVU624
	str	r2, [r3, #3092]
	.loc 1 1491 9 is_stmt 1 view .LVU625
	.loc 1 1491 46 is_stmt 0 view .LVU626
	str	r1, [r3, #3072]
.L141:
	.loc 1 1497 5 is_stmt 1 view .LVU627
.LVL115:
.LBB791:
.LBI791:
	.loc 4 96 51 view .LVU628
.LBB792:
	.loc 4 107 2 view .LVU629
	.syntax unified
@ 107 "/home/g/mise-work/zmk-firmware/zmk/zephyr/include/zephyr/arch/arm/asm_inline_gcc.h" 1
	msr BASEPRI, r0;isb;
@ 0 "" 2
.LVL116:
	.loc 4 107 2 is_stmt 0 view .LVU630
	.thumb
	.syntax unified
.LBE792:
.LBE791:
.LBE788:
	.loc 1 1497 37 is_stmt 1 view .LVU631
.L139:
	.loc 1 1497 37 is_stmt 0 view .LVU632
.LBE787:
.LBE786:
	.loc 1 1573 5 is_stmt 1 view .LVU633
.LBB795:
.LBI795:
	.loc 3 1092 20 view .LVU634
.LBB796:
	.loc 3 1094 5 view .LVU635
	.loc 3 1094 19 is_stmt 0 view .LVU636
	ldr	r3, .L159
	movs	r2, #1
	str	r2, [r3, #1280]
	.loc 3 1095 5 is_stmt 1 view .LVU637
	ldr	r2, [r3, #1280]
.LVL117:
	.loc 3 1095 5 is_stmt 0 view .LVU638
.LBE796:
.LBE795:
	.loc 1 1576 5 is_stmt 1 view .LVU639
.LBB797:
.LBI797:
	.loc 1 1472 20 view .LVU640
.L142:
.LBB798:
	.loc 1 1477 5 view .LVU641
	.loc 1 1474 14 view .LVU642
.LBB799:
.LBI799:
	.loc 3 1104 24 view .LVU643
.LBB800:
	.loc 3 1106 5 view .LVU644
	.loc 3 1106 17 is_stmt 0 view .LVU645
	ldr	r2, [r3, #1024]
.LVL118:
	.loc 3 1106 17 view .LVU646
.LBE800:
.LBE799:
	.loc 1 1474 14 view .LVU647
	lsls	r2, r2, #20
	bpl	.L142
	.loc 1 1478 5 is_stmt 1 view .LVU648
.LVL119:
.LBB801:
.LBI801:
	.loc 3 1109 20 view .LVU649
.LBB802:
	.loc 3 1111 5 view .LVU650
	.loc 3 1111 23 is_stmt 0 view .LVU651
	mov	r2, #2048
	str	r2, [r3, #1024]
	.loc 3 1112 5 is_stmt 1 view .LVU652
	ldr	r3, [r3, #1024]
.LVL120:
	.loc 3 1112 5 is_stmt 0 view .LVU653
.LBE802:
.LBE801:
.LBE798:
.LBE797:
	.loc 1 1578 5 is_stmt 1 view .LVU654
.LBB803:
.LBI803:
	.loc 6 56 19 view .LVU655
	.loc 6 58 5 view .LVU656
.LBB804:
.LBI804:
	.loc 2 8052 12 view .LVU657
.LBB805:
	.loc 2 8058 13 view .LVU658
	.loc 2 8059 13 view .LVU659
	.loc 2 8062 13 view .LVU660
	.loc 2 8058 22 is_stmt 0 view .LVU661
	mov	r3, #268435456
	.loc 2 8062 16 view .LVU662
	ldr	r3, [r3, #304]
	cmp	r3, #8
	bne	.L143
	.loc 2 8064 17 is_stmt 1 view .LVU663
	.loc 2 8079 25 view .LVU664
.LVL121:
	.loc 2 8079 25 is_stmt 0 view .LVU665
.LBE805:
.LBE804:
.LBE803:
	.loc 1 1580 9 is_stmt 1 view .LVU666
.LBB806:
.LBI806:
	.loc 1 1503 20 view .LVU667
.LBB807:
.LBB808:
	.loc 1 1505 7 view .LVU668
.LBB809:
.LBI809:
	.loc 4 42 59 view .LVU669
.LBB810:
	.loc 4 44 2 view .LVU670
	.loc 4 57 2 view .LVU671
	.loc 4 59 2 view .LVU672
	.syntax unified
@ 59 "/home/g/mise-work/zmk-firmware/zmk/zephyr/include/zephyr/arch/arm/asm_inline_gcc.h" 1
	mov r3, #32;mrs r0, BASEPRI;msr BASEPRI_MAX, r3;isb;
@ 0 "" 2
.LVL122:
	.loc 4 88 2 view .LVU673
	.loc 4 88 2 is_stmt 0 view .LVU674
	.thumb
	.syntax unified
.LBE810:
.LBE809:
	.loc 1 1505 51 is_stmt 1 view .LVU675
	.loc 1 1506 5 view .LVU676
	.loc 1 1506 9 is_stmt 0 view .LVU677
	ldr	r3, .L159+4
	ldr	r1, [r3, #3072]
	.loc 1 1506 8 view .LVU678
	cmp	r1, #0
	bne	.L144
	.loc 1 1508 9 is_stmt 1 view .LVU679
	.loc 1 1508 46 is_stmt 0 view .LVU680
	movw	r2, #37749
	str	r2, [r3, #3072]
	.loc 1 1509 9 is_stmt 1 view .LVU681
	.loc 1 1509 46 is_stmt 0 view .LVU682
	str	r1, [r3, #3092]
	.loc 1 1510 9 is_stmt 1 view .LVU683
	.loc 1 1510 46 is_stmt 0 view .LVU684
	str	r2, [r3, #3072]
.L145:
	.loc 1 1516 5 is_stmt 1 view .LVU685
.LVL123:
.LBB811:
.LBI811:
	.loc 4 96 51 view .LVU686
.LBB812:
	.loc 4 107 2 view .LVU687
	.syntax unified
@ 107 "/home/g/mise-work/zmk-firmware/zmk/zephyr/include/zephyr/arch/arm/asm_inline_gcc.h" 1
	msr BASEPRI, r0;isb;
@ 0 "" 2
.LVL124:
	.loc 4 107 2 is_stmt 0 view .LVU688
	.thumb
	.syntax unified
.LBE812:
.LBE811:
.LBE808:
	.loc 1 1516 37 is_stmt 1 view .LVU689
.L143:
	.loc 1 1516 37 is_stmt 0 view .LVU690
.LBE807:
.LBE806:
	.loc 1 1583 5 is_stmt 1 view .LVU691
.LBB815:
.LBI815:
	.loc 6 62 19 view .LVU692
.LBB816:
	.loc 6 64 5 view .LVU693
	.loc 6 64 17 is_stmt 0 view .LVU694
	bl	nrf52_errata_187
.LVL125:
	.loc 6 64 17 view .LVU695
.LBE816:
.LBE815:
	.loc 1 1583 8 view .LVU696
	cbz	r0, .L147
	.loc 1 1585 9 is_stmt 1 view .LVU697
	bl	usbd_errata_187_211_end
.LVL126:
.LBE780:
.LBE779:
	.loc 1 1731 5 view .LVU698
	.loc 1 1743 5 view .LVU699
.LBB820:
.LBI820:
	.loc 6 62 19 view .LVU700
.LBB821:
	.loc 6 64 5 view .LVU701
	.loc 6 64 17 is_stmt 0 view .LVU702
	bl	nrf52_errata_187
.LVL127:
.LBE821:
.LBE820:
	.loc 1 1743 8 view .LVU703
	cbz	r0, .L147
	.loc 1 1746 9 is_stmt 1 view .LVU704
	bl	usbd_errata_187_211_begin
.LVL128:
.L147:
	.loc 1 1749 5 view .LVU705
.LBB822:
.LBI822:
	.loc 6 50 19 view .LVU706
	.loc 6 52 5 view .LVU707
.LBB823:
.LBI823:
	.loc 2 8052 12 view .LVU708
.LBB824:
	.loc 2 8058 13 view .LVU709
	.loc 2 8059 13 view .LVU710
	.loc 2 8062 13 view .LVU711
	.loc 2 8058 22 is_stmt 0 view .LVU712
	mov	r3, #268435456
	.loc 2 8062 16 view .LVU713
	ldr	r3, [r3, #304]
	cmp	r3, #8
	ldr	r3, .L159
	bne	.L149
	.loc 2 8064 17 is_stmt 1 view .LVU714
	.loc 2 8079 25 view .LVU715
.LVL129:
	.loc 2 8079 25 is_stmt 0 view .LVU716
.LBE824:
.LBE823:
.LBE822:
	.loc 1 1751 9 is_stmt 1 view .LVU717
	.loc 1 1751 87 is_stmt 0 view .LVU718
	movw	r2, #2019
	str	r2, [r3, #2048]
	.loc 1 1752 9 is_stmt 1 view .LVU719
	.loc 1 1752 87 is_stmt 0 view .LVU720
	movs	r2, #64
	str	r2, [r3, #2052]
	.loc 1 1753 9 is_stmt 1 view .LVU721
.LBB825:
.LBI825:
	.file 7 "/home/g/mise-work/zmk-firmware/zmk/modules/hal/cmsis/CMSIS/Core/Include/cmsis_gcc.h"
	.loc 7 258 51 view .LVU722
.LBB826:
	.loc 7 260 3 view .LVU723
	.syntax unified
@ 260 "/home/g/mise-work/zmk-firmware/zmk/modules/hal/cmsis/CMSIS/Core/Include/cmsis_gcc.h" 1
	isb 0xF
@ 0 "" 2
	.thumb
	.syntax unified
.LBE826:
.LBE825:
	.loc 1 1754 9 view .LVU724
.LBB827:
.LBI827:
	.loc 7 269 51 view .LVU725
.LBB828:
	.loc 7 271 3 view .LVU726
	.syntax unified
@ 271 "/home/g/mise-work/zmk-firmware/zmk/modules/hal/cmsis/CMSIS/Core/Include/cmsis_gcc.h" 1
	dsb 0xF
@ 0 "" 2
	.thumb
	.syntax unified
.L149:
.LBE828:
.LBE827:
	.loc 1 1757 5 view .LVU727
.LVL130:
.LBB829:
.LBI829:
	.loc 3 1362 20 view .LVU728
.LBB830:
	.loc 3 1364 5 view .LVU729
	.loc 3 1364 21 is_stmt 0 view .LVU730
	movs	r2, #128
	str	r2, [r3, #1308]
.LVL131:
	.loc 3 1364 21 view .LVU731
.LBE830:
.LBE829:
	.loc 1 1759 5 is_stmt 1 view .LVU732
	.loc 1 1761 9 view .LVU733
.LBB831:
.LBI831:
	.loc 1 756 6 view .LVU734
	.loc 1 758 5 view .LVU735
.LBB832:
.LBI832:
	.loc 3 1395 20 view .LVU736
.LBB833:
	.loc 3 1398 5 view .LVU737
	.loc 3 1398 24 is_stmt 0 view .LVU738
	movs	r2, #1
	str	r2, [r3, #1328]
.LVL132:
	.loc 3 1398 24 view .LVU739
.LBE833:
.LBE832:
.LBE831:
	.loc 1 1768 5 is_stmt 1 view .LVU740
	.loc 1 1768 16 is_stmt 0 view .LVU741
	ldr	r3, .L159+8
	movw	r2, #511
	str	r2, [r3]
.LVL133:
	.loc 1 1769 5 is_stmt 1 view .LVU742
	.loc 1 1769 22 is_stmt 0 view .LVU743
	ldr	r3, .L159+12
	movs	r1, #0
	str	r1, [r3]
	.loc 1 1770 5 is_stmt 1 view .LVU744
	.loc 1 1770 15 is_stmt 0 view .LVU745
	ldr	r3, .L159+16
	strb	r1, [r3]
	.loc 1 1771 5 is_stmt 1 view .LVU746
	bl	usbd_dma_pending_clear
.LVL134:
	.loc 1 1772 5 view .LVU747
	.loc 1 1772 22 is_stmt 0 view .LVU748
	ldr	r3, .L159+20
	strb	r1, [r3]
	.loc 1 1774 5 is_stmt 1 view .LVU749
	.loc 1 1774 17 is_stmt 0 view .LVU750
	ldr	r3, .L159+24
	movs	r2, #2
	strb	r2, [r3]
	.loc 1 1779 5 is_stmt 1 view .LVU751
.LBB834:
.LBI834:
	.loc 6 62 19 view .LVU752
.LBB835:
	.loc 6 64 5 view .LVU753
	.loc 6 64 17 is_stmt 0 view .LVU754
	bl	nrf52_errata_187
.LVL135:
.LBE835:
.LBE834:
	.loc 1 1779 8 view .LVU755
	cbz	r0, .L137
	.loc 1 1782 9 is_stmt 1 view .LVU756
	.loc 1 1784 1 is_stmt 0 view .LVU757
	pop	{r3, lr}
	.cfi_remember_state
	.cfi_restore 14
	.cfi_restore 3
	.cfi_def_cfa_offset 0
	.loc 1 1782 9 view .LVU758
	b	usbd_errata_187_211_end
.LVL136:
.L140:
	.cfi_restore_state
.LBB836:
.LBB819:
.LBB817:
.LBB794:
.LBB793:
	.loc 1 1495 9 is_stmt 1 view .LVU759
	.loc 1 1495 46 is_stmt 0 view .LVU760
	str	r2, [r3, #3092]
	b	.L141
.LVL137:
.L144:
	.loc 1 1495 46 view .LVU761
.LBE793:
.LBE794:
.LBE817:
.LBB818:
.LBB814:
.LBB813:
	.loc 1 1514 9 is_stmt 1 view .LVU762
	.loc 1 1514 46 is_stmt 0 view .LVU763
	movs	r2, #0
	str	r2, [r3, #3092]
	b	.L145
.LVL138:
.L137:
	.loc 1 1514 46 view .LVU764
.LBE813:
.LBE814:
.LBE818:
.LBE819:
.LBE836:
	.loc 1 1784 1 view .LVU765
	pop	{r3, pc}
.L160:
	.align	2
.L159:
	.word	1073901568
	.word	1074192384
	.word	m_ep_ready
	.word	m_ep_dma_waiting
	.word	m_dma_odd
	.word	m_last_setup_dir
	.word	m_drv_state
	.cfi_endproc
.LFE850:
	.size	nrfx_usbd_enable, .-nrfx_usbd_enable
	.section	.text.nrfx_usbd_start,"ax",%progbits
	.align	1
	.global	nrfx_usbd_start
	.syntax unified
	.thumb
	.thumb_func
	.type	nrfx_usbd_start, %function
nrfx_usbd_start:
.LVL139:
.LFB852:
	.loc 1 1819 1 is_stmt 1 view -0
	.cfi_startproc
	@ args = 0, pretend = 0, frame = 0
	@ frame_needed = 0, uses_anonymous_args = 0
	.loc 1 1820 7 view .LVU767
	.loc 1 1820 8 view .LVU768
	.loc 1 1821 5 view .LVU769
	.loc 1 1821 19 is_stmt 0 view .LVU770
	ldr	r3, .L164
	movs	r2, #0
	.loc 1 1819 1 view .LVU771
	push	{r4, lr}
	.cfi_def_cfa_offset 8
	.cfi_offset 4, -8
	.cfi_offset 14, -4
	.loc 1 1821 19 view .LVU772
	strb	r2, [r3]
	.loc 1 1823 5 is_stmt 1 view .LVU773
.LVL140:
	.loc 1 1835 4 view .LVU774
	.loc 1 1823 14 is_stmt 0 view .LVU775
	ldr	r2, .L164+4
	ldr	r3, .L164+8
.LBB837:
.LBB838:
	.loc 3 386 21 view .LVU776
	ldr	r4, .L164+12
.LBE838:
.LBE837:
	.loc 1 1823 14 view .LVU777
	cmp	r0, #0
	it	eq
	moveq	r3, r2
.LVL141:
	.loc 1 1841 4 is_stmt 1 view .LVU778
.LBB840:
.LBI837:
	.loc 3 384 20 view .LVU779
.LBB839:
	.loc 3 386 5 view .LVU780
	.loc 3 386 21 is_stmt 0 view .LVU781
	str	r3, [r4, #772]
.LVL142:
	.loc 3 386 21 view .LVU782
.LBE839:
.LBE840:
	.loc 1 1844 4 is_stmt 1 view .LVU783
	.loc 1 1845 4 view .LVU784
	movs	r0, #39
.LVL143:
	.loc 1 1845 4 is_stmt 0 view .LVU785
	bl	arch_irq_enable
.LVL144:
	.loc 1 1848 4 is_stmt 1 view .LVU786
.LBB841:
.LBI841:
	.loc 3 1251 20 view .LVU787
.LBB842:
	.loc 3 1253 5 view .LVU788
	.loc 3 1253 22 is_stmt 0 view .LVU789
	movs	r3, #1
	str	r3, [r4, #1284]
	.loc 3 1254 5 is_stmt 1 view .LVU790
	ldr	r3, [r4, #1284]
.LVL145:
	.loc 3 1254 5 is_stmt 0 view .LVU791
.LBE842:
.LBE841:
	.loc 1 1849 1 view .LVU792
	pop	{r4, pc}
.L165:
	.align	2
.L164:
	.word	m_bus_suspend
	.word	29365253
	.word	31462405
	.word	1073901568
	.cfi_endproc
.LFE852:
	.size	nrfx_usbd_start, .-nrfx_usbd_start
	.section	.text.nrfx_usbd_is_initialized,"ax",%progbits
	.align	1
	.global	nrfx_usbd_is_initialized
	.syntax unified
	.thumb
	.thumb_func
	.type	nrfx_usbd_is_initialized, %function
nrfx_usbd_is_initialized:
.LFB892:
	.cfi_startproc
	.loc 1 1874 5 is_stmt 1 view -0
	@ args = 0, pretend = 0, frame = 0
	@ frame_needed = 0, uses_anonymous_args = 0
	@ link register save eliminated.
	ldr	r3, .L167
	ldrb	r0, [r3]	@ zero_extendqisi2
	subs	r0, r0, #0
	it	ne
	movne	r0, #1
	bx	lr
.L168:
	.align	2
.L167:
	.word	m_drv_state
	.cfi_endproc
.LFE892:
	.size	nrfx_usbd_is_initialized, .-nrfx_usbd_is_initialized
	.section	.text.nrfx_usbd_is_enabled,"ax",%progbits
	.align	1
	.global	nrfx_usbd_is_enabled
	.syntax unified
	.thumb
	.thumb_func
	.type	nrfx_usbd_is_enabled, %function
nrfx_usbd_is_enabled:
.LFB855:
	.loc 1 1880 1 view -0
	.cfi_startproc
	@ args = 0, pretend = 0, frame = 0
	@ frame_needed = 0, uses_anonymous_args = 0
	@ link register save eliminated.
	.loc 1 1881 5 view .LVU795
	.loc 1 1881 25 is_stmt 0 view .LVU796
	ldr	r3, .L170
	ldrb	r0, [r3]	@ zero_extendqisi2
	.loc 1 1882 1 view .LVU797
	cmp	r0, #1
	ite	ls
	movls	r0, #0
	movhi	r0, #1
	bx	lr
.L171:
	.align	2
.L170:
	.word	m_drv_state
	.cfi_endproc
.LFE855:
	.size	nrfx_usbd_is_enabled, .-nrfx_usbd_is_enabled
	.section	.text.nrfx_usbd_is_started,"ax",%progbits
	.align	1
	.global	nrfx_usbd_is_started
	.syntax unified
	.thumb
	.thumb_func
	.type	nrfx_usbd_is_started, %function
nrfx_usbd_is_started:
.LFB856:
	.loc 1 1885 1 is_stmt 1 view -0
	.cfi_startproc
	@ args = 0, pretend = 0, frame = 0
	@ frame_needed = 0, uses_anonymous_args = 0
	.loc 1 1886 5 view .LVU799
.LBB843:
.LBI843:
	.loc 1 1879 5 view .LVU800
.LBB844:
	.loc 1 1881 5 view .LVU801
.LBE844:
.LBE843:
	.loc 1 1885 1 is_stmt 0 view .LVU802
	push	{r3, lr}
	.cfi_def_cfa_offset 8
	.cfi_offset 3, -8
	.cfi_offset 14, -4
.LBB846:
.LBB845:
	.loc 1 1881 25 view .LVU803
	ldr	r3, .L175
.LBE845:
.LBE846:
	.loc 1 1886 36 view .LVU804
	ldrb	r3, [r3]	@ zero_extendqisi2
	cmp	r3, #1
	bls	.L174
	.loc 1 1886 39 discriminator 1 view .LVU805
	movs	r0, #39
	bl	arch_irq_is_enabled
.LVL146:
	.loc 1 1886 36 discriminator 1 view .LVU806
	subs	r0, r0, #0
	it	ne
	movne	r0, #1
.L173:
	.loc 1 1887 1 discriminator 6 view .LVU807
	pop	{r3, pc}
.L174:
	.loc 1 1886 36 view .LVU808
	movs	r0, #0
	b	.L173
.L176:
	.align	2
.L175:
	.word	m_drv_state
	.cfi_endproc
.LFE856:
	.size	nrfx_usbd_is_started, .-nrfx_usbd_is_started
	.section	.text.nrfx_usbd_suspend,"ax",%progbits
	.align	1
	.global	nrfx_usbd_suspend
	.syntax unified
	.thumb
	.thumb_func
	.type	nrfx_usbd_suspend, %function
nrfx_usbd_suspend:
.LFB857:
	.loc 1 1890 1 is_stmt 1 view -0
	.cfi_startproc
	@ args = 0, pretend = 0, frame = 0
	@ frame_needed = 0, uses_anonymous_args = 0
	.loc 1 1891 4 view .LVU810
.LVL147:
.LBB847:
	.loc 1 1893 7 view .LVU811
.LBB848:
.LBI848:
	.loc 4 42 59 view .LVU812
.LBB849:
	.loc 4 44 2 view .LVU813
	.loc 4 57 2 view .LVU814
	.loc 4 59 2 view .LVU815
.LBE849:
.LBE848:
.LBE847:
	.loc 1 1890 1 is_stmt 0 view .LVU816
	push	{r4, lr}
	.cfi_def_cfa_offset 8
	.cfi_offset 4, -8
	.cfi_offset 14, -4
.LBB862:
.LBB851:
.LBB850:
	.loc 4 59 2 view .LVU817
	.syntax unified
@ 59 "/home/g/mise-work/zmk-firmware/zmk/zephyr/include/zephyr/arch/arm/asm_inline_gcc.h" 1
	mov r3, #32;mrs r1, BASEPRI;msr BASEPRI_MAX, r3;isb;
@ 0 "" 2
.LVL148:
	.loc 4 88 2 is_stmt 1 view .LVU818
	.loc 4 88 2 is_stmt 0 view .LVU819
	.thumb
	.syntax unified
.LBE850:
.LBE851:
	.loc 1 1893 51 is_stmt 1 view .LVU820
	.loc 1 1894 5 view .LVU821
	.loc 1 1894 9 is_stmt 0 view .LVU822
	ldr	r3, .L186
	ldrb	r3, [r3]	@ zero_extendqisi2
	.loc 1 1894 8 view .LVU823
	and	r0, r3, #255
	cbz	r3, .L178
	.loc 1 1896 9 is_stmt 1 view .LVU824
.LVL149:
.LBB852:
.LBI852:
	.loc 3 1104 24 view .LVU825
.LBB853:
	.loc 3 1106 5 view .LVU826
	.loc 3 1106 17 is_stmt 0 view .LVU827
	ldr	r3, .L186+4
	ldr	r2, [r3, #1024]
.LVL150:
	.loc 3 1106 17 view .LVU828
.LBE853:
.LBE852:
	.loc 1 1896 12 view .LVU829
	ands	r2, r2, #512
	bne	.L178
	.loc 1 1898 13 is_stmt 1 view .LVU830
.LVL151:
.LBB854:
.LBI854:
	.loc 3 1378 20 view .LVU831
.LBB855:
	.loc 3 1380 5 view .LVU832
	.loc 3 1380 21 is_stmt 0 view .LVU833
	movs	r4, #1
	str	r4, [r3, #1324]
	.loc 3 1381 5 is_stmt 1 view .LVU834
	ldr	r4, [r3, #1324]
.LVL152:
	.loc 3 1381 5 is_stmt 0 view .LVU835
.LBE855:
.LBE854:
	.loc 1 1899 13 is_stmt 1 view .LVU836
.LBB856:
.LBI856:
	.loc 3 1104 24 view .LVU837
.LBB857:
	.loc 3 1106 5 view .LVU838
	.loc 3 1106 17 is_stmt 0 view .LVU839
	ldr	r4, [r3, #1024]
.LVL153:
	.loc 3 1106 17 view .LVU840
.LBE857:
.LBE856:
	.loc 1 1899 16 view .LVU841
	lsls	r4, r4, #22
	bpl	.L179
	.loc 1 1901 17 is_stmt 1 view .LVU842
.LVL154:
.LBB858:
.LBI858:
	.loc 3 1384 20 view .LVU843
.LBB859:
	.loc 3 1386 5 view .LVU844
	.loc 3 1386 21 is_stmt 0 view .LVU845
	str	r2, [r3, #1324]
	.loc 3 1387 5 is_stmt 1 view .LVU846
	ldr	r3, [r3, #1324]
.LVL155:
.L178:
	.loc 3 1387 5 is_stmt 0 view .LVU847
.LBE859:
.LBE858:
.LBE862:
	.loc 1 1891 9 view .LVU848
	movs	r0, #0
.L179:
.LVL156:
.LBB863:
	.loc 1 1909 5 is_stmt 1 view .LVU849
.LBB860:
.LBI860:
	.loc 4 96 51 view .LVU850
.LBB861:
	.loc 4 107 2 view .LVU851
	.syntax unified
@ 107 "/home/g/mise-work/zmk-firmware/zmk/zephyr/include/zephyr/arch/arm/asm_inline_gcc.h" 1
	msr BASEPRI, r1;isb;
@ 0 "" 2
.LVL157:
	.loc 4 107 2 is_stmt 0 view .LVU852
	.thumb
	.syntax unified
.LBE861:
.LBE860:
.LBE863:
	.loc 1 1909 37 is_stmt 1 view .LVU853
	.loc 1 1911 5 view .LVU854
	.loc 1 1912 1 is_stmt 0 view .LVU855
	pop	{r4, pc}
.L187:
	.align	2
.L186:
	.word	m_bus_suspend
	.word	1073901568
	.cfi_endproc
.LFE857:
	.size	nrfx_usbd_suspend, .-nrfx_usbd_suspend
	.section	.text.nrfx_usbd_wakeup_req,"ax",%progbits
	.align	1
	.global	nrfx_usbd_wakeup_req
	.syntax unified
	.thumb
	.thumb_func
	.type	nrfx_usbd_wakeup_req, %function
nrfx_usbd_wakeup_req:
.LFB858:
	.loc 1 1915 1 is_stmt 1 view -0
	.cfi_startproc
	@ args = 0, pretend = 0, frame = 0
	@ frame_needed = 0, uses_anonymous_args = 0
	.loc 1 1916 4 view .LVU857
.LVL158:
.LBB877:
	.loc 1 1918 7 view .LVU858
.LBB878:
.LBI878:
	.loc 4 42 59 view .LVU859
.LBB879:
	.loc 4 44 2 view .LVU860
	.loc 4 57 2 view .LVU861
	.loc 4 59 2 view .LVU862
.LBE879:
.LBE878:
.LBE877:
	.loc 1 1915 1 is_stmt 0 view .LVU863
	push	{r4, lr}
	.cfi_def_cfa_offset 8
	.cfi_offset 4, -8
	.cfi_offset 14, -4
.LBB891:
.LBB881:
.LBB880:
	.loc 4 59 2 view .LVU864
	.syntax unified
@ 59 "/home/g/mise-work/zmk-firmware/zmk/zephyr/include/zephyr/arch/arm/asm_inline_gcc.h" 1
	mov r3, #32;mrs r4, BASEPRI;msr BASEPRI_MAX, r3;isb;
@ 0 "" 2
.LVL159:
	.loc 4 88 2 is_stmt 1 view .LVU865
	.loc 4 88 2 is_stmt 0 view .LVU866
	.thumb
	.syntax unified
.LBE880:
.LBE881:
	.loc 1 1918 51 is_stmt 1 view .LVU867
	.loc 1 1919 5 view .LVU868
	.loc 1 1919 9 is_stmt 0 view .LVU869
	ldr	r3, .L196
	ldrb	r3, [r3]	@ zero_extendqisi2
	.loc 1 1919 8 view .LVU870
	and	r0, r3, #255
	cbz	r3, .L189
.LVL160:
.LBB882:
.LBI882:
	.loc 3 1390 23 is_stmt 1 view .LVU871
.LBB883:
	.loc 3 1392 5 view .LVU872
	.loc 3 1392 18 is_stmt 0 view .LVU873
	ldr	r3, .L196+4
	ldr	r2, [r3, #1324]
.LVL161:
	.loc 3 1392 18 view .LVU874
.LBE883:
.LBE882:
	.loc 1 1919 23 view .LVU875
	cbz	r2, .L192
	.loc 1 1921 9 is_stmt 1 view .LVU876
.LVL162:
.LBB884:
.LBI884:
	.loc 3 1384 20 view .LVU877
.LBB885:
	.loc 3 1386 5 view .LVU878
	.loc 3 1386 21 is_stmt 0 view .LVU879
	movs	r2, #0
	str	r2, [r3, #1324]
	.loc 3 1387 5 is_stmt 1 view .LVU880
	ldr	r3, [r3, #1324]
.LVL163:
	.loc 3 1387 5 is_stmt 0 view .LVU881
.LBE885:
.LBE884:
	.loc 1 1922 9 is_stmt 1 view .LVU882
	.loc 1 1924 9 view .LVU883
.LBB886:
.LBI886:
	.loc 6 56 19 view .LVU884
	.loc 6 58 5 view .LVU885
.LBB887:
.LBI887:
	.loc 2 8052 12 view .LVU886
.LBB888:
	.loc 2 8058 13 view .LVU887
	.loc 2 8059 13 view .LVU888
	.loc 2 8062 13 view .LVU889
	.loc 2 8058 22 is_stmt 0 view .LVU890
	mov	r3, #268435456
	.loc 2 8062 16 view .LVU891
	ldr	r3, [r3, #304]
	cmp	r3, #8
	bne	.L189
	.loc 2 8064 17 is_stmt 1 view .LVU892
	.loc 2 8079 25 view .LVU893
.LVL164:
	.loc 2 8079 25 is_stmt 0 view .LVU894
.LBE888:
.LBE887:
.LBE886:
	.loc 1 1926 13 is_stmt 1 view .LVU895
	.loc 1 1926 17 is_stmt 0 view .LVU896
	ldr	r3, .L196+8
	ldr	r1, [r3, #3072]
	movs	r2, #192
	.loc 1 1926 16 view .LVU897
	cbnz	r1, .L191
	.loc 1 1928 17 is_stmt 1 view .LVU898
	.loc 1 1928 54 is_stmt 0 view .LVU899
	movw	r1, #37749
	str	r1, [r3, #3072]
	.loc 1 1929 17 is_stmt 1 view .LVU900
	.loc 1 1929 54 is_stmt 0 view .LVU901
	str	r2, [r3, #3092]
	.loc 1 1930 17 is_stmt 1 view .LVU902
	.loc 1 1930 54 is_stmt 0 view .LVU903
	str	r1, [r3, #3072]
.LVL165:
.L189:
	.loc 1 1939 5 is_stmt 1 view .LVU904
.LBB889:
.LBI889:
	.loc 4 96 51 view .LVU905
.LBB890:
	.loc 4 107 2 view .LVU906
	.syntax unified
@ 107 "/home/g/mise-work/zmk-firmware/zmk/zephyr/include/zephyr/arch/arm/asm_inline_gcc.h" 1
	msr BASEPRI, r4;isb;
@ 0 "" 2
.LVL166:
	.loc 4 107 2 is_stmt 0 view .LVU907
	.thumb
	.syntax unified
.LBE890:
.LBE889:
.LBE891:
	.loc 1 1939 37 is_stmt 1 view .LVU908
	.loc 1 1941 5 view .LVU909
	.loc 1 1942 1 is_stmt 0 view .LVU910
	pop	{r4, pc}
.LVL167:
.L191:
.LBB892:
	.loc 1 1934 17 is_stmt 1 view .LVU911
	.loc 1 1934 54 is_stmt 0 view .LVU912
	str	r2, [r3, #3092]
	b	.L189
.LVL168:
.L192:
	.loc 1 1934 54 view .LVU913
.LBE892:
	.loc 1 1916 9 view .LVU914
	mov	r0, r2
	b	.L189
.L197:
	.align	2
.L196:
	.word	m_bus_suspend
	.word	1073901568
	.word	1074192384
	.cfi_endproc
.LFE858:
	.size	nrfx_usbd_wakeup_req, .-nrfx_usbd_wakeup_req
	.section	.text.nrfx_usbd_suspend_check,"ax",%progbits
	.align	1
	.global	nrfx_usbd_suspend_check
	.syntax unified
	.thumb
	.thumb_func
	.type	nrfx_usbd_suspend_check, %function
nrfx_usbd_suspend_check:
.LFB859:
	.loc 1 1945 1 is_stmt 1 view -0
	.cfi_startproc
	@ args = 0, pretend = 0, frame = 0
	@ frame_needed = 0, uses_anonymous_args = 0
	@ link register save eliminated.
	.loc 1 1946 5 view .LVU916
.LVL169:
.LBB893:
.LBI893:
	.loc 3 1390 23 view .LVU917
.LBB894:
	.loc 3 1392 5 view .LVU918
	.loc 3 1392 18 is_stmt 0 view .LVU919
	ldr	r3, .L199
	ldr	r0, [r3, #1324]
.LVL170:
	.loc 3 1392 18 view .LVU920
.LBE894:
.LBE893:
	.loc 1 1947 1 view .LVU921
	subs	r0, r0, #0
	it	ne
	movne	r0, #1
	bx	lr
.L200:
	.align	2
.L199:
	.word	1073901568
	.cfi_endproc
.LFE859:
	.size	nrfx_usbd_suspend_check, .-nrfx_usbd_suspend_check
	.section	.text.nrfx_usbd_suspend_irq_config,"ax",%progbits
	.align	1
	.global	nrfx_usbd_suspend_irq_config
	.syntax unified
	.thumb
	.thumb_func
	.type	nrfx_usbd_suspend_irq_config, %function
nrfx_usbd_suspend_irq_config:
.LFB860:
	.loc 1 1950 1 is_stmt 1 view -0
	.cfi_startproc
	@ args = 0, pretend = 0, frame = 0
	@ frame_needed = 0, uses_anonymous_args = 0
	@ link register save eliminated.
	.loc 1 1951 5 view .LVU923
.LVL171:
.LBB895:
.LBI895:
	.loc 3 399 20 view .LVU924
.LBB896:
	.loc 3 401 5 view .LVU925
	.loc 3 401 21 is_stmt 0 view .LVU926
	ldr	r3, .L202
	ldr	r2, .L202+4
	str	r2, [r3, #776]
.LVL172:
	.loc 3 401 21 view .LVU927
.LBE896:
.LBE895:
	.loc 1 1952 1 view .LVU928
	bx	lr
.L203:
	.align	2
.L202:
	.word	1073901568
	.word	25170948
	.cfi_endproc
.LFE860:
	.size	nrfx_usbd_suspend_irq_config, .-nrfx_usbd_suspend_irq_config
	.section	.text.nrfx_usbd_active_irq_config,"ax",%progbits
	.align	1
	.global	nrfx_usbd_active_irq_config
	.syntax unified
	.thumb
	.thumb_func
	.type	nrfx_usbd_active_irq_config, %function
nrfx_usbd_active_irq_config:
.LFB861:
	.loc 1 1955 1 is_stmt 1 view -0
	.cfi_startproc
	@ args = 0, pretend = 0, frame = 0
	@ frame_needed = 0, uses_anonymous_args = 0
	@ link register save eliminated.
	.loc 1 1956 5 view .LVU930
.LVL173:
.LBB897:
.LBI897:
	.loc 3 384 20 view .LVU931
.LBB898:
	.loc 3 386 5 view .LVU932
	.loc 3 386 21 is_stmt 0 view .LVU933
	ldr	r3, .L205
	ldr	r2, .L205+4
	str	r2, [r3, #772]
.LVL174:
	.loc 3 386 21 view .LVU934
.LBE898:
.LBE897:
	.loc 1 1957 1 view .LVU935
	bx	lr
.L206:
	.align	2
.L205:
	.word	1073901568
	.word	25170948
	.cfi_endproc
.LFE861:
	.size	nrfx_usbd_active_irq_config, .-nrfx_usbd_active_irq_config
	.section	.text.nrfx_usbd_bus_suspend_check,"ax",%progbits
	.align	1
	.global	nrfx_usbd_bus_suspend_check
	.syntax unified
	.thumb
	.thumb_func
	.type	nrfx_usbd_bus_suspend_check, %function
nrfx_usbd_bus_suspend_check:
.LFB862:
	.loc 1 1960 1 is_stmt 1 view -0
	.cfi_startproc
	@ args = 0, pretend = 0, frame = 0
	@ frame_needed = 0, uses_anonymous_args = 0
	@ link register save eliminated.
	.loc 1 1961 5 view .LVU937
	.loc 1 1961 12 is_stmt 0 view .LVU938
	ldr	r3, .L208
	ldrb	r0, [r3]	@ zero_extendqisi2
	.loc 1 1962 1 view .LVU939
	bx	lr
.L209:
	.align	2
.L208:
	.word	m_bus_suspend
	.cfi_endproc
.LFE862:
	.size	nrfx_usbd_bus_suspend_check, .-nrfx_usbd_bus_suspend_check
	.section	.text.nrfx_usbd_force_bus_wakeup,"ax",%progbits
	.align	1
	.global	nrfx_usbd_force_bus_wakeup
	.syntax unified
	.thumb
	.thumb_func
	.type	nrfx_usbd_force_bus_wakeup, %function
nrfx_usbd_force_bus_wakeup:
.LFB863:
	.loc 1 1965 1 is_stmt 1 view -0
	.cfi_startproc
	@ args = 0, pretend = 0, frame = 0
	@ frame_needed = 0, uses_anonymous_args = 0
	@ link register save eliminated.
	.loc 1 1966 5 view .LVU941
	.loc 1 1966 19 is_stmt 0 view .LVU942
	ldr	r3, .L211
	movs	r2, #0
	strb	r2, [r3]
	.loc 1 1967 1 view .LVU943
	bx	lr
.L212:
	.align	2
.L211:
	.word	m_bus_suspend
	.cfi_endproc
.LFE863:
	.size	nrfx_usbd_force_bus_wakeup, .-nrfx_usbd_force_bus_wakeup
	.section	.text.nrfx_usbd_ep_max_packet_size_set,"ax",%progbits
	.align	1
	.global	nrfx_usbd_ep_max_packet_size_set
	.syntax unified
	.thumb
	.thumb_func
	.type	nrfx_usbd_ep_max_packet_size_set, %function
nrfx_usbd_ep_max_packet_size_set:
.LVL175:
.LFB864:
	.loc 1 1970 1 is_stmt 1 view -0
	.cfi_startproc
	@ args = 0, pretend = 0, frame = 0
	@ frame_needed = 0, uses_anonymous_args = 0
	.loc 1 1972 7 view .LVU945
	.loc 1 1972 8 view .LVU946
	.loc 1 1974 7 view .LVU947
	.loc 1 1974 8 view .LVU948
	.loc 1 1976 7 view .LVU949
	.loc 1 1977 75 view .LVU950
	.loc 1 1979 5 view .LVU951
	.loc 1 1970 1 is_stmt 0 view .LVU952
	push	{r3, lr}
	.cfi_def_cfa_offset 8
	.cfi_offset 3, -8
	.cfi_offset 14, -4
	.loc 1 1979 33 view .LVU953
	bl	ep_state_access
.LVL176:
	.loc 1 1980 5 is_stmt 1 view .LVU954
	.loc 1 1980 30 is_stmt 0 view .LVU955
	strh	r1, [r0, #12]	@ movhi
	.loc 1 1981 1 view .LVU956
	pop	{r3, pc}
	.cfi_endproc
.LFE864:
	.size	nrfx_usbd_ep_max_packet_size_set, .-nrfx_usbd_ep_max_packet_size_set
	.section	.text.nrfx_usbd_init,"ax",%progbits
	.align	1
	.global	nrfx_usbd_init
	.syntax unified
	.thumb
	.thumb_func
	.type	nrfx_usbd_init, %function
nrfx_usbd_init:
.LVL177:
.LFB847:
	.loc 1 1668 1 is_stmt 1 view -0
	.cfi_startproc
	@ args = 0, pretend = 0, frame = 0
	@ frame_needed = 0, uses_anonymous_args = 0
	.loc 1 1669 7 view .LVU958
	.loc 1 1669 8 view .LVU959
	.loc 1 1671 5 view .LVU960
	.loc 1 1668 1 is_stmt 0 view .LVU961
	push	{r3, r4, r5, r6, r7, lr}
	.cfi_def_cfa_offset 24
	.cfi_offset 3, -24
	.cfi_offset 4, -20
	.cfi_offset 5, -16
	.cfi_offset 6, -12
	.cfi_offset 7, -8
	.cfi_offset 14, -4
	.loc 1 1671 21 view .LVU962
	ldr	r3, .L225
	.loc 1 1671 8 view .LVU963
	ldrb	r4, [r3]	@ zero_extendqisi2
	cbnz	r4, .L220
	.loc 1 1680 5 is_stmt 1 view .LVU964
	.loc 1 1680 21 is_stmt 0 view .LVU965
	ldr	r2, .L225+4
	str	r0, [r2]
	.loc 1 1681 5 is_stmt 1 view .LVU966
	.loc 1 1681 17 is_stmt 0 view .LVU967
	movs	r2, #1
	strb	r2, [r3]
	.loc 1 1683 5 is_stmt 1 view .LVU968
	.loc 1 1684 5 view .LVU969
.LVL178:
	.loc 1 1684 19 view .LVU970
.LBB899:
	.loc 1 1687 9 is_stmt 0 view .LVU971
	movw	r7, #511
	.loc 1 1690 25 view .LVU972
	mov	r6, r4
.LVL179:
.L217:
	.loc 1 1686 9 is_stmt 1 view .LVU973
	.loc 1 1686 24 is_stmt 0 view .LVU974
	orn	r5, r4, #127
	.loc 1 1687 9 view .LVU975
	tst	r4, #8
	.loc 1 1686 24 view .LVU976
	uxtb	r5, r5
.LVL180:
	.loc 1 1687 9 is_stmt 1 view .LVU977
	ite	ne
	movne	r1, r7
	moveq	r1, #64
	mov	r0, r5
	bl	nrfx_usbd_ep_max_packet_size_set
.LVL181:
	.loc 1 1689 9 view .LVU978
	.loc 1 1689 37 is_stmt 0 view .LVU979
	mov	r0, r5
	bl	ep_state_access
.LVL182:
	.loc 1 1690 9 is_stmt 1 view .LVU980
.LBE899:
	.loc 1 1684 19 is_stmt 0 view .LVU981
	adds	r4, r4, #1
.LVL183:
	.loc 1 1684 19 view .LVU982
	cmp	r4, #9
.LBB900:
	.loc 1 1690 25 view .LVU983
	strb	r6, [r0, #14]
	.loc 1 1691 9 is_stmt 1 view .LVU984
	.loc 1 1691 33 is_stmt 0 view .LVU985
	str	r6, [r0]
	.loc 1 1692 9 is_stmt 1 view .LVU986
	.loc 1 1692 31 is_stmt 0 view .LVU987
	str	r6, [r0, #8]
.LBE900:
	.loc 1 1684 24 is_stmt 1 view .LVU988
.LVL184:
	.loc 1 1684 19 view .LVU989
	bne	.L217
	movs	r4, #0
.LBB901:
	.loc 1 1697 9 is_stmt 0 view .LVU990
	movw	r7, #511
	.loc 1 1700 25 view .LVU991
	mov	r5, r4
.LVL185:
.L219:
	.loc 1 1697 9 view .LVU992
	tst	r4, #8
	uxtb	r6, r4
.LVL186:
	.loc 1 1696 9 is_stmt 1 view .LVU993
	.loc 1 1697 9 view .LVU994
	ite	ne
	movne	r1, r7
	moveq	r1, #64
	mov	r0, r6
	bl	nrfx_usbd_ep_max_packet_size_set
.LVL187:
	.loc 1 1699 9 view .LVU995
	.loc 1 1699 37 is_stmt 0 view .LVU996
	mov	r0, r6
	bl	ep_state_access
.LVL188:
	.loc 1 1700 9 is_stmt 1 view .LVU997
.LBE901:
	.loc 1 1694 19 is_stmt 0 view .LVU998
	adds	r4, r4, #1
	cmp	r4, #9
.LBB902:
	.loc 1 1700 25 view .LVU999
	strb	r5, [r0, #14]
	.loc 1 1701 9 is_stmt 1 view .LVU1000
	.loc 1 1701 35 is_stmt 0 view .LVU1001
	str	r5, [r0]
	.loc 1 1702 9 is_stmt 1 view .LVU1002
	.loc 1 1702 31 is_stmt 0 view .LVU1003
	str	r5, [r0, #8]
.LBE902:
	.loc 1 1694 24 is_stmt 1 view .LVU1004
.LVL189:
	.loc 1 1694 19 view .LVU1005
	bne	.L219
	.loc 1 1705 12 is_stmt 0 view .LVU1006
	ldr	r0, .L225+8
.LVL190:
.L214:
	.loc 1 1706 1 view .LVU1007
	pop	{r3, r4, r5, r6, r7, pc}
.LVL191:
.L220:
	.loc 1 1676 16 view .LVU1008
	ldr	r0, .L225+12
.LVL192:
	.loc 1 1676 16 view .LVU1009
	b	.L214
.L226:
	.align	2
.L225:
	.word	m_drv_state
	.word	m_event_handler
	.word	195887104
	.word	195887109
	.cfi_endproc
.LFE847:
	.size	nrfx_usbd_init, .-nrfx_usbd_init
	.section	.text.nrfx_usbd_ep_max_packet_size_get,"ax",%progbits
	.align	1
	.global	nrfx_usbd_ep_max_packet_size_get
	.syntax unified
	.thumb
	.thumb_func
	.type	nrfx_usbd_ep_max_packet_size_get, %function
nrfx_usbd_ep_max_packet_size_get:
.LVL193:
.LFB865:
	.loc 1 1984 1 is_stmt 1 view -0
	.cfi_startproc
	@ args = 0, pretend = 0, frame = 0
	@ frame_needed = 0, uses_anonymous_args = 0
	.loc 1 1985 5 view .LVU1011
	.loc 1 1984 1 is_stmt 0 view .LVU1012
	push	{r3, lr}
	.cfi_def_cfa_offset 8
	.cfi_offset 3, -8
	.cfi_offset 14, -4
	.loc 1 1985 39 view .LVU1013
	bl	ep_state_access
.LVL194:
	.loc 1 1986 5 is_stmt 1 view .LVU1014
	.loc 1 1987 1 is_stmt 0 view .LVU1015
	ldrh	r0, [r0, #12]
.LVL195:
	.loc 1 1987 1 view .LVU1016
	pop	{r3, pc}
	.cfi_endproc
.LFE865:
	.size	nrfx_usbd_ep_max_packet_size_get, .-nrfx_usbd_ep_max_packet_size_get
	.section	.text.nrfx_usbd_ep_enable_check,"ax",%progbits
	.align	1
	.global	nrfx_usbd_ep_enable_check
	.syntax unified
	.thumb
	.thumb_func
	.type	nrfx_usbd_ep_enable_check, %function
nrfx_usbd_ep_enable_check:
.LVL196:
.LFB866:
	.loc 1 1990 1 is_stmt 1 view -0
	.cfi_startproc
	@ args = 0, pretend = 0, frame = 0
	@ frame_needed = 0, uses_anonymous_args = 0
	@ link register save eliminated.
	.loc 1 1991 5 view .LVU1018
.LBB905:
.LBI905:
	.loc 3 1293 23 view .LVU1019
.LBB906:
	.loc 3 1295 7 view .LVU1020
	.loc 3 1295 8 view .LVU1021
	.loc 3 1296 5 view .LVU1022
	.loc 3 1298 5 view .LVU1023
	ldr	r2, .L232
	.loc 3 1300 9 view .LVU1024
	.loc 3 1298 8 is_stmt 0 view .LVU1025
	tst	r0, #128
	.loc 3 1300 18 view .LVU1026
	and	r3, r0, #15
	.loc 3 1300 27 view .LVU1027
	ite	ne
	ldrne	r0, [r2, #1296]
.LVL197:
	.loc 3 1304 9 is_stmt 1 view .LVU1028
	.loc 3 1304 27 is_stmt 0 view .LVU1029
	ldreq	r0, [r2, #1300]
	.loc 3 1304 18 view .LVU1030
	lsrs	r0, r0, r3
	and	r0, r0, #1
.LVL198:
	.loc 3 1304 18 view .LVU1031
.LBE906:
.LBE905:
	.loc 1 1992 1 view .LVU1032
	bx	lr
.L233:
	.align	2
.L232:
	.word	1073901568
	.cfi_endproc
.LFE866:
	.size	nrfx_usbd_ep_enable_check, .-nrfx_usbd_ep_enable_check
	.section	.text.nrfx_usbd_ep_default_config,"ax",%progbits
	.align	1
	.global	nrfx_usbd_ep_default_config
	.syntax unified
	.thumb
	.thumb_func
	.type	nrfx_usbd_ep_default_config, %function
nrfx_usbd_ep_default_config:
.LFB869:
	.loc 1 2022 1 is_stmt 1 view -0
	.cfi_startproc
	@ args = 0, pretend = 0, frame = 0
	@ frame_needed = 0, uses_anonymous_args = 0
	@ link register save eliminated.
	.loc 1 2023 5 view .LVU1034
.LVL199:
.LBB907:
.LBI907:
	.loc 3 399 20 view .LVU1035
.LBB908:
	.loc 3 401 5 view .LVU1036
	.loc 3 401 21 is_stmt 0 view .LVU1037
	ldr	r3, .L235
	ldr	r2, .L235+4
	str	r2, [r3, #776]
.LVL200:
	.loc 3 401 21 view .LVU1038
.LBE908:
.LBE907:
	.loc 1 2040 5 is_stmt 1 view .LVU1039
.LBB909:
.LBI909:
	.loc 3 384 20 view .LVU1040
.LBB910:
	.loc 3 386 5 view .LVU1041
	.loc 3 386 21 is_stmt 0 view .LVU1042
	movw	r2, #4100
	str	r2, [r3, #772]
.LVL201:
	.loc 3 386 21 view .LVU1043
.LBE910:
.LBE909:
	.loc 1 2041 5 is_stmt 1 view .LVU1044
.LBB911:
.LBI911:
	.loc 3 1344 6 view .LVU1045
.LBB912:
	.loc 3 1346 5 view .LVU1046
	.loc 3 1346 19 is_stmt 0 view .LVU1047
	movs	r2, #1
	str	r2, [r3, #1296]
	.loc 3 1347 5 is_stmt 1 view .LVU1048
	.loc 3 1347 20 is_stmt 0 view .LVU1049
	str	r2, [r3, #1300]
.LVL202:
	.loc 3 1347 20 view .LVU1050
.LBE912:
.LBE911:
	.loc 1 2042 1 view .LVU1051
	bx	lr
.L236:
	.align	2
.L235:
	.word	1073901568
	.word	2092024
	.cfi_endproc
.LFE869:
	.size	nrfx_usbd_ep_default_config, .-nrfx_usbd_ep_default_config
	.section	.text.nrfx_usbd_ep_transfer,"ax",%progbits
	.align	1
	.global	nrfx_usbd_ep_transfer
	.syntax unified
	.thumb
	.thumb_func
	.type	nrfx_usbd_ep_transfer, %function
nrfx_usbd_ep_transfer:
.LVL203:
.LFB870:
	.loc 1 2047 1 is_stmt 1 view -0
	.cfi_startproc
	@ args = 0, pretend = 0, frame = 0
	@ frame_needed = 0, uses_anonymous_args = 0
	.loc 1 2048 5 view .LVU1053
	.loc 1 2049 5 view .LVU1054
	.loc 1 2054 7 view .LVU1055
	.loc 1 2054 8 view .LVU1056
.LBB913:
	.loc 1 2056 7 view .LVU1057
.LBB914:
.LBI914:
	.loc 4 42 59 view .LVU1058
.LBB915:
	.loc 4 44 2 view .LVU1059
	.loc 4 57 2 view .LVU1060
	.loc 4 59 2 view .LVU1061
.LBE915:
.LBE914:
.LBE913:
	.loc 1 2047 1 is_stmt 0 view .LVU1062
	push	{r3, r4, r5, r6, r7, r8, r9, lr}
	.cfi_def_cfa_offset 32
	.cfi_offset 3, -32
	.cfi_offset 4, -28
	.cfi_offset 5, -24
	.cfi_offset 6, -20
	.cfi_offset 7, -16
	.cfi_offset 8, -12
	.cfi_offset 9, -8
	.cfi_offset 14, -4
	.loc 1 2047 1 view .LVU1063
	mov	r4, r0
.LBB930:
.LBB917:
.LBB916:
	.loc 4 59 2 view .LVU1064
	.syntax unified
@ 59 "/home/g/mise-work/zmk-firmware/zmk/zephyr/include/zephyr/arch/arm/asm_inline_gcc.h" 1
	mov r3, #32;mrs r6, BASEPRI;msr BASEPRI_MAX, r3;isb;
@ 0 "" 2
.LVL204:
	.loc 4 88 2 is_stmt 1 view .LVU1065
	.loc 4 88 2 is_stmt 0 view .LVU1066
	.thumb
	.syntax unified
.LBE916:
.LBE917:
	.loc 1 2056 51 is_stmt 1 view .LVU1067
	.loc 1 2058 5 view .LVU1068
	.loc 1 2058 8 is_stmt 0 view .LVU1069
	ands	r9, r0, #15
	bne	.L238
	.loc 1 2058 59 discriminator 1 view .LVU1070
	ldr	r3, .L250
	.loc 1 2058 52 discriminator 1 view .LVU1071
	ldrb	r3, [r3]	@ zero_extendqisi2
	cmp	r3, r0
	bne	.L244
.L238:
	.loc 1 2062 10 is_stmt 1 view .LVU1072
	.loc 1 2062 49 is_stmt 0 view .LVU1073
	ldr	r3, .L250+4
	.loc 1 2062 32 view .LVU1074
	ldr	r7, .L250+8
	.loc 1 2062 36 view .LVU1075
	ldr	r2, [r3]
	.loc 1 2062 32 view .LVU1076
	ldr	r3, [r7]
	.loc 1 2062 36 view .LVU1077
	mvns	r2, r2
	.loc 1 2062 49 view .LVU1078
	uxth	r2, r2
.LBE930:
	.loc 1 2049 31 view .LVU1079
	mov	r0, r4
.LVL205:
.LBB931:
	.loc 1 2062 32 view .LVU1080
	orrs	r2, r2, r3
.LBE931:
	.loc 1 2049 31 view .LVU1081
	bl	ep2bit
.LVL206:
.LBB932:
	.loc 1 2062 74 view .LVU1082
	mov	r8, #1
	lsl	r8, r8, r0
	.loc 1 2062 13 view .LVU1083
	tst	r2, r8
	bne	.L245
.LBB918:
	.loc 1 2069 9 is_stmt 1 view .LVU1084
	.loc 1 2069 37 is_stmt 0 view .LVU1085
	mov	r0, r4
	bl	ep_state_access
.LVL207:
	.loc 1 2074 43 view .LVU1086
	movs	r3, #12
	.loc 1 2072 12 view .LVU1087
	lsls	r2, r4, #24
	.loc 1 2069 37 view .LVU1088
	mov	r5, r0
.LVL208:
	.loc 1 2071 9 is_stmt 1 view .LVU1089
	.loc 1 2072 9 view .LVU1090
	.loc 1 2074 43 is_stmt 0 view .LVU1091
	mul	r3, r3, r9
	.loc 1 2072 12 view .LVU1092
	bpl	.L240
	.loc 1 2074 13 is_stmt 1 view .LVU1093
.LVL209:
	.loc 1 2075 13 view .LVU1094
.LBB919:
.LBI919:
	.file 8 "/home/g/mise-work/zmk-firmware/zmk/modules/hal/nordic/nrfx/drivers/nrfx_common.h"
	.loc 8 654 23 view .LVU1095
.LBB920:
	.loc 8 656 5 view .LVU1096
	.loc 8 656 35 is_stmt 0 view .LVU1097
	ldr	r2, [r1]
.LBE920:
.LBE919:
	.loc 1 2078 45 view .LVU1098
	ldr	r0, [r1, #8]
.LVL210:
.LBB922:
.LBB921:
	.loc 8 656 35 view .LVU1099
	and	r2, r2, #-536870912
.LBE921:
.LBE922:
	.loc 1 2075 16 view .LVU1100
	cmp	r2, #536870912
	.loc 1 2078 45 view .LVU1101
	and	r0, r0, #1
	.loc 1 2075 16 view .LVU1102
	bne	.L241
	.loc 1 2078 17 is_stmt 1 view .LVU1103
	.loc 1 2078 20 is_stmt 0 view .LVU1104
	ldr	r2, .L250+12
	ldr	r4, .L250+16
.L248:
	cmp	r0, #0
	it	eq
	moveq	r2, r4
	.loc 1 2074 23 view .LVU1105
	ldr	r0, .L250+20
	add	r3, r3, r0
.LVL211:
.L249:
	.loc 1 2128 39 view .LVU1106
	str	r2, [r5]
.LVL212:
	.loc 1 2130 9 is_stmt 1 view .LVU1107
	.loc 1 2130 20 is_stmt 0 view .LVU1108
	ldm	r1, {r0, r1, r2}
.LVL213:
	.loc 1 2130 20 view .LVU1109
	stm	r3, {r0, r1, r2}
	.loc 1 2131 9 is_stmt 1 view .LVU1110
	.loc 1 2131 28 is_stmt 0 view .LVU1111
	str	r3, [r5, #4]
	.loc 1 2133 9 is_stmt 1 view .LVU1112
	.loc 1 2133 31 is_stmt 0 view .LVU1113
	movs	r3, #0
.LVL214:
	.loc 1 2133 31 view .LVU1114
	str	r3, [r5, #8]
	.loc 1 2134 9 is_stmt 1 view .LVU1115
	.loc 1 2134 25 is_stmt 0 view .LVU1116
	strb	r3, [r5, #14]
	.loc 1 2135 9 is_stmt 1 view .LVU1117
	.loc 1 2135 26 is_stmt 0 view .LVU1118
	ldr	r3, [r7]
	.loc 1 2136 13 view .LVU1119
	ldr	r0, .L250+24
	.loc 1 2135 26 view .LVU1120
	orr	r3, r3, r8
	str	r3, [r7]
	.loc 1 2136 9 is_stmt 1 view .LVU1121
.LVL215:
	.loc 1 2137 9 view .LVU1122
.LBB923:
.LBI923:
	.loc 1 873 20 view .LVU1123
.LBB924:
	.loc 1 875 5 view .LVU1124
.LBB925:
.LBI925:
	.file 9 "/home/g/mise-work/zmk-firmware/zmk/modules/hal/cmsis/CMSIS/Core/Include/core_cm4.h"
	.loc 9 1760 20 view .LVU1125
.LBB926:
	.loc 9 1762 3 view .LVU1126
	.loc 9 1764 5 view .LVU1127
	.loc 9 1764 83 is_stmt 0 view .LVU1128
	ldr	r3, .L250+28
	movs	r2, #128
	str	r2, [r3, #260]
.LVL216:
.L239:
	.loc 9 1764 83 view .LVU1129
.LBE926:
.LBE925:
.LBE924:
.LBE923:
.LBE918:
	.loc 1 2139 5 is_stmt 1 view .LVU1130
.LBB927:
.LBI927:
	.loc 4 96 51 view .LVU1131
.LBB928:
	.loc 4 107 2 view .LVU1132
	.syntax unified
@ 107 "/home/g/mise-work/zmk-firmware/zmk/zephyr/include/zephyr/arch/arm/asm_inline_gcc.h" 1
	msr BASEPRI, r6;isb;
@ 0 "" 2
.LVL217:
	.loc 4 107 2 is_stmt 0 view .LVU1133
	.thumb
	.syntax unified
.LBE928:
.LBE927:
.LBE932:
	.loc 1 2139 37 is_stmt 1 view .LVU1134
	.loc 1 2141 5 view .LVU1135
	.loc 1 2157 16 view .LVU1136
	.loc 1 2161 5 view .LVU1137
	.loc 1 2162 1 is_stmt 0 view .LVU1138
	pop	{r3, r4, r5, r6, r7, r8, r9, pc}
.LVL218:
.L241:
.LBB933:
.LBB929:
	.loc 1 2102 17 is_stmt 1 view .LVU1139
	.loc 1 2102 20 is_stmt 0 view .LVU1140
	ldr	r2, .L250+32
	ldr	r4, .L250+36
	b	.L248
.LVL219:
.L240:
	.loc 1 2126 13 is_stmt 1 view .LVU1141
	.loc 1 2126 23 is_stmt 0 view .LVU1142
	ldr	r2, .L250+40
	add	r3, r3, r2
.LVL220:
	.loc 1 2127 15 is_stmt 1 view .LVU1143
	.loc 1 2127 16 view .LVU1144
	.loc 1 2128 13 view .LVU1145
	.loc 1 2128 39 is_stmt 0 view .LVU1146
	ldr	r2, .L250+44
	b	.L249
.LVL221:
.L244:
	.loc 1 2128 39 view .LVU1147
.LBE929:
	.loc 1 2060 13 view .LVU1148
	ldr	r0, .L250+48
.LVL222:
	.loc 1 2060 13 view .LVU1149
	b	.L239
.L245:
	.loc 1 2065 13 view .LVU1150
	ldr	r0, .L250+52
	b	.L239
.L251:
	.align	2
.L250:
	.word	m_last_setup_dir
	.word	m_ep_ready
	.word	m_ep_dma_waiting
	.word	nrfx_usbd_feeder_ram_zlp
	.word	nrfx_usbd_feeder_ram
	.word	m_ep_feeder_state
	.word	195887104
	.word	-536813312
	.word	nrfx_usbd_feeder_flash_zlp
	.word	nrfx_usbd_feeder_flash
	.word	m_ep_consumer_state
	.word	nrfx_usbd_consumer
	.word	195887114
	.word	195887115
.LBE933:
	.cfi_endproc
.LFE870:
	.size	nrfx_usbd_ep_transfer, .-nrfx_usbd_ep_transfer
	.section	.text.nrfx_usbd_ep_handled_transfer,"ax",%progbits
	.align	1
	.global	nrfx_usbd_ep_handled_transfer
	.syntax unified
	.thumb
	.thumb_func
	.type	nrfx_usbd_ep_handled_transfer, %function
nrfx_usbd_ep_handled_transfer:
.LVL223:
.LFB871:
	.loc 1 2167 1 is_stmt 1 view -0
	.cfi_startproc
	@ args = 0, pretend = 0, frame = 0
	@ frame_needed = 0, uses_anonymous_args = 0
	.loc 1 2168 5 view .LVU1152
	.loc 1 2169 5 view .LVU1153
	.loc 1 2170 7 view .LVU1154
	.loc 1 2170 8 view .LVU1155
.LBB934:
	.loc 1 2172 7 view .LVU1156
.LBB935:
.LBI935:
	.loc 4 42 59 view .LVU1157
.LBB936:
	.loc 4 44 2 view .LVU1158
	.loc 4 57 2 view .LVU1159
	.loc 4 59 2 view .LVU1160
.LBE936:
.LBE935:
.LBE934:
	.loc 1 2167 1 is_stmt 0 view .LVU1161
	push	{r3, r4, r5, r6, r7, lr}
	.cfi_def_cfa_offset 24
	.cfi_offset 3, -24
	.cfi_offset 4, -20
	.cfi_offset 5, -16
	.cfi_offset 6, -12
	.cfi_offset 7, -8
	.cfi_offset 14, -4
	.loc 1 2167 1 view .LVU1162
	mov	r2, r0
.LBB950:
.LBB938:
.LBB937:
	.loc 4 59 2 view .LVU1163
	.syntax unified
@ 59 "/home/g/mise-work/zmk-firmware/zmk/zephyr/include/zephyr/arch/arm/asm_inline_gcc.h" 1
	mov r3, #32;mrs r5, BASEPRI;msr BASEPRI_MAX, r3;isb;
@ 0 "" 2
.LVL224:
	.loc 4 88 2 is_stmt 1 view .LVU1164
	.loc 4 88 2 is_stmt 0 view .LVU1165
	.thumb
	.syntax unified
.LBE937:
.LBE938:
	.loc 1 2172 51 is_stmt 1 view .LVU1166
	.loc 1 2174 5 view .LVU1167
	.loc 1 2174 8 is_stmt 0 view .LVU1168
	lsls	r3, r0, #28
	bne	.L253
	.loc 1 2174 59 discriminator 1 view .LVU1169
	ldr	r3, .L257
	.loc 1 2174 52 discriminator 1 view .LVU1170
	ldrb	r3, [r3]	@ zero_extendqisi2
	cmp	r3, r0
	bne	.L255
.L253:
	.loc 1 2178 10 is_stmt 1 view .LVU1171
	.loc 1 2178 49 is_stmt 0 view .LVU1172
	ldr	r3, .L257+4
	.loc 1 2178 32 view .LVU1173
	ldr	r7, .L257+8
	.loc 1 2178 36 view .LVU1174
	ldr	r4, [r3]
	.loc 1 2178 32 view .LVU1175
	ldr	r3, [r7]
	.loc 1 2178 36 view .LVU1176
	mvns	r4, r4
	.loc 1 2178 49 view .LVU1177
	uxth	r4, r4
.LBE950:
	.loc 1 2169 31 view .LVU1178
	mov	r0, r2
.LVL225:
.LBB951:
	.loc 1 2178 32 view .LVU1179
	orrs	r4, r4, r3
.LBE951:
	.loc 1 2169 31 view .LVU1180
	bl	ep2bit
.LVL226:
.LBB952:
	.loc 1 2178 74 view .LVU1181
	movs	r6, #1
	lsls	r6, r6, r0
	.loc 1 2178 13 view .LVU1182
	ands	r4, r4, r6
	bne	.L256
.LBB939:
	.loc 1 2186 9 is_stmt 1 view .LVU1183
	.loc 1 2186 37 is_stmt 0 view .LVU1184
	mov	r0, r2
	bl	ep_state_access
.LVL227:
	.loc 1 2188 9 is_stmt 1 view .LVU1185
	.loc 1 2188 31 is_stmt 0 view .LVU1186
	str	r4, [r0, #8]
	.loc 1 2189 9 is_stmt 1 view .LVU1187
	.loc 1 2189 26 is_stmt 0 view .LVU1188
	ldr	r3, [r1]
	str	r3, [r0]
	.loc 1 2190 9 is_stmt 1 view .LVU1189
	.loc 1 2190 39 is_stmt 0 view .LVU1190
	ldr	r3, [r1, #4]
	.loc 1 2190 28 view .LVU1191
	str	r3, [r0, #4]
	.loc 1 2191 9 is_stmt 1 view .LVU1192
	.loc 1 2192 26 is_stmt 0 view .LVU1193
	ldr	r3, [r7]
	.loc 1 2191 25 view .LVU1194
	strb	r4, [r0, #14]
	.loc 1 2192 9 is_stmt 1 view .LVU1195
	.loc 1 2192 26 is_stmt 0 view .LVU1196
	orrs	r3, r3, r6
	str	r3, [r7]
	.loc 1 2194 9 is_stmt 1 view .LVU1197
.LVL228:
	.loc 1 2195 9 view .LVU1198
.LBB940:
.LBI940:
	.loc 1 873 20 view .LVU1199
.LBB941:
	.loc 1 875 5 view .LVU1200
.LBB942:
.LBI942:
	.loc 9 1760 20 view .LVU1201
.LBB943:
	.loc 9 1762 3 view .LVU1202
	.loc 9 1764 5 view .LVU1203
	.loc 9 1764 83 is_stmt 0 view .LVU1204
	ldr	r3, .L257+12
.LBE943:
.LBE942:
.LBE941:
.LBE940:
	.loc 1 2194 13 view .LVU1205
	ldr	r0, .L257+16
.LVL229:
.LBB947:
.LBB946:
.LBB945:
.LBB944:
	.loc 9 1764 83 view .LVU1206
	movs	r2, #128
	str	r2, [r3, #260]
.LVL230:
.L254:
	.loc 9 1764 83 view .LVU1207
.LBE944:
.LBE945:
.LBE946:
.LBE947:
.LBE939:
	.loc 1 2197 5 is_stmt 1 view .LVU1208
.LBB948:
.LBI948:
	.loc 4 96 51 view .LVU1209
.LBB949:
	.loc 4 107 2 view .LVU1210
	.syntax unified
@ 107 "/home/g/mise-work/zmk-firmware/zmk/zephyr/include/zephyr/arch/arm/asm_inline_gcc.h" 1
	msr BASEPRI, r5;isb;
@ 0 "" 2
.LVL231:
	.loc 4 107 2 is_stmt 0 view .LVU1211
	.thumb
	.syntax unified
.LBE949:
.LBE948:
.LBE952:
	.loc 1 2197 37 is_stmt 1 view .LVU1212
	.loc 1 2199 5 view .LVU1213
	.loc 1 2213 16 view .LVU1214
	.loc 1 2217 5 view .LVU1215
	.loc 1 2218 1 is_stmt 0 view .LVU1216
	pop	{r3, r4, r5, r6, r7, pc}
.LVL232:
.L255:
.LBB953:
	.loc 1 2176 13 view .LVU1217
	ldr	r0, .L257+20
.LVL233:
	.loc 1 2176 13 view .LVU1218
	b	.L254
.L256:
	.loc 1 2181 13 view .LVU1219
	ldr	r0, .L257+24
	b	.L254
.L258:
	.align	2
.L257:
	.word	m_last_setup_dir
	.word	m_ep_ready
	.word	m_ep_dma_waiting
	.word	-536813312
	.word	195887104
	.word	195887114
	.word	195887115
.LBE953:
	.cfi_endproc
.LFE871:
	.size	nrfx_usbd_ep_handled_transfer, .-nrfx_usbd_ep_handled_transfer
	.section	.text.nrfx_usbd_feeder_buffer_get,"ax",%progbits
	.align	1
	.global	nrfx_usbd_feeder_buffer_get
	.syntax unified
	.thumb
	.thumb_func
	.type	nrfx_usbd_feeder_buffer_get, %function
nrfx_usbd_feeder_buffer_get:
.LFB872:
	.loc 1 2221 1 is_stmt 1 view -0
	.cfi_startproc
	@ args = 0, pretend = 0, frame = 0
	@ frame_needed = 0, uses_anonymous_args = 0
	@ link register save eliminated.
	.loc 1 2222 5 view .LVU1221
	.loc 1 2223 1 is_stmt 0 view .LVU1222
	ldr	r0, .L260
	bx	lr
.L261:
	.align	2
.L260:
	.word	m_tx_buffer
	.cfi_endproc
.LFE872:
	.size	nrfx_usbd_feeder_buffer_get, .-nrfx_usbd_feeder_buffer_get
	.section	.text.nrfx_usbd_ep_status_get,"ax",%progbits
	.align	1
	.global	nrfx_usbd_ep_status_get
	.syntax unified
	.thumb
	.thumb_func
	.type	nrfx_usbd_ep_status_get, %function
nrfx_usbd_ep_status_get:
.LVL234:
.LFB873:
	.loc 1 2226 1 is_stmt 1 view -0
	.cfi_startproc
	@ args = 0, pretend = 0, frame = 0
	@ frame_needed = 0, uses_anonymous_args = 0
	.loc 1 2227 5 view .LVU1224
	.loc 1 2229 5 view .LVU1225
	.loc 1 2226 1 is_stmt 0 view .LVU1226
	push	{r3, lr}
	.cfi_def_cfa_offset 8
	.cfi_offset 3, -8
	.cfi_offset 14, -4
	.loc 1 2229 39 view .LVU1227
	bl	ep_state_access
.LVL235:
.LBB954:
	.loc 1 2230 7 is_stmt 1 view .LVU1228
.LBB955:
.LBI955:
	.loc 4 42 59 view .LVU1229
.LBB956:
	.loc 4 44 2 view .LVU1230
	.loc 4 57 2 view .LVU1231
	.loc 4 59 2 view .LVU1232
	.syntax unified
@ 59 "/home/g/mise-work/zmk-firmware/zmk/zephyr/include/zephyr/arch/arm/asm_inline_gcc.h" 1
	mov r2, #32;mrs r3, BASEPRI;msr BASEPRI_MAX, r2;isb;
@ 0 "" 2
.LVL236:
	.loc 4 88 2 view .LVU1233
	.loc 4 88 2 is_stmt 0 view .LVU1234
	.thumb
	.syntax unified
.LBE956:
.LBE955:
	.loc 1 2230 51 is_stmt 1 view .LVU1235
	.loc 1 2231 5 view .LVU1236
	.loc 1 2231 22 is_stmt 0 view .LVU1237
	ldr	r2, [r0, #8]
	.loc 1 2231 13 view .LVU1238
	str	r2, [r1]
	.loc 1 2232 5 is_stmt 1 view .LVU1239
	.loc 1 2232 64 is_stmt 0 view .LVU1240
	ldr	r2, [r0]
	cbnz	r2, .L264
	.loc 1 2232 64 discriminator 1 view .LVU1241
	ldrb	r0, [r0, #14]	@ zero_extendqisi2
.LVL237:
.L263:
	.loc 1 2233 5 is_stmt 1 discriminator 4 view .LVU1242
.LBB957:
.LBI957:
	.loc 4 96 51 discriminator 4 view .LVU1243
.LBB958:
	.loc 4 107 2 discriminator 4 view .LVU1244
	.syntax unified
@ 107 "/home/g/mise-work/zmk-firmware/zmk/zephyr/include/zephyr/arch/arm/asm_inline_gcc.h" 1
	msr BASEPRI, r3;isb;
@ 0 "" 2
.LVL238:
	.loc 4 107 2 is_stmt 0 discriminator 4 view .LVU1245
	.thumb
	.syntax unified
.LBE958:
.LBE957:
.LBE954:
	.loc 1 2233 37 is_stmt 1 discriminator 4 view .LVU1246
	.loc 1 2234 5 discriminator 4 view .LVU1247
	.loc 1 2235 1 is_stmt 0 discriminator 4 view .LVU1248
	pop	{r3, pc}
.LVL239:
.L264:
.LBB959:
	.loc 1 2232 64 view .LVU1249
	movs	r0, #4
.LVL240:
	.loc 1 2232 64 view .LVU1250
	b	.L263
.LBE959:
	.cfi_endproc
.LFE873:
	.size	nrfx_usbd_ep_status_get, .-nrfx_usbd_ep_status_get
	.section	.text.nrfx_usbd_epout_size_get,"ax",%progbits
	.align	1
	.global	nrfx_usbd_epout_size_get
	.syntax unified
	.thumb
	.thumb_func
	.type	nrfx_usbd_epout_size_get, %function
nrfx_usbd_epout_size_get:
.LVL241:
.LFB874:
	.loc 1 2238 1 is_stmt 1 view -0
	.cfi_startproc
	@ args = 0, pretend = 0, frame = 0
	@ frame_needed = 0, uses_anonymous_args = 0
	@ link register save eliminated.
	.loc 1 2239 5 view .LVU1252
.LBB964:
.LBI964:
	.loc 3 1207 22 view .LVU1253
.LBB965:
	.loc 3 1209 7 view .LVU1254
	.loc 3 1209 8 view .LVU1255
	.loc 3 1210 7 view .LVU1256
	.loc 3 1210 8 view .LVU1257
	.loc 3 1211 5 view .LVU1258
	.loc 3 1211 8 is_stmt 0 view .LVU1259
	tst	r0, #8
	ldr	r3, .L270
	beq	.L266
.LBB966:
	.loc 3 1213 9 is_stmt 1 view .LVU1260
	.loc 3 1213 16 is_stmt 0 view .LVU1261
	ldr	r0, [r3, #1216]
.LVL242:
	.loc 3 1214 9 is_stmt 1 view .LVU1262
	.loc 3 1217 25 is_stmt 0 view .LVU1263
	tst	r0, #65536
	it	ne
	movne	r0, #0
.LVL243:
	.loc 3 1217 25 view .LVU1264
	bx	lr
.LVL244:
.L266:
	.loc 3 1217 25 view .LVU1265
.LBE966:
	.loc 3 1222 5 is_stmt 1 view .LVU1266
	.loc 3 1222 31 is_stmt 0 view .LVU1267
	and	r0, r0, #15
.LVL245:
	.loc 3 1222 29 view .LVU1268
	add	r0, r0, #296
	ldr	r0, [r3, r0, lsl #2]
.LVL246:
	.loc 3 1222 29 view .LVU1269
.LBE965:
.LBE964:
	.loc 1 2240 1 view .LVU1270
	bx	lr
.L271:
	.align	2
.L270:
	.word	1073901568
	.cfi_endproc
.LFE874:
	.size	nrfx_usbd_epout_size_get, .-nrfx_usbd_epout_size_get
	.section	.text.usbd_dmareq_process,"ax",%progbits
	.align	1
	.syntax unified
	.thumb
	.thumb_func
	.type	usbd_dmareq_process, %function
usbd_dmareq_process:
.LFB839:
	.loc 1 1352 1 is_stmt 1 view -0
	.cfi_startproc
	@ args = 0, pretend = 0, frame = 16
	@ frame_needed = 0, uses_anonymous_args = 0
	.loc 1 1353 5 view .LVU1272
	.loc 1 1352 1 is_stmt 0 view .LVU1273
	push	{r4, r5, r6, r7, r8, r9, r10, fp, lr}
	.cfi_def_cfa_offset 36
	.cfi_offset 4, -36
	.cfi_offset 5, -32
	.cfi_offset 6, -28
	.cfi_offset 7, -24
	.cfi_offset 8, -20
	.cfi_offset 9, -16
	.cfi_offset 10, -12
	.cfi_offset 11, -8
	.cfi_offset 14, -4
	.loc 1 1353 9 view .LVU1274
	ldr	r6, .L307
	.loc 1 1353 8 view .LVU1275
	ldrb	r3, [r6]	@ zero_extendqisi2
	.loc 1 1352 1 view .LVU1276
	sub	sp, sp, #20
	.cfi_def_cfa_offset 56
	.loc 1 1353 8 view .LVU1277
	cmp	r3, #0
	bne	.L272
.LBB1051:
.LBB1052:
.LBB1053:
	.loc 1 1356 45 view .LVU1278
	ldr	r8, .L307+28
	ldr	r5, .L307+4
.L273:
	.loc 1 1356 18 is_stmt 1 view .LVU1279
	.loc 1 1356 26 is_stmt 0 view .LVU1280
	ldr	r4, [r8]
	ldr	r3, [r5]
.LVL247:
	.loc 1 1356 18 view .LVU1281
	ands	r4, r4, r3
.LVL248:
	.loc 1 1356 18 view .LVU1282
	beq	.L272
.LBB1054:
	.loc 1 1358 13 is_stmt 1 view .LVU1283
	.loc 1 1359 13 view .LVU1284
	.loc 1 1359 16 is_stmt 0 view .LVU1285
	ands	r3, r4, #16777472
	.loc 1 1361 17 is_stmt 1 view .LVU1286
.LVL249:
.LBB1055:
.LBI1055:
	.loc 1 1316 16 view .LVU1287
.LBB1056:
	.loc 1 1319 5 view .LVU1288
	.loc 1 1319 12 is_stmt 0 view .LVU1289
	ite	ne
	rbitne	r4, r3
.LVL250:
	.loc 1 1319 12 view .LVU1290
.LBE1056:
.LBE1055:
	.loc 1 1365 17 is_stmt 1 view .LVU1291
.LBB1057:
.LBI1057:
	.loc 1 1316 16 view .LVU1292
.LBB1058:
	.loc 1 1319 5 view .LVU1293
	.loc 1 1319 12 is_stmt 0 view .LVU1294
	rbiteq	r4, r4
.LVL251:
	.loc 1 1319 12 view .LVU1295
	clz	r4, r4
.LVL252:
	.loc 1 1319 12 view .LVU1296
.LBE1058:
.LBE1057:
	.loc 1 1367 13 is_stmt 1 view .LVU1297
.LBB1059:
.LBI1059:
	.loc 1 704 30 view .LVU1298
.LBB1060:
	.loc 1 706 5 view .LVU1299
	.loc 1 707 5 view .LVU1300
.LBE1060:
.LBE1059:
.LBB1064:
.LBB1065:
	.loc 1 1409 63 is_stmt 0 view .LVU1301
	mov	r9, #1
	lsl	r9, r9, r4
.LBE1065:
.LBE1064:
.LBB1069:
.LBB1061:
	.loc 1 707 12 view .LVU1302
	cmp	r4, #15
.LBE1061:
.LBE1069:
.LBB1070:
.LBB1067:
	.loc 1 1409 58 view .LVU1303
	mvn	r9, r9
.LBE1067:
.LBE1070:
.LBB1071:
.LBB1062:
	.loc 1 707 12 view .LVU1304
	bls	.L277
	subs	r4, r4, #16
.LVL253:
	.loc 1 707 12 view .LVU1305
	uxtb	r4, r4
.LVL254:
	.loc 1 707 12 view .LVU1306
.LBE1062:
.LBE1071:
	.loc 1 1368 13 is_stmt 1 view .LVU1307
	.loc 1 1368 41 is_stmt 0 view .LVU1308
	mov	r0, r4
	bl	ep_state_access
.LVL255:
	.loc 1 1368 41 view .LVU1309
	mov	r10, r0
.LVL256:
	.loc 1 1370 13 is_stmt 1 view .LVU1310
	.loc 1 1371 12 view .LVU1311
	.loc 1 1373 13 view .LVU1312
	.loc 1 1375 15 view .LVU1313
	.loc 1 1375 16 view .LVU1314
	.loc 1 1377 13 view .LVU1315
.LBB1072:
	.loc 1 1393 17 view .LVU1316
	.loc 1 1393 40 is_stmt 0 view .LVU1317
	mov	r0, r4
.LVL257:
	.loc 1 1393 40 view .LVU1318
	bl	nrfx_usbd_epout_size_get
.LVL258:
	.loc 1 1394 37 view .LVU1319
	ldr	r7, [r10]
	ldrh	r2, [r10, #12]
	ldr	r1, [r10, #4]
	mov	r3, r0
	.loc 1 1393 40 view .LVU1320
	mov	fp, r0
.LVL259:
	.loc 1 1394 17 is_stmt 1 view .LVU1321
	.loc 1 1394 37 is_stmt 0 view .LVU1322
	add	r0, sp, #8
.LVL260:
	.loc 1 1394 37 view .LVU1323
	blx	r7
.LVL261:
	.loc 1 1400 17 is_stmt 1 view .LVU1324
	.loc 1 1400 20 is_stmt 0 view .LVU1325
	ldr	r3, [sp, #8]
	cmp	r3, #0
	bne	.L303
.LVL262:
.L278:
	.loc 1 1418 23 is_stmt 1 view .LVU1326
	.loc 1 1418 24 view .LVU1327
	.loc 1 1421 17 view .LVU1328
	.loc 1 1421 20 is_stmt 0 view .LVU1329
	cbnz	r0, .L282
	.loc 1 1423 21 is_stmt 1 view .LVU1330
	.loc 1 1423 47 is_stmt 0 view .LVU1331
	str	r0, [r10]
.L282:
	.loc 1 1423 47 view .LVU1332
.LBE1072:
.LBB1073:
.LBB1074:
.LBB1075:
.LBB1076:
.LBB1077:
	.loc 2 8058 22 view .LVU1333
	mov	r3, #268435456
.LBE1077:
.LBE1076:
.LBE1075:
.LBE1074:
.LBE1073:
	.loc 1 1377 49 view .LVU1334
	sxtb	r2, r4
	.loc 1 1427 13 is_stmt 1 view .LVU1335
.LBB1082:
.LBI1073:
	.loc 1 717 20 view .LVU1336
.LBB1081:
	.loc 1 719 5 view .LVU1337
.LBB1080:
.LBI1075:
	.loc 6 68 19 view .LVU1338
	.loc 6 70 5 view .LVU1339
.LBB1079:
.LBI1076:
	.loc 2 8052 12 view .LVU1340
.LBB1078:
	.loc 2 8058 13 view .LVU1341
.LVL263:
	.loc 2 8059 13 view .LVU1342
	.loc 2 8062 13 view .LVU1343
	.loc 2 8062 16 is_stmt 0 view .LVU1344
	ldr	r3, [r3, #304]
	cmp	r3, #8
	.loc 2 8064 17 is_stmt 1 view .LVU1345
	.loc 2 8079 25 view .LVU1346
.LVL264:
	.loc 2 8079 25 is_stmt 0 view .LVU1347
.LBE1078:
.LBE1079:
.LBE1080:
	.loc 1 721 9 is_stmt 1 view .LVU1348
	.loc 1 721 44 is_stmt 0 view .LVU1349
	ittt	eq
	ldreq	r3, .L307+8
	moveq	r1, #130
	streq	r1, [r3, #3100]
	.loc 1 723 5 is_stmt 1 view .LVU1350
	.loc 1 723 19 is_stmt 0 view .LVU1351
	movs	r3, #1
	strb	r3, [r6]
.LVL265:
	.loc 1 723 19 view .LVU1352
.LBE1081:
.LBE1082:
	.loc 1 1428 13 is_stmt 1 view .LVU1353
	.loc 1 1428 24 is_stmt 0 view .LVU1354
	ldr	r3, [r5]
	.loc 1 1437 46 view .LVU1355
	ldr	r1, [sp, #12]
	.loc 1 1428 24 view .LVU1356
	and	r3, r3, r9
	str	r3, [r5]
	.loc 1 1429 13 is_stmt 1 view .LVU1357
	.loc 1 1431 17 view .LVU1358
.LBB1083:
	.loc 1 1431 22 view .LVU1359
.LBE1083:
	.loc 1 1431 20 view .LVU1360
	.loc 1 1437 13 view .LVU1361
	.loc 1 1437 35 is_stmt 0 view .LVU1362
	ldr	r3, [r10, #8]
	.loc 1 1439 13 view .LVU1363
	ldr	r5, [sp, #8]
	.loc 1 1437 35 view .LVU1364
	add	r3, r3, r1
.LBB1084:
.LBB1085:
	.loc 3 1412 8 view .LVU1365
	cmp	r2, #0
.LBE1085:
.LBE1084:
	.loc 1 1437 35 view .LVU1366
	str	r3, [r10, #8]
	.loc 1 1439 13 is_stmt 1 view .LVU1367
.LVL266:
.LBB1099:
.LBI1084:
	.loc 3 1407 20 view .LVU1368
.LBB1095:
	.loc 3 1412 5 view .LVU1369
	and	r0, r4, #8
	ldr	r3, .L307+8
.LBB1086:
.LBB1087:
.LBB1088:
	.loc 3 1421 21 is_stmt 0 view .LVU1370
	and	r4, r4, #15
.LBE1088:
.LBE1087:
.LBE1086:
	.loc 3 1412 8 view .LVU1371
	bge	.L284
.LVL267:
.LBB1092:
.LBI1086:
	.loc 3 1407 20 is_stmt 1 view .LVU1372
.LBB1090:
	.loc 3 1414 9 view .LVU1373
	.loc 3 1414 12 is_stmt 0 view .LVU1374
	cmp	r0, #0
	beq	.L285
	.loc 3 1416 13 is_stmt 1 view .LVU1375
	.loc 3 1416 30 is_stmt 0 view .LVU1376
	str	r5, [r3, #1696]
	.loc 3 1417 13 is_stmt 1 view .LVU1377
	.loc 3 1417 33 is_stmt 0 view .LVU1378
	str	r1, [r3, #1700]
.LVL268:
	.loc 3 1417 33 view .LVU1379
.LBE1090:
.LBE1092:
.LBE1095:
.LBE1099:
	.loc 1 1441 13 is_stmt 1 view .LVU1380
.LBB1100:
.LBI1100:
	.loc 1 751 20 view .LVU1381
.LBB1101:
	.loc 1 753 5 view .LVU1382
.LBB1102:
.LBI1102:
	.loc 1 654 31 view .LVU1383
.LBB1103:
	.loc 1 656 7 view .LVU1384
	.loc 1 656 8 view .LVU1385
	.loc 1 656 9 view .LVU1386
	.loc 1 657 5 view .LVU1387
.L286:
	.loc 1 657 12 is_stmt 0 view .LVU1388
	movs	r3, #4
.L287:
.LVL269:
	.loc 1 657 12 view .LVU1389
.LBE1103:
.LBE1102:
.LBB1107:
.LBI1107:
	.loc 3 322 20 is_stmt 1 view .LVU1390
.LBB1108:
	.loc 3 324 5 view .LVU1391
.LBB1109:
.LBI1109:
	.loc 3 297 34 view .LVU1392
.LBB1110:
	.loc 3 299 5 view .LVU1393
.LBE1110:
.LBE1109:
	.loc 3 324 7 is_stmt 0 view .LVU1394
	add	r3, r3, r4, lsl #2
.LVL270:
.LBB1112:
.LBB1111:
	.loc 3 299 12 view .LVU1395
	add	r3, r3, #1073741824
	add	r3, r3, #159744
.LVL271:
	.loc 3 299 12 view .LVU1396
.LBE1111:
.LBE1112:
	.loc 3 324 50 view .LVU1397
	movs	r1, #1
	str	r1, [r3]
	.loc 3 325 5 is_stmt 1 view .LVU1398
	ldr	r3, [r3]
.LVL272:
	.loc 3 325 5 is_stmt 0 view .LVU1399
.LBE1108:
.LBE1107:
.LBE1101:
.LBE1100:
.LBB1119:
.LBB1120:
	.loc 1 395 87 view .LVU1400
	ldr	r1, .L307+12
	ldr	r3, .L307+16
	ands	r3, r3, r2, asr #32
	it	cc
	movcc	r3, r1
.LBE1120:
.LBE1119:
.LBB1122:
.LBB1123:
	.loc 3 342 18 view .LVU1401
	ldrh	r3, [r3, r4, lsl #1]
.LBB1124:
.LBB1125:
	.loc 3 315 12 view .LVU1402
	add	r3, r3, #1073741824
	add	r3, r3, #159744
.L290:
.LBE1125:
.LBE1124:
.LBE1123:
.LBE1122:
	.loc 1 1448 13 is_stmt 1 view .LVU1403
	.loc 1 1445 20 view .LVU1404
.LVL273:
.LBB1129:
.LBI1119:
	.loc 1 366 32 view .LVU1405
.LBB1121:
	.loc 1 368 7 view .LVU1406
	.loc 1 368 8 view .LVU1407
	.loc 1 368 9 view .LVU1408
	.loc 1 370 5 view .LVU1409
	.loc 1 382 5 view .LVU1410
	.loc 1 395 5 view .LVU1411
	.loc 1 395 5 is_stmt 0 view .LVU1412
.LBE1121:
.LBE1129:
.LBB1130:
.LBI1122:
	.loc 3 340 23 is_stmt 1 view .LVU1413
.LBB1128:
	.loc 3 342 5 view .LVU1414
.LBB1127:
.LBI1124:
	.loc 3 312 40 view .LVU1415
.LBB1126:
	.loc 3 315 5 view .LVU1416
	.loc 3 315 5 is_stmt 0 view .LVU1417
.LBE1126:
.LBE1127:
	.loc 3 342 17 view .LVU1418
	ldr	r1, [r3]
.LVL274:
	.loc 3 342 17 view .LVU1419
.LBE1128:
.LBE1130:
	.loc 1 1445 20 view .LVU1420
	cmp	r1, #0
	beq	.L290
	.loc 1 1450 13 is_stmt 1 view .LVU1421
.LVL275:
.LBB1131:
.LBI1131:
	.loc 3 1442 24 view .LVU1422
.LBB1132:
	.loc 3 1444 5 view .LVU1423
	.loc 3 1446 5 view .LVU1424
	.loc 3 1446 8 is_stmt 0 view .LVU1425
	cmp	r2, #0
	ldr	r3, .L307+8
	bge	.L291
	.loc 3 1448 9 is_stmt 1 view .LVU1426
	.loc 3 1448 12 is_stmt 0 view .LVU1427
	cmp	r0, #0
	beq	.L292
	.loc 3 1450 13 is_stmt 1 view .LVU1428
	.loc 3 1450 17 is_stmt 0 view .LVU1429
	ldr	r3, [r3, #1704]
.LVL276:
.L293:
	.loc 3 1471 5 is_stmt 1 view .LVU1430
	.loc 3 1471 5 is_stmt 0 view .LVU1431
.LBE1132:
.LBE1131:
	.loc 1 1450 23 view .LVU1432
	ldr	r2, .L307+20
	ldrb	r1, [r2]	@ zero_extendqisi2
	.loc 1 1450 86 view .LVU1433
	and	r3, r3, #1
	.loc 1 1450 23 view .LVU1434
	eors	r3, r3, r1
	strb	r3, [r2]
	.loc 1 1452 13 is_stmt 1 view .LVU1435
	.loc 1 1454 17 view .LVU1436
.LBB1136:
	.loc 1 1454 22 view .LVU1437
.LBE1136:
	.loc 1 1454 20 view .LVU1438
	.loc 1 1457 13 view .LVU1439
.LVL277:
.L272:
	.loc 1 1457 13 is_stmt 0 view .LVU1440
.LBE1054:
.LBE1053:
.LBE1052:
.LBE1051:
	.loc 1 1467 1 view .LVU1441
	add	sp, sp, #20
	.cfi_remember_state
	.cfi_def_cfa_offset 36
	@ sp needed
	pop	{r4, r5, r6, r7, r8, r9, r10, fp, pc}
.LVL278:
.L277:
	.cfi_restore_state
.LBB1149:
.LBB1148:
.LBB1147:
.LBB1146:
.LBB1137:
.LBB1063:
	.loc 1 707 12 view .LVU1442
	orr	r4, r4, #128
.LVL279:
	.loc 1 707 12 view .LVU1443
.LBE1063:
.LBE1137:
	.loc 1 1368 13 is_stmt 1 view .LVU1444
	.loc 1 1368 41 is_stmt 0 view .LVU1445
	mov	r0, r4
	bl	ep_state_access
.LVL280:
	.loc 1 1380 37 view .LVU1446
	ldr	r3, [r0]
	ldrh	r2, [r0, #12]
	ldr	r1, [r0, #4]
	.loc 1 1368 41 view .LVU1447
	mov	r10, r0
.LVL281:
	.loc 1 1370 13 is_stmt 1 view .LVU1448
	.loc 1 1371 12 view .LVU1449
	.loc 1 1373 13 view .LVU1450
	.loc 1 1375 15 view .LVU1451
	.loc 1 1375 16 view .LVU1452
	.loc 1 1377 13 view .LVU1453
	.loc 1 1380 17 view .LVU1454
	.loc 1 1380 37 is_stmt 0 view .LVU1455
	add	r0, sp, #8
.LVL282:
	.loc 1 1380 37 view .LVU1456
	blx	r3
.LVL283:
	b	.L278
.LVL284:
.L303:
.LBB1138:
	.loc 1 1405 22 is_stmt 1 view .LVU1457
	.loc 1 1405 25 is_stmt 0 view .LVU1458
	ldr	r3, [sp, #12]
	cmp	fp, r3
	bls	.L278
.LBB1068:
	.loc 1 1407 21 is_stmt 1 view .LVU1459
.LBB1066:
	.loc 1 1407 26 view .LVU1460
.LBE1066:
	.loc 1 1407 24 view .LVU1461
	.loc 1 1408 21 view .LVU1462
	.loc 1 1408 37 is_stmt 0 view .LVU1463
	movs	r7, #2
	.loc 1 1409 28 view .LVU1464
	mov	r0, r9
.LVL285:
	.loc 1 1408 37 view .LVU1465
	strb	r7, [r10, #14]
	.loc 1 1409 21 is_stmt 1 view .LVU1466
	.loc 1 1409 28 is_stmt 0 view .LVU1467
	bl	atomic_and.constprop.0.isra.0
.LVL286:
	.loc 1 1410 21 is_stmt 1 view .LVU1468
	.loc 1 1410 43 is_stmt 0 view .LVU1469
	movs	r3, #6
	strb	r3, [sp, #4]
	.loc 1 1411 21 view .LVU1470
	ldr	r3, .L307+24
	.loc 1 1410 43 view .LVU1471
	strb	r4, [sp, #6]
	.loc 1 1411 21 view .LVU1472
	ldr	r3, [r3]
	.loc 1 1410 43 view .LVU1473
	strb	r7, [sp, #7]
	.loc 1 1411 21 is_stmt 1 view .LVU1474
	add	r0, sp, #4
	blx	r3
.LVL287:
	.loc 1 1413 21 view .LVU1475
	b	.L273
.LVL288:
.L285:
	.loc 1 1413 21 is_stmt 0 view .LVU1476
.LBE1068:
.LBE1138:
.LBB1139:
.LBB1096:
.LBB1093:
.LBB1091:
.LBB1089:
	.loc 3 1421 13 is_stmt 1 view .LVU1477
	.loc 3 1422 13 view .LVU1478
	.loc 3 1422 35 is_stmt 0 view .LVU1479
	movs	r6, #20
	mla	r3, r6, r4, r3
	str	r5, [r3, #1536]
	.loc 3 1423 13 is_stmt 1 view .LVU1480
	.loc 3 1423 38 is_stmt 0 view .LVU1481
	str	r1, [r3, #1540]
.LVL289:
	.loc 3 1423 38 view .LVU1482
.LBE1089:
.LBE1091:
.LBE1093:
.LBE1096:
.LBE1139:
	.loc 1 1441 13 is_stmt 1 view .LVU1483
.LBB1140:
	.loc 1 751 20 view .LVU1484
.LBB1116:
	.loc 1 753 5 view .LVU1485
.LBB1113:
	.loc 1 654 31 view .LVU1486
.LBB1104:
	.loc 1 656 7 view .LVU1487
	.loc 1 656 8 view .LVU1488
	.loc 1 656 9 view .LVU1489
	.loc 1 657 5 view .LVU1490
	b	.L286
.LVL290:
.L284:
	.loc 1 657 5 is_stmt 0 view .LVU1491
.LBE1104:
.LBE1113:
.LBE1116:
.LBE1140:
.LBB1141:
.LBB1097:
	.loc 3 1428 9 is_stmt 1 view .LVU1492
	.loc 3 1428 12 is_stmt 0 view .LVU1493
	cbz	r0, .L288
	.loc 3 1430 13 is_stmt 1 view .LVU1494
	.loc 3 1430 31 is_stmt 0 view .LVU1495
	str	r5, [r3, #1952]
	.loc 3 1431 13 is_stmt 1 view .LVU1496
	.loc 3 1431 34 is_stmt 0 view .LVU1497
	str	r1, [r3, #1956]
.LVL291:
	.loc 3 1431 34 view .LVU1498
.LBE1097:
.LBE1141:
	.loc 1 1441 13 is_stmt 1 view .LVU1499
.LBB1142:
	.loc 1 751 20 view .LVU1500
.LBB1117:
	.loc 1 753 5 view .LVU1501
.LBB1114:
	.loc 1 654 31 view .LVU1502
.LBB1105:
	.loc 1 656 7 view .LVU1503
	.loc 1 656 8 view .LVU1504
	.loc 1 656 9 view .LVU1505
	.loc 1 657 5 view .LVU1506
.L289:
	.loc 1 657 12 is_stmt 0 view .LVU1507
	movs	r3, #40
	b	.L287
.LVL292:
.L288:
	.loc 1 657 12 view .LVU1508
.LBE1105:
.LBE1114:
.LBE1117:
.LBE1142:
.LBB1143:
.LBB1098:
.LBB1094:
	.loc 3 1435 13 is_stmt 1 view .LVU1509
	.loc 3 1436 13 view .LVU1510
	.loc 3 1436 36 is_stmt 0 view .LVU1511
	movs	r6, #20
	mla	r3, r6, r4, r3
	str	r5, [r3, #1792]
	.loc 3 1437 13 is_stmt 1 view .LVU1512
	.loc 3 1437 39 is_stmt 0 view .LVU1513
	str	r1, [r3, #1796]
.LVL293:
	.loc 3 1437 39 view .LVU1514
.LBE1094:
.LBE1098:
.LBE1143:
	.loc 1 1441 13 is_stmt 1 view .LVU1515
.LBB1144:
	.loc 1 751 20 view .LVU1516
.LBB1118:
	.loc 1 753 5 view .LVU1517
.LBB1115:
	.loc 1 654 31 view .LVU1518
.LBB1106:
	.loc 1 656 7 view .LVU1519
	.loc 1 656 8 view .LVU1520
	.loc 1 656 9 view .LVU1521
	.loc 1 657 5 view .LVU1522
	b	.L289
.LVL294:
.L292:
	.loc 1 657 5 is_stmt 0 view .LVU1523
.LBE1106:
.LBE1115:
.LBE1118:
.LBE1144:
.LBB1145:
.LBB1135:
.LBB1133:
	.loc 3 1454 13 is_stmt 1 view .LVU1524
	.loc 3 1455 13 view .LVU1525
	.loc 3 1455 17 is_stmt 0 view .LVU1526
	movs	r2, #20
	mla	r3, r2, r4, r3
	ldr	r3, [r3, #1544]
.LVL295:
	.loc 3 1455 17 view .LVU1527
	b	.L293
.LVL296:
.L291:
	.loc 3 1455 17 view .LVU1528
.LBE1133:
	.loc 3 1460 9 is_stmt 1 view .LVU1529
	.loc 3 1460 12 is_stmt 0 view .LVU1530
	cbz	r0, .L294
	.loc 3 1462 13 is_stmt 1 view .LVU1531
	.loc 3 1462 17 is_stmt 0 view .LVU1532
	ldr	r3, [r3, #1960]
.LVL297:
	.loc 3 1462 17 view .LVU1533
	b	.L293
.LVL298:
.L294:
.LBB1134:
	.loc 3 1466 13 is_stmt 1 view .LVU1534
	.loc 3 1467 13 view .LVU1535
	.loc 3 1467 17 is_stmt 0 view .LVU1536
	movs	r2, #20
	mla	r3, r2, r4, r3
	ldr	r3, [r3, #1800]
.LVL299:
	.loc 3 1467 17 view .LVU1537
	b	.L293
.L308:
	.align	2
.L307:
	.word	m_dma_pending
	.word	m_ep_ready
	.word	1073901568
	.word	epout_endev.2
	.word	epin_endev.3
	.word	m_dma_odd
	.word	m_event_handler
	.word	m_ep_dma_waiting
.LBE1134:
.LBE1135:
.LBE1145:
.LBE1146:
.LBE1147:
.LBE1148:
.LBE1149:
	.cfi_endproc
.LFE839:
	.size	usbd_dmareq_process, .-usbd_dmareq_process
	.section	.text.ev_epdata_handler,"ax",%progbits
	.align	1
	.syntax unified
	.thumb
	.thumb_func
	.type	ev_epdata_handler, %function
ev_epdata_handler:
.LFB836:
	.loc 1 1282 1 is_stmt 1 view -0
	.cfi_startproc
	@ args = 0, pretend = 0, frame = 0
	@ frame_needed = 0, uses_anonymous_args = 0
	.loc 1 1284 5 view .LVU1539
.LVL300:
.LBB1163:
.LBI1163:
	.loc 3 1171 24 view .LVU1540
.LBB1164:
	.loc 3 1173 5 view .LVU1541
	.loc 3 1174 5 view .LVU1542
.LBB1165:
.LBI1165:
	.loc 3 1161 24 view .LVU1543
.LBB1166:
	.loc 3 1163 5 view .LVU1544
.LBE1166:
.LBE1165:
.LBE1164:
.LBE1163:
	.loc 1 1282 1 is_stmt 0 view .LVU1545
	push	{r3, r4, r5, lr}
	.cfi_def_cfa_offset 16
	.cfi_offset 3, -16
	.cfi_offset 4, -12
	.cfi_offset 5, -8
	.cfi_offset 14, -4
.LBB1172:
.LBB1171:
.LBB1168:
.LBB1167:
	.loc 3 1163 17 view .LVU1546
	ldr	r3, .L314
	ldr	r4, [r3, #1132]
.LVL301:
	.loc 3 1163 17 view .LVU1547
.LBE1167:
.LBE1168:
	.loc 3 1175 5 is_stmt 1 view .LVU1548
.LBB1169:
.LBI1169:
	.loc 3 1166 20 view .LVU1549
.LBB1170:
	.loc 3 1168 5 view .LVU1550
	.loc 3 1168 25 is_stmt 0 view .LVU1551
	str	r4, [r3, #1132]
.LVL302:
	.loc 3 1168 25 view .LVU1552
.LBE1170:
.LBE1169:
	.loc 3 1176 5 is_stmt 1 view .LVU1553
	.loc 3 1176 5 is_stmt 0 view .LVU1554
.LBE1171:
.LBE1172:
	.loc 1 1285 5 is_stmt 1 view .LVU1555
.LBB1173:
	.loc 1 1285 10 view .LVU1556
.LBE1173:
	.loc 1 1285 8 view .LVU1557
	.loc 1 1288 5 view .LVU1558
.LBB1174:
	.loc 1 1292 31 is_stmt 0 view .LVU1559
	movs	r5, #1
.LVL303:
.L310:
	.loc 1 1292 31 view .LVU1560
.LBE1174:
	.loc 1 1288 12 is_stmt 1 view .LVU1561
	cbnz	r4, .L313
	.loc 1 1296 5 view .LVU1562
	.loc 1 1299 9 view .LVU1563
	.loc 1 1301 1 is_stmt 0 view .LVU1564
	pop	{r3, r4, r5, lr}
	.cfi_remember_state
	.cfi_restore 14
	.cfi_restore 5
	.cfi_restore 4
	.cfi_restore 3
	.cfi_def_cfa_offset 0
.LVL304:
	.loc 1 1299 9 view .LVU1565
	b	usbd_dmareq_process
.LVL305:
.L313:
	.cfi_restore_state
.LBB1179:
	.loc 1 1290 9 is_stmt 1 view .LVU1566
	.loc 1 1290 35 is_stmt 0 view .LVU1567
	rbit	r3, r4
	clz	r3, r3
.LBB1175:
.LBB1176:
	.loc 1 707 12 view .LVU1568
	cmp	r3, #15
	it	gt
	subgt	r0, r3, #16
.LBE1176:
.LBE1175:
	.loc 1 1290 17 view .LVU1569
	mov	r1, r3
.LVL306:
	.loc 1 1291 9 is_stmt 1 view .LVU1570
.LBB1178:
.LBI1175:
	.loc 1 704 30 view .LVU1571
.LBB1177:
	.loc 1 706 5 view .LVU1572
	.loc 1 707 5 view .LVU1573
	.loc 1 707 12 is_stmt 0 view .LVU1574
	ite	le
	orrle	r0, r3, #128
.LVL307:
	.loc 1 707 12 view .LVU1575
	uxtbgt	r0, r0
.LVL308:
	.loc 1 707 12 view .LVU1576
.LBE1177:
.LBE1178:
	.loc 1 1292 9 is_stmt 1 view .LVU1577
	.loc 1 1292 31 is_stmt 0 view .LVU1578
	lsl	r3, r5, r3
.LVL309:
	.loc 1 1292 22 view .LVU1579
	bic	r4, r4, r3
.LVL310:
	.loc 1 1294 9 is_stmt 1 view .LVU1580
	bl	usbd_ep_data_handler
.LVL311:
	.loc 1 1294 9 is_stmt 0 view .LVU1581
	b	.L310
.L315:
	.align	2
.L314:
	.word	1073901568
.LBE1179:
	.cfi_endproc
.LFE836:
	.size	ev_epdata_handler, .-ev_epdata_handler
	.section	.text.nrf_usbd_epout_dma_handler,"ax",%progbits
	.align	1
	.syntax unified
	.thumb
	.thumb_func
	.type	nrf_usbd_epout_dma_handler, %function
nrf_usbd_epout_dma_handler:
.LVL312:
.LFB811:
	.loc 1 1040 1 is_stmt 1 view -0
	.cfi_startproc
	@ args = 0, pretend = 0, frame = 8
	@ frame_needed = 0, uses_anonymous_args = 0
	.loc 1 1041 5 view .LVU1583
.LBB1180:
	.loc 1 1041 10 view .LVU1584
.LBE1180:
	.loc 1 1041 8 view .LVU1585
	.loc 1 1042 7 view .LVU1586
	.loc 1 1042 8 view .LVU1587
	.loc 1 1043 7 view .LVU1588
	.loc 1 1043 8 view .LVU1589
	.loc 1 1044 7 view .LVU1590
	.loc 1 1044 8 view .LVU1591
	.loc 1 1045 5 view .LVU1592
	.loc 1 1040 1 is_stmt 0 view .LVU1593
	push	{r0, r1, r2, r4, r5, lr}
	.cfi_def_cfa_offset 24
	.cfi_offset 4, -12
	.cfi_offset 5, -8
	.cfi_offset 14, -4
	.loc 1 1045 5 view .LVU1594
	bl	usbd_dma_pending_clear
.LVL313:
	.loc 1 1047 5 is_stmt 1 view .LVU1595
	.loc 1 1040 1 is_stmt 0 view .LVU1596
	mov	r4, r0
	.loc 1 1047 33 view .LVU1597
	bl	ep_state_access
.LVL314:
	.loc 1 1048 5 is_stmt 1 view .LVU1598
	.loc 1 1048 8 is_stmt 0 view .LVU1599
	ldrb	r3, [r0, #14]	@ zero_extendqisi2
	cmp	r3, #3
	bne	.L317
	.loc 1 1051 9 is_stmt 1 view .LVU1600
	.loc 1 1051 54 is_stmt 0 view .LVU1601
	mov	r0, r4
.LVL315:
	.loc 1 1051 54 view .LVU1602
	bl	ep2bit
.LVL316:
	.loc 1 1051 51 view .LVU1603
	movs	r3, #1
	lsl	r0, r3, r0
	.loc 1 1051 16 view .LVU1604
	mvns	r0, r0
	bl	atomic_and.constprop.0.isra.0
.LVL317:
.L318:
	.loc 1 1063 5 is_stmt 1 view .LVU1605
	.loc 1 1067 5 view .LVU1606
	.loc 1 1069 1 is_stmt 0 view .LVU1607
	add	sp, sp, #12
	.cfi_remember_state
	.cfi_def_cfa_offset 12
	@ sp needed
	pop	{r4, r5, lr}
	.cfi_restore 14
	.cfi_restore 5
	.cfi_restore 4
	.cfi_def_cfa_offset 0
	.loc 1 1067 5 view .LVU1608
	b	usbd_dmareq_process
.LVL318:
.L317:
	.cfi_restore_state
	.loc 1 1053 10 is_stmt 1 view .LVU1609
	.loc 1 1053 13 is_stmt 0 view .LVU1610
	ldr	r5, [r0]
	cmp	r5, #0
	bne	.L318
.LBB1181:
	.loc 1 1055 9 is_stmt 1 view .LVU1611
	.loc 1 1055 54 is_stmt 0 view .LVU1612
	mov	r0, r4
.LVL319:
	.loc 1 1055 54 view .LVU1613
	bl	ep2bit
.LVL320:
	.loc 1 1055 51 view .LVU1614
	movs	r3, #1
	lsl	r0, r3, r0
	.loc 1 1055 16 view .LVU1615
	mvns	r0, r0
	bl	atomic_and.constprop.0.isra.0
.LVL321:
	.loc 1 1057 9 is_stmt 1 view .LVU1616
	.loc 1 1057 31 is_stmt 0 view .LVU1617
	movs	r3, #6
	strb	r3, [sp, #4]
	.loc 1 1058 9 view .LVU1618
	ldr	r3, .L319
	.loc 1 1057 31 view .LVU1619
	strb	r4, [sp, #6]
	.loc 1 1058 9 view .LVU1620
	ldr	r3, [r3]
	.loc 1 1057 31 view .LVU1621
	strb	r5, [sp, #7]
	.loc 1 1058 9 is_stmt 1 view .LVU1622
	add	r0, sp, #4
	blx	r3
.LVL322:
.LBE1181:
	b	.L318
.L320:
	.align	2
.L319:
	.word	m_event_handler
	.cfi_endproc
.LFE811:
	.size	nrf_usbd_epout_dma_handler, .-nrf_usbd_epout_dma_handler
	.section	.text.ev_dma_epout7_handler,"ax",%progbits
	.align	1
	.syntax unified
	.thumb
	.thumb_func
	.type	ev_dma_epout7_handler, %function
ev_dma_epout7_handler:
.LFB829:
	.loc 1 1119 41 view -0
	.cfi_startproc
	@ args = 0, pretend = 0, frame = 0
	@ frame_needed = 0, uses_anonymous_args = 0
	@ link register save eliminated.
	.loc 1 1119 43 view .LVU1624
	movs	r0, #7
	b	nrf_usbd_epout_dma_handler
.LVL323:
	.cfi_endproc
.LFE829:
	.size	ev_dma_epout7_handler, .-ev_dma_epout7_handler
	.section	.text.ev_dma_epout6_handler,"ax",%progbits
	.align	1
	.syntax unified
	.thumb
	.thumb_func
	.type	ev_dma_epout6_handler, %function
ev_dma_epout6_handler:
.LFB828:
	.loc 1 1118 41 view -0
	.cfi_startproc
	@ args = 0, pretend = 0, frame = 0
	@ frame_needed = 0, uses_anonymous_args = 0
	@ link register save eliminated.
	.loc 1 1118 43 view .LVU1626
	movs	r0, #6
	b	nrf_usbd_epout_dma_handler
.LVL324:
	.cfi_endproc
.LFE828:
	.size	ev_dma_epout6_handler, .-ev_dma_epout6_handler
	.section	.text.ev_dma_epout5_handler,"ax",%progbits
	.align	1
	.syntax unified
	.thumb
	.thumb_func
	.type	ev_dma_epout5_handler, %function
ev_dma_epout5_handler:
.LFB827:
	.loc 1 1117 41 view -0
	.cfi_startproc
	@ args = 0, pretend = 0, frame = 0
	@ frame_needed = 0, uses_anonymous_args = 0
	@ link register save eliminated.
	.loc 1 1117 43 view .LVU1628
	movs	r0, #5
	b	nrf_usbd_epout_dma_handler
.LVL325:
	.cfi_endproc
.LFE827:
	.size	ev_dma_epout5_handler, .-ev_dma_epout5_handler
	.section	.text.ev_dma_epout4_handler,"ax",%progbits
	.align	1
	.syntax unified
	.thumb
	.thumb_func
	.type	ev_dma_epout4_handler, %function
ev_dma_epout4_handler:
.LFB826:
	.loc 1 1116 41 view -0
	.cfi_startproc
	@ args = 0, pretend = 0, frame = 0
	@ frame_needed = 0, uses_anonymous_args = 0
	@ link register save eliminated.
	.loc 1 1116 43 view .LVU1630
	movs	r0, #4
	b	nrf_usbd_epout_dma_handler
.LVL326:
	.cfi_endproc
.LFE826:
	.size	ev_dma_epout4_handler, .-ev_dma_epout4_handler
	.section	.text.ev_dma_epout3_handler,"ax",%progbits
	.align	1
	.syntax unified
	.thumb
	.thumb_func
	.type	ev_dma_epout3_handler, %function
ev_dma_epout3_handler:
.LFB825:
	.loc 1 1115 41 view -0
	.cfi_startproc
	@ args = 0, pretend = 0, frame = 0
	@ frame_needed = 0, uses_anonymous_args = 0
	@ link register save eliminated.
	.loc 1 1115 43 view .LVU1632
	movs	r0, #3
	b	nrf_usbd_epout_dma_handler
.LVL327:
	.cfi_endproc
.LFE825:
	.size	ev_dma_epout3_handler, .-ev_dma_epout3_handler
	.section	.text.ev_dma_epout2_handler,"ax",%progbits
	.align	1
	.syntax unified
	.thumb
	.thumb_func
	.type	ev_dma_epout2_handler, %function
ev_dma_epout2_handler:
.LFB824:
	.loc 1 1114 41 view -0
	.cfi_startproc
	@ args = 0, pretend = 0, frame = 0
	@ frame_needed = 0, uses_anonymous_args = 0
	@ link register save eliminated.
	.loc 1 1114 43 view .LVU1634
	movs	r0, #2
	b	nrf_usbd_epout_dma_handler
.LVL328:
	.cfi_endproc
.LFE824:
	.size	ev_dma_epout2_handler, .-ev_dma_epout2_handler
	.section	.text.ev_dma_epout1_handler,"ax",%progbits
	.align	1
	.syntax unified
	.thumb
	.thumb_func
	.type	ev_dma_epout1_handler, %function
ev_dma_epout1_handler:
.LFB823:
	.loc 1 1113 41 view -0
	.cfi_startproc
	@ args = 0, pretend = 0, frame = 0
	@ frame_needed = 0, uses_anonymous_args = 0
	@ link register save eliminated.
	.loc 1 1113 43 view .LVU1636
	movs	r0, #1
	b	nrf_usbd_epout_dma_handler
.LVL329:
	.cfi_endproc
.LFE823:
	.size	ev_dma_epout1_handler, .-ev_dma_epout1_handler
	.section	.text.nrfx_usbd_ep_is_busy,"ax",%progbits
	.align	1
	.global	nrfx_usbd_ep_is_busy
	.syntax unified
	.thumb
	.thumb_func
	.type	nrfx_usbd_ep_is_busy, %function
nrfx_usbd_ep_is_busy:
.LVL330:
.LFB875:
	.loc 1 2243 1 view -0
	.cfi_startproc
	@ args = 0, pretend = 0, frame = 0
	@ frame_needed = 0, uses_anonymous_args = 0
	.loc 1 2244 5 view .LVU1638
	.loc 1 2243 1 is_stmt 0 view .LVU1639
	push	{r3, lr}
	.cfi_def_cfa_offset 8
	.cfi_offset 3, -8
	.cfi_offset 14, -4
	.loc 1 2244 54 view .LVU1640
	ldr	r3, .L329
	.loc 1 2244 41 view .LVU1641
	ldr	r2, [r3]
	.loc 1 2244 37 view .LVU1642
	ldr	r3, .L329+4
	.loc 1 2244 41 view .LVU1643
	mvns	r2, r2
	.loc 1 2244 37 view .LVU1644
	ldr	r3, [r3]
	.loc 1 2244 54 view .LVU1645
	uxth	r2, r2
	.loc 1 2244 37 view .LVU1646
	orrs	r2, r2, r3
	.loc 1 2244 82 view .LVU1647
	bl	ep2bit
.LVL331:
	.loc 1 2244 79 view .LVU1648
	movs	r3, #1
	lsls	r3, r3, r0
	.loc 1 2244 15 view .LVU1649
	tst	r3, r2
	.loc 1 2245 1 view .LVU1650
	ite	ne
	movne	r0, #1
	moveq	r0, #0
	pop	{r3, pc}
.L330:
	.align	2
.L329:
	.word	m_ep_ready
	.word	m_ep_dma_waiting
	.cfi_endproc
.LFE875:
	.size	nrfx_usbd_ep_is_busy, .-nrfx_usbd_ep_is_busy
	.section	.text.nrfx_usbd_ep_stall,"ax",%progbits
	.align	1
	.global	nrfx_usbd_ep_stall
	.syntax unified
	.thumb
	.thumb_func
	.type	nrfx_usbd_ep_stall, %function
nrfx_usbd_ep_stall:
.LVL332:
.LFB876:
	.loc 1 2248 1 is_stmt 1 view -0
	.cfi_startproc
	@ args = 0, pretend = 0, frame = 0
	@ frame_needed = 0, uses_anonymous_args = 0
	@ link register save eliminated.
	.loc 1 2249 5 view .LVU1652
.LBB1182:
	.loc 1 2249 10 view .LVU1653
.LBE1182:
	.loc 1 2249 8 view .LVU1654
	.loc 1 2250 5 view .LVU1655
.LBB1183:
.LBI1183:
	.loc 3 1350 20 view .LVU1656
.LBB1184:
	.loc 3 1352 7 view .LVU1657
	.loc 3 1352 8 view .LVU1658
	.loc 3 1353 5 view .LVU1659
	.loc 3 1353 20 is_stmt 0 view .LVU1660
	ldr	r3, .L332
	.loc 3 1353 39 view .LVU1661
	orr	r0, r0, #256
.LVL333:
	.loc 3 1353 20 view .LVU1662
	str	r0, [r3, #1304]
.LVL334:
	.loc 3 1353 20 view .LVU1663
.LBE1184:
.LBE1183:
	.loc 1 2251 1 view .LVU1664
	bx	lr
.L333:
	.align	2
.L332:
	.word	1073901568
	.cfi_endproc
.LFE876:
	.size	nrfx_usbd_ep_stall, .-nrfx_usbd_ep_stall
	.section	.text.nrfx_usbd_ep_stall_check,"ax",%progbits
	.align	1
	.global	nrfx_usbd_ep_stall_check
	.syntax unified
	.thumb
	.thumb_func
	.type	nrfx_usbd_ep_stall_check, %function
nrfx_usbd_ep_stall_check:
.LVL335:
.LFB878:
	.loc 1 2263 1 is_stmt 1 view -0
	.cfi_startproc
	@ args = 0, pretend = 0, frame = 0
	@ frame_needed = 0, uses_anonymous_args = 0
	@ link register save eliminated.
	.loc 1 2264 5 view .LVU1666
.LBB1189:
.LBI1189:
	.loc 3 1136 23 view .LVU1667
.LBB1190:
	.loc 3 1138 5 view .LVU1668
	.loc 3 1138 8 is_stmt 0 view .LVU1669
	lsls	r2, r0, #28
	bmi	.L338
	.loc 3 1140 5 is_stmt 1 view .LVU1670
.LVL336:
.LBB1191:
.LBI1191:
	.loc 3 1123 24 view .LVU1671
.LBB1192:
	.loc 3 1125 5 view .LVU1672
	.loc 3 1126 5 view .LVU1673
	.loc 3 1128 34 is_stmt 0 view .LVU1674
	and	r3, r0, #15
	.loc 3 1126 8 view .LVU1675
	tst	r0, #128
	ldr	r2, .L339
	.loc 3 1128 9 is_stmt 1 view .LVU1676
	.loc 3 1132 35 is_stmt 0 view .LVU1677
	itete	eq
	addeq	r3, r3, #272
	.loc 3 1128 34 view .LVU1678
	addne	r3, r3, #264
	.loc 3 1132 35 view .LVU1679
	addeq	r2, r2, r3, lsl #2
	.loc 3 1128 34 view .LVU1680
	ldrne	r0, [r2, r3, lsl #2]
.LVL337:
	.loc 3 1132 9 is_stmt 1 view .LVU1681
	.loc 3 1132 35 is_stmt 0 view .LVU1682
	it	eq
	ldreq	r0, [r2, #4]
.LVL338:
	.loc 3 1132 35 view .LVU1683
.LBE1192:
.LBE1191:
	.loc 3 1140 18 view .LVU1684
	subs	r3, r0, #1
	rsbs	r0, r3, #0
	adcs	r0, r0, r3
	bx	lr
.LVL339:
.L338:
	.loc 3 1139 15 view .LVU1685
	movs	r0, #0
.LVL340:
	.loc 3 1139 15 view .LVU1686
.LBE1190:
.LBE1189:
	.loc 1 2265 1 view .LVU1687
	bx	lr
.L340:
	.align	2
.L339:
	.word	1073901568
	.cfi_endproc
.LFE878:
	.size	nrfx_usbd_ep_stall_check, .-nrfx_usbd_ep_stall_check
	.section	.text.nrfx_usbd_ep_dtoggle_clear,"ax",%progbits
	.align	1
	.global	nrfx_usbd_ep_dtoggle_clear
	.syntax unified
	.thumb
	.thumb_func
	.type	nrfx_usbd_ep_dtoggle_clear, %function
nrfx_usbd_ep_dtoggle_clear:
.LVL341:
.LFB879:
	.loc 1 2268 1 is_stmt 1 view -0
	.cfi_startproc
	@ args = 0, pretend = 0, frame = 0
	@ frame_needed = 0, uses_anonymous_args = 0
	@ link register save eliminated.
	.loc 1 2269 5 view .LVU1689
.LBB1193:
.LBI1193:
	.loc 3 1273 20 view .LVU1690
.LBB1194:
	.loc 3 1277 7 view .LVU1691
	.loc 3 1277 8 view .LVU1692
	.loc 3 1278 7 view .LVU1693
	.loc 3 1278 8 view .LVU1694
	.loc 3 1279 5 view .LVU1695
	.loc 3 1279 20 is_stmt 0 view .LVU1696
	ldr	r3, .L342
	str	r0, [r3, #1292]
	.loc 3 1280 5 is_stmt 1 view .LVU1697
	.loc 3 1280 25 is_stmt 0 view .LVU1698
	orr	r0, r0, #256
.LVL342:
	.loc 3 1280 20 view .LVU1699
	str	r0, [r3, #1292]
	.loc 3 1281 5 is_stmt 1 view .LVU1700
	ldr	r3, [r3, #1292]
.LVL343:
	.loc 3 1281 5 is_stmt 0 view .LVU1701
.LBE1194:
.LBE1193:
	.loc 1 2270 1 view .LVU1702
	bx	lr
.L343:
	.align	2
.L342:
	.word	1073901568
	.cfi_endproc
.LFE879:
	.size	nrfx_usbd_ep_dtoggle_clear, .-nrfx_usbd_ep_dtoggle_clear
	.section	.text.nrfx_usbd_setup_get,"ax",%progbits
	.align	1
	.global	nrfx_usbd_setup_get
	.syntax unified
	.thumb
	.thumb_func
	.type	nrfx_usbd_setup_get, %function
nrfx_usbd_setup_get:
.LVL344:
.LFB880:
	.loc 1 2273 1 is_stmt 1 view -0
	.cfi_startproc
	@ args = 0, pretend = 0, frame = 0
	@ frame_needed = 0, uses_anonymous_args = 0
	@ link register save eliminated.
	.loc 1 2274 4 view .LVU1704
.LBB1195:
.LBI1195:
	.file 10 "/home/g/zephyr-sdk-0.16.3/arm-zephyr-eabi/picolibc/include/ssp/string.h"
	.loc 10 86 189 view .LVU1705
.LBB1196:
	.loc 10 86 238 view .LVU1706
	.loc 10 86 245 is_stmt 0 view .LVU1707
	movs	r3, #0
	str	r3, [r0]	@ unaligned
	str	r3, [r0, #4]	@ unaligned
.LVL345:
	.loc 10 86 245 view .LVU1708
.LBE1196:
.LBE1195:
	.loc 1 2275 5 is_stmt 1 view .LVU1709
.LBB1197:
.LBI1197:
	.loc 3 1179 23 view .LVU1710
.LBB1198:
	.loc 3 1181 5 view .LVU1711
	.loc 3 1181 27 is_stmt 0 view .LVU1712
	ldr	r3, .L345
	ldr	r2, [r3, #1152]
.LVL346:
	.loc 3 1181 12 view .LVU1713
	strb	r2, [r0]
.LBE1198:
.LBE1197:
	.loc 1 2276 5 is_stmt 1 view .LVU1714
.LVL347:
.LBB1199:
.LBI1199:
	.loc 3 1184 23 view .LVU1715
.LBB1200:
	.loc 3 1186 5 view .LVU1716
	.loc 3 1186 27 is_stmt 0 view .LVU1717
	ldr	r2, [r3, #1156]
.LVL348:
	.loc 3 1186 12 view .LVU1718
	strb	r2, [r0, #1]
.LBE1200:
.LBE1199:
	.loc 1 2277 5 is_stmt 1 view .LVU1719
.LVL349:
.LBB1201:
.LBI1201:
	.loc 3 1189 24 view .LVU1720
.LBB1202:
	.loc 3 1191 5 view .LVU1721
	.loc 3 1191 41 is_stmt 0 view .LVU1722
	ldr	r2, [r3, #1160]
.LVL350:
	.loc 3 1192 5 is_stmt 1 view .LVU1723
	.loc 3 1192 36 is_stmt 0 view .LVU1724
	ldr	r1, [r3, #1164]
.LVL351:
	.loc 3 1192 12 view .LVU1725
	orr	r2, r2, r1, lsl #8
.LBE1202:
.LBE1201:
	.loc 1 2277 21 view .LVU1726
	strh	r2, [r0, #2]	@ movhi
	.loc 1 2278 5 is_stmt 1 view .LVU1727
.LVL352:
.LBB1203:
.LBI1203:
	.loc 3 1195 24 view .LVU1728
.LBB1204:
	.loc 3 1197 5 view .LVU1729
	.loc 3 1197 41 is_stmt 0 view .LVU1730
	ldr	r2, [r3, #1168]
.LVL353:
	.loc 3 1198 5 is_stmt 1 view .LVU1731
	.loc 3 1198 36 is_stmt 0 view .LVU1732
	ldr	r1, [r3, #1172]
.LVL354:
	.loc 3 1198 12 view .LVU1733
	orr	r2, r2, r1, lsl #8
.LBE1204:
.LBE1203:
	.loc 1 2278 21 view .LVU1734
	strh	r2, [r0, #4]	@ movhi
	.loc 1 2279 5 is_stmt 1 view .LVU1735
.LVL355:
.LBB1205:
.LBI1205:
	.loc 3 1201 24 view .LVU1736
.LBB1206:
	.loc 3 1203 5 view .LVU1737
	.loc 3 1203 41 is_stmt 0 view .LVU1738
	ldr	r2, [r3, #1176]
.LVL356:
	.loc 3 1204 5 is_stmt 1 view .LVU1739
	.loc 3 1204 36 is_stmt 0 view .LVU1740
	ldr	r3, [r3, #1180]
.LVL357:
	.loc 3 1204 12 view .LVU1741
	orr	r3, r2, r3, lsl #8
.LBE1206:
.LBE1205:
	.loc 1 2279 22 view .LVU1742
	strh	r3, [r0, #6]	@ movhi
	.loc 1 2280 1 view .LVU1743
	bx	lr
.L346:
	.align	2
.L345:
	.word	1073901568
	.cfi_endproc
.LFE880:
	.size	nrfx_usbd_setup_get, .-nrfx_usbd_setup_get
	.section	.text.nrfx_usbd_setup_data_clear,"ax",%progbits
	.align	1
	.global	nrfx_usbd_setup_data_clear
	.syntax unified
	.thumb
	.thumb_func
	.type	nrfx_usbd_setup_data_clear, %function
nrfx_usbd_setup_data_clear:
.LFB881:
	.loc 1 2283 1 is_stmt 1 view -0
	.cfi_startproc
	@ args = 0, pretend = 0, frame = 0
	@ frame_needed = 0, uses_anonymous_args = 0
	@ link register save eliminated.
	.loc 1 2284 5 view .LVU1745
.LVL358:
.LBB1207:
.LBI1207:
	.loc 3 322 20 view .LVU1746
.LBB1208:
	.loc 3 324 5 view .LVU1747
	.loc 3 324 50 is_stmt 0 view .LVU1748
	ldr	r3, .L348
	movs	r2, #1
	str	r2, [r3, #76]
	.loc 3 325 5 is_stmt 1 view .LVU1749
	ldr	r3, [r3, #76]
.LVL359:
	.loc 3 325 5 is_stmt 0 view .LVU1750
.LBE1208:
.LBE1207:
	.loc 1 2285 1 view .LVU1751
	bx	lr
.L349:
	.align	2
.L348:
	.word	1073901568
	.cfi_endproc
.LFE881:
	.size	nrfx_usbd_setup_data_clear, .-nrfx_usbd_setup_data_clear
	.section	.text.ev_dma_epout0_handler,"ax",%progbits
	.align	1
	.syntax unified
	.thumb
	.thumb_func
	.type	ev_dma_epout0_handler, %function
ev_dma_epout0_handler:
.LFB822:
	.loc 1 1112 41 is_stmt 1 view -0
	.cfi_startproc
	@ args = 0, pretend = 0, frame = 8
	@ frame_needed = 0, uses_anonymous_args = 0
	.loc 1 1112 43 view .LVU1753
.LBB1216:
.LBI1216:
	.loc 1 1007 20 view .LVU1754
.LBB1217:
	.loc 1 1009 5 view .LVU1755
.LVL360:
	.loc 1 1010 5 view .LVU1756
.LBB1218:
	.loc 1 1010 10 view .LVU1757
.LBE1218:
	.loc 1 1010 8 view .LVU1758
	.loc 1 1011 5 view .LVU1759
.LBE1217:
.LBE1216:
	.loc 1 1112 41 is_stmt 0 view .LVU1760
	push	{r0, r1, r4, lr}
	.cfi_def_cfa_offset 16
	.cfi_offset 4, -8
	.cfi_offset 14, -4
.LBB1224:
.LBB1220:
	.loc 1 1011 5 view .LVU1761
	bl	usbd_dma_pending_clear
.LVL361:
	.loc 1 1013 5 is_stmt 1 view .LVU1762
	.loc 1 1014 5 view .LVU1763
	.loc 1 1014 40 is_stmt 0 view .LVU1764
	ldr	r3, .L355
	.loc 1 1014 8 view .LVU1765
	ldrb	r2, [r3, #14]	@ zero_extendqisi2
	cmp	r2, #3
	bne	.L351
	.loc 1 1017 9 is_stmt 1 view .LVU1766
	.loc 1 1017 16 is_stmt 0 view .LVU1767
	mvn	r0, #65536
.LBE1220:
.LBE1224:
	.loc 1 1112 74 view .LVU1768
	add	sp, sp, #8
	.cfi_remember_state
	.cfi_def_cfa_offset 8
	@ sp needed
	pop	{r4, lr}
	.cfi_restore 14
	.cfi_restore 4
	.cfi_def_cfa_offset 0
.LBB1225:
.LBB1221:
	.loc 1 1017 16 view .LVU1769
	b	atomic_and.constprop.0.isra.0
.LVL362:
.L351:
	.cfi_restore_state
	.loc 1 1019 10 is_stmt 1 view .LVU1770
	.loc 1 1019 13 is_stmt 0 view .LVU1771
	ldr	r4, [r3]
	cbnz	r4, .L352
.LBB1219:
	.loc 1 1021 9 is_stmt 1 view .LVU1772
	.loc 1 1021 16 is_stmt 0 view .LVU1773
	mvn	r0, #65536
	bl	atomic_and.constprop.0.isra.0
.LVL363:
	.loc 1 1023 9 is_stmt 1 view .LVU1774
	.loc 1 1023 31 is_stmt 0 view .LVU1775
	movs	r3, #6
	strb	r3, [sp, #4]
	.loc 1 1024 9 view .LVU1776
	ldr	r3, .L355+4
	.loc 1 1023 31 view .LVU1777
	strh	r4, [sp, #6]	@ movhi
	.loc 1 1024 9 is_stmt 1 view .LVU1778
	ldr	r3, [r3]
	add	r0, sp, #4
	blx	r3
.LVL364:
.LBE1219:
.LBE1221:
.LBE1225:
	.loc 1 1112 74 is_stmt 0 view .LVU1779
	add	sp, sp, #8
	.cfi_remember_state
	.cfi_def_cfa_offset 8
	@ sp needed
	pop	{r4, pc}
.L352:
	.cfi_restore_state
.LBB1226:
.LBB1222:
	.loc 1 1028 9 is_stmt 1 view .LVU1780
.LBE1222:
.LBE1226:
	.loc 1 1112 74 is_stmt 0 view .LVU1781
	add	sp, sp, #8
	.cfi_def_cfa_offset 8
	@ sp needed
	pop	{r4, lr}
	.cfi_restore 14
	.cfi_restore 4
	.cfi_def_cfa_offset 0
.LBB1227:
.LBB1223:
	.loc 1 1028 9 view .LVU1782
	b	nrfx_usbd_setup_data_clear
.LVL365:
.L356:
	.align	2
.L355:
	.word	m_ep_state
	.word	m_event_handler
.LBE1223:
.LBE1227:
	.cfi_endproc
.LFE822:
	.size	ev_dma_epout0_handler, .-ev_dma_epout0_handler
	.section	.text.nrfx_usbd_setup_clear,"ax",%progbits
	.align	1
	.global	nrfx_usbd_setup_clear
	.syntax unified
	.thumb
	.thumb_func
	.type	nrfx_usbd_setup_clear, %function
nrfx_usbd_setup_clear:
.LFB882:
	.loc 1 2288 1 is_stmt 1 view -0
	.cfi_startproc
	@ args = 0, pretend = 0, frame = 0
	@ frame_needed = 0, uses_anonymous_args = 0
	@ link register save eliminated.
	.loc 1 2289 5 view .LVU1784
.LBB1228:
	.loc 1 2289 10 view .LVU1785
.LBE1228:
	.loc 1 2289 8 view .LVU1786
	.loc 1 2290 5 view .LVU1787
.LVL366:
.LBB1229:
.LBI1229:
	.loc 3 322 20 view .LVU1788
.LBB1230:
	.loc 3 324 5 view .LVU1789
	.loc 3 324 50 is_stmt 0 view .LVU1790
	ldr	r3, .L358
	movs	r2, #1
	str	r2, [r3, #80]
	.loc 3 325 5 is_stmt 1 view .LVU1791
	ldr	r3, [r3, #80]
.LVL367:
	.loc 3 325 5 is_stmt 0 view .LVU1792
.LBE1230:
.LBE1229:
	.loc 1 2291 1 view .LVU1793
	bx	lr
.L359:
	.align	2
.L358:
	.word	1073901568
	.cfi_endproc
.LFE882:
	.size	nrfx_usbd_setup_clear, .-nrfx_usbd_setup_clear
	.section	.text.nrfx_usbd_setup_stall,"ax",%progbits
	.align	1
	.global	nrfx_usbd_setup_stall
	.syntax unified
	.thumb
	.thumb_func
	.type	nrfx_usbd_setup_stall, %function
nrfx_usbd_setup_stall:
.LFB883:
	.loc 1 2294 1 is_stmt 1 view -0
	.cfi_startproc
	@ args = 0, pretend = 0, frame = 0
	@ frame_needed = 0, uses_anonymous_args = 0
	@ link register save eliminated.
	.loc 1 2295 5 view .LVU1795
.LBB1231:
	.loc 1 2295 10 view .LVU1796
.LBE1231:
	.loc 1 2295 8 view .LVU1797
	.loc 1 2296 5 view .LVU1798
.LVL368:
.LBB1232:
.LBI1232:
	.loc 3 322 20 view .LVU1799
.LBB1233:
	.loc 3 324 5 view .LVU1800
	.loc 3 324 50 is_stmt 0 view .LVU1801
	ldr	r3, .L361
	movs	r2, #1
	str	r2, [r3, #84]
	.loc 3 325 5 is_stmt 1 view .LVU1802
	ldr	r3, [r3, #84]
.LVL369:
	.loc 3 325 5 is_stmt 0 view .LVU1803
.LBE1233:
.LBE1232:
	.loc 1 2297 1 view .LVU1804
	bx	lr
.L362:
	.align	2
.L361:
	.word	1073901568
	.cfi_endproc
.LFE883:
	.size	nrfx_usbd_setup_stall, .-nrfx_usbd_setup_stall
	.section	.text.nrfx_usbd_last_setup_dir_get,"ax",%progbits
	.align	1
	.global	nrfx_usbd_last_setup_dir_get
	.syntax unified
	.thumb
	.thumb_func
	.type	nrfx_usbd_last_setup_dir_get, %function
nrfx_usbd_last_setup_dir_get:
.LFB884:
	.loc 1 2300 1 is_stmt 1 view -0
	.cfi_startproc
	@ args = 0, pretend = 0, frame = 0
	@ frame_needed = 0, uses_anonymous_args = 0
	@ link register save eliminated.
	.loc 1 2301 5 view .LVU1806
	.loc 1 2302 1 is_stmt 0 view .LVU1807
	ldr	r3, .L364
	ldrb	r0, [r3]	@ zero_extendqisi2
	bx	lr
.L365:
	.align	2
.L364:
	.word	m_last_setup_dir
	.cfi_endproc
.LFE884:
	.size	nrfx_usbd_last_setup_dir_get, .-nrfx_usbd_last_setup_dir_get
	.section	.text.nrfx_usbd_transfer_out_drop,"ax",%progbits
	.align	1
	.global	nrfx_usbd_transfer_out_drop
	.syntax unified
	.thumb
	.thumb_func
	.type	nrfx_usbd_transfer_out_drop, %function
nrfx_usbd_transfer_out_drop:
.LVL370:
.LFB885:
	.loc 1 2305 1 is_stmt 1 view -0
	.cfi_startproc
	@ args = 0, pretend = 0, frame = 0
	@ frame_needed = 0, uses_anonymous_args = 0
	.loc 1 2306 7 view .LVU1809
	.loc 1 2306 8 view .LVU1810
.LBB1241:
	.loc 1 2308 7 view .LVU1811
.LBB1242:
.LBI1242:
	.loc 4 42 59 view .LVU1812
.LBB1243:
	.loc 4 44 2 view .LVU1813
	.loc 4 57 2 view .LVU1814
	.loc 4 59 2 view .LVU1815
.LBE1243:
.LBE1242:
.LBE1241:
	.loc 1 2305 1 is_stmt 0 view .LVU1816
	push	{r4, lr}
	.cfi_def_cfa_offset 8
	.cfi_offset 4, -8
	.cfi_offset 14, -4
	.loc 1 2305 1 view .LVU1817
	mov	r2, r0
.LBB1250:
.LBB1245:
.LBB1244:
	.loc 4 59 2 view .LVU1818
	.syntax unified
@ 59 "/home/g/mise-work/zmk-firmware/zmk/zephyr/include/zephyr/arch/arm/asm_inline_gcc.h" 1
	mov r3, #32;mrs r4, BASEPRI;msr BASEPRI_MAX, r3;isb;
@ 0 "" 2
.LVL371:
	.loc 4 88 2 is_stmt 1 view .LVU1819
	.loc 4 88 2 is_stmt 0 view .LVU1820
	.thumb
	.syntax unified
.LBE1244:
.LBE1245:
	.loc 1 2308 51 is_stmt 1 view .LVU1821
	.loc 1 2309 5 view .LVU1822
	.loc 1 2309 27 is_stmt 0 view .LVU1823
	bl	ep2bit
.LVL372:
	.loc 1 2309 16 view .LVU1824
	ldr	r1, .L368
	.loc 1 2309 24 view .LVU1825
	movs	r3, #1
	lsl	r0, r3, r0
	.loc 1 2309 16 view .LVU1826
	ldr	r3, [r1]
	bic	r3, r3, r0
	str	r3, [r1]
	.loc 1 2310 5 is_stmt 1 view .LVU1827
	.loc 1 2310 8 is_stmt 0 view .LVU1828
	ands	r1, r2, #8
	bne	.L367
	.loc 1 2312 9 is_stmt 1 view .LVU1829
.LVL373:
.LBB1246:
.LBI1246:
	.loc 3 1244 20 view .LVU1830
.LBB1247:
	.loc 3 1246 7 view .LVU1831
	.loc 3 1246 8 view .LVU1832
	.loc 3 1247 5 view .LVU1833
	and	r3, r2, #15
	lsls	r3, r3, #2
	add	r3, r3, #1073741824
	add	r3, r3, #159744
	.loc 3 1247 60 is_stmt 0 view .LVU1834
	str	r1, [r3, #1184]
	.loc 3 1248 5 is_stmt 1 view .LVU1835
	ldr	r3, [r3, #1184]
.LVL374:
.L367:
	.loc 3 1248 5 is_stmt 0 view .LVU1836
.LBE1247:
.LBE1246:
	.loc 1 2314 5 is_stmt 1 view .LVU1837
.LBB1248:
.LBI1248:
	.loc 4 96 51 view .LVU1838
.LBB1249:
	.loc 4 107 2 view .LVU1839
	.syntax unified
@ 107 "/home/g/mise-work/zmk-firmware/zmk/zephyr/include/zephyr/arch/arm/asm_inline_gcc.h" 1
	msr BASEPRI, r4;isb;
@ 0 "" 2
.LVL375:
	.loc 4 107 2 is_stmt 0 view .LVU1840
	.thumb
	.syntax unified
.LBE1249:
.LBE1248:
.LBE1250:
	.loc 1 2314 37 is_stmt 1 view .LVU1841
	.loc 1 2315 1 is_stmt 0 view .LVU1842
	pop	{r4, pc}
.L369:
	.align	2
.L368:
	.word	m_ep_ready
	.cfi_endproc
.LFE885:
	.size	nrfx_usbd_transfer_out_drop, .-nrfx_usbd_transfer_out_drop
	.section	.text.usbd_ep_abort,"ax",%progbits
	.align	1
	.syntax unified
	.thumb
	.thumb_func
	.type	usbd_ep_abort, %function
usbd_ep_abort:
.LVL376:
.LFB801:
	.loc 1 780 1 is_stmt 1 view -0
	.cfi_startproc
	@ args = 0, pretend = 0, frame = 8
	@ frame_needed = 0, uses_anonymous_args = 0
.LBB1251:
	.loc 1 781 7 view .LVU1844
.LBB1252:
.LBI1252:
	.loc 4 42 59 view .LVU1845
.LBB1253:
	.loc 4 44 2 view .LVU1846
	.loc 4 57 2 view .LVU1847
	.loc 4 59 2 view .LVU1848
.LBE1253:
.LBE1252:
.LBE1251:
	.loc 1 780 1 is_stmt 0 view .LVU1849
	push	{r0, r1, r2, r4, r5, r6, r7, lr}
	.cfi_def_cfa_offset 32
	.cfi_offset 4, -20
	.cfi_offset 5, -16
	.cfi_offset 6, -12
	.cfi_offset 7, -8
	.cfi_offset 14, -4
	.loc 1 780 1 view .LVU1850
	mov	r1, r0
.LBB1262:
.LBB1255:
.LBB1254:
	.loc 4 59 2 view .LVU1851
	.syntax unified
@ 59 "/home/g/mise-work/zmk-firmware/zmk/zephyr/include/zephyr/arch/arm/asm_inline_gcc.h" 1
	mov r3, #32;mrs r5, BASEPRI;msr BASEPRI_MAX, r3;isb;
@ 0 "" 2
.LVL377:
	.loc 4 88 2 is_stmt 1 view .LVU1852
	.loc 4 88 2 is_stmt 0 view .LVU1853
	.thumb
	.syntax unified
.LBE1254:
.LBE1255:
	.loc 1 781 51 is_stmt 1 view .LVU1854
	.loc 1 783 5 view .LVU1855
	.loc 1 783 33 is_stmt 0 view .LVU1856
	bl	ep_state_access
.LVL378:
	.loc 1 783 33 view .LVU1857
	mov	r6, r0
.LVL379:
	.loc 1 785 5 is_stmt 1 view .LVU1858
	.loc 1 788 42 is_stmt 0 view .LVU1859
	mov	r0, r1
.LVL380:
	.loc 1 788 42 view .LVU1860
	bl	ep2bit
.LVL381:
	.loc 1 788 39 view .LVU1861
	movs	r2, #1
	.loc 1 785 8 view .LVU1862
	tst	r1, #128
	.loc 1 788 39 view .LVU1863
	lsl	r2, r2, r0
	ldr	r0, .L381
	.loc 1 785 8 view .LVU1864
	bne	.L371
	.loc 1 788 9 is_stmt 1 view .LVU1865
	.loc 1 788 14 is_stmt 0 view .LVU1866
	ldr	r3, [r0]
	.loc 1 788 12 view .LVU1867
	bics	r3, r2, r3
	beq	.L372
	.loc 1 792 13 is_stmt 1 view .LVU1868
	mov	r0, r1
	bl	nrfx_usbd_transfer_out_drop
.LVL382:
.L373:
	.loc 1 801 9 view .LVU1869
	.loc 1 801 25 is_stmt 0 view .LVU1870
	movs	r3, #3
	strb	r3, [r6, #14]
.L374:
	.loc 1 837 5 is_stmt 1 view .LVU1871
.LVL383:
.LBB1256:
.LBI1256:
	.loc 4 96 51 view .LVU1872
.LBB1257:
	.loc 4 107 2 view .LVU1873
	.syntax unified
@ 107 "/home/g/mise-work/zmk-firmware/zmk/zephyr/include/zephyr/arch/arm/asm_inline_gcc.h" 1
	msr BASEPRI, r5;isb;
@ 0 "" 2
.LVL384:
	.loc 4 107 2 is_stmt 0 view .LVU1874
	.thumb
	.syntax unified
.LBE1257:
.LBE1256:
.LBE1262:
	.loc 1 837 37 is_stmt 1 view .LVU1875
	.loc 1 838 1 is_stmt 0 view .LVU1876
	add	sp, sp, #12
	.cfi_remember_state
	.cfi_def_cfa_offset 20
	@ sp needed
	pop	{r4, r5, r6, r7, pc}
.LVL385:
.L372:
	.cfi_restore_state
.LBB1263:
	.loc 1 796 13 is_stmt 1 view .LVU1877
	.loc 1 796 39 is_stmt 0 view .LVU1878
	str	r3, [r6]
	.loc 1 797 13 is_stmt 1 view .LVU1879
	.loc 1 797 30 is_stmt 0 view .LVU1880
	ldr	r3, [r0]
	.loc 1 798 24 view .LVU1881
	ldr	r1, .L381+4
	.loc 1 797 30 view .LVU1882
	bic	r3, r3, r2
	str	r3, [r0]
	.loc 1 798 13 is_stmt 1 view .LVU1883
	.loc 1 798 24 is_stmt 0 view .LVU1884
	ldr	r3, [r1]
	bic	r3, r3, r2
	str	r3, [r1]
	b	.L373
.L371:
	.loc 1 805 9 is_stmt 1 view .LVU1885
	.loc 1 805 11 is_stmt 0 view .LVU1886
	lsls	r3, r1, #28
	bmi	.L375
	.loc 1 808 13 is_stmt 1 view .LVU1887
	.loc 1 808 15 is_stmt 0 view .LVU1888
	cmp	r1, #128
	ldr	r3, .L381+8
	beq	.L376
.LBB1258:
	.loc 1 810 17 is_stmt 1 view .LVU1889
	.loc 1 810 103 is_stmt 0 view .LVU1890
	and	r4, r1, #15
	addw	r4, r4, #986
	lsls	r4, r4, #1
	.loc 1 810 95 view .LVU1891
	str	r4, [r3, #2048]
	.loc 1 811 17 is_stmt 1 view .LVU1892
	.loc 1 811 41 is_stmt 0 view .LVU1893
	ldr	r4, [r3, #2052]
	.loc 1 813 17 view .LVU1894
	ldr	r7, [r3, #2052]
	.loc 1 811 25 view .LVU1895
	uxtb	r4, r4
.LVL386:
	.loc 1 812 17 is_stmt 1 view .LVU1896
	.loc 1 813 17 view .LVU1897
	.loc 1 813 95 is_stmt 0 view .LVU1898
	orr	r4, r4, #2
.LVL387:
.L380:
	.loc 1 813 95 view .LVU1899
.LBE1258:
.LBB1259:
	.loc 1 821 95 view .LVU1900
	orrs	r4, r4, r7
	str	r4, [r3, #2052]
	.loc 1 822 17 is_stmt 1 view .LVU1901
	ldr	r3, [r3, #2052]
.L375:
.LBE1259:
	.loc 1 825 9 view .LVU1902
	.loc 1 825 34 is_stmt 0 view .LVU1903
	ldr	r7, .L381+4
	.loc 1 825 31 view .LVU1904
	ldr	r4, [r0]
	.loc 1 825 34 view .LVU1905
	ldr	r3, [r7]
	.loc 1 825 31 view .LVU1906
	orn	ip, r4, r3
	.loc 1 825 12 view .LVU1907
	tst	ip, r2
	beq	.L374
.LBB1260:
	.loc 1 828 13 is_stmt 1 view .LVU1908
	.loc 1 829 24 is_stmt 0 view .LVU1909
	orrs	r3, r3, r2
	.loc 1 828 30 view .LVU1910
	bic	r4, r4, r2
	.loc 1 829 24 view .LVU1911
	str	r3, [r7]
	.loc 1 831 37 view .LVU1912
	movs	r3, #0
	.loc 1 828 30 view .LVU1913
	str	r4, [r0]
	.loc 1 829 13 is_stmt 1 view .LVU1914
	.loc 1 831 13 view .LVU1915
	.loc 1 831 37 is_stmt 0 view .LVU1916
	str	r3, [r6]
	.loc 1 832 13 is_stmt 1 view .LVU1917
	.loc 1 832 29 is_stmt 0 view .LVU1918
	movs	r3, #3
	strb	r3, [r6, #14]
	.loc 1 833 13 is_stmt 1 view .LVU1919
	.loc 1 833 35 is_stmt 0 view .LVU1920
	strb	r3, [sp, #7]
	.loc 1 834 13 is_stmt 1 view .LVU1921
	ldr	r3, .L381+12
	.loc 1 833 35 is_stmt 0 view .LVU1922
	strb	r1, [sp, #6]
	movs	r2, #6
	.loc 1 834 13 view .LVU1923
	ldr	r3, [r3]
	.loc 1 833 35 view .LVU1924
	strb	r2, [sp, #4]
	.loc 1 834 13 view .LVU1925
	add	r0, sp, #4
	blx	r3
.LVL388:
	b	.L374
.L376:
	.loc 1 834 13 view .LVU1926
.LBE1260:
.LBB1261:
	.loc 1 818 17 is_stmt 1 view .LVU1927
	.loc 1 818 95 is_stmt 0 view .LVU1928
	movw	r4, #1972
	str	r4, [r3, #2048]
	.loc 1 819 17 is_stmt 1 view .LVU1929
	.loc 1 819 41 is_stmt 0 view .LVU1930
	ldr	r4, [r3, #2052]
	.loc 1 821 17 view .LVU1931
	ldr	r7, [r3, #2052]
	.loc 1 819 25 view .LVU1932
	uxtb	r4, r4
.LVL389:
	.loc 1 820 17 is_stmt 1 view .LVU1933
	.loc 1 821 17 view .LVU1934
	.loc 1 821 95 is_stmt 0 view .LVU1935
	orr	r4, r4, #4
.LVL390:
	.loc 1 821 95 view .LVU1936
	b	.L380
.L382:
	.align	2
.L381:
	.word	m_ep_dma_waiting
	.word	m_ep_ready
	.word	1073901568
	.word	m_event_handler
.LBE1261:
.LBE1263:
	.cfi_endproc
.LFE801:
	.size	usbd_ep_abort, .-usbd_ep_abort
	.section	.text.nrfx_usbd_ep_abort,"ax",%progbits
	.align	1
	.global	nrfx_usbd_ep_abort
	.syntax unified
	.thumb
	.thumb_func
	.type	nrfx_usbd_ep_abort, %function
nrfx_usbd_ep_abort:
.LVL391:
.LFB802:
	.loc 1 841 1 is_stmt 1 view -0
	.cfi_startproc
	@ args = 0, pretend = 0, frame = 0
	@ frame_needed = 0, uses_anonymous_args = 0
	@ link register save eliminated.
	.loc 1 842 5 view .LVU1938
	b	usbd_ep_abort
.LVL392:
	.loc 1 842 5 is_stmt 0 view .LVU1939
	.cfi_endproc
.LFE802:
	.size	nrfx_usbd_ep_abort, .-nrfx_usbd_ep_abort
	.section	.text.ev_setup_handler,"ax",%progbits
	.align	1
	.syntax unified
	.thumb
	.thumb_func
	.type	ev_setup_handler, %function
ev_setup_handler:
.LFB834:
	.loc 1 1202 1 is_stmt 1 view -0
	.cfi_startproc
	@ args = 0, pretend = 0, frame = 8
	@ frame_needed = 0, uses_anonymous_args = 0
	.loc 1 1203 5 view .LVU1941
.LBB1264:
	.loc 1 1203 10 view .LVU1942
.LBE1264:
	.loc 1 1203 8 view .LVU1943
	.loc 1 1209 5 view .LVU1944
.LVL393:
.LBB1265:
.LBI1265:
	.loc 3 1179 23 view .LVU1945
.LBB1266:
	.loc 3 1181 5 view .LVU1946
.LBE1266:
.LBE1265:
	.loc 1 1202 1 is_stmt 0 view .LVU1947
	push	{r0, r1, r4, r5, r6, lr}
	.cfi_def_cfa_offset 24
	.cfi_offset 4, -16
	.cfi_offset 5, -12
	.cfi_offset 6, -8
	.cfi_offset 14, -4
.LBB1269:
.LBB1267:
	.loc 3 1181 27 view .LVU1948
	ldr	r3, .L389
.LBE1267:
.LBE1269:
	.loc 1 1211 44 view .LVU1949
	ldr	r4, .L389+4
.LBB1270:
.LBB1268:
	.loc 3 1181 27 view .LVU1950
	ldr	r5, [r3, #1152]
.LVL394:
	.loc 3 1181 27 view .LVU1951
.LBE1268:
.LBE1270:
	.loc 1 1211 5 is_stmt 1 view .LVU1952
	.loc 1 1211 31 is_stmt 0 view .LVU1953
	ldr	r3, [r4]
	.loc 1 1212 17 view .LVU1954
	ldr	r6, .L389+8
	.loc 1 1211 31 view .LVU1955
	mvns	r2, r3
	.loc 1 1211 27 view .LVU1956
	ldr	r3, .L389+12
	.loc 1 1212 17 view .LVU1957
	ldrb	r1, [r6]	@ zero_extendqisi2
	.loc 1 1211 27 view .LVU1958
	ldr	r3, [r3]
	.loc 1 1211 44 view .LVU1959
	uxth	r2, r2
	.loc 1 1212 17 view .LVU1960
	mov	r0, r1
	.loc 1 1211 27 view .LVU1961
	orrs	r2, r2, r3
	.loc 1 1212 17 view .LVU1962
	bl	ep2bit
.LVL395:
	.loc 1 1212 15 view .LVU1963
	movs	r3, #1
	lsls	r3, r3, r0
	.loc 1 1211 8 view .LVU1964
	tst	r3, r2
	beq	.L385
	.loc 1 1214 9 is_stmt 1 discriminator 285 view .LVU1965
.LBB1271:
	.loc 1 1214 14 discriminator 285 view .LVU1966
.LBE1271:
	.loc 1 1214 12 discriminator 285 view .LVU1967
	.loc 1 1215 9 discriminator 285 view .LVU1968
	mov	r0, r1
	bl	usbd_ep_abort
.LVL396:
.L385:
	.loc 1 1218 5 view .LVU1969
	.loc 1 1221 26 is_stmt 0 view .LVU1970
	bic	r5, r5, #127
.LVL397:
	.loc 1 1223 12 view .LVU1971
	mvn	r0, #65537
	.loc 1 1218 22 view .LVU1972
	strb	r5, [r6]
	.loc 1 1223 5 is_stmt 1 view .LVU1973
	.loc 1 1223 12 is_stmt 0 view .LVU1974
	bl	atomic_and.constprop.0.isra.0
.LVL398:
	.loc 1 1226 5 is_stmt 1 view .LVU1975
	.loc 1 1226 16 is_stmt 0 view .LVU1976
	ldr	r3, [r4]
	orr	r3, r3, #1
	str	r3, [r4]
	.loc 1 1229 5 is_stmt 1 view .LVU1977
	.loc 1 1229 27 is_stmt 0 view .LVU1978
	movs	r3, #5
	str	r3, [sp, #4]
	.loc 1 1232 5 is_stmt 1 view .LVU1979
	ldr	r3, .L389+16
	add	r0, sp, #4
	ldr	r3, [r3]
	blx	r3
.LVL399:
	.loc 1 1233 1 is_stmt 0 view .LVU1980
	add	sp, sp, #8
	.cfi_def_cfa_offset 16
	@ sp needed
	pop	{r4, r5, r6, pc}
.L390:
	.align	2
.L389:
	.word	1073901568
	.word	m_ep_ready
	.word	m_last_setup_dir
	.word	m_ep_dma_waiting
	.word	m_event_handler
	.cfi_endproc
.LFE834:
	.size	ev_setup_handler, .-ev_setup_handler
	.section	.text.nrfx_usbd_irq_handler,"ax",%progbits
	.align	1
	.global	nrfx_usbd_irq_handler
	.syntax unified
	.thumb
	.thumb_func
	.type	nrfx_usbd_irq_handler, %function
nrfx_usbd_irq_handler:
.LFB846:
	.loc 1 1629 1 is_stmt 1 view -0
	.cfi_startproc
	@ args = 0, pretend = 0, frame = 0
	@ frame_needed = 0, uses_anonymous_args = 0
	.loc 1 1630 5 view .LVU1982
.LVL400:
.LBB1286:
.LBI1286:
	.loc 3 394 24 view .LVU1983
.LBB1287:
	.loc 3 396 5 view .LVU1984
.LBE1287:
.LBE1286:
	.loc 1 1629 1 is_stmt 0 view .LVU1985
	push	{r4, r5, r6, r7, r8, lr}
	.cfi_def_cfa_offset 24
	.cfi_offset 4, -24
	.cfi_offset 5, -20
	.cfi_offset 6, -16
	.cfi_offset 7, -12
	.cfi_offset 8, -8
	.cfi_offset 14, -4
.LBB1289:
.LBB1288:
	.loc 3 396 17 view .LVU1986
	ldr	r3, .L401
	ldr	r0, [r3, #772]
.LVL401:
	.loc 3 396 17 view .LVU1987
.LBE1288:
.LBE1289:
	.loc 1 1631 5 is_stmt 1 view .LVU1988
	.loc 1 1632 5 view .LVU1989
	.loc 1 1635 5 view .LVU1990
	.loc 1 1632 14 is_stmt 0 view .LVU1991
	movs	r3, #0
.LBB1290:
	.loc 1 1641 27 view .LVU1992
	movs	r4, #1
.LBB1291:
.LBB1292:
.LBB1293:
.LBB1294:
	.loc 3 336 51 view .LVU1993
	mov	r5, r3
.LVL402:
.L392:
	.loc 3 336 51 view .LVU1994
.LBE1294:
.LBE1293:
.LBE1292:
.LBE1291:
.LBE1290:
	.loc 1 1635 12 is_stmt 1 view .LVU1995
	cbnz	r0, .L394
	.loc 1 1647 4 view .LVU1996
.LBB1317:
	.loc 1 1653 14 is_stmt 0 view .LVU1997
	ldr	r7, .L401+4
.LBE1317:
	.loc 1 1647 37 view .LVU1998
	and	r6, r3, #8388608
.LVL403:
	.loc 1 1648 5 is_stmt 1 view .LVU1999
	.loc 1 1648 12 is_stmt 0 view .LVU2000
	bic	r4, r3, #8388608
.LVL404:
	.loc 1 1650 5 is_stmt 1 view .LVU2001
.LBB1318:
	.loc 1 1654 25 is_stmt 0 view .LVU2002
	mov	r8, #1
.LVL405:
.L395:
	.loc 1 1654 25 view .LVU2003
.LBE1318:
	.loc 1 1650 12 is_stmt 1 view .LVU2004
	cbnz	r4, .L396
	.loc 1 1656 5 view .LVU2005
	bl	usbd_dmareq_process
.LVL406:
	.loc 1 1658 5 view .LVU2006
	.loc 1 1658 8 is_stmt 0 view .LVU2007
	cbz	r6, .L391
	.loc 1 1660 9 is_stmt 1 view .LVU2008
	.loc 1 1662 1 is_stmt 0 view .LVU2009
	pop	{r4, r5, r6, r7, r8, lr}
	.cfi_remember_state
	.cfi_restore 14
	.cfi_restore 8
	.cfi_restore 7
	.cfi_restore 6
	.cfi_restore 5
	.cfi_restore 4
	.cfi_def_cfa_offset 0
.LVL407:
	.loc 1 1660 9 view .LVU2010
	b	ev_setup_handler
.LVL408:
.L394:
	.cfi_restore_state
.LBB1319:
	.loc 1 1637 9 is_stmt 1 view .LVU2011
	.loc 1 1637 37 is_stmt 0 view .LVU2012
	rbit	r2, r0
	clz	r2, r2
.LVL409:
	.loc 1 1638 9 is_stmt 1 view .LVU2013
.LBB1310:
.LBI1310:
	.loc 8 669 24 view .LVU2014
.LBB1311:
	.loc 8 671 5 view .LVU2015
	.loc 8 672 5 view .LVU2016
	.loc 8 672 5 is_stmt 0 view .LVU2017
.LBE1311:
.LBE1310:
.LBB1313:
.LBI1291:
	.loc 3 345 23 is_stmt 1 view .LVU2018
.LBB1307:
	.loc 3 347 4 view .LVU2019
.LBB1296:
.LBI1296:
	.loc 3 340 23 view .LVU2020
.LBB1297:
	.loc 3 342 5 view .LVU2021
.LBB1298:
.LBI1298:
	.loc 3 312 40 view .LVU2022
.LBB1299:
	.loc 3 315 5 view .LVU2023
	.loc 3 315 12 is_stmt 0 view .LVU2024
	ldr	r1, .L401+8
.LBE1299:
.LBE1298:
.LBE1297:
.LBE1296:
.LBE1307:
.LBE1313:
.LBB1314:
.LBB1312:
	.loc 8 672 29 view .LVU2025
	lsls	r6, r2, #2
.LBE1312:
.LBE1314:
.LBB1315:
.LBB1308:
.LBB1304:
.LBB1302:
.LBB1301:
.LBB1300:
	.loc 3 315 12 view .LVU2026
	add	r1, r1, r6
.LVL410:
	.loc 3 315 12 view .LVU2027
.LBE1300:
.LBE1301:
.LBE1302:
.LBE1304:
.LBE1308:
.LBE1315:
	.loc 1 1641 27 view .LVU2028
	lsl	r2, r4, r2
.LVL411:
.LBB1316:
.LBB1309:
.LBB1305:
.LBB1303:
	.loc 3 342 17 view .LVU2029
	ldr	r6, [r1]
.LVL412:
	.loc 3 342 17 view .LVU2030
.LBE1303:
.LBE1305:
	.loc 3 348 5 is_stmt 1 view .LVU2031
	.loc 3 348 8 is_stmt 0 view .LVU2032
	cbz	r6, .L393
	.loc 3 350 9 is_stmt 1 view .LVU2033
.LVL413:
.LBB1306:
.LBI1293:
	.loc 3 334 20 view .LVU2034
.LBB1295:
	.loc 3 336 5 view .LVU2035
	.loc 3 336 51 is_stmt 0 view .LVU2036
	str	r5, [r1]
	.loc 3 337 5 is_stmt 1 view .LVU2037
	ldr	r1, [r1]
.LVL414:
	.loc 3 337 5 is_stmt 0 view .LVU2038
.LBE1295:
.LBE1306:
	.loc 3 352 5 is_stmt 1 view .LVU2039
	.loc 3 352 5 is_stmt 0 view .LVU2040
.LBE1309:
.LBE1316:
	.loc 1 1641 13 is_stmt 1 view .LVU2041
	.loc 1 1641 20 is_stmt 0 view .LVU2042
	orrs	r3, r3, r2
.LVL415:
.L393:
	.loc 1 1643 9 is_stmt 1 view .LVU2043
	.loc 1 1643 20 is_stmt 0 view .LVU2044
	bic	r0, r0, r2
.LVL416:
	.loc 1 1643 20 view .LVU2045
	b	.L392
.LVL417:
.L396:
	.loc 1 1643 20 view .LVU2046
.LBE1319:
.LBB1320:
	.loc 1 1652 9 is_stmt 1 view .LVU2047
	.loc 1 1652 37 is_stmt 0 view .LVU2048
	rbit	r5, r4
	clz	r5, r5
.LVL418:
	.loc 1 1653 9 is_stmt 1 view .LVU2049
	ldr	r3, [r7, r5, lsl #2]
	.loc 1 1654 25 is_stmt 0 view .LVU2050
	lsl	r5, r8, r5
.LVL419:
	.loc 1 1653 9 view .LVU2051
	blx	r3
.LVL420:
	.loc 1 1654 9 is_stmt 1 view .LVU2052
	.loc 1 1654 16 is_stmt 0 view .LVU2053
	bic	r4, r4, r5
.LVL421:
	.loc 1 1654 16 view .LVU2054
	b	.L395
.LVL422:
.L391:
	.loc 1 1654 16 view .LVU2055
.LBE1320:
	.loc 1 1662 1 view .LVU2056
	pop	{r4, r5, r6, r7, r8, pc}
.LVL423:
.L402:
	.loc 1 1662 1 view .LVU2057
	.align	2
.L401:
	.word	1073901568
	.word	m_isr
	.word	1073901824
	.cfi_endproc
.LFE846:
	.size	nrfx_usbd_irq_handler, .-nrfx_usbd_irq_handler
	.section	.text.nrfx_usbd_stop,"ax",%progbits
	.align	1
	.global	nrfx_usbd_stop
	.syntax unified
	.thumb
	.thumb_func
	.type	nrfx_usbd_stop, %function
nrfx_usbd_stop:
.LFB853:
	.loc 1 1852 1 is_stmt 1 view -0
	.cfi_startproc
	@ args = 0, pretend = 0, frame = 0
	@ frame_needed = 0, uses_anonymous_args = 0
	.loc 1 1853 7 view .LVU2059
	.loc 1 1853 8 view .LVU2060
	.loc 1 1856 5 view .LVU2061
.LVL424:
.LBB1336:
.LBI1336:
	.loc 9 1775 20 view .LVU2062
.LBB1337:
	.loc 9 1777 3 view .LVU2063
	.loc 9 1779 5 view .LVU2064
.LBE1337:
.LBE1336:
	.loc 1 1852 1 is_stmt 0 view .LVU2065
	push	{r3, r4, r5, r6, r7, lr}
	.cfi_def_cfa_offset 24
	.cfi_offset 3, -24
	.cfi_offset 4, -20
	.cfi_offset 5, -16
	.cfi_offset 6, -12
	.cfi_offset 7, -8
	.cfi_offset 14, -4
.LBB1339:
.LBB1338:
	.loc 9 1779 83 view .LVU2066
	ldr	r3, .L413
	movs	r2, #128
	str	r2, [r3, #388]
.LVL425:
	.loc 9 1779 83 view .LVU2067
.LBE1338:
.LBE1339:
	.loc 1 1858 5 is_stmt 1 view .LVU2068
	.loc 1 1858 9 is_stmt 0 view .LVU2069
	movs	r0, #39
	bl	arch_irq_is_enabled
.LVL426:
	.loc 1 1858 8 view .LVU2070
	cbz	r0, .L403
.LBB1340:
.LBI1340:
	.loc 1 1851 6 is_stmt 1 view .LVU2071
.LBB1341:
	.loc 1 1861 9 view .LVU2072
.LBB1342:
.LBI1342:
	.loc 1 851 13 view .LVU2073
.LBB1343:
	.loc 1 853 5 view .LVU2074
	.loc 1 853 58 is_stmt 0 view .LVU2075
	ldr	r6, .L413+4
	.loc 1 853 44 view .LVU2076
	ldr	r3, .L413+8
	.loc 1 853 58 view .LVU2077
	ldr	r4, [r6]
	.loc 1 853 14 view .LVU2078
	ldr	r3, [r3]
	.loc 1 853 58 view .LVU2079
	lsrs	r4, r4, #16
	lsls	r4, r4, #16
	.loc 1 853 14 view .LVU2080
	orrs	r4, r4, r3
.LVL427:
	.loc 1 854 5 is_stmt 1 view .LVU2081
.LBB1344:
	.loc 1 861 28 is_stmt 0 view .LVU2082
	movs	r7, #1
.L405:
	.loc 1 861 28 view .LVU2083
.LBE1344:
	.loc 1 854 14 is_stmt 1 view .LVU2084
	cbnz	r4, .L409
	.loc 1 864 5 view .LVU2085
.LBE1343:
.LBE1342:
.LBB1352:
.LBB1353:
	.loc 3 1259 22 is_stmt 0 view .LVU2086
	ldr	r5, .L413+12
.LBE1353:
.LBE1352:
.LBB1356:
.LBB1350:
	.loc 1 864 16 view .LVU2087
	movw	r3, #511
	str	r3, [r6]
.LVL428:
	.loc 1 864 16 view .LVU2088
.LBE1350:
.LBE1356:
	.loc 1 1864 9 is_stmt 1 view .LVU2089
.LBB1357:
.LBI1352:
	.loc 3 1257 20 view .LVU2090
.LBB1354:
	.loc 3 1259 5 view .LVU2091
.LBE1354:
.LBE1357:
	.loc 1 1867 9 is_stmt 0 view .LVU2092
	movs	r0, #39
.LBB1358:
.LBB1355:
	.loc 3 1259 22 view .LVU2093
	str	r4, [r5, #1284]
	.loc 3 1260 5 is_stmt 1 view .LVU2094
	ldr	r3, [r5, #1284]
.LVL429:
	.loc 3 1260 5 is_stmt 0 view .LVU2095
.LBE1355:
.LBE1358:
	.loc 1 1867 9 is_stmt 1 view .LVU2096
	bl	arch_irq_disable
.LVL430:
	.loc 1 1870 9 view .LVU2097
.LBB1359:
.LBI1359:
	.loc 3 399 20 view .LVU2098
.LBB1360:
	.loc 3 401 5 view .LVU2099
	.loc 3 401 21 is_stmt 0 view .LVU2100
	mov	r3, #-1
	str	r3, [r5, #776]
.LVL431:
.L403:
	.loc 3 401 21 view .LVU2101
.LBE1360:
.LBE1359:
.LBE1341:
.LBE1340:
	.loc 1 1872 1 view .LVU2102
	pop	{r3, r4, r5, r6, r7, pc}
.LVL432:
.L409:
.LBB1363:
.LBB1362:
.LBB1361:
.LBB1351:
.LBB1349:
	.loc 1 856 9 is_stmt 1 view .LVU2103
	.loc 1 856 35 is_stmt 0 view .LVU2104
	rbit	r5, r4
	clz	r5, r5
.LBB1345:
.LBB1346:
	.loc 1 707 12 view .LVU2105
	cmp	r5, #15
.LBE1346:
.LBE1345:
	.loc 1 856 17 view .LVU2106
	mov	r0, r5
.LVL433:
	.loc 1 857 9 is_stmt 1 view .LVU2107
.LBB1348:
.LBI1345:
	.loc 1 704 30 view .LVU2108
.LBB1347:
	.loc 1 706 5 view .LVU2109
	.loc 1 707 5 view .LVU2110
	.loc 1 707 12 is_stmt 0 view .LVU2111
	itte	gt
	subgt	r0, r5, #16
	uxtbgt	r0, r0
	orrle	r0, r0, #128
.LVL434:
	.loc 1 707 12 view .LVU2112
.LBE1347:
.LBE1348:
	.loc 1 857 12 view .LVU2113
	lsls	r3, r0, #28
	bmi	.L408
	.loc 1 859 13 is_stmt 1 view .LVU2114
	bl	usbd_ep_abort
.LVL435:
.L408:
	.loc 1 861 9 view .LVU2115
	.loc 1 861 28 is_stmt 0 view .LVU2116
	lsl	r5, r7, r5
.LVL436:
	.loc 1 861 20 view .LVU2117
	bic	r4, r4, r5
.LVL437:
	.loc 1 861 20 view .LVU2118
	b	.L405
.L414:
	.align	2
.L413:
	.word	-536813312
	.word	m_ep_ready
	.word	m_ep_dma_waiting
	.word	1073901568
.LBE1349:
.LBE1351:
.LBE1361:
.LBE1362:
.LBE1363:
	.cfi_endproc
.LFE853:
	.size	nrfx_usbd_stop, .-nrfx_usbd_stop
	.section	.text.nrfx_usbd_disable,"ax",%progbits
	.align	1
	.global	nrfx_usbd_disable
	.syntax unified
	.thumb
	.thumb_func
	.type	nrfx_usbd_disable, %function
nrfx_usbd_disable:
.LFB851:
	.loc 1 1787 1 is_stmt 1 view -0
	.cfi_startproc
	@ args = 0, pretend = 0, frame = 0
	@ frame_needed = 0, uses_anonymous_args = 0
	.loc 1 1788 7 view .LVU2120
	.loc 1 1788 8 view .LVU2121
	.loc 1 1791 5 view .LVU2122
	.loc 1 1787 1 is_stmt 0 view .LVU2123
	push	{r3, lr}
	.cfi_def_cfa_offset 8
	.cfi_offset 3, -8
	.cfi_offset 14, -4
	.loc 1 1791 5 view .LVU2124
	bl	nrfx_usbd_stop
.LVL438:
	.loc 1 1794 5 is_stmt 1 view .LVU2125
.LBB1388:
.LBI1388:
	.loc 3 394 24 view .LVU2126
.LBB1389:
	.loc 3 396 5 view .LVU2127
	.loc 3 396 17 is_stmt 0 view .LVU2128
	ldr	r3, .L423
	ldr	r2, [r3, #772]
.LVL439:
	.loc 3 396 17 view .LVU2129
.LBE1389:
.LBE1388:
.LBB1390:
.LBI1390:
	.loc 3 399 20 is_stmt 1 view .LVU2130
.LBB1391:
	.loc 3 401 5 view .LVU2131
	.loc 3 401 21 is_stmt 0 view .LVU2132
	str	r2, [r3, #776]
.LVL440:
	.loc 3 401 21 view .LVU2133
.LBE1391:
.LBE1390:
	.loc 1 1795 5 is_stmt 1 view .LVU2134
	.loc 1 1795 9 is_stmt 0 view .LVU2135
	ldr	r2, .L423+4
	.loc 1 1795 8 view .LVU2136
	ldrb	r1, [r2]	@ zero_extendqisi2
	cbz	r1, .L416
	.loc 1 1799 9 is_stmt 1 view .LVU2137
.LVL441:
.LBB1392:
.LBI1392:
	.loc 3 334 20 view .LVU2138
.LBB1393:
	.loc 3 336 5 view .LVU2139
	.loc 3 336 51 is_stmt 0 view .LVU2140
	movs	r1, #0
	str	r1, [r3, #264]
	.loc 3 337 5 is_stmt 1 view .LVU2141
	ldr	r1, [r3, #264]
.LVL442:
	.loc 3 337 5 is_stmt 0 view .LVU2142
.LBE1393:
.LBE1392:
	.loc 1 1800 9 is_stmt 1 view .LVU2143
.LBB1394:
.LBI1394:
	.loc 3 1407 20 view .LVU2144
	.loc 3 1412 5 view .LVU2145
.LBB1395:
.LBI1395:
	.loc 3 1407 20 view .LVU2146
	.loc 3 1414 9 view .LVU2147
.LBB1396:
	.loc 3 1421 13 view .LVU2148
	.loc 3 1422 13 view .LVU2149
	.loc 3 1422 35 is_stmt 0 view .LVU2150
	str	r2, [r3, #1536]
	.loc 3 1423 13 is_stmt 1 view .LVU2151
	.loc 3 1423 38 is_stmt 0 view .LVU2152
	movs	r1, #1
	str	r1, [r3, #1540]
.LVL443:
	.loc 3 1423 38 view .LVU2153
.LBE1396:
.LBE1395:
.LBE1394:
	.loc 1 1801 9 is_stmt 1 view .LVU2154
.LBB1397:
.LBI1397:
	.loc 1 751 20 view .LVU2155
.LBB1398:
	.loc 1 753 5 view .LVU2156
.LBB1399:
.LBI1399:
	.loc 3 322 20 view .LVU2157
.LBB1400:
	.loc 3 324 5 view .LVU2158
	.loc 3 324 50 is_stmt 0 view .LVU2159
	str	r1, [r3, #4]
	.loc 3 325 5 is_stmt 1 view .LVU2160
	ldr	r1, [r3, #4]
.LVL444:
.L417:
	.loc 3 325 5 is_stmt 0 view .LVU2161
.LBE1400:
.LBE1399:
.LBE1398:
.LBE1397:
	.loc 1 1803 10 is_stmt 1 discriminator 1 view .LVU2162
	.loc 1 1802 16 discriminator 1 view .LVU2163
.LBB1401:
.LBI1401:
	.loc 3 340 23 discriminator 1 view .LVU2164
.LBB1402:
	.loc 3 342 5 discriminator 1 view .LVU2165
	.loc 3 342 17 is_stmt 0 discriminator 1 view .LVU2166
	ldr	r1, [r3, #264]
.LVL445:
	.loc 3 342 17 discriminator 1 view .LVU2167
.LBE1402:
.LBE1401:
	.loc 1 1802 16 discriminator 1 view .LVU2168
	cmp	r1, #0
	beq	.L417
	.loc 1 1804 9 is_stmt 1 view .LVU2169
	.loc 1 1804 19 is_stmt 0 view .LVU2170
	movs	r3, #0
	strb	r3, [r2]
.L416:
	.loc 1 1806 5 is_stmt 1 view .LVU2171
.LVL446:
.LBB1403:
.LBI1403:
	.loc 3 1098 20 view .LVU2172
.LBB1404:
	.loc 3 1100 5 view .LVU2173
	.loc 3 1100 19 is_stmt 0 view .LVU2174
	ldr	r3, .L423
	movs	r2, #0
	str	r2, [r3, #1280]
	.loc 3 1101 5 is_stmt 1 view .LVU2175
	ldr	r3, [r3, #1280]
.LVL447:
	.loc 3 1101 5 is_stmt 0 view .LVU2176
.LBE1404:
.LBE1403:
	.loc 1 1807 5 is_stmt 1 view .LVU2177
	bl	usbd_dma_pending_clear
.LVL448:
	.loc 1 1808 5 view .LVU2178
	.loc 1 1808 17 is_stmt 0 view .LVU2179
	ldr	r3, .L423+8
	movs	r2, #1
	strb	r2, [r3]
	.loc 1 1816 1 view .LVU2180
	pop	{r3, pc}
.L424:
	.align	2
.L423:
	.word	1073901568
	.word	m_dma_odd
	.word	m_drv_state
	.cfi_endproc
.LFE851:
	.size	nrfx_usbd_disable, .-nrfx_usbd_disable
	.section	.text.nrfx_usbd_ep_disable,"ax",%progbits
	.align	1
	.global	nrfx_usbd_ep_disable
	.syntax unified
	.thumb
	.thumb_func
	.type	nrfx_usbd_ep_disable, %function
nrfx_usbd_ep_disable:
.LVL449:
.LFB868:
	.loc 1 2015 1 is_stmt 1 view -0
	.cfi_startproc
	@ args = 0, pretend = 0, frame = 0
	@ frame_needed = 0, uses_anonymous_args = 0
	.loc 1 2016 5 view .LVU2182
	.loc 1 2015 1 is_stmt 0 view .LVU2183
	push	{r4, lr}
	.cfi_def_cfa_offset 8
	.cfi_offset 4, -8
	.cfi_offset 14, -4
	.loc 1 2015 1 view .LVU2184
	mov	r4, r0
	.loc 1 2016 5 view .LVU2185
	bl	usbd_ep_abort
.LVL450:
	.loc 1 2017 5 is_stmt 1 view .LVU2186
.LBB1411:
.LBI1411:
	.loc 3 1323 20 view .LVU2187
.LBB1412:
	.loc 3 1325 7 view .LVU2188
	.loc 3 1325 8 view .LVU2189
	.loc 3 1326 5 view .LVU2190
	ldr	r2, .L428
	.loc 3 1328 8 is_stmt 0 view .LVU2191
	tst	r4, #128
	.loc 3 1326 13 view .LVU2192
	and	r0, r4, #15
.LVL451:
	.loc 3 1328 5 is_stmt 1 view .LVU2193
	.loc 3 1330 9 view .LVU2194
	.loc 3 1330 32 is_stmt 0 view .LVU2195
	mov	r3, #1
	.loc 3 1330 14 view .LVU2196
	ite	ne
	ldrne	r1, [r2, #1296]
	.loc 3 1334 14 view .LVU2197
	ldreq	r1, [r2, #1300]
	.loc 3 1330 32 view .LVU2198
	lsl	r3, r3, r0
	.loc 3 1330 26 view .LVU2199
	mvn	r3, r3
	.loc 3 1330 23 view .LVU2200
	itete	ne
	andne	r3, r3, r1
	.loc 3 1334 24 view .LVU2201
	andeq	r3, r3, r1
	.loc 3 1330 23 view .LVU2202
	strne	r3, [r2, #1296]
.LVL452:
	.loc 3 1330 23 view .LVU2203
.LBE1412:
.LBE1411:
	.loc 1 2018 5 is_stmt 1 view .LVU2204
.LBB1415:
.LBI1415:
	.loc 1 407 24 view .LVU2205
.LBB1416:
	.loc 1 409 7 view .LVU2206
	.loc 1 409 8 view .LVU2207
	.loc 1 409 9 view .LVU2208
	.loc 1 411 5 view .LVU2209
	.loc 1 423 5 view .LVU2210
	.loc 1 436 5 view .LVU2211
.LBE1416:
.LBE1415:
.LBB1419:
.LBB1413:
	.loc 3 1334 24 is_stmt 0 view .LVU2212
	streq	r3, [r2, #1300]
.LBE1413:
.LBE1419:
.LBB1420:
.LBB1417:
	.loc 1 436 81 view .LVU2213
	ite	ne
	ldrne	r3, .L428+4
.LBE1417:
.LBE1420:
.LBB1421:
.LBB1414:
	.loc 3 1334 9 is_stmt 1 view .LVU2214
.LBE1414:
.LBE1421:
	.loc 1 2018 5 view .LVU2215
.LBB1422:
	.loc 1 407 24 view .LVU2216
.LBB1418:
	.loc 1 409 7 view .LVU2217
	.loc 1 409 8 view .LVU2218
	.loc 1 409 9 view .LVU2219
	.loc 1 411 5 view .LVU2220
	.loc 1 423 5 view .LVU2221
	.loc 1 436 5 view .LVU2222
	.loc 1 436 81 is_stmt 0 view .LVU2223
	ldreq	r3, .L428+8
	.loc 1 436 96 view .LVU2224
	ldrb	r2, [r3, r0]	@ zero_extendqisi2
	.loc 1 436 16 view .LVU2225
	movs	r3, #1
	lsls	r3, r3, r2
.LVL453:
	.loc 1 436 16 view .LVU2226
.LBE1418:
.LBE1422:
.LBB1423:
.LBI1423:
	.loc 3 399 20 is_stmt 1 view .LVU2227
.LBB1424:
	.loc 3 401 5 view .LVU2228
	.loc 3 401 21 is_stmt 0 view .LVU2229
	ldr	r2, .L428
	str	r3, [r2, #776]
.LVL454:
	.loc 3 401 21 view .LVU2230
.LBE1424:
.LBE1423:
	.loc 1 2019 1 view .LVU2231
	pop	{r4, pc}
.L429:
	.align	2
.L428:
	.word	1073901568
	.word	epin_bitpos.1
	.word	epout_bitpos.0
	.cfi_endproc
.LFE868:
	.size	nrfx_usbd_ep_disable, .-nrfx_usbd_ep_disable
	.section	.text.nrfx_usbd_ep_enable,"ax",%progbits
	.align	1
	.global	nrfx_usbd_ep_enable
	.syntax unified
	.thumb
	.thumb_func
	.type	nrfx_usbd_ep_enable, %function
nrfx_usbd_ep_enable:
.LVL455:
.LFB867:
	.loc 1 1995 1 is_stmt 1 view -0
	.cfi_startproc
	@ args = 0, pretend = 0, frame = 0
	@ frame_needed = 0, uses_anonymous_args = 0
	.loc 1 1996 5 view .LVU2233
.LBB1438:
.LBI1438:
	.loc 1 407 24 view .LVU2234
.LBB1439:
	.loc 1 409 7 view .LVU2235
	.loc 1 409 8 view .LVU2236
	.loc 1 409 9 view .LVU2237
	.loc 1 411 5 view .LVU2238
	.loc 1 423 5 view .LVU2239
	.loc 1 436 5 view .LVU2240
	.loc 1 436 81 is_stmt 0 view .LVU2241
	tst	r0, #128
.LBE1439:
.LBE1438:
	.loc 1 1995 1 view .LVU2242
	push	{r4, r5, r6, lr}
	.cfi_def_cfa_offset 16
	.cfi_offset 4, -16
	.cfi_offset 5, -12
	.cfi_offset 6, -8
	.cfi_offset 14, -4
	ldr	r1, .L440
	.loc 1 1995 1 view .LVU2243
	mov	r4, r0
	and	r3, r0, #15
	mov	r5, #1
.LBB1442:
.LBB1440:
	.loc 1 436 81 view .LVU2244
	beq	.L431
	.loc 1 436 96 view .LVU2245
	ldr	r2, .L440+4
	ldrb	r2, [r2, r3]	@ zero_extendqisi2
	.loc 1 436 16 view .LVU2246
	lsl	r2, r5, r2
.LVL456:
	.loc 1 436 16 view .LVU2247
.LBE1440:
.LBE1442:
.LBB1443:
.LBI1443:
	.loc 3 384 20 is_stmt 1 view .LVU2248
.LBB1444:
	.loc 3 386 5 view .LVU2249
	.loc 3 386 21 is_stmt 0 view .LVU2250
	str	r2, [r1, #772]
.LVL457:
	.loc 3 386 21 view .LVU2251
.LBE1444:
.LBE1443:
	.loc 1 1998 5 is_stmt 1 view .LVU2252
.LBB1446:
.LBI1446:
	.loc 3 1293 23 view .LVU2253
.LBB1447:
	.loc 3 1295 7 view .LVU2254
	.loc 3 1295 8 view .LVU2255
	.loc 3 1296 5 view .LVU2256
	.loc 3 1298 5 view .LVU2257
	.loc 3 1300 9 view .LVU2258
	.loc 3 1300 27 is_stmt 0 view .LVU2259
	ldr	r2, [r1, #1296]
.LVL458:
	.loc 3 1300 18 view .LVU2260
	lsrs	r2, r2, r3
.LBE1447:
.LBE1446:
	.loc 1 1998 8 view .LVU2261
	lsls	r0, r2, #31
.LVL459:
	.loc 1 1998 8 view .LVU2262
	bmi	.L430
	.loc 1 2002 5 is_stmt 1 view .LVU2263
.LVL460:
.LBB1449:
.LBI1449:
	.loc 3 1308 20 view .LVU2264
.LBB1450:
	.loc 3 1310 7 view .LVU2265
	.loc 3 1310 8 view .LVU2266
	.loc 3 1311 5 view .LVU2267
	.loc 3 1313 5 view .LVU2268
	.loc 3 1315 9 view .LVU2269
	.loc 3 1315 14 is_stmt 0 view .LVU2270
	ldr	r2, [r1, #1296]
	.loc 3 1315 30 view .LVU2271
	lsl	r3, r5, r3
	.loc 3 1315 23 view .LVU2272
	orrs	r3, r3, r2
	str	r3, [r1, #1296]
.LVL461:
	.loc 3 1315 23 view .LVU2273
.LBE1450:
.LBE1449:
	.loc 1 2003 5 is_stmt 1 view .LVU2274
.L430:
	.loc 1 2012 1 is_stmt 0 view .LVU2275
	pop	{r4, r5, r6, pc}
.LVL462:
.L431:
.LBB1452:
.LBB1441:
	.loc 1 436 96 view .LVU2276
	ldr	r2, .L440+8
	ldrb	r2, [r2, r3]	@ zero_extendqisi2
	.loc 1 436 16 view .LVU2277
	lsl	r2, r5, r2
.LVL463:
	.loc 1 436 16 view .LVU2278
.LBE1441:
.LBE1452:
.LBB1453:
	.loc 3 384 20 is_stmt 1 view .LVU2279
.LBB1445:
	.loc 3 386 5 view .LVU2280
	.loc 3 386 21 is_stmt 0 view .LVU2281
	str	r2, [r1, #772]
.LVL464:
	.loc 3 386 21 view .LVU2282
.LBE1445:
.LBE1453:
	.loc 1 1998 5 is_stmt 1 view .LVU2283
.LBB1454:
	.loc 3 1293 23 view .LVU2284
.LBB1448:
	.loc 3 1295 7 view .LVU2285
	.loc 3 1295 8 view .LVU2286
	.loc 3 1296 5 view .LVU2287
	.loc 3 1298 5 view .LVU2288
	.loc 3 1304 9 view .LVU2289
	.loc 3 1304 27 is_stmt 0 view .LVU2290
	ldr	r2, [r1, #1300]
.LVL465:
	.loc 3 1304 18 view .LVU2291
	lsrs	r2, r2, r3
.LBE1448:
.LBE1454:
	.loc 1 1998 8 view .LVU2292
	lsls	r2, r2, #31
	bmi	.L430
	.loc 1 2002 5 is_stmt 1 view .LVU2293
.LVL466:
.LBB1455:
	.loc 3 1308 20 view .LVU2294
.LBB1451:
	.loc 3 1310 7 view .LVU2295
	.loc 3 1310 8 view .LVU2296
	.loc 3 1311 5 view .LVU2297
	.loc 3 1313 5 view .LVU2298
	.loc 3 1319 9 view .LVU2299
	.loc 3 1319 14 is_stmt 0 view .LVU2300
	ldr	r6, [r1, #1300]
	.loc 3 1319 31 view .LVU2301
	lsl	r2, r5, r3
	.loc 3 1319 24 view .LVU2302
	orrs	r2, r2, r6
	str	r2, [r1, #1300]
.LVL467:
	.loc 3 1319 24 view .LVU2303
.LBE1451:
.LBE1455:
	.loc 1 2003 5 is_stmt 1 view .LVU2304
	.loc 1 2003 8 is_stmt 0 view .LVU2305
	cmp	r3, #0
	beq	.L430
	.loc 1 2004 56 view .LVU2306
	lsls	r3, r0, #28
	bmi	.L430
.LBB1456:
	.loc 1 2007 11 is_stmt 1 view .LVU2307
.LBB1457:
.LBI1457:
	.loc 4 42 59 view .LVU2308
.LBB1458:
	.loc 4 44 2 view .LVU2309
	.loc 4 57 2 view .LVU2310
	.loc 4 59 2 view .LVU2311
	.syntax unified
@ 59 "/home/g/mise-work/zmk-firmware/zmk/zephyr/include/zephyr/arch/arm/asm_inline_gcc.h" 1
	mov r3, #32;mrs r6, BASEPRI;msr BASEPRI_MAX, r3;isb;
@ 0 "" 2
.LVL468:
	.loc 4 88 2 view .LVU2312
	.loc 4 88 2 is_stmt 0 view .LVU2313
	.thumb
	.syntax unified
.LBE1458:
.LBE1457:
	.loc 1 2007 55 is_stmt 1 view .LVU2314
	.loc 1 2008 9 view .LVU2315
	bl	nrfx_usbd_transfer_out_drop
.LVL469:
	.loc 1 2009 9 view .LVU2316
	.loc 1 2009 37 is_stmt 0 view .LVU2317
	mov	r0, r4
	bl	ep2bit
.LVL470:
	.loc 1 2009 26 view .LVU2318
	ldr	r2, .L440+12
	ldr	r3, [r2]
	.loc 1 2009 34 view .LVU2319
	lsl	r0, r5, r0
	.loc 1 2009 26 view .LVU2320
	bic	r3, r3, r0
	str	r3, [r2]
	.loc 1 2010 9 is_stmt 1 view .LVU2321
.LVL471:
.LBB1459:
.LBI1459:
	.loc 4 96 51 view .LVU2322
.LBB1460:
	.loc 4 107 2 view .LVU2323
	.syntax unified
@ 107 "/home/g/mise-work/zmk-firmware/zmk/zephyr/include/zephyr/arch/arm/asm_inline_gcc.h" 1
	msr BASEPRI, r6;isb;
@ 0 "" 2
.LVL472:
	.loc 4 107 2 is_stmt 0 view .LVU2324
	.thumb
	.syntax unified
.LBE1460:
.LBE1459:
.LBE1456:
	.loc 1 2010 41 is_stmt 1 view .LVU2325
.LBB1463:
.LBB1462:
.LBB1461:
	.loc 4 122 1 is_stmt 0 view .LVU2326
	b	.L430
.L441:
	.align	2
.L440:
	.word	1073901568
	.word	epin_bitpos.1
	.word	epout_bitpos.0
	.word	m_ep_dma_waiting
.LBE1461:
.LBE1462:
.LBE1463:
	.cfi_endproc
.LFE867:
	.size	nrfx_usbd_ep_enable, .-nrfx_usbd_ep_enable
	.section	.text.nrfx_usbd_ep_stall_clear,"ax",%progbits
	.align	1
	.global	nrfx_usbd_ep_stall_clear
	.syntax unified
	.thumb
	.thumb_func
	.type	nrfx_usbd_ep_stall_clear, %function
nrfx_usbd_ep_stall_clear:
.LVL473:
.LFB877:
	.loc 1 2254 1 is_stmt 1 view -0
	.cfi_startproc
	@ args = 0, pretend = 0, frame = 0
	@ frame_needed = 0, uses_anonymous_args = 0
	.loc 1 2255 5 view .LVU2328
	.loc 1 2255 8 is_stmt 0 view .LVU2329
	lsls	r3, r0, #24
	.loc 1 2254 1 view .LVU2330
	push	{r4, lr}
	.cfi_def_cfa_offset 8
	.cfi_offset 4, -8
	.cfi_offset 14, -4
	.loc 1 2254 1 view .LVU2331
	mov	r4, r0
	.loc 1 2255 8 view .LVU2332
	bmi	.L444
	.loc 1 2255 59 discriminator 1 view .LVU2333
	bl	nrfx_usbd_ep_stall_check
.LVL474:
	.loc 1 2255 56 discriminator 1 view .LVU2334
	cbz	r0, .L444
	.loc 1 2257 9 is_stmt 1 view .LVU2335
	mov	r0, r4
	bl	nrfx_usbd_transfer_out_drop
.LVL475:
.L444:
	.loc 1 2259 5 view .LVU2336
.LBB1464:
.LBI1464:
	.loc 3 1356 20 view .LVU2337
.LBB1465:
	.loc 3 1358 7 view .LVU2338
	.loc 3 1358 8 view .LVU2339
	.loc 3 1359 5 view .LVU2340
	.loc 3 1359 20 is_stmt 0 view .LVU2341
	ldr	r3, .L449
	str	r4, [r3, #1304]
.LVL476:
	.loc 3 1359 20 view .LVU2342
.LBE1465:
.LBE1464:
	.loc 1 2260 1 view .LVU2343
	pop	{r4, pc}
.L450:
	.align	2
.L449:
	.word	1073901568
	.cfi_endproc
.LFE877:
	.size	nrfx_usbd_ep_stall_clear, .-nrfx_usbd_ep_stall_clear
	.section	.rodata.CSWTCH.4140,"a"
	.type	CSWTCH.4140, %object
	.size	CSWTCH.4140, 6
CSWTCH.4140:
	.byte	0
	.byte	1
	.byte	1
	.byte	1
	.byte	1
	.byte	1
	.section	.rodata.epout_bitpos.0,"a"
	.type	epout_bitpos.0, %object
	.size	epout_bitpos.0, 9
epout_bitpos.0:
	.ascii	"\014\015\016\017\020\021\022\023\024"
	.section	.rodata.epin_bitpos.1,"a"
	.type	epin_bitpos.1, %object
	.size	epin_bitpos.1, 9
epin_bitpos.1:
	.ascii	"\002\003\004\005\006\007\010\011\013"
	.section	.rodata.epout_endev.2,"a"
	.align	1
	.type	epout_endev.2, %object
	.size	epout_endev.2, 18
epout_endev.2:
	.short	304
	.short	308
	.short	312
	.short	316
	.short	320
	.short	324
	.short	328
	.short	332
	.short	336
	.section	.rodata.epin_endev.3,"a"
	.align	1
	.type	epin_endev.3, %object
	.size	epin_endev.3, 18
epin_endev.3:
	.short	264
	.short	268
	.short	272
	.short	276
	.short	280
	.short	284
	.short	288
	.short	292
	.short	300
	.section	.rodata.m_isr,"a"
	.align	2
	.type	m_isr, %object
	.size	m_isr, 100
m_isr:
	.word	ev_usbreset_handler
	.word	ev_started_handler
	.word	ev_dma_epin0_handler
	.word	ev_dma_epin1_handler
	.word	ev_dma_epin2_handler
	.word	ev_dma_epin3_handler
	.word	ev_dma_epin4_handler
	.word	ev_dma_epin5_handler
	.word	ev_dma_epin6_handler
	.word	ev_dma_epin7_handler
	.word	ev_setup_data_handler
	.word	ev_dma_epin8_handler
	.word	ev_dma_epout0_handler
	.word	ev_dma_epout1_handler
	.word	ev_dma_epout2_handler
	.word	ev_dma_epout3_handler
	.word	ev_dma_epout4_handler
	.word	ev_dma_epout5_handler
	.word	ev_dma_epout6_handler
	.word	ev_dma_epout7_handler
	.word	ev_dma_epout8_handler
	.word	ev_sof_handler
	.word	ev_usbevent_handler
	.word	ev_setup_handler
	.word	ev_epdata_handler
	.section	.bss.m_tx_buffer,"aw",%nobits
	.align	2
	.type	m_tx_buffer, %object
	.size	m_tx_buffer, 64
m_tx_buffer:
	.space	64
	.global	m_ep_consumer_state
	.section	.bss.m_ep_consumer_state,"aw",%nobits
	.align	2
	.type	m_ep_consumer_state, %object
	.size	m_ep_consumer_state, 108
m_ep_consumer_state:
	.space	108
	.global	m_ep_feeder_state
	.section	.bss.m_ep_feeder_state,"aw",%nobits
	.align	2
	.type	m_ep_feeder_state, %object
	.size	m_ep_feeder_state, 108
m_ep_feeder_state:
	.space	108
	.section	.bss.m_ep_state,"aw",%nobits
	.align	2
	.type	m_ep_state, %object
	.size	m_ep_state, 288
m_ep_state:
	.space	288
	.section	.bss.m_dma_odd,"aw",%nobits
	.type	m_dma_odd, %object
	.size	m_dma_odd, 1
m_dma_odd:
	.space	1
	.section	.bss.m_dma_pending,"aw",%nobits
	.type	m_dma_pending, %object
	.size	m_dma_pending, 1
m_dma_pending:
	.space	1
	.section	.bss.m_ep_dma_waiting,"aw",%nobits
	.align	2
	.type	m_ep_dma_waiting, %object
	.size	m_ep_dma_waiting, 4
m_ep_dma_waiting:
	.space	4
	.section	.bss.m_ep_ready,"aw",%nobits
	.align	2
	.type	m_ep_ready, %object
	.size	m_ep_ready, 4
m_ep_ready:
	.space	4
	.section	.bss.m_last_setup_dir,"aw",%nobits
	.type	m_last_setup_dir, %object
	.size	m_last_setup_dir, 1
m_last_setup_dir:
	.space	1
	.section	.bss.m_bus_suspend,"aw",%nobits
	.type	m_bus_suspend, %object
	.size	m_bus_suspend, 1
m_bus_suspend:
	.space	1
	.section	.bss.m_event_handler,"aw",%nobits
	.align	2
	.type	m_event_handler, %object
	.size	m_event_handler, 4
m_event_handler:
	.space	4
	.section	.bss.m_drv_state,"aw",%nobits
	.type	m_drv_state, %object
	.size	m_drv_state, 1
m_drv_state:
	.space	1
	.text
.Letext0:
	.file 11 "/home/g/zephyr-sdk-0.16.3/arm-zephyr-eabi/picolibc/include/machine/_default_types.h"
	.file 12 "/home/g/zephyr-sdk-0.16.3/arm-zephyr-eabi/picolibc/include/sys/_stdint.h"
	.file 13 "/home/g/zephyr-sdk-0.16.3/arm-zephyr-eabi/lib/gcc/arm-zephyr-eabi/12.2.0/include/stddef.h"
	.file 14 "/home/g/mise-work/zmk-firmware/zmk/modules/hal/nordic/nrfx/mdk/nrf52840.h"
	.file 15 "/home/g/mise-work/zmk-firmware/zmk/zephyr/include/zephyr/sys/atomic.h"
	.file 16 "/home/g/mise-work/zmk-firmware/zmk/modules/hal/nordic/nrfx/drivers/nrfx_errors.h"
	.file 17 "/home/g/mise-work/zmk-firmware/zmk/modules/hal/nordic/nrfx/drivers/include/nrfx_usbd.h"
	.file 18 "/home/g/mise-work/zmk-firmware/zmk/zephyr/include/zephyr/logging/log_instance.h"
	.file 19 "/home/g/mise-work/zmk-firmware/zmk/zephyr/include/zephyr/sys/cbprintf.h"
	.file 20 "/home/g/mise-work/zmk-firmware/zmk/zephyr/include/zephyr/logging/log_msg.h"
	.file 21 "/home/g/mise-work/zmk-firmware/zmk/zephyr/modules/hal_nordic/nrfx/./nrfx_log.h"
	.file 22 "/home/g/mise-work/zmk-firmware/zmk/zephyr/include/zephyr/arch/arm/irq.h"
	.file 23 "<built-in>"