	.cpu cortex-m4
	.arch armv7e-m
	.fpu fpv4-sp-d16
	.eabi_attribute 27, 1
	.eabi_attribute 28, 1
	.eabi_attribute 20, 1
	.eabi_attribute 21, 1
	.eabi_attribute 23, 3
	.eabi_attribute 24, 1
	.eabi_attribute 25, 1
	.eabi_attribute 26, 1
	.eabi_attribute 30, 4
	.eabi_attribute 34, 1
	.eabi_attribute 38, 1
	.eabi_attribute 18, 4
	.file	"nrfx_clock.c"
	.text
.Ltext0:
	.cfi_sections	.debug_frame
	.file 1 "/home/g/mise-work/zmk-firmware/zmk/modules/hal/nordic/nrfx/drivers/src/nrfx_clock.c"
	.section	.text.clock_stop,"ax",%progbits
	.align	1
	.syntax unified
	.thumb
	.thumb_func
	.type	clock_stop, %function
clock_stop:
.LVL0:
.LFB749:
	.loc 1 192 1 view -0
	.cfi_startproc
	@ args = 0, pretend = 0, frame = 8
	@ frame_needed = 0, uses_anonymous_args = 0
	.loc 1 193 5 view .LVU1
	.loc 1 192 1 is_stmt 0 view .LVU2
	push	{r0, r1, r2, r4, r5, r6, r7, lr}
	.cfi_def_cfa_offset 32
	.cfi_offset 4, -20
	.cfi_offset 5, -16
	.cfi_offset 6, -12
	.cfi_offset 7, -8
	.cfi_offset 14, -4
	.loc 1 193 5 view .LVU3
	mov	r4, r0
	cbz	r0, .L2
	cmp	r0, #1
	beq	.L3
.LVL1:
.L1:
	.loc 1 240 1 view .LVU4
	add	sp, sp, #12
	.cfi_remember_state
	.cfi_def_cfa_offset 20
	@ sp needed
	pop	{r4, r5, r6, r7, pc}
.LVL2:
.L2:
	.cfi_restore_state
	.loc 1 196 13 is_stmt 1 view .LVU5
.LBB189:
.LBI189:
	.file 2 "/home/g/mise-work/zmk-firmware/zmk/modules/hal/nordic/nrfx/hal/nrf_clock.h"
	.loc 2 851 20 view .LVU6
.LBB190:
	.loc 2 853 5 view .LVU7
	.loc 2 853 21 is_stmt 0 view .LVU8
	mov	r3, #1073741824
	movs	r2, #2
	str	r2, [r3, #776]
.LVL3:
	.loc 2 853 21 view .LVU9
.LBE190:
.LBE189:
	.loc 1 197 13 is_stmt 1 view .LVU10
.LBB191:
.LBI191:
	.loc 2 867 20 view .LVU11
.LBB192:
	.loc 2 869 5 view .LVU12
	.loc 2 869 65 is_stmt 0 view .LVU13
	movs	r2, #1
	str	r2, [r3, #12]
.LVL4:
	.loc 2 869 65 view .LVU14
.LBE192:
.LBE191:
	.loc 1 198 13 is_stmt 1 view .LVU15
.LBB193:
.LBI193:
	.loc 2 878 20 view .LVU16
.LBB194:
	.loc 2 880 5 view .LVU17
	.loc 2 880 66 is_stmt 0 view .LVU18
	str	r0, [r3, #260]
	.loc 2 881 5 is_stmt 1 view .LVU19
.LVL5:
.LBB195:
.LBI195:
	.file 3 "/home/g/mise-work/zmk-firmware/zmk/modules/hal/nordic/nrfx/hal/nrf_common.h"
	.loc 3 186 20 view .LVU20
.LBB196:
	.loc 3 189 5 view .LVU21
	ldr	r3, [r3, #260]
.LVL6:
	.loc 3 189 5 is_stmt 0 view .LVU22
.LBE196:
.LBE195:
.LBE194:
.LBE193:
.LBB197:
.LBI197:
	.loc 1 191 13 is_stmt 1 view .LVU23
.LBB198:
	.loc 1 224 4 view .LVU24
	.loc 1 225 5 view .LVU25
	.loc 1 226 5 view .LVU26
	.loc 1 226 82 is_stmt 0 view .LVU27
	mov	r6, r0
.LVL7:
.L5:
	.loc 1 225 23 view .LVU28
	movs	r3, #1
	strb	r3, [sp, #7]
.LVL8:
	.loc 1 227 5 is_stmt 1 view .LVU29
.LBB199:
	.loc 1 227 10 view .LVU30
	.loc 1 227 6 view .LVU31
	.loc 1 227 6 is_stmt 0 view .LVU32
.LBE199:
	.loc 1 225 23 view .LVU33
	movw	r5, #10000
.LBB219:
.LBB200:
.LBB201:
.LBB202:
	.loc 2 944 34 view .LVU34
	mov	r7, #1073741824
.LVL9:
.L12:
	.loc 2 944 34 view .LVU35
.LBE202:
.LBE201:
.LBE200:
	.loc 1 227 45 is_stmt 1 view .LVU36
	.loc 1 227 50 view .LVU37
.LBB215:
.LBI200:
	.file 4 "/home/g/mise-work/zmk-firmware/zmk/modules/hal/nordic/nrfx/drivers/include/nrfx_clock.h"
	.loc 4 342 24 view .LVU38
	.loc 4 344 5 view .LVU39
.LBB211:
.LBI201:
	.loc 2 927 23 view .LVU40
.LBB207:
	.loc 2 931 4 view .LVU41
	.loc 2 932 5 view .LVU42
	cbz	r4, .L6
.LVL10:
	.loc 2 932 5 is_stmt 0 view .LVU43
	cmp	r4, #1
	bne	.L1
.L7:
.LVL11:
	.loc 2 944 13 is_stmt 1 view .LVU44
	.loc 2 944 34 is_stmt 0 view .LVU45
	ldr	r3, [r7, #1036]
	.loc 2 944 46 view .LVU46
	and	r3, r3, #65536
.LVL12:
	.loc 2 945 13 is_stmt 1 view .LVU47
	.loc 2 945 16 is_stmt 0 view .LVU48
	cbnz	r6, .L15
.LVL13:
	.loc 2 945 16 view .LVU49
.LBE207:
.LBE211:
.LBE215:
	.loc 1 227 53 view .LVU50
	cbz	r3, .L13
	.loc 1 227 15 is_stmt 1 view .LVU51
	movs	r0, #1
	bl	nrfx_busy_wait
.LVL14:
	.loc 1 227 43 view .LVU52
	.loc 1 227 43 is_stmt 0 view .LVU53
	subs	r5, r5, #1
.LVL15:
	.loc 1 227 43 view .LVU54
	bne	.L7
	b	.L13
.LVL16:
.L3:
	.loc 1 227 43 view .LVU55
.LBE219:
.LBE198:
.LBE197:
	.loc 1 201 13 is_stmt 1 view .LVU56
.LBB223:
.LBI223:
	.loc 2 851 20 view .LVU57
.LBB224:
	.loc 2 853 5 view .LVU58
	.loc 2 853 21 is_stmt 0 view .LVU59
	mov	r3, #1073741824
.LBE224:
.LBE223:
.LBB226:
.LBB227:
	.loc 2 880 66 view .LVU60
	movs	r2, #0
.LBE227:
.LBE226:
.LBB231:
.LBB225:
	.loc 2 853 21 view .LVU61
	str	r0, [r3, #776]
.LVL17:
	.loc 2 853 21 view .LVU62
.LBE225:
.LBE231:
	.loc 1 202 13 is_stmt 1 view .LVU63
.LBB232:
.LBI232:
	.loc 2 867 20 view .LVU64
.LBB233:
	.loc 2 869 5 view .LVU65
	.loc 2 869 65 is_stmt 0 view .LVU66
	str	r0, [r3, #4]
.LVL18:
	.loc 2 869 65 view .LVU67
.LBE233:
.LBE232:
	.loc 1 203 13 is_stmt 1 view .LVU68
.LBB234:
.LBI226:
	.loc 2 878 20 view .LVU69
.LBB230:
	.loc 2 880 5 view .LVU70
	.loc 2 880 66 is_stmt 0 view .LVU71
	str	r2, [r3, #256]
	.loc 2 881 5 is_stmt 1 view .LVU72
.LVL19:
.LBB228:
.LBI228:
	.loc 3 186 20 view .LVU73
.LBB229:
	.loc 3 189 5 view .LVU74
	ldr	r3, [r3, #256]
.LVL20:
	.loc 3 189 5 is_stmt 0 view .LVU75
.LBE229:
.LBE228:
.LBE230:
.LBE234:
.LBB235:
	.loc 1 191 13 is_stmt 1 view .LVU76
.LBB222:
	.loc 1 224 4 view .LVU77
	.loc 1 225 5 view .LVU78
	.loc 1 226 5 view .LVU79
	.loc 1 226 82 is_stmt 0 view .LVU80
	add	r6, sp, #7
	b	.L5
.LVL21:
.L6:
.LBB220:
.LBB216:
.LBB212:
.LBB208:
.LBB203:
.LBI203:
	.loc 2 927 23 is_stmt 1 view .LVU81
.LBB204:
	.loc 2 935 13 view .LVU82
	.loc 2 935 34 is_stmt 0 view .LVU83
	ldr	r3, [r7, #1048]
	.loc 2 935 46 view .LVU84
	and	r3, r3, #65536
.LVL22:
	.loc 2 936 13 is_stmt 1 view .LVU85
	.loc 2 936 16 is_stmt 0 view .LVU86
	cbnz	r6, .L9
.LVL23:
	.loc 2 936 16 view .LVU87
.LBE204:
.LBE203:
.LBE208:
.LBE212:
.LBE216:
	.loc 1 227 53 view .LVU88
	cmp	r3, #0
	beq	.L1
	.loc 1 227 15 is_stmt 1 view .LVU89
	movs	r0, #1
	bl	nrfx_busy_wait
.LVL24:
	.loc 1 227 43 view .LVU90
	.loc 1 227 43 is_stmt 0 view .LVU91
	subs	r5, r5, #1
.LVL25:
	.loc 1 227 43 view .LVU92
	bne	.L6
	b	.L1
.LVL26:
.L9:
.LBB217:
.LBB213:
.LBB209:
.LBB206:
.LBB205:
	.loc 2 938 17 is_stmt 1 view .LVU93
	.loc 2 939 47 is_stmt 0 view .LVU94
	ldr	r2, [r7, #1048]
	.loc 2 940 41 view .LVU95
	and	r2, r2, #3
	.loc 2 938 51 view .LVU96
	str	r2, [r6]
.LVL27:
	.loc 2 938 51 view .LVU97
.LBE205:
.LBE206:
.LBE209:
.LBE213:
.LBE217:
	.loc 1 227 53 view .LVU98
	cmp	r3, #0
	beq	.L1
.L18:
	.loc 1 227 111 view .LVU99
	ldrb	r0, [sp, #7]	@ zero_extendqisi2
	cmp	r0, #1
	bne	.L11
	.loc 1 227 15 is_stmt 1 view .LVU100
	bl	nrfx_busy_wait
.LVL28:
	.loc 1 227 43 view .LVU101
	.loc 1 227 43 is_stmt 0 view .LVU102
	subs	r5, r5, #1
.LVL29:
	.loc 1 227 43 view .LVU103
	bne	.L12
.LVL30:
.L11:
	.loc 1 227 43 view .LVU104
.LBE220:
	.loc 1 227 8 is_stmt 1 view .LVU105
	.loc 1 229 5 view .LVU106
	.loc 1 231 12 view .LVU107
	.loc 1 235 5 view .LVU108
	.loc 1 235 8 is_stmt 0 view .LVU109
	cmp	r4, #1
	bne	.L1
.L13:
	.loc 1 237 13 is_stmt 1 view .LVU110
	.loc 1 237 38 is_stmt 0 view .LVU111
	ldr	r3, .L37
	movs	r2, #0
	strb	r2, [r3, #5]
.LVL31:
	.loc 1 237 38 view .LVU112
	b	.L1
.LVL32:
.L15:
.LBB221:
.LBB218:
.LBB214:
.LBB210:
	.loc 2 953 17 is_stmt 1 view .LVU113
	.loc 2 954 47 is_stmt 0 view .LVU114
	ldr	r2, [r7, #1036]
	.loc 2 954 59 view .LVU115
	and	r2, r2, #1
	.loc 2 953 51 view .LVU116
	strb	r2, [r6]
.LVL33:
	.loc 2 953 51 view .LVU117
.LBE210:
.LBE214:
.LBE218:
	.loc 1 227 53 view .LVU118
	cmp	r3, #0
	bne	.L18
	b	.L13
.L38:
	.align	2
.L37:
	.word	m_clock_cb
.LBE221:
.LBE222:
.LBE235:
	.cfi_endproc
.LFE749:
	.size	clock_stop, .-clock_stop
	.section	.text.nrfx_clock_init,"ax",%progbits
	.align	1
	.global	nrfx_clock_init
	.syntax unified
	.thumb
	.thumb_func
	.type	nrfx_clock_init, %function
nrfx_clock_init:
.LVL34:
.LFB752:
	.loc 1 280 1 is_stmt 1 view -0
	.cfi_startproc
	@ args = 0, pretend = 0, frame = 0
	@ frame_needed = 0, uses_anonymous_args = 0
	@ link register save eliminated.
	.loc 1 281 5 view .LVU120
	.loc 1 282 5 view .LVU121
	.loc 1 282 19 is_stmt 0 view .LVU122
	ldr	r3, .L42
	.loc 1 282 8 view .LVU123
	ldrb	r2, [r3, #4]	@ zero_extendqisi2
	cbnz	r2, .L41
	.loc 1 291 9 is_stmt 1 view .LVU124
	.loc 1 292 39 is_stmt 0 view .LVU125
	movs	r2, #1
	.loc 1 291 34 view .LVU126
	str	r0, [r3]
	.loc 1 292 9 is_stmt 1 view .LVU127
	.loc 1 294 9 view .LVU128
	.loc 1 292 39 is_stmt 0 view .LVU129
	strh	r2, [r3, #4]	@ movhi
	.loc 1 281 16 view .LVU130
	ldr	r0, .L42+4
.LVL35:
	.loc 1 281 16 view .LVU131
	bx	lr
.LVL36:
.L41:
	.loc 1 284 18 view .LVU132
	ldr	r0, .L42+8
.LVL37:
	.loc 1 298 5 is_stmt 1 view .LVU133
.LBB236:
	.loc 1 298 10 view .LVU134
.LBE236:
	.loc 1 298 8 view .LVU135
	.loc 1 299 5 view .LVU136
	.loc 1 300 1 is_stmt 0 view .LVU137
	bx	lr
.L43:
	.align	2
.L42:
	.word	m_clock_cb
	.word	195887104
	.word	195887116
	.cfi_endproc
.LFE752:
	.size	nrfx_clock_init, .-nrfx_clock_init
	.section	.text.nrfx_clock_enable,"ax",%progbits
	.align	1
	.global	nrfx_clock_enable
	.syntax unified
	.thumb
	.thumb_func
	.type	nrfx_clock_enable, %function
nrfx_clock_enable:
.LFB753:
	.loc 1 303 1 is_stmt 1 view -0
	.cfi_startproc
	@ args = 0, pretend = 0, frame = 0
	@ frame_needed = 0, uses_anonymous_args = 0
	.loc 1 304 7 view .LVU139
	.loc 1 304 8 view .LVU140
	.loc 1 305 5 view .LVU141
	.loc 1 303 1 is_stmt 0 view .LVU142
	push	{r3, lr}
	.cfi_def_cfa_offset 8
	.cfi_offset 3, -8
	.cfi_offset 14, -4
	.loc 1 305 19 view .LVU143
	ldr	r3, .L48
	.loc 1 305 8 view .LVU144
	ldr	r3, [r3]
	cbz	r3, .L46
	.loc 1 307 9 is_stmt 1 view .LVU145
.LBB244:
.LBI244:
	.file 5 "/home/g/mise-work/zmk-firmware/zmk/modules/hal/nordic/nrfx/drivers/include/nrfx_power_clock.h"
	.loc 5 44 20 view .LVU146
.LBB245:
	.loc 5 46 5 view .LVU147
	.loc 5 51 5 view .LVU148
.LVL38:
	.loc 5 60 5 view .LVU149
	.loc 5 60 10 is_stmt 0 view .LVU150
	movs	r0, #0
	bl	arch_irq_is_enabled
.LVL39:
	.loc 5 60 8 view .LVU151
	cbnz	r0, .L46
	.loc 5 62 9 is_stmt 1 view .LVU152
	.loc 5 63 9 view .LVU153
	bl	arch_irq_enable
.LVL40:
.L46:
	.loc 5 63 9 is_stmt 0 view .LVU154
.LBE245:
.LBE244:
	.loc 1 309 5 is_stmt 1 view .LVU155
.LBB246:
.LBI246:
	.loc 2 986 20 view .LVU156
.LBB247:
	.loc 2 988 5 view .LVU157
	.loc 2 988 21 is_stmt 0 view .LVU158
	mov	r3, #1073741824
	movs	r2, #0
	str	r2, [r3, #1304]
.LVL41:
	.loc 2 988 21 view .LVU159
.LBE247:
.LBE246:
	.loc 1 317 5 is_stmt 1 view .LVU160
	.loc 1 317 28 is_stmt 0 view .LVU161
	ldr	r3, .L48+4
	movs	r2, #1
	strb	r2, [r3]
	.loc 1 320 5 is_stmt 1 view .LVU162
.LBB248:
	.loc 1 320 10 view .LVU163
.LBE248:
	.loc 1 320 8 view .LVU164
	.loc 1 321 1 is_stmt 0 view .LVU165
	pop	{r3, pc}
.L49:
	.align	2
.L48:
	.word	m_clock_cb
	.word	nrfx_clock_irq_enabled
	.cfi_endproc
.LFE753:
	.size	nrfx_clock_enable, .-nrfx_clock_enable
	.section	.text.nrfx_clock_disable,"ax",%progbits
	.align	1
	.global	nrfx_clock_disable
	.syntax unified
	.thumb
	.thumb_func
	.type	nrfx_clock_disable, %function
nrfx_clock_disable:
.LFB754:
	.loc 1 324 1 is_stmt 1 view -0
	.cfi_startproc
	@ args = 0, pretend = 0, frame = 0
	@ frame_needed = 0, uses_anonymous_args = 0
	.loc 1 325 7 view .LVU167
	.loc 1 325 8 view .LVU168
	.loc 1 327 5 view .LVU169
	.loc 1 324 1 is_stmt 0 view .LVU170
	push	{r3, lr}
	.cfi_def_cfa_offset 8
	.cfi_offset 3, -8
	.cfi_offset 14, -4
	.loc 1 327 19 view .LVU171
	ldr	r3, .L55
	.loc 1 327 8 view .LVU172
	ldr	r3, [r3]
	cbz	r3, .L51
	.loc 1 330 11 is_stmt 1 view .LVU173
	.loc 1 330 12 view .LVU174
	.loc 1 331 9 view .LVU175
	.loc 1 331 13 is_stmt 0 view .LVU176
	ldr	r3, .L55+4
	.loc 1 331 12 view .LVU177
	ldrb	r0, [r3]	@ zero_extendqisi2
	cbnz	r0, .L51
	.loc 1 334 13 is_stmt 1 view .LVU178
	bl	arch_irq_disable
.LVL42:
.L51:
	.loc 1 337 5 view .LVU179
.LBB249:
.LBI249:
	.loc 2 851 20 view .LVU180
.LBB250:
	.loc 2 853 5 view .LVU181
	.loc 2 853 21 is_stmt 0 view .LVU182
	mov	r3, #1073741824
	movs	r2, #3
	str	r2, [r3, #776]
.LVL43:
	.loc 2 853 21 view .LVU183
.LBE250:
.LBE249:
	.loc 1 347 5 is_stmt 1 view .LVU184
	.loc 1 347 28 is_stmt 0 view .LVU185
	ldr	r3, .L55+8
	movs	r2, #0
	strb	r2, [r3]
	.loc 1 349 5 is_stmt 1 view .LVU186
.LBB251:
	.loc 1 349 10 view .LVU187
.LBE251:
	.loc 1 349 8 view .LVU188
	.loc 1 350 1 is_stmt 0 view .LVU189
	pop	{r3, pc}
.L56:
	.align	2
.L55:
	.word	m_clock_cb
	.word	nrfx_power_irq_enabled
	.word	nrfx_clock_irq_enabled
	.cfi_endproc
.LFE754:
	.size	nrfx_clock_disable, .-nrfx_clock_disable
	.section	.text.nrfx_clock_uninit,"ax",%progbits
	.align	1
	.global	nrfx_clock_uninit
	.syntax unified
	.thumb
	.thumb_func
	.type	nrfx_clock_uninit, %function
nrfx_clock_uninit:
.LFB755:
	.loc 1 353 1 is_stmt 1 view -0
	.cfi_startproc
	@ args = 0, pretend = 0, frame = 0
	@ frame_needed = 0, uses_anonymous_args = 0
	.loc 1 354 7 view .LVU191
	.loc 1 354 8 view .LVU192
	.loc 1 355 5 view .LVU193
	.loc 1 353 1 is_stmt 0 view .LVU194
	push	{r3, lr}
	.cfi_def_cfa_offset 8
	.cfi_offset 3, -8
	.cfi_offset 14, -4
	.loc 1 355 5 view .LVU195
	movs	r0, #0
	bl	clock_stop
.LVL44:
	.loc 1 356 5 is_stmt 1 view .LVU196
	movs	r0, #1
	bl	clock_stop
.LVL45:
	.loc 1 363 5 view .LVU197
	.loc 1 363 35 is_stmt 0 view .LVU198
	ldr	r3, .L58
	movs	r2, #0
	strb	r2, [r3, #4]
	.loc 1 364 5 is_stmt 1 view .LVU199
.LBB252:
	.loc 1 364 10 view .LVU200
.LBE252:
	.loc 1 364 8 view .LVU201
	.loc 1 365 1 is_stmt 0 view .LVU202
	pop	{r3, pc}
.L59:
	.align	2
.L58:
	.word	m_clock_cb
	.cfi_endproc
.LFE755:
	.size	nrfx_clock_uninit, .-nrfx_clock_uninit
	.section	.text.nrfx_clock_init_check,"ax",%progbits
	.align	1
	.global	nrfx_clock_init_check
	.syntax unified
	.thumb
	.thumb_func
	.type	nrfx_clock_init_check, %function
nrfx_clock_init_check:
.LFB756:
	.loc 1 368 1 is_stmt 1 view -0
	.cfi_startproc
	@ args = 0, pretend = 0, frame = 0
	@ frame_needed = 0, uses_anonymous_args = 0
	@ link register save eliminated.
	.loc 1 369 5 view .LVU204
	.loc 1 370 1 is_stmt 0 view .LVU205
	ldr	r3, .L61
	ldrb	r0, [r3, #4]	@ zero_extendqisi2
	bx	lr
.L62:
	.align	2
.L61:
	.word	m_clock_cb
	.cfi_endproc
.LFE756:
	.size	nrfx_clock_init_check, .-nrfx_clock_init_check
	.section	.text.nrfx_clock_start,"ax",%progbits
	.align	1
	.global	nrfx_clock_start
	.syntax unified
	.thumb
	.thumb_func
	.type	nrfx_clock_start, %function
nrfx_clock_start:
.LVL46:
.LFB757:
	.loc 1 373 1 is_stmt 1 view -0
	.cfi_startproc
	@ args = 0, pretend = 0, frame = 0
	@ frame_needed = 0, uses_anonymous_args = 0
	.loc 1 374 5 view .LVU207
	.loc 1 375 5 view .LVU208
	.loc 1 376 5 view .LVU209
	.loc 1 378 7 view .LVU210
	.loc 1 378 8 view .LVU211
	.loc 1 379 5 view .LVU212
	.loc 1 373 1 is_stmt 0 view .LVU213
	push	{r4, lr}
	.cfi_def_cfa_offset 8
	.cfi_offset 4, -8
	.cfi_offset 14, -4
	.loc 1 379 5 view .LVU214
	cbz	r0, .L64
	cmp	r0, #1
	beq	.L73
.LVL47:
.L63:
	.loc 1 468 1 view .LVU215
	pop	{r4, pc}
.LVL48:
.L64:
.LBB292:
	.loc 1 383 13 is_stmt 1 view .LVU216
	.loc 1 384 13 view .LVU217
.LBB293:
.LBI293:
	.loc 2 927 23 view .LVU218
.LBB294:
	.loc 2 931 4 view .LVU219
	.loc 2 932 5 view .LVU220
.LBB295:
.LBI295:
	.loc 2 927 23 view .LVU221
.LBB296:
	.loc 2 935 13 view .LVU222
	.loc 2 935 34 is_stmt 0 view .LVU223
	mov	r3, #1073741824
	ldr	r1, [r3, #1048]
.LVL49:
	.loc 2 936 13 is_stmt 1 view .LVU224
	.loc 2 938 17 view .LVU225
	.loc 2 939 47 is_stmt 0 view .LVU226
	ldr	r2, [r3, #1048]
.LVL50:
	.loc 2 939 47 view .LVU227
.LBE296:
.LBE295:
.LBE294:
.LBE293:
	.loc 1 384 16 view .LVU228
	lsls	r0, r1, #15
.LVL51:
	.loc 1 384 16 view .LVU229
	bpl	.L67
.LBB300:
.LBB299:
.LBB298:
.LBB297:
	.loc 2 940 41 view .LVU230
	and	r3, r2, #3
.LVL52:
	.loc 2 940 41 view .LVU231
.LBE297:
.LBE298:
.LBE299:
.LBE300:
	.loc 1 389 17 is_stmt 1 view .LVU232
.LBB301:
.LBI301:
	.loc 1 262 12 view .LVU233
.LBB302:
	.loc 1 264 4 view .LVU234
	.loc 1 267 5 view .LVU235
	.loc 1 267 37 is_stmt 0 view .LVU236
	cmp	r3, #1
	beq	.L68
	cbz	r3, .L69
.LVL53:
.L70:
	.loc 1 269 5 is_stmt 1 view .LVU237
	.loc 1 273 9 view .LVU238
	movs	r0, #0
	bl	clock_stop
.LVL54:
	.loc 1 274 9 view .LVU239
.L69:
	.loc 1 274 21 is_stmt 0 view .LVU240
	movs	r3, #0
.L68:
.LVL55:
	.loc 1 274 21 view .LVU241
.LBE302:
.LBE301:
	.loc 1 420 13 is_stmt 1 discriminator 1 view .LVU242
.LBB303:
.LBI303:
	.loc 2 986 20 discriminator 1 view .LVU243
.LBB304:
	.loc 2 988 5 discriminator 1 view .LVU244
	.loc 2 988 21 is_stmt 0 discriminator 1 view .LVU245
	mov	r2, #1073741824
.LBE304:
.LBE303:
.LBE292:
	.loc 1 423 22 discriminator 1 view .LVU246
	movs	r0, #2
.LBB322:
.LBB306:
.LBB305:
	.loc 2 988 21 discriminator 1 view .LVU247
	str	r3, [r2, #1304]
.LVL56:
	.loc 2 988 21 discriminator 1 view .LVU248
.LBE305:
.LBE306:
.LBE322:
	.loc 1 422 13 is_stmt 1 discriminator 1 view .LVU249
	.loc 1 423 13 discriminator 1 view .LVU250
	.loc 1 424 13 discriminator 1 view .LVU251
	.loc 1 425 13 discriminator 1 view .LVU252
	.loc 1 424 18 is_stmt 0 discriminator 1 view .LVU253
	movs	r2, #8
	.loc 1 422 19 discriminator 1 view .LVU254
	mov	r3, #260
.LVL57:
.L65:
	.loc 1 450 5 is_stmt 1 view .LVU255
.LBB323:
.LBI323:
	.loc 2 878 20 view .LVU256
.LBB324:
	.loc 2 880 5 view .LVU257
	.loc 2 880 7 is_stmt 0 view .LVU258
	add	r3, r3, #1073741824
	.loc 2 880 66 view .LVU259
	movs	r1, #0
	str	r1, [r3]
	.loc 2 881 5 is_stmt 1 view .LVU260
.LVL58:
.LBB325:
.LBI325:
	.loc 3 186 20 view .LVU261
.LBB326:
	.loc 3 189 5 view .LVU262
.LBE326:
.LBE325:
.LBE324:
.LBE323:
.LBB330:
.LBB331:
	.loc 2 869 7 is_stmt 0 view .LVU263
	add	r2, r2, #1073741824
.LVL59:
	.loc 2 869 7 view .LVU264
.LBE331:
.LBE330:
.LBB333:
.LBB329:
.LBB328:
.LBB327:
	.loc 3 189 5 view .LVU265
	ldr	r4, [r3]
.LVL60:
	.loc 3 189 5 view .LVU266
.LBE327:
.LBE328:
.LBE329:
.LBE333:
	.loc 1 457 5 is_stmt 1 view .LVU267
.LBB334:
.LBI330:
	.loc 2 867 20 view .LVU268
.LBB332:
	.loc 2 869 5 view .LVU269
	.loc 2 869 65 is_stmt 0 view .LVU270
	movs	r4, #1
	str	r4, [r2]
.LVL61:
	.loc 2 869 65 view .LVU271
.LBE332:
.LBE334:
	.loc 1 458 5 is_stmt 1 view .LVU272
	.loc 1 458 19 is_stmt 0 view .LVU273
	ldr	r2, .L90
	.loc 1 458 8 view .LVU274
	ldr	r2, [r2]
	cbz	r2, .L72
	.loc 1 460 9 is_stmt 1 view .LVU275
.LVL62:
.LBB335:
.LBI335:
	.loc 2 846 20 view .LVU276
.LBB336:
	.loc 2 848 5 view .LVU277
	.loc 2 848 21 is_stmt 0 view .LVU278
	mov	r3, #1073741824
	str	r0, [r3, #772]
	.loc 2 849 1 view .LVU279
	b	.L63
.LVL63:
.L67:
	.loc 2 849 1 view .LVU280
.LBE336:
.LBE335:
.LBB337:
	.loc 1 391 18 is_stmt 1 view .LVU281
.LBB307:
.LBI307:
	.loc 2 889 23 view .LVU282
.LBB308:
	.loc 2 892 5 view .LVU283
	.loc 2 895 13 view .LVU284
	.loc 2 895 27 is_stmt 0 view .LVU285
	ldr	r2, [r3, #1044]
.LVL64:
	.loc 2 895 27 view .LVU286
.LBE308:
.LBE307:
	.loc 1 391 21 view .LVU287
	lsls	r1, r2, #31
	bpl	.L69
	.loc 1 394 17 is_stmt 1 view .LVU288
.LVL65:
.LBB309:
.LBI309:
	.loc 2 1003 33 view .LVU289
.LBB310:
	.loc 2 1005 5 view .LVU290
	.loc 2 1005 38 is_stmt 0 view .LVU291
	ldr	r2, [r3, #1052]
.LVL66:
	.loc 2 1005 38 view .LVU292
.LBE310:
.LBE309:
	.loc 1 395 17 is_stmt 1 view .LVU293
.LBB311:
.LBI311:
	.loc 1 262 12 view .LVU294
.LBB312:
	.loc 1 264 4 view .LVU295
	.loc 1 267 5 view .LVU296
	.loc 1 267 37 is_stmt 0 view .LVU297
	lsls	r2, r2, #30
.LVL67:
	.loc 1 267 37 view .LVU298
	bmi	.L70
.LVL68:
	.loc 1 269 5 is_stmt 1 view .LVU299
	.loc 1 276 5 view .LVU300
	.loc 1 276 5 is_stmt 0 view .LVU301
.LBE312:
.LBE311:
	.loc 1 400 21 is_stmt 1 view .LVU302
	.loc 1 400 35 is_stmt 0 view .LVU303
	ldr	r2, .L90
	.loc 1 400 24 view .LVU304
	ldr	r2, [r2]
	cbz	r2, .L71
	.loc 1 402 25 is_stmt 1 view .LVU305
.LVL69:
.LBB313:
.LBI313:
	.loc 2 846 20 view .LVU306
.LBB314:
	.loc 2 848 5 view .LVU307
	.loc 2 848 21 is_stmt 0 view .LVU308
	movs	r2, #2
	str	r2, [r3, #772]
	.loc 2 849 1 view .LVU309
	b	.L63
.LVL70:
.L71:
	.loc 2 849 1 view .LVU310
.LBE314:
.LBE313:
	.loc 1 407 26 is_stmt 1 discriminator 1 view .LVU311
	.loc 1 406 32 discriminator 1 view .LVU312
.LBB315:
.LBI315:
	.loc 2 884 23 discriminator 1 view .LVU313
	.loc 2 886 5 discriminator 1 view .LVU314
.LBB316:
.LBI316:
	.loc 3 281 23 discriminator 1 view .LVU315
.LBB317:
	.loc 3 283 5 discriminator 1 view .LVU316
	.loc 3 283 17 is_stmt 0 discriminator 1 view .LVU317
	ldr	r2, [r3, #260]
.LVL71:
	.loc 3 283 17 discriminator 1 view .LVU318
.LBE317:
.LBE316:
.LBE315:
	.loc 1 406 32 discriminator 1 view .LVU319
	cmp	r2, #0
	beq	.L71
	.loc 1 408 25 is_stmt 1 view .LVU320
.LVL72:
.LBB318:
.LBI318:
	.loc 2 878 20 view .LVU321
.LBB319:
	.loc 2 880 5 view .LVU322
	.loc 2 880 66 is_stmt 0 view .LVU323
	movs	r2, #0
	str	r2, [r3, #260]
	.loc 2 881 5 is_stmt 1 view .LVU324
.LVL73:
.LBB320:
.LBI320:
	.loc 3 186 20 view .LVU325
.LBB321:
	.loc 3 189 5 view .LVU326
	ldr	r3, [r3, #260]
.LVL74:
	.loc 3 189 5 is_stmt 0 view .LVU327
.LBE321:
.LBE320:
	.loc 2 882 1 view .LVU328
	b	.L63
.LVL75:
.L73:
	.loc 2 882 1 view .LVU329
.LBE319:
.LBE318:
.LBE337:
	.loc 1 379 5 view .LVU330
	movs	r2, #0
	mov	r3, #256
	b	.L65
.LVL76:
.L72:
	.loc 1 465 10 is_stmt 1 discriminator 1 view .LVU331
	.loc 1 464 16 discriminator 1 view .LVU332
.LBB338:
.LBI338:
	.loc 2 884 23 discriminator 1 view .LVU333
	.loc 2 886 5 discriminator 1 view .LVU334
.LBB339:
.LBI339:
	.loc 3 281 23 discriminator 1 view .LVU335
.LBB340:
	.loc 3 283 5 discriminator 1 view .LVU336
	.loc 3 283 17 is_stmt 0 discriminator 1 view .LVU337
	ldr	r2, [r3]
.LVL77:
	.loc 3 283 17 discriminator 1 view .LVU338
.LBE340:
.LBE339:
.LBE338:
	.loc 1 464 16 discriminator 1 view .LVU339
	cmp	r2, #0
	beq	.L72
	.loc 1 466 9 is_stmt 1 view .LVU340
.LVL78:
.LBB341:
.LBI341:
	.loc 2 878 20 view .LVU341
.LBB342:
	.loc 2 880 5 view .LVU342
	.loc 2 880 66 is_stmt 0 view .LVU343
	str	r1, [r3]
	.loc 2 881 5 is_stmt 1 view .LVU344
.LVL79:
.LBB343:
.LBI343:
	.loc 3 186 20 view .LVU345
.LBB344:
	.loc 3 189 5 view .LVU346
	ldr	r3, [r3]
.LVL80:
	.loc 3 189 5 is_stmt 0 view .LVU347
.LBE344:
.LBE343:
	.loc 2 882 1 view .LVU348
	b	.L63
.L91:
	.align	2
.L90:
	.word	m_clock_cb
.LBE342:
.LBE341:
	.cfi_endproc
.LFE757:
	.size	nrfx_clock_start, .-nrfx_clock_start
	.section	.text.nrfx_clock_stop,"ax",%progbits
	.align	1
	.global	nrfx_clock_stop
	.syntax unified
	.thumb
	.thumb_func
	.type	nrfx_clock_stop, %function
nrfx_clock_stop:
.LVL81:
.LFB758:
	.loc 1 471 1 is_stmt 1 view -0
	.cfi_startproc
	@ args = 0, pretend = 0, frame = 0
	@ frame_needed = 0, uses_anonymous_args = 0
	@ link register save eliminated.
	.loc 1 472 7 view .LVU350
	.loc 1 472 8 view .LVU351
	.loc 1 473 5 view .LVU352
	b	clock_stop
.LVL82:
	.loc 1 473 5 is_stmt 0 view .LVU353
	.cfi_endproc
.LFE758:
	.size	nrfx_clock_stop, .-nrfx_clock_stop
	.section	.text.nrfx_clock_irq_handler,"ax",%progbits
	.align	1
	.global	nrfx_clock_irq_handler
	.syntax unified
	.thumb
	.thumb_func
	.type	nrfx_clock_irq_handler, %function
nrfx_clock_irq_handler:
.LFB759:
	.loc 1 650 1 is_stmt 1 view -0
	.cfi_startproc
	@ args = 0, pretend = 0, frame = 0
	@ frame_needed = 0, uses_anonymous_args = 0
	.loc 1 651 5 view .LVU355
.LVL83:
.LBB380:
.LBI380:
	.loc 2 884 23 view .LVU356
	.loc 2 886 5 view .LVU357
.LBB381:
.LBI381:
	.loc 3 281 23 view .LVU358
.LBB382:
	.loc 3 283 5 view .LVU359
.LBE382:
.LBE381:
.LBE380:
	.loc 1 650 1 is_stmt 0 view .LVU360
	push	{r4, lr}
	.cfi_def_cfa_offset 8
	.cfi_offset 4, -8
	.cfi_offset 14, -4
.LBB385:
.LBB384:
.LBB383:
	.loc 3 283 17 view .LVU361
	mov	r3, #1073741824
	ldr	r2, [r3, #256]
.LVL84:
	.loc 3 283 17 view .LVU362
.LBE383:
.LBE384:
.LBE385:
	.loc 1 651 8 view .LVU363
	cbz	r2, .L95
	.loc 1 653 9 is_stmt 1 view .LVU364
.LVL85:
.LBB386:
.LBI386:
	.loc 2 878 20 view .LVU365
.LBB387:
	.loc 2 880 5 view .LVU366
	.loc 2 880 66 is_stmt 0 view .LVU367
	movs	r2, #0
	str	r2, [r3, #256]
	.loc 2 881 5 is_stmt 1 view .LVU368
.LVL86:
.LBB388:
.LBI388:
	.loc 3 186 20 view .LVU369
.LBB389:
	.loc 3 189 5 view .LVU370
	ldr	r2, [r3, #256]
.LVL87:
	.loc 3 189 5 is_stmt 0 view .LVU371
.LBE389:
.LBE388:
.LBE387:
.LBE386:
	.loc 1 654 9 is_stmt 1 view .LVU372
.LBB390:
	.loc 1 654 14 view .LVU373
.LBE390:
	.loc 1 654 12 view .LVU374
	.loc 1 655 9 view .LVU375
.LBB391:
.LBI391:
	.loc 2 851 20 view .LVU376
.LBB392:
	.loc 2 853 5 view .LVU377
	.loc 2 853 21 is_stmt 0 view .LVU378
	movs	r2, #1
	str	r2, [r3, #776]
.LVL88:
	.loc 2 853 21 view .LVU379
.LBE392:
.LBE391:
	.loc 1 658 9 is_stmt 1 view .LVU380
	.loc 1 658 24 is_stmt 0 view .LVU381
	ldr	r3, .L102
	.loc 1 658 12 view .LVU382
	ldrb	r0, [r3, #5]	@ zero_extendqisi2
	cbnz	r0, .L95
	.loc 1 660 13 is_stmt 1 view .LVU383
	.loc 1 660 38 is_stmt 0 view .LVU384
	strb	r2, [r3, #5]
	.loc 1 661 13 is_stmt 1 view .LVU385
	ldr	r3, [r3]
	blx	r3
.LVL89:
.L95:
	.loc 1 667 5 view .LVU386
.LBB393:
.LBI393:
	.loc 2 884 23 view .LVU387
	.loc 2 886 5 view .LVU388
.LBB394:
.LBI394:
	.loc 3 281 23 view .LVU389
.LBB395:
	.loc 3 283 5 view .LVU390
	.loc 3 283 17 is_stmt 0 view .LVU391
	mov	r3, #1073741824
	ldr	r2, [r3, #260]
.LVL90:
	.loc 3 283 17 view .LVU392
.LBE395:
.LBE394:
.LBE393:
	.loc 1 667 8 view .LVU393
	cbz	r2, .L93
.LBB396:
	.loc 1 669 9 is_stmt 1 view .LVU394
.LVL91:
.LBB397:
.LBI397:
	.loc 2 878 20 view .LVU395
.LBB398:
	.loc 2 880 5 view .LVU396
	.loc 2 880 66 is_stmt 0 view .LVU397
	movs	r2, #0
	str	r2, [r3, #260]
	.loc 2 881 5 is_stmt 1 view .LVU398
.LVL92:
.LBB399:
.LBI399:
	.loc 3 186 20 view .LVU399
.LBB400:
	.loc 3 189 5 view .LVU400
	ldr	r2, [r3, #260]
.LVL93:
	.loc 3 189 5 is_stmt 0 view .LVU401
.LBE400:
.LBE399:
.LBE398:
.LBE397:
	.loc 1 670 9 is_stmt 1 view .LVU402
.LBB401:
	.loc 1 670 14 view .LVU403
.LBE401:
	.loc 1 670 12 view .LVU404
	.loc 1 673 9 view .LVU405
	.loc 1 674 9 view .LVU406
.LBB402:
.LBI402:
	.loc 2 927 23 view .LVU407
.LBB403:
	.loc 2 931 4 view .LVU408
	.loc 2 932 5 view .LVU409
.LBB404:
.LBI404:
	.loc 2 927 23 view .LVU410
.LBB405:
	.loc 2 935 13 view .LVU411
	.loc 2 935 34 is_stmt 0 view .LVU412
	ldr	r2, [r3, #1048]
.LVL94:
	.loc 2 936 13 is_stmt 1 view .LVU413
	.loc 2 938 17 view .LVU414
	.loc 2 939 47 is_stmt 0 view .LVU415
	ldr	r2, [r3, #1048]
.LVL95:
	.loc 2 939 47 view .LVU416
.LBE405:
.LBE404:
.LBE403:
.LBE402:
	.loc 1 675 9 is_stmt 1 view .LVU417
	.loc 1 675 12 is_stmt 0 view .LVU418
	lsls	r2, r2, #30
.LVL96:
	.loc 1 675 12 view .LVU419
	bne	.L98
	.loc 1 678 13 is_stmt 1 view .LVU420
.LVL97:
.LBB406:
.LBI406:
	.loc 2 986 20 view .LVU421
.LBB407:
	.loc 2 988 5 view .LVU422
	.loc 2 988 21 is_stmt 0 view .LVU423
	movs	r2, #1
	str	r2, [r3, #1304]
.LVL98:
	.loc 2 988 21 view .LVU424
.LBE407:
.LBE406:
	.loc 1 679 13 is_stmt 1 view .LVU425
.LBB408:
.LBI408:
	.loc 2 867 20 view .LVU426
.LBB409:
	.loc 2 869 5 view .LVU427
	.loc 2 869 65 is_stmt 0 view .LVU428
	str	r2, [r3, #8]
.LVL99:
.L93:
	.loc 2 869 65 view .LVU429
.LBE409:
.LBE408:
.LBE396:
	.loc 1 748 1 view .LVU430
	pop	{r4, pc}
.LVL100:
.L98:
.LBB412:
	.loc 1 685 13 is_stmt 1 view .LVU431
.LBB410:
.LBI410:
	.loc 2 851 20 view .LVU432
.LBB411:
	.loc 2 853 5 view .LVU433
	.loc 2 853 21 is_stmt 0 view .LVU434
	movs	r2, #2
	str	r2, [r3, #776]
.LVL101:
	.loc 2 853 21 view .LVU435
.LBE411:
.LBE410:
	.loc 1 686 13 is_stmt 1 view .LVU436
	.loc 1 686 23 is_stmt 0 view .LVU437
	ldr	r3, .L102
.LBE412:
	.loc 1 748 1 view .LVU438
	pop	{r4, lr}
	.cfi_restore 14
	.cfi_restore 4
	.cfi_def_cfa_offset 0
.LBB413:
	.loc 1 686 13 view .LVU439
	ldr	r3, [r3]
	movs	r0, #1
	bx	r3	@ indirect register sibling call
.LVL102:
.L103:
	.align	2
.L102:
	.word	m_clock_cb
.LBE413:
	.cfi_endproc
.LFE759:
	.size	nrfx_clock_irq_handler, .-nrfx_clock_irq_handler
	.global	nrfx_clock_irq_enabled
	.section	.bss.nrfx_clock_irq_enabled,"aw",%nobits
	.type	nrfx_clock_irq_enabled, %object
	.size	nrfx_clock_irq_enabled, 1
nrfx_clock_irq_enabled:
	.space	1
	.section	.bss.m_clock_cb,"aw",%nobits
	.align	2
	.type	m_clock_cb, %object
	.size	m_clock_cb, 8
m_clock_cb:
	.space	8
	.text
.Letext0:
	.file 6 "/home/g/zephyr-sdk-0.16.3/arm-zephyr-eabi/picolibc/include/machine/_default_types.h"
	.file 7 "/home/g/zephyr-sdk-0.16.3/arm-zephyr-eabi/picolibc/include/sys/_stdint.h"
	.file 8 "/home/g/zephyr-sdk-0.16.3/arm-zephyr-eabi/lib/gcc/arm-zephyr-eabi/12.2.0/include/stddef.h"
	.file 9 "/home/g/mise-work/zmk-firmware/zmk/modules/hal/nordic/nrfx/mdk/nrf52840.h"
	.file 10 "/home/g/mise-work/zmk-firmware/zmk/modules/hal/nordic/nrfx/drivers/nrfx_errors.h"
	.file 11 "/home/g/mise-work/zmk-firmware/zmk/zephyr/include/zephyr/logging/log_instance.h"
	.file 12 "/home/g/mise-work/zmk-firmware/zmk/zephyr/include/zephyr/sys/cbprintf.h"
	.file 13 "/home/g/mise-work/zmk-firmware/zmk/zephyr/include/zephyr/logging/log_msg.h"
	.file 14 "/home/g/mise-work/zmk-firmware/zmk/zephyr/modules/hal_nordic/nrfx/./nrfx_log.h"
	.file 15 "/home/g/mise-work/zmk-firmware/zmk/zephyr/modules/hal_nordic/nrfx/./nrfx_glue.h"
	.file 16 "/home/g/mise-work/zmk-firmware/zmk/zephyr/include/zephyr/arch/arm/irq.h"
	.file 17 "/home/g/mise-work/zmk-firmware/zmk/modules/hal/nordic/nrfx/drivers/nrfx_common.h"