	.cpu cortex-m4
	.arch armv7e-m
	.fpu fpv4-sp-d16
	.eabi_attribute 27, 1
	.eabi_attribute 28, 1
	.eabi_attribute 20, 1
	.eabi_attribute 21, 1
	.eabi_attribute 23, 3
	.eabi_attribute 24, 1
	.eabi_attribute 25, 1
	.eabi_attribute 26, 1
	.eabi_attribute 30, 4
	.eabi_attribute 34, 1
	.eabi_attribute 38, 1
	.eabi_attribute 18, 4
	.file	"usb_dc_nrfx.c"
	.text
.Ltext0:
	.cfi_sections	.debug_frame
	.file 1 "/home/g/mise-work/zmk-firmware/zmk/zephyr/drivers/usb/device/usb_dc_nrfx.c"
	.section	.text.endpoint_ctx,"ax",%progbits
	.align	1
	.syntax unified
	.thumb
	.thumb_func
	.type	endpoint_ctx, %function
endpoint_ctx:
.LVL0:
.LFB1042:
	.loc 1 331 1 view -0
	.cfi_startproc
	@ args = 0, pretend = 0, frame = 0
	@ frame_needed = 0, uses_anonymous_args = 0
	@ link register save eliminated.
	.loc 1 332 2 view .LVU1
	.loc 1 333 2 view .LVU2
	.loc 1 335 2 view .LVU3
.LBB360:
.LBI360:
	.loc 1 301 19 view .LVU4
.LBB361:
	.loc 1 303 2 view .LVU5
	.loc 1 305 5 is_stmt 0 view .LVU6
	lsls	r2, r0, #24
	.loc 1 303 10 view .LVU7
	and	r3, r0, #127
.LVL1:
	.loc 1 305 2 is_stmt 1 view .LVU8
	.loc 1 305 5 is_stmt 0 view .LVU9
	bpl	.L2
	.loc 1 306 3 is_stmt 1 view .LVU10
	.loc 1 306 6 is_stmt 0 view .LVU11
	cmp	r3, #8
	bne	.L3
.LVL2:
	.loc 1 306 6 view .LVU12
.LBE361:
.LBE360:
	.loc 1 339 2 is_stmt 1 view .LVU13
	.loc 1 340 2 view .LVU14
	.loc 1 343 6 is_stmt 0 view .LVU15
	lsls	r1, r0, #28
	.loc 1 340 9 view .LVU16
	and	r3, r0, #15
.LVL3:
	.loc 1 342 2 is_stmt 1 view .LVU17
	.loc 1 343 3 view .LVU18
	.loc 1 343 6 is_stmt 0 view .LVU19
	bpl	.L5
	.loc 1 344 11 view .LVU20
	ldr	r0, .L14
.LVL4:
	.loc 1 344 11 view .LVU21
	bx	lr
.LVL5:
.L3:
.LBB365:
.LBB362:
	.loc 1 311 4 is_stmt 1 view .LVU22
	.loc 1 311 7 is_stmt 0 view .LVU23
	tst	r0, #120
	bne	.L12
.LVL6:
	.loc 1 311 7 view .LVU24
.LBE362:
.LBE365:
	.loc 1 339 2 is_stmt 1 view .LVU25
	.loc 1 340 2 view .LVU26
	.loc 1 340 9 is_stmt 0 view .LVU27
	and	r3, r0, #15
.LVL7:
	.loc 1 342 2 is_stmt 1 view .LVU28
	.loc 1 343 3 view .LVU29
.L5:
	.loc 1 346 4 view .LVU30
	.loc 1 346 11 is_stmt 0 view .LVU31
	movs	r0, #76
.LVL8:
	.loc 1 346 11 view .LVU32
	add	r0, r0, r3, lsl #5
	ldr	r3, .L14+4
.LVL9:
	.loc 1 346 11 view .LVU33
	add	r0, r0, r3
	bx	lr
.LVL10:
.L2:
.LBB366:
.LBB363:
	.loc 1 316 3 is_stmt 1 view .LVU34
	.loc 1 316 6 is_stmt 0 view .LVU35
	cmp	r3, #8
	bne	.L6
.L8:
.LVL11:
	.loc 1 316 6 view .LVU36
.LBE363:
.LBE366:
	.loc 1 339 2 is_stmt 1 view .LVU37
	.loc 1 340 2 view .LVU38
	.loc 1 349 6 is_stmt 0 view .LVU39
	lsls	r2, r0, #28
	.loc 1 340 9 view .LVU40
	and	r3, r0, #15
.LVL12:
	.loc 1 342 2 is_stmt 1 view .LVU41
	.loc 1 349 3 view .LVU42
	.loc 1 349 6 is_stmt 0 view .LVU43
	bpl	.L13
	.loc 1 350 11 view .LVU44
	ldr	r0, .L14+8
.LVL13:
	.loc 1 350 11 view .LVU45
	bx	lr
.LVL14:
.L6:
.LBB367:
.LBB364:
	.loc 1 321 4 is_stmt 1 view .LVU46
	.loc 1 321 7 is_stmt 0 view .LVU47
	tst	r0, #120
	beq	.L8
.L12:
.LBE364:
.LBE367:
	.loc 1 336 9 view .LVU48
	movs	r0, #0
.LVL15:
	.loc 1 359 1 view .LVU49
	bx	lr
.LVL16:
.L13:
	.loc 1 352 4 is_stmt 1 view .LVU50
	.loc 1 352 11 is_stmt 0 view .LVU51
	ldr	r0, .L14+12
.LVL17:
	.loc 1 352 11 view .LVU52
	add	r0, r0, r3, lsl #5
	bx	lr
.L15:
	.align	2
.L14:
	.word	usbd_ctx+332
	.word	usbd_ctx
	.word	usbd_ctx+620
	.word	usbd_ctx+364
	.cfi_endproc
.LFE1042:
	.size	endpoint_ctx, .-endpoint_ctx
	.section	.text.ep_ctx_reset,"ax",%progbits
	.align	1
	.syntax unified
	.thumb
	.thumb_func
	.type	ep_ctx_reset, %function
ep_ctx_reset:
.LVL18:
.LFB1056:
	.loc 1 602 1 is_stmt 1 view -0
	.cfi_startproc
	@ args = 0, pretend = 0, frame = 0
	@ frame_needed = 0, uses_anonymous_args = 0
	.loc 1 603 2 view .LVU54
	.loc 1 602 1 is_stmt 0 view .LVU55
	push	{r4, lr}
	.cfi_def_cfa_offset 8
	.cfi_offset 4, -8
	.cfi_offset 14, -4
	.loc 1 603 38 view .LVU56
	ldr	r3, [r0, #16]
	.loc 1 604 19 view .LVU57
	strd	r3, r3, [r0, #20]
	.loc 1 605 2 is_stmt 1 view .LVU58
	.loc 1 605 18 is_stmt 0 view .LVU59
	movs	r3, #0
	str	r3, [r0, #12]
	.loc 1 608 2 is_stmt 1 view .LVU60
	.loc 1 608 12 is_stmt 0 view .LVU61
	ldrb	r3, [r0, #30]	@ zero_extendqisi2
	.loc 1 602 1 view .LVU62
	mov	r4, r0
	.loc 1 608 5 view .LVU63
	cbz	r3, .L17
	.loc 1 609 3 is_stmt 1 view .LVU64
	ldrb	r0, [r0, #9]	@ zero_extendqisi2
.LVL19:
	.loc 1 609 3 is_stmt 0 view .LVU65
	bl	nrfx_usbd_ep_abort
.LVL20:
.L17:
	.loc 1 612 2 is_stmt 1 view .LVU66
	.loc 1 612 24 is_stmt 0 view .LVU67
	movs	r3, #1
	strb	r3, [r4, #28]
	.loc 1 613 2 is_stmt 1 view .LVU68
	.loc 1 613 23 is_stmt 0 view .LVU69
	movs	r3, #0
	strb	r3, [r4, #29]
	.loc 1 614 2 is_stmt 1 view .LVU70
	.loc 1 615 20 is_stmt 0 view .LVU71
	strb	r3, [r4, #31]
	.loc 1 614 28 view .LVU72
	strb	r3, [r4, #30]
	.loc 1 615 2 is_stmt 1 view .LVU73
	.loc 1 616 1 is_stmt 0 view .LVU74
	pop	{r4, pc}
	.loc 1 616 1 view .LVU75
	.cfi_endproc
.LFE1056:
	.size	ep_ctx_reset, .-ep_ctx_reset
	.section	.text.usbd_work_schedule,"ax",%progbits
	.align	1
	.syntax unified
	.thumb
	.thumb_func
	.type	usbd_work_schedule, %function
usbd_work_schedule:
.LFB1045:
	.loc 1 377 1 is_stmt 1 view -0
	.cfi_startproc
	@ args = 0, pretend = 0, frame = 0
	@ frame_needed = 0, uses_anonymous_args = 0
	@ link register save eliminated.
	.loc 1 378 2 view .LVU77
	ldr	r1, .L22
	ldr	r0, .L22+4
	b	k_work_submit_to_queue
.LVL21:
.L23:
	.align	2
.L22:
	.word	usbd_ctx+40
	.word	usbd_work_queue
	.cfi_endproc
.LFE1045:
	.size	usbd_work_schedule, .-usbd_work_schedule
	.section	.text.usbd_evt_put,"ax",%progbits
	.align	1
	.syntax unified
	.thumb
	.thumb_func
	.type	usbd_evt_put, %function
usbd_evt_put:
.LVL22:
.LFB1047:
	.loc 1 399 1 view -0
	.cfi_startproc
	@ args = 0, pretend = 0, frame = 0
	@ frame_needed = 0, uses_anonymous_args = 0
	@ link register save eliminated.
	.loc 1 400 2 view .LVU79
.LBB368:
	.loc 1 400 5 view .LVU80
	.loc 1 400 10 view .LVU81
	.loc 1 400 8 view .LVU82
	.loc 1 400 4 view .LVU83
.LBE368:
	.loc 1 399 1 is_stmt 0 view .LVU84
	mov	r1, r0
.LBB369:
	.loc 1 400 4 view .LVU85
	ldr	r0, .L25
.LVL23:
	.loc 1 400 4 view .LVU86
	b	k_queue_append
.LVL24:
.L26:
	.loc 1 400 4 view .LVU87
	.align	2
.L25:
	.word	usbd_evt_fifo
.LBE369:
	.cfi_endproc
.LFE1047:
	.size	usbd_evt_put, .-usbd_evt_put
	.section	.text.usbd_evt_get,"ax",%progbits
	.align	1
	.syntax unified
	.thumb
	.thumb_func
	.type	usbd_evt_get, %function
usbd_evt_get:
.LFB1048:
	.loc 1 407 1 is_stmt 1 view -0
	.cfi_startproc
	@ args = 0, pretend = 0, frame = 0
	@ frame_needed = 0, uses_anonymous_args = 0
	@ link register save eliminated.
	.loc 1 408 2 view .LVU89
.LBB373:
	.loc 1 408 12 view .LVU90
	.loc 1 408 17 view .LVU91
	.loc 1 408 15 view .LVU92
	.loc 1 408 11 view .LVU93
.LBB374:
.LBI374:
	.file 2 "/home/g/mise-work/zmk-firmware/zmk/app/build/zephyr/include/generated/syscalls/kernel.h"
	.loc 2 684 22 view .LVU94
.LVL25:
.LBB375:
	.loc 2 693 2 view .LVU95
	.loc 2 693 7 view .LVU96
	.loc 2 693 5 view .LVU97
	.loc 2 694 2 view .LVU98
	.loc 2 694 9 is_stmt 0 view .LVU99
	ldr	r0, .L28
	movs	r2, #0
	movs	r3, #0
	b	z_impl_k_queue_get
.LVL26:
.L29:
	.align	2
.L28:
	.word	usbd_evt_fifo
.LBE375:
.LBE374:
.LBE373:
	.cfi_endproc
.LFE1048:
	.size	usbd_evt_get, .-usbd_evt_get
	.section	.rodata.usb_init.str1.1,"aMS",%progbits,1
.LC0:
	.ascii	"usbd_workq\000"
	.section	.text.usb_init,"ax",%progbits
	.align	1
	.syntax unified
	.thumb
	.thumb_func
	.type	usb_init, %function
usb_init:
.LFB1089:
	.loc 1 1882 1 is_stmt 1 view -0
	.cfi_startproc
	@ args = 0, pretend = 0, frame = 0
	@ frame_needed = 0, uses_anonymous_args = 0
	.loc 1 1883 2 view .LVU101
.LVL27:
	.loc 1 1884 2 view .LVU102
	.loc 1 1896 2 view .LVU103
	.loc 1 1905 2 view .LVU104
	.loc 1 1909 2 view .LVU105
	.loc 1 1882 1 is_stmt 0 view .LVU106
	push	{r0, r1, r4, lr}
	.cfi_def_cfa_offset 16
	.cfi_offset 4, -8
	.cfi_offset 14, -4
	.loc 1 1909 8 view .LVU107
	ldr	r0, .L33
	bl	nrfx_usbd_init
.LVL28:
	.loc 1 1910 2 is_stmt 1 view .LVU108
	.loc 1 1910 5 is_stmt 0 view .LVU109
	ldr	r3, .L33+4
	cmp	r0, r3
	bne	.L32
	.loc 1 1918 2 is_stmt 1 view .LVU110
	.loc 1 1918 8 is_stmt 0 view .LVU111
	ldr	r0, .L33+8
.LVL29:
	.loc 1 1918 8 view .LVU112
	bl	nrfx_power_init
.LVL30:
	.loc 1 1919 2 is_stmt 1 view .LVU113
	.loc 1 1921 2 is_stmt 0 view .LVU114
	movs	r4, #0
	.loc 1 1919 2 view .LVU115
	ldr	r0, .L33+12
	bl	nrfx_power_usbevt_init
.LVL31:
	.loc 1 1921 2 is_stmt 1 view .LVU116
	ldr	r1, .L33+16
	ldr	r0, .L33+20
	str	r4, [sp]
	mov	r3, #-1
	mov	r2, #1024
	bl	k_work_queue_start
.LVL32:
	.loc 1 1926 2 view .LVU117
.LBB382:
.LBI382:
	.loc 2 426 19 view .LVU118
.LBB383:
	.loc 2 435 2 view .LVU119
	.loc 2 435 7 view .LVU120
	.loc 2 435 5 view .LVU121
	.loc 2 436 2 view .LVU122
	.loc 2 436 9 is_stmt 0 view .LVU123
	ldr	r1, .L33+24
	ldr	r0, .L33+20
	bl	z_impl_k_thread_name_set
.LVL33:
	.loc 2 436 9 view .LVU124
.LBE383:
.LBE382:
	.loc 1 1927 2 is_stmt 1 view .LVU125
	ldr	r0, .L33+28
	ldr	r1, .L33+32
	bl	k_work_init
.LVL34:
	.loc 1 1929 2 view .LVU126
	.loc 1 1929 9 is_stmt 0 view .LVU127
	mov	r0, r4
.L30:
	.loc 1 1930 1 view .LVU128
	add	sp, sp, #8
	.cfi_remember_state
	.cfi_def_cfa_offset 8
	@ sp needed
	pop	{r4, pc}
.LVL35:
.L32:
	.cfi_restore_state
	.loc 1 1912 10 view .LVU129
	mvn	r0, #4
.LVL36:
	.loc 1 1912 10 view .LVU130
	b	.L30
.L34:
	.align	2
.L33:
	.word	usbd_event_handler
	.word	195887104
	.word	power_config.1
	.word	usbevt_config.0
	.word	usbd_work_queue_stack
	.word	usbd_work_queue
	.word	.LC0
	.word	usbd_ctx+40
	.word	usbd_work_handler
	.cfi_endproc
.LFE1089:
	.size	usb_init, .-usb_init
	.section	.text.k_mutex_lock.constprop.0.isra.0,"ax",%progbits
	.align	1
	.syntax unified
	.thumb
	.thumb_func
	.type	k_mutex_lock.constprop.0.isra.0, %function
k_mutex_lock.constprop.0.isra.0:
.LVL37:
.LFB1096:
	.loc 2 976 19 is_stmt 1 view -0
	.cfi_startproc
	@ args = 0, pretend = 0, frame = 0
	@ frame_needed = 0, uses_anonymous_args = 0
	@ link register save eliminated.
	.loc 2 985 2 view .LVU132
	.loc 2 985 7 view .LVU133
	.loc 2 985 5 view .LVU134
	.loc 2 986 2 view .LVU135
	.loc 2 986 9 is_stmt 0 view .LVU136
	b	z_impl_k_mutex_lock
.LVL38:
	.loc 2 986 9 view .LVU137
	.cfi_endproc
.LFE1096:
	.size	k_mutex_lock.constprop.0.isra.0, .-k_mutex_lock.constprop.0.isra.0
	.section	.text.hfxo_stop.constprop.0.isra.0,"ax",%progbits
	.align	1
	.syntax unified
	.thumb
	.thumb_func
	.type	hfxo_stop.constprop.0.isra.0, %function
hfxo_stop.constprop.0.isra.0:
.LFB1098:
	.loc 1 532 12 is_stmt 1 view -0
	.cfi_startproc
	@ args = 0, pretend = 0, frame = 0
	@ frame_needed = 0, uses_anonymous_args = 0
.LVL39:
	.loc 1 534 2 view .LVU139
.LBB392:
.LBI392:
	.file 3 "/home/g/mise-work/zmk-firmware/zmk/zephyr/include/zephyr/sys/atomic_builtin.h"
	.loc 3 40 19 view .LVU140
.LBB393:
	.loc 3 43 2 view .LVU141
.LBE393:
.LBE392:
	.loc 1 532 12 is_stmt 0 view .LVU142
	push	{r4, lr}
	.cfi_def_cfa_offset 8
	.cfi_offset 4, -8
	.cfi_offset 14, -4
.LBB395:
.LBB394:
	.loc 3 43 9 view .LVU143
	ldr	r1, .L42
.LVL40:
	.loc 3 43 9 view .LVU144
	dmb	ish
	movs	r3, #0
.L40:
	ldrex	r2, [r1]
	cmp	r2, #1
	bne	.L41
	strex	r0, r3, [r1]
	cmp	r0, #0
	bne	.L40
.L41:
.LVL41:
	.loc 3 43 9 view .LVU145
	dmb	ish
.LBE394:
.LBE395:
	.loc 1 534 5 view .LVU146
	bne	.L36
	.loc 1 535 3 is_stmt 1 view .LVU147
	.loc 1 535 10 is_stmt 0 view .LVU148
	ldr	r4, [r1, #-4]
.LVL42:
.LBB396:
.LBI396:
	.file 4 "/home/g/mise-work/zmk-firmware/zmk/zephyr/include/zephyr/sys/onoff.h"
	.loc 4 435 19 is_stmt 1 view .LVU149
.LBB397:
	.loc 4 438 2 view .LVU150
	.loc 4 438 11 is_stmt 0 view .LVU151
	subs	r1, r1, #20
	mov	r0, r4
	bl	onoff_cancel
.LVL43:
	.loc 4 440 2 is_stmt 1 view .LVU152
	.loc 4 440 5 is_stmt 0 view .LVU153
	adds	r0, r0, #120
.LVL44:
	.loc 4 440 5 view .LVU154
	bne	.L36
	.loc 4 441 3 is_stmt 1 view .LVU155
	.loc 4 441 8 is_stmt 0 view .LVU156
	mov	r0, r4
.LVL45:
	.loc 4 441 8 view .LVU157
.LBE397:
.LBE396:
	.loc 1 539 1 view .LVU158
	pop	{r4, lr}
	.cfi_remember_state
	.cfi_restore 14
	.cfi_restore 4
	.cfi_def_cfa_offset 0
.LVL46:
.LBB399:
.LBB398:
	.loc 4 441 8 view .LVU159
	b	onoff_release
.LVL47:
.L36:
	.cfi_restore_state
	.loc 4 441 8 view .LVU160
.LBE398:
.LBE399:
	.loc 1 539 1 view .LVU161
	pop	{r4, pc}
.L43:
	.align	2
.L42:
	.word	usbd_ctx+32
	.cfi_endproc
.LFE1098:
	.size	hfxo_stop.constprop.0.isra.0, .-hfxo_stop.constprop.0.isra.0
	.section	.text.k_mutex_unlock.isra.0,"ax",%progbits
	.align	1
	.syntax unified
	.thumb
	.thumb_func
	.type	k_mutex_unlock.isra.0, %function
k_mutex_unlock.isra.0:
.LVL48:
.LFB1101:
	.loc 2 993 19 is_stmt 1 view -0
	.cfi_startproc
	@ args = 0, pretend = 0, frame = 0
	@ frame_needed = 0, uses_anonymous_args = 0
	@ link register save eliminated.
	.loc 2 1001 2 view .LVU163
	.loc 2 1001 7 view .LVU164
	.loc 2 1001 5 view .LVU165
	.loc 2 1002 2 view .LVU166
	.loc 2 1002 9 is_stmt 0 view .LVU167
	b	z_impl_k_mutex_unlock
.LVL49:
	.loc 2 1002 9 view .LVU168
	.cfi_endproc
.LFE1101:
	.size	k_mutex_unlock.isra.0, .-k_mutex_unlock.isra.0
	.section	.text.eps_ctx_init,"ax",%progbits
	.align	1
	.syntax unified
	.thumb
	.thumb_func
	.type	eps_ctx_init, %function
eps_ctx_init:
.LFB1057:
	.loc 1 626 1 is_stmt 1 view -0
	.cfi_startproc
	@ args = 0, pretend = 0, frame = 0
	@ frame_needed = 0, uses_anonymous_args = 0
	.loc 1 627 2 view .LVU170
	.loc 1 628 2 view .LVU171
	.loc 1 630 2 view .LVU172
.LVL50:
	.loc 1 630 17 view .LVU173
	.loc 1 626 1 is_stmt 0 view .LVU174
	push	{r3, r4, r5, lr}
	.cfi_def_cfa_offset 16
	.cfi_offset 3, -16
	.cfi_offset 4, -12
	.cfi_offset 5, -8
	.cfi_offset 14, -4
	.loc 1 630 9 view .LVU175
	movs	r4, #0
.LVL51:
.L46:
	.loc 1 631 3 is_stmt 1 discriminator 3 view .LVU176
.LBB416:
.LBI416:
	.loc 1 361 32 discriminator 3 view .LVU177
.LBB417:
	.loc 1 363 2 discriminator 3 view .LVU178
	.loc 1 363 9 is_stmt 0 discriminator 3 view .LVU179
	orn	r0, r4, #127
	uxtb	r0, r0
	bl	endpoint_ctx
.LVL52:
	.loc 1 363 9 discriminator 3 view .LVU180
.LBE417:
.LBE416:
	.loc 1 632 5 is_stmt 1 discriminator 3 view .LVU181
	.loc 1 632 6 discriminator 3 view .LVU182
	.loc 1 633 3 discriminator 3 view .LVU183
	.loc 1 630 29 is_stmt 0 discriminator 3 view .LVU184
	adds	r4, r4, #1
.LVL53:
	.loc 1 633 3 discriminator 3 view .LVU185
	bl	ep_ctx_reset
.LVL54:
	.loc 1 630 29 is_stmt 1 discriminator 3 view .LVU186
	.loc 1 630 17 discriminator 3 view .LVU187
	cmp	r4, #8
	bne	.L46
	ldr	r5, .L52
	.loc 1 636 9 is_stmt 0 view .LVU188
	movs	r4, #0
.LVL55:
.L48:
	.loc 1 637 3 is_stmt 1 view .LVU189
.LBB418:
.LBI418:
	.loc 1 366 32 view .LVU190
.LBB419:
	.loc 1 368 2 view .LVU191
	.loc 1 368 9 is_stmt 0 view .LVU192
	uxtb	r0, r4
	bl	endpoint_ctx
.LVL56:
	.loc 1 368 9 view .LVU193
.LBE419:
.LBE418:
	.loc 1 638 5 is_stmt 1 view .LVU194
	.loc 1 638 6 view .LVU195
	.loc 1 640 3 view .LVU196
	.loc 1 640 6 is_stmt 0 view .LVU197
	ldr	r3, [r0, #16]
	cbnz	r3, .L47
	.loc 1 641 4 is_stmt 1 view .LVU198
	.loc 1 641 27 is_stmt 0 view .LVU199
	str	r5, [r0, #16]
.L47:
	.loc 1 644 3 is_stmt 1 discriminator 2 view .LVU200
	.loc 1 636 29 is_stmt 0 discriminator 2 view .LVU201
	adds	r4, r4, #1
.LVL57:
	.loc 1 644 3 discriminator 2 view .LVU202
	bl	ep_ctx_reset
.LVL58:
	.loc 1 636 29 is_stmt 1 discriminator 2 view .LVU203
	.loc 1 636 17 discriminator 2 view .LVU204
	cmp	r4, #8
	add	r5, r5, #64
	bne	.L48
	.loc 1 647 2 view .LVU205
	.loc 1 648 3 view .LVU206
.LVL59:
.LBB420:
.LBI420:
	.loc 1 361 32 view .LVU207
	.loc 1 363 2 view .LVU208
.LBB421:
.LBI421:
	.loc 1 330 32 view .LVU209
	.loc 1 332 2 view .LVU210
	.loc 1 333 2 view .LVU211
	.loc 1 335 2 view .LVU212
	.loc 1 339 2 view .LVU213
	.loc 1 340 2 view .LVU214
	.loc 1 342 2 view .LVU215
	.loc 1 343 3 view .LVU216
	.loc 1 343 3 is_stmt 0 view .LVU217
.LBE421:
.LBE420:
	.loc 1 649 5 is_stmt 1 view .LVU218
	.loc 1 649 6 view .LVU219
	.loc 1 650 3 view .LVU220
	ldr	r0, .L52+4
.LVL60:
	.loc 1 650 3 is_stmt 0 view .LVU221
	bl	ep_ctx_reset
.LVL61:
	.loc 1 653 2 is_stmt 1 view .LVU222
	.loc 1 654 3 view .LVU223
	.loc 1 656 3 view .LVU224
.LBB422:
.LBI422:
	.loc 1 366 32 view .LVU225
	.loc 1 368 2 view .LVU226
.LBB423:
.LBI423:
	.loc 1 330 32 view .LVU227
	.loc 1 332 2 view .LVU228
	.loc 1 333 2 view .LVU229
	.loc 1 335 2 view .LVU230
	.loc 1 339 2 view .LVU231
	.loc 1 340 2 view .LVU232
	.loc 1 342 2 view .LVU233
	.loc 1 349 3 view .LVU234
	.loc 1 349 3 is_stmt 0 view .LVU235
.LBE423:
.LBE422:
	.loc 1 657 5 is_stmt 1 view .LVU236
	.loc 1 657 6 view .LVU237
	.loc 1 659 3 view .LVU238
	.loc 1 659 25 is_stmt 0 view .LVU239
	ldr	r3, .L52+8
	.loc 1 659 6 view .LVU240
	ldr	r2, [r3, #636]
	cbnz	r2, .L49
	.loc 1 660 4 is_stmt 1 view .LVU241
	.loc 1 660 27 is_stmt 0 view .LVU242
	ldr	r2, .L52+12
	str	r2, [r3, #636]
.L49:
	.loc 1 663 3 is_stmt 1 view .LVU243
	ldr	r0, .L52+16
.LVL62:
	.loc 1 663 3 is_stmt 0 view .LVU244
	bl	ep_ctx_reset
.LVL63:
	.loc 1 666 2 is_stmt 1 view .LVU245
	.loc 1 667 1 is_stmt 0 view .LVU246
	movs	r0, #0
	pop	{r3, r4, r5, pc}
.LVL64:
.L53:
	.loc 1 667 1 view .LVU247
	.align	2
.L52:
	.word	ep_out_bufs
	.word	usbd_ctx+332
	.word	usbd_ctx
	.word	ep_isoout_bufs
	.word	usbd_ctx+620
	.cfi_endproc
.LFE1057:
	.size	eps_ctx_init, .-eps_ctx_init
	.section	.text.usbd_evt_flush,"ax",%progbits
	.align	1
	.syntax unified
	.thumb
	.thumb_func
	.type	usbd_evt_flush, %function
usbd_evt_flush:
.LFB1049:
	.loc 1 415 1 is_stmt 1 view -0
	.cfi_startproc
	@ args = 0, pretend = 0, frame = 0
	@ frame_needed = 0, uses_anonymous_args = 0
	push	{r4, lr}
	.cfi_def_cfa_offset 8
	.cfi_offset 4, -8
	.cfi_offset 14, -4
.LBB426:
.LBB427:
	.loc 1 390 2 is_stmt 0 view .LVU249
	ldr	r4, .L58
.L56:
.LBE427:
.LBE426:
	.loc 1 416 2 is_stmt 1 view .LVU250
	.loc 1 418 2 view .LVU251
	.loc 1 419 3 view .LVU252
	.loc 1 419 8 is_stmt 0 view .LVU253
	bl	usbd_evt_get
.LVL65:
	.loc 1 420 3 is_stmt 1 view .LVU254
	.loc 1 420 6 is_stmt 0 view .LVU255
	cbz	r0, .L57
	.loc 1 421 4 is_stmt 1 view .LVU256
.LBB429:
.LBI426:
	.loc 1 388 20 view .LVU257
.LVL66:
.LBB428:
	.loc 1 390 2 view .LVU258
	ldr	r1, [r0, #4]
	mov	r0, r4
.LVL67:
	.loc 1 390 2 is_stmt 0 view .LVU259
	bl	k_mem_slab_free
.LVL68:
	.loc 1 390 2 view .LVU260
.LBE428:
.LBE429:
	.loc 1 423 14 is_stmt 1 view .LVU261
	b	.L56
.LVL69:
.L57:
	.loc 1 424 1 is_stmt 0 view .LVU262
	pop	{r4, pc}
.L59:
	.align	2
.L58:
	.word	fifo_elem_slab
	.cfi_endproc
.LFE1049:
	.size	usbd_evt_flush, .-usbd_evt_flush
	.section	.text.usbd_evt_alloc,"ax",%progbits
	.align	1
	.syntax unified
	.thumb
	.thumb_func
	.type	usbd_evt_alloc, %function
usbd_evt_alloc:
.LFB1050:
	.loc 1 434 1 is_stmt 1 view -0
	.cfi_startproc
	@ args = 0, pretend = 0, frame = 8
	@ frame_needed = 0, uses_anonymous_args = 0
	.loc 1 435 2 view .LVU264
	.loc 1 436 2 view .LVU265
	.loc 1 438 2 view .LVU266
	.loc 1 434 1 is_stmt 0 view .LVU267
	push	{r0, r1, r2, lr}
	.cfi_def_cfa_offset 16
	.cfi_offset 14, -4
.LBB430:
	.loc 1 438 6 view .LVU268
	movs	r3, #0
	ldr	r0, .L65
	movs	r2, #0
	add	r1, sp, #4
	bl	k_mem_slab_alloc
.LVL70:
	.loc 1 438 5 view .LVU269
	cbz	r0, .L61
	.loc 1 440 3 is_stmt 1 discriminator 219 view .LVU270
.LBB431:
	.loc 1 440 8 discriminator 219 view .LVU271
.LBE431:
	.loc 1 440 6 discriminator 219 view .LVU272
	.loc 1 448 3 discriminator 219 view .LVU273
	bl	usbd_evt_flush
.LVL71:
	.loc 1 450 3 discriminator 219 view .LVU274
.LBB432:
	.loc 1 450 7 is_stmt 0 discriminator 219 view .LVU275
	ldr	r0, .L65
	movs	r2, #0
	movs	r3, #0
	add	r1, sp, #4
	bl	k_mem_slab_alloc
.LVL72:
	.loc 1 450 6 discriminator 219 view .LVU276
	cbnz	r0, .L63
.LBE432:
	.loc 1 456 3 is_stmt 1 view .LVU277
	.loc 1 456 6 is_stmt 0 view .LVU278
	ldr	r0, [sp, #4]
.LVL73:
	.loc 1 457 3 is_stmt 1 view .LVU279
	.loc 1 458 16 is_stmt 0 view .LVU280
	movs	r3, #4
	.loc 1 457 13 view .LVU281
	str	r0, [r0, #4]
	.loc 1 458 3 is_stmt 1 view .LVU282
	.loc 1 458 16 is_stmt 0 view .LVU283
	strb	r3, [r0, #16]
	.loc 1 459 3 is_stmt 1 view .LVU284
	bl	usbd_evt_put
.LVL74:
	.loc 1 460 3 view .LVU285
	bl	usbd_work_schedule
.LVL75:
	.loc 1 462 3 view .LVU286
.L63:
	.loc 1 462 3 is_stmt 0 view .LVU287
	movs	r0, #0
	b	.L60
.L61:
.LBE430:
	.loc 1 465 2 is_stmt 1 view .LVU288
	.loc 1 465 5 is_stmt 0 view .LVU289
	ldr	r0, [sp, #4]
.LVL76:
	.loc 1 466 2 is_stmt 1 view .LVU290
	.loc 1 466 12 is_stmt 0 view .LVU291
	str	r0, [r0, #4]
	.loc 1 468 2 is_stmt 1 view .LVU292
.LVL77:
.L60:
	.loc 1 469 1 is_stmt 0 view .LVU293
	add	sp, sp, #12
	.cfi_def_cfa_offset 4
	@ sp needed
	ldr	pc, [sp], #4
.L66:
	.align	2
.L65:
	.word	fifo_elem_slab
	.cfi_endproc
.LFE1050:
	.size	usbd_evt_alloc, .-usbd_evt_alloc
	.section	.text.usb_dc_power_event_handler,"ax",%progbits
	.align	1
	.syntax unified
	.thumb
	.thumb_func
	.type	usb_dc_power_event_handler, %function
usb_dc_power_event_handler:
.LVL78:
.LFB1052:
	.loc 1 500 1 is_stmt 1 view -0
	.cfi_startproc
	@ args = 0, pretend = 0, frame = 0
	@ frame_needed = 0, uses_anonymous_args = 0
	.loc 1 501 2 view .LVU295
	.loc 1 503 2 view .LVU296
	cmp	r0, #2
	.loc 1 500 1 is_stmt 0 view .LVU297
	push	{r4, lr}
	.cfi_def_cfa_offset 8
	.cfi_offset 4, -8
	.cfi_offset 14, -4
	bhi	.L67
	ldr	r3, .L77
	ldrb	r4, [r3, r0]	@ zero_extendqisi2
.LVL79:
	.loc 1 526 2 is_stmt 1 view .LVU298
.LBB439:
.LBI439:
	.loc 1 471 13 view .LVU299
.LBB440:
	.loc 1 473 2 view .LVU300
	.loc 1 473 26 is_stmt 0 view .LVU301
	bl	usbd_evt_alloc
.LVL80:
	.loc 1 475 2 is_stmt 1 view .LVU302
	.loc 1 475 5 is_stmt 0 view .LVU303
	cbz	r0, .L67
	.loc 1 479 2 is_stmt 1 view .LVU304
	.loc 1 479 15 is_stmt 0 view .LVU305
	movs	r2, #0
	strb	r2, [r0, #16]
	.loc 1 480 2 is_stmt 1 view .LVU306
	.loc 1 480 24 is_stmt 0 view .LVU307
	strb	r4, [r0, #8]
	.loc 1 482 2 is_stmt 1 view .LVU308
	bl	usbd_evt_put
.LVL81:
	.loc 1 484 2 view .LVU309
	.loc 1 484 14 is_stmt 0 view .LVU310
	ldr	r3, .L77+4
	.loc 1 484 5 view .LVU311
	ldrb	r3, [r3, #36]	@ zero_extendqisi2
	cbz	r3, .L67
	.loc 1 485 3 is_stmt 1 view .LVU312
.LBE440:
.LBE439:
	.loc 1 527 1 is_stmt 0 view .LVU313
	pop	{r4, lr}
	.cfi_remember_state
	.cfi_restore 14
	.cfi_restore 4
	.cfi_def_cfa_offset 0
.LVL82:
.LBB442:
.LBB441:
	.loc 1 485 3 view .LVU314
	b	usbd_work_schedule
.LVL83:
.L67:
	.cfi_restore_state
	.loc 1 485 3 view .LVU315
.LBE441:
.LBE442:
	.loc 1 527 1 view .LVU316
	pop	{r4, pc}
.L78:
	.align	2
.L77:
	.word	CSWTCH.6708
	.word	usbd_ctx
	.cfi_endproc
.LFE1052:
	.size	usb_dc_power_event_handler, .-usb_dc_power_event_handler
	.section	.text.usbd_event_transfer_data,"ax",%progbits
	.align	1
	.syntax unified
	.thumb
	.thumb_func
	.type	usbd_event_transfer_data, %function
usbd_event_transfer_data:
.LVL84:
.LFB1063:
	.loc 1 951 1 is_stmt 1 view -0
	.cfi_startproc
	@ args = 0, pretend = 0, frame = 0
	@ frame_needed = 0, uses_anonymous_args = 0
	.loc 1 952 2 view .LVU318
	.loc 1 951 1 is_stmt 0 view .LVU319
	push	{r3, r4, r5, r6, r7, lr}
	.cfi_def_cfa_offset 24
	.cfi_offset 3, -24
	.cfi_offset 4, -20
	.cfi_offset 5, -16
	.cfi_offset 6, -12
	.cfi_offset 7, -8
	.cfi_offset 14, -4
	.loc 1 953 40 view .LVU320
	ldrb	r7, [r0, #2]	@ zero_extendqisi2
	.loc 1 951 1 view .LVU321
	mov	r6, r0
	.loc 1 953 3 view .LVU322
	mov	r0, r7
.LVL85:
	.loc 1 953 3 view .LVU323
	bl	endpoint_ctx
.LVL86:
	.loc 1 955 5 view .LVU324
	lsls	r3, r7, #24
	.loc 1 956 35 view .LVU325
	ldrb	r5, [r6, #3]	@ zero_extendqisi2
	.loc 1 953 3 view .LVU326
	mov	r4, r0
.LVL87:
	.loc 1 955 2 is_stmt 1 view .LVU327
	.loc 1 955 5 is_stmt 0 view .LVU328
	bpl	.L80
	.loc 1 956 3 is_stmt 1 view .LVU329
	cmp	r5, #0
	bne	.L79
.LBB476:
	.loc 1 958 4 view .LVU330
	.loc 1 958 28 is_stmt 0 view .LVU331
	bl	usbd_evt_alloc
.LVL88:
	.loc 1 960 4 is_stmt 1 view .LVU332
	.loc 1 960 7 is_stmt 0 view .LVU333
	mov	r3, r0
	cmp	r0, #0
	beq	.L79
	.loc 1 964 4 is_stmt 1 discriminator 335 view .LVU334
.LBB477:
	.loc 1 964 9 discriminator 335 view .LVU335
.LBE477:
	.loc 1 964 7 discriminator 335 view .LVU336
	.loc 1 967 4 discriminator 335 view .LVU337
	.loc 1 968 17 is_stmt 0 discriminator 335 view .LVU338
	movs	r2, #1
	.loc 1 967 30 discriminator 335 view .LVU339
	strb	r5, [r4, #30]
	.loc 1 968 4 is_stmt 1 discriminator 335 view .LVU340
	.loc 1 968 17 is_stmt 0 discriminator 335 view .LVU341
	strb	r2, [r0, #16]
	.loc 1 969 4 is_stmt 1 discriminator 335 view .LVU342
	.loc 1 969 28 is_stmt 0 discriminator 335 view .LVU343
	movs	r2, #3
	strb	r2, [r0, #12]
	.loc 1 970 4 is_stmt 1 discriminator 335 view .LVU344
.LVL89:
.L99:
	.loc 1 970 4 is_stmt 0 discriminator 335 view .LVU345
.LBE476:
.LBB478:
	.loc 1 1005 4 is_stmt 1 discriminator 335 view .LVU346
	.loc 1 1005 22 is_stmt 0 discriminator 335 view .LVU347
	str	r4, [r3, #8]
	.loc 1 1007 4 is_stmt 1 discriminator 335 view .LVU348
.L98:
	.loc 1 1007 4 is_stmt 0 discriminator 335 view .LVU349
.LBE478:
.LBB480:
	.loc 1 1030 4 is_stmt 1 view .LVU350
	bl	usbd_evt_put
.LVL90:
	.loc 1 1031 4 view .LVU351
.LBE480:
	.loc 1 1043 1 is_stmt 0 view .LVU352
	pop	{r3, r4, r5, r6, r7, lr}
	.cfi_remember_state
	.cfi_restore 14
	.cfi_restore 7
	.cfi_restore 6
	.cfi_restore 5
	.cfi_restore 4
	.cfi_restore 3
	.cfi_def_cfa_offset 0
.LVL91:
.LBB488:
	.loc 1 1031 4 view .LVU353
	b	usbd_work_schedule
.LVL92:
.L80:
	.cfi_restore_state
	.loc 1 1031 4 view .LVU354
.LBE488:
	.loc 1 991 3 is_stmt 1 view .LVU355
	cbz	r5, .L84
	cmp	r5, #1
	bne	.L79
.LBB489:
	.loc 1 993 4 view .LVU356
	.loc 1 993 28 is_stmt 0 view .LVU357
	bl	usbd_evt_alloc
.LVL93:
	.loc 1 995 4 is_stmt 1 view .LVU358
	.loc 1 995 7 is_stmt 0 view .LVU359
	mov	r3, r0
	cbz	r0, .L79
	.loc 1 999 4 is_stmt 1 discriminator 335 view .LVU360
.LBB479:
	.loc 1 999 9 discriminator 335 view .LVU361
.LBE479:
	.loc 1 999 7 discriminator 335 view .LVU362
	.loc 1 1002 4 discriminator 335 view .LVU363
	.loc 1 1002 25 is_stmt 0 discriminator 335 view .LVU364
	strb	r5, [r4, #29]
	.loc 1 1003 4 is_stmt 1 discriminator 335 view .LVU365
	.loc 1 1003 17 is_stmt 0 discriminator 335 view .LVU366
	strb	r5, [r0, #16]
	.loc 1 1004 4 is_stmt 1 discriminator 335 view .LVU367
	.loc 1 1004 28 is_stmt 0 discriminator 335 view .LVU368
	strb	r5, [r0, #12]
	b	.L99
.LVL94:
.L84:
	.loc 1 1004 28 discriminator 335 view .LVU369
.LBE489:
.LBB490:
	.loc 1 1013 4 is_stmt 1 view .LVU370
	.loc 1 1013 28 is_stmt 0 view .LVU371
	bl	usbd_evt_alloc
.LVL95:
	.loc 1 1015 4 is_stmt 1 view .LVU372
	.loc 1 1015 7 is_stmt 0 view .LVU373
	cbz	r0, .L79
	.loc 1 1019 4 is_stmt 1 view .LVU374
	.loc 1 1020 29 is_stmt 0 view .LVU375
	ldrb	r2, [r6, #2]	@ zero_extendqisi2
.LVL96:
.LBB481:
.LBI481:
	.file 5 "/home/g/mise-work/zmk-firmware/zmk/modules/hal/nordic/nrfx/hal/nrf_usbd.h"
	.loc 5 1442 24 is_stmt 1 view .LVU376
.LBB482:
	.loc 5 1444 5 view .LVU377
	.loc 5 1446 5 view .LVU378
	ldr	r3, .L100
	.loc 5 1446 8 is_stmt 0 view .LVU379
	tst	r2, #128
	and	r1, r2, #8
	beq	.L85
	.loc 5 1448 9 is_stmt 1 view .LVU380
	.loc 5 1448 12 is_stmt 0 view .LVU381
	cbz	r1, .L86
	.loc 5 1450 13 is_stmt 1 view .LVU382
	.loc 5 1450 17 is_stmt 0 view .LVU383
	ldr	r3, [r3, #1704]
.LVL97:
.L87:
	.loc 5 1471 5 is_stmt 1 view .LVU384
	.loc 5 1471 5 is_stmt 0 view .LVU385
.LBE482:
.LBE481:
	.loc 1 1019 20 view .LVU386
	str	r3, [r4, #12]
	.loc 1 1022 4 is_stmt 1 view .LVU387
.LBB486:
	.loc 1 1022 9 view .LVU388
.LBE486:
	.loc 1 1022 7 view .LVU389
	.loc 1 1026 4 view .LVU390
	.loc 1 1026 17 is_stmt 0 view .LVU391
	movs	r3, #1
	strb	r3, [r0, #16]
	.loc 1 1027 4 is_stmt 1 view .LVU392
	.loc 1 1027 28 is_stmt 0 view .LVU393
	movs	r3, #2
	strb	r3, [r0, #12]
	.loc 1 1028 4 is_stmt 1 view .LVU394
	.loc 1 1028 22 is_stmt 0 view .LVU395
	str	r4, [r0, #8]
	b	.L98
.LVL98:
.L86:
.LBB487:
.LBB485:
.LBB483:
	.loc 5 1454 13 is_stmt 1 view .LVU396
	.loc 5 1455 13 view .LVU397
	.loc 5 1455 36 is_stmt 0 view .LVU398
	and	r2, r2, #15
.LVL99:
	.loc 5 1455 17 view .LVU399
	movs	r1, #20
	mla	r3, r1, r2, r3
	ldr	r3, [r3, #1544]
.LVL100:
	.loc 5 1455 17 view .LVU400
	b	.L87
.LVL101:
.L85:
	.loc 5 1455 17 view .LVU401
.LBE483:
	.loc 5 1460 9 is_stmt 1 view .LVU402
	.loc 5 1460 12 is_stmt 0 view .LVU403
	cbz	r1, .L88
	.loc 5 1462 13 is_stmt 1 view .LVU404
	.loc 5 1462 17 is_stmt 0 view .LVU405
	ldr	r3, [r3, #1960]
.LVL102:
	.loc 5 1462 17 view .LVU406
	b	.L87
.LVL103:
.L88:
.LBB484:
	.loc 5 1466 13 is_stmt 1 view .LVU407
	.loc 5 1467 13 view .LVU408
	.loc 5 1467 37 is_stmt 0 view .LVU409
	and	r2, r2, #15
.LVL104:
	.loc 5 1467 17 view .LVU410
	movs	r1, #20
	mla	r3, r1, r2, r3
	ldr	r3, [r3, #1800]
.LVL105:
	.loc 5 1467 17 view .LVU411
	b	.L87
.LVL106:
.L79:
	.loc 5 1467 17 view .LVU412
.LBE484:
.LBE485:
.LBE487:
.LBE490:
	.loc 1 1043 1 view .LVU413
	pop	{r3, r4, r5, r6, r7, pc}
.LVL107:
.L101:
	.loc 1 1043 1 view .LVU414
	.align	2
.L100:
	.word	1073901568
	.cfi_endproc
.LFE1063:
	.size	usbd_event_transfer_data, .-usbd_event_transfer_data
	.section	.text.usbd_event_handler,"ax",%progbits
	.align	1
	.syntax unified
	.thumb
	.thumb_func
	.type	usbd_event_handler, %function
usbd_event_handler:
.LVL108:
.LFB1064:
	.loc 1 1049 1 is_stmt 1 view -0
	.cfi_startproc
	@ args = 0, pretend = 0, frame = 32
	@ frame_needed = 0, uses_anonymous_args = 0
	.loc 1 1050 2 view .LVU416
	.loc 1 1049 1 is_stmt 0 view .LVU417
	push	{r4, r5, r6, r7, lr}
	.cfi_def_cfa_offset 20
	.cfi_offset 4, -20
	.cfi_offset 5, -16
	.cfi_offset 6, -12
	.cfi_offset 7, -8
	.cfi_offset 14, -4
	mov	r6, r0
	sub	sp, sp, #36
	.cfi_def_cfa_offset 56
	.loc 1 1050 20 view .LVU418
	movs	r2, #20
	movs	r1, #0
	add	r0, sp, #12
.LVL109:
	.loc 1 1050 20 view .LVU419
	bl	memset
.LVL110:
	.loc 1 1051 1 is_stmt 1 view .LVU420
	.loc 1 1053 2 view .LVU421
	ldrb	r3, [r6]	@ zero_extendqisi2
	subs	r3, r3, #1
	cmp	r3, #5
	bhi	.L102
	tbb	[pc, r3]
.L105:
	.byte	(.L120-.L105)/2
	.byte	(.L108-.L105)/2
	.byte	(.L121-.L105)/2
	.byte	(.L121-.L105)/2
	.byte	(.L106-.L105)/2
	.byte	(.L104-.L105)/2
	.p2align 1
.L108:
	movs	r3, #3
.L107:
.LVL111:
	.loc 1 1057 25 is_stmt 0 view .LVU422
	strb	r3, [sp, #20]
	.loc 1 1062 16 view .LVU423
	movs	r4, #0
.L109:
.LVL112:
.LBB544:
	.loc 1 1131 3 is_stmt 1 view .LVU424
	.loc 1 1133 3 view .LVU425
	.loc 1 1133 8 is_stmt 0 view .LVU426
	bl	usbd_evt_alloc
.LVL113:
	.loc 1 1134 3 is_stmt 1 view .LVU427
	.loc 1 1134 6 is_stmt 0 view .LVU428
	mov	r3, r0
	cbz	r0, .L102
	.loc 1 1137 3 is_stmt 1 view .LVU429
	.loc 1 1137 16 is_stmt 0 view .LVU430
	strb	r4, [r0, #16]
	.loc 1 1138 3 is_stmt 1 view .LVU431
	.loc 1 1138 11 is_stmt 0 view .LVU432
	add	r2, r0, #8
	ldrd	r0, r1, [sp, #20]
.LVL114:
	.loc 1 1138 11 view .LVU433
	stm	r2, {r0, r1}
	.loc 1 1139 3 is_stmt 1 view .LVU434
	mov	r0, r3
	b	.L136
.LVL115:
.L121:
	.loc 1 1139 3 is_stmt 0 view .LVU435
.LBE544:
	.loc 1 1053 2 view .LVU436
	movs	r3, #4
	b	.L107
.L104:
.LBB545:
	.loc 1 1084 3 is_stmt 1 view .LVU437
	.loc 1 1086 3 view .LVU438
	.loc 1 1086 49 is_stmt 0 view .LVU439
	ldrb	r7, [r6, #2]	@ zero_extendqisi2
	.loc 1 1086 12 view .LVU440
	mov	r0, r7
	bl	endpoint_ctx
.LVL116:
	.loc 1 1087 22 view .LVU441
	ldrb	r3, [r0, #10]	@ zero_extendqisi2
	.loc 1 1086 12 view .LVU442
	mov	r4, r0
.LVL117:
	.loc 1 1087 3 is_stmt 1 view .LVU443
	cbz	r3, .L110
	subs	r3, r3, #1
	cmp	r3, #2
	bls	.L134
.LVL118:
.L102:
	.loc 1 1087 3 is_stmt 0 view .LVU444
.LBE545:
	.loc 1 1142 1 view .LVU445
	add	sp, sp, #36
	.cfi_remember_state
	.cfi_def_cfa_offset 20
	@ sp needed
	pop	{r4, r5, r6, r7, pc}
.LVL119:
.L110:
	.cfi_restore_state
.LBB556:
	.loc 1 1089 4 is_stmt 1 view .LVU446
.LBB546:
.LBI546:
	.loc 1 845 13 view .LVU447
.LBB547:
	.loc 1 847 2 view .LVU448
	.loc 1 850 2 view .LVU449
	.loc 1 850 5 is_stmt 0 view .LVU450
	lsls	r3, r7, #24
	.loc 1 851 35 view .LVU451
	ldrb	r5, [r6, #3]	@ zero_extendqisi2
	.loc 1 850 5 view .LVU452
	bpl	.L112
	.loc 1 851 3 is_stmt 1 view .LVU453
	cmp	r5, #0
	bne	.L102
.LBB548:
	.loc 1 853 4 view .LVU454
	.loc 1 853 28 is_stmt 0 view .LVU455
	bl	usbd_evt_alloc
.LVL120:
	.loc 1 855 4 is_stmt 1 view .LVU456
	.loc 1 855 7 is_stmt 0 view .LVU457
	mov	r3, r0
	cmp	r0, #0
	beq	.L102
	.loc 1 859 4 is_stmt 1 view .LVU458
	.loc 1 860 17 is_stmt 0 view .LVU459
	movs	r2, #1
	.loc 1 859 30 view .LVU460
	strb	r5, [r4, #30]
	.loc 1 860 4 is_stmt 1 view .LVU461
	.loc 1 860 17 is_stmt 0 view .LVU462
	strb	r2, [r0, #16]
	.loc 1 861 4 is_stmt 1 view .LVU463
	.loc 1 861 28 is_stmt 0 view .LVU464
	movs	r2, #3
	strb	r2, [r0, #12]
	.loc 1 862 4 is_stmt 1 view .LVU465
.LVL121:
.L137:
	.loc 1 862 4 is_stmt 0 view .LVU466
.LBE548:
.LBB549:
	.loc 1 897 4 is_stmt 1 view .LVU467
	.loc 1 897 22 is_stmt 0 view .LVU468
	str	r4, [r3, #8]
	.loc 1 899 4 is_stmt 1 view .LVU469
.LVL122:
.L136:
	.loc 1 899 4 is_stmt 0 view .LVU470
.LBE549:
.LBE547:
.LBE546:
.LBE556:
.LBB557:
	.loc 1 1139 3 view .LVU471
	bl	usbd_evt_put
.LVL123:
	.loc 1 1140 3 is_stmt 1 view .LVU472
.LBE557:
	.loc 1 1142 1 is_stmt 0 view .LVU473
	add	sp, sp, #36
	.cfi_remember_state
	.cfi_def_cfa_offset 20
	@ sp needed
	pop	{r4, r5, r6, r7, lr}
	.cfi_restore 14
	.cfi_restore 7
	.cfi_restore 6
	.cfi_restore 5
	.cfi_restore 4
	.cfi_def_cfa_offset 0
.LVL124:
.LBB558:
	.loc 1 1140 3 view .LVU474
	b	usbd_work_schedule
.LVL125:
.L112:
	.cfi_restore_state
	.loc 1 1140 3 view .LVU475
.LBE558:
.LBB559:
.LBB555:
.LBB554:
	.loc 1 884 3 is_stmt 1 view .LVU476
	cbz	r5, .L115
	cmp	r5, #1
	bne	.L102
.LBB551:
	.loc 1 886 4 view .LVU477
	.loc 1 886 28 is_stmt 0 view .LVU478
	bl	usbd_evt_alloc
.LVL126:
	.loc 1 888 4 is_stmt 1 view .LVU479
	.loc 1 888 7 is_stmt 0 view .LVU480
	mov	r3, r0
	cmp	r0, #0
	beq	.L102
	.loc 1 892 4 is_stmt 1 view .LVU481
.LBB550:
	.loc 1 892 9 view .LVU482
.LBE550:
	.loc 1 892 7 view .LVU483
	.loc 1 894 4 view .LVU484
	.loc 1 894 25 is_stmt 0 view .LVU485
	strb	r5, [r4, #29]
	.loc 1 895 4 is_stmt 1 view .LVU486
	.loc 1 895 17 is_stmt 0 view .LVU487
	strb	r5, [r0, #16]
	.loc 1 896 4 is_stmt 1 view .LVU488
	.loc 1 896 28 is_stmt 0 view .LVU489
	strb	r5, [r0, #12]
	b	.L137
.LVL127:
.L115:
	.loc 1 896 28 view .LVU490
.LBE551:
.LBB552:
	.loc 1 905 4 is_stmt 1 view .LVU491
	.loc 1 906 4 view .LVU492
	.loc 1 906 28 is_stmt 0 view .LVU493
	bl	usbd_evt_alloc
.LVL128:
	.loc 1 908 4 is_stmt 1 view .LVU494
	.loc 1 908 7 is_stmt 0 view .LVU495
	mov	r7, r0
	cmp	r0, #0
	beq	.L102
	.loc 1 911 4 is_stmt 1 view .LVU496
	.loc 1 913 4 view .LVU497
	.loc 1 913 17 is_stmt 0 view .LVU498
	movs	r3, #1
	strb	r3, [r0, #16]
	.loc 1 914 4 is_stmt 1 view .LVU499
	.loc 1 914 28 is_stmt 0 view .LVU500
	movs	r3, #2
	strb	r3, [r0, #12]
	.loc 1 915 4 is_stmt 1 view .LVU501
	.loc 1 915 22 is_stmt 0 view .LVU502
	str	r4, [r0, #8]
	.loc 1 917 4 is_stmt 1 view .LVU503
	.loc 1 917 15 is_stmt 0 view .LVU504
	add	r1, r4, #12
	ldrb	r0, [r6, #2]	@ zero_extendqisi2
.LVL129:
	.loc 1 917 15 view .LVU505
	bl	nrfx_usbd_ep_status_get
.LVL130:
	.loc 1 920 4 is_stmt 1 view .LVU506
	.loc 1 921 8 view .LVU507
	.loc 1 923 7 view .LVU508
	.loc 1 923 8 view .LVU509
	.loc 1 925 4 view .LVU510
.LBB553:
	.loc 1 925 9 view .LVU511
.LBE553:
	.loc 1 925 7 view .LVU512
	.loc 1 927 4 view .LVU513
	.loc 1 927 11 is_stmt 0 view .LVU514
	ldr	r2, .L138
	.loc 1 927 40 view .LVU515
	ldr	r1, [r4, #12]
	.loc 1 927 11 view .LVU516
	ldrh	r3, [r2, #652]
	.loc 1 927 7 view .LVU517
	cmp	r3, r1
	bls	.L116
	.loc 1 928 5 is_stmt 1 view .LVU518
	.loc 1 928 24 is_stmt 0 view .LVU519
	subs	r3, r3, r1
	strh	r3, [r2, #652]	@ movhi
	.loc 1 930 5 is_stmt 1 view .LVU520
	bl	nrfx_usbd_setup_data_clear
.LVL131:
.L117:
	.loc 1 935 4 view .LVU521
	mov	r0, r7
	b	.L136
.L116:
	.loc 1 932 5 view .LVU522
	.loc 1 932 24 is_stmt 0 view .LVU523
	strh	r5, [r2, #652]	@ movhi
	b	.L117
.LVL132:
.L134:
	.loc 1 932 24 view .LVU524
.LBE552:
.LBE554:
.LBE555:
	.loc 1 1093 4 is_stmt 1 view .LVU525
	mov	r0, r6
.LVL133:
	.loc 1 1093 4 is_stmt 0 view .LVU526
.LBE559:
	.loc 1 1142 1 view .LVU527
	add	sp, sp, #36
	.cfi_remember_state
	.cfi_def_cfa_offset 20
	@ sp needed
	pop	{r4, r5, r6, r7, lr}
	.cfi_restore 14
	.cfi_restore 7
	.cfi_restore 6
	.cfi_restore 5
	.cfi_restore 4
	.cfi_def_cfa_offset 0
.LVL134:
.LBB560:
	.loc 1 1093 4 view .LVU528
	b	usbd_event_transfer_data
.LVL135:
.L106:
	.cfi_restore_state
	.loc 1 1093 4 view .LVU529
.LBE560:
.LBB561:
	.loc 1 1105 3 is_stmt 1 view .LVU530
	.loc 1 1107 3 view .LVU531
	add	r0, sp, #4
	bl	nrfx_usbd_setup_get
.LVL136:
	.loc 1 1108 3 view .LVU532
	.loc 1 1108 6 is_stmt 0 view .LVU533
	ldrb	r3, [sp, #5]	@ zero_extendqisi2
	cmp	r3, #5
	bne	.L118
	.loc 1 1109 45 view .LVU534
	ldrb	r3, [sp, #4]	@ zero_extendqisi2
	.loc 1 1109 7 view .LVU535
	tst	r3, #96
	beq	.L102
.L118:
.LBB562:
	.loc 1 1115 4 is_stmt 1 view .LVU536
.LVL137:
	.loc 1 1118 4 view .LVU537
	.loc 1 1119 4 view .LVU538
	.loc 1 1119 22 is_stmt 0 view .LVU539
	ldr	r3, .L138+4
.LVL138:
	.loc 1 1119 22 view .LVU540
	str	r3, [sp, #20]
	.loc 1 1120 4 is_stmt 1 view .LVU541
	.loc 1 1121 4 view .LVU542
.LVL139:
	.loc 1 1121 4 is_stmt 0 view .LVU543
.LBE562:
	.loc 1 1123 3 is_stmt 1 view .LVU544
	.loc 1 1123 3 is_stmt 0 view .LVU545
.LBE561:
	.loc 1 1130 2 is_stmt 1 view .LVU546
.LBB564:
.LBB563:
	.loc 1 1118 17 is_stmt 0 view .LVU547
	movs	r4, #1
	b	.L109
.LVL140:
.L120:
	.loc 1 1118 17 view .LVU548
.LBE563:
.LBE564:
	.loc 1 1053 2 view .LVU549
	movs	r4, #2
	b	.L109
.L139:
	.align	2
.L138:
	.word	usbd_ctx
	.word	usbd_ctx+364
	.cfi_endproc
.LFE1064:
	.size	usbd_event_handler, .-usbd_event_handler
	.section	.text.usbd_work_handler,"ax",%progbits
	.align	1
	.syntax unified
	.thumb
	.thumb_func
	.type	usbd_work_handler, %function
usbd_work_handler:
.LVL141:
.LFB1067:
	.loc 1 1209 1 is_stmt 1 view -0
	.cfi_startproc
	@ args = 0, pretend = 0, frame = 16
	@ frame_needed = 0, uses_anonymous_args = 0
	.loc 1 1210 2 view .LVU551
	.loc 1 1211 2 view .LVU552
	.loc 1 1213 2 view .LVU553
	.loc 1 1209 1 is_stmt 0 view .LVU554
	push	{r4, r5, r6, r7, r8, r9, lr}
	.cfi_def_cfa_offset 28
	.cfi_offset 4, -28
	.cfi_offset 5, -24
	.cfi_offset 6, -20
	.cfi_offset 7, -16
	.cfi_offset 8, -12
	.cfi_offset 9, -8
	.cfi_offset 14, -4
.LBB729:
.LBB730:
	.loc 1 288 23 view .LVU555
	ldr	r4, .L242
.LBE730:
.LBE729:
.LBB732:
.LBB733:
	.loc 1 390 2 view .LVU556
	ldr	r9, .L242+4
.LBE733:
.LBE732:
	.loc 1 1209 1 view .LVU557
	sub	sp, sp, #20
	.cfi_def_cfa_offset 48
	.loc 1 1209 1 view .LVU558
	mov	r8, r0
.LVL142:
	.loc 1 1215 2 is_stmt 1 view .LVU559
.L141:
	.loc 1 1215 31 view .LVU560
	.loc 1 1215 15 is_stmt 0 view .LVU561
	bl	usbd_evt_get
.LVL143:
	.loc 1 1215 31 view .LVU562
	mov	r7, r0
	cbnz	r0, .L175
	.loc 1 1265 1 view .LVU563
	add	sp, sp, #20
	.cfi_remember_state
	.cfi_def_cfa_offset 28
	@ sp needed
	pop	{r4, r5, r6, r7, r8, r9, pc}
.LVL144:
.L175:
	.cfi_restore_state
	.loc 1 1216 3 is_stmt 1 view .LVU564
.LBB736:
.LBI729:
	.loc 1 286 19 view .LVU565
.LBB731:
	.loc 1 288 2 view .LVU566
	.loc 1 288 23 is_stmt 0 view .LVU567
	ldrb	r3, [r4, #37]	@ zero_extendqisi2
.LBE731:
.LBE736:
	.loc 1 1216 25 view .LVU568
	ldrb	r2, [r7, #16]	@ zero_extendqisi2
	.loc 1 1216 6 view .LVU569
	cbnz	r3, .L142
	.loc 1 1216 20 discriminator 1 view .LVU570
	cmp	r2, #0
	beq	.L143
	.loc 1 1218 4 is_stmt 1 discriminator 2 view .LVU571
.LBB737:
.LBI737:
	.loc 1 388 20 discriminator 2 view .LVU572
.LVL145:
.LBB738:
	.loc 1 390 2 discriminator 2 view .LVU573
	ldr	r1, [r7, #4]
	ldr	r0, .L242+4
.LVL146:
.L241:
	.loc 1 390 2 is_stmt 0 discriminator 2 view .LVU574
.LBE738:
.LBE737:
.LBB739:
.LBB734:
	.loc 1 390 2 discriminator 25 view .LVU575
	bl	k_mem_slab_free
.LVL147:
	.loc 1 391 1 discriminator 25 view .LVU576
	b	.L141
.LVL148:
.L142:
	.loc 1 391 1 discriminator 25 view .LVU577
.LBE734:
.LBE739:
	.loc 1 1222 3 is_stmt 1 view .LVU578
	cmp	r2, #4
	bhi	.L145
	tbh	[pc, r2, lsl #1]
.L147:
	.2byte	(.L143-.L147)/2
	.2byte	(.L150-.L147)/2
	.2byte	(.L149-.L147)/2
	.2byte	(.L148-.L147)/2
	.2byte	(.L146-.L147)/2
	.p2align 1
.L150:
.LBB740:
	.loc 1 1224 4 view .LVU579
	.loc 1 1225 8 view .LVU580
	.loc 1 1228 4 view .LVU581
.LVL149:
.LBB741:
.LBI741:
	.loc 1 805 20 view .LVU582
.LBB742:
	.loc 1 807 2 view .LVU583
	.loc 1 808 2 view .LVU584
	.loc 1 812 2 is_stmt 0 view .LVU585
	ldrb	r3, [r7, #12]	@ zero_extendqisi2
	.loc 1 808 26 view .LVU586
	ldr	r5, [r7, #8]
.LVL150:
	.loc 1 810 4 is_stmt 1 view .LVU587
	.loc 1 810 5 view .LVU588
	.loc 1 812 2 view .LVU589
	cmp	r3, #3
	bhi	.L145
	tbb	[pc, r3]
.L152:
	.byte	(.L155-.L152)/2
	.byte	(.L154-.L152)/2
	.byte	(.L153-.L152)/2
	.byte	(.L151-.L152)/2
	.p2align 1
.L155:
	.loc 1 814 3 view .LVU590
.LVL151:
.LBB743:
.LBI743:
	.loc 1 735 20 view .LVU591
.LBB744:
	.loc 1 737 4 view .LVU592
	.loc 1 737 5 view .LVU593
	.loc 1 738 4 view .LVU594
	.loc 1 739 32 view .LVU595
	.loc 1 741 2 view .LVU596
	.loc 1 747 2 view .LVU597
	.loc 1 747 13 is_stmt 0 view .LVU598
	ldr	r6, [r5, #20]
.LVL152:
	.loc 1 748 1 is_stmt 1 view .LVU599
.LBB745:
.LBI745:
	.file 6 "/home/g/zephyr-sdk-0.16.3/arm-zephyr-eabi/picolibc/include/ssp/string.h"
	.loc 6 86 189 view .LVU600
.LBB746:
	.loc 6 86 238 view .LVU601
.LBE746:
.LBE745:
.LBB748:
.LBB749:
	.loc 5 1181 27 is_stmt 0 view .LVU602
	ldr	r3, .L242+8
.LBE749:
.LBE748:
.LBB751:
.LBB747:
	.loc 6 86 245 view .LVU603
	movs	r2, #0
	str	r2, [r6]	@ unaligned
	str	r2, [r6, #4]	@ unaligned
.LVL153:
	.loc 6 86 245 view .LVU604
.LBE747:
.LBE751:
	.loc 1 749 2 is_stmt 1 view .LVU605
.LBB752:
.LBI748:
	.loc 5 1179 23 view .LVU606
.LBB750:
	.loc 5 1181 5 view .LVU607
	.loc 5 1181 27 is_stmt 0 view .LVU608
	ldr	r1, [r3, #1152]
.LVL154:
	.loc 5 1181 12 view .LVU609
	strb	r1, [r6]
.LBE750:
.LBE752:
	.loc 1 750 2 is_stmt 1 view .LVU610
.LVL155:
.LBB753:
.LBI753:
	.loc 5 1184 23 view .LVU611
.LBB754:
	.loc 5 1186 5 view .LVU612
	.loc 5 1186 27 is_stmt 0 view .LVU613
	ldr	r1, [r3, #1156]
.LVL156:
	.loc 5 1186 12 view .LVU614
	strb	r1, [r6, #1]
.LBE754:
.LBE753:
	.loc 1 751 2 is_stmt 1 view .LVU615
.LVL157:
.LBB755:
.LBI755:
	.loc 5 1189 24 view .LVU616
.LBB756:
	.loc 5 1191 5 view .LVU617
	.loc 5 1191 41 is_stmt 0 view .LVU618
	ldr	r1, [r3, #1160]
.LVL158:
	.loc 5 1192 5 is_stmt 1 view .LVU619
	.loc 5 1192 36 is_stmt 0 view .LVU620
	ldr	r0, [r3, #1164]
.LVL159:
	.loc 5 1192 12 view .LVU621
	orr	r1, r1, r0, lsl #8
.LBE756:
.LBE755:
	.loc 1 751 21 view .LVU622
	strh	r1, [r6, #2]	@ movhi
	.loc 1 752 2 is_stmt 1 view .LVU623
.LVL160:
.LBB757:
.LBI757:
	.loc 5 1195 24 view .LVU624
.LBB758:
	.loc 5 1197 5 view .LVU625
	.loc 5 1197 41 is_stmt 0 view .LVU626
	ldr	r1, [r3, #1168]
.LVL161:
	.loc 5 1198 5 is_stmt 1 view .LVU627
	.loc 5 1198 36 is_stmt 0 view .LVU628
	ldr	r0, [r3, #1172]
.LVL162:
	.loc 5 1198 12 view .LVU629
	orr	r1, r1, r0, lsl #8
.LBE758:
.LBE757:
	.loc 1 752 21 view .LVU630
	strh	r1, [r6, #4]	@ movhi
	.loc 1 753 2 is_stmt 1 view .LVU631
.LVL163:
.LBB759:
.LBI759:
	.loc 5 1201 24 view .LVU632
.LBB760:
	.loc 5 1203 5 view .LVU633
	.loc 5 1203 41 is_stmt 0 view .LVU634
	ldr	r1, [r3, #1176]
.LVL164:
	.loc 5 1204 5 is_stmt 1 view .LVU635
	.loc 5 1204 36 is_stmt 0 view .LVU636
	ldr	r3, [r3, #1180]
.LVL165:
	.loc 5 1204 12 view .LVU637
	orr	r3, r1, r3, lsl #8
.LBE760:
.LBE759:
	.loc 1 753 22 view .LVU638
	strh	r3, [r6, #6]	@ movhi
	.loc 1 754 2 is_stmt 1 view .LVU639
	.loc 1 754 18 is_stmt 0 view .LVU640
	movs	r3, #8
	str	r3, [r5, #12]
	.loc 1 757 1 is_stmt 1 view .LVU641
	.loc 1 757 23 is_stmt 0 view .LVU642
	ldr	r0, [r6]	@ unaligned
	ldr	r1, [r6, #4]	@ unaligned
	ldr	r3, .L242+12
	stmia	r3!, {r0, r1}
	.loc 1 759 2 is_stmt 1 view .LVU643
.LBB761:
	.loc 1 759 7 view .LVU644
.LBE761:
	.loc 1 759 5 view .LVU645
	.loc 1 767 2 view .LVU646
	mov	r1, r2
	ldr	r3, [r5]
	ldrb	r0, [r5, #9]	@ zero_extendqisi2
	blx	r3
.LVL166:
	.loc 1 769 2 view .LVU647
	.loc 1 771 2 view .LVU648
.LBB762:
.LBI762:
	.file 7 "/home/g/mise-work/zmk-firmware/zmk/zephyr/include/zephyr/usb/usb_ch9.h"
	.loc 7 90 19 view .LVU649
.LBB763:
	.loc 7 92 2 view .LVU650
	.loc 7 92 2 is_stmt 0 view .LVU651
.LBE763:
.LBE762:
	.loc 1 771 5 view .LVU652
	ldrsb	r3, [r6]
	cmp	r3, #0
	blt	.L156
	.loc 1 771 56 view .LVU653
	ldrh	r3, [r6, #6]
	.loc 1 771 43 view .LVU654
	cbz	r3, .L156
	.loc 1 772 3 is_stmt 1 view .LVU655
	.loc 1 772 22 is_stmt 0 view .LVU656
	strh	r3, [r4, #652]	@ movhi
	.loc 1 774 3 is_stmt 1 view .LVU657
	bl	nrfx_usbd_setup_data_clear
.LVL167:
.L145:
	.loc 1 774 3 is_stmt 0 view .LVU658
.LBE744:
.LBE743:
.LBE742:
.LBE741:
.LBE740:
	.loc 1 1263 3 is_stmt 1 discriminator 25 view .LVU659
.LBB803:
.LBI732:
	.loc 1 388 20 discriminator 25 view .LVU660
.LBB735:
	.loc 1 390 2 discriminator 25 view .LVU661
	ldr	r1, [r7, #4]
	mov	r0, r9
	b	.L241
.LVL168:
.L156:
	.loc 1 390 2 is_stmt 0 discriminator 25 view .LVU662
.LBE735:
.LBE803:
.LBB804:
.LBB770:
.LBB769:
.LBB765:
.LBB764:
	.loc 1 776 3 is_stmt 1 view .LVU663
	.loc 1 776 22 is_stmt 0 view .LVU664
	movs	r3, #0
	strh	r3, [r4, #652]	@ movhi
	b	.L145
.LVL169:
.L154:
	.loc 1 776 22 view .LVU665
.LBE764:
.LBE765:
	.loc 1 818 3 is_stmt 1 view .LVU666
.LBB766:
.LBI766:
	.loc 1 780 20 view .LVU667
.LBB767:
	.loc 1 783 2 view .LVU668
	.loc 1 783 13 is_stmt 0 view .LVU669
	ldrb	r3, [r5, #29]	@ zero_extendqisi2
	.loc 1 783 5 view .LVU670
	cmp	r3, #0
	beq	.L145
	.loc 1 786 2 is_stmt 1 view .LVU671
	.loc 1 786 13 is_stmt 0 view .LVU672
	ldrb	r3, [r5, #28]	@ zero_extendqisi2
	.loc 1 786 5 view .LVU673
	cmp	r3, #0
	beq	.L145
	.loc 1 790 2 is_stmt 1 view .LVU674
	.loc 1 790 23 is_stmt 0 view .LVU675
	movs	r6, #0
	strb	r6, [r5, #29]
	.loc 1 791 2 is_stmt 1 view .LVU676
	.loc 1 793 2 is_stmt 0 view .LVU677
	mov	r2, #-1
	ldr	r0, .L242+16
.LVL170:
	.loc 1 791 24 view .LVU678
	strb	r6, [r5, #28]
	.loc 1 793 2 is_stmt 1 view .LVU679
	mov	r3, #-1
	bl	k_mutex_lock.constprop.0.isra.0
.LVL171:
	.loc 1 794 2 view .LVU680
	.loc 1 794 29 is_stmt 0 view .LVU681
	ldr	r3, [r5, #20]
	str	r3, [sp, #4]
	.loc 1 794 102 view .LVU682
	ldr	r3, [r5, #4]
	.loc 1 794 29 view .LVU683
	strd	r3, r6, [sp, #8]
	.loc 1 796 2 is_stmt 1 view .LVU684
	.loc 1 796 19 is_stmt 0 view .LVU685
	add	r1, sp, #4
	ldrb	r0, [r5, #9]	@ zero_extendqisi2
	bl	nrfx_usbd_ep_transfer
.LVL172:
	.loc 1 798 2 is_stmt 1 view .LVU686
	.loc 1 799 6 view .LVU687
	.loc 1 801 2 view .LVU688
	ldr	r0, .L242+16
	bl	k_mutex_unlock.isra.0
.LVL173:
	b	.L145
.LVL174:
.L153:
	.loc 1 801 2 is_stmt 0 view .LVU689
.LBE767:
.LBE766:
	.loc 1 822 3 is_stmt 1 view .LVU690
	ldr	r3, [r5]
	movs	r1, #1
.LVL175:
.L240:
	.loc 1 837 3 is_stmt 0 view .LVU691
	ldrb	r0, [r5, #9]	@ zero_extendqisi2
	blx	r3
.LVL176:
	.loc 1 839 3 is_stmt 1 view .LVU692
	b	.L145
.LVL177:
.L151:
	.loc 1 827 3 view .LVU693
	.loc 1 827 6 is_stmt 0 view .LVU694
	ldrb	r3, [r5, #10]	@ zero_extendqisi2
	cbnz	r3, .L158
	.loc 1 827 45 view .LVU695
	ldrb	r3, [r5, #31]	@ zero_extendqisi2
	cbnz	r3, .L158
.LBB768:
	.loc 1 833 4 is_stmt 1 view .LVU696
	ldr	r0, .L242+16
.LVL178:
	.loc 1 833 4 is_stmt 0 view .LVU697
	mov	r2, #-1
	mov	r3, #-1
	bl	k_mutex_lock.constprop.0.isra.0
.LVL179:
	.loc 1 834 4 is_stmt 1 view .LVU698
	bl	nrfx_usbd_setup_clear
.LVL180:
	.loc 1 835 4 view .LVU699
	ldr	r0, .L242+16
	bl	k_mutex_unlock.isra.0
.LVL181:
.L158:
.LBE768:
	.loc 1 837 3 view .LVU700
	ldr	r3, [r5]
	movs	r1, #2
	b	.L240
.LVL182:
.L143:
	.loc 1 837 3 is_stmt 0 view .LVU701
.LBE769:
.LBE770:
	.loc 1 1231 4 is_stmt 1 view .LVU702
.LBB771:
.LBI771:
	.loc 1 669 20 view .LVU703
.LBB772:
	.loc 1 671 2 view .LVU704
	.loc 1 672 2 view .LVU705
	.loc 1 674 2 view .LVU706
	ldrb	r2, [r7, #8]	@ zero_extendqisi2
	cmp	r2, #4
	bhi	.L145
	tbb	[pc, r2]
.L160:
	.byte	(.L164-.L160)/2
	.byte	(.L163-.L160)/2
	.byte	(.L176-.L160)/2
	.byte	(.L161-.L160)/2
	.byte	(.L159-.L160)/2
	.p2align 1
.L163:
	.loc 1 676 3 view .LVU707
	.loc 1 676 8 is_stmt 0 view .LVU708
	bl	nrfx_usbd_is_enabled
.LVL183:
	.loc 1 676 6 view .LVU709
	mov	r5, r0
	cmp	r0, #0
	bne	.L145
	.loc 1 677 4 is_stmt 1 view .LVU710
.LBB773:
	.loc 1 677 9 view .LVU711
.LBE773:
	.loc 1 677 7 view .LVU712
	.loc 1 678 4 view .LVU713
	bl	nrfx_usbd_enable
.LVL184:
	.loc 1 679 4 view .LVU714
.LBB774:
.LBI774:
	.loc 1 541 12 view .LVU715
.LBB775:
	.loc 1 543 2 view .LVU716
.LBB776:
.LBI776:
	.loc 3 40 19 view .LVU717
.LBB777:
	.loc 3 43 2 view .LVU718
	.loc 3 43 9 is_stmt 0 view .LVU719
	dmb	ish
	ldr	r1, .L242+20
.LVL185:
	.loc 3 43 9 view .LVU720
	movs	r3, #1
.L237:
	ldrex	r2, [r1]
	cmp	r2, #0
	bne	.L238
	strex	r0, r3, [r1]
	cmp	r0, #0
	bne	.L237
.L238:
.LVL186:
	.loc 3 43 9 view .LVU721
	dmb	ish
.LBE777:
.LBE776:
	.loc 1 543 5 view .LVU722
	bne	.L145
	.loc 1 544 3 is_stmt 1 view .LVU723
.LBB778:
.LBI778:
	.file 8 "/home/g/mise-work/zmk-firmware/zmk/zephyr/include/zephyr/sys/notify.h"
	.loc 8 264 20 view .LVU724
.LVL187:
.LBB779:
	.loc 8 266 4 view .LVU725
	.loc 8 266 5 view .LVU726
	.loc 8 268 2 view .LVU727
	.loc 8 268 10 is_stmt 0 view .LVU728
	str	r5, [r1, #-8]
	str	r5, [r1, #-16]
.LBE779:
.LBE778:
	.loc 1 546 10 view .LVU729
	ldr	r0, [r4, #28]
.LBB781:
.LBB780:
	.loc 8 268 10 view .LVU730
	str	r3, [r4, #20]
.LVL188:
	.loc 8 268 10 view .LVU731
.LBE780:
.LBE781:
	.loc 1 546 3 is_stmt 1 view .LVU732
	.loc 1 546 10 is_stmt 0 view .LVU733
	subs	r1, r1, #20
	bl	onoff_request
.LVL189:
	b	.L145
.LVL190:
.L176:
	.loc 1 546 10 view .LVU734
.LBE775:
.LBE774:
	.loc 1 674 2 view .LVU735
	movs	r5, #0
.LVL191:
.L162:
.LBB782:
.LBB783:
	.loc 1 558 3 is_stmt 1 view .LVU736
.LBB784:
.LBI784:
	.loc 1 361 32 view .LVU737
.LBB785:
	.loc 1 363 2 view .LVU738
	.loc 1 363 9 is_stmt 0 view .LVU739
	orn	r0, r5, #127
	uxtb	r0, r0
	bl	endpoint_ctx
.LVL192:
	.loc 1 363 9 view .LVU740
.LBE785:
.LBE784:
	.loc 1 559 5 is_stmt 1 view .LVU741
	.loc 1 559 6 view .LVU742
	.loc 1 561 3 view .LVU743
	.loc 1 561 6 is_stmt 0 view .LVU744
	ldrb	r3, [r0, #8]	@ zero_extendqisi2
	cbz	r3, .L167
	.loc 1 562 4 is_stmt 1 view .LVU745
	ldrb	r0, [r0, #9]	@ zero_extendqisi2
.LVL193:
	.loc 1 562 4 is_stmt 0 view .LVU746
	bl	nrfx_usbd_ep_enable
.LVL194:
.L167:
	.loc 1 557 28 is_stmt 1 view .LVU747
	adds	r5, r5, #1
.LVL195:
	.loc 1 557 16 view .LVU748
	cmp	r5, #8
	bne	.L162
	.loc 1 566 2 view .LVU749
	.loc 1 567 3 view .LVU750
.LVL196:
	.loc 1 568 5 view .LVU751
	.loc 1 568 6 view .LVU752
	.loc 1 570 3 view .LVU753
	.loc 1 570 6 is_stmt 0 view .LVU754
	ldrb	r3, [r4, #340]	@ zero_extendqisi2
	cbz	r3, .L168
	.loc 1 571 4 is_stmt 1 view .LVU755
	ldrb	r0, [r4, #341]	@ zero_extendqisi2
	bl	nrfx_usbd_ep_enable
.LVL197:
	.loc 1 575 16 view .LVU756
.L168:
	.loc 1 575 16 is_stmt 0 view .LVU757
.LBE783:
.LBE782:
	.loc 1 674 2 view .LVU758
	movs	r5, #0
.LVL198:
.L170:
.LBB789:
.LBB788:
	.loc 1 576 3 is_stmt 1 view .LVU759
.LBB786:
.LBI786:
	.loc 1 366 32 view .LVU760
.LBB787:
	.loc 1 368 2 view .LVU761
	.loc 1 368 9 is_stmt 0 view .LVU762
	uxtb	r0, r5
	bl	endpoint_ctx
.LVL199:
	.loc 1 368 9 view .LVU763
.LBE787:
.LBE786:
	.loc 1 577 5 is_stmt 1 view .LVU764
	.loc 1 577 6 view .LVU765
	.loc 1 579 3 view .LVU766
	.loc 1 579 6 is_stmt 0 view .LVU767
	ldrb	r3, [r0, #8]	@ zero_extendqisi2
	cbz	r3, .L169
	.loc 1 580 4 is_stmt 1 view .LVU768
	ldrb	r0, [r0, #9]	@ zero_extendqisi2
.LVL200:
	.loc 1 580 4 is_stmt 0 view .LVU769
	bl	nrfx_usbd_ep_enable
.LVL201:
.L169:
	.loc 1 575 28 is_stmt 1 view .LVU770
	adds	r5, r5, #1
.LVL202:
	.loc 1 575 16 view .LVU771
	cmp	r5, #8
	bne	.L170
	.loc 1 584 2 view .LVU772
	.loc 1 585 3 view .LVU773
.LVL203:
	.loc 1 586 5 view .LVU774
	.loc 1 586 6 view .LVU775
	.loc 1 588 3 view .LVU776
	.loc 1 588 6 is_stmt 0 view .LVU777
	ldrb	r3, [r4, #628]	@ zero_extendqisi2
	cbz	r3, .L171
	.loc 1 589 4 is_stmt 1 view .LVU778
	ldrb	r0, [r4, #629]	@ zero_extendqisi2
	bl	nrfx_usbd_ep_enable
.LVL204:
.L171:
	.loc 1 589 4 is_stmt 0 view .LVU779
.LBE788:
.LBE789:
	.loc 1 690 3 is_stmt 1 view .LVU780
	movs	r0, #0
	bl	nrfx_usbd_start
.LVL205:
	.loc 1 691 3 view .LVU781
	.loc 1 691 14 is_stmt 0 view .LVU782
	movs	r3, #1
	strb	r3, [r4, #37]
	.loc 1 693 3 is_stmt 1 view .LVU783
.LBB790:
	.loc 1 693 8 view .LVU784
.LBE790:
	.loc 1 693 6 view .LVU785
	.loc 1 695 3 view .LVU786
	.loc 1 695 10 is_stmt 0 view .LVU787
	ldr	r3, [r4]
	.loc 1 695 6 view .LVU788
	cmp	r3, #0
	beq	.L145
	.loc 1 696 4 is_stmt 1 view .LVU789
	movs	r1, #0
	movs	r0, #2
.LVL206:
.L239:
	.loc 1 696 4 is_stmt 0 view .LVU790
.LBE772:
.LBE771:
	.loc 1 1247 5 view .LVU791
	blx	r3
.LVL207:
	b	.L145
.LVL208:
.L164:
.LBB795:
.LBB794:
	.loc 1 701 3 is_stmt 1 view .LVU792
	.loc 1 701 14 is_stmt 0 view .LVU793
	movs	r5, #0
	strb	r5, [r4, #37]
	.loc 1 702 3 is_stmt 1 view .LVU794
	bl	nrfx_usbd_disable
.LVL209:
	.loc 1 703 3 view .LVU795
	.loc 1 703 9 is_stmt 0 view .LVU796
	bl	hfxo_stop.constprop.0.isra.0
.LVL210:
	.loc 1 704 5 is_stmt 1 view .LVU797
	.loc 1 704 6 view .LVU798
	.loc 1 706 3 view .LVU799
.LBB791:
	.loc 1 706 8 view .LVU800
.LBE791:
	.loc 1 706 6 view .LVU801
	.loc 1 708 3 view .LVU802
	.loc 1 708 10 is_stmt 0 view .LVU803
	ldr	r3, [r4]
	.loc 1 708 6 view .LVU804
	cmp	r3, #0
	beq	.L145
	.loc 1 709 4 is_stmt 1 view .LVU805
	mov	r1, r5
	movs	r0, #4
	b	.L239
.LVL211:
.L161:
	.loc 1 714 3 view .LVU806
	.loc 1 714 6 is_stmt 0 view .LVU807
	cmp	r3, #0
	beq	.L145
	.loc 1 715 4 is_stmt 1 view .LVU808
	bl	nrfx_usbd_suspend
.LVL212:
	.loc 1 716 4 view .LVU809
.LBB792:
	.loc 1 716 9 view .LVU810
.LBE792:
	.loc 1 716 7 view .LVU811
	.loc 1 718 4 view .LVU812
	.loc 1 718 11 is_stmt 0 view .LVU813
	ldr	r3, [r4]
	.loc 1 718 7 view .LVU814
	cmp	r3, #0
	beq	.L145
	.loc 1 719 5 is_stmt 1 view .LVU815
	movs	r1, #0
	movs	r0, #5
	b	.L239
.LVL213:
.L159:
	.loc 1 724 3 view .LVU816
	.loc 1 724 10 is_stmt 0 view .LVU817
	ldr	r2, [r4]
	.loc 1 724 6 view .LVU818
	cmp	r2, #0
	beq	.L145
	.loc 1 724 22 view .LVU819
	cmp	r3, #0
	beq	.L145
	.loc 1 725 4 is_stmt 1 view .LVU820
.LBB793:
	.loc 1 725 9 view .LVU821
.LBE793:
	.loc 1 725 7 view .LVU822
	.loc 1 726 4 view .LVU823
	movs	r1, #0
	movs	r0, #6
.LVL214:
	.loc 1 726 4 is_stmt 0 view .LVU824
	blx	r2
.LVL215:
	b	.L145
.LVL216:
.L149:
	.loc 1 726 4 view .LVU825
.LBE794:
.LBE795:
	.loc 1 1234 4 is_stmt 1 discriminator 285 view .LVU826
.LBB796:
	.loc 1 1234 9 discriminator 285 view .LVU827
.LBE796:
	.loc 1 1234 7 discriminator 285 view .LVU828
	.loc 1 1235 4 discriminator 285 view .LVU829
	add	r5, r8, #16
	mov	r3, #-1
	mov	r2, #-1
	mov	r0, r5
.LVL217:
	.loc 1 1235 4 is_stmt 0 discriminator 285 view .LVU830
	bl	k_mutex_lock.constprop.0.isra.0
.LVL218:
	.loc 1 1236 4 is_stmt 1 discriminator 285 view .LVU831
	bl	eps_ctx_init
.LVL219:
	.loc 1 1237 4 discriminator 285 view .LVU832
	mov	r0, r5
	bl	k_mutex_unlock.isra.0
.LVL220:
	.loc 1 1239 4 discriminator 285 view .LVU833
	.loc 1 1239 11 is_stmt 0 discriminator 285 view .LVU834
	ldr	r3, [r8, #-40]
	.loc 1 1239 7 discriminator 285 view .LVU835
	cmp	r3, #0
	beq	.L145
	.loc 1 1240 5 is_stmt 1 view .LVU836
	movs	r1, #0
	movs	r0, #1
	b	.L239
.LVL221:
.L148:
	.loc 1 1244 4 view .LVU837
.LBB797:
.LBI797:
	.loc 1 1175 13 view .LVU838
.LBB798:
	.loc 1 1177 2 view .LVU839
	.loc 1 1178 2 view .LVU840
	.loc 1 1180 2 view .LVU841
.LBB799:
.LBI799:
	.loc 1 330 32 view .LVU842
	.loc 1 332 2 view .LVU843
	.loc 1 333 2 view .LVU844
	.loc 1 335 2 view .LVU845
	.loc 1 339 2 view .LVU846
	.loc 1 340 2 view .LVU847
	.loc 1 342 2 view .LVU848
	.loc 1 349 3 view .LVU849
	.loc 1 349 3 is_stmt 0 view .LVU850
.LBE799:
	.loc 1 1181 2 is_stmt 1 view .LVU851
	.loc 1 1186 2 view .LVU852
	.loc 1 1186 5 is_stmt 0 view .LVU853
	ldrb	r3, [r4, #628]	@ zero_extendqisi2
	cbz	r3, .L173
	.loc 1 1190 3 is_stmt 1 view .LVU854
	.loc 1 1190 24 is_stmt 0 view .LVU855
	movs	r5, #1
	strb	r5, [r4, #649]
	.loc 1 1191 3 is_stmt 1 view .LVU856
	.loc 1 1191 25 is_stmt 0 view .LVU857
	strb	r5, [r4, #648]
	.loc 1 1192 3 is_stmt 1 view .LVU858
	.loc 1 1192 8 is_stmt 0 view .LVU859
	bl	usbd_evt_alloc
.LVL222:
	.loc 1 1193 3 is_stmt 1 view .LVU860
	.loc 1 1193 6 is_stmt 0 view .LVU861
	cbz	r0, .L173
	.loc 1 1197 3 is_stmt 1 view .LVU862
	.loc 1 1199 21 is_stmt 0 view .LVU863
	ldr	r2, .L242+24
.LVL223:
	.loc 1 1197 16 view .LVU864
	strb	r5, [r0, #16]
	.loc 1 1198 3 is_stmt 1 view .LVU865
	.loc 1 1198 27 is_stmt 0 view .LVU866
	strb	r5, [r0, #12]
	.loc 1 1199 3 is_stmt 1 view .LVU867
	.loc 1 1199 21 is_stmt 0 view .LVU868
	str	r2, [r0, #8]
	.loc 1 1200 3 is_stmt 1 view .LVU869
	bl	usbd_evt_put
.LVL224:
	.loc 1 1201 3 view .LVU870
	bl	usbd_work_schedule
.LVL225:
.L173:
	.loc 1 1203 6 view .LVU871
.LBE798:
.LBE797:
	.loc 1 1246 4 view .LVU872
	.loc 1 1246 11 is_stmt 0 view .LVU873
	ldr	r3, [r8, #-40]
	.loc 1 1246 7 view .LVU874
	cmp	r3, #0
	beq	.L145
	.loc 1 1247 5 is_stmt 1 view .LVU875
	movs	r1, #0
	movs	r0, #10
	b	.L239
.L243:
	.align	2
.L242:
	.word	usbd_ctx
	.word	fifo_elem_slab
	.word	1073901568
	.word	usbd_ctx+4
	.word	usbd_ctx+56
	.word	usbd_ctx+32
	.word	usbd_ctx+620
.LVL226:
.L146:
	.loc 1 1255 5 view .LVU876
.LBB800:
	.loc 1 1255 10 view .LVU877
.LBE800:
	.loc 1 1255 8 view .LVU878
	.loc 1 1256 5 view .LVU879
.LBB801:
.LBI801:
	.loc 1 1144 20 view .LVU880
.LBB802:
	.loc 1 1146 2 view .LVU881
	.loc 1 1147 2 view .LVU882
	.loc 1 1149 2 view .LVU883
	bl	nrfx_power_usbevt_disable
.LVL227:
	.loc 1 1150 2 view .LVU884
	bl	nrfx_usbd_disable
.LVL228:
	.loc 1 1151 2 view .LVU885
	bl	nrfx_usbd_uninit
.LVL229:
	.loc 1 1153 2 view .LVU886
	bl	usbd_evt_flush
.LVL230:
	.loc 1 1155 2 view .LVU887
	.loc 1 1155 8 is_stmt 0 view .LVU888
	bl	eps_ctx_init
.LVL231:
	.loc 1 1156 4 is_stmt 1 view .LVU889
	.loc 1 1156 5 view .LVU890
	.loc 1 1158 2 view .LVU891
	bl	nrfx_power_usbevt_enable
.LVL232:
	.loc 1 1159 2 view .LVU892
	.loc 1 1159 8 is_stmt 0 view .LVU893
	ldr	r0, .L244
	bl	nrfx_usbd_init
.LVL233:
	.loc 1 1161 2 is_stmt 1 view .LVU894
	.loc 1 1162 6 view .LVU895
	.loc 1 1163 5 view .LVU896
	.loc 1 1163 6 view .LVU897
	.loc 1 1165 1 is_stmt 0 view .LVU898
	b	.L145
.L245:
	.align	2
.L244:
	.word	usbd_event_handler
.LBE802:
.LBE801:
.LBE804:
	.cfi_endproc
.LFE1067:
	.size	usbd_work_handler, .-usbd_work_handler
	.section	.text.usb_dc_attach,"ax",%progbits
	.align	1
	.global	usb_dc_attach
	.syntax unified
	.thumb
	.thumb_func
	.type	usb_dc_attach, %function
usb_dc_attach:
.LFB1068:
	.loc 1 1268 1 is_stmt 1 view -0
	.cfi_startproc
	@ args = 0, pretend = 0, frame = 0
	@ frame_needed = 0, uses_anonymous_args = 0
	.loc 1 1269 2 view .LVU900
.LVL234:
	.loc 1 1270 2 view .LVU901
	.loc 1 1272 2 view .LVU902
	.loc 1 1268 1 is_stmt 0 view .LVU903
	push	{r3, r4, r5, lr}
	.cfi_def_cfa_offset 16
	.cfi_offset 3, -16
	.cfi_offset 4, -12
	.cfi_offset 5, -8
	.cfi_offset 14, -4
	.loc 1 1272 9 view .LVU904
	ldr	r5, .L258
	.loc 1 1272 5 view .LVU905
	ldrb	r4, [r5, #36]	@ zero_extendqisi2
	cbnz	r4, .L251
.LBB823:
.LBI823:
	.loc 1 1267 5 is_stmt 1 view .LVU906
.LBB824:
	.loc 1 1276 2 view .LVU907
.LBB825:
.LBI825:
	.loc 2 960 19 view .LVU908
.LVL235:
.LBB826:
	.loc 2 968 2 view .LVU909
	.loc 2 968 7 view .LVU910
	.loc 2 968 5 view .LVU911
	.loc 2 969 2 view .LVU912
	.loc 2 969 9 is_stmt 0 view .LVU913
	add	r0, r5, #56
	bl	z_impl_k_mutex_init
.LVL236:
	.loc 2 969 9 view .LVU914
.LBE826:
.LBE825:
	.loc 1 1277 2 is_stmt 1 view .LVU915
	.loc 1 1278 3 is_stmt 0 view .LVU916
	mov	r0, r4
	bl	z_nrf_clock_control_get_onoff
.LVL237:
.LBB827:
	.loc 1 1283 89 view .LVU917
	mov	r2, r4
	movs	r1, #1
.LBE827:
	.loc 1 1277 16 view .LVU918
	str	r0, [r5, #28]
.LBB828:
	.loc 1 1283 4 is_stmt 1 view .LVU919
	.loc 1 1283 101 view .LVU920
	.loc 1 1283 278 view .LVU921
	.loc 1 1283 89 view .LVU922
	movs	r0, #39
	bl	z_arm_irq_priority_set
.LVL238:
.LBE828:
	.loc 1 1284 42 view .LVU923
	.loc 1 1286 2 view .LVU924
	bl	nrfx_power_usbevt_enable
.LVL239:
	.loc 1 1288 2 view .LVU925
	.loc 1 1288 8 is_stmt 0 view .LVU926
	bl	eps_ctx_init
.LVL240:
	.loc 1 1289 2 is_stmt 1 view .LVU927
	.loc 1 1289 5 is_stmt 0 view .LVU928
	mov	r4, r0
	cbnz	r0, .L248
	.loc 1 1290 3 is_stmt 1 view .LVU929
	.loc 1 1290 17 is_stmt 0 view .LVU930
	movs	r3, #1
	strb	r3, [r5, #36]
.L248:
	.loc 1 1293 2 is_stmt 1 view .LVU931
.LVL241:
.LBB829:
.LBI829:
	.loc 2 701 19 view .LVU932
.LBB830:
	.loc 2 709 2 view .LVU933
	.loc 2 709 7 view .LVU934
	.loc 2 709 5 view .LVU935
	.loc 2 710 2 view .LVU936
.LVL242:
.LBB831:
.LBI831:
	.file 9 "/home/g/mise-work/zmk-firmware/zmk/zephyr/include/zephyr/kernel.h"
	.loc 9 2087 19 view .LVU937
	.loc 9 2089 2 view .LVU938
.LBB832:
.LBI832:
	.file 10 "/home/g/mise-work/zmk-firmware/zmk/zephyr/include/zephyr/sys/sflist.h"
	.loc 10 335 1 view .LVU939
	.loc 10 335 43 view .LVU940
.LBB833:
.LBI833:
	.loc 10 255 29 view .LVU941
.LBB834:
	.loc 10 257 2 view .LVU942
	.loc 10 257 13 is_stmt 0 view .LVU943
	ldr	r3, .L258+4
.LBE834:
.LBE833:
.LBE832:
.LBE831:
.LBE830:
.LBE829:
	.loc 1 1293 5 view .LVU944
	ldr	r3, [r3]
	cbz	r3, .L249
	.loc 1 1294 3 is_stmt 1 view .LVU945
	bl	usbd_work_schedule
.LVL243:
.L249:
	.loc 1 1297 2 view .LVU946
.LBB835:
.LBI835:
	.file 11 "/home/g/mise-work/zmk-firmware/zmk/modules/hal/nordic/nrfx/drivers/include/nrfx_power.h"
	.loc 11 419 38 view .LVU947
.LBB836:
	.loc 11 421 5 view .LVU948
.LBB837:
.LBI837:
	.file 12 "/home/g/mise-work/zmk-firmware/zmk/modules/hal/nordic/nrfx/hal/nrf_power.h"
	.loc 12 1530 24 view .LVU949
.LBB838:
	.loc 12 1532 5 view .LVU950
	.loc 12 1532 17 is_stmt 0 view .LVU951
	mov	r3, #1073741824
	ldr	r3, [r3, #1080]
.LVL244:
	.loc 12 1532 17 view .LVU952
.LBE838:
.LBE837:
	.loc 11 422 5 is_stmt 1 view .LVU953
	.loc 11 422 7 is_stmt 0 view .LVU954
	lsls	r3, r3, #31
.LVL245:
	.loc 11 422 7 view .LVU955
	bpl	.L246
	.loc 11 426 5 is_stmt 1 view .LVU956
.LBE836:
.LBE835:
	.loc 1 1305 3 view .LVU957
	movs	r0, #0
	bl	usb_dc_power_event_handler
.LVL246:
.L246:
	.loc 1 1305 3 is_stmt 0 view .LVU958
.LBE824:
.LBE823:
	.loc 1 1309 1 view .LVU959
	mov	r0, r4
	pop	{r3, r4, r5, pc}
.L251:
	.loc 1 1273 10 view .LVU960
	movs	r4, #0
	b	.L246
.L259:
	.align	2
.L258:
	.word	usbd_ctx
	.word	usbd_evt_fifo
	.cfi_endproc
.LFE1068:
	.size	usb_dc_attach, .-usb_dc_attach
	.section	.text.usb_dc_detach,"ax",%progbits
	.align	1
	.global	usb_dc_detach
	.syntax unified
	.thumb
	.thumb_func
	.type	usb_dc_detach, %function
usb_dc_detach:
.LFB1069:
	.loc 1 1312 1 is_stmt 1 view -0
	.cfi_startproc
	@ args = 0, pretend = 0, frame = 0
	@ frame_needed = 0, uses_anonymous_args = 0
	.loc 1 1313 2 view .LVU962
.LVL247:
	.loc 1 1315 2 view .LVU963
	.loc 1 1312 1 is_stmt 0 view .LVU964
	push	{r4, lr}
	.cfi_def_cfa_offset 8
	.cfi_offset 4, -8
	.cfi_offset 14, -4
	.loc 1 1315 2 view .LVU965
	ldr	r0, .L265
	mov	r2, #-1
	mov	r3, #-1
	bl	k_mutex_lock.constprop.0.isra.0
.LVL248:
	.loc 1 1317 2 is_stmt 1 view .LVU966
	bl	usbd_evt_flush
.LVL249:
	.loc 1 1319 2 view .LVU967
	.loc 1 1319 6 is_stmt 0 view .LVU968
	bl	nrfx_usbd_is_enabled
.LVL250:
	.loc 1 1319 5 view .LVU969
	cbz	r0, .L261
	.loc 1 1320 3 is_stmt 1 view .LVU970
	bl	nrfx_usbd_disable
.LVL251:
.L261:
	.loc 1 1323 2 view .LVU971
	.loc 1 1323 8 is_stmt 0 view .LVU972
	bl	hfxo_stop.constprop.0.isra.0
.LVL252:
	.loc 1 1324 2 is_stmt 1 view .LVU973
	bl	nrfx_power_usbevt_disable
.LVL253:
	.loc 1 1326 2 view .LVU974
	.loc 1 1326 16 is_stmt 0 view .LVU975
	ldr	r0, .L265+4
	movs	r4, #0
	strb	r4, [r0, #36]
	.loc 1 1327 2 is_stmt 1 view .LVU976
	adds	r0, r0, #56
	bl	k_mutex_unlock.isra.0
.LVL254:
	.loc 1 1329 2 view .LVU977
	.loc 1 1330 1 is_stmt 0 view .LVU978
	mov	r0, r4
	pop	{r4, pc}
.L266:
	.align	2
.L265:
	.word	usbd_ctx+56
	.word	usbd_ctx
	.cfi_endproc
.LFE1069:
	.size	usb_dc_detach, .-usb_dc_detach
	.section	.text.usb_dc_reset,"ax",%progbits
	.align	1
	.global	usb_dc_reset
	.syntax unified
	.thumb
	.thumb_func
	.type	usb_dc_reset, %function
usb_dc_reset:
.LFB1070:
	.loc 1 1333 1 is_stmt 1 view -0
	.cfi_startproc
	@ args = 0, pretend = 0, frame = 0
	@ frame_needed = 0, uses_anonymous_args = 0
	.loc 1 1334 2 view .LVU980
	.loc 1 1336 2 view .LVU981
.LBB839:
.LBI839:
	.loc 1 281 19 view .LVU982
.LBB840:
	.loc 1 283 2 view .LVU983
.LBE840:
.LBE839:
	.loc 1 1333 1 is_stmt 0 view .LVU984
	push	{r3, lr}
	.cfi_def_cfa_offset 8
	.cfi_offset 3, -8
	.cfi_offset 14, -4
.LBB842:
.LBB841:
	.loc 1 283 23 view .LVU985
	ldr	r3, .L271
.LBE841:
.LBE842:
	.loc 1 1336 5 view .LVU986
	ldrb	r2, [r3, #36]	@ zero_extendqisi2
	cbz	r2, .L270
.LBB843:
.LBI843:
	.loc 1 286 19 is_stmt 1 view .LVU987
.LBB844:
	.loc 1 288 2 view .LVU988
.LBE844:
.LBE843:
	.loc 1 1336 22 is_stmt 0 view .LVU989
	ldrb	r3, [r3, #37]	@ zero_extendqisi2
	cbz	r3, .L270
	.loc 1 1340 2 is_stmt 1 discriminator 285 view .LVU990
.LBB845:
	.loc 1 1340 7 discriminator 285 view .LVU991
.LBE845:
	.loc 1 1340 5 discriminator 285 view .LVU992
	.loc 1 1342 2 discriminator 285 view .LVU993
	.loc 1 1342 8 is_stmt 0 discriminator 285 view .LVU994
	bl	usb_dc_detach
.LVL255:
	.loc 1 1343 2 is_stmt 1 discriminator 285 view .LVU995
	.loc 1 1343 5 is_stmt 0 discriminator 285 view .LVU996
	cbnz	r0, .L267
	.loc 1 1347 2 is_stmt 1 view .LVU997
	.loc 1 1353 1 is_stmt 0 view .LVU998
	pop	{r3, lr}
	.cfi_remember_state
	.cfi_restore 14
	.cfi_restore 3
	.cfi_def_cfa_offset 0
	.loc 1 1347 8 view .LVU999
	b	usb_dc_attach
.LVL256:
.L270:
	.cfi_restore_state
	.loc 1 1337 10 view .LVU1000
	mvn	r0, #18
.L267:
	.loc 1 1353 1 view .LVU1001
	pop	{r3, pc}
.L272:
	.align	2
.L271:
	.word	usbd_ctx
	.cfi_endproc
.LFE1070:
	.size	usb_dc_reset, .-usb_dc_reset
	.section	.text.usb_dc_set_address,"ax",%progbits
	.align	1
	.global	usb_dc_set_address
	.syntax unified
	.thumb
	.thumb_func
	.type	usb_dc_set_address, %function
usb_dc_set_address:
.LVL257:
.LFB1071:
	.loc 1 1356 1 is_stmt 1 view -0
	.cfi_startproc
	@ args = 0, pretend = 0, frame = 0
	@ frame_needed = 0, uses_anonymous_args = 0
	@ link register save eliminated.
	.loc 1 1357 2 view .LVU1003
	.loc 1 1359 2 view .LVU1004
.LBB846:
.LBI846:
	.loc 1 281 19 view .LVU1005
.LBB847:
	.loc 1 283 2 view .LVU1006
	.loc 1 283 23 is_stmt 0 view .LVU1007
	ldr	r3, .L277
.LBE847:
.LBE846:
	.loc 1 1359 5 view .LVU1008
	ldrb	r2, [r3, #36]	@ zero_extendqisi2
	cbz	r2, .L275
.LBB848:
.LBI848:
	.loc 1 286 19 is_stmt 1 view .LVU1009
.LBB849:
	.loc 1 288 2 view .LVU1010
.LBE849:
.LBE848:
	.loc 1 1359 22 is_stmt 0 view .LVU1011
	ldrb	r3, [r3, #37]	@ zero_extendqisi2
	.loc 1 1360 10 view .LVU1012
	cmp	r3, #0
	ite	ne
	movne	r0, #0
.LVL258:
	.loc 1 1360 10 view .LVU1013
	mvneq	r0, #18
	bx	lr
.LVL259:
.L275:
	.loc 1 1360 10 view .LVU1014
	mvn	r0, #18
.LVL260:
	.loc 1 1374 1 view .LVU1015
	bx	lr
.L278:
	.align	2
.L277:
	.word	usbd_ctx
	.cfi_endproc
.LFE1071:
	.size	usb_dc_set_address, .-usb_dc_set_address
	.section	.text.usb_dc_ep_check_cap,"ax",%progbits
	.align	1
	.global	usb_dc_ep_check_cap
	.syntax unified
	.thumb
	.thumb_func
	.type	usb_dc_ep_check_cap, %function
usb_dc_ep_check_cap:
.LVL261:
.LFB1072:
	.loc 1 1378 1 is_stmt 1 view -0
	.cfi_startproc
	@ args = 0, pretend = 0, frame = 0
	@ frame_needed = 0, uses_anonymous_args = 0
	@ link register save eliminated.
	.loc 1 1379 2 view .LVU1017
	.loc 1 1379 47 is_stmt 0 view .LVU1018
	ldrb	r3, [r0]	@ zero_extendqisi2
	.loc 1 1384 13 view .LVU1019
	ldrb	r2, [r0, #4]	@ zero_extendqisi2
	.loc 1 1379 10 view .LVU1020
	and	r1, r3, #15
.LVL262:
	.loc 1 1381 2 is_stmt 1 view .LVU1021
.LBB850:
	.loc 1 1381 7 view .LVU1022
.LBE850:
	.loc 1 1381 5 view .LVU1023
	.loc 1 1384 2 view .LVU1024
	.loc 1 1384 5 is_stmt 0 view .LVU1025
	cbnz	r2, .L280
	.loc 1 1384 45 view .LVU1026
	cbz	r1, .L282
.L284:
	.loc 1 1386 10 view .LVU1027
	mov	r0, #-1
.LVL263:
	.loc 1 1407 1 view .LVU1028
	bx	lr
.LVL264:
.L280:
	.loc 1 1389 2 is_stmt 1 view .LVU1029
	.loc 1 1389 5 is_stmt 0 view .LVU1030
	cmp	r1, #8
	bhi	.L284
	.loc 1 1394 2 is_stmt 1 view .LVU1031
	.loc 1 1394 5 is_stmt 0 view .LVU1032
	cmp	r2, #1
	bne	.L282
	.loc 1 1394 49 discriminator 1 view .LVU1033
	eor	r0, r3, #8
.LVL265:
	.loc 1 1394 49 discriminator 1 view .LVU1034
	sbfx	r0, r0, #3, #1
	bx	lr
.LVL266:
.L282:
	.loc 1 1400 2 is_stmt 1 discriminator 1 view .LVU1035
	.loc 1 1400 49 is_stmt 0 discriminator 1 view .LVU1036
	sbfx	r0, r3, #3, #1
.LVL267:
	.loc 1 1400 49 discriminator 1 view .LVU1037
	bx	lr
	.cfi_endproc
.LFE1072:
	.size	usb_dc_ep_check_cap, .-usb_dc_ep_check_cap
	.section	.text.usb_dc_ep_configure,"ax",%progbits
	.align	1
	.global	usb_dc_ep_configure
	.syntax unified
	.thumb
	.thumb_func
	.type	usb_dc_ep_configure, %function
usb_dc_ep_configure:
.LVL268:
.LFB1073:
	.loc 1 1410 1 is_stmt 1 view -0
	.cfi_startproc
	@ args = 0, pretend = 0, frame = 0
	@ frame_needed = 0, uses_anonymous_args = 0
	.loc 1 1411 2 view .LVU1039
	.loc 1 1413 2 view .LVU1040
.LBB851:
.LBI851:
	.loc 1 281 19 view .LVU1041
.LBB852:
	.loc 1 283 2 view .LVU1042
.LBE852:
.LBE851:
	.loc 1 1410 1 is_stmt 0 view .LVU1043
	push	{r3, r4, r5, lr}
	.cfi_def_cfa_offset 16
	.cfi_offset 3, -16
	.cfi_offset 4, -12
	.cfi_offset 5, -8
	.cfi_offset 14, -4
.LBB854:
.LBB853:
	.loc 1 283 23 view .LVU1044
	ldr	r3, .L291
.LBE853:
.LBE854:
	.loc 1 1413 5 view .LVU1045
	ldrb	r3, [r3, #36]	@ zero_extendqisi2
	.loc 1 1410 1 view .LVU1046
	mov	r4, r0
	.loc 1 1413 5 view .LVU1047
	cbz	r3, .L290
	.loc 1 1427 2 is_stmt 1 view .LVU1048
	.loc 1 1427 30 is_stmt 0 view .LVU1049
	ldrb	r5, [r0]	@ zero_extendqisi2
	.loc 1 1427 11 view .LVU1050
	mov	r0, r5
.LVL269:
	.loc 1 1427 11 view .LVU1051
	bl	endpoint_ctx
.LVL270:
	.loc 1 1428 2 is_stmt 1 view .LVU1052
	.loc 1 1428 5 is_stmt 0 view .LVU1053
	cbnz	r0, .L287
.LVL271:
.L289:
	.loc 1 1429 10 view .LVU1054
	mvn	r0, #21
.LVL272:
.L285:
	.loc 1 1447 1 view .LVU1055
	pop	{r3, r4, r5, pc}
.LVL273:
.L287:
	.loc 1 1432 2 is_stmt 1 view .LVU1056
	.loc 1 1432 19 is_stmt 0 view .LVU1057
	strb	r5, [r0, #9]
	.loc 1 1433 2 is_stmt 1 view .LVU1058
	.loc 1 1433 27 is_stmt 0 view .LVU1059
	ldrb	r3, [r4, #4]	@ zero_extendqisi2
	.loc 1 1433 19 view .LVU1060
	strb	r3, [r0, #10]
	.loc 1 1434 2 is_stmt 1 view .LVU1061
	.loc 1 1434 29 is_stmt 0 view .LVU1062
	ldrh	r3, [r4, #2]
	str	r3, [r0, #4]
	.loc 1 1436 2 is_stmt 1 view .LVU1063
	.loc 1 1436 36 is_stmt 0 view .LVU1064
	ldrb	r0, [r4]	@ zero_extendqisi2
.LVL274:
	.loc 1 1436 36 view .LVU1065
	ldrh	r1, [r4, #2]
	.loc 1 1436 5 view .LVU1066
	tst	r0, #8
	bne	.L288
	.loc 1 1437 3 is_stmt 1 view .LVU1067
	.loc 1 1437 41 is_stmt 0 view .LVU1068
	subs	r3, r1, #1
	.loc 1 1437 6 view .LVU1069
	tst	r3, r1
	bne	.L289
.L288:
	.loc 1 1443 2 is_stmt 1 view .LVU1070
	bl	nrfx_usbd_ep_max_packet_size_set
.LVL275:
	.loc 1 1446 2 view .LVU1071
	.loc 1 1446 9 is_stmt 0 view .LVU1072
	movs	r0, #0
	b	.L285
.LVL276:
.L290:
	.loc 1 1414 10 view .LVU1073
	mvn	r0, #18
.LVL277:
	.loc 1 1414 10 view .LVU1074
	b	.L285
.L292:
	.align	2
.L291:
	.word	usbd_ctx
	.cfi_endproc
.LFE1073:
	.size	usb_dc_ep_configure, .-usb_dc_ep_configure
	.section	.text.usb_dc_ep_set_stall,"ax",%progbits
	.align	1
	.global	usb_dc_ep_set_stall
	.syntax unified
	.thumb
	.thumb_func
	.type	usb_dc_ep_set_stall, %function
usb_dc_ep_set_stall:
.LVL278:
.LFB1074:
	.loc 1 1450 1 is_stmt 1 view -0
	.cfi_startproc
	@ args = 0, pretend = 0, frame = 0
	@ frame_needed = 0, uses_anonymous_args = 0
	.loc 1 1451 2 view .LVU1076
	.loc 1 1453 2 view .LVU1077
.LBB855:
.LBI855:
	.loc 1 281 19 view .LVU1078
.LBB856:
	.loc 1 283 2 view .LVU1079
.LBE856:
.LBE855:
	.loc 1 1450 1 is_stmt 0 view .LVU1080
	push	{r3, r4, r5, lr}
	.cfi_def_cfa_offset 16
	.cfi_offset 3, -16
	.cfi_offset 4, -12
	.cfi_offset 5, -8
	.cfi_offset 14, -4
.LBB858:
.LBB857:
	.loc 1 283 23 view .LVU1081
	ldr	r3, .L303
.LBE857:
.LBE858:
	.loc 1 1453 5 view .LVU1082
	ldrb	r2, [r3, #36]	@ zero_extendqisi2
	.loc 1 1450 1 view .LVU1083
	mov	r5, r0
	.loc 1 1453 5 view .LVU1084
	cbz	r2, .L299
.LBB859:
.LBI859:
	.loc 1 286 19 is_stmt 1 view .LVU1085
.LBB860:
	.loc 1 288 2 view .LVU1086
.LBE860:
.LBE859:
	.loc 1 1453 22 is_stmt 0 view .LVU1087
	ldrb	r3, [r3, #37]	@ zero_extendqisi2
	cbz	r3, .L299
	.loc 1 1457 2 is_stmt 1 view .LVU1088
	.loc 1 1457 11 is_stmt 0 view .LVU1089
	bl	endpoint_ctx
.LVL279:
	.loc 1 1458 2 is_stmt 1 view .LVU1090
	.loc 1 1458 5 is_stmt 0 view .LVU1091
	mov	r4, r0
	cbz	r0, .L301
	.loc 1 1462 2 is_stmt 1 view .LVU1092
	.loc 1 1462 21 is_stmt 0 view .LVU1093
	ldrb	r3, [r0, #10]	@ zero_extendqisi2
	.loc 1 1462 2 view .LVU1094
	cmp	r3, #1
	beq	.L301
	bls	.L295
	subs	r3, r3, #2
	cmp	r3, #1
	bls	.L302
.LVL280:
.L296:
	.loc 1 1475 2 is_stmt 1 view .LVU1095
	.loc 1 1476 19 is_stmt 0 view .LVU1096
	ldr	r3, [r4, #20]
	str	r3, [r4, #24]
	.loc 1 1475 18 view .LVU1097
	movs	r0, #0
	str	r0, [r4, #12]
	.loc 1 1476 2 is_stmt 1 view .LVU1098
	.loc 1 1478 2 view .LVU1099
.LBB861:
	.loc 1 1478 7 view .LVU1100
.LBE861:
	.loc 1 1478 5 view .LVU1101
	.loc 1 1480 2 view .LVU1102
.LVL281:
.L293:
	.loc 1 1481 1 is_stmt 0 view .LVU1103
	pop	{r3, r4, r5, pc}
.LVL282:
.L295:
	.loc 1 1464 3 is_stmt 1 view .LVU1104
	bl	nrfx_usbd_setup_stall
.LVL283:
	.loc 1 1465 3 view .LVU1105
	b	.L296
.LVL284:
.L302:
	.loc 1 1468 3 view .LVU1106
	mov	r0, r5
.LVL285:
	.loc 1 1468 3 is_stmt 0 view .LVU1107
	bl	nrfx_usbd_ep_stall
.LVL286:
	.loc 1 1469 3 is_stmt 1 view .LVU1108
	b	.L296
.LVL287:
.L299:
	.loc 1 1454 10 is_stmt 0 view .LVU1109
	mvn	r0, #18
.LVL288:
	.loc 1 1454 10 view .LVU1110
	b	.L293
.LVL289:
.L301:
	.loc 1 1462 2 view .LVU1111
	mvn	r0, #21
.LVL290:
	.loc 1 1462 2 view .LVU1112
	b	.L293
.L304:
	.align	2
.L303:
	.word	usbd_ctx
	.cfi_endproc
.LFE1074:
	.size	usb_dc_ep_set_stall, .-usb_dc_ep_set_stall
	.section	.text.usb_dc_ep_clear_stall,"ax",%progbits
	.align	1
	.global	usb_dc_ep_clear_stall
	.syntax unified
	.thumb
	.thumb_func
	.type	usb_dc_ep_clear_stall, %function
usb_dc_ep_clear_stall:
.LVL291:
.LFB1075:
	.loc 1 1484 1 is_stmt 1 view -0
	.cfi_startproc
	@ args = 0, pretend = 0, frame = 0
	@ frame_needed = 0, uses_anonymous_args = 0
	.loc 1 1486 2 view .LVU1114
	.loc 1 1488 2 view .LVU1115
.LBB862:
.LBI862:
	.loc 1 281 19 view .LVU1116
.LBB863:
	.loc 1 283 2 view .LVU1117
.LBE863:
.LBE862:
	.loc 1 1484 1 is_stmt 0 view .LVU1118
	push	{r3, r4, r5, lr}
	.cfi_def_cfa_offset 16
	.cfi_offset 3, -16
	.cfi_offset 4, -12
	.cfi_offset 5, -8
	.cfi_offset 14, -4
.LBB865:
.LBB864:
	.loc 1 283 23 view .LVU1119
	ldr	r3, .L311
.LBE864:
.LBE865:
	.loc 1 1488 5 view .LVU1120
	ldrb	r2, [r3, #36]	@ zero_extendqisi2
	.loc 1 1484 1 view .LVU1121
	mov	r5, r0
	.loc 1 1488 5 view .LVU1122
	cbz	r2, .L308
.LBB866:
.LBI866:
	.loc 1 286 19 is_stmt 1 view .LVU1123
.LBB867:
	.loc 1 288 2 view .LVU1124
.LBE867:
.LBE866:
	.loc 1 1488 22 is_stmt 0 view .LVU1125
	ldrb	r3, [r3, #37]	@ zero_extendqisi2
	cbz	r3, .L308
	.loc 1 1492 2 is_stmt 1 view .LVU1126
	.loc 1 1492 11 is_stmt 0 view .LVU1127
	bl	endpoint_ctx
.LVL292:
	.loc 1 1493 2 is_stmt 1 view .LVU1128
	.loc 1 1493 5 is_stmt 0 view .LVU1129
	cbz	r0, .L310
	.loc 1 1497 2 is_stmt 1 view .LVU1130
	.loc 1 1497 5 is_stmt 0 view .LVU1131
	ands	r4, r5, #8
	bne	.L310
	.loc 1 1502 2 is_stmt 1 view .LVU1132
	mov	r0, r5
.LVL293:
	.loc 1 1502 2 is_stmt 0 view .LVU1133
	bl	nrfx_usbd_ep_dtoggle_clear
.LVL294:
	.loc 1 1503 2 is_stmt 1 view .LVU1134
	mov	r0, r5
	bl	nrfx_usbd_ep_stall_clear
.LVL295:
	.loc 1 1504 2 view .LVU1135
.LBB868:
	.loc 1 1504 7 view .LVU1136
.LBE868:
	.loc 1 1504 5 view .LVU1137
	.loc 1 1506 2 view .LVU1138
	.loc 1 1506 9 is_stmt 0 view .LVU1139
	mov	r0, r4
.LVL296:
.L305:
	.loc 1 1507 1 view .LVU1140
	pop	{r3, r4, r5, pc}
.LVL297:
.L308:
	.loc 1 1489 10 view .LVU1141
	mvn	r0, #18
.LVL298:
	.loc 1 1489 10 view .LVU1142
	b	.L305
.LVL299:
.L310:
	.loc 1 1494 10 view .LVU1143
	mvn	r0, #21
.LVL300:
	.loc 1 1494 10 view .LVU1144
	b	.L305
.L312:
	.align	2
.L311:
	.word	usbd_ctx
	.cfi_endproc
.LFE1075:
	.size	usb_dc_ep_clear_stall, .-usb_dc_ep_clear_stall
	.section	.text.usb_dc_ep_halt,"ax",%progbits
	.align	1
	.global	usb_dc_ep_halt
	.syntax unified
	.thumb
	.thumb_func
	.type	usb_dc_ep_halt, %function
usb_dc_ep_halt:
.LVL301:
.LFB1076:
	.loc 1 1510 1 is_stmt 1 view -0
	.cfi_startproc
	@ args = 0, pretend = 0, frame = 0
	@ frame_needed = 0, uses_anonymous_args = 0
	@ link register save eliminated.
	.loc 1 1511 2 view .LVU1146
	.loc 1 1511 9 is_stmt 0 view .LVU1147
	b	usb_dc_ep_set_stall
.LVL302:
	.loc 1 1511 9 view .LVU1148
	.cfi_endproc
.LFE1076:
	.size	usb_dc_ep_halt, .-usb_dc_ep_halt
	.section	.text.usb_dc_ep_is_stalled,"ax",%progbits
	.align	1
	.global	usb_dc_ep_is_stalled
	.syntax unified
	.thumb
	.thumb_func
	.type	usb_dc_ep_is_stalled, %function
usb_dc_ep_is_stalled:
.LVL303:
.LFB1077:
	.loc 1 1515 1 is_stmt 1 view -0
	.cfi_startproc
	@ args = 0, pretend = 0, frame = 0
	@ frame_needed = 0, uses_anonymous_args = 0
	.loc 1 1516 2 view .LVU1150
	.loc 1 1518 2 view .LVU1151
.LBB869:
.LBI869:
	.loc 1 281 19 view .LVU1152
.LBB870:
	.loc 1 283 2 view .LVU1153
.LBE870:
.LBE869:
	.loc 1 1515 1 is_stmt 0 view .LVU1154
	push	{r3, r4, r5, lr}
	.cfi_def_cfa_offset 16
	.cfi_offset 3, -16
	.cfi_offset 4, -12
	.cfi_offset 5, -8
	.cfi_offset 14, -4
.LBB872:
.LBB871:
	.loc 1 283 23 view .LVU1155
	ldr	r3, .L320
.LBE871:
.LBE872:
	.loc 1 1518 5 view .LVU1156
	ldrb	r2, [r3, #36]	@ zero_extendqisi2
	.loc 1 1515 1 view .LVU1157
	mov	r5, r0
	mov	r4, r1
	.loc 1 1518 5 view .LVU1158
	cbz	r2, .L317
.LBB873:
.LBI873:
	.loc 1 286 19 is_stmt 1 view .LVU1159
.LBB874:
	.loc 1 288 2 view .LVU1160
.LBE874:
.LBE873:
	.loc 1 1518 22 is_stmt 0 view .LVU1161
	ldrb	r3, [r3, #37]	@ zero_extendqisi2
	cbz	r3, .L317
	.loc 1 1522 2 is_stmt 1 view .LVU1162
	.loc 1 1522 11 is_stmt 0 view .LVU1163
	bl	endpoint_ctx
.LVL304:
	.loc 1 1523 2 is_stmt 1 view .LVU1164
	.loc 1 1523 5 is_stmt 0 view .LVU1165
	cbz	r0, .L319
	.loc 1 1527 2 is_stmt 1 view .LVU1166
	.loc 1 1527 5 is_stmt 0 view .LVU1167
	cbz	r4, .L319
	.loc 1 1531 2 is_stmt 1 view .LVU1168
	.loc 1 1531 23 is_stmt 0 view .LVU1169
	mov	r0, r5
.LVL305:
	.loc 1 1531 23 view .LVU1170
	bl	nrfx_usbd_ep_stall_check
.LVL306:
	.loc 1 1531 11 view .LVU1171
	strb	r0, [r4]
	.loc 1 1533 2 is_stmt 1 view .LVU1172
	.loc 1 1533 9 is_stmt 0 view .LVU1173
	movs	r0, #0
.LVL307:
.L314:
	.loc 1 1534 1 view .LVU1174
	pop	{r3, r4, r5, pc}
.LVL308:
.L317:
	.loc 1 1519 10 view .LVU1175
	mvn	r0, #18
.LVL309:
	.loc 1 1519 10 view .LVU1176
	b	.L314
.LVL310:
.L319:
	.loc 1 1524 10 view .LVU1177
	mvn	r0, #21
.LVL311:
	.loc 1 1524 10 view .LVU1178
	b	.L314
.L321:
	.align	2
.L320:
	.word	usbd_ctx
	.cfi_endproc
.LFE1077:
	.size	usb_dc_ep_is_stalled, .-usb_dc_ep_is_stalled
	.section	.text.usb_dc_ep_enable,"ax",%progbits
	.align	1
	.global	usb_dc_ep_enable
	.syntax unified
	.thumb
	.thumb_func
	.type	usb_dc_ep_enable, %function
usb_dc_ep_enable:
.LVL312:
.LFB1078:
	.loc 1 1537 1 is_stmt 1 view -0
	.cfi_startproc
	@ args = 0, pretend = 0, frame = 0
	@ frame_needed = 0, uses_anonymous_args = 0
	.loc 1 1538 2 view .LVU1180
	.loc 1 1540 2 view .LVU1181
.LBB875:
.LBI875:
	.loc 1 281 19 view .LVU1182
.LBB876:
	.loc 1 283 2 view .LVU1183
.LBE876:
.LBE875:
	.loc 1 1537 1 is_stmt 0 view .LVU1184
	push	{r4, r5, r6, lr}
	.cfi_def_cfa_offset 16
	.cfi_offset 4, -16
	.cfi_offset 5, -12
	.cfi_offset 6, -8
	.cfi_offset 14, -4
.LBB878:
.LBB877:
	.loc 1 283 23 view .LVU1185
	ldr	r6, .L330
.LBE877:
.LBE878:
	.loc 1 1540 5 view .LVU1186
	ldrb	r3, [r6, #36]	@ zero_extendqisi2
	.loc 1 1537 1 view .LVU1187
	mov	r4, r0
	.loc 1 1540 5 view .LVU1188
	cbz	r3, .L327
	.loc 1 1544 2 is_stmt 1 view .LVU1189
	.loc 1 1544 11 is_stmt 0 view .LVU1190
	bl	endpoint_ctx
.LVL313:
	.loc 1 1545 2 is_stmt 1 view .LVU1191
	.loc 1 1545 5 is_stmt 0 view .LVU1192
	mov	r5, r0
	cbz	r0, .L328
	.loc 1 1549 2 is_stmt 1 view .LVU1193
	.loc 1 1549 5 is_stmt 0 view .LVU1194
	lsls	r3, r4, #28
	bmi	.L324
	.loc 1 1553 3 is_stmt 1 view .LVU1195
	mov	r0, r4
.LVL314:
	.loc 1 1553 3 is_stmt 0 view .LVU1196
	bl	nrfx_usbd_ep_dtoggle_clear
.LVL315:
	.loc 1 1557 3 is_stmt 1 view .LVU1197
	mov	r0, r4
	bl	nrfx_usbd_ep_stall_clear
.LVL316:
.L324:
	.loc 1 1559 2 view .LVU1198
	.loc 1 1559 5 is_stmt 0 view .LVU1199
	ldrb	r3, [r5, #8]	@ zero_extendqisi2
	cbnz	r3, .L329
	.loc 1 1563 2 is_stmt 1 discriminator 335 view .LVU1200
.LBB879:
	.loc 1 1563 7 discriminator 335 view .LVU1201
.LBE879:
	.loc 1 1563 5 discriminator 335 view .LVU1202
	.loc 1 1565 2 discriminator 335 view .LVU1203
	.loc 1 1565 17 is_stmt 0 discriminator 335 view .LVU1204
	movs	r3, #1
	strb	r3, [r5, #8]
	.loc 1 1568 2 is_stmt 1 discriminator 335 view .LVU1205
.LBB880:
.LBI880:
	.loc 1 286 19 discriminator 335 view .LVU1206
.LBB881:
	.loc 1 288 2 discriminator 335 view .LVU1207
.LBE881:
.LBE880:
	.loc 1 1568 5 is_stmt 0 discriminator 335 view .LVU1208
	ldrb	r3, [r6, #37]	@ zero_extendqisi2
	cbnz	r3, .L325
.L326:
	.loc 1 1572 9 view .LVU1209
	movs	r0, #0
.LVL317:
.L322:
	.loc 1 1573 1 view .LVU1210
	pop	{r4, r5, r6, pc}
.LVL318:
.L325:
	.loc 1 1569 3 is_stmt 1 view .LVU1211
	mov	r0, r4
	bl	nrfx_usbd_ep_enable
.LVL319:
	b	.L326
.LVL320:
.L327:
	.loc 1 1541 10 is_stmt 0 view .LVU1212
	mvn	r0, #18
.LVL321:
	.loc 1 1541 10 view .LVU1213
	b	.L322
.LVL322:
.L328:
	.loc 1 1546 10 view .LVU1214
	mvn	r0, #21
.LVL323:
	.loc 1 1546 10 view .LVU1215
	b	.L322
.L329:
	.loc 1 1560 10 view .LVU1216
	mvn	r0, #119
	b	.L322
.L331:
	.align	2
.L330:
	.word	usbd_ctx
	.cfi_endproc
.LFE1078:
	.size	usb_dc_ep_enable, .-usb_dc_ep_enable
	.section	.text.usb_dc_ep_disable,"ax",%progbits
	.align	1
	.global	usb_dc_ep_disable
	.syntax unified
	.thumb
	.thumb_func
	.type	usb_dc_ep_disable, %function
usb_dc_ep_disable:
.LVL324:
.LFB1079:
	.loc 1 1576 1 is_stmt 1 view -0
	.cfi_startproc
	@ args = 0, pretend = 0, frame = 0
	@ frame_needed = 0, uses_anonymous_args = 0
	.loc 1 1577 2 view .LVU1218
	.loc 1 1579 2 view .LVU1219
	.loc 1 1576 1 is_stmt 0 view .LVU1220
	push	{r3, r4, r5, lr}
	.cfi_def_cfa_offset 16
	.cfi_offset 3, -16
	.cfi_offset 4, -12
	.cfi_offset 5, -8
	.cfi_offset 14, -4
	.loc 1 1576 1 view .LVU1221
	mov	r4, r0
	.loc 1 1579 11 view .LVU1222
	bl	endpoint_ctx
.LVL325:
	.loc 1 1580 2 is_stmt 1 view .LVU1223
	.loc 1 1580 5 is_stmt 0 view .LVU1224
	mov	r5, r0
	cbz	r0, .L334
	.loc 1 1584 2 is_stmt 1 view .LVU1225
	.loc 1 1584 5 is_stmt 0 view .LVU1226
	ldrb	r3, [r0, #8]	@ zero_extendqisi2
	cbz	r3, .L335
	.loc 1 1588 2 is_stmt 1 view .LVU1227
.LBB882:
	.loc 1 1588 7 view .LVU1228
.LBE882:
	.loc 1 1588 5 view .LVU1229
	.loc 1 1590 2 view .LVU1230
	mov	r0, r4
.LVL326:
	.loc 1 1594 28 is_stmt 0 view .LVU1231
	movs	r4, #0
	.loc 1 1590 2 view .LVU1232
	bl	nrfx_usbd_ep_disable
.LVL327:
	.loc 1 1594 2 is_stmt 1 view .LVU1233
	.loc 1 1595 2 is_stmt 0 view .LVU1234
	mov	r0, r5
	.loc 1 1594 28 view .LVU1235
	strb	r4, [r5, #30]
	.loc 1 1595 2 is_stmt 1 view .LVU1236
	bl	ep_ctx_reset
.LVL328:
	.loc 1 1596 2 view .LVU1237
	.loc 1 1596 17 is_stmt 0 view .LVU1238
	strb	r4, [r5, #8]
	.loc 1 1598 2 is_stmt 1 view .LVU1239
	.loc 1 1598 9 is_stmt 0 view .LVU1240
	mov	r0, r4
.L332:
	.loc 1 1599 1 view .LVU1241
	pop	{r3, r4, r5, pc}
.LVL329:
.L334:
	.loc 1 1581 10 view .LVU1242
	mvn	r0, #21
.LVL330:
	.loc 1 1581 10 view .LVU1243
	b	.L332
.LVL331:
.L335:
	.loc 1 1585 10 view .LVU1244
	mvn	r0, #119
.LVL332:
	.loc 1 1585 10 view .LVU1245
	b	.L332
	.cfi_endproc
.LFE1079:
	.size	usb_dc_ep_disable, .-usb_dc_ep_disable
	.section	.text.usb_dc_ep_flush,"ax",%progbits
	.align	1
	.global	usb_dc_ep_flush
	.syntax unified
	.thumb
	.thumb_func
	.type	usb_dc_ep_flush, %function
usb_dc_ep_flush:
.LVL333:
.LFB1080:
	.loc 1 1602 1 is_stmt 1 view -0
	.cfi_startproc
	@ args = 0, pretend = 0, frame = 0
	@ frame_needed = 0, uses_anonymous_args = 0
	.loc 1 1603 2 view .LVU1247
	.loc 1 1605 2 view .LVU1248
.LBB883:
.LBI883:
	.loc 1 281 19 view .LVU1249
.LBB884:
	.loc 1 283 2 view .LVU1250
.LBE884:
.LBE883:
	.loc 1 1602 1 is_stmt 0 view .LVU1251
	push	{r3, r4, r5, lr}
	.cfi_def_cfa_offset 16
	.cfi_offset 3, -16
	.cfi_offset 4, -12
	.cfi_offset 5, -8
	.cfi_offset 14, -4
.LBB886:
.LBB885:
	.loc 1 283 23 view .LVU1252
	ldr	r3, .L341
.LBE885:
.LBE886:
	.loc 1 1605 5 view .LVU1253
	ldrb	r2, [r3, #36]	@ zero_extendqisi2
	.loc 1 1602 1 view .LVU1254
	mov	r5, r0
	.loc 1 1605 5 view .LVU1255
	cbz	r2, .L339
.LBB887:
.LBI887:
	.loc 1 286 19 is_stmt 1 view .LVU1256
.LBB888:
	.loc 1 288 2 view .LVU1257
.LBE888:
.LBE887:
	.loc 1 1605 22 is_stmt 0 view .LVU1258
	ldrb	r3, [r3, #37]	@ zero_extendqisi2
	cbz	r3, .L339
	.loc 1 1609 2 is_stmt 1 view .LVU1259
	.loc 1 1609 11 is_stmt 0 view .LVU1260
	bl	endpoint_ctx
.LVL334:
	.loc 1 1610 2 is_stmt 1 view .LVU1261
	.loc 1 1610 5 is_stmt 0 view .LVU1262
	cbz	r0, .L340
	.loc 1 1614 2 is_stmt 1 view .LVU1263
	.loc 1 1615 19 is_stmt 0 view .LVU1264
	ldr	r3, [r0, #20]
	str	r3, [r0, #24]
	.loc 1 1614 18 view .LVU1265
	movs	r4, #0
	str	r4, [r0, #12]
	.loc 1 1615 2 is_stmt 1 view .LVU1266
	.loc 1 1617 2 view .LVU1267
	mov	r0, r5
.LVL335:
	.loc 1 1617 2 is_stmt 0 view .LVU1268
	bl	nrfx_usbd_transfer_out_drop
.LVL336:
	.loc 1 1619 2 is_stmt 1 view .LVU1269
	.loc 1 1619 9 is_stmt 0 view .LVU1270
	mov	r0, r4
.LVL337:
.L336:
	.loc 1 1620 1 view .LVU1271
	pop	{r3, r4, r5, pc}
.LVL338:
.L339:
	.loc 1 1606 10 view .LVU1272
	mvn	r0, #18
.LVL339:
	.loc 1 1606 10 view .LVU1273
	b	.L336
.LVL340:
.L340:
	.loc 1 1611 10 view .LVU1274
	mvn	r0, #21
.LVL341:
	.loc 1 1611 10 view .LVU1275
	b	.L336
.L342:
	.align	2
.L341:
	.word	usbd_ctx
	.cfi_endproc
.LFE1080:
	.size	usb_dc_ep_flush, .-usb_dc_ep_flush
	.section	.text.usb_dc_ep_write,"ax",%progbits
	.align	1
	.global	usb_dc_ep_write
	.syntax unified
	.thumb
	.thumb_func
	.type	usb_dc_ep_write, %function
usb_dc_ep_write:
.LVL342:
.LFB1081:
	.loc 1 1624 1 is_stmt 1 view -0
	.cfi_startproc
	@ args = 0, pretend = 0, frame = 16
	@ frame_needed = 0, uses_anonymous_args = 0
	.loc 1 1625 2 view .LVU1277
.LBB889:
	.loc 1 1625 7 view .LVU1278
.LBE889:
	.loc 1 1625 5 view .LVU1279
	.loc 1 1626 2 view .LVU1280
	.loc 1 1627 2 view .LVU1281
	.loc 1 1628 2 view .LVU1282
	.loc 1 1630 2 view .LVU1283
.LBB890:
.LBI890:
	.loc 1 281 19 view .LVU1284
.LBB891:
	.loc 1 283 2 view .LVU1285
.LBE891:
.LBE890:
	.loc 1 1624 1 is_stmt 0 view .LVU1286
	push	{r4, r5, r6, r7, r8, r9, lr}
	.cfi_def_cfa_offset 28
	.cfi_offset 4, -28
	.cfi_offset 5, -24
	.cfi_offset 6, -20
	.cfi_offset 7, -16
	.cfi_offset 8, -12
	.cfi_offset 9, -8
	.cfi_offset 14, -4
.LBB893:
.LBB892:
	.loc 1 283 23 view .LVU1287
	ldr	r8, .L369+8
.LBE892:
.LBE893:
	.loc 1 1624 1 view .LVU1288
	mov	r6, r3
	.loc 1 1630 5 view .LVU1289
	ldrb	r3, [r8, #36]	@ zero_extendqisi2
.LVL343:
	.loc 1 1624 1 view .LVU1290
	sub	sp, sp, #20
	.cfi_def_cfa_offset 48
	.loc 1 1624 1 view .LVU1291
	mov	r7, r0
	mov	r9, r1
	mov	r5, r2
	.loc 1 1630 5 view .LVU1292
	cmp	r3, #0
	beq	.L358
.LBB894:
.LBI894:
	.loc 1 286 19 is_stmt 1 view .LVU1293
.LBB895:
	.loc 1 288 2 view .LVU1294
.LBE895:
.LBE894:
	.loc 1 1630 22 is_stmt 0 view .LVU1295
	ldrb	r3, [r8, #37]	@ zero_extendqisi2
	cmp	r3, #0
	beq	.L358
	.loc 1 1634 2 is_stmt 1 view .LVU1296
	.loc 1 1634 5 is_stmt 0 view .LVU1297
	lsls	r3, r0, #24
	bpl	.L361
	.loc 1 1638 2 is_stmt 1 view .LVU1298
	.loc 1 1638 11 is_stmt 0 view .LVU1299
	bl	endpoint_ctx
.LVL344:
	.loc 1 1639 2 is_stmt 1 view .LVU1300
	.loc 1 1639 5 is_stmt 0 view .LVU1301
	mov	r4, r0
	cmp	r0, #0
	beq	.L361
	.loc 1 1643 2 is_stmt 1 view .LVU1302
	.loc 1 1643 5 is_stmt 0 view .LVU1303
	ldrb	r3, [r0, #8]	@ zero_extendqisi2
	cmp	r3, #0
	beq	.L361
	.loc 1 1648 2 is_stmt 1 view .LVU1304
	mov	r3, #-1
	mov	r2, #-1
	add	r0, r8, #56
.LVL345:
	.loc 1 1648 2 is_stmt 0 view .LVU1305
	bl	k_mutex_lock.constprop.0.isra.0
.LVL346:
	.loc 1 1654 2 is_stmt 1 view .LVU1306
	.loc 1 1654 12 is_stmt 0 view .LVU1307
	ldrb	r3, [r4, #30]	@ zero_extendqisi2
	.loc 1 1654 5 view .LVU1308
	cbz	r3, .L345
	.loc 1 1655 3 is_stmt 1 view .LVU1309
	add	r0, r8, #56
	bl	k_mutex_unlock.isra.0
.LVL347:
	.loc 1 1656 3 view .LVU1310
	.loc 1 1656 10 is_stmt 0 view .LVU1311
	mvn	r4, #10
.LVL348:
.L344:
	.loc 1 1710 1 view .LVU1312
	mov	r0, r4
	add	sp, sp, #20
	.cfi_remember_state
	.cfi_def_cfa_offset 28
	@ sp needed
	pop	{r4, r5, r6, r7, r8, r9, pc}
.LVL349:
.L345:
	.cfi_restore_state
	.loc 1 1662 2 is_stmt 1 view .LVU1313
	.loc 1 1673 17 is_stmt 0 view .LVU1314
	ldrb	r3, [r4, #10]	@ zero_extendqisi2
	.loc 1 1662 5 view .LVU1315
	cbz	r5, .L346
	.loc 1 1673 2 is_stmt 1 view .LVU1316
	.loc 1 1673 5 is_stmt 0 view .LVU1317
	cbz	r3, .L347
.L348:
	.loc 1 1691 2 is_stmt 1 view .LVU1318
	.loc 1 1691 28 is_stmt 0 view .LVU1319
	movs	r3, #1
	strb	r3, [r4, #30]
	.loc 1 1692 2 is_stmt 1 view .LVU1320
	.loc 1 1692 29 is_stmt 0 view .LVU1321
	mov	r8, #0
	.loc 1 1693 19 view .LVU1322
	add	r1, sp, #4
	mov	r0, r7
	.loc 1 1692 29 view .LVU1323
	strd	r9, r5, [sp, #4]
	str	r8, [sp, #12]
	.loc 1 1693 2 is_stmt 1 view .LVU1324
	.loc 1 1693 19 is_stmt 0 view .LVU1325
	bl	nrfx_usbd_ep_transfer
.LVL350:
	.loc 1 1695 2 is_stmt 1 view .LVU1326
	.loc 1 1695 5 is_stmt 0 view .LVU1327
	ldr	r3, .L369
	cmp	r0, r3
	beq	.L352
	.loc 1 1696 3 is_stmt 1 view .LVU1328
	.loc 1 1696 29 is_stmt 0 view .LVU1329
	strb	r8, [r4, #30]
	.loc 1 1697 3 is_stmt 1 view .LVU1330
	.loc 1 1697 6 is_stmt 0 view .LVU1331
	cbnz	r6, .L353
.L355:
	.loc 1 1700 10 view .LVU1332
	mvn	r4, #4
.LVL351:
.L354:
	.loc 1 1708 2 is_stmt 1 view .LVU1333
	ldr	r0, .L369+4
.LVL352:
	.loc 1 1708 2 is_stmt 0 view .LVU1334
	bl	k_mutex_unlock.isra.0
.LVL353:
	.loc 1 1709 2 is_stmt 1 view .LVU1335
	.loc 1 1709 9 is_stmt 0 view .LVU1336
	b	.L344
.LVL354:
.L346:
	.loc 1 1662 16 discriminator 1 view .LVU1337
	ldrb	r2, [r4, #31]	@ zero_extendqisi2
	cbz	r2, .L349
	.loc 1 1663 3 is_stmt 1 view .LVU1338
	.loc 1 1663 21 is_stmt 0 view .LVU1339
	strb	r5, [r4, #31]
	.loc 1 1673 2 is_stmt 1 view .LVU1340
.L349:
	.loc 1 1673 2 view .LVU1341
	.loc 1 1673 5 is_stmt 0 view .LVU1342
	cmp	r3, #0
	bne	.L348
.L350:
	.loc 1 1685 10 view .LVU1343
	bl	nrfx_usbd_last_setup_dir_get
.LVL355:
	.loc 1 1685 6 view .LVU1344
	cmp	r0, r7
	beq	.L348
	.loc 1 1686 3 is_stmt 1 view .LVU1345
	bl	nrfx_usbd_setup_clear
.LVL356:
	.loc 1 1687 3 view .LVU1346
	ldr	r0, .L369+4
	bl	k_mutex_unlock.isra.0
.LVL357:
	.loc 1 1688 3 view .LVU1347
	.loc 1 1688 10 is_stmt 0 view .LVU1348
	movs	r4, #0
.LVL358:
	.loc 1 1688 10 view .LVU1349
	b	.L344
.LVL359:
.L347:
	.loc 1 1674 3 is_stmt 1 discriminator 1 view .LVU1350
	.loc 1 1674 33 is_stmt 0 discriminator 1 view .LVU1351
	ldrh	r3, [r8, #10]
	.loc 1 1674 16 discriminator 1 view .LVU1352
	cmp	r3, r5
	bls	.L350
	.loc 1 1675 18 discriminator 2 view .LVU1353
	ldr	r2, [r4, #4]
	udiv	r3, r5, r2
	mls	r3, r2, r3, r5
	.loc 1 1674 53 discriminator 2 view .LVU1354
	cmp	r3, #0
	bne	.L350
	.loc 1 1676 4 is_stmt 1 view .LVU1355
	.loc 1 1676 22 is_stmt 0 view .LVU1356
	movs	r3, #1
	strb	r3, [r4, #31]
	.loc 1 1684 2 is_stmt 1 view .LVU1357
	b	.L350
.LVL360:
.L353:
	.loc 1 1698 4 view .LVU1358
	.loc 1 1698 15 is_stmt 0 view .LVU1359
	str	r8, [r6]
	b	.L355
.L352:
	.loc 1 1703 3 is_stmt 1 view .LVU1360
	.loc 1 1703 6 is_stmt 0 view .LVU1361
	cbz	r6, .L356
	.loc 1 1704 4 is_stmt 1 view .LVU1362
	.loc 1 1704 15 is_stmt 0 view .LVU1363
	str	r5, [r6]
.L356:
	.loc 1 1628 6 view .LVU1364
	movs	r4, #0
.LVL361:
	.loc 1 1628 6 view .LVU1365
	b	.L354
.LVL362:
.L358:
	.loc 1 1631 10 view .LVU1366
	mvn	r4, #18
	b	.L344
.LVL363:
.L361:
	.loc 1 1635 10 view .LVU1367
	mvn	r4, #21
	b	.L344
.L370:
	.align	2
.L369:
	.word	195887104
	.word	usbd_ctx+56
	.word	usbd_ctx
	.cfi_endproc
.LFE1081:
	.size	usb_dc_ep_write, .-usb_dc_ep_write
	.section	.text.usb_dc_ep_read_wait,"ax",%progbits
	.align	1
	.global	usb_dc_ep_read_wait
	.syntax unified
	.thumb
	.thumb_func
	.type	usb_dc_ep_read_wait, %function
usb_dc_ep_read_wait:
.LVL364:
.LFB1082:
	.loc 1 1714 1 is_stmt 1 view -0
	.cfi_startproc
	@ args = 0, pretend = 0, frame = 0
	@ frame_needed = 0, uses_anonymous_args = 0
	.loc 1 1715 2 view .LVU1369
	.loc 1 1716 2 view .LVU1370
	.loc 1 1717 2 view .LVU1371
	.loc 1 1719 2 view .LVU1372
.LBB896:
.LBI896:
	.loc 1 281 19 view .LVU1373
.LBB897:
	.loc 1 283 2 view .LVU1374
.LBE897:
.LBE896:
	.loc 1 1714 1 is_stmt 0 view .LVU1375
	push	{r4, r5, r6, r7, r8, lr}
	.cfi_def_cfa_offset 24
	.cfi_offset 4, -24
	.cfi_offset 5, -20
	.cfi_offset 6, -16
	.cfi_offset 7, -12
	.cfi_offset 8, -8
	.cfi_offset 14, -4
	.loc 1 1714 1 view .LVU1376
	mov	r5, r3
.LBB899:
.LBB898:
	.loc 1 283 23 view .LVU1377
	ldr	r3, .L387
.LVL365:
	.loc 1 283 23 view .LVU1378
.LBE898:
.LBE899:
	.loc 1 1714 1 view .LVU1379
	mov	r7, r2
	.loc 1 1719 5 view .LVU1380
	ldrb	r2, [r3, #36]	@ zero_extendqisi2
.LVL366:
	.loc 1 1714 1 view .LVU1381
	mov	r6, r1
	.loc 1 1719 5 view .LVU1382
	cmp	r2, #0
	beq	.L379
.LBB900:
.LBI900:
	.loc 1 286 19 is_stmt 1 view .LVU1383
.LBB901:
	.loc 1 288 2 view .LVU1384
.LBE901:
.LBE900:
	.loc 1 1719 22 is_stmt 0 view .LVU1385
	ldrb	r3, [r3, #37]	@ zero_extendqisi2
	cbz	r3, .L379
	.loc 1 1723 2 is_stmt 1 view .LVU1386
	.loc 1 1723 5 is_stmt 0 view .LVU1387
	lsls	r3, r0, #24
	bmi	.L383
	.loc 1 1727 2 is_stmt 1 view .LVU1388
	.loc 1 1727 5 is_stmt 0 view .LVU1389
	cbnz	r1, .L373
	.loc 1 1727 12 discriminator 1 view .LVU1390
	cbnz	r7, .L383
.L373:
	.loc 1 1731 2 is_stmt 1 view .LVU1391
	.loc 1 1731 11 is_stmt 0 view .LVU1392
	bl	endpoint_ctx
.LVL367:
	.loc 1 1732 2 is_stmt 1 view .LVU1393
	.loc 1 1732 5 is_stmt 0 view .LVU1394
	mov	r4, r0
	cbz	r0, .L383
	.loc 1 1736 2 is_stmt 1 view .LVU1395
	.loc 1 1736 5 is_stmt 0 view .LVU1396
	ldrb	r3, [r0, #8]	@ zero_extendqisi2
	cbz	r3, .L383
	.loc 1 1741 2 is_stmt 1 view .LVU1397
	mov	r3, #-1
	ldr	r0, .L387+4
.LVL368:
	.loc 1 1741 2 is_stmt 0 view .LVU1398
	mov	r2, #-1
	bl	k_mutex_lock.constprop.0.isra.0
.LVL369:
	.loc 1 1743 2 is_stmt 1 view .LVU1399
	.loc 1 1743 49 is_stmt 0 view .LVU1400
	ldr	r3, [r4, #12]
	.loc 1 1743 16 view .LVU1401
	cmp	r7, r3
	mov	r8, r7
	it	cs
	movcs	r8, r3
.LVL370:
	.loc 1 1745 2 is_stmt 1 view .LVU1402
	.loc 1 1745 5 is_stmt 0 view .LVU1403
	cbnz	r6, .L374
	.loc 1 1745 12 discriminator 1 view .LVU1404
	cbnz	r7, .L374
	.loc 1 1746 3 is_stmt 1 view .LVU1405
	.loc 1 1746 6 is_stmt 0 view .LVU1406
	cbz	r5, .L376
	.loc 1 1747 4 is_stmt 1 view .LVU1407
	.loc 1 1747 16 is_stmt 0 view .LVU1408
	str	r3, [r5]
.L376:
	.loc 1 1749 3 is_stmt 1 view .LVU1409
	ldr	r0, .L387+4
	bl	k_mutex_unlock.isra.0
.LVL371:
	.loc 1 1750 3 view .LVU1410
	.loc 1 1750 10 is_stmt 0 view .LVU1411
	movs	r0, #0
.LVL372:
.L372:
	.loc 1 1763 1 view .LVU1412
	pop	{r4, r5, r6, r7, r8, pc}
.LVL373:
.L374:
	.loc 1 1753 1 is_stmt 1 view .LVU1413
.LBB902:
.LBI902:
	.loc 6 83 216 view .LVU1414
.LBB903:
	.loc 6 83 292 view .LVU1415
	.loc 6 83 299 is_stmt 0 view .LVU1416
	ldr	r1, [r4, #24]
	mov	r2, r8
	mov	r0, r6
	bl	memcpy
.LVL374:
	.loc 6 83 299 view .LVU1417
.LBE903:
.LBE902:
	.loc 1 1755 2 is_stmt 1 view .LVU1418
	.loc 1 1755 19 is_stmt 0 view .LVU1419
	ldr	r3, [r4, #24]
	add	r3, r3, r8
	str	r3, [r4, #24]
	.loc 1 1756 2 is_stmt 1 view .LVU1420
	.loc 1 1756 18 is_stmt 0 view .LVU1421
	ldr	r3, [r4, #12]
	sub	r3, r3, r8
	str	r3, [r4, #12]
	.loc 1 1757 2 is_stmt 1 view .LVU1422
	.loc 1 1757 5 is_stmt 0 view .LVU1423
	cmp	r5, #0
	beq	.L376
	.loc 1 1758 3 is_stmt 1 view .LVU1424
	.loc 1 1758 15 is_stmt 0 view .LVU1425
	str	r8, [r5]
	b	.L376
.LVL375:
.L379:
	.loc 1 1720 10 view .LVU1426
	mvn	r0, #18
.LVL376:
	.loc 1 1720 10 view .LVU1427
	b	.L372
.LVL377:
.L383:
	.loc 1 1724 10 view .LVU1428
	mvn	r0, #21
	b	.L372
.L388:
	.align	2
.L387:
	.word	usbd_ctx
	.word	usbd_ctx+56
	.cfi_endproc
.LFE1082:
	.size	usb_dc_ep_read_wait, .-usb_dc_ep_read_wait
	.section	.text.usb_dc_ep_read_continue,"ax",%progbits
	.align	1
	.global	usb_dc_ep_read_continue
	.syntax unified
	.thumb
	.thumb_func
	.type	usb_dc_ep_read_continue, %function
usb_dc_ep_read_continue:
.LVL378:
.LFB1083:
	.loc 1 1766 1 is_stmt 1 view -0
	.cfi_startproc
	@ args = 0, pretend = 0, frame = 0
	@ frame_needed = 0, uses_anonymous_args = 0
	.loc 1 1767 2 view .LVU1430
	.loc 1 1768 2 view .LVU1431
	.loc 1 1770 2 view .LVU1432
.LBB904:
.LBI904:
	.loc 1 281 19 view .LVU1433
.LBB905:
	.loc 1 283 2 view .LVU1434
.LBE905:
.LBE904:
	.loc 1 1766 1 is_stmt 0 view .LVU1435
	push	{r4, r5, r6, lr}
	.cfi_def_cfa_offset 16
	.cfi_offset 4, -16
	.cfi_offset 5, -12
	.cfi_offset 6, -8
	.cfi_offset 14, -4
.LBB907:
.LBB906:
	.loc 1 283 23 view .LVU1436
	ldr	r5, .L403
.LBE906:
.LBE907:
	.loc 1 1770 5 view .LVU1437
	ldrb	r2, [r5, #36]	@ zero_extendqisi2
	.loc 1 1766 1 view .LVU1438
	mov	r3, r0
	.loc 1 1770 5 view .LVU1439
	cbz	r2, .L396
.LBB908:
.LBI908:
	.loc 1 286 19 is_stmt 1 view .LVU1440
.LBB909:
	.loc 1 288 2 view .LVU1441
.LBE909:
.LBE908:
	.loc 1 1770 22 is_stmt 0 view .LVU1442
	ldrb	r2, [r5, #37]	@ zero_extendqisi2
	cbz	r2, .L396
	.loc 1 1774 2 is_stmt 1 view .LVU1443
	.loc 1 1774 5 is_stmt 0 view .LVU1444
	lsls	r3, r3, #24
	bmi	.L399
	.loc 1 1778 2 is_stmt 1 view .LVU1445
	.loc 1 1778 11 is_stmt 0 view .LVU1446
	bl	endpoint_ctx
.LVL379:
	.loc 1 1779 2 is_stmt 1 view .LVU1447
	.loc 1 1779 5 is_stmt 0 view .LVU1448
	mov	r4, r0
	cbz	r0, .L399
	.loc 1 1783 2 is_stmt 1 view .LVU1449
	.loc 1 1783 5 is_stmt 0 view .LVU1450
	ldrb	r3, [r0, #8]	@ zero_extendqisi2
	cbz	r3, .L399
	.loc 1 1788 2 is_stmt 1 view .LVU1451
	mov	r3, #-1
	mov	r2, #-1
	add	r0, r5, #56
.LVL380:
	.loc 1 1788 2 is_stmt 0 view .LVU1452
	bl	k_mutex_lock.constprop.0.isra.0
.LVL381:
	.loc 1 1789 2 is_stmt 1 view .LVU1453
	.loc 1 1789 5 is_stmt 0 view .LVU1454
	ldr	r3, [r4, #12]
	cbnz	r3, .L392
	.loc 1 1790 3 is_stmt 1 view .LVU1455
	.loc 1 1791 25 is_stmt 0 view .LVU1456
	movs	r6, #1
	.loc 1 1790 20 view .LVU1457
	ldr	r3, [r4, #20]
	.loc 1 1791 25 view .LVU1458
	strb	r6, [r4, #28]
	.loc 1 1790 20 view .LVU1459
	str	r3, [r4, #24]
	.loc 1 1791 3 is_stmt 1 view .LVU1460
	.loc 1 1793 3 view .LVU1461
	.loc 1 1793 13 is_stmt 0 view .LVU1462
	ldrb	r3, [r4, #29]	@ zero_extendqisi2
	.loc 1 1793 6 view .LVU1463
	cbz	r3, .L392
.LBB910:
	.loc 1 1794 4 is_stmt 1 view .LVU1464
	.loc 1 1794 28 is_stmt 0 view .LVU1465
	bl	usbd_evt_alloc
.LVL382:
	.loc 1 1796 4 is_stmt 1 view .LVU1466
	.loc 1 1796 7 is_stmt 0 view .LVU1467
	cbnz	r0, .L394
	.loc 1 1797 5 is_stmt 1 view .LVU1468
	add	r0, r5, #56
.LVL383:
	.loc 1 1797 5 is_stmt 0 view .LVU1469
	bl	k_mutex_unlock.isra.0
.LVL384:
	.loc 1 1798 5 is_stmt 1 view .LVU1470
	.loc 1 1798 12 is_stmt 0 view .LVU1471
	mvn	r0, #11
.LVL385:
.L390:
	.loc 1 1798 12 view .LVU1472
.LBE910:
	.loc 1 1811 1 view .LVU1473
	pop	{r4, r5, r6, pc}
.LVL386:
.L394:
.LBB911:
	.loc 1 1801 4 is_stmt 1 view .LVU1474
	.loc 1 1801 17 is_stmt 0 view .LVU1475
	strb	r6, [r0, #16]
	.loc 1 1802 4 is_stmt 1 view .LVU1476
	.loc 1 1802 22 is_stmt 0 view .LVU1477
	str	r4, [r0, #8]
	.loc 1 1803 4 is_stmt 1 view .LVU1478
	.loc 1 1803 28 is_stmt 0 view .LVU1479
	strb	r6, [r0, #12]
	.loc 1 1804 4 is_stmt 1 view .LVU1480
	bl	usbd_evt_put
.LVL387:
	.loc 1 1805 4 view .LVU1481
	bl	usbd_work_schedule
.LVL388:
.L392:
	.loc 1 1805 4 is_stmt 0 view .LVU1482
.LBE911:
	.loc 1 1808 2 is_stmt 1 view .LVU1483
	ldr	r0, .L403+4
	bl	k_mutex_unlock.isra.0
.LVL389:
	.loc 1 1810 2 view .LVU1484
	.loc 1 1810 9 is_stmt 0 view .LVU1485
	movs	r0, #0
	b	.L390
.LVL390:
.L396:
	.loc 1 1771 10 view .LVU1486
	mvn	r0, #18
.LVL391:
	.loc 1 1771 10 view .LVU1487
	b	.L390
.L399:
	.loc 1 1775 10 view .LVU1488
	mvn	r0, #21
	b	.L390
.L404:
	.align	2
.L403:
	.word	usbd_ctx
	.word	usbd_ctx+56
	.cfi_endproc
.LFE1083:
	.size	usb_dc_ep_read_continue, .-usb_dc_ep_read_continue
	.section	.text.usb_dc_ep_read,"ax",%progbits
	.align	1
	.global	usb_dc_ep_read
	.syntax unified
	.thumb
	.thumb_func
	.type	usb_dc_ep_read, %function
usb_dc_ep_read:
.LVL392:
.LFB1084:
	.loc 1 1815 1 is_stmt 1 view -0
	.cfi_startproc
	@ args = 0, pretend = 0, frame = 0
	@ frame_needed = 0, uses_anonymous_args = 0
	.loc 1 1816 2 view .LVU1490
.LBB912:
	.loc 1 1816 7 view .LVU1491
.LBE912:
	.loc 1 1816 5 view .LVU1492
	.loc 1 1817 2 view .LVU1493
	.loc 1 1819 2 view .LVU1494
	.loc 1 1815 1 is_stmt 0 view .LVU1495
	push	{r4, r5, r6, lr}
	.cfi_def_cfa_offset 16
	.cfi_offset 4, -16
	.cfi_offset 5, -12
	.cfi_offset 6, -8
	.cfi_offset 14, -4
	.loc 1 1815 1 view .LVU1496
	mov	r4, r0
	mov	r6, r1
	mov	r5, r2
	.loc 1 1819 8 view .LVU1497
	bl	usb_dc_ep_read_wait
.LVL393:
	.loc 1 1820 2 is_stmt 1 view .LVU1498
	.loc 1 1820 5 is_stmt 0 view .LVU1499
	cbnz	r0, .L405
	.loc 1 1824 2 is_stmt 1 view .LVU1500
	.loc 1 1824 5 is_stmt 0 view .LVU1501
	cbnz	r6, .L407
	.loc 1 1824 12 discriminator 1 view .LVU1502
	cbz	r5, .L405
.L407:
	.loc 1 1828 2 is_stmt 1 view .LVU1503
	.loc 1 1828 8 is_stmt 0 view .LVU1504
	mov	r0, r4
.LVL394:
	.loc 1 1830 1 view .LVU1505
	pop	{r4, r5, r6, lr}
	.cfi_remember_state
	.cfi_restore 14
	.cfi_restore 6
	.cfi_restore 5
	.cfi_restore 4
	.cfi_def_cfa_offset 0
.LVL395:
	.loc 1 1828 8 view .LVU1506
	b	usb_dc_ep_read_continue
.LVL396:
.L405:
	.cfi_restore_state
	.loc 1 1830 1 view .LVU1507
	pop	{r4, r5, r6, pc}
	.loc 1 1830 1 view .LVU1508
	.cfi_endproc
.LFE1084:
	.size	usb_dc_ep_read, .-usb_dc_ep_read
	.section	.text.usb_dc_ep_set_callback,"ax",%progbits
	.align	1
	.global	usb_dc_ep_set_callback
	.syntax unified
	.thumb
	.thumb_func
	.type	usb_dc_ep_set_callback, %function
usb_dc_ep_set_callback:
.LVL397:
.LFB1085:
	.loc 1 1833 1 is_stmt 1 view -0
	.cfi_startproc
	@ args = 0, pretend = 0, frame = 0
	@ frame_needed = 0, uses_anonymous_args = 0
	.loc 1 1834 2 view .LVU1510
	.loc 1 1836 2 view .LVU1511
.LBB913:
.LBI913:
	.loc 1 281 19 view .LVU1512
.LBB914:
	.loc 1 283 2 view .LVU1513
.LBE914:
.LBE913:
	.loc 1 1833 1 is_stmt 0 view .LVU1514
	push	{r4, lr}
	.cfi_def_cfa_offset 8
	.cfi_offset 4, -8
	.cfi_offset 14, -4
.LBB916:
.LBB915:
	.loc 1 283 23 view .LVU1515
	ldr	r3, .L415
.LBE915:
.LBE916:
	.loc 1 1836 5 view .LVU1516
	ldrb	r3, [r3, #36]	@ zero_extendqisi2
	.loc 1 1833 1 view .LVU1517
	mov	r4, r1
	.loc 1 1836 5 view .LVU1518
	cbz	r3, .L413
	.loc 1 1840 2 is_stmt 1 view .LVU1519
	.loc 1 1840 11 is_stmt 0 view .LVU1520
	bl	endpoint_ctx
.LVL398:
	.loc 1 1841 2 is_stmt 1 view .LVU1521
	.loc 1 1841 5 is_stmt 0 view .LVU1522
	cbz	r0, .L414
	.loc 1 1845 2 is_stmt 1 view .LVU1523
	.loc 1 1845 17 is_stmt 0 view .LVU1524
	str	r4, [r0]
	.loc 1 1847 2 is_stmt 1 view .LVU1525
	.loc 1 1847 9 is_stmt 0 view .LVU1526
	movs	r0, #0
.LVL399:
.L411:
	.loc 1 1848 1 view .LVU1527
	pop	{r4, pc}
.LVL400:
.L413:
	.loc 1 1837 10 view .LVU1528
	mvn	r0, #18
.LVL401:
	.loc 1 1837 10 view .LVU1529
	b	.L411
.LVL402:
.L414:
	.loc 1 1842 10 view .LVU1530
	mvn	r0, #21
.LVL403:
	.loc 1 1842 10 view .LVU1531
	b	.L411
.L416:
	.align	2
.L415:
	.word	usbd_ctx
	.cfi_endproc
.LFE1085:
	.size	usb_dc_ep_set_callback, .-usb_dc_ep_set_callback
	.section	.text.usb_dc_set_status_callback,"ax",%progbits
	.align	1
	.global	usb_dc_set_status_callback
	.syntax unified
	.thumb
	.thumb_func
	.type	usb_dc_set_status_callback, %function
usb_dc_set_status_callback:
.LVL404:
.LFB1086:
	.loc 1 1851 1 is_stmt 1 view -0
	.cfi_startproc
	@ args = 0, pretend = 0, frame = 0
	@ frame_needed = 0, uses_anonymous_args = 0
	@ link register save eliminated.
	.loc 1 1852 2 view .LVU1533
	.loc 1 1852 28 is_stmt 0 view .LVU1534
	ldr	r3, .L418
	str	r0, [r3]
	.loc 1 1853 1 view .LVU1535
	bx	lr
.L419:
	.align	2
.L418:
	.word	usbd_ctx
	.cfi_endproc
.LFE1086:
	.size	usb_dc_set_status_callback, .-usb_dc_set_status_callback
	.section	.text.usb_dc_ep_mps,"ax",%progbits
	.align	1
	.global	usb_dc_ep_mps
	.syntax unified
	.thumb
	.thumb_func
	.type	usb_dc_ep_mps, %function
usb_dc_ep_mps:
.LVL405:
.LFB1087:
	.loc 1 1856 1 is_stmt 1 view -0
	.cfi_startproc
	@ args = 0, pretend = 0, frame = 0
	@ frame_needed = 0, uses_anonymous_args = 0
	.loc 1 1857 2 view .LVU1537
	.loc 1 1859 2 view .LVU1538
.LBB917:
.LBI917:
	.loc 1 281 19 view .LVU1539
.LBB918:
	.loc 1 283 2 view .LVU1540
.LBE918:
.LBE917:
	.loc 1 1856 1 is_stmt 0 view .LVU1541
	push	{r3, lr}
	.cfi_def_cfa_offset 8
	.cfi_offset 3, -8
	.cfi_offset 14, -4
.LBB920:
.LBB919:
	.loc 1 283 23 view .LVU1542
	ldr	r3, .L424
.LBE919:
.LBE920:
	.loc 1 1859 5 view .LVU1543
	ldrb	r3, [r3, #36]	@ zero_extendqisi2
	cbz	r3, .L422
	.loc 1 1863 2 is_stmt 1 view .LVU1544
	.loc 1 1863 11 is_stmt 0 view .LVU1545
	bl	endpoint_ctx
.LVL406:
	.loc 1 1864 2 is_stmt 1 view .LVU1546
	.loc 1 1864 5 is_stmt 0 view .LVU1547
	cbz	r0, .L423
	.loc 1 1868 2 is_stmt 1 view .LVU1548
	.loc 1 1868 20 is_stmt 0 view .LVU1549
	ldr	r0, [r0, #4]
.LVL407:
.L420:
	.loc 1 1869 1 view .LVU1550
	pop	{r3, pc}
.LVL408:
.L422:
	.loc 1 1860 10 view .LVU1551
	mvn	r0, #18
.LVL409:
	.loc 1 1860 10 view .LVU1552
	b	.L420
.LVL410:
.L423:
	.loc 1 1865 10 view .LVU1553
	mvn	r0, #21
.LVL411:
	.loc 1 1865 10 view .LVU1554
	b	.L420
.L425:
	.align	2
.L424:
	.word	usbd_ctx
	.cfi_endproc
.LFE1087:
	.size	usb_dc_ep_mps, .-usb_dc_ep_mps
	.section	.text.usb_dc_wakeup_request,"ax",%progbits
	.align	1
	.global	usb_dc_wakeup_request
	.syntax unified
	.thumb
	.thumb_func
	.type	usb_dc_wakeup_request, %function
usb_dc_wakeup_request:
.LFB1088:
	.loc 1 1872 1 is_stmt 1 view -0
	.cfi_startproc
	@ args = 0, pretend = 0, frame = 0
	@ frame_needed = 0, uses_anonymous_args = 0
	.loc 1 1873 1 view .LVU1556
	.loc 1 1872 1 is_stmt 0 view .LVU1557
	push	{r3, lr}
	.cfi_def_cfa_offset 8
	.cfi_offset 3, -8
	.cfi_offset 14, -4
	.loc 1 1873 12 view .LVU1558
	bl	nrfx_usbd_wakeup_req
.LVL412:
	.loc 1 1875 2 is_stmt 1 view .LVU1559
	.loc 1 1878 9 is_stmt 0 view .LVU1560
	cmp	r0, #0
	.loc 1 1879 1 view .LVU1561
	ite	eq
	mvneq	r0, #10
.LVL413:
	.loc 1 1879 1 view .LVU1562
	movne	r0, #0
	pop	{r3, pc}
	.cfi_endproc
.LFE1088:
	.size	usb_dc_wakeup_request, .-usb_dc_wakeup_request
	.section	.rodata.CSWTCH.6708,"a"
	.type	CSWTCH.6708, %object
	.size	CSWTCH.6708, 3
CSWTCH.6708:
	.byte	1
	.byte	0
	.byte	2
	.section	.rodata.usbevt_config.0,"a"
	.align	2
	.type	usbevt_config.0, %object
	.size	usbevt_config.0, 4
usbevt_config.0:
	.word	usb_dc_power_event_handler
	.section	.rodata.power_config.1,"a"
	.type	power_config.1, %object
	.size	power_config.1, 1
power_config.1:
	.byte	1
	.section	.z_init_POST_KERNEL50_0_,"a"
	.align	2
	.type	__init_usb_init, %object
	.size	__init_usb_init, 8
__init_usb_init:
	.word	usb_init
	.word	0
	.section	.intList,"aw"
	.align	2
	.type	__isr_nrfx_isr_irq_1.2, %object
	.size	__isr_nrfx_isr_irq_1.2, 16
__isr_nrfx_isr_irq_1.2:
	.word	39
	.word	0
	.word	nrfx_isr
	.word	nrfx_usbd_irq_handler
	.section	.bss.usbd_ctx,"aw",%nobits
	.align	2
	.type	usbd_ctx, %object
	.size	usbd_ctx, 656
usbd_ctx:
	.space	656
	.section	.noinit."WEST_TOPDIR/zephyr/drivers/usb/device/usb_dc_nrfx.c".0,"aw"
	.align	3
	.type	usbd_work_queue_stack, %object
	.size	usbd_work_queue_stack, 1024
usbd_work_queue_stack:
	.space	1024
	.section	.bss.usbd_work_queue,"aw",%nobits
	.align	3
	.type	usbd_work_queue, %object
	.size	usbd_work_queue, 232
usbd_work_queue:
	.space	232
	.global	usbd_evt_fifo
	.section	._k_fifo.static.usbd_evt_fifo_,"aw"
	.align	2
	.type	usbd_evt_fifo, %object
	.size	usbd_evt_fifo, 24
usbd_evt_fifo:
	.word	0
	.word	0
	.word	usbd_evt_fifo+8
	.word	usbd_evt_fifo+8
	.word	usbd_evt_fifo+16
	.word	usbd_evt_fifo+16
	.section	.bss.ep_isoout_bufs,"aw",%nobits
	.align	2
	.type	ep_isoout_bufs, %object
	.size	ep_isoout_bufs, 1024
ep_isoout_bufs:
	.space	1024
	.section	.bss.ep_out_bufs,"aw",%nobits
	.align	2
	.type	ep_out_bufs, %object
	.size	ep_out_bufs, 512
ep_out_bufs:
	.space	512
	.global	fifo_elem_slab
	.section	._k_mem_slab.static.fifo_elem_slab_,"aw"
	.align	2
	.type	fifo_elem_slab, %object
	.size	fifo_elem_slab, 28
fifo_elem_slab:
	.word	fifo_elem_slab
	.word	fifo_elem_slab
	.word	_k_mem_slab_buf_fifo_elem_slab
	.word	0
	.word	32
	.word	20
	.word	0
	.global	_k_mem_slab_buf_fifo_elem_slab
	.section	.noinit."WEST_TOPDIR/zephyr/drivers/usb/device/usb_dc_nrfx.c".k_mem_slab_buf_fifo_elem_slab,"aw"
	.align	2
	.type	_k_mem_slab_buf_fifo_elem_slab, %object
	.size	_k_mem_slab_buf_fifo_elem_slab, 640
_k_mem_slab_buf_fifo_elem_slab:
	.space	640
	.text
.Letext0:
	.file 13 "/home/g/zephyr-sdk-0.16.3/arm-zephyr-eabi/picolibc/include/machine/_default_types.h"
	.file 14 "/home/g/zephyr-sdk-0.16.3/arm-zephyr-eabi/picolibc/include/sys/_stdint.h"
	.file 15 "/home/g/zephyr-sdk-0.16.3/arm-zephyr-eabi/lib/gcc/arm-zephyr-eabi/12.2.0/include/stddef.h"
	.file 16 "/home/g/mise-work/zmk-firmware/zmk/modules/hal/nordic/nrfx/mdk/nrf52840.h"
	.file 17 "/home/g/mise-work/zmk-firmware/zmk/zephyr/include/zephyr/sys/atomic.h"
	.file 18 "/home/g/mise-work/zmk-firmware/zmk/zephyr/include/zephyr/sys/arch_interface.h"
	.file 19 "/home/g/mise-work/zmk-firmware/zmk/zephyr/include/zephyr/kernel/thread_stack.h"
	.file 20 "/home/g/mise-work/zmk-firmware/zmk/zephyr/include/zephyr/sys/dlist.h"
	.file 21 "/home/g/mise-work/zmk-firmware/zmk/zephyr/include/zephyr/sys/rb.h"
	.file 22 "/home/g/mise-work/zmk-firmware/zmk/zephyr/include/zephyr/sys/sys_heap.h"
	.file 23 "/home/g/mise-work/zmk-firmware/zmk/zephyr/include/zephyr/sys/slist.h"
	.file 24 "/home/g/mise-work/zmk-firmware/zmk/zephyr/include/zephyr/kernel/thread.h"
	.file 25 "/home/g/mise-work/zmk-firmware/zmk/zephyr/include/zephyr/kernel_structs.h"
	.file 26 "/home/g/mise-work/zmk-firmware/zmk/zephyr/include/zephyr/arch/arm/thread.h"
	.file 27 "/home/g/mise-work/zmk-firmware/zmk/zephyr/include/zephyr/sw_isr_table.h"
	.file 28 "/home/g/mise-work/zmk-firmware/zmk/modules/hal/nordic/nrfx/drivers/nrfx_errors.h"
	.file 29 "/home/g/mise-work/zmk-firmware/zmk/zephyr/include/zephyr/init.h"
	.file 30 "/home/g/mise-work/zmk-firmware/zmk/zephyr/include/zephyr/device.h"
	.file 31 "/home/g/mise-work/zmk-firmware/zmk/zephyr/include/zephyr/sys_clock.h"
	.file 32 "/home/g/mise-work/zmk-firmware/zmk/zephyr/include/zephyr/drivers/usb/usb_dc.h"
	.file 33 "/home/g/mise-work/zmk-firmware/zmk/zephyr/include/zephyr/logging/log_instance.h"
	.file 34 "/home/g/mise-work/zmk-firmware/zmk/zephyr/include/zephyr/sys/cbprintf.h"
	.file 35 "/home/g/mise-work/zmk-firmware/zmk/zephyr/include/zephyr/logging/log_msg.h"
	.file 36 "/home/g/mise-work/zmk-firmware/zmk/zephyr/include/zephyr/drivers/clock_control.h"
	.file 37 "/home/g/mise-work/zmk-firmware/zmk/zephyr/include/zephyr/drivers/clock_control/nrf_clock_control.h"
	.file 38 "/home/g/mise-work/zmk-firmware/zmk/modules/hal/nordic/nrfx/drivers/include/nrfx_usbd.h"
	.file 39 "/home/g/mise-work/zmk-firmware/zmk/zephyr/modules/hal_nordic/nrfx/./nrfx_glue.h"
	.file 40 "/home/g/mise-work/zmk-firmware/zmk/zephyr/include/zephyr/arch/arm/irq.h"
	.file 41 "<built-in>"
	.file 42 "/home/g/mise-work/zmk-firmware/zmk/zephyr/include/zephyr/spinlock.h"