	.cpu cortex-m4
	.arch armv7e-m
	.fpu fpv4-sp-d16
	.eabi_attribute 27, 1
	.eabi_attribute 28, 1
	.eabi_attribute 20, 1
	.eabi_attribute 21, 1
	.eabi_attribute 23, 3
	.eabi_attribute 24, 1
	.eabi_attribute 25, 1
	.eabi_attribute 26, 1
	.eabi_attribute 30, 2
	.eabi_attribute 34, 1
	.eabi_attribute 38, 1
	.eabi_attribute 18, 4
	.file	"soc_flash_nrf_ticker.c"
	.text
.Ltext0:
	.cfi_sections	.debug_frame
	.file 1 "/home/g/mise-work/zmk-firmware/zmk/zephyr/subsys/bluetooth/controller/flash/soc_flash_nrf_ticker.c"
	.section	.text.time_slot_callback_work,"ax",%progbits
	.align	1
	.p2align 2,,3
	.syntax unified
	.thumb
	.thumb_func
	.type	time_slot_callback_work, %function
time_slot_callback_work:
.LVL0:
.LFB475:
	.loc 1 76 1 view -0
	.cfi_startproc
	@ args = 8, pretend = 0, frame = 8
	@ frame_needed = 0, uses_anonymous_args = 0
	.loc 1 77 2 view .LVU1
	.loc 1 78 2 view .LVU2
	.loc 1 80 4 view .LVU3
	.loc 1 81 44 view .LVU4
	.loc 1 83 2 view .LVU5
	.loc 1 76 1 is_stmt 0 view .LVU6
	push	{r4, lr}
	.cfi_def_cfa_offset 8
	.cfi_offset 4, -8
	.cfi_offset 14, -4
	sub	sp, sp, #16
	.cfi_def_cfa_offset 24
	.loc 1 76 1 view .LVU7
	ldr	r3, [sp, #28]
.LVL1:
	.loc 1 84 2 is_stmt 1 view .LVU8
	.loc 1 84 7 is_stmt 0 view .LVU9
	ldrd	r2, r0, [r3]
.LVL2:
	.loc 1 84 7 view .LVU10
	blx	r2
.LVL3:
	.loc 1 85 2 is_stmt 1 view .LVU11
	.loc 1 85 5 is_stmt 0 view .LVU12
	cmp	r0, #1
	beq	.L1
.LBB9:
	.loc 1 86 3 is_stmt 1 view .LVU13
	.loc 1 87 3 view .LVU14
	.loc 1 88 3 view .LVU15
	.loc 1 91 3 view .LVU16
	mov	r4, r0
	add	r1, sp, #15
	add	r0, sp, #14
.LVL4:
	.loc 1 91 3 is_stmt 0 view .LVU17
	bl	ll_timeslice_ticker_id_get
.LVL5:
	.loc 1 94 3 is_stmt 1 view .LVU18
	.loc 1 94 9 is_stmt 0 view .LVU19
	movs	r1, #0
	ldr	r3, .L8
	str	r1, [sp]
	ldrb	r2, [sp, #15]	@ zero_extendqisi2
	ldrb	r0, [sp, #14]	@ zero_extendqisi2
	movs	r1, #1
	bl	ticker_stop
.LVL6:
	.loc 1 96 5 is_stmt 1 view .LVU20
	.loc 1 98 32 view .LVU21
	.loc 1 100 3 view .LVU22
	.loc 1 100 31 is_stmt 0 view .LVU23
	ldr	r3, .L8+4
	str	r4, [r3, #12]
.LVL7:
.L1:
	.loc 1 100 31 view .LVU24
.LBE9:
	.loc 1 102 1 view .LVU25
	add	sp, sp, #16
	.cfi_def_cfa_offset 8
	@ sp needed
	pop	{r4, pc}
.LVL8:
.L9:
	.loc 1 102 1 view .LVU26
	.align	2
.L8:
	.word	ticker_stop_prepare_cb
	.word	_ticker_sync_context
	.cfi_endproc
.LFE475:
	.size	time_slot_callback_work, .-time_slot_callback_work
	.section	.text.ticker_stop_prepare_cb,"ax",%progbits
	.align	1
	.p2align 2,,3
	.syntax unified
	.thumb
	.thumb_func
	.type	ticker_stop_prepare_cb, %function
ticker_stop_prepare_cb:
.LVL9:
.LFB474:
	.loc 1 52 1 is_stmt 1 view -0
	.cfi_startproc
	@ args = 0, pretend = 0, frame = 8
	@ frame_needed = 0, uses_anonymous_args = 0
	.loc 1 53 2 view .LVU28
	.loc 1 54 2 view .LVU29
	.loc 1 55 2 view .LVU30
	.loc 1 57 4 view .LVU31
	.loc 1 58 39 view .LVU32
	.loc 1 61 2 view .LVU33
	.loc 1 52 1 is_stmt 0 view .LVU34
	push	{lr}
	.cfi_def_cfa_offset 4
	.cfi_offset 14, -4
	sub	sp, sp, #20
	.cfi_def_cfa_offset 24
	.loc 1 61 2 view .LVU35
	add	r1, sp, #15
.LVL10:
	.loc 1 61 2 view .LVU36
	add	r0, sp, #14
.LVL11:
	.loc 1 61 2 view .LVU37
	bl	ll_timeslice_ticker_id_get
.LVL12:
	.loc 1 64 2 is_stmt 1 view .LVU38
	.loc 1 64 8 is_stmt 0 view .LVU39
	ldrb	r2, [sp, #15]	@ zero_extendqisi2
	ldr	r3, .L12
	ldrb	r0, [sp, #14]	@ zero_extendqisi2
	movs	r1, #0
	adds	r2, r2, #1
	str	r1, [sp]
	uxtb	r2, r2
	movs	r1, #2
	bl	ticker_stop
.LVL13:
	.loc 1 66 4 is_stmt 1 view .LVU40
	.loc 1 68 51 view .LVU41
	.loc 1 69 1 is_stmt 0 view .LVU42
	add	sp, sp, #20
	.cfi_def_cfa_offset 4
	@ sp needed
	ldr	pc, [sp], #4
.L13:
	.align	2
.L12:
	.word	ticker_stop_work_cb
	.cfi_endproc
.LFE474:
	.size	ticker_stop_prepare_cb, .-ticker_stop_prepare_cb
	.section	.text.time_slot_delay,"ax",%progbits
	.align	1
	.p2align 2,,3
	.syntax unified
	.thumb
	.thumb_func
	.type	time_slot_delay, %function
time_slot_delay:
.LVL14:
.LFB476:
	.loc 1 106 1 is_stmt 1 view -0
	.cfi_startproc
	@ args = 0, pretend = 0, frame = 8
	@ frame_needed = 0, uses_anonymous_args = 0
	.loc 1 107 2 view .LVU44
	.loc 1 108 2 view .LVU45
	.loc 1 109 2 view .LVU46
	.loc 1 112 2 view .LVU47
	.loc 1 106 1 is_stmt 0 view .LVU48
	push	{r4, r5, r6, r7, lr}
	.cfi_def_cfa_offset 20
	.cfi_offset 4, -20
	.cfi_offset 5, -16
	.cfi_offset 6, -12
	.cfi_offset 7, -8
	.cfi_offset 14, -4
	sub	sp, sp, #52
	.cfi_def_cfa_offset 72
	.loc 1 106 1 view .LVU49
	mov	r6, r1
	mov	r5, r0
	.loc 1 112 2 view .LVU50
	add	r1, sp, #47
.LVL15:
	.loc 1 112 2 view .LVU51
	add	r0, sp, #46
.LVL16:
	.loc 1 106 1 view .LVU52
	mov	r4, r3
	mov	r7, r2
	.loc 1 112 2 view .LVU53
	bl	ll_timeslice_ticker_id_get
.LVL17:
	.loc 1 118 2 is_stmt 1 view .LVU54
	.loc 1 118 8 is_stmt 0 view .LVU55
	ldrb	ip, [sp, #47]	@ zero_extendqisi2
	str	r4, [sp, #24]
	add	ip, ip, #1
	movs	r4, #0
.LVL18:
	.loc 1 118 8 view .LVU56
	strd	r4, r4, [sp, #28]
	strd	r4, r4, [sp, #12]
	strd	r4, r4, [sp, #4]
	ldrb	r0, [sp, #46]	@ zero_extendqisi2
	str	r7, [sp, #20]
	str	r6, [sp]
	mov	r3, r5
	uxtb	r2, ip
	movs	r1, #1
	bl	ticker_start
.LVL19:
	.loc 1 134 2 is_stmt 1 view .LVU57
	.loc 1 134 5 is_stmt 0 view .LVU58
	tst	r0, #253
	beq	.L14
	.loc 1 136 3 is_stmt 1 view .LVU59
	.loc 1 136 31 is_stmt 0 view .LVU60
	ldr	r0, .L20
.LVL20:
	.loc 1 139 9 view .LVU61
	str	r4, [sp]
	ldr	r3, .L20+4
	.loc 1 136 31 view .LVU62
	str	r4, [r0, #12]
	.loc 1 139 3 is_stmt 1 view .LVU63
	.loc 1 139 9 is_stmt 0 view .LVU64
	ldrb	r2, [sp, #47]	@ zero_extendqisi2
	ldrb	r0, [sp, #46]	@ zero_extendqisi2
	movs	r1, #1
	bl	ticker_stop
.LVL21:
	.loc 1 141 5 is_stmt 1 view .LVU65
	.loc 1 143 32 view .LVU66
.L14:
	.loc 1 145 1 is_stmt 0 view .LVU67
	add	sp, sp, #52
	.cfi_def_cfa_offset 20
	@ sp needed
	pop	{r4, r5, r6, r7, pc}
.LVL22:
.L21:
	.loc 1 145 1 view .LVU68
	.align	2
.L20:
	.word	_ticker_sync_context
	.word	ticker_stop_prepare_cb
	.cfi_endproc
.LFE476:
	.size	time_slot_delay, .-time_slot_delay
	.section	.text.time_slot_callback_prepare,"ax",%progbits
	.align	1
	.p2align 2,,3
	.syntax unified
	.thumb
	.thumb_func
	.type	time_slot_callback_prepare, %function
time_slot_callback_prepare:
.LVL23:
.LFB478:
	.loc 1 165 1 is_stmt 1 view -0
	.cfi_startproc
	@ args = 8, pretend = 0, frame = 0
	@ frame_needed = 0, uses_anonymous_args = 0
	@ link register save eliminated.
	.loc 1 170 2 view .LVU70
	ldr	r3, [sp, #4]
.LVL24:
	.loc 1 170 2 is_stmt 0 view .LVU71
	ldr	r2, .L23
.LVL25:
	.loc 1 170 2 view .LVU72
	movs	r1, #49
.LVL26:
	.loc 1 170 2 view .LVU73
	b	time_slot_delay
.LVL27:
.L24:
	.loc 1 170 2 view .LVU74
	.align	2
.L23:
	.word	time_slot_callback_abort
	.cfi_endproc
.LFE478:
	.size	time_slot_callback_prepare, .-time_slot_callback_prepare
	.section	.text.time_slot_callback_abort,"ax",%progbits
	.align	1
	.p2align 2,,3
	.syntax unified
	.thumb
	.thumb_func
	.type	time_slot_callback_abort, %function
time_slot_callback_abort:
.LVL28:
.LFB477:
	.loc 1 152 1 is_stmt 1 view -0
	.cfi_startproc
	@ args = 8, pretend = 0, frame = 0
	@ frame_needed = 0, uses_anonymous_args = 0
	.loc 1 153 2 view .LVU76
	.loc 1 152 1 is_stmt 0 view .LVU77
	push	{r4, r5, r6, lr}
	.cfi_def_cfa_offset 16
	.cfi_offset 4, -16
	.cfi_offset 5, -12
	.cfi_offset 6, -8
	.cfi_offset 14, -4
	.loc 1 152 1 view .LVU78
	ldr	r5, [sp, #20]
	mov	r4, r0
	.loc 1 153 2 view .LVU79
	bl	ll_radio_state_abort
.LVL29:
	.loc 1 154 2 is_stmt 1 view .LVU80
	mov	r3, r5
	mov	r0, r4
	ldr	r2, .L27
	.loc 1 158 1 is_stmt 0 view .LVU81
	pop	{r4, r5, r6, lr}
	.cfi_restore 14
	.cfi_restore 6
	.cfi_restore 5
	.cfi_restore 4
	.cfi_def_cfa_offset 0
.LVL30:
	.loc 1 154 2 view .LVU82
	movs	r1, #6
	b	time_slot_delay
.LVL31:
.L28:
	.loc 1 154 2 view .LVU83
	.align	2
.L27:
	.word	time_slot_callback_work
	.cfi_endproc
.LFE477:
	.size	time_slot_callback_abort, .-time_slot_callback_abort
	.section	.text.ticker_stop_work_cb,"ax",%progbits
	.align	1
	.p2align 2,,3
	.syntax unified
	.thumb
	.thumb_func
	.type	ticker_stop_work_cb, %function
ticker_stop_work_cb:
.LVL32:
.LFB473:
	.loc 1 42 1 is_stmt 1 view -0
	.cfi_startproc
	@ args = 0, pretend = 0, frame = 0
	@ frame_needed = 0, uses_anonymous_args = 0
	@ link register save eliminated.
	.loc 1 43 4 view .LVU85
	.loc 1 45 53 view .LVU86
	.loc 1 48 2 view .LVU87
.LBB10:
.LBI10:
	.file 2 "/home/g/mise-work/zmk-firmware/zmk/app/build/zephyr/include/generated/syscalls/kernel.h"
	.loc 2 1110 20 view .LVU88
.LBB11:
	.loc 2 1119 2 view .LVU89
	.loc 2 1119 7 view .LVU90
	.loc 2 1119 5 view .LVU91
	.loc 2 1120 2 view .LVU92
	ldr	r0, .L30
.LVL33:
	.loc 2 1120 2 is_stmt 0 view .LVU93
	b	z_impl_k_sem_give
.LVL34:
.L31:
	.loc 2 1120 2 view .LVU94
	.align	2
.L30:
	.word	sem_sync
.LBE11:
.LBE10:
	.cfi_endproc
.LFE473:
	.size	ticker_stop_work_cb, .-ticker_stop_work_cb
	.section	.text.nrf_flash_sync_init,"ax",%progbits
	.align	1
	.p2align 2,,3
	.global	nrf_flash_sync_init
	.syntax unified
	.thumb
	.thumb_func
	.type	nrf_flash_sync_init, %function
nrf_flash_sync_init:
.LFB479:
	.loc 1 179 1 is_stmt 1 view -0
	.cfi_startproc
	@ args = 0, pretend = 0, frame = 0
	@ frame_needed = 0, uses_anonymous_args = 0
	.loc 1 180 2 view .LVU96
.LVL35:
.LBB12:
.LBI12:
	.loc 2 1075 19 view .LVU97
.LBB13:
	.loc 2 1085 2 view .LVU98
	.loc 2 1085 7 view .LVU99
.LBE13:
.LBE12:
	.loc 1 179 1 is_stmt 0 view .LVU100
	push	{r3, lr}
	.cfi_def_cfa_offset 8
	.cfi_offset 3, -8
	.cfi_offset 14, -4
.LBB15:
.LBB14:
	.loc 2 1085 7 view .LVU101
	.loc 2 1085 5 is_stmt 1 view .LVU102
	.loc 2 1086 2 view .LVU103
	.loc 2 1086 9 is_stmt 0 view .LVU104
	movs	r2, #1
	movs	r1, #0
	ldr	r0, .L34
	bl	z_impl_k_sem_init
.LVL36:
	.loc 2 1086 9 view .LVU105
.LBE14:
.LBE15:
	.loc 1 181 2 is_stmt 1 view .LVU106
	.loc 1 182 1 is_stmt 0 view .LVU107
	movs	r0, #0
	pop	{r3, pc}
.L35:
	.align	2
.L34:
	.word	sem_sync
	.cfi_endproc
.LFE479:
	.size	nrf_flash_sync_init, .-nrf_flash_sync_init
	.section	.text.nrf_flash_sync_set_context,"ax",%progbits
	.align	1
	.p2align 2,,3
	.global	nrf_flash_sync_set_context
	.syntax unified
	.thumb
	.thumb_func
	.type	nrf_flash_sync_set_context, %function
nrf_flash_sync_set_context:
.LVL37:
.LFB480:
	.loc 1 185 1 is_stmt 1 view -0
	.cfi_startproc
	@ args = 0, pretend = 0, frame = 0
	@ frame_needed = 0, uses_anonymous_args = 0
	@ link register save eliminated.
	.loc 1 189 2 view .LVU109
	.loc 1 189 32 is_stmt 0 view .LVU110
	ldr	r3, .L37
	.loc 1 189 43 view .LVU111
	subw	r2, r0, #1700
	.loc 1 190 28 view .LVU112
	strd	r2, r0, [r3]
	.loc 1 191 1 view .LVU113
	bx	lr
.L38:
	.align	2
.L37:
	.word	_ticker_sync_context
	.cfi_endproc
.LFE480:
	.size	nrf_flash_sync_set_context, .-nrf_flash_sync_set_context
	.global	__aeabi_uldivmod
	.global	__aeabi_ldivmod
	.section	.text.nrf_flash_sync_exe,"ax",%progbits
	.align	1
	.p2align 2,,3
	.global	nrf_flash_sync_exe
	.syntax unified
	.thumb
	.thumb_func
	.type	nrf_flash_sync_exe, %function
nrf_flash_sync_exe:
.LVL38:
.LFB481:
	.loc 1 194 1 is_stmt 1 view -0
	.cfi_startproc
	@ args = 0, pretend = 0, frame = 16
	@ frame_needed = 0, uses_anonymous_args = 0
	.loc 1 195 2 view .LVU115
	.loc 1 196 2 view .LVU116
	.loc 1 197 2 view .LVU117
	.loc 1 198 2 view .LVU118
	.loc 1 201 2 view .LVU119
	.loc 1 194 1 is_stmt 0 view .LVU120
	push	{r4, r5, r6, r7, r8, r9, r10, fp, lr}
	.cfi_def_cfa_offset 36
	.cfi_offset 4, -36
	.cfi_offset 5, -32
	.cfi_offset 6, -28
	.cfi_offset 7, -24
	.cfi_offset 8, -20
	.cfi_offset 9, -16
	.cfi_offset 10, -12
	.cfi_offset 11, -8
	.cfi_offset 14, -4
	sub	sp, sp, #60
	.cfi_def_cfa_offset 96
	.loc 1 201 2 view .LVU121
	add	r1, sp, #55
	.loc 1 194 1 view .LVU122
	mov	r4, r0
	.loc 1 211 54 view .LVU123
	ldr	r10, .L46+24
	.loc 1 211 65 view .LVU124
	ldr	r8, .L46+28
	.loc 1 201 2 view .LVU125
	add	r0, sp, #54
.LVL39:
	.loc 1 201 2 view .LVU126
	bl	ll_timeslice_ticker_id_get
.LVL40:
	.loc 1 204 2 is_stmt 1 view .LVU127
	.loc 1 204 8 is_stmt 0 view .LVU128
	ldrb	r3, [sp, #54]	@ zero_extendqisi2
	ldrb	fp, [sp, #55]	@ zero_extendqisi2
	str	r3, [sp, #44]
	bl	ticker_ticks_now_get
.LVL41:
	.loc 1 211 65 view .LVU129
	ldr	r6, [r10]
	umull	r5, r6, r6, r8
	.loc 1 211 81 view .LVU130
	adr	r3, .L46
	ldrd	r2, [r3]
	.loc 1 204 8 view .LVU131
	movs	r7, #0
	mov	r9, r0
	.loc 1 211 81 view .LVU132
	mov	r1, r6
	mov	r0, r5
	bl	__aeabi_uldivmod
.LVL42:
	.loc 1 204 8 view .LVU133
	strd	r7, r7, [sp, #28]
	str	r4, [sp, #24]
	.loc 1 214 74 view .LVU134
	bic	r4, r0, #-16777216
.LVL43:
	.loc 1 216 61 view .LVU135
	ldr	r0, [r10, #4]
	.loc 1 204 8 view .LVU136
	ldr	r3, .L46+8
	str	r3, [sp, #20]
	.loc 1 216 77 view .LVU137
	umull	r0, r1, r0, r8
	adr	r3, .L46
	ldrd	r2, [r3]
	bl	__aeabi_uldivmod
.LVL44:
	.loc 1 214 191 view .LVU138
	ldr	r3, .L46+12
	.loc 1 204 8 view .LVU139
	bic	r0, r0, #-16777216
	.loc 1 214 191 view .LVU140
	umull	r3, r1, r4, r3
	movs	r2, #7
	mla	r1, r2, r4, r1
	.loc 1 204 8 view .LVU141
	strd	r7, r0, [sp, #12]
	.loc 1 214 71 view .LVU142
	subs	r0, r5, r3
	.loc 1 214 210 view .LVU143
	sbc	r1, r6, r1
	mov	r2, #1000
	movs	r3, #0
	bl	__aeabi_uldivmod
.LVL45:
	.loc 1 204 8 view .LVU144
	str	r7, [sp]
	strd	r4, r0, [sp, #4]
	mov	r3, r9
	ldr	r0, [sp, #44]
	mov	r2, fp
	movs	r1, #3
	bl	ticker_start
.LVL46:
	.loc 1 222 2 is_stmt 1 view .LVU145
	.loc 1 222 5 is_stmt 0 view .LVU146
	ands	r4, r0, #253
	beq	.L44
	.loc 1 224 10 view .LVU147
	mvn	r0, #139
.LVL47:
	.loc 1 238 2 is_stmt 1 view .LVU148
.L39:
	.loc 1 239 1 is_stmt 0 view .LVU149
	add	sp, sp, #60
	.cfi_remember_state
	.cfi_def_cfa_offset 36
	@ sp needed
	pop	{r4, r5, r6, r7, r8, r9, r10, fp, pc}
.LVL48:
.L44:
	.cfi_restore_state
	.loc 1 225 9 is_stmt 1 view .LVU150
.LBB16:
.LBB17:
.LBI17:
	.loc 2 1093 19 view .LVU151
.LBB18:
	.loc 2 1102 2 view .LVU152
	.loc 2 1102 7 view .LVU153
	.loc 2 1102 5 view .LVU154
	.loc 2 1103 2 view .LVU155
	.loc 2 1103 9 is_stmt 0 view .LVU156
	ldr	r0, .L46+16
.LVL49:
	.loc 2 1103 9 view .LVU157
	ldr	r2, .L46+20
	movs	r3, #0
	bl	z_impl_k_sem_take
.LVL50:
	.loc 2 1103 9 view .LVU158
.LBE18:
.LBE17:
	.loc 1 225 12 view .LVU159
	cbnz	r0, .L45
	.loc 1 235 3 is_stmt 1 view .LVU160
	.loc 1 235 10 is_stmt 0 view .LVU161
	ldr	r0, [r10, #12]
.LVL51:
	.loc 1 235 10 view .LVU162
.LBE16:
	.loc 1 239 1 view .LVU163
	add	sp, sp, #60
	.cfi_remember_state
	.cfi_def_cfa_offset 36
	@ sp needed
	pop	{r4, r5, r6, r7, r8, r9, r10, fp, pc}
.LVL52:
.L45:
	.cfi_restore_state
.LBB19:
	.loc 1 227 3 is_stmt 1 view .LVU164
	.loc 1 227 9 is_stmt 0 view .LVU165
	ldrb	r2, [sp, #55]	@ zero_extendqisi2
	ldrb	r0, [sp, #54]	@ zero_extendqisi2
	str	r4, [sp]
	mov	r3, r4
	movs	r1, #3
	bl	ticker_stop
.LVL53:
	.loc 1 228 5 is_stmt 1 view .LVU166
	.loc 1 230 32 view .LVU167
	.loc 1 233 3 view .LVU168
	.loc 1 233 10 is_stmt 0 view .LVU169
	mvn	r0, #115
	b	.L39
.L47:
	.align	3
.L46:
	.word	452807053
	.word	7
	.word	time_slot_callback_prepare
	.word	452807053
	.word	sem_sync
	.word	752452
	.word	_ticker_sync_context
	.word	1000000000
.LBE19:
	.cfi_endproc
.LFE481:
	.size	nrf_flash_sync_exe, .-nrf_flash_sync_exe
	.section	.text.nrf_flash_sync_is_required,"ax",%progbits
	.align	1
	.p2align 2,,3
	.global	nrf_flash_sync_is_required
	.syntax unified
	.thumb
	.thumb_func
	.type	nrf_flash_sync_is_required, %function
nrf_flash_sync_is_required:
.LFB482:
	.loc 1 242 1 is_stmt 1 view -0
	.cfi_startproc
	@ args = 0, pretend = 0, frame = 0
	@ frame_needed = 0, uses_anonymous_args = 0
	@ link register save eliminated.
	.loc 1 243 2 view .LVU171
	.loc 1 243 9 is_stmt 0 view .LVU172
	movs	r0, #0
	b	ticker_is_initialized
.LVL54:
	.cfi_endproc
.LFE482:
	.size	nrf_flash_sync_is_required, .-nrf_flash_sync_is_required
	.section	.text.nrf_flash_sync_get_timestamp_begin,"ax",%progbits
	.align	1
	.p2align 2,,3
	.global	nrf_flash_sync_get_timestamp_begin
	.syntax unified
	.thumb
	.thumb_func
	.type	nrf_flash_sync_get_timestamp_begin, %function
nrf_flash_sync_get_timestamp_begin:
.LFB483:
	.loc 1 247 1 is_stmt 1 view -0
	.cfi_startproc
	@ args = 0, pretend = 0, frame = 0
	@ frame_needed = 0, uses_anonymous_args = 0
	.loc 1 248 2 view .LVU174
	.loc 1 247 1 is_stmt 0 view .LVU175
	push	{r3, lr}
	.cfi_def_cfa_offset 8
	.cfi_offset 3, -8
	.cfi_offset 14, -4
	.loc 1 248 37 view .LVU176
	bl	ticker_ticks_now_get
.LVL55:
	.loc 1 248 35 view .LVU177
	ldr	r3, .L51
	str	r0, [r3, #8]
	.loc 1 249 1 view .LVU178
	pop	{r3, pc}
.L52:
	.align	2
.L51:
	.word	_ticker_sync_context
	.cfi_endproc
.LFE483:
	.size	nrf_flash_sync_get_timestamp_begin, .-nrf_flash_sync_get_timestamp_begin
	.section	.text.nrf_flash_sync_check_time_limit,"ax",%progbits
	.align	1
	.p2align 2,,3
	.global	nrf_flash_sync_check_time_limit
	.syntax unified
	.thumb
	.thumb_func
	.type	nrf_flash_sync_check_time_limit, %function
nrf_flash_sync_check_time_limit:
.LVL56:
.LFB484:
	.loc 1 252 1 is_stmt 1 view -0
	.cfi_startproc
	@ args = 0, pretend = 0, frame = 0
	@ frame_needed = 0, uses_anonymous_args = 0
	.loc 1 253 2 view .LVU180
	.loc 1 255 2 view .LVU181
	.loc 1 252 1 is_stmt 0 view .LVU182
	push	{r3, r4, r5, lr}
	.cfi_def_cfa_offset 16
	.cfi_offset 3, -16
	.cfi_offset 4, -12
	.cfi_offset 5, -8
	.cfi_offset 14, -4
	.loc 1 255 15 view .LVU183
	ldr	r5, .L55+8
	.loc 1 252 1 view .LVU184
	mov	r4, r0
	.loc 1 255 15 view .LVU185
	bl	ticker_ticks_now_get
.LVL57:
	.loc 1 255 15 view .LVU186
	ldr	r1, [r5, #8]
	bl	ticker_ticks_diff_get
.LVL58:
	.loc 1 258 60 view .LVU187
	ldr	r1, [r5, #4]
	.loc 1 255 15 view .LVU188
	mov	r3, r0
.LVL59:
	.loc 1 257 2 is_stmt 1 view .LVU189
	.loc 1 258 60 is_stmt 0 view .LVU190
	ldr	r0, .L55+12
.LVL60:
	.loc 1 257 29 view .LVU191
	udiv	r4, r3, r4
.LVL61:
	.loc 1 258 76 view .LVU192
	umull	r0, r1, r1, r0
	.loc 1 257 17 view .LVU193
	add	r4, r4, r3
	.loc 1 258 76 view .LVU194
	adr	r3, .L55
	ldrd	r2, [r3]
	bl	__aeabi_uldivmod
.LVL62:
	.loc 1 258 94 view .LVU195
	bic	r0, r0, #-16777216
	.loc 1 263 1 view .LVU196
	cmp	r4, r0
	ite	ls
	movls	r0, #0
	movhi	r0, #1
	pop	{r3, r4, r5, pc}
.L56:
	.align	3
.L55:
	.word	452807053
	.word	7
	.word	_ticker_sync_context
	.word	1000000000
	.cfi_endproc
.LFE484:
	.size	nrf_flash_sync_check_time_limit, .-nrf_flash_sync_check_time_limit
	.section	.bss.sem_sync,"aw",%nobits
	.align	2
	.type	sem_sync, %object
	.size	sem_sync, 24
sem_sync:
	.space	24
	.section	.bss._ticker_sync_context,"aw",%nobits
	.align	2
	.type	_ticker_sync_context, %object
	.size	_ticker_sync_context, 16
_ticker_sync_context:
	.space	16
	.text
.Letext0:
	.file 3 "/home/g/zephyr-sdk-0.16.3/arm-zephyr-eabi/picolibc/include/machine/_default_types.h"
	.file 4 "/home/g/zephyr-sdk-0.16.3/arm-zephyr-eabi/picolibc/include/sys/_stdint.h"
	.file 5 "/home/g/mise-work/zmk-firmware/zmk/zephyr/include/zephyr/sys/dlist.h"
	.file 6 "/home/g/mise-work/zmk-firmware/zmk/zephyr/include/zephyr/kernel_structs.h"
	.file 7 "/home/g/mise-work/zmk-firmware/zmk/zephyr/include/zephyr/sys_clock.h"
	.file 8 "/home/g/mise-work/zmk-firmware/zmk/zephyr/include/zephyr/kernel.h"
	.file 9 "/home/g/mise-work/zmk-firmware/zmk/zephyr/include/zephyr/fatal_types.h"
	.file 10 "/home/g/mise-work/zmk-firmware/zmk/zephyr/subsys/bluetooth/controller/./ticker/ticker.h"
	.file 11 "/home/g/mise-work/zmk-firmware/zmk/zephyr/drivers/flash/soc_flash_nrf.h"
	.file 12 "/home/g/mise-work/zmk-firmware/zmk/zephyr/subsys/bluetooth/controller/include/ll.h"