	.cpu cortex-m4
	.arch armv7e-m
	.fpu fpv4-sp-d16
	.eabi_attribute 27, 1
	.eabi_attribute 28, 1
	.eabi_attribute 20, 1
	.eabi_attribute 21, 1
	.eabi_attribute 23, 3
	.eabi_attribute 24, 1
	.eabi_attribute 25, 1
	.eabi_attribute 26, 1
	.eabi_attribute 30, 4
	.eabi_attribute 34, 1
	.eabi_attribute 38, 1
	.eabi_attribute 18, 4
	.file	"adc_mcp320x.c"
	.text
.Ltext0:
	.cfi_sections	.debug_frame
	.file 1 "/home/g/mise-work/zmk-firmware/zmk/zephyr/drivers/adc/adc_mcp320x.c"
	.section	.text.k_sem_give,"ax",%progbits
	.align	1
	.syntax unified
	.thumb
	.thumb_func
	.type	k_sem_give, %function
k_sem_give:
.LVL0:
.LFB429:
	.file 2 "/home/g/mise-work/zmk-firmware/zmk/app/build/zephyr/include/generated/syscalls/kernel.h"
	.loc 2 1111 1 view -0
	.cfi_startproc
	@ args = 0, pretend = 0, frame = 0
	@ frame_needed = 0, uses_anonymous_args = 0
	@ link register save eliminated.
	.loc 2 1119 2 view .LVU1
	.loc 2 1119 7 view .LVU2
	.loc 2 1119 5 view .LVU3
	.loc 2 1120 2 view .LVU4
	b	z_impl_k_sem_give
.LVL1:
	.loc 2 1120 2 is_stmt 0 view .LVU5
	.cfi_endproc
.LFE429:
	.size	k_sem_give, .-k_sem_give
	.section	.text.adc_context_on_timer_expired,"ax",%progbits
	.align	1
	.syntax unified
	.thumb
	.thumb_func
	.type	adc_context_on_timer_expired, %function
adc_context_on_timer_expired:
.LVL2:
.LFB627:
	.file 3 "/home/g/mise-work/zmk-firmware/zmk/zephyr/drivers/adc/adc_context.h"
	.loc 3 129 1 is_stmt 1 view -0
	.cfi_startproc
	@ args = 0, pretend = 0, frame = 0
	@ frame_needed = 0, uses_anonymous_args = 0
	@ link register save eliminated.
	.loc 3 130 2 view .LVU7
	.loc 3 133 2 view .LVU8
.LBB553:
.LBI553:
	.loc 3 101 20 view .LVU9
.LBB554:
	.loc 3 103 2 view .LVU10
.LBB555:
.LBI555:
	.file 4 "/home/g/mise-work/zmk-firmware/zmk/zephyr/include/zephyr/sys/atomic_builtin.h"
	.loc 4 123 28 view .LVU11
	.loc 4 125 2 view .LVU12
.LBB556:
.LBI556:
	.loc 4 86 28 view .LVU13
.LBB557:
	.loc 4 88 2 view .LVU14
.LBE557:
.LBE556:
.LBE555:
.LBE554:
.LBE553:
	.loc 3 129 1 is_stmt 0 view .LVU15
	push	{r4}
	.cfi_def_cfa_offset 4
	.cfi_offset 4, -4
.LBB567:
.LBB565:
.LBB560:
.LBB559:
.LBB558:
	.loc 4 88 9 view .LVU16
	sub	r3, r0, #8
.LVL3:
	.loc 4 88 9 view .LVU17
	dmb	ish
.L4:
	ldrex	r2, [r3]
	adds	r1, r2, #1
	strex	r4, r1, [r3]
	cmp	r4, #0
	bne	.L4
	dmb	ish
.LVL4:
	.loc 4 88 9 view .LVU18
.LBE558:
.LBE559:
.LBE560:
	.loc 3 103 5 view .LVU19
	cbnz	r2, .L3
	.loc 3 104 3 is_stmt 1 view .LVU20
.LVL5:
.LBB561:
.LBI561:
	.loc 1 156 13 view .LVU21
.LBB562:
	.loc 1 158 2 view .LVU22
	.loc 1 160 2 view .LVU23
	.loc 1 160 17 is_stmt 0 view .LVU24
	ldr	r3, [r0, #112]
.LVL6:
	.loc 1 160 17 view .LVU25
	strb	r3, [r0, #164]
	.loc 1 161 2 is_stmt 1 view .LVU26
	.loc 1 161 22 is_stmt 0 view .LVU27
	ldr	r3, [r0, #156]
	str	r3, [r0, #160]
	.loc 1 163 2 is_stmt 1 view .LVU28
.LBE562:
.LBE561:
.LBE565:
.LBE567:
	.loc 3 134 1 is_stmt 0 view .LVU29
	ldr	r4, [sp], #4
	.cfi_remember_state
	.cfi_restore 4
	.cfi_def_cfa_offset 0
.LBB568:
.LBB566:
.LBB564:
.LBB563:
	.loc 1 163 2 view .LVU30
	add	r0, r0, #368
.LVL7:
	.loc 1 163 2 view .LVU31
	b	k_sem_give
.LVL8:
.L3:
	.cfi_restore_state
	.loc 1 163 2 view .LVU32
.LBE563:
.LBE564:
	.loc 3 113 3 is_stmt 1 view .LVU33
	.loc 3 113 15 is_stmt 0 view .LVU34
	mvn	r3, #15
.LVL9:
	.loc 3 113 15 view .LVU35
	str	r3, [r0, #104]
.LVL10:
	.loc 3 113 15 view .LVU36
.LBE566:
.LBE568:
	.loc 3 134 1 view .LVU37
	ldr	r4, [sp], #4
	.cfi_restore 4
	.cfi_def_cfa_offset 0
	bx	lr
	.cfi_endproc
.LFE627:
	.size	adc_context_on_timer_expired, .-adc_context_on_timer_expired
	.section	.rodata.mcp320x_init.str1.1,"aMS",%progbits,1
.LC0:
	.ascii	"SPI bus is not ready\000"
	.section	.text.mcp320x_init,"ax",%progbits
	.align	1
	.syntax unified
	.thumb
	.thumb_func
	.type	mcp320x_init, %function
mcp320x_init:
.LVL11:
.LFB644:
	.loc 1 269 1 is_stmt 1 view -0
	.cfi_startproc
	@ args = 0, pretend = 0, frame = 24
	@ frame_needed = 0, uses_anonymous_args = 0
	.loc 1 270 2 view .LVU39
	.loc 1 269 1 is_stmt 0 view .LVU40
	push	{r4, r5, lr}
	.cfi_def_cfa_offset 12
	.cfi_offset 4, -12
	.cfi_offset 5, -8
	.cfi_offset 14, -4
	.loc 1 271 23 view .LVU41
	ldr	r4, [r0, #16]
	.loc 1 270 31 view .LVU42
	ldr	r5, [r0, #4]
.LVL12:
	.loc 1 271 2 is_stmt 1 view .LVU43
	.loc 1 273 2 view .LVU44
	.loc 1 273 12 is_stmt 0 view .LVU45
	str	r0, [r4, #160]
.LVL13:
	.loc 1 275 2 is_stmt 1 view .LVU46
.LBB602:
.LBI602:
	.loc 2 1075 19 view .LVU47
.LBB603:
	.loc 2 1085 2 view .LVU48
	.loc 2 1085 7 view .LVU49
.LBE603:
.LBE602:
	.loc 1 269 1 is_stmt 0 view .LVU50
	sub	sp, sp, #60
	.cfi_def_cfa_offset 72
.LBB605:
.LBB604:
	.loc 2 1085 7 view .LVU51
	.loc 2 1085 5 is_stmt 1 view .LVU52
	.loc 2 1086 2 view .LVU53
	.loc 2 1086 9 is_stmt 0 view .LVU54
	movs	r2, #1
	movs	r1, #0
	add	r0, r4, #376
.LVL14:
	.loc 2 1086 9 view .LVU55
	bl	z_impl_k_sem_init
.LVL15:
	.loc 2 1086 9 view .LVU56
.LBE604:
.LBE605:
	.loc 1 277 2 is_stmt 1 view .LVU57
.LBB606:
.LBI606:
	.file 5 "/home/g/mise-work/zmk-firmware/zmk/zephyr/include/zephyr/drivers/spi.h"
	.loc 5 699 19 view .LVU58
.LBB607:
	.loc 5 702 2 view .LVU59
	.loc 5 702 27 is_stmt 0 view .LVU60
	ldr	r0, [r5]
.LVL16:
.LBB608:
.LBI608:
	.file 6 "/home/g/mise-work/zmk-firmware/zmk/app/build/zephyr/include/generated/syscalls/device.h"
	.loc 6 49 19 is_stmt 1 view .LVU61
.LBB609:
	.loc 6 57 2 view .LVU62
	.loc 6 57 7 view .LVU63
	.loc 6 57 5 view .LVU64
	.loc 6 58 2 view .LVU65
.LVL17:
.LBB610:
.LBI610:
	.file 7 "/home/g/mise-work/zmk-firmware/zmk/zephyr/include/zephyr/device.h"
	.loc 7 744 19 view .LVU66
.LBB611:
	.loc 7 746 2 view .LVU67
	.loc 7 746 9 is_stmt 0 view .LVU68
	bl	z_device_is_ready
.LVL18:
	.loc 7 746 9 view .LVU69
.LBE611:
.LBE610:
.LBE609:
.LBE608:
	.loc 5 702 5 view .LVU70
	cbnz	r0, .L6
.L9:
.LVL19:
	.loc 5 702 5 view .LVU71
.LBE607:
.LBE606:
	.loc 1 278 3 is_stmt 1 view .LVU72
.LBB621:
	.loc 1 278 8 view .LVU73
	.loc 1 278 57 view .LVU74
	.loc 1 278 14 view .LVU75
	.loc 1 278 2 view .LVU76
	.loc 1 278 41 view .LVU77
	.loc 1 278 176 view .LVU78
	.loc 1 278 187 view .LVU79
	.loc 1 278 275 view .LVU80
	.loc 1 278 3 view .LVU81
	.loc 1 278 3 view .LVU82
.LBB622:
	.loc 1 278 8 view .LVU83
	.loc 1 278 2 view .LVU84
.LBE622:
.LBE621:
	.loc 1 278 3 view .LVU85
	.loc 1 278 12 view .LVU86
	.loc 1 278 107 view .LVU87
	.loc 1 278 3 view .LVU88
.LBB639:
.LBB635:
	.loc 1 278 12 view .LVU89
	.loc 1 278 102 view .LVU90
	.loc 1 278 104 view .LVU91
.LBB623:
	.loc 1 278 109 view .LVU92
	.loc 1 278 120 view .LVU93
	.loc 1 278 209 view .LVU94
	.loc 1 278 26 view .LVU95
.LBE623:
.LBE635:
.LBE639:
	.loc 1 278 3 view .LVU96
	.loc 1 278 368 view .LVU97
	.loc 1 278 75 view .LVU98
	.loc 1 278 2 view .LVU99
	.loc 1 278 2 view .LVU100
	.loc 1 278 2 view .LVU101
	.loc 1 278 38 view .LVU102
	.loc 1 278 4 view .LVU103
	.loc 1 278 30 view .LVU104
	.loc 1 278 56 view .LVU105
	.loc 1 278 79 view .LVU106
	.loc 1 278 141 view .LVU107
	.loc 1 278 198 view .LVU108
	.loc 1 278 263 view .LVU109
	.loc 1 278 288 view .LVU110
	.loc 1 278 289 view .LVU111
	.loc 1 278 291 view .LVU112
	.loc 1 278 321 view .LVU113
	.loc 1 278 351 view .LVU114
	.loc 1 278 383 view .LVU115
	.loc 1 278 415 view .LVU116
	.loc 1 278 447 view .LVU117
	.loc 1 278 644 view .LVU118
	.loc 1 278 668 view .LVU119
	.loc 1 278 669 view .LVU120
	.loc 1 278 671 view .LVU121
	.loc 1 278 700 view .LVU122
	.loc 1 278 729 view .LVU123
	.loc 1 278 760 view .LVU124
	.loc 1 278 791 view .LVU125
	.loc 1 278 822 view .LVU126
	.loc 1 278 1029 view .LVU127
	.loc 1 278 4 view .LVU128
	.loc 1 278 22 view .LVU129
	.loc 1 278 42 view .LVU130
	.loc 1 278 4 view .LVU131
	.loc 1 278 42 view .LVU132
	.loc 1 278 13 view .LVU133
	.loc 1 278 13 view .LVU134
	.loc 1 278 61 view .LVU135
	.loc 1 278 92 view .LVU136
	.loc 1 278 126 view .LVU137
	.loc 1 278 131 view .LVU138
	.loc 1 278 375 view .LVU139
	.loc 1 278 1404 view .LVU140
	.loc 1 278 1469 view .LVU141
	.loc 1 278 1493 view .LVU142
	.loc 1 278 1541 view .LVU143
	.loc 1 278 1552 view .LVU144
	.loc 1 278 1658 view .LVU145
	.loc 1 278 1674 view .LVU146
	.loc 1 278 1714 view .LVU147
	.loc 1 278 1739 view .LVU148
	.loc 1 278 3016 view .LVU149
	.loc 1 278 3057 view .LVU150
	.loc 1 278 7 view .LVU151
	.loc 1 278 30 view .LVU152
	.loc 1 278 129 view .LVU153
	.loc 1 278 5 view .LVU154
	.loc 1 278 28 view .LVU155
	.loc 1 278 52 view .LVU156
	.loc 1 278 80 view .LVU157
	.loc 1 278 256 view .LVU158
	.loc 1 278 16 view .LVU159
.LBB640:
.LBB636:
.LBB632:
	.loc 1 278 29 view .LVU160
	.loc 1 278 3 view .LVU161
	.loc 1 278 3 view .LVU162
	.loc 1 278 70 view .LVU163
	.loc 1 278 74 view .LVU164
	.loc 1 278 484 view .LVU165
	.loc 1 278 5 view .LVU166
	.loc 1 278 7 view .LVU167
	.loc 1 278 12 view .LVU168
	.loc 1 278 10 view .LVU169
	.loc 1 278 5 view .LVU170
	.loc 1 278 23 view .LVU171
.LBB624:
	.loc 1 278 3 view .LVU172
	.loc 1 278 368 view .LVU173
	.loc 1 278 75 view .LVU174
.LVL20:
	.loc 1 278 2 view .LVU175
	.loc 1 278 2 view .LVU176
	.loc 1 278 2 view .LVU177
	.loc 1 278 38 view .LVU178
	.loc 1 278 67 view .LVU179
	.loc 1 278 93 view .LVU180
	.loc 1 278 119 view .LVU181
	.loc 1 278 142 view .LVU182
	.loc 1 278 204 view .LVU183
	.loc 1 278 261 view .LVU184
	.loc 1 278 326 view .LVU185
	.loc 1 278 351 view .LVU186
	.loc 1 278 352 view .LVU187
	.loc 1 278 354 view .LVU188
	.loc 1 278 384 view .LVU189
	.loc 1 278 414 view .LVU190
	.loc 1 278 446 view .LVU191
	.loc 1 278 478 view .LVU192
	.loc 1 278 510 view .LVU193
	.loc 1 278 707 view .LVU194
	.loc 1 278 731 view .LVU195
	.loc 1 278 732 view .LVU196
	.loc 1 278 734 view .LVU197
	.loc 1 278 763 view .LVU198
	.loc 1 278 792 view .LVU199
	.loc 1 278 823 view .LVU200
	.loc 1 278 854 view .LVU201
	.loc 1 278 885 view .LVU202
	.loc 1 278 1092 view .LVU203
	.loc 1 278 4 view .LVU204
	.loc 1 278 22 view .LVU205
	.loc 1 278 42 view .LVU206
	.loc 1 278 4 view .LVU207
	.loc 1 278 42 view .LVU208
	.loc 1 278 13 view .LVU209
	.loc 1 278 13 view .LVU210
	.loc 1 278 61 view .LVU211
	.loc 1 278 92 view .LVU212
	.loc 1 278 126 view .LVU213
.LBB625:
	.loc 1 278 131 view .LVU214
	.loc 1 278 375 view .LVU215
	.loc 1 278 1404 view .LVU216
	.loc 1 278 1469 view .LVU217
.LBE625:
.LBE624:
.LBE632:
.LBE636:
.LBE640:
	.loc 1 278 1493 view .LVU218
	.loc 1 278 1541 view .LVU219
	.loc 1 278 1552 view .LVU220
	.loc 1 278 1658 view .LVU221
.LBB641:
.LBB637:
.LBB633:
.LBB628:
.LBB626:
	.loc 1 278 1674 view .LVU222
	.loc 1 278 1714 view .LVU223
	.loc 1 278 1739 view .LVU224
	.loc 1 278 3016 view .LVU225
	.loc 1 278 3054 view .LVU226
	.loc 1 278 3059 view .LVU227
	.loc 1 278 3617 view .LVU228
	.loc 1 278 0 is_stmt 0 view .LVU229
	ldr	r3, .L17
	str	r3, [sp, #52]
	.loc 1 278 3057 is_stmt 1 view .LVU230
	.loc 1 278 7 view .LVU231
.LVL21:
	.loc 1 278 30 view .LVU232
	.loc 1 278 30 is_stmt 0 view .LVU233
.LBE626:
	.loc 1 278 129 is_stmt 1 view .LVU234
	.loc 1 278 5 view .LVU235
	.loc 1 278 28 view .LVU236
	.loc 1 278 52 view .LVU237
	.loc 1 278 80 view .LVU238
.LBE628:
.LBE633:
.LBE637:
.LBE641:
	.loc 1 278 6 view .LVU239
	.loc 1 278 45 view .LVU240
	.loc 1 278 50 view .LVU241
	.loc 1 278 80 view .LVU242
	.loc 1 278 147 view .LVU243
	.loc 1 278 152 view .LVU244
	.loc 1 278 182 view .LVU245
.LBB642:
.LBB638:
.LBB634:
.LBB629:
	.loc 1 278 256 view .LVU246
	.loc 1 278 16 view .LVU247
.LBB627:
	.loc 1 278 6 view .LVU248
	.loc 1 278 164 view .LVU249
	.loc 1 278 166 view .LVU250
	.loc 1 278 176 is_stmt 0 view .LVU251
	movs	r3, #2
	str	r3, [sp, #48]
.LVL22:
	.loc 1 278 176 view .LVU252
.LBE627:
.LBE629:
	.loc 1 278 26 is_stmt 1 view .LVU253
	.loc 1 278 7 view .LVU254
	.loc 1 278 147 view .LVU255
	.loc 1 278 149 view .LVU256
.LBB630:
.LBI630:
	.file 8 "/home/g/mise-work/zmk-firmware/zmk/app/build/zephyr/include/generated/syscalls/log_msg.h"
	.loc 8 26 20 view .LVU257
.LBB631:
	.loc 8 38 2 view .LVU258
	.loc 8 38 7 view .LVU259
	.loc 8 38 5 view .LVU260
	.loc 8 39 2 view .LVU261
	ldr	r0, .L17+4
	movs	r3, #0
	add	r2, sp, #48
.LVL23:
	.loc 8 39 2 is_stmt 0 view .LVU262
	mov	r1, #4160
	bl	z_impl_z_log_msg_static_create
.LVL24:
	.loc 8 39 2 view .LVU263
.LBE631:
.LBE630:
.LBE634:
	.loc 1 278 107 is_stmt 1 view .LVU264
	.loc 1 278 5 view .LVU265
.LVL25:
	.loc 1 278 42 view .LVU266
.LBE638:
	.loc 1 278 6 view .LVU267
	.loc 1 278 278 view .LVU268
	.loc 1 278 5 view .LVU269
	.loc 1 278 18 view .LVU270
.LBE642:
	.loc 1 278 6 view .LVU271
	.loc 1 279 3 view .LVU272
	.loc 1 279 10 is_stmt 0 view .LVU273
	mvn	r0, #18
.LVL26:
.L5:
	.loc 1 292 1 view .LVU274
	add	sp, sp, #60
	.cfi_remember_state
	.cfi_def_cfa_offset 12
	@ sp needed
	pop	{r4, r5, pc}
.LVL27:
.L6:
	.cfi_restore_state
.LBB643:
.LBB620:
	.loc 5 706 2 is_stmt 1 view .LVU275
.LBB612:
.LBI612:
	.loc 5 663 19 view .LVU276
	.loc 5 665 2 view .LVU277
.LBB613:
.LBI613:
	.loc 5 651 19 view .LVU278
.LBB614:
	.loc 5 653 2 view .LVU279
	.loc 5 653 24 is_stmt 0 view .LVU280
	ldr	r0, [r5, #12]
.LVL28:
	.loc 5 653 24 view .LVU281
.LBE614:
.LBE613:
.LBE612:
	.loc 5 706 5 view .LVU282
	cbz	r0, .L8
.LBB615:
.LBI615:
	.file 9 "/home/g/mise-work/zmk-firmware/zmk/zephyr/include/zephyr/drivers/gpio.h"
	.loc 9 831 19 is_stmt 1 view .LVU283
.LVL29:
	.loc 9 834 2 view .LVU284
.LBB616:
.LBI616:
	.loc 6 49 19 view .LVU285
.LBB617:
	.loc 6 57 2 view .LVU286
	.loc 6 57 7 view .LVU287
	.loc 6 57 5 view .LVU288
	.loc 6 58 2 view .LVU289
.LVL30:
.LBB618:
.LBI618:
	.loc 7 744 19 view .LVU290
.LBB619:
	.loc 7 746 2 view .LVU291
	.loc 7 746 9 is_stmt 0 view .LVU292
	bl	z_device_is_ready
.LVL31:
	.loc 7 746 9 view .LVU293
.LBE619:
.LBE618:
.LBE617:
.LBE616:
.LBE615:
	.loc 5 706 30 view .LVU294
	cmp	r0, #0
	beq	.L9
.L8:
.LVL32:
	.loc 5 706 30 view .LVU295
.LBE620:
.LBE643:
	.loc 1 282 2 is_stmt 1 view .LVU296
.LBB644:
.LBI644:
	.loc 2 59 23 view .LVU297
.LBB645:
	.loc 2 84 2 view .LVU298
	.loc 2 84 7 view .LVU299
	.loc 2 84 5 view .LVU300
	.loc 2 85 2 view .LVU301
	.loc 2 85 9 is_stmt 0 view .LVU302
	movs	r2, #0
.LVL33:
	.loc 2 85 9 view .LVU303
	movs	r3, #0
.LVL34:
	.loc 2 85 9 view .LVU304
	strd	r2, [sp, #24]
	movs	r3, #0
	strd	r3, r3, [sp, #12]
	strd	r3, r3, [sp, #4]
	str	r4, [sp]
	ldr	r3, .L17+8
	mov	r2, #512
.LVL35:
	.loc 2 85 9 view .LVU305
	add	r1, r4, #400
.LVL36:
	.loc 2 85 9 view .LVU306
	add	r0, r4, #176
.LVL37:
	.loc 2 85 9 view .LVU307
	bl	z_impl_k_thread_create
.LVL38:
	.loc 2 85 9 view .LVU308
.LBE645:
.LBE644:
	.loc 1 289 2 is_stmt 1 view .LVU309
.LBB646:
.LBI646:
	.loc 3 160 20 view .LVU310
.LBB647:
	.loc 3 162 2 view .LVU311
.LBB648:
.LBI648:
	.loc 2 1144 28 view .LVU312
.LBB649:
	.loc 2 1152 2 view .LVU313
	.loc 2 1152 7 view .LVU314
	.loc 2 1152 5 view .LVU315
	.loc 2 1153 2 view .LVU316
.LVL39:
.LBB650:
.LBI650:
	.file 10 "/home/g/mise-work/zmk-firmware/zmk/zephyr/include/zephyr/kernel.h"
	.loc 10 3225 28 view .LVU317
.LBB651:
	.loc 10 3227 2 view .LVU318
	.loc 10 3227 2 is_stmt 0 view .LVU319
.LBE651:
.LBE650:
.LBE649:
.LBE648:
	.loc 3 162 5 view .LVU320
	ldr	r3, [r4, #72]
	cbnz	r3, .L10
	.loc 3 163 3 is_stmt 1 view .LVU321
	add	r0, r4, #64
	bl	k_sem_give
.LVL40:
.L10:
	.loc 3 163 3 is_stmt 0 view .LVU322
.LBE647:
.LBE646:
	.loc 1 291 9 view .LVU323
	movs	r0, #0
.LVL41:
	.loc 1 291 9 view .LVU324
	b	.L5
.L18:
	.align	2
.L17:
	.word	.LC0
	.word	log_const_adc_mcp320x
	.word	mcp320x_acquisition_thread
	.cfi_endproc
.LFE644:
	.size	mcp320x_init, .-mcp320x_init
	.section	.rodata.mcp320x_channel_setup.str1.1,"aMS",%progbits,1
.LC1:
	.ascii	"unsupported channel gain '%d'\000"
.LC2:
	.ascii	"unsupported channel reference '%d'\000"
.LC3:
	.ascii	"unsupported acquisition_time '%d'\000"
.LC4:
	.ascii	"unsupported channel id '%d'\000"
	.section	.text.mcp320x_channel_setup,"ax",%progbits
	.align	1
	.syntax unified
	.thumb
	.thumb_func
	.type	mcp320x_channel_setup, %function
mcp320x_channel_setup:
.LVL42:
.LFB635:
	.loc 1 48 1 is_stmt 1 view -0
	.cfi_startproc
	@ args = 0, pretend = 0, frame = 0
	@ frame_needed = 1, uses_anonymous_args = 0
	.loc 1 49 2 view .LVU326
	.loc 1 48 1 is_stmt 0 view .LVU327
	push	{r3, r4, r7, lr}
	.cfi_def_cfa_offset 16
	.cfi_offset 3, -16
	.cfi_offset 4, -12
	.cfi_offset 7, -8
	.cfi_offset 14, -4
	.loc 1 52 17 view .LVU328
	ldrb	r3, [r1]	@ zero_extendqisi2
	.loc 1 49 31 view .LVU329
	ldr	r2, [r0, #4]
.LVL43:
	.loc 1 50 2 is_stmt 1 view .LVU330
	.loc 1 50 23 is_stmt 0 view .LVU331
	ldr	r0, [r0, #16]
.LVL44:
	.loc 1 52 2 is_stmt 1 view .LVU332
	.loc 1 52 5 is_stmt 0 view .LVU333
	cmp	r3, #8
	.loc 1 48 1 view .LVU334
	add	r7, sp, #0
	.cfi_def_cfa_register 7
	.loc 1 52 5 view .LVU335
	beq	.L20
	.loc 1 53 3 is_stmt 1 view .LVU336
.LBB692:
	.loc 1 53 8 view .LVU337
	.loc 1 53 57 view .LVU338
	.loc 1 53 14 view .LVU339
	.loc 1 53 2 view .LVU340
.LVL45:
	.loc 1 53 41 view .LVU341
	.loc 1 53 176 view .LVU342
	.loc 1 53 187 view .LVU343
	.loc 1 53 275 view .LVU344
.LBB693:
	.loc 1 53 3 view .LVU345
	.loc 1 53 5 view .LVU346
	.loc 1 53 3 view .LVU347
.LBB694:
	.loc 1 53 8 view .LVU348
	.loc 1 53 2 view .LVU349
.LBE694:
.LBE693:
.LBE692:
	.loc 1 53 3 view .LVU350
	.loc 1 53 12 view .LVU351
	.loc 1 53 107 view .LVU352
	.loc 1 53 3 view .LVU353
.LBB703:
.LBB701:
.LBB699:
	.loc 1 53 12 view .LVU354
	.loc 1 53 102 view .LVU355
	.loc 1 53 104 view .LVU356
.LBB695:
	.loc 1 53 107 is_stmt 0 view .LVU357
	mov	r4, sp
	.loc 1 53 109 is_stmt 1 view .LVU358
	.loc 1 53 120 view .LVU359
.LVL46:
	.loc 1 53 209 view .LVU360
	.loc 1 53 26 view .LVU361
.LBE695:
.LBE699:
.LBE701:
.LBE703:
	.loc 1 53 3 view .LVU362
	.loc 1 53 368 view .LVU363
	.loc 1 53 75 view .LVU364
	.loc 1 53 2 view .LVU365
	.loc 1 53 2 view .LVU366
	.loc 1 53 2 view .LVU367
	.loc 1 53 38 view .LVU368
	.loc 1 53 4 view .LVU369
	.loc 1 53 30 view .LVU370
	.loc 1 53 56 view .LVU371
	.loc 1 53 523 view .LVU372
	.loc 1 53 585 view .LVU373
	.loc 1 53 1106 view .LVU374
	.loc 1 53 1171 view .LVU375
	.loc 1 53 1196 view .LVU376
	.loc 1 53 1197 view .LVU377
	.loc 1 53 1199 view .LVU378
	.loc 1 53 1229 view .LVU379
	.loc 1 53 1259 view .LVU380
	.loc 1 53 1291 view .LVU381
	.loc 1 53 1323 view .LVU382
	.loc 1 53 1355 view .LVU383
	.loc 1 53 1552 view .LVU384
	.loc 1 53 1576 view .LVU385
	.loc 1 53 1577 view .LVU386
	.loc 1 53 1579 view .LVU387
	.loc 1 53 1608 view .LVU388
	.loc 1 53 1637 view .LVU389
	.loc 1 53 1668 view .LVU390
	.loc 1 53 1699 view .LVU391
	.loc 1 53 1730 view .LVU392
	.loc 1 53 1937 view .LVU393
	.loc 1 53 4 view .LVU394
	.loc 1 53 22 view .LVU395
	.loc 1 53 42 view .LVU396
	.loc 1 53 4 view .LVU397
	.loc 1 53 42 view .LVU398
	.loc 1 53 13 view .LVU399
	.loc 1 53 13 view .LVU400
	.loc 1 53 61 view .LVU401
	.loc 1 53 92 view .LVU402
	.loc 1 53 126 view .LVU403
	.loc 1 53 131 view .LVU404
	.loc 1 53 384 view .LVU405
	.loc 1 53 1449 view .LVU406
	.loc 1 53 1514 view .LVU407
	.loc 1 53 1538 view .LVU408
	.loc 1 53 1595 view .LVU409
	.loc 1 53 1606 view .LVU410
	.loc 1 53 1721 view .LVU411
	.loc 1 53 1737 view .LVU412
	.loc 1 53 1777 view .LVU413
	.loc 1 53 1802 view .LVU414
	.loc 1 53 3097 view .LVU415
	.loc 1 53 3138 view .LVU416
	.loc 1 53 7 view .LVU417
	.loc 1 53 30 view .LVU418
	.loc 1 53 129 view .LVU419
	.loc 1 53 6 view .LVU420
	.loc 1 53 11 view .LVU421
	.loc 1 53 236 view .LVU422
	.loc 1 53 1189 view .LVU423
	.loc 1 53 1254 view .LVU424
	.loc 1 53 1278 view .LVU425
	.loc 1 53 1307 view .LVU426
	.loc 1 53 1318 view .LVU427
	.loc 1 53 1405 view .LVU428
	.loc 1 53 1421 view .LVU429
	.loc 1 53 1461 view .LVU430
	.loc 1 53 2725 view .LVU431
	.loc 1 53 2766 view .LVU432
	.loc 1 53 7 view .LVU433
	.loc 1 53 30 view .LVU434
	.loc 1 53 9 view .LVU435
	.loc 1 53 5 view .LVU436
	.loc 1 53 28 view .LVU437
	.loc 1 53 52 view .LVU438
	.loc 1 53 80 view .LVU439
	.loc 1 53 256 view .LVU440
	.loc 1 53 16 view .LVU441
.LBB704:
.LBB702:
.LBB700:
.LBB698:
	.loc 1 53 29 view .LVU442
	.loc 1 53 3 view .LVU443
	.loc 1 53 3 view .LVU444
	.loc 1 53 70 view .LVU445
	.loc 1 53 82 is_stmt 0 view .LVU446
	sub	sp, sp, #32
	mov	r2, sp
.LVL47:
	.loc 1 53 74 is_stmt 1 view .LVU447
	.loc 1 53 484 view .LVU448
	.loc 1 53 5 view .LVU449
	.loc 1 53 7 view .LVU450
	.loc 1 53 12 view .LVU451
	.loc 1 53 10 view .LVU452
	.loc 1 53 5 view .LVU453
	.loc 1 53 23 view .LVU454
.LBB696:
	.loc 1 53 3 view .LVU455
	.loc 1 53 368 view .LVU456
	.loc 1 53 75 view .LVU457
.LVL48:
	.loc 1 53 2 view .LVU458
	.loc 1 53 2 view .LVU459
	.loc 1 53 2 view .LVU460
	.loc 1 53 38 view .LVU461
	.loc 1 53 67 view .LVU462
	.loc 1 53 93 view .LVU463
	.loc 1 53 119 view .LVU464
	.loc 1 53 586 view .LVU465
	.loc 1 53 648 view .LVU466
	.loc 1 53 1169 view .LVU467
	.loc 1 53 1234 view .LVU468
	.loc 1 53 1259 view .LVU469
	.loc 1 53 1260 view .LVU470
	.loc 1 53 1262 view .LVU471
	.loc 1 53 1292 view .LVU472
	.loc 1 53 1322 view .LVU473
	.loc 1 53 1354 view .LVU474
	.loc 1 53 1386 view .LVU475
	.loc 1 53 1418 view .LVU476
	.loc 1 53 1615 view .LVU477
	.loc 1 53 1639 view .LVU478
	.loc 1 53 1640 view .LVU479
	.loc 1 53 1642 view .LVU480
	.loc 1 53 1671 view .LVU481
	.loc 1 53 1700 view .LVU482
	.loc 1 53 1731 view .LVU483
	.loc 1 53 1762 view .LVU484
	.loc 1 53 1793 view .LVU485
	.loc 1 53 2000 view .LVU486
.LBB697:
	.loc 1 53 3135 view .LVU487
	.loc 1 53 3140 view .LVU488
	.loc 1 53 3752 view .LVU489
	.loc 1 53 0 is_stmt 0 view .LVU490
	ldr	r1, .L30
.LVL49:
.L28:
	.loc 1 53 0 view .LVU491
.LBE697:
.LBE696:
.LBE698:
.LBE700:
.LBE702:
.LBE704:
.LBB705:
.LBB706:
	.loc 1 58 17 view .LVU492
	strd	r1, r3, [r2, #20]
.LVL50:
.LBB707:
.LBB708:
.LBB709:
.LBB710:
	.loc 1 58 2766 is_stmt 1 view .LVU493
	.loc 1 58 7 view .LVU494
	.loc 1 58 30 view .LVU495
	.loc 1 58 30 is_stmt 0 view .LVU496
.LBE710:
	.loc 1 58 9 is_stmt 1 view .LVU497
	.loc 1 58 5 view .LVU498
	.loc 1 58 28 view .LVU499
	.loc 1 58 52 view .LVU500
	.loc 1 58 80 view .LVU501
.LBE709:
.LBE708:
.LBE707:
.LBE706:
.LBE705:
	.loc 1 58 6 view .LVU502
	.loc 1 58 45 view .LVU503
	.loc 1 58 50 view .LVU504
	.loc 1 58 80 view .LVU505
	.loc 1 58 147 view .LVU506
	.loc 1 58 152 view .LVU507
	.loc 1 58 182 view .LVU508
.LBB731:
.LBB726:
.LBB721:
.LBB717:
.LBB713:
	.loc 1 58 256 view .LVU509
	.loc 1 58 16 view .LVU510
.LBB711:
	.loc 1 58 6 view .LVU511
	.loc 1 58 164 view .LVU512
	.loc 1 58 166 view .LVU513
	.loc 1 58 176 is_stmt 0 view .LVU514
	movs	r3, #3
	str	r3, [r2, #16]!
.LVL51:
	.loc 1 58 176 view .LVU515
.LBE711:
.LBE713:
	.loc 1 58 26 is_stmt 1 view .LVU516
	.loc 1 58 7 view .LVU517
	.loc 1 58 147 view .LVU518
	.loc 1 58 149 view .LVU519
.LBB714:
.LBI714:
	.loc 8 26 20 view .LVU520
.LBB715:
	.loc 8 38 2 view .LVU521
	.loc 8 38 7 view .LVU522
	.loc 8 38 5 view .LVU523
	.loc 8 39 2 view .LVU524
	movs	r3, #0
.LVL52:
.L29:
	.loc 8 39 2 is_stmt 0 view .LVU525
	ldr	r0, .L30+4
	mov	r1, #6208
	bl	z_impl_z_log_msg_static_create
.LVL53:
.LBE715:
.LBE714:
.LBE717:
.LBE721:
.LBE726:
.LBE731:
	.loc 1 54 10 view .LVU526
	mvn	r0, #133
.LBB732:
.LBB727:
.LBB722:
.LBB718:
	mov	sp, r4
.LBE718:
	.loc 1 58 107 is_stmt 1 view .LVU527
	.loc 1 58 5 view .LVU528
.LVL54:
	.loc 1 58 42 view .LVU529
.LBE722:
	.loc 1 58 6 view .LVU530
.LBE727:
	.loc 1 58 278 view .LVU531
	.loc 1 58 5 view .LVU532
	.loc 1 58 18 view .LVU533
.LBE732:
	.loc 1 58 6 view .LVU534
	.loc 1 60 3 view .LVU535
.L19:
	.loc 1 78 1 is_stmt 0 view .LVU536
	mov	sp, r7
	.cfi_remember_state
	.cfi_def_cfa_register 13
	@ sp needed
	pop	{r3, r4, r7, pc}
.LVL55:
.L20:
	.cfi_restore_state
	.loc 1 57 2 is_stmt 1 view .LVU537
	.loc 1 57 17 is_stmt 0 view .LVU538
	ldrb	r3, [r1, #1]	@ zero_extendqisi2
	.loc 1 57 5 view .LVU539
	cmp	r3, #5
	beq	.L22
	.loc 1 58 3 is_stmt 1 view .LVU540
.LBB733:
	.loc 1 58 8 view .LVU541
	.loc 1 58 57 view .LVU542
	.loc 1 58 14 view .LVU543
	.loc 1 58 2 view .LVU544
.LVL56:
	.loc 1 58 41 view .LVU545
	.loc 1 58 176 view .LVU546
	.loc 1 58 187 view .LVU547
	.loc 1 58 275 view .LVU548
.LBB728:
	.loc 1 58 3 view .LVU549
	.loc 1 58 5 view .LVU550
	.loc 1 58 3 view .LVU551
.LBB723:
	.loc 1 58 8 view .LVU552
	.loc 1 58 2 view .LVU553
.LBE723:
.LBE728:
.LBE733:
	.loc 1 58 3 view .LVU554
	.loc 1 58 12 view .LVU555
	.loc 1 58 107 view .LVU556
	.loc 1 58 3 view .LVU557
.LBB734:
.LBB729:
.LBB724:
	.loc 1 58 12 view .LVU558
	.loc 1 58 102 view .LVU559
	.loc 1 58 104 view .LVU560
.LBB719:
	.loc 1 58 107 is_stmt 0 view .LVU561
	mov	r4, sp
	.loc 1 58 109 is_stmt 1 view .LVU562
	.loc 1 58 120 view .LVU563
.LVL57:
	.loc 1 58 209 view .LVU564
	.loc 1 58 26 view .LVU565
.LBE719:
.LBE724:
.LBE729:
.LBE734:
	.loc 1 58 3 view .LVU566
	.loc 1 58 368 view .LVU567
	.loc 1 58 75 view .LVU568
	.loc 1 58 2 view .LVU569
	.loc 1 58 2 view .LVU570
	.loc 1 58 2 view .LVU571
	.loc 1 58 38 view .LVU572
	.loc 1 58 4 view .LVU573
	.loc 1 58 30 view .LVU574
	.loc 1 58 56 view .LVU575
	.loc 1 58 523 view .LVU576
	.loc 1 58 585 view .LVU577
	.loc 1 58 1106 view .LVU578
	.loc 1 58 1171 view .LVU579
	.loc 1 58 1196 view .LVU580
	.loc 1 58 1197 view .LVU581
	.loc 1 58 1199 view .LVU582
	.loc 1 58 1229 view .LVU583
	.loc 1 58 1259 view .LVU584
	.loc 1 58 1291 view .LVU585
	.loc 1 58 1323 view .LVU586
	.loc 1 58 1355 view .LVU587
	.loc 1 58 1552 view .LVU588
	.loc 1 58 1576 view .LVU589
	.loc 1 58 1577 view .LVU590
	.loc 1 58 1579 view .LVU591
	.loc 1 58 1608 view .LVU592
	.loc 1 58 1637 view .LVU593
	.loc 1 58 1668 view .LVU594
	.loc 1 58 1699 view .LVU595
	.loc 1 58 1730 view .LVU596
	.loc 1 58 1937 view .LVU597
	.loc 1 58 4 view .LVU598
	.loc 1 58 22 view .LVU599
	.loc 1 58 42 view .LVU600
	.loc 1 58 4 view .LVU601
	.loc 1 58 42 view .LVU602
	.loc 1 58 13 view .LVU603
	.loc 1 58 13 view .LVU604
	.loc 1 58 61 view .LVU605
	.loc 1 58 92 view .LVU606
	.loc 1 58 126 view .LVU607
	.loc 1 58 131 view .LVU608
	.loc 1 58 389 view .LVU609
	.loc 1 58 1474 view .LVU610
	.loc 1 58 1539 view .LVU611
	.loc 1 58 1563 view .LVU612
	.loc 1 58 1625 view .LVU613
	.loc 1 58 1636 view .LVU614
	.loc 1 58 1756 view .LVU615
	.loc 1 58 1772 view .LVU616
	.loc 1 58 1812 view .LVU617
	.loc 1 58 1837 view .LVU618
	.loc 1 58 3142 view .LVU619
	.loc 1 58 3183 view .LVU620
	.loc 1 58 7 view .LVU621
	.loc 1 58 30 view .LVU622
	.loc 1 58 129 view .LVU623
	.loc 1 58 6 view .LVU624
	.loc 1 58 11 view .LVU625
	.loc 1 58 236 view .LVU626
	.loc 1 58 1189 view .LVU627
	.loc 1 58 1254 view .LVU628
	.loc 1 58 1278 view .LVU629
	.loc 1 58 1307 view .LVU630
	.loc 1 58 1318 view .LVU631
	.loc 1 58 1405 view .LVU632
	.loc 1 58 1421 view .LVU633
	.loc 1 58 1461 view .LVU634
	.loc 1 58 2725 view .LVU635
	.loc 1 58 2766 view .LVU636
	.loc 1 58 7 view .LVU637
	.loc 1 58 30 view .LVU638
	.loc 1 58 9 view .LVU639
	.loc 1 58 5 view .LVU640
	.loc 1 58 28 view .LVU641
	.loc 1 58 52 view .LVU642
	.loc 1 58 80 view .LVU643
	.loc 1 58 256 view .LVU644
	.loc 1 58 16 view .LVU645
.LBB735:
.LBB730:
.LBB725:
.LBB720:
	.loc 1 58 29 view .LVU646
	.loc 1 58 3 view .LVU647
	.loc 1 58 3 view .LVU648
	.loc 1 58 70 view .LVU649
	.loc 1 58 82 is_stmt 0 view .LVU650
	sub	sp, sp, #32
	mov	r2, sp
.LVL58:
	.loc 1 58 74 is_stmt 1 view .LVU651
	.loc 1 58 484 view .LVU652
	.loc 1 58 5 view .LVU653
	.loc 1 58 7 view .LVU654
	.loc 1 58 12 view .LVU655
	.loc 1 58 10 view .LVU656
	.loc 1 58 5 view .LVU657
	.loc 1 58 23 view .LVU658
.LBB716:
	.loc 1 58 3 view .LVU659
	.loc 1 58 368 view .LVU660
	.loc 1 58 75 view .LVU661
.LVL59:
	.loc 1 58 2 view .LVU662
	.loc 1 58 2 view .LVU663
	.loc 1 58 2 view .LVU664
	.loc 1 58 38 view .LVU665
	.loc 1 58 67 view .LVU666
	.loc 1 58 93 view .LVU667
	.loc 1 58 119 view .LVU668
	.loc 1 58 586 view .LVU669
	.loc 1 58 648 view .LVU670
	.loc 1 58 1169 view .LVU671
	.loc 1 58 1234 view .LVU672
	.loc 1 58 1259 view .LVU673
	.loc 1 58 1260 view .LVU674
	.loc 1 58 1262 view .LVU675
	.loc 1 58 1292 view .LVU676
	.loc 1 58 1322 view .LVU677
	.loc 1 58 1354 view .LVU678
	.loc 1 58 1386 view .LVU679
	.loc 1 58 1418 view .LVU680
	.loc 1 58 1615 view .LVU681
	.loc 1 58 1639 view .LVU682
	.loc 1 58 1640 view .LVU683
	.loc 1 58 1642 view .LVU684
	.loc 1 58 1671 view .LVU685
	.loc 1 58 1700 view .LVU686
	.loc 1 58 1731 view .LVU687
	.loc 1 58 1762 view .LVU688
	.loc 1 58 1793 view .LVU689
	.loc 1 58 2000 view .LVU690
.LBB712:
	.loc 1 58 3180 view .LVU691
	.loc 1 58 3185 view .LVU692
	.loc 1 58 3827 view .LVU693
	.loc 1 58 0 is_stmt 0 view .LVU694
	ldr	r1, .L30+8
.LVL60:
	.loc 1 58 0 view .LVU695
	b	.L28
.LVL61:
.L22:
	.loc 1 58 0 view .LVU696
.LBE712:
.LBE716:
.LBE720:
.LBE725:
.LBE730:
.LBE735:
	.loc 1 63 2 is_stmt 1 view .LVU697
	.loc 1 63 17 is_stmt 0 view .LVU698
	ldrh	r3, [r1, #2]
	.loc 1 63 5 view .LVU699
	cbz	r3, .L24
	.loc 1 64 3 is_stmt 1 view .LVU700
.LBB736:
	.loc 1 64 8 view .LVU701
	.loc 1 64 57 view .LVU702
	.loc 1 64 14 view .LVU703
	.loc 1 64 2 view .LVU704
.LVL62:
	.loc 1 64 41 view .LVU705
	.loc 1 64 176 view .LVU706
	.loc 1 64 187 view .LVU707
	.loc 1 64 275 view .LVU708
.LBB737:
	.loc 1 64 3 view .LVU709
	.loc 1 64 5 view .LVU710
	.loc 1 64 3 view .LVU711
.LBB738:
	.loc 1 64 8 view .LVU712
	.loc 1 64 2 view .LVU713
.LBE738:
.LBE737:
.LBE736:
	.loc 1 64 3 view .LVU714
	.loc 1 64 12 view .LVU715
	.loc 1 64 107 view .LVU716
	.loc 1 64 3 view .LVU717
.LBB747:
.LBB745:
.LBB743:
	.loc 1 64 12 view .LVU718
	.loc 1 64 102 view .LVU719
	.loc 1 64 104 view .LVU720
.LBB739:
	.loc 1 64 107 is_stmt 0 view .LVU721
	mov	r4, sp
	.loc 1 64 109 is_stmt 1 view .LVU722
	.loc 1 64 120 view .LVU723
.LVL63:
	.loc 1 64 209 view .LVU724
	.loc 1 64 26 view .LVU725
.LBE739:
.LBE743:
.LBE745:
.LBE747:
	.loc 1 64 3 view .LVU726
	.loc 1 64 368 view .LVU727
	.loc 1 64 75 view .LVU728
	.loc 1 64 2 view .LVU729
	.loc 1 64 2 view .LVU730
	.loc 1 64 2 view .LVU731
	.loc 1 64 38 view .LVU732
	.loc 1 64 4 view .LVU733
	.loc 1 64 30 view .LVU734
	.loc 1 64 56 view .LVU735
	.loc 1 64 523 view .LVU736
	.loc 1 64 585 view .LVU737
	.loc 1 64 1106 view .LVU738
	.loc 1 64 1171 view .LVU739
	.loc 1 64 1196 view .LVU740
	.loc 1 64 1197 view .LVU741
	.loc 1 64 1199 view .LVU742
	.loc 1 64 1229 view .LVU743
	.loc 1 64 1259 view .LVU744
	.loc 1 64 1291 view .LVU745
	.loc 1 64 1323 view .LVU746
	.loc 1 64 1355 view .LVU747
	.loc 1 64 1552 view .LVU748
	.loc 1 64 1576 view .LVU749
	.loc 1 64 1577 view .LVU750
	.loc 1 64 1579 view .LVU751
	.loc 1 64 1608 view .LVU752
	.loc 1 64 1637 view .LVU753
	.loc 1 64 1668 view .LVU754
	.loc 1 64 1699 view .LVU755
	.loc 1 64 1730 view .LVU756
	.loc 1 64 1937 view .LVU757
	.loc 1 64 4 view .LVU758
	.loc 1 64 22 view .LVU759
	.loc 1 64 42 view .LVU760
	.loc 1 64 4 view .LVU761
	.loc 1 64 42 view .LVU762
	.loc 1 64 13 view .LVU763
	.loc 1 64 13 view .LVU764
	.loc 1 64 61 view .LVU765
	.loc 1 64 92 view .LVU766
	.loc 1 64 126 view .LVU767
	.loc 1 64 131 view .LVU768
	.loc 1 64 388 view .LVU769
	.loc 1 64 1469 view .LVU770
	.loc 1 64 1534 view .LVU771
	.loc 1 64 1558 view .LVU772
	.loc 1 64 1619 view .LVU773
	.loc 1 64 1630 view .LVU774
	.loc 1 64 1749 view .LVU775
	.loc 1 64 1765 view .LVU776
	.loc 1 64 1805 view .LVU777
	.loc 1 64 1830 view .LVU778
	.loc 1 64 3133 view .LVU779
	.loc 1 64 3174 view .LVU780
	.loc 1 64 7 view .LVU781
	.loc 1 64 30 view .LVU782
	.loc 1 64 129 view .LVU783
	.loc 1 64 6 view .LVU784
	.loc 1 64 11 view .LVU785
	.loc 1 64 236 view .LVU786
	.loc 1 64 1189 view .LVU787
	.loc 1 64 1254 view .LVU788
	.loc 1 64 1278 view .LVU789
	.loc 1 64 1307 view .LVU790
	.loc 1 64 1318 view .LVU791
	.loc 1 64 1405 view .LVU792
	.loc 1 64 1421 view .LVU793
	.loc 1 64 1461 view .LVU794
	.loc 1 64 2725 view .LVU795
	.loc 1 64 2766 view .LVU796
	.loc 1 64 7 view .LVU797
	.loc 1 64 30 view .LVU798
	.loc 1 64 9 view .LVU799
	.loc 1 64 5 view .LVU800
	.loc 1 64 28 view .LVU801
	.loc 1 64 52 view .LVU802
	.loc 1 64 80 view .LVU803
	.loc 1 64 256 view .LVU804
	.loc 1 64 16 view .LVU805
.LBB748:
.LBB746:
.LBB744:
.LBB742:
	.loc 1 64 29 view .LVU806
	.loc 1 64 3 view .LVU807
	.loc 1 64 3 view .LVU808
	.loc 1 64 70 view .LVU809
	.loc 1 64 82 is_stmt 0 view .LVU810
	sub	sp, sp, #32
	mov	r2, sp
.LVL64:
	.loc 1 64 74 is_stmt 1 view .LVU811
	.loc 1 64 484 view .LVU812
	.loc 1 64 5 view .LVU813
	.loc 1 64 7 view .LVU814
	.loc 1 64 12 view .LVU815
	.loc 1 64 10 view .LVU816
	.loc 1 64 5 view .LVU817
	.loc 1 64 23 view .LVU818
.LBB740:
	.loc 1 64 3 view .LVU819
	.loc 1 64 368 view .LVU820
	.loc 1 64 75 view .LVU821
.LVL65:
	.loc 1 64 2 view .LVU822
	.loc 1 64 2 view .LVU823
	.loc 1 64 2 view .LVU824
	.loc 1 64 38 view .LVU825
	.loc 1 64 67 view .LVU826
	.loc 1 64 93 view .LVU827
	.loc 1 64 119 view .LVU828
	.loc 1 64 586 view .LVU829
	.loc 1 64 648 view .LVU830
	.loc 1 64 1169 view .LVU831
	.loc 1 64 1234 view .LVU832
	.loc 1 64 1259 view .LVU833
	.loc 1 64 1260 view .LVU834
	.loc 1 64 1262 view .LVU835
	.loc 1 64 1292 view .LVU836
	.loc 1 64 1322 view .LVU837
	.loc 1 64 1354 view .LVU838
	.loc 1 64 1386 view .LVU839
	.loc 1 64 1418 view .LVU840
	.loc 1 64 1615 view .LVU841
	.loc 1 64 1639 view .LVU842
	.loc 1 64 1640 view .LVU843
	.loc 1 64 1642 view .LVU844
	.loc 1 64 1671 view .LVU845
	.loc 1 64 1700 view .LVU846
	.loc 1 64 1731 view .LVU847
	.loc 1 64 1762 view .LVU848
	.loc 1 64 1793 view .LVU849
	.loc 1 64 2000 view .LVU850
.LBB741:
	.loc 1 64 3171 view .LVU851
	.loc 1 64 3176 view .LVU852
	.loc 1 64 3812 view .LVU853
	.loc 1 64 0 is_stmt 0 view .LVU854
	ldr	r1, .L30+12
.LVL66:
	.loc 1 64 0 view .LVU855
	b	.L28
.LVL67:
.L24:
	.loc 1 64 0 view .LVU856
.LBE741:
.LBE740:
.LBE742:
.LBE744:
.LBE746:
.LBE748:
	.loc 1 69 2 is_stmt 1 view .LVU857
	.loc 1 69 17 is_stmt 0 view .LVU858
	ldrb	r4, [r1, #4]	@ zero_extendqisi2
	.loc 1 69 5 view .LVU859
	ldrb	r2, [r2, #24]	@ zero_extendqisi2
.LVL68:
	.loc 1 69 17 view .LVU860
	and	r1, r4, #31
.LVL69:
	.loc 1 69 5 view .LVU861
	cmp	r2, r1
	bhi	.L25
	.loc 1 70 3 is_stmt 1 view .LVU862
.LBB749:
	.loc 1 70 8 view .LVU863
	.loc 1 70 57 view .LVU864
	.loc 1 70 14 view .LVU865
	.loc 1 70 2 view .LVU866
.LVL70:
	.loc 1 70 41 view .LVU867
	.loc 1 70 176 view .LVU868
	.loc 1 70 187 view .LVU869
	.loc 1 70 275 view .LVU870
.LBB750:
	.loc 1 70 3 view .LVU871
	.loc 1 70 5 view .LVU872
	.loc 1 70 3 view .LVU873
.LBB751:
	.loc 1 70 8 view .LVU874
	.loc 1 70 2 view .LVU875
.LBE751:
.LBE750:
.LBE749:
	.loc 1 70 3 view .LVU876
	.loc 1 70 12 view .LVU877
	.loc 1 70 107 view .LVU878
	.loc 1 70 3 view .LVU879
.LBB768:
.LBB765:
.LBB762:
	.loc 1 70 12 view .LVU880
	.loc 1 70 102 view .LVU881
	.loc 1 70 104 view .LVU882
.LBB752:
	.loc 1 70 107 is_stmt 0 view .LVU883
	mov	r4, sp
.LVL71:
	.loc 1 70 109 is_stmt 1 view .LVU884
	.loc 1 70 120 view .LVU885
	.loc 1 70 209 view .LVU886
	.loc 1 70 26 view .LVU887
.LBE752:
.LBE762:
.LBE765:
.LBE768:
	.loc 1 70 3 view .LVU888
	.loc 1 70 368 view .LVU889
	.loc 1 70 75 view .LVU890
	.loc 1 70 2 view .LVU891
	.loc 1 70 2 view .LVU892
	.loc 1 70 2 view .LVU893
	.loc 1 70 38 view .LVU894
	.loc 1 70 4 view .LVU895
	.loc 1 70 30 view .LVU896
	.loc 1 70 56 view .LVU897
	.loc 1 70 523 view .LVU898
	.loc 1 70 585 view .LVU899
	.loc 1 70 1106 view .LVU900
	.loc 1 70 1171 view .LVU901
	.loc 1 70 1196 view .LVU902
	.loc 1 70 1197 view .LVU903
	.loc 1 70 1199 view .LVU904
	.loc 1 70 1229 view .LVU905
	.loc 1 70 1259 view .LVU906
	.loc 1 70 1291 view .LVU907
	.loc 1 70 1323 view .LVU908
	.loc 1 70 1355 view .LVU909
	.loc 1 70 1552 view .LVU910
	.loc 1 70 1576 view .LVU911
	.loc 1 70 1577 view .LVU912
	.loc 1 70 1579 view .LVU913
	.loc 1 70 1608 view .LVU914
	.loc 1 70 1637 view .LVU915
	.loc 1 70 1668 view .LVU916
	.loc 1 70 1699 view .LVU917
	.loc 1 70 1730 view .LVU918
	.loc 1 70 1937 view .LVU919
	.loc 1 70 4 view .LVU920
	.loc 1 70 22 view .LVU921
	.loc 1 70 42 view .LVU922
	.loc 1 70 4 view .LVU923
	.loc 1 70 42 view .LVU924
	.loc 1 70 13 view .LVU925
	.loc 1 70 13 view .LVU926
	.loc 1 70 61 view .LVU927
	.loc 1 70 92 view .LVU928
	.loc 1 70 126 view .LVU929
	.loc 1 70 131 view .LVU930
	.loc 1 70 382 view .LVU931
	.loc 1 70 1439 view .LVU932
	.loc 1 70 1504 view .LVU933
	.loc 1 70 1528 view .LVU934
	.loc 1 70 1583 view .LVU935
	.loc 1 70 1594 view .LVU936
	.loc 1 70 1707 view .LVU937
	.loc 1 70 1723 view .LVU938
	.loc 1 70 1763 view .LVU939
	.loc 1 70 1788 view .LVU940
	.loc 1 70 3079 view .LVU941
	.loc 1 70 3120 view .LVU942
	.loc 1 70 7 view .LVU943
	.loc 1 70 30 view .LVU944
	.loc 1 70 129 view .LVU945
	.loc 1 70 6 view .LVU946
	.loc 1 70 11 view .LVU947
	.loc 1 70 236 view .LVU948
	.loc 1 70 1189 view .LVU949
	.loc 1 70 1254 view .LVU950
	.loc 1 70 1278 view .LVU951
	.loc 1 70 1307 view .LVU952
	.loc 1 70 1318 view .LVU953
	.loc 1 70 1405 view .LVU954
	.loc 1 70 1421 view .LVU955
	.loc 1 70 1461 view .LVU956
	.loc 1 70 2725 view .LVU957
	.loc 1 70 2766 view .LVU958
	.loc 1 70 7 view .LVU959
	.loc 1 70 30 view .LVU960
	.loc 1 70 9 view .LVU961
	.loc 1 70 5 view .LVU962
	.loc 1 70 28 view .LVU963
	.loc 1 70 52 view .LVU964
	.loc 1 70 80 view .LVU965
	.loc 1 70 256 view .LVU966
	.loc 1 70 16 view .LVU967
.LBB769:
.LBB766:
.LBB763:
.LBB760:
	.loc 1 70 29 view .LVU968
	.loc 1 70 3 view .LVU969
	.loc 1 70 3 view .LVU970
	.loc 1 70 70 view .LVU971
	.loc 1 70 82 is_stmt 0 view .LVU972
	sub	sp, sp, #32
	mov	r2, sp
.LVL72:
	.loc 1 70 74 is_stmt 1 view .LVU973
	.loc 1 70 484 view .LVU974
	.loc 1 70 5 view .LVU975
	.loc 1 70 7 view .LVU976
	.loc 1 70 12 view .LVU977
	.loc 1 70 10 view .LVU978
	.loc 1 70 5 view .LVU979
	.loc 1 70 23 view .LVU980
.LBB753:
	.loc 1 70 3 view .LVU981
	.loc 1 70 368 view .LVU982
	.loc 1 70 75 view .LVU983
.LVL73:
	.loc 1 70 2 view .LVU984
	.loc 1 70 2 view .LVU985
	.loc 1 70 2 view .LVU986
	.loc 1 70 38 view .LVU987
	.loc 1 70 67 view .LVU988
	.loc 1 70 93 view .LVU989
	.loc 1 70 119 view .LVU990
	.loc 1 70 586 view .LVU991
	.loc 1 70 648 view .LVU992
	.loc 1 70 1169 view .LVU993
	.loc 1 70 1234 view .LVU994
	.loc 1 70 1259 view .LVU995
	.loc 1 70 1260 view .LVU996
	.loc 1 70 1262 view .LVU997
	.loc 1 70 1292 view .LVU998
	.loc 1 70 1322 view .LVU999
	.loc 1 70 1354 view .LVU1000
	.loc 1 70 1386 view .LVU1001
	.loc 1 70 1418 view .LVU1002
	.loc 1 70 1615 view .LVU1003
	.loc 1 70 1639 view .LVU1004
	.loc 1 70 1640 view .LVU1005
	.loc 1 70 1642 view .LVU1006
	.loc 1 70 1671 view .LVU1007
	.loc 1 70 1700 view .LVU1008
	.loc 1 70 1731 view .LVU1009
	.loc 1 70 1762 view .LVU1010
	.loc 1 70 1793 view .LVU1011
	.loc 1 70 2000 view .LVU1012
.LBB754:
	.loc 1 70 3117 view .LVU1013
	.loc 1 70 3122 view .LVU1014
	.loc 1 70 3722 view .LVU1015
	.loc 1 70 0 is_stmt 0 view .LVU1016
	ldr	r0, .L30+16
.LVL74:
	.loc 1 70 0 view .LVU1017
.LBE754:
.LBB755:
	.loc 1 70 3811 view .LVU1018
	strd	r0, r1, [r2, #20]
	.loc 1 70 2766 is_stmt 1 view .LVU1019
	.loc 1 70 7 view .LVU1020
.LVL75:
	.loc 1 70 30 view .LVU1021
	.loc 1 70 30 is_stmt 0 view .LVU1022
.LBE755:
	.loc 1 70 9 is_stmt 1 view .LVU1023
	.loc 1 70 5 view .LVU1024
	.loc 1 70 28 view .LVU1025
	.loc 1 70 52 view .LVU1026
	.loc 1 70 80 view .LVU1027
.LBE753:
.LBE760:
.LBE763:
.LBE766:
.LBE769:
	.loc 1 70 6 view .LVU1028
	.loc 1 70 45 view .LVU1029
	.loc 1 70 50 view .LVU1030
	.loc 1 70 80 view .LVU1031
	.loc 1 70 147 view .LVU1032
	.loc 1 70 152 view .LVU1033
	.loc 1 70 182 view .LVU1034
.LBB770:
.LBB767:
.LBB764:
.LBB761:
.LBB757:
	.loc 1 70 256 view .LVU1035
	.loc 1 70 16 view .LVU1036
.LBB756:
	.loc 1 70 6 view .LVU1037
	.loc 1 70 164 view .LVU1038
	.loc 1 70 166 view .LVU1039
	.loc 1 70 176 is_stmt 0 view .LVU1040
	movs	r1, #3
	str	r1, [r2, #16]!
.LVL76:
	.loc 1 70 176 view .LVU1041
.LBE756:
.LBE757:
	.loc 1 70 26 is_stmt 1 view .LVU1042
	.loc 1 70 7 view .LVU1043
	.loc 1 70 147 view .LVU1044
	.loc 1 70 149 view .LVU1045
.LBB758:
.LBI758:
	.loc 8 26 20 view .LVU1046
.LBB759:
	.loc 8 38 2 view .LVU1047
	.loc 8 38 7 view .LVU1048
	.loc 8 38 5 view .LVU1049
	.loc 8 39 2 view .LVU1050
	b	.L29
.LVL77:
.L25:
	.loc 8 39 2 is_stmt 0 view .LVU1051
.LBE759:
.LBE758:
.LBE761:
.LBE764:
.LBE767:
.LBE770:
	.loc 1 74 2 is_stmt 1 view .LVU1052
	.loc 1 74 85 is_stmt 0 view .LVU1053
	movs	r3, #1
	.loc 1 74 62 view .LVU1054
	ldrb	r2, [r0, #173]	@ zero_extendqisi2
	.loc 1 74 85 view .LVU1055
	lsls	r3, r3, r1
	.loc 1 74 78 view .LVU1056
	uxtb	r3, r3
	.loc 1 74 24 view .LVU1057
	lsls	r1, r4, #26
	ite	mi
	orrmi	r3, r3, r2
	bicpl	r3, r2, r3
	strb	r3, [r0, #173]
.LVL78:
	.loc 1 77 2 is_stmt 1 view .LVU1058
	.loc 1 77 9 is_stmt 0 view .LVU1059
	movs	r0, #0
.LVL79:
	.loc 1 77 9 view .LVU1060
	b	.L19
.L31:
	.align	2
.L30:
	.word	.LC1
	.word	log_const_adc_mcp320x
	.word	.LC2
	.word	.LC3
	.word	.LC4
	.cfi_endproc
.LFE635:
	.size	mcp320x_channel_setup, .-mcp320x_channel_setup
	.section	.rodata.mcp320x_acquisition_thread.str1.1,"aMS",%progbits,1
.LC5:
	.ascii	"failed to read channel %d (err %d)\000"
	.section	.text.mcp320x_acquisition_thread,"ax",%progbits
	.align	1
	.syntax unified
	.thumb
	.thumb_func
	.type	mcp320x_acquisition_thread, %function
mcp320x_acquisition_thread:
.LVL80:
.LFB643:
	.loc 1 236 1 is_stmt 1 view -0
	.cfi_startproc
	@ args = 0, pretend = 0, frame = 56
	@ frame_needed = 1, uses_anonymous_args = 0
	.loc 1 237 2 view .LVU1062
	.loc 1 236 1 is_stmt 0 view .LVU1063
	push	{r4, r5, r6, r7, r8, r9, r10, fp, lr}
	.cfi_def_cfa_offset 36
	.cfi_offset 4, -36
	.cfi_offset 5, -32
	.cfi_offset 6, -28
	.cfi_offset 7, -24
	.cfi_offset 8, -20
	.cfi_offset 9, -16
	.cfi_offset 10, -12
	.cfi_offset 11, -8
	.cfi_offset 14, -4
.LBB826:
.LBB827:
.LBB828:
.LBB829:
.LBB830:
.LBB831:
.LBB832:
	.loc 1 251 0 view .LVU1064
	ldr	r9, .L60
.LBE832:
.LBE831:
.LBB839:
.LBB840:
	.loc 8 39 2 view .LVU1065
	ldr	r10, .L60+4
.LBE840:
.LBE839:
.LBE830:
.LBE829:
.LBE828:
.LBE827:
.LBE826:
	.loc 1 236 1 view .LVU1066
	sub	sp, sp, #60
	.cfi_def_cfa_offset 96
	mov	r4, r0
	add	r7, sp, #0
	.cfi_def_cfa_register 7
.LBB920:
	.loc 1 242 3 view .LVU1067
	add	r8, r0, #376
.LVL81:
.L47:
	.loc 1 242 3 view .LVU1068
.LBE920:
	.loc 1 238 2 is_stmt 1 view .LVU1069
	.loc 1 239 2 view .LVU1070
	.loc 1 241 2 view .LVU1071
.LBB921:
	.loc 1 242 3 view .LVU1072
.LBB863:
.LBI863:
	.loc 2 1093 19 view .LVU1073
.LBB864:
	.loc 2 1102 2 view .LVU1074
	.loc 2 1102 7 view .LVU1075
	.loc 2 1102 5 view .LVU1076
	.loc 2 1103 2 view .LVU1077
	.loc 2 1103 9 is_stmt 0 view .LVU1078
	mov	r2, #-1
	mov	r3, #-1
	mov	r0, r8
	bl	z_impl_k_sem_take
.LVL82:
	.loc 2 1103 9 view .LVU1079
.LBE864:
.LBE863:
	.loc 1 244 3 is_stmt 1 view .LVU1080
.L33:
	.loc 1 244 10 view .LVU1081
	.loc 1 244 14 is_stmt 0 view .LVU1082
	ldrb	r5, [r4, #172]	@ zero_extendqisi2
	.loc 1 244 10 view .LVU1083
	cmp	r5, #0
	beq	.L36
	.loc 1 249 10 view .LVU1084
	ldr	r3, [r4, #160]
	.loc 1 245 4 is_stmt 1 view .LVU1085
.LVL83:
.LBB865:
.LBI865:
	.file 11 "/home/g/mise-work/zmk-firmware/zmk/zephyr/include/zephyr/arch/common/ffs.h"
	.loc 11 53 59 view .LVU1086
.LBB866:
	.loc 11 56 2 view .LVU1087
	.loc 11 56 2 is_stmt 0 view .LVU1088
.LBE866:
.LBE865:
.LBB867:
.LBB868:
	.loc 1 184 23 view .LVU1089
	str	r7, [r7, #24]
	movs	r0, #0
	movs	r2, #1
	.loc 1 179 31 view .LVU1090
	ldr	r1, [r3, #4]
	.loc 1 180 23 view .LVU1091
	ldr	r6, [r3, #16]
	.loc 1 194 23 view .LVU1092
	str	r2, [r7, #44]
	.loc 1 184 23 view .LVU1093
	movs	r3, #2
	.loc 1 194 23 view .LVU1094
	strd	r2, r0, [r7, #36]
	adds	r2, r7, #4
	strd	r2, r3, [r7, #48]
.LBE868:
.LBE867:
	.loc 1 245 12 view .LVU1095
	rbit	r5, r5
.LBB881:
.LBB877:
	.loc 1 204 27 view .LVU1096
	add	r2, r7, #24
	strd	r2, r3, [r7, #8]
.LBE877:
.LBE881:
	.loc 1 245 12 view .LVU1097
	clz	r5, r5
.LVL84:
	.loc 1 247 4 is_stmt 1 view .LVU1098
.LBB882:
	.loc 1 247 9 view .LVU1099
.LBE882:
	.loc 1 247 7 view .LVU1100
	.loc 1 249 4 view .LVU1101
.LBB883:
.LBI867:
	.loc 1 176 12 view .LVU1102
.LBB878:
	.loc 1 179 2 view .LVU1103
	.loc 1 180 2 view .LVU1104
	.loc 1 181 2 view .LVU1105
	.loc 1 182 2 view .LVU1106
	.loc 1 183 2 view .LVU1107
	.loc 1 184 2 view .LVU1108
	.loc 1 204 2 view .LVU1109
	.loc 1 208 2 view .LVU1110
	.loc 1 208 27 is_stmt 0 view .LVU1111
	add	r2, r7, #40
	strd	r2, r3, [r7, #16]
	.loc 1 217 2 is_stmt 1 view .LVU1112
	.loc 1 184 23 is_stmt 0 view .LVU1113
	strd	r3, r0, [r7, #28]
	.loc 1 217 14 view .LVU1114
	lsr	r3, r5, r3
	orr	r2, r3, #4
	strb	r2, [r7]
	.loc 1 218 2 is_stmt 1 view .LVU1115
	.loc 1 218 24 is_stmt 0 view .LVU1116
	lsls	r2, r5, #6
	.loc 1 218 14 view .LVU1117
	strb	r2, [r7, #1]
	.loc 1 220 2 is_stmt 1 view .LVU1118
	.loc 1 220 11 is_stmt 0 view .LVU1119
	ldrb	r2, [r6, #173]	@ zero_extendqisi2
.LBB869:
.LBB870:
	.loc 5 770 28 view .LVU1120
	ldr	r0, [r1], #4
.LVL85:
	.loc 5 770 28 view .LVU1121
.LBE870:
.LBE869:
	.loc 1 220 48 view .LVU1122
	lsrs	r2, r2, r5
	.loc 1 220 5 view .LVU1123
	lsls	r2, r2, #31
	.loc 1 221 3 is_stmt 1 view .LVU1124
	.loc 1 221 15 is_stmt 0 view .LVU1125
	itt	pl
	orrpl	r3, r3, #6
	strbpl	r3, [r7]
	.loc 1 224 2 is_stmt 1 view .LVU1126
.LVL86:
.LBB876:
.LBI869:
	.loc 5 766 19 view .LVU1127
.LBB875:
	.loc 5 770 2 view .LVU1128
.LBB871:
.LBI871:
	.file 12 "/home/g/mise-work/zmk-firmware/zmk/app/build/zephyr/include/generated/syscalls/spi.h"
	.loc 12 26 19 view .LVU1129
.LBB872:
	.loc 12 37 2 view .LVU1130
	.loc 12 37 7 view .LVU1131
	.loc 12 37 5 view .LVU1132
	.loc 12 38 2 view .LVU1133
.LVL87:
.LBB873:
.LBI873:
	.loc 5 736 19 view .LVU1134
.LBB874:
	.loc 5 741 2 view .LVU1135
	.loc 5 743 2 view .LVU1136
	.loc 5 745 2 view .LVU1137
	.loc 5 745 11 is_stmt 0 view .LVU1138
	ldr	r3, [r0, #8]
	.loc 5 745 8 view .LVU1139
	add	r2, r7, #8
.LVL88:
	.loc 5 745 8 view .LVU1140
	ldr	r6, [r3]
.LVL89:
	.loc 5 745 8 view .LVU1141
	add	r3, r7, #16
.LVL90:
	.loc 5 745 8 view .LVU1142
	blx	r6
.LVL91:
	.loc 5 746 2 is_stmt 1 view .LVU1143
	.loc 5 748 2 view .LVU1144
	.loc 5 748 2 is_stmt 0 view .LVU1145
.LBE874:
.LBE873:
.LBE872:
.LBE871:
.LBE875:
.LBE876:
	.loc 1 225 2 is_stmt 1 view .LVU1146
	.loc 1 225 5 is_stmt 0 view .LVU1147
	mov	r6, r0
	cmp	r0, #0
	beq	.L35
.LVL92:
	.loc 1 225 5 view .LVU1148
.LBE878:
.LBE883:
	.loc 1 250 4 is_stmt 1 view .LVU1149
	.loc 1 251 5 view .LVU1150
.LBB884:
	.loc 1 251 10 view .LVU1151
	.loc 1 251 59 view .LVU1152
	.loc 1 251 16 view .LVU1153
	.loc 1 251 4 view .LVU1154
	.loc 1 251 43 view .LVU1155
	.loc 1 251 178 view .LVU1156
	.loc 1 251 189 view .LVU1157
	.loc 1 251 277 view .LVU1158
.LBB857:
	.loc 1 251 5 view .LVU1159
	.loc 1 251 7 view .LVU1160
	.loc 1 251 41 view .LVU1161
	.loc 1 251 5 view .LVU1162
.LBB851:
	.loc 1 251 10 view .LVU1163
	.loc 1 251 4 view .LVU1164
.LBE851:
.LBE857:
.LBE884:
.LBE921:
	.loc 1 251 5 view .LVU1165
	.loc 1 251 14 view .LVU1166
	.loc 1 251 109 view .LVU1167
	.loc 1 251 5 view .LVU1168
.LBB922:
.LBB885:
.LBB858:
.LBB852:
	.loc 1 251 14 view .LVU1169
	.loc 1 251 104 view .LVU1170
	.loc 1 251 106 view .LVU1171
.LBB846:
	.loc 1 251 109 is_stmt 0 view .LVU1172
	mov	fp, sp
	.loc 1 251 111 is_stmt 1 view .LVU1173
	.loc 1 251 122 view .LVU1174
.LVL93:
	.loc 1 251 211 view .LVU1175
	.loc 1 251 28 view .LVU1176
.LBE846:
.LBE852:
.LBE858:
.LBE885:
.LBE922:
	.loc 1 251 5 view .LVU1177
	.loc 1 251 370 view .LVU1178
	.loc 1 251 77 view .LVU1179
	.loc 1 251 4 view .LVU1180
	.loc 1 251 4 view .LVU1181
	.loc 1 251 4 view .LVU1182
	.loc 1 251 40 view .LVU1183
	.loc 1 251 6 view .LVU1184
	.loc 1 251 32 view .LVU1185
	.loc 1 251 58 view .LVU1186
	.loc 1 251 971 view .LVU1187
	.loc 1 251 1033 view .LVU1188
	.loc 1 251 2020 view .LVU1189
	.loc 1 251 2085 view .LVU1190
	.loc 1 251 2110 view .LVU1191
	.loc 1 251 2111 view .LVU1192
	.loc 1 251 2113 view .LVU1193
	.loc 1 251 2143 view .LVU1194
	.loc 1 251 2173 view .LVU1195
	.loc 1 251 2205 view .LVU1196
	.loc 1 251 2237 view .LVU1197
	.loc 1 251 2269 view .LVU1198
	.loc 1 251 2466 view .LVU1199
	.loc 1 251 2490 view .LVU1200
	.loc 1 251 2491 view .LVU1201
	.loc 1 251 2493 view .LVU1202
	.loc 1 251 2522 view .LVU1203
	.loc 1 251 2551 view .LVU1204
	.loc 1 251 2582 view .LVU1205
	.loc 1 251 2613 view .LVU1206
	.loc 1 251 2644 view .LVU1207
	.loc 1 251 2851 view .LVU1208
	.loc 1 251 6 view .LVU1209
	.loc 1 251 24 view .LVU1210
	.loc 1 251 44 view .LVU1211
	.loc 1 251 6 view .LVU1212
	.loc 1 251 44 view .LVU1213
	.loc 1 251 15 view .LVU1214
	.loc 1 251 15 view .LVU1215
	.loc 1 251 63 view .LVU1216
	.loc 1 251 94 view .LVU1217
	.loc 1 251 128 view .LVU1218
	.loc 1 251 133 view .LVU1219
	.loc 1 251 391 view .LVU1220
	.loc 1 251 1476 view .LVU1221
	.loc 1 251 1541 view .LVU1222
	.loc 1 251 1565 view .LVU1223
	.loc 1 251 1627 view .LVU1224
	.loc 1 251 1638 view .LVU1225
	.loc 1 251 1758 view .LVU1226
	.loc 1 251 1774 view .LVU1227
	.loc 1 251 1814 view .LVU1228
	.loc 1 251 1839 view .LVU1229
	.loc 1 251 3144 view .LVU1230
	.loc 1 251 3185 view .LVU1231
	.loc 1 251 9 view .LVU1232
	.loc 1 251 32 view .LVU1233
	.loc 1 251 131 view .LVU1234
	.loc 1 251 8 view .LVU1235
	.loc 1 251 13 view .LVU1236
	.loc 1 251 238 view .LVU1237
	.loc 1 251 1191 view .LVU1238
	.loc 1 251 1256 view .LVU1239
	.loc 1 251 1280 view .LVU1240
	.loc 1 251 1309 view .LVU1241
	.loc 1 251 1320 view .LVU1242
	.loc 1 251 1407 view .LVU1243
	.loc 1 251 1423 view .LVU1244
	.loc 1 251 1463 view .LVU1245
	.loc 1 251 2727 view .LVU1246
	.loc 1 251 2768 view .LVU1247
	.loc 1 251 9 view .LVU1248
	.loc 1 251 32 view .LVU1249
	.loc 1 251 11 view .LVU1250
	.loc 1 251 8 view .LVU1251
	.loc 1 251 13 view .LVU1252
	.loc 1 251 238 view .LVU1253
	.loc 1 251 1191 view .LVU1254
	.loc 1 251 1256 view .LVU1255
	.loc 1 251 1280 view .LVU1256
	.loc 1 251 1309 view .LVU1257
	.loc 1 251 1320 view .LVU1258
	.loc 1 251 1407 view .LVU1259
	.loc 1 251 1423 view .LVU1260
	.loc 1 251 1463 view .LVU1261
	.loc 1 251 2727 view .LVU1262
	.loc 1 251 2768 view .LVU1263
	.loc 1 251 9 view .LVU1264
	.loc 1 251 32 view .LVU1265
	.loc 1 251 11 view .LVU1266
	.loc 1 251 7 view .LVU1267
	.loc 1 251 30 view .LVU1268
	.loc 1 251 54 view .LVU1269
	.loc 1 251 82 view .LVU1270
	.loc 1 251 258 view .LVU1271
	.loc 1 251 18 view .LVU1272
.LBB923:
.LBB886:
.LBB859:
.LBB853:
.LBB847:
	.loc 1 251 31 view .LVU1273
	.loc 1 251 5 view .LVU1274
	.loc 1 251 5 view .LVU1275
	.loc 1 251 72 view .LVU1276
	.loc 1 251 84 is_stmt 0 view .LVU1277
	sub	sp, sp, #32
	mov	r2, sp
.LVL94:
	.loc 1 251 76 is_stmt 1 view .LVU1278
	.loc 1 251 486 view .LVU1279
	.loc 1 251 7 view .LVU1280
	.loc 1 251 9 view .LVU1281
	.loc 1 251 14 view .LVU1282
	.loc 1 251 12 view .LVU1283
	.loc 1 251 7 view .LVU1284
	.loc 1 251 25 view .LVU1285
.LBB842:
	.loc 1 251 5 view .LVU1286
	.loc 1 251 370 view .LVU1287
	.loc 1 251 77 view .LVU1288
.LVL95:
	.loc 1 251 4 view .LVU1289
	.loc 1 251 4 view .LVU1290
	.loc 1 251 4 view .LVU1291
	.loc 1 251 40 view .LVU1292
	.loc 1 251 69 view .LVU1293
	.loc 1 251 95 view .LVU1294
	.loc 1 251 121 view .LVU1295
	.loc 1 251 1034 view .LVU1296
	.loc 1 251 1096 view .LVU1297
	.loc 1 251 2083 view .LVU1298
	.loc 1 251 2148 view .LVU1299
	.loc 1 251 2173 view .LVU1300
	.loc 1 251 2174 view .LVU1301
	.loc 1 251 2176 view .LVU1302
	.loc 1 251 2206 view .LVU1303
	.loc 1 251 2236 view .LVU1304
	.loc 1 251 2268 view .LVU1305
	.loc 1 251 2300 view .LVU1306
	.loc 1 251 2332 view .LVU1307
	.loc 1 251 2529 view .LVU1308
	.loc 1 251 2553 view .LVU1309
	.loc 1 251 2554 view .LVU1310
	.loc 1 251 2556 view .LVU1311
	.loc 1 251 2585 view .LVU1312
	.loc 1 251 2614 view .LVU1313
	.loc 1 251 2645 view .LVU1314
	.loc 1 251 2676 view .LVU1315
	.loc 1 251 2707 view .LVU1316
	.loc 1 251 2914 view .LVU1317
.LBB833:
	.loc 1 251 3182 view .LVU1318
	.loc 1 251 3187 view .LVU1319
	.loc 1 251 3829 view .LVU1320
.LBE833:
.LBB834:
	.loc 1 251 178 is_stmt 0 view .LVU1321
	movs	r3, #4
.LBE834:
.LBB835:
	.loc 1 251 3813 view .LVU1322
	strd	r9, r5, [r2, #20]
	.loc 1 251 2768 is_stmt 1 view .LVU1323
	.loc 1 251 9 view .LVU1324
.LVL96:
	.loc 1 251 32 view .LVU1325
	.loc 1 251 32 is_stmt 0 view .LVU1326
.LBE835:
	.loc 1 251 11 is_stmt 1 view .LVU1327
	.loc 1 251 8 view .LVU1328
.LBB836:
	.loc 1 251 13 view .LVU1329
	.loc 1 251 238 view .LVU1330
	.loc 1 251 1191 view .LVU1331
	.loc 1 251 1256 view .LVU1332
.LBE836:
.LBE842:
.LBE847:
.LBE853:
.LBE859:
.LBE886:
.LBE923:
	.loc 1 251 1280 view .LVU1333
	.loc 1 251 1309 view .LVU1334
	.loc 1 251 1320 view .LVU1335
	.loc 1 251 1407 view .LVU1336
.LBB924:
.LBB887:
.LBB860:
.LBB854:
.LBB848:
.LBB843:
.LBB837:
	.loc 1 251 1423 view .LVU1337
	.loc 1 251 1463 view .LVU1338
	.loc 1 251 2727 view .LVU1339
	.loc 1 251 2765 view .LVU1340
	.loc 1 251 2770 view .LVU1341
	.loc 1 251 3214 view .LVU1342
	.loc 1 251 3813 is_stmt 0 view .LVU1343
	str	r0, [r2, #28]
	.loc 1 251 2768 is_stmt 1 view .LVU1344
	.loc 1 251 9 view .LVU1345
.LVL97:
	.loc 1 251 32 view .LVU1346
	.loc 1 251 32 is_stmt 0 view .LVU1347
.LBE837:
	.loc 1 251 11 is_stmt 1 view .LVU1348
	.loc 1 251 7 view .LVU1349
	.loc 1 251 30 view .LVU1350
	.loc 1 251 54 view .LVU1351
	.loc 1 251 82 view .LVU1352
.LBE843:
.LBE848:
.LBE854:
.LBE860:
.LBE887:
.LBE924:
	.loc 1 251 8 view .LVU1353
	.loc 1 251 47 view .LVU1354
	.loc 1 251 52 view .LVU1355
	.loc 1 251 82 view .LVU1356
	.loc 1 251 149 view .LVU1357
	.loc 1 251 154 view .LVU1358
	.loc 1 251 184 view .LVU1359
.LBB925:
.LBB888:
.LBB861:
.LBB855:
.LBB849:
.LBB844:
	.loc 1 251 258 view .LVU1360
	.loc 1 251 18 view .LVU1361
.LBB838:
	.loc 1 251 8 view .LVU1362
	.loc 1 251 166 view .LVU1363
	.loc 1 251 168 view .LVU1364
	.loc 1 251 178 is_stmt 0 view .LVU1365
	str	r3, [r2, #16]!
.LVL98:
	.loc 1 251 178 view .LVU1366
.LBE838:
.LBE844:
	.loc 1 251 28 is_stmt 1 view .LVU1367
	.loc 1 251 9 view .LVU1368
	.loc 1 251 149 view .LVU1369
	.loc 1 251 151 view .LVU1370
.LBB845:
.LBI839:
	.loc 8 26 20 view .LVU1371
.LBB841:
	.loc 8 38 2 view .LVU1372
	.loc 8 38 7 view .LVU1373
	.loc 8 38 5 view .LVU1374
	.loc 8 39 2 view .LVU1375
	movs	r3, #0
	mov	r0, r10
.LVL99:
	.loc 8 39 2 is_stmt 0 view .LVU1376
	mov	r1, #8256
	bl	z_impl_z_log_msg_static_create
.LVL100:
	.loc 8 39 2 view .LVU1377
.LBE841:
.LBE845:
.LBE849:
.LBE855:
.LBE861:
.LBE888:
.LBB889:
.LBB890:
	.loc 3 209 2 view .LVU1378
	add	r0, r4, #88
.LBE890:
.LBE889:
.LBB892:
.LBB862:
.LBB856:
.LBB850:
	mov	sp, fp
.LVL101:
	.loc 3 209 2 view .LVU1379
.LBE850:
	.loc 1 251 109 is_stmt 1 view .LVU1380
	.loc 1 251 7 view .LVU1381
	.loc 1 251 44 view .LVU1382
.LBE856:
	.loc 1 251 8 view .LVU1383
.LBE862:
	.loc 1 251 280 view .LVU1384
	.loc 1 251 7 view .LVU1385
	.loc 1 251 20 view .LVU1386
.LBE892:
	.loc 1 251 8 view .LVU1387
	.loc 1 253 5 view .LVU1388
.LBB893:
.LBI889:
	.loc 3 184 20 view .LVU1389
.LBB891:
	.loc 3 206 2 view .LVU1390
	.loc 3 207 3 view .LVU1391
	.loc 3 207 15 is_stmt 0 view .LVU1392
	str	r6, [r4, #112]
	.loc 3 209 2 is_stmt 1 view .LVU1393
	bl	k_sem_give
.LVL102:
.L36:
	.loc 3 209 2 is_stmt 0 view .LVU1394
.LBE891:
.LBE893:
	.loc 1 264 3 is_stmt 1 view .LVU1395
.LBB894:
.LBB895:
	.loc 3 241 5 is_stmt 0 view .LVU1396
	ldr	r3, [r4, #116]
.LBE895:
.LBE894:
	.loc 1 264 3 view .LVU1397
	ldr	r0, [r4, #160]
.LVL103:
.LBB915:
.LBI894:
	.loc 3 238 20 is_stmt 1 view .LVU1398
.LBB913:
	.loc 3 241 2 view .LVU1399
	.loc 3 241 5 is_stmt 0 view .LVU1400
	cmp	r3, #0
	beq	.L39
.LBB896:
	.loc 3 242 3 is_stmt 1 view .LVU1401
	.loc 3 242 25 is_stmt 0 view .LVU1402
	ldr	r3, [r4, #140]
.LVL104:
	.loc 3 243 3 is_stmt 1 view .LVU1403
	.loc 3 244 2 view .LVU1404
	.loc 3 245 2 view .LVU1405
	.loc 3 247 3 view .LVU1406
	.loc 3 248 13 is_stmt 0 view .LVU1407
	ldrh	r2, [r4, #152]
	.loc 3 247 6 view .LVU1408
	cbz	r3, .L40
	.loc 3 248 4 is_stmt 1 view .LVU1409
	.loc 3 248 13 is_stmt 0 view .LVU1410
	add	r1, r4, #116
	blx	r3
.LVL105:
	.loc 3 255 3 is_stmt 1 view .LVU1411
	cmp	r0, #1
	beq	.L41
	cmp	r0, #2
	beq	.L42
.LVL106:
.L40:
	.loc 3 263 4 view .LVU1412
	.loc 3 263 11 is_stmt 0 view .LVU1413
	ldrh	r3, [r4, #152]
	.loc 3 263 7 view .LVU1414
	ldrh	r2, [r4, #148]
	cmp	r2, r3
	bls	.L42
	.loc 3 265 5 is_stmt 1 view .LVU1415
	adds	r3, r3, #1
	strh	r3, [r4, #152]	@ movhi
	.loc 3 271 3 view .LVU1416
.LVL107:
.L43:
	.loc 3 279 4 view .LVU1417
	.loc 3 279 7 is_stmt 0 view .LVU1418
	ldr	r3, [r4, #136]
	cbnz	r3, .L44
.L59:
	.loc 3 282 5 is_stmt 1 view .LVU1419
.LVL108:
.LBB897:
.LBI897:
	.loc 1 156 13 view .LVU1420
.LBB898:
	.loc 1 158 2 view .LVU1421
	.loc 1 160 2 view .LVU1422
	.loc 1 160 17 is_stmt 0 view .LVU1423
	ldr	r3, [r4, #120]
	strb	r3, [r4, #172]
	.loc 1 161 2 is_stmt 1 view .LVU1424
	.loc 1 161 22 is_stmt 0 view .LVU1425
	ldr	r3, [r4, #164]
	str	r3, [r4, #168]
	.loc 1 163 2 is_stmt 1 view .LVU1426
	mov	r0, r8
.LVL109:
.L58:
	.loc 1 163 2 is_stmt 0 view .LVU1427
.LBE898:
.LBE897:
.LBE896:
.LBB908:
.LBB909:
	.loc 3 209 2 view .LVU1428
	bl	k_sem_give
.LVL110:
	.loc 3 209 2 view .LVU1429
.LBE909:
.LBE908:
.LBE913:
.LBE915:
.LBE925:
	.loc 1 241 8 is_stmt 1 view .LVU1430
	.loc 1 241 14 is_stmt 0 view .LVU1431
	b	.L47
.LVL111:
.L35:
.LBB926:
.LBB916:
.LBB879:
	.loc 1 229 2 is_stmt 1 view .LVU1432
	.loc 1 230 2 view .LVU1433
	ldrh	r3, [r7, #4]
.LBE879:
.LBE916:
	.loc 1 260 9 is_stmt 0 view .LVU1434
	ldr	r2, [r4, #164]
	rev16	r3, r3
	ubfx	r3, r3, #0, #12
.LVL112:
.LBB917:
.LBB880:
	.loc 1 232 2 is_stmt 1 view .LVU1435
	.loc 1 232 2 is_stmt 0 view .LVU1436
.LBE880:
.LBE917:
	.loc 1 250 4 is_stmt 1 view .LVU1437
	.loc 1 257 4 view .LVU1438
.LBB918:
	.loc 1 257 9 view .LVU1439
.LBE918:
	.loc 1 257 7 view .LVU1440
	.loc 1 260 4 view .LVU1441
	.loc 1 260 17 is_stmt 0 view .LVU1442
	adds	r1, r2, #2
	str	r1, [r4, #164]
	.loc 1 260 20 view .LVU1443
	strh	r3, [r2]	@ movhi
	.loc 1 261 4 is_stmt 1 view .LVU1444
	.loc 1 261 70 is_stmt 0 view .LVU1445
	ldrb	r3, [r4, #172]	@ zero_extendqisi2
.LVL113:
	.loc 1 261 98 view .LVU1446
	movs	r2, #1
.LVL114:
	.loc 1 261 98 view .LVU1447
	lsls	r2, r2, r5
	.loc 1 261 70 view .LVU1448
	bic	r3, r3, r2
	.loc 1 261 22 view .LVU1449
	strb	r3, [r4, #172]
.LVL115:
	.loc 1 261 22 view .LVU1450
	b	.L33
.LVL116:
.L41:
.LBB919:
.LBB914:
.LBB911:
	.loc 3 271 3 is_stmt 1 view .LVU1451
	.loc 3 272 4 view .LVU1452
.LBB899:
.LBI899:
	.loc 1 166 13 view .LVU1453
.LBB900:
	.loc 1 169 2 view .LVU1454
	.loc 1 171 2 view .LVU1455
	.loc 1 172 3 view .LVU1456
	.loc 1 172 16 is_stmt 0 view .LVU1457
	ldr	r3, [r4, #168]
	str	r3, [r4, #164]
	b	.L43
.LVL117:
.L44:
	.loc 1 172 16 view .LVU1458
.LBE900:
.LBE899:
	.loc 3 281 11 is_stmt 1 view .LVU1459
.LBB901:
.LBI901:
	.loc 4 141 28 view .LVU1460
	.loc 4 143 2 view .LVU1461
.LBB902:
.LBI902:
	.loc 4 105 28 view .LVU1462
.LBB903:
	.loc 4 107 2 view .LVU1463
	.loc 4 107 9 is_stmt 0 view .LVU1464
	dmb	ish
.L57:
	ldrex	r3, [r4]
	subs	r2, r3, #1
	strex	r1, r2, [r4]
	cmp	r1, #0
	bne	.L57
	dmb	ish
.LVL118:
	.loc 4 107 9 view .LVU1465
.LBE903:
.LBE902:
.LBE901:
	.loc 3 281 14 view .LVU1466
	cmp	r3, #1
	ble	.L47
	b	.L59
.LVL119:
.L42:
	.loc 3 288 3 is_stmt 1 view .LVU1467
	.loc 3 288 6 is_stmt 0 view .LVU1468
	ldr	r3, [r4, #136]
	cbz	r3, .L39
	.loc 3 289 4 is_stmt 1 view .LVU1469
.LVL120:
.LBB904:
.LBI904:
	.loc 3 123 20 view .LVU1470
.LBB905:
	.loc 3 125 2 view .LVU1471
.LBB906:
.LBI906:
	.loc 2 480 20 view .LVU1472
.LBB907:
	.loc 2 489 2 view .LVU1473
	.loc 2 489 7 view .LVU1474
	.loc 2 489 5 view .LVU1475
	.loc 2 490 2 view .LVU1476
	add	r0, r4, #8
.LVL121:
	.loc 2 490 2 is_stmt 0 view .LVU1477
	bl	z_impl_k_timer_stop
.LVL122:
.L39:
	.loc 2 490 2 view .LVU1478
.LBE907:
.LBE906:
.LBE905:
.LBE904:
.LBE911:
	.loc 3 293 2 is_stmt 1 view .LVU1479
.LBB912:
.LBI908:
	.loc 3 184 20 view .LVU1480
.LBB910:
	.loc 3 206 2 view .LVU1481
	.loc 3 209 2 view .LVU1482
	add	r0, r4, #88
	b	.L58
.L61:
	.align	2
.L60:
	.word	.LC5
	.word	log_const_adc_mcp320x
.LBE910:
.LBE912:
.LBE914:
.LBE919:
.LBE926:
	.cfi_endproc
.LFE643:
	.size	mcp320x_acquisition_thread, .-mcp320x_acquisition_thread
	.section	.rodata.mcp320x_read.str1.1,"aMS",%progbits,1
.LC6:
	.ascii	"unsupported resolution %d\000"
.LC7:
	.ascii	"unsupported channels in mask: 0x%08x\000"
.LC8:
	.ascii	"buffer size too small\000"
	.global	__aeabi_uldivmod
	.global	__aeabi_ldivmod
	.section	.text.mcp320x_read,"ax",%progbits
	.align	1
	.syntax unified
	.thumb
	.thumb_func
	.type	mcp320x_read, %function
mcp320x_read:
.LVL123:
.LFB639:
	.loc 1 152 1 view -0
	.cfi_startproc
	@ args = 0, pretend = 0, frame = 24
	@ frame_needed = 1, uses_anonymous_args = 0
	.loc 1 153 2 view .LVU1484
	.loc 1 152 1 is_stmt 0 view .LVU1485
	push	{r4, r5, r6, r7, r8, lr}
	.cfi_def_cfa_offset 24
	.cfi_offset 4, -24
	.cfi_offset 5, -20
	.cfi_offset 6, -16
	.cfi_offset 7, -12
	.cfi_offset 8, -8
	.cfi_offset 14, -4
	sub	sp, sp, #32
	.cfi_def_cfa_offset 56
.LBB985:
.LBB986:
.LBB987:
.LBB988:
	.loc 3 141 2 view .LVU1486
	ldr	r6, [r0, #16]
.LBE988:
.LBE987:
.LBE986:
.LBE985:
	.loc 1 152 1 view .LVU1487
	add	r7, sp, #8
	.cfi_def_cfa 7, 48
	.loc 1 152 1 view .LVU1488
	mov	r4, r0
	mov	r5, r1
.LVL124:
.LBB1062:
.LBI985:
	.loc 1 136 12 is_stmt 1 view .LVU1489
.LBB1060:
	.loc 1 140 2 view .LVU1490
	.loc 1 141 2 view .LVU1491
	.loc 1 143 2 view .LVU1492
.LBB992:
.LBI987:
	.loc 3 137 20 view .LVU1493
.LBB991:
	.loc 3 141 2 view .LVU1494
	adds	r6, r6, #64
.LVL125:
.LBB989:
.LBI989:
	.loc 2 1093 19 view .LVU1495
.LBB990:
	.loc 2 1102 2 view .LVU1496
	.loc 2 1102 7 view .LVU1497
	.loc 2 1102 5 view .LVU1498
	.loc 2 1103 2 view .LVU1499
	.loc 2 1103 9 is_stmt 0 view .LVU1500
	mov	r2, #-1
	mov	r3, #-1
	mov	r0, r6
.LVL126:
	.loc 2 1103 9 view .LVU1501
	bl	z_impl_k_sem_take
.LVL127:
	.loc 2 1103 9 view .LVU1502
.LBE990:
.LBE989:
.LBE991:
.LBE992:
	.loc 1 144 2 is_stmt 1 view .LVU1503
.LBB993:
.LBI993:
	.loc 1 106 12 view .LVU1504
.LBB994:
	.loc 1 109 2 view .LVU1505
	.loc 1 113 14 is_stmt 0 view .LVU1506
	ldrb	r3, [r5, #16]	@ zero_extendqisi2
	.loc 1 109 31 view .LVU1507
	ldr	r2, [r4, #4]
.LVL128:
	.loc 1 110 2 is_stmt 1 view .LVU1508
	.loc 1 110 23 is_stmt 0 view .LVU1509
	ldr	r4, [r4, #16]
.LVL129:
	.loc 1 111 2 is_stmt 1 view .LVU1510
	.loc 1 113 2 view .LVU1511
	.loc 1 113 5 is_stmt 0 view .LVU1512
	cmp	r3, #12
	beq	.L63
	.loc 1 114 3 is_stmt 1 view .LVU1513
.LBB995:
	.loc 1 114 8 view .LVU1514
	.loc 1 114 57 view .LVU1515
	.loc 1 114 14 view .LVU1516
	.loc 1 114 2 view .LVU1517
.LVL130:
	.loc 1 114 41 view .LVU1518
	.loc 1 114 176 view .LVU1519
	.loc 1 114 187 view .LVU1520
	.loc 1 114 275 view .LVU1521
.LBB996:
	.loc 1 114 3 view .LVU1522
	.loc 1 114 5 view .LVU1523
	.loc 1 114 3 view .LVU1524
.LBB997:
	.loc 1 114 8 view .LVU1525
	.loc 1 114 2 view .LVU1526
	.loc 1 114 12 view .LVU1527
	.loc 1 114 102 view .LVU1528
	.loc 1 114 104 view .LVU1529
.LBB998:
	.loc 1 114 107 is_stmt 0 view .LVU1530
	mov	r4, sp
.LVL131:
	.loc 1 114 109 is_stmt 1 view .LVU1531
	.loc 1 114 120 view .LVU1532
	.loc 1 114 209 view .LVU1533
	.loc 1 114 26 view .LVU1534
	.loc 1 114 29 view .LVU1535
	.loc 1 114 3 view .LVU1536
	.loc 1 114 3 view .LVU1537
	.loc 1 114 70 view .LVU1538
	.loc 1 114 82 is_stmt 0 view .LVU1539
	sub	sp, sp, #32
	add	r2, sp, #8
.LVL132:
	.loc 1 114 74 is_stmt 1 view .LVU1540
	.loc 1 114 484 view .LVU1541
	.loc 1 114 5 view .LVU1542
	.loc 1 114 7 view .LVU1543
	.loc 1 114 12 view .LVU1544
	.loc 1 114 10 view .LVU1545
	.loc 1 114 5 view .LVU1546
	.loc 1 114 23 view .LVU1547
.LBB999:
	.loc 1 114 3 view .LVU1548
	.loc 1 114 368 view .LVU1549
	.loc 1 114 75 view .LVU1550
.LVL133:
	.loc 1 114 2 view .LVU1551
	.loc 1 114 2 view .LVU1552
	.loc 1 114 2 view .LVU1553
	.loc 1 114 38 view .LVU1554
	.loc 1 114 67 view .LVU1555
	.loc 1 114 93 view .LVU1556
	.loc 1 114 119 view .LVU1557
	.loc 1 114 586 view .LVU1558
	.loc 1 114 648 view .LVU1559
	.loc 1 114 1169 view .LVU1560
	.loc 1 114 1234 view .LVU1561
	.loc 1 114 1259 view .LVU1562
	.loc 1 114 1260 view .LVU1563
	.loc 1 114 1262 view .LVU1564
	.loc 1 114 1292 view .LVU1565
	.loc 1 114 1322 view .LVU1566
	.loc 1 114 1354 view .LVU1567
	.loc 1 114 1386 view .LVU1568
	.loc 1 114 1418 view .LVU1569
	.loc 1 114 1615 view .LVU1570
	.loc 1 114 1639 view .LVU1571
	.loc 1 114 1640 view .LVU1572
	.loc 1 114 1642 view .LVU1573
	.loc 1 114 1671 view .LVU1574
	.loc 1 114 1700 view .LVU1575
	.loc 1 114 1731 view .LVU1576
	.loc 1 114 1762 view .LVU1577
	.loc 1 114 1793 view .LVU1578
	.loc 1 114 2000 view .LVU1579
.LBB1000:
	.loc 1 114 3099 view .LVU1580
	.loc 1 114 3104 view .LVU1581
	.loc 1 114 3692 view .LVU1582
	.loc 1 114 0 is_stmt 0 view .LVU1583
	ldr	r1, .L94
.LBE1000:
.LBE999:
.LBE998:
.LBE997:
	.loc 1 114 17 view .LVU1584
	strd	r1, r3, [r2, #20]
.LBB1005:
.LBB1004:
.LBB1003:
.LBB1001:
	.loc 1 114 2766 is_stmt 1 view .LVU1585
	.loc 1 114 7 view .LVU1586
.LVL134:
	.loc 1 114 30 view .LVU1587
	.loc 1 114 30 is_stmt 0 view .LVU1588
.LBE1001:
	.loc 1 114 9 is_stmt 1 view .LVU1589
	.loc 1 114 5 view .LVU1590
	.loc 1 114 28 view .LVU1591
	.loc 1 114 52 view .LVU1592
	.loc 1 114 80 view .LVU1593
	.loc 1 114 256 view .LVU1594
	.loc 1 114 16 view .LVU1595
.LBB1002:
	.loc 1 114 6 view .LVU1596
	.loc 1 114 164 view .LVU1597
	.loc 1 114 166 view .LVU1598
.L93:
	.loc 1 114 166 is_stmt 0 view .LVU1599
.LBE1002:
.LBE1003:
.LBE1004:
.LBE1005:
.LBE996:
.LBE995:
.LBB1006:
.LBB1007:
.LBB1008:
.LBB1009:
.LBB1010:
.LBB1011:
	.loc 1 119 2766 is_stmt 1 view .LVU1600
	.loc 1 119 7 view .LVU1601
	.loc 1 119 30 view .LVU1602
	.loc 1 119 30 is_stmt 0 view .LVU1603
.LBE1011:
	.loc 1 119 9 is_stmt 1 view .LVU1604
	.loc 1 119 5 view .LVU1605
	.loc 1 119 28 view .LVU1606
	.loc 1 119 52 view .LVU1607
	.loc 1 119 80 view .LVU1608
	.loc 1 119 256 view .LVU1609
	.loc 1 119 16 view .LVU1610
.LBB1012:
	.loc 1 119 6 view .LVU1611
	.loc 1 119 164 view .LVU1612
	.loc 1 119 166 view .LVU1613
	.loc 1 119 176 is_stmt 0 view .LVU1614
	movs	r3, #3
	str	r3, [r2, #16]!
.LVL135:
	.loc 1 119 176 view .LVU1615
.LBE1012:
.LBE1010:
	.loc 1 119 26 is_stmt 1 view .LVU1616
	.loc 1 119 7 view .LVU1617
	.loc 1 119 147 view .LVU1618
	.loc 1 119 149 view .LVU1619
.LBB1015:
.LBI1015:
	.loc 8 26 20 view .LVU1620
.LBB1016:
	.loc 8 38 2 view .LVU1621
	.loc 8 38 7 view .LVU1622
	.loc 8 38 5 view .LVU1623
	.loc 8 39 2 view .LVU1624
	ldr	r0, .L94+4
	movs	r3, #0
	mov	r1, #6208
	bl	z_impl_z_log_msg_static_create
.LVL136:
	.loc 8 39 2 is_stmt 0 view .LVU1625
.LBE1016:
.LBE1015:
	mov	sp, r4
.LBE1009:
	.loc 1 119 107 is_stmt 1 view .LVU1626
	.loc 1 119 5 view .LVU1627
.LVL137:
	.loc 1 119 42 view .LVU1628
.LBE1008:
	.loc 1 119 6 view .LVU1629
.LBE1007:
	.loc 1 119 278 view .LVU1630
	.loc 1 119 5 view .LVU1631
	.loc 1 119 18 view .LVU1632
.LBE1006:
	.loc 1 119 6 view .LVU1633
	.loc 1 121 3 view .LVU1634
	.loc 1 115 10 is_stmt 0 view .LVU1635
	mvn	r4, #133
.LVL138:
.L68:
	.loc 1 115 10 view .LVU1636
.LBE994:
.LBE993:
	.loc 1 145 2 is_stmt 1 view .LVU1637
.LBB1057:
.LBI1057:
	.loc 3 149 20 view .LVU1638
.LBB1058:
	.loc 3 157 2 view .LVU1639
	mov	r0, r6
	bl	k_sem_give
.LVL139:
	.loc 3 157 2 is_stmt 0 view .LVU1640
.LBE1058:
.LBE1057:
	.loc 1 147 2 is_stmt 1 view .LVU1641
	.loc 1 147 2 is_stmt 0 view .LVU1642
.LBE1060:
.LBE1062:
	.loc 1 154 1 view .LVU1643
	mov	r0, r4
	adds	r7, r7, #24
	.cfi_remember_state
	.cfi_def_cfa_offset 24
	mov	sp, r7
	.cfi_def_cfa_register 13
	@ sp needed
	pop	{r4, r5, r6, r7, r8, pc}
.LVL140:
.L63:
	.cfi_restore_state
.LBB1063:
.LBB1061:
.LBB1059:
.LBB1056:
	.loc 1 118 2 is_stmt 1 view .LVU1644
	.loc 1 118 27 is_stmt 0 view .LVU1645
	ldr	r1, [r5, #4]
.LVL141:
.LBB1021:
.LBI1021:
	.loc 11 31 59 is_stmt 1 view .LVU1646
.LBB1022:
	.loc 11 33 2 view .LVU1647
.LBE1022:
.LBE1021:
	.loc 1 118 47 is_stmt 0 view .LVU1648
	ldrb	r3, [r2, #24]	@ zero_extendqisi2
.LBB1025:
.LBB1023:
	.loc 11 33 5 view .LVU1649
	cbnz	r1, .L65
.LVL142:
.L67:
	.loc 11 33 5 view .LVU1650
.LBE1023:
.LBE1025:
	.loc 1 124 2 is_stmt 1 view .LVU1651
.LBB1026:
.LBI1026:
	.loc 1 80 12 view .LVU1652
.LBB1027:
	.loc 1 83 2 view .LVU1653
	.loc 1 84 2 view .LVU1654
	.loc 1 85 2 view .LVU1655
	.loc 1 86 2 view .LVU1656
	.loc 1 88 2 view .LVU1657
	.loc 1 88 40 is_stmt 0 view .LVU1658
	subs	r3, r3, #1
	.loc 1 88 12 view .LVU1659
	movs	r2, #1
	lsls	r2, r2, r3
.LVL143:
	.loc 1 88 52 is_stmt 1 view .LVU1660
	.loc 1 84 10 is_stmt 0 view .LVU1661
	movs	r3, #0
.LVL144:
.L70:
	.loc 1 89 3 is_stmt 1 view .LVU1662
	.loc 1 89 6 is_stmt 0 view .LVU1663
	tst	r1, r2
	.loc 1 90 4 is_stmt 1 view .LVU1664
	.loc 1 90 12 is_stmt 0 view .LVU1665
	itt	ne
	addne	r3, r3, #1
.LVL145:
	.loc 1 90 12 view .LVU1666
	uxtbne	r3, r3
.LVL146:
	.loc 1 88 63 is_stmt 1 view .LVU1667
	.loc 1 88 52 view .LVU1668
	lsrs	r2, r2, #1
.LVL147:
	.loc 1 88 52 is_stmt 0 view .LVU1669
	bne	.L70
	.loc 1 94 2 is_stmt 1 view .LVU1670
	.loc 1 95 14 is_stmt 0 view .LVU1671
	ldr	r2, [r5]
.LVL148:
	.loc 1 94 9 view .LVU1672
	lsls	r3, r3, #1
.LVL149:
	.loc 1 95 2 is_stmt 1 view .LVU1673
	.loc 1 95 5 is_stmt 0 view .LVU1674
	cbz	r2, .L71
	.loc 1 96 3 is_stmt 1 view .LVU1675
	.loc 1 96 35 is_stmt 0 view .LVU1676
	ldrh	r2, [r2, #12]
	.loc 1 96 10 view .LVU1677
	mla	r3, r2, r3, r3
.LVL150:
.L71:
	.loc 1 99 2 is_stmt 1 view .LVU1678
	.loc 1 99 5 is_stmt 0 view .LVU1679
	ldr	r2, [r5, #12]
	cmp	r2, r3
	bcs	.L72
	.loc 1 100 3 is_stmt 1 view .LVU1680
.LVL151:
	.loc 1 100 3 is_stmt 0 view .LVU1681
.LBE1027:
.LBE1026:
	.loc 1 125 2 is_stmt 1 view .LVU1682
	.loc 1 126 3 view .LVU1683
.LBB1029:
	.loc 1 126 8 view .LVU1684
	.loc 1 126 57 view .LVU1685
	.loc 1 126 14 view .LVU1686
	.loc 1 126 2 view .LVU1687
	.loc 1 126 41 view .LVU1688
	.loc 1 126 176 view .LVU1689
	.loc 1 126 187 view .LVU1690
	.loc 1 126 275 view .LVU1691
	.loc 1 126 3 view .LVU1692
	.loc 1 126 3 view .LVU1693
.LBB1030:
	.loc 1 126 8 view .LVU1694
	.loc 1 126 2 view .LVU1695
	.loc 1 126 12 view .LVU1696
	.loc 1 126 102 view .LVU1697
	.loc 1 126 104 view .LVU1698
.LBB1031:
	.loc 1 126 109 view .LVU1699
	.loc 1 126 120 view .LVU1700
	.loc 1 126 209 view .LVU1701
	.loc 1 126 26 view .LVU1702
	.loc 1 126 29 view .LVU1703
	.loc 1 126 3 view .LVU1704
	.loc 1 126 3 view .LVU1705
	.loc 1 126 70 view .LVU1706
	.loc 1 126 74 view .LVU1707
	.loc 1 126 484 view .LVU1708
	.loc 1 126 5 view .LVU1709
	.loc 1 126 7 view .LVU1710
	.loc 1 126 12 view .LVU1711
	.loc 1 126 10 view .LVU1712
	.loc 1 126 5 view .LVU1713
	.loc 1 126 23 view .LVU1714
.LBB1032:
	.loc 1 126 3 view .LVU1715
	.loc 1 126 368 view .LVU1716
	.loc 1 126 75 view .LVU1717
.LVL152:
	.loc 1 126 2 view .LVU1718
	.loc 1 126 2 view .LVU1719
	.loc 1 126 2 view .LVU1720
	.loc 1 126 38 view .LVU1721
	.loc 1 126 67 view .LVU1722
	.loc 1 126 93 view .LVU1723
	.loc 1 126 119 view .LVU1724
	.loc 1 126 142 view .LVU1725
	.loc 1 126 204 view .LVU1726
	.loc 1 126 261 view .LVU1727
	.loc 1 126 326 view .LVU1728
	.loc 1 126 351 view .LVU1729
	.loc 1 126 352 view .LVU1730
	.loc 1 126 354 view .LVU1731
	.loc 1 126 384 view .LVU1732
	.loc 1 126 414 view .LVU1733
	.loc 1 126 446 view .LVU1734
	.loc 1 126 478 view .LVU1735
	.loc 1 126 510 view .LVU1736
	.loc 1 126 707 view .LVU1737
	.loc 1 126 731 view .LVU1738
	.loc 1 126 732 view .LVU1739
	.loc 1 126 734 view .LVU1740
	.loc 1 126 763 view .LVU1741
	.loc 1 126 792 view .LVU1742
	.loc 1 126 823 view .LVU1743
	.loc 1 126 854 view .LVU1744
	.loc 1 126 885 view .LVU1745
	.loc 1 126 1092 view .LVU1746
	.loc 1 126 4 view .LVU1747
	.loc 1 126 22 view .LVU1748
	.loc 1 126 42 view .LVU1749
	.loc 1 126 4 view .LVU1750
	.loc 1 126 42 view .LVU1751
	.loc 1 126 13 view .LVU1752
	.loc 1 126 13 view .LVU1753
	.loc 1 126 61 view .LVU1754
	.loc 1 126 92 view .LVU1755
	.loc 1 126 126 view .LVU1756
.LBB1033:
	.loc 1 126 131 view .LVU1757
	.loc 1 126 376 view .LVU1758
	.loc 1 126 1409 view .LVU1759
	.loc 1 126 1474 view .LVU1760
	.loc 1 126 1681 view .LVU1761
	.loc 1 126 1721 view .LVU1762
	.loc 1 126 1746 view .LVU1763
	.loc 1 126 3025 view .LVU1764
	.loc 1 126 3063 view .LVU1765
	.loc 1 126 3068 view .LVU1766
	.loc 1 126 3632 view .LVU1767
	.loc 1 126 0 is_stmt 0 view .LVU1768
	ldr	r3, .L94+8
	str	r3, [r7, #20]
	.loc 1 126 3066 is_stmt 1 view .LVU1769
	.loc 1 126 7 view .LVU1770
.LVL153:
	.loc 1 126 30 view .LVU1771
	.loc 1 126 30 is_stmt 0 view .LVU1772
.LBE1033:
	.loc 1 126 129 is_stmt 1 view .LVU1773
	.loc 1 126 5 view .LVU1774
	.loc 1 126 28 view .LVU1775
	.loc 1 126 52 view .LVU1776
	.loc 1 126 80 view .LVU1777
	.loc 1 126 256 view .LVU1778
	.loc 1 126 16 view .LVU1779
.LBB1034:
	.loc 1 126 6 view .LVU1780
	.loc 1 126 164 view .LVU1781
	.loc 1 126 166 view .LVU1782
	.loc 1 126 176 is_stmt 0 view .LVU1783
	movs	r3, #2
	str	r3, [r7, #16]
.LVL154:
	.loc 1 126 176 view .LVU1784
.LBE1034:
.LBE1032:
	.loc 1 126 26 is_stmt 1 view .LVU1785
	.loc 1 126 7 view .LVU1786
	.loc 1 126 147 view .LVU1787
	.loc 1 126 149 view .LVU1788
.LBB1035:
.LBI1035:
	.loc 8 26 20 view .LVU1789
.LBB1036:
	.loc 8 38 2 view .LVU1790
	.loc 8 38 7 view .LVU1791
	.loc 8 38 5 view .LVU1792
	.loc 8 39 2 view .LVU1793
	ldr	r0, .L94+4
	movs	r3, #0
	add	r2, r7, #16
.LVL155:
	.loc 8 39 2 is_stmt 0 view .LVU1794
	mov	r1, #4160
	bl	z_impl_z_log_msg_static_create
.LVL156:
	.loc 8 39 2 view .LVU1795
.LBE1036:
.LBE1035:
.LBE1031:
	.loc 1 126 107 is_stmt 1 view .LVU1796
	.loc 1 126 5 view .LVU1797
.LVL157:
	.loc 1 126 42 view .LVU1798
.LBE1030:
	.loc 1 126 6 view .LVU1799
	.loc 1 126 278 view .LVU1800
	.loc 1 126 5 view .LVU1801
	.loc 1 126 18 view .LVU1802
.LBE1029:
	.loc 1 126 6 view .LVU1803
	.loc 1 127 3 view .LVU1804
.LBB1037:
.LBB1028:
	.loc 1 100 10 is_stmt 0 view .LVU1805
	mvn	r4, #11
.LVL158:
	.loc 1 100 10 view .LVU1806
.LBE1028:
.LBE1037:
	.loc 1 127 10 view .LVU1807
	b	.L68
.LVL159:
.L65:
.LBB1038:
.LBB1024:
	.loc 11 37 2 is_stmt 1 view .LVU1808
	.loc 11 37 14 is_stmt 0 view .LVU1809
	clz	r2, r1
.LVL160:
	.loc 11 37 12 view .LVU1810
	rsb	r2, r2, #32
.LBE1024:
.LBE1038:
	.loc 1 118 5 view .LVU1811
	cmp	r2, r3
	bls	.L67
	.loc 1 119 3 is_stmt 1 view .LVU1812
.LBB1039:
	.loc 1 119 8 view .LVU1813
	.loc 1 119 57 view .LVU1814
	.loc 1 119 14 view .LVU1815
	.loc 1 119 2 view .LVU1816
.LVL161:
	.loc 1 119 41 view .LVU1817
	.loc 1 119 176 view .LVU1818
	.loc 1 119 187 view .LVU1819
	.loc 1 119 275 view .LVU1820
.LBB1020:
	.loc 1 119 3 view .LVU1821
	.loc 1 119 5 view .LVU1822
	.loc 1 119 3 view .LVU1823
.LBB1019:
	.loc 1 119 8 view .LVU1824
	.loc 1 119 2 view .LVU1825
	.loc 1 119 12 view .LVU1826
	.loc 1 119 102 view .LVU1827
	.loc 1 119 104 view .LVU1828
.LBB1018:
	.loc 1 119 107 is_stmt 0 view .LVU1829
	mov	r4, sp
.LVL162:
	.loc 1 119 109 is_stmt 1 view .LVU1830
	.loc 1 119 120 view .LVU1831
	.loc 1 119 209 view .LVU1832
	.loc 1 119 26 view .LVU1833
	.loc 1 119 29 view .LVU1834
	.loc 1 119 3 view .LVU1835
	.loc 1 119 3 view .LVU1836
	.loc 1 119 70 view .LVU1837
	.loc 1 119 82 is_stmt 0 view .LVU1838
	sub	sp, sp, #32
	add	r2, sp, #8
.LVL163:
	.loc 1 119 74 is_stmt 1 view .LVU1839
	.loc 1 119 484 view .LVU1840
	.loc 1 119 5 view .LVU1841
	.loc 1 119 7 view .LVU1842
	.loc 1 119 12 view .LVU1843
	.loc 1 119 10 view .LVU1844
	.loc 1 119 5 view .LVU1845
	.loc 1 119 23 view .LVU1846
.LBB1017:
	.loc 1 119 3 view .LVU1847
	.loc 1 119 368 view .LVU1848
	.loc 1 119 75 view .LVU1849
.LVL164:
	.loc 1 119 2 view .LVU1850
	.loc 1 119 2 view .LVU1851
	.loc 1 119 2 view .LVU1852
	.loc 1 119 38 view .LVU1853
	.loc 1 119 67 view .LVU1854
	.loc 1 119 93 view .LVU1855
	.loc 1 119 119 view .LVU1856
	.loc 1 119 586 view .LVU1857
	.loc 1 119 648 view .LVU1858
	.loc 1 119 1169 view .LVU1859
	.loc 1 119 1234 view .LVU1860
	.loc 1 119 1259 view .LVU1861
	.loc 1 119 1260 view .LVU1862
	.loc 1 119 1262 view .LVU1863
	.loc 1 119 1292 view .LVU1864
	.loc 1 119 1322 view .LVU1865
	.loc 1 119 1354 view .LVU1866
	.loc 1 119 1386 view .LVU1867
	.loc 1 119 1418 view .LVU1868
	.loc 1 119 1615 view .LVU1869
	.loc 1 119 1639 view .LVU1870
	.loc 1 119 1640 view .LVU1871
	.loc 1 119 1642 view .LVU1872
	.loc 1 119 1671 view .LVU1873
	.loc 1 119 1700 view .LVU1874
	.loc 1 119 1731 view .LVU1875
	.loc 1 119 1762 view .LVU1876
	.loc 1 119 1793 view .LVU1877
	.loc 1 119 2000 view .LVU1878
.LBB1013:
	.loc 1 119 3198 view .LVU1879
	.loc 1 119 3203 view .LVU1880
	.loc 1 119 3857 view .LVU1881
	.loc 1 119 0 is_stmt 0 view .LVU1882
	ldr	r3, .L94+12
.LBE1013:
.LBB1014:
	.loc 1 119 3811 view .LVU1883
	strd	r3, r1, [r2, #20]
	b	.L93
.LVL165:
.L72:
	.loc 1 119 3811 view .LVU1884
.LBE1014:
.LBE1017:
.LBE1018:
.LBE1019:
.LBE1020:
.LBE1039:
	.loc 1 125 2 is_stmt 1 view .LVU1885
	.loc 1 130 2 view .LVU1886
	.loc 1 130 25 is_stmt 0 view .LVU1887
	ldr	r8, [r5, #8]
	.loc 1 130 15 view .LVU1888
	str	r8, [r4, #164]
.LVL166:
	.loc 1 131 2 is_stmt 1 view .LVU1889
.LBB1040:
.LBI1040:
	.loc 3 212 20 view .LVU1890
.LBB1041:
	.loc 3 215 2 view .LVU1891
	.loc 3 215 16 is_stmt 0 view .LVU1892
	mov	lr, r5
	ldmia	lr!, {r0, r1, r2, r3}
	add	ip, r4, #116
	stmia	ip!, {r0, r1, r2, r3}
	ldr	r3, [lr]
	str	r3, [ip]
	.loc 3 216 2 is_stmt 1 view .LVU1893
	.loc 3 216 14 is_stmt 0 view .LVU1894
	mov	ip, #0
	str	ip, [r4, #112]
	.loc 3 218 2 is_stmt 1 view .LVU1895
	.loc 3 218 14 is_stmt 0 view .LVU1896
	ldr	r3, [r5]
	.loc 3 218 5 view .LVU1897
	cbz	r3, .L73
	.loc 3 219 3 is_stmt 1 view .LVU1898
	.loc 3 219 16 is_stmt 0 view .LVU1899
	ldm	r3, {r0, r1, r2, r3}
	add	r5, r4, #136
.LVL167:
	.loc 3 219 16 view .LVU1900
	stm	r5, {r0, r1, r2, r3}
	.loc 3 220 3 is_stmt 1 view .LVU1901
	.loc 3 220 25 is_stmt 0 view .LVU1902
	str	r5, [r4, #116]
	.loc 3 221 3 is_stmt 1 view .LVU1903
	.loc 3 221 23 is_stmt 0 view .LVU1904
	strh	ip, [r4, #152]	@ movhi
	.loc 3 223 3 is_stmt 1 view .LVU1905
	.loc 3 223 6 is_stmt 0 view .LVU1906
	cbz	r0, .L73
	.loc 3 224 4 is_stmt 1 view .LVU1907
.LVL168:
.LBB1042:
.LBI1042:
	.loc 4 197 28 view .LVU1908
.LBB1043:
	.loc 4 203 2 view .LVU1909
	.loc 4 203 9 is_stmt 0 view .LVU1910
	dmb	ish
.L92:
	.loc 4 203 9 view .LVU1911
	ldrex	r3, [r4]
	strex	r2, ip, [r4]
	cmp	r2, #0
	bne	.L92
	dmb	ish
.LVL169:
	.loc 4 203 9 view .LVU1912
.LBE1043:
.LBE1042:
	.loc 3 225 4 is_stmt 1 view .LVU1913
.LBB1044:
.LBI1044:
	.loc 3 118 20 view .LVU1914
.LBB1045:
	.loc 3 120 2 view .LVU1915
	.loc 3 120 138 is_stmt 0 view .LVU1916
	ldr	r1, .L94+16
	ldr	r5, [r4, #136]
	.loc 3 120 63 view .LVU1917
	ldr	r2, .L94+20
	.loc 3 120 138 view .LVU1918
	mov	r0, #32768
	.loc 3 120 63 view .LVU1919
	mov	lr, r1
.LVL170:
	.loc 3 120 63 view .LVU1920
	mov	r1, ip
	umlal	lr, r1, r5, r0
	movs	r3, #0
	mov	r0, lr
	bl	__aeabi_uldivmod
.LVL171:
.LBB1046:
.LBI1046:
	.loc 2 461 20 is_stmt 1 view .LVU1921
.LBB1047:
	.loc 2 472 2 view .LVU1922
	.loc 2 472 7 view .LVU1923
	.loc 2 472 5 view .LVU1924
	.loc 2 473 2 view .LVU1925
	movs	r2, #0
	strd	r0, r1, [sp]
	movs	r3, #0
	add	r0, r4, #8
.LVL172:
	.loc 2 473 2 is_stmt 0 view .LVU1926
	bl	z_impl_k_timer_start
.LVL173:
.L74:
	.loc 2 473 2 view .LVU1927
.LBE1047:
.LBE1046:
.LBE1045:
.LBE1044:
.LBE1041:
.LBE1040:
	.loc 1 133 2 is_stmt 1 view .LVU1928
.LBB1051:
.LBI1051:
	.loc 3 167 19 view .LVU1929
.LBB1052:
	.loc 3 175 2 view .LVU1930
.LBB1053:
.LBI1053:
	.loc 2 1093 19 view .LVU1931
.LBB1054:
	.loc 2 1102 2 view .LVU1932
	.loc 2 1102 7 view .LVU1933
	.loc 2 1102 5 view .LVU1934
	.loc 2 1103 2 view .LVU1935
	.loc 2 1103 9 is_stmt 0 view .LVU1936
	mov	r2, #-1
	mov	r3, #-1
	add	r0, r4, #88
.LVL174:
	.loc 2 1103 9 view .LVU1937
	bl	z_impl_k_sem_take
.LVL175:
	.loc 2 1103 9 view .LVU1938
.LBE1054:
.LBE1053:
	.loc 3 177 2 is_stmt 1 view .LVU1939
	.loc 3 177 5 is_stmt 0 view .LVU1940
	cbz	r0, .L75
	.loc 3 178 3 is_stmt 1 view .LVU1941
	.loc 3 178 15 is_stmt 0 view .LVU1942
	str	r0, [r4, #112]
.L75:
	.loc 3 181 2 is_stmt 1 view .LVU1943
	.loc 3 181 12 is_stmt 0 view .LVU1944
	ldr	r4, [r4, #112]
.LVL176:
	.loc 3 181 12 view .LVU1945
.LBE1052:
.LBE1051:
	.loc 1 133 9 view .LVU1946
	b	.L68
.LVL177:
.L73:
.LBB1055:
.LBB1050:
	.loc 3 230 2 is_stmt 1 view .LVU1947
.LBB1048:
.LBI1048:
	.loc 1 156 13 view .LVU1948
.LBB1049:
	.loc 1 158 2 view .LVU1949
	.loc 1 160 2 view .LVU1950
	.loc 1 160 17 is_stmt 0 view .LVU1951
	ldr	r3, [r4, #120]
	strb	r3, [r4, #172]
	.loc 1 161 2 is_stmt 1 view .LVU1952
	.loc 1 161 22 is_stmt 0 view .LVU1953
	str	r8, [r4, #168]
	.loc 1 163 2 is_stmt 1 view .LVU1954
	add	r0, r4, #376
	bl	k_sem_give
.LVL178:
	.loc 1 164 1 is_stmt 0 view .LVU1955
	b	.L74
.L95:
	.align	2
.L94:
	.word	.LC6
	.word	log_const_adc_mcp320x
	.word	.LC8
	.word	.LC7
	.word	999999
	.word	1000000
.LBE1049:
.LBE1048:
.LBE1050:
.LBE1055:
.LBE1056:
.LBE1059:
.LBE1061:
.LBE1063:
	.cfi_endproc
.LFE639:
	.size	mcp320x_read, .-mcp320x_read
	.section	.z_init_POST_KERNEL80_00037_,"a"
	.align	2
	.type	__init___device_dts_ord_37, %object
	.size	__init___device_dts_ord_37, 8
__init___device_dts_ord_37:
	.word	mcp320x_init
	.word	__device_dts_ord_37
	.global	__device_dts_ord_37
	.section	.rodata.str1.1,"aMS",%progbits,1
.LC9:
	.ascii	"mcp3204@0\000"
	.section	._device.static.3_80_,"a"
	.align	2
	.type	__device_dts_ord_37, %object
	.size	__device_dts_ord_37, 24
__device_dts_ord_37:
	.word	.LC9
	.word	mcp3204_config_0
	.word	mcp320x_adc_api
	.word	__devstate_dts_ord_37
	.word	mcp3204_data_0
	.word	0
	.section	.z_devstate,"aw"
	.type	__devstate_dts_ord_37, %object
	.size	__devstate_dts_ord_37, 2
__devstate_dts_ord_37:
	.space	2
	.section	.rodata.mcp3204_config_0,"a"
	.align	2
	.type	mcp3204_config_0, %object
	.size	mcp3204_config_0, 28
mcp3204_config_0:
	.word	__device_dts_ord_36
	.word	400000
	.short	256
	.short	0
	.word	__device_dts_ord_19
	.byte	15
	.space	1
	.short	1
	.word	0
	.byte	4
	.space	3
	.section	.data.mcp3204_data_0,"aw"
	.align	3
	.type	mcp3204_data_0, %object
	.size	mcp3204_data_0, 912
mcp3204_data_0:
	.space	8
	.space	8
	.word	z_timer_expiration_handler
	.space	4
	.word	0
	.word	0
	.word	mcp3204_data_0+32
	.word	mcp3204_data_0+32
	.word	adc_context_on_timer_expired
	.word	0
	.space	8
	.word	0
	.word	0
	.word	mcp3204_data_0+64
	.word	mcp3204_data_0+64
	.word	0
	.word	1
	.word	mcp3204_data_0+80
	.word	mcp3204_data_0+80
	.word	mcp3204_data_0+88
	.word	mcp3204_data_0+88
	.word	0
	.word	1
	.word	mcp3204_data_0+104
	.word	mcp3204_data_0+104
	.space	48
	.space	752
	.section	.rodata.mcp320x_adc_api,"a"
	.align	2
	.type	mcp320x_adc_api, %object
	.size	mcp320x_adc_api, 12
mcp320x_adc_api:
	.word	mcp320x_channel_setup
	.word	mcp320x_read
	.space	4
	.global	log_const_adc_mcp320x
	.section	.rodata.str1.1
.LC10:
	.ascii	"adc_mcp320x\000"
	.section	._log_const.static.log_const_adc_mcp320x_,"a"
	.align	2
	.type	log_const_adc_mcp320x, %object
	.size	log_const_adc_mcp320x, 8
log_const_adc_mcp320x:
	.word	.LC10
	.byte	3
	.space	3
	.text
.Letext0:
	.file 13 "/home/g/zephyr-sdk-0.16.3/arm-zephyr-eabi/picolibc/include/machine/_default_types.h"
	.file 14 "/home/g/zephyr-sdk-0.16.3/arm-zephyr-eabi/picolibc/include/sys/_stdint.h"
	.file 15 "/home/g/zephyr-sdk-0.16.3/arm-zephyr-eabi/lib/gcc/arm-zephyr-eabi/12.2.0/include/stddef.h"
	.file 16 "/home/g/mise-work/zmk-firmware/zmk/zephyr/include/zephyr/init.h"
	.file 17 "/home/g/mise-work/zmk-firmware/zmk/zephyr/include/zephyr/sys/atomic.h"
	.file 18 "/home/g/mise-work/zmk-firmware/zmk/zephyr/include/zephyr/sys/dlist.h"
	.file 19 "/home/g/mise-work/zmk-firmware/zmk/zephyr/include/zephyr/sys/rb.h"
	.file 20 "/home/g/mise-work/zmk-firmware/zmk/zephyr/include/zephyr/sys/sys_heap.h"
	.file 21 "/home/g/mise-work/zmk-firmware/zmk/zephyr/include/zephyr/kernel/thread.h"
	.file 22 "/home/g/mise-work/zmk-firmware/zmk/zephyr/include/zephyr/kernel_structs.h"
	.file 23 "/home/g/mise-work/zmk-firmware/zmk/zephyr/include/zephyr/sys/arch_interface.h"
	.file 24 "/home/g/mise-work/zmk-firmware/zmk/zephyr/include/zephyr/kernel/thread_stack.h"
	.file 25 "/home/g/mise-work/zmk-firmware/zmk/zephyr/include/zephyr/arch/arm/thread.h"
	.file 26 "/home/g/mise-work/zmk-firmware/zmk/zephyr/include/zephyr/sys_clock.h"
	.file 27 "/home/g/mise-work/zmk-firmware/zmk/zephyr/include/zephyr/fatal_types.h"
	.file 28 "/home/g/mise-work/zmk-firmware/zmk/zephyr/include/zephyr/drivers/adc.h"
	.file 29 "/home/g/mise-work/zmk-firmware/zmk/zephyr/include/zephyr/logging/log_instance.h"
	.file 30 "/home/g/mise-work/zmk-firmware/zmk/zephyr/include/zephyr/sys/cbprintf.h"
	.file 31 "/home/g/mise-work/zmk-firmware/zmk/zephyr/include/zephyr/logging/log_msg.h"
	.file 32 "/home/g/mise-work/zmk-firmware/zmk/zephyr/include/zephyr/sys/byteorder.h"
	.file 33 "/home/g/mise-work/zmk-firmware/zmk/zephyr/include/zephyr/sys/cbprintf_internal.h"
	.file 34 "/home/g/mise-work/zmk-firmware/zmk/zephyr/include/zephyr/spinlock.h"
	.file 35 "/home/g/mise-work/zmk-firmware/zmk/zephyr/include/zephyr/syscall.h"