	.cpu cortex-m4
	.arch armv7e-m
	.fpu fpv4-sp-d16
	.eabi_attribute 27, 1
	.eabi_attribute 28, 1
	.eabi_attribute 20, 1
	.eabi_attribute 21, 1
	.eabi_attribute 23, 3
	.eabi_attribute 24, 1
	.eabi_attribute 25, 1
	.eabi_attribute 26, 1
	.eabi_attribute 30, 4
	.eabi_attribute 34, 1
	.eabi_attribute 38, 1
	.eabi_attribute 18, 4
	.file	"input_processor_behaviors.c"
	.text
.Ltext0:
	.cfi_sections	.debug_frame
	.file 1 "/home/g/mise-work/zmk-firmware/zmk/app/src/pointing/input_processor_behaviors.c"
	.section	.text.ip_behaviors_init,"ax",%progbits
	.align	1
	.syntax unified
	.thumb
	.thumb_func
	.type	ip_behaviors_init, %function
ip_behaviors_init:
.LVL0:
.LFB568:
	.loc 1 71 56 view -0
	.cfi_startproc
	@ args = 0, pretend = 0, frame = 0
	@ frame_needed = 0, uses_anonymous_args = 0
	@ link register save eliminated.
	.loc 1 71 58 view .LVU1
	.loc 1 71 68 is_stmt 0 view .LVU2
	movs	r0, #0
.LVL1:
	.loc 1 71 68 view .LVU3
	bx	lr
	.cfi_endproc
.LFE568:
	.size	ip_behaviors_init, .-ip_behaviors_init
	.section	.rodata.ip_behaviors_handle_event.str1.1,"aMS",%progbits,1
.LC0:
	.ascii	"%s: FOUND A MATCHING CODE, invoke %s for position %"
	.ascii	"d with %d listeners\000"
	.section	.text.ip_behaviors_handle_event,"ax",%progbits
	.align	1
	.syntax unified
	.thumb
	.thumb_func
	.type	ip_behaviors_handle_event, %function
ip_behaviors_handle_event:
.LVL2:
.LFB567:
	.loc 1 34 79 is_stmt 1 view -0
	.cfi_startproc
	@ args = 4, pretend = 0, frame = 24
	@ frame_needed = 1, uses_anonymous_args = 0
	.loc 1 35 5 view .LVU5
	.loc 1 34 79 is_stmt 0 view .LVU6
	push	{r4, r5, r6, r7, r8, r9, r10, fp, lr}
	.cfi_def_cfa_offset 36
	.cfi_offset 4, -36
	.cfi_offset 5, -32
	.cfi_offset 6, -28
	.cfi_offset 7, -24
	.cfi_offset 8, -20
	.cfi_offset 9, -16
	.cfi_offset 10, -12
	.cfi_offset 11, -8
	.cfi_offset 14, -4
	sub	sp, sp, #44
	.cfi_def_cfa_offset 80
	.loc 1 35 39 view .LVU7
	ldr	r5, [r0, #4]
.LVL3:
	.loc 1 37 5 is_stmt 1 view .LVU8
	.loc 1 37 8 is_stmt 0 view .LVU9
	ldrb	r2, [r1, #5]	@ zero_extendqisi2
.LVL4:
	.loc 1 37 8 view .LVU10
	ldrh	r3, [r5, #8]
.LVL5:
	.loc 1 37 8 view .LVU11
	cmp	r2, r3
	.loc 1 34 79 view .LVU12
	add	r7, sp, #16
	.cfi_def_cfa 7, 64
	.loc 1 34 79 view .LVU13
	mov	r6, r1
	.loc 1 37 8 view .LVU14
	bne	.L8
.LBB108:
	.loc 1 41 31 view .LVU15
	ldr	r3, [r5, #4]
	.loc 1 41 17 view .LVU16
	movs	r4, #0
.LVL6:
.L4:
	.loc 1 41 26 is_stmt 1 discriminator 1 view .LVU17
	cmp	r4, r3
	bne	.L7
.LVL7:
.L8:
	.loc 1 41 26 is_stmt 0 discriminator 1 view .LVU18
.LBE108:
	.loc 1 38 16 view .LVU19
	movs	r0, #0
.LVL8:
	.loc 1 38 16 view .LVU20
	b	.L2
.LVL9:
.L7:
.LBB179:
	.loc 1 42 9 is_stmt 1 view .LVU21
	.loc 1 42 23 is_stmt 0 view .LVU22
	ldr	r2, [r5, #12]
	.loc 1 42 12 view .LVU23
	ldrh	r1, [r2, r4, lsl #1]
	ldrh	r2, [r6, #6]
	cmp	r1, r2
	bne	.L5
.LBB109:
	.loc 1 43 13 is_stmt 1 view .LVU24
	.loc 1 44 150 is_stmt 0 view .LVU25
	ldr	r3, [r7, #64]
	.loc 1 44 142 view .LVU26
	ldrb	r8, [r5]	@ zero_extendqisi2
	.loc 1 44 150 view .LVU27
	ldrb	r2, [r3]	@ zero_extendqisi2
	.loc 1 43 47 view .LVU28
	add	r9, r7, #8
	mov	fp, #0
	.loc 1 44 142 view .LVU29
	adds	r2, r2, #24
	mov	r10, #4
	.loc 1 43 47 view .LVU30
	str	fp, [r7, #8]
	.loc 1 44 142 view .LVU31
	smlabb	r8, r10, r8, r2
	.loc 1 43 47 view .LVU32
	str	fp, [r9, #4]
.LVL10:
.LBB110:
.LBI110:
	.file 2 "/home/g/mise-work/zmk-firmware/zmk/zephyr/include/zephyr/kernel.h"
	.loc 2 1757 23 is_stmt 1 view .LVU33
.LBB111:
	.loc 2 1759 2 view .LVU34
.LBB112:
.LBI112:
	.file 3 "/home/g/mise-work/zmk-firmware/zmk/app/build/zephyr/include/generated/syscalls/kernel.h"
	.loc 3 599 23 view .LVU35
.LBB113:
	.loc 3 608 2 view .LVU36
	.loc 3 608 7 view .LVU37
	.loc 3 608 5 view .LVU38
	.loc 3 609 2 view .LVU39
	.loc 3 609 9 is_stmt 0 view .LVU40
	bl	z_impl_k_uptime_ticks
.LVL11:
	.loc 3 609 9 view .LVU41
.LBE113:
.LBE112:
	.loc 2 1759 51 view .LVU42
	mov	ip, #1000
	umull	r0, r2, r0, ip
	mla	r1, ip, r1, r2
.LBE111:
.LBE110:
.LBB117:
.LBB118:
	.loc 1 52 96 view .LVU43
	movs	r2, #12
	muls	r4, r2, r4
.LVL12:
	.loc 1 52 96 view .LVU44
.LBE118:
.LBE117:
.LBB164:
.LBB114:
	.loc 2 1759 44 view .LVU45
	lsrs	r0, r0, #15
.LBE114:
.LBE164:
.LBB165:
.LBB156:
	.loc 1 52 76 view .LVU46
	ldr	r2, [r5, #16]
.LBB119:
.LBB120:
	.loc 1 52 117 view .LVU47
	str	sp, [r7, #4]
.LBE120:
.LBE119:
.LBE156:
.LBE165:
.LBB166:
.LBB115:
	.loc 2 1759 44 view .LVU48
	orr	r0, r0, r1, lsl #17
.LBE115:
.LBE166:
.LBB167:
.LBB157:
.LBB149:
.LBB143:
	.loc 1 52 92 view .LVU49
	sub	sp, sp, #48
.LBE143:
.LBE149:
.LBE157:
.LBE167:
.LBB168:
.LBB116:
	.loc 2 1759 44 view .LVU50
	lsrs	r1, r1, #15
.LBE116:
.LBE168:
	.loc 1 43 47 view .LVU51
	strd	r0, r1, [r7, #16]
	.loc 1 52 13 is_stmt 1 view .LVU52
.LBB169:
	.loc 1 52 18 view .LVU53
	.loc 1 52 67 view .LVU54
	.loc 1 52 24 view .LVU55
	.loc 1 52 12 view .LVU56
.LVL13:
	.loc 1 52 51 view .LVU57
	.loc 1 52 186 view .LVU58
	.loc 1 52 197 view .LVU59
	.loc 1 52 285 view .LVU60
.LBB158:
	.loc 1 52 13 view .LVU61
	.loc 1 52 15 view .LVU62
	.loc 1 52 64 view .LVU63
	.loc 1 52 76 is_stmt 0 view .LVU64
	ldr	r1, [r2, r4]
.LVL14:
	.loc 1 52 120 is_stmt 1 view .LVU65
	.loc 1 52 170 view .LVU66
	.loc 1 52 13 view .LVU67
.LBB150:
	.loc 1 52 18 view .LVU68
	.loc 1 52 12 view .LVU69
.LBE150:
.LBE158:
.LBE169:
.LBE109:
.LBE179:
	.loc 1 52 13 view .LVU70
	.loc 1 52 22 view .LVU71
	.loc 1 52 117 view .LVU72
	.loc 1 52 13 view .LVU73
.LBB180:
.LBB175:
.LBB170:
.LBB159:
.LBB151:
	.loc 1 52 22 view .LVU74
	.loc 1 52 112 view .LVU75
	.loc 1 52 114 view .LVU76
.LBB144:
	.loc 1 52 119 view .LVU77
	.loc 1 52 130 view .LVU78
	.loc 1 52 219 view .LVU79
	.loc 1 52 36 view .LVU80
.LBE144:
.LBE151:
.LBE159:
.LBE170:
.LBE175:
.LBE180:
	.loc 1 52 13 view .LVU81
	.loc 1 52 378 view .LVU82
	.loc 1 52 85 view .LVU83
	.loc 1 52 12 view .LVU84
	.loc 1 52 12 view .LVU85
	.loc 1 52 12 view .LVU86
	.loc 1 52 48 view .LVU87
	.loc 1 52 14 view .LVU88
	.loc 1 52 40 view .LVU89
	.loc 1 52 66 view .LVU90
	.loc 1 52 1871 view .LVU91
	.loc 1 52 1933 view .LVU92
	.loc 1 52 3852 view .LVU93
	.loc 1 52 3917 view .LVU94
	.loc 1 52 3942 view .LVU95
	.loc 1 52 3943 view .LVU96
	.loc 1 52 3945 view .LVU97
	.loc 1 52 3975 view .LVU98
	.loc 1 52 4005 view .LVU99
	.loc 1 52 4037 view .LVU100
	.loc 1 52 4069 view .LVU101
	.loc 1 52 0 view .LVU102
	.loc 1 52 0 view .LVU103
	.loc 1 52 0 view .LVU104
	.loc 1 52 0 view .LVU105
	.loc 1 52 0 view .LVU106
	.loc 1 52 0 view .LVU107
	.loc 1 52 0 view .LVU108
	.loc 1 52 0 view .LVU109
	.loc 1 52 0 view .LVU110
	.loc 1 52 0 view .LVU111
	.loc 1 52 0 view .LVU112
	.loc 1 52 14 view .LVU113
	.loc 1 52 32 view .LVU114
	.loc 1 52 52 view .LVU115
	.loc 1 52 14 view .LVU116
	.loc 1 52 52 view .LVU117
	.loc 1 52 23 view .LVU118
	.loc 1 52 23 view .LVU119
	.loc 1 52 71 view .LVU120
	.loc 1 52 102 view .LVU121
	.loc 1 52 136 view .LVU122
	.loc 1 52 141 view .LVU123
	.loc 1 52 438 view .LVU124
	.loc 1 52 1679 view .LVU125
	.loc 1 52 1744 view .LVU126
	.loc 1 52 1768 view .LVU127
	.loc 1 52 1869 view .LVU128
	.loc 1 52 1880 view .LVU129
	.loc 1 52 2039 view .LVU130
	.loc 1 52 2055 view .LVU131
	.loc 1 52 2095 view .LVU132
	.loc 1 52 2120 view .LVU133
	.loc 1 52 3503 view .LVU134
	.loc 1 52 3544 view .LVU135
	.loc 1 52 17 view .LVU136
	.loc 1 52 40 view .LVU137
	.loc 1 52 139 view .LVU138
	.loc 1 52 16 view .LVU139
	.loc 1 52 21 view .LVU140
	.loc 1 52 246 view .LVU141
	.loc 1 52 1199 view .LVU142
	.loc 1 52 1264 view .LVU143
	.loc 1 52 1288 view .LVU144
	.loc 1 52 1317 view .LVU145
	.loc 1 52 1328 view .LVU146
	.loc 1 52 1415 view .LVU147
	.loc 1 52 1431 view .LVU148
	.loc 1 52 1471 view .LVU149
	.loc 1 52 1496 view .LVU150
	.loc 1 52 2735 view .LVU151
	.loc 1 52 2776 view .LVU152
	.loc 1 52 17 view .LVU153
	.loc 1 52 40 view .LVU154
	.loc 1 52 19 view .LVU155
	.loc 1 52 16 view .LVU156
	.loc 1 52 21 view .LVU157
	.loc 1 52 246 view .LVU158
	.loc 1 52 1199 view .LVU159
	.loc 1 52 1264 view .LVU160
	.loc 1 52 1288 view .LVU161
	.loc 1 52 1317 view .LVU162
	.loc 1 52 1328 view .LVU163
	.loc 1 52 1415 view .LVU164
	.loc 1 52 1431 view .LVU165
	.loc 1 52 1471 view .LVU166
	.loc 1 52 1561 view .LVU167
	.loc 1 52 1964 view .LVU168
	.loc 1 52 2621 view .LVU169
	.loc 1 52 2640 view .LVU170
	.loc 1 52 2677 view .LVU171
	.loc 1 52 2735 view .LVU172
	.loc 1 52 2776 view .LVU173
	.loc 1 52 17 view .LVU174
	.loc 1 52 40 view .LVU175
	.loc 1 52 19 view .LVU176
	.loc 1 52 16 view .LVU177
	.loc 1 52 21 view .LVU178
	.loc 1 52 246 view .LVU179
	.loc 1 52 1199 view .LVU180
	.loc 1 52 1264 view .LVU181
	.loc 1 52 1288 view .LVU182
	.loc 1 52 1317 view .LVU183
	.loc 1 52 1328 view .LVU184
	.loc 1 52 1415 view .LVU185
	.loc 1 52 1431 view .LVU186
	.loc 1 52 1471 view .LVU187
	.loc 1 52 2735 view .LVU188
	.loc 1 52 2776 view .LVU189
	.loc 1 52 17 view .LVU190
	.loc 1 52 40 view .LVU191
	.loc 1 52 19 view .LVU192
	.loc 1 52 16 view .LVU193
	.loc 1 52 21 view .LVU194
	.loc 1 52 246 view .LVU195
	.loc 1 52 1199 view .LVU196
	.loc 1 52 1264 view .LVU197
	.loc 1 52 1288 view .LVU198
	.loc 1 52 1317 view .LVU199
	.loc 1 52 1328 view .LVU200
	.loc 1 52 1415 view .LVU201
	.loc 1 52 1431 view .LVU202
	.loc 1 52 1471 view .LVU203
	.loc 1 52 2735 view .LVU204
	.loc 1 52 2776 view .LVU205
	.loc 1 52 17 view .LVU206
	.loc 1 52 40 view .LVU207
	.loc 1 52 19 view .LVU208
	.loc 1 52 15 view .LVU209
	.loc 1 52 38 view .LVU210
	.loc 1 52 62 view .LVU211
	.loc 1 52 90 view .LVU212
	.loc 1 52 266 view .LVU213
	.loc 1 52 26 view .LVU214
.LBB181:
.LBB176:
.LBB171:
.LBB160:
.LBB152:
.LBB145:
	.loc 1 52 39 view .LVU215
	.loc 1 52 13 view .LVU216
	.loc 1 52 13 view .LVU217
	.loc 1 52 80 view .LVU218
	.loc 1 52 92 is_stmt 0 view .LVU219
	add	r2, sp, #16
.LVL15:
	.loc 1 52 84 is_stmt 1 view .LVU220
	.loc 1 52 494 view .LVU221
	.loc 1 52 15 view .LVU222
	.loc 1 52 17 view .LVU223
	.loc 1 52 22 view .LVU224
	.loc 1 52 20 view .LVU225
	.loc 1 52 15 view .LVU226
	.loc 1 52 33 view .LVU227
.LBB121:
	.loc 1 52 13 view .LVU228
	.loc 1 52 378 view .LVU229
	.loc 1 52 85 view .LVU230
.LVL16:
	.loc 1 52 12 view .LVU231
	.loc 1 52 12 view .LVU232
	.loc 1 52 12 view .LVU233
	.loc 1 52 48 view .LVU234
	.loc 1 52 77 view .LVU235
	.loc 1 52 103 view .LVU236
	.loc 1 52 129 view .LVU237
	.loc 1 52 1934 view .LVU238
	.loc 1 52 1996 view .LVU239
	.loc 1 52 3915 view .LVU240
	.loc 1 52 3980 view .LVU241
	.loc 1 52 4005 view .LVU242
	.loc 1 52 4006 view .LVU243
	.loc 1 52 4008 view .LVU244
	.loc 1 52 4038 view .LVU245
	.loc 1 52 4068 view .LVU246
	.loc 1 52 0 view .LVU247
	.loc 1 52 0 view .LVU248
	.loc 1 52 0 view .LVU249
	.loc 1 52 0 view .LVU250
	.loc 1 52 0 view .LVU251
	.loc 1 52 0 view .LVU252
	.loc 1 52 0 view .LVU253
	.loc 1 52 0 view .LVU254
	.loc 1 52 0 view .LVU255
	.loc 1 52 0 view .LVU256
	.loc 1 52 0 view .LVU257
	.loc 1 52 0 view .LVU258
	.loc 1 52 0 view .LVU259
.LBB122:
	.loc 1 52 3541 view .LVU260
	.loc 1 52 3546 view .LVU261
	.loc 1 52 0 view .LVU262
	ldr	r0, .L9
	str	r0, [r2, #20]
	.loc 1 52 3544 view .LVU263
	.loc 1 52 17 view .LVU264
.LVL17:
	.loc 1 52 40 view .LVU265
	.loc 1 52 40 is_stmt 0 view .LVU266
.LBE122:
	.loc 1 52 139 is_stmt 1 view .LVU267
	.loc 1 52 16 view .LVU268
.LBB123:
	.loc 1 52 21 view .LVU269
	.loc 1 52 246 view .LVU270
	.loc 1 52 1199 view .LVU271
	.loc 1 52 1264 view .LVU272
.LBE123:
.LBE121:
.LBE145:
.LBE152:
.LBE160:
.LBE171:
.LBE176:
.LBE181:
	.loc 1 52 1288 view .LVU273
	.loc 1 52 1317 view .LVU274
	.loc 1 52 1328 view .LVU275
	.loc 1 52 1415 view .LVU276
.LBB182:
.LBB177:
.LBB172:
.LBB161:
.LBB153:
.LBB146:
.LBB139:
.LBB124:
	.loc 1 52 1431 view .LVU277
	.loc 1 52 1471 view .LVU278
	.loc 1 52 1496 view .LVU279
	.loc 1 52 2735 view .LVU280
	.loc 1 52 2773 view .LVU281
	.loc 1 52 2778 view .LVU282
	.loc 1 52 3222 view .LVU283
.LBE124:
.LBB125:
.LBB126:
	.loc 1 52 237 is_stmt 0 view .LVU284
	movw	r3, #769
.LBE126:
.LBE125:
.LBB129:
	.loc 1 52 3821 view .LVU285
	ldr	r0, .L9+4
.LBE129:
.LBB130:
.LBB127:
	.loc 1 52 237 view .LVU286
	strh	r3, [r2, #40]	@ movhi
.LBE127:
.LBE130:
.LBB131:
	.loc 1 52 186 view .LVU287
	ldr	r3, .L9+8
.LBE131:
.LBB132:
	.loc 1 52 3821 view .LVU288
	strd	r0, r1, [r2, #24]
	.loc 1 52 2776 is_stmt 1 view .LVU289
	.loc 1 52 17 view .LVU290
.LVL18:
	.loc 1 52 40 view .LVU291
	.loc 1 52 40 is_stmt 0 view .LVU292
.LBE132:
	.loc 1 52 19 is_stmt 1 view .LVU293
	.loc 1 52 16 view .LVU294
.LBB133:
	.loc 1 52 21 view .LVU295
	.loc 1 52 246 view .LVU296
	.loc 1 52 1199 view .LVU297
	.loc 1 52 1264 view .LVU298
.LBE133:
.LBE139:
.LBE146:
.LBE153:
.LBE161:
.LBE172:
.LBE177:
.LBE182:
	.loc 1 52 1288 view .LVU299
	.loc 1 52 1317 view .LVU300
	.loc 1 52 1328 view .LVU301
	.loc 1 52 1415 view .LVU302
.LBB183:
.LBB178:
.LBB173:
.LBB162:
.LBB154:
.LBB147:
.LBB140:
.LBB134:
	.loc 1 52 1431 view .LVU303
	.loc 1 52 1471 view .LVU304
	.loc 1 52 2735 view .LVU305
	.loc 1 52 2773 view .LVU306
	.loc 1 52 2778 view .LVU307
	.loc 1 52 3222 view .LVU308
.LBE134:
.LBB135:
.LBB128:
	.loc 1 52 218 view .LVU309
	.loc 1 52 192 view .LVU310
.LBE128:
.LBE135:
	.loc 1 52 266 view .LVU311
	.loc 1 52 26 view .LVU312
.LBB136:
	.loc 1 52 16 view .LVU313
	.loc 1 52 174 view .LVU314
	.loc 1 52 176 view .LVU315
.LBE136:
.LBB137:
	.loc 1 52 3821 is_stmt 0 view .LVU316
	strd	r8, r10, [r2, #32]
.LBE137:
.LBB138:
	.loc 1 52 186 view .LVU317
	str	r3, [r2, #16]!
.LVL19:
	.loc 1 52 186 view .LVU318
.LBE138:
.LBE140:
	.loc 1 52 36 is_stmt 1 view .LVU319
	.loc 1 52 17 view .LVU320
	.loc 1 52 157 view .LVU321
	.loc 1 52 159 view .LVU322
.LBB141:
.LBI141:
	.file 4 "/home/g/mise-work/zmk-firmware/zmk/app/build/zephyr/include/generated/syscalls/log_msg.h"
	.loc 4 26 20 view .LVU323
.LBB142:
	.loc 4 38 2 view .LVU324
	.loc 4 38 7 view .LVU325
	.loc 4 38 5 view .LVU326
	.loc 4 39 2 view .LVU327
	ldr	r0, .L9+12
	mov	r3, fp
	mov	r1, #13568
.LVL20:
	.loc 4 39 2 is_stmt 0 view .LVU328
	bl	z_impl_z_log_msg_static_create
.LVL21:
	.loc 4 39 2 view .LVU329
.LBE142:
.LBE141:
.LBE147:
.LBE154:
.LBE162:
.LBE173:
	.loc 1 55 23 view .LVU330
	ldr	r3, [r6, #8]
.LBB174:
.LBB163:
.LBB155:
.LBB148:
	ldr	sp, [r7, #4]
.LBE148:
	.loc 1 52 117 is_stmt 1 view .LVU331
	.loc 1 52 15 view .LVU332
.LVL22:
	.loc 1 52 52 view .LVU333
.LBE155:
	.loc 1 52 16 view .LVU334
.LBE163:
	.loc 1 52 288 view .LVU335
	.loc 1 52 15 view .LVU336
	.loc 1 52 28 view .LVU337
.LBE174:
	.loc 1 52 16 view .LVU338
	.loc 1 55 13 view .LVU339
	.loc 1 55 51 is_stmt 0 view .LVU340
	ldr	r5, [r5, #16]
.LVL23:
	.loc 1 55 23 view .LVU341
	str	r8, [r7, #12]
	subs	r3, r3, fp
	it	ne
	movne	r3, #1
	str	r3, [sp, #8]
.LVL24:
	.loc 1 55 23 view .LVU342
	add	r3, r7, #24
.LVL25:
	.loc 1 55 23 view .LVU343
	ldmdb	r3, {r0, r1}
	stm	sp, {r0, r1}
	adds	r0, r5, r4
	ldm	r9, {r2, r3}
.LVL26:
	.loc 1 55 23 view .LVU344
	bl	zmk_behavior_invoke_binding
.LVL27:
	.loc 1 56 13 is_stmt 1 view .LVU345
	.loc 1 60 20 is_stmt 0 view .LVU346
	cmp	r0, #0
	.loc 1 60 20 view .LVU347
	it	ge
	movge	r0, #1
.LVL28:
.L2:
	.loc 1 60 20 view .LVU348
.LBE178:
.LBE183:
	.loc 1 65 1 view .LVU349
	adds	r7, r7, #28
	.cfi_remember_state
	.cfi_def_cfa_offset 36
	mov	sp, r7
	.cfi_def_cfa_register 13
	@ sp needed
	pop	{r4, r5, r6, r7, r8, r9, r10, fp, pc}
.LVL29:
.L5:
	.cfi_restore_state
.LBB184:
	.loc 1 41 40 is_stmt 1 discriminator 2 view .LVU350
	adds	r4, r4, #1
.LVL30:
	.loc 1 41 40 is_stmt 0 discriminator 2 view .LVU351
	b	.L4
.L10:
	.align	2
.L9:
	.word	.LC0
	.word	__func__.0
	.word	16777222
	.word	log_const_zmk
.LBE184:
	.cfi_endproc
.LFE567:
	.size	ip_behaviors_handle_event, .-ip_behaviors_handle_event
	.section	.rodata.__func__.0,"a"
	.type	__func__.0, %object
	.size	__func__.0, 26
__func__.0:
	.ascii	"ip_behaviors_handle_event\000"
	.section	.z_init_POST_KERNEL40_00032_,"a"
	.align	2
	.type	__init___device_dts_ord_32, %object
	.size	__init___device_dts_ord_32, 8
__init___device_dts_ord_32:
	.word	ip_behaviors_init
	.word	__device_dts_ord_32
	.global	__device_dts_ord_32
	.section	.rodata.str1.1,"aMS",%progbits,1
.LC1:
	.ascii	"zip_button_behaviors\000"
	.section	._device.static.3_40_,"a"
	.align	2
	.type	__device_dts_ord_32, %object
	.size	__device_dts_ord_32, 24
__device_dts_ord_32:
	.word	.LC1
	.word	ip_behaviors_config_0
	.word	ip_behaviors_driver_api
	.word	__devstate_dts_ord_32
	.word	0
	.word	0
	.section	.z_devstate,"aw"
	.type	__devstate_dts_ord_32, %object
	.size	__devstate_dts_ord_32, 2
__devstate_dts_ord_32:
	.space	2
	.section	.rodata.ip_behaviors_config_0,"a"
	.align	2
	.type	ip_behaviors_config_0, %object
	.size	ip_behaviors_config_0, 20
ip_behaviors_config_0:
	.byte	0
	.space	3
	.word	3
	.short	1
	.space	2
	.word	ip_behaviors_codes_0
	.word	ip_behaviors_bindings_0
	.section	.rodata.str1.1
.LC2:
	.ascii	"none\000"
	.section	.rodata.ip_behaviors_bindings_0,"a"
	.align	2
	.type	ip_behaviors_bindings_0, %object
	.size	ip_behaviors_bindings_0, 36
ip_behaviors_bindings_0:
	.word	.LC2
	.word	0
	.word	0
	.word	.LC2
	.word	0
	.word	0
	.word	.LC2
	.word	0
	.word	0
	.section	.rodata.ip_behaviors_codes_0,"a"
	.align	1
	.type	ip_behaviors_codes_0, %object
	.size	ip_behaviors_codes_0, 6
ip_behaviors_codes_0:
	.short	256
	.short	257
	.short	258
	.section	.data.ip_behaviors_driver_api,"aw"
	.align	2
	.type	ip_behaviors_driver_api, %object
	.size	ip_behaviors_driver_api, 4
ip_behaviors_driver_api:
	.word	ip_behaviors_handle_event
	.text
.Letext0:
	.file 5 "/home/g/zephyr-sdk-0.16.3/arm-zephyr-eabi/lib/gcc/arm-zephyr-eabi/12.2.0/include/stddef.h"
	.file 6 "/home/g/zephyr-sdk-0.16.3/arm-zephyr-eabi/picolibc/include/machine/_default_types.h"
	.file 7 "/home/g/zephyr-sdk-0.16.3/arm-zephyr-eabi/picolibc/include/sys/_stdint.h"
	.file 8 "/home/g/mise-work/zmk-firmware/zmk/zephyr/include/zephyr/fatal_types.h"
	.file 9 "/home/g/mise-work/zmk-firmware/zmk/zephyr/include/zephyr/init.h"
	.file 10 "/home/g/mise-work/zmk-firmware/zmk/zephyr/include/zephyr/device.h"
	.file 11 "/home/g/mise-work/zmk-firmware/zmk/zephyr/include/zephyr/input/input.h"
	.file 12 "/home/g/mise-work/zmk-firmware/zmk/app/include/drivers/input_processor.h"
	.file 13 "/home/g/mise-work/zmk-firmware/zmk/zephyr/include/zephyr/logging/log_instance.h"
	.file 14 "/home/g/mise-work/zmk-firmware/zmk/zephyr/include/zephyr/sys/cbprintf.h"
	.file 15 "/home/g/mise-work/zmk-firmware/zmk/zephyr/include/zephyr/logging/log_msg.h"
	.file 16 "/home/g/mise-work/zmk-firmware/zmk/app/include/zmk/behavior.h"
	.file 17 "/home/g/mise-work/zmk-firmware/zmk/zephyr/include/zephyr/syscall.h"
	.file 18 "/home/g/mise-work/zmk-firmware/zmk/zephyr/include/zephyr/sys/cbprintf_internal.h"